	.text
	.syntax unified
	.eabi_attribute	67, "2.09"	@ Tag_conformance
	.cpu	cortex-m4
	.eabi_attribute	6, 13	@ Tag_CPU_arch
	.eabi_attribute	7, 77	@ Tag_CPU_arch_profile
	.eabi_attribute	8, 0	@ Tag_ARM_ISA_use
	.eabi_attribute	9, 2	@ Tag_THUMB_ISA_use
	.fpu	fpv4-sp-d16
	.eabi_attribute	27, 1	@ Tag_ABI_HardFP_use
	.eabi_attribute	36, 1	@ Tag_FP_HP_extension
	.eabi_attribute	34, 1	@ Tag_CPU_unaligned_access
	.eabi_attribute	17, 1	@ Tag_ABI_PCS_GOT_use
	.eabi_attribute	20, 2	@ Tag_ABI_FP_denormal
	.eabi_attribute	21, 0	@ Tag_ABI_FP_exceptions
	.eabi_attribute	23, 1	@ Tag_ABI_FP_number_model
	.eabi_attribute	24, 1	@ Tag_ABI_align_needed
	.eabi_attribute	25, 1	@ Tag_ABI_align_preserved
	.eabi_attribute	28, 1	@ Tag_ABI_VFP_args
	.eabi_attribute	38, 1	@ Tag_ABI_FP_16bit_format
	.eabi_attribute	18, 2	@ Tag_ABI_PCS_wchar_t
	.eabi_attribute	26, 1	@ Tag_ABI_enum_size
	.eabi_attribute	14, 0	@ Tag_ABI_PCS_R9_use
	.file	"command.c"
	.file	1 "F:\\SkyDrive\\OtvoreniProjekti\\HotelSaplast\\fw\\KontrolerHotela\\HCBL020318\\Project" "../User/FATFS/integer.h"
	.file	2 "F:\\SkyDrive\\OtvoreniProjekti\\HotelSaplast\\fw\\KontrolerHotela\\HCBL020318\\Project" "../User/FATFS\\ff.h"
	.file	3 "F:\\SkyDrive\\OtvoreniProjekti\\HotelSaplast\\fw\\KontrolerHotela\\HCBL020318\\Project" "../Driver/command.c"
	.file	4 "C:\\Keil\\ARM\\ARMCLANG\\Bin\\..\\include" "stdint.h"
	.file	5 "F:\\SkyDrive\\OtvoreniProjekti\\HotelSaplast\\fw\\KontrolerHotela\\HCBL020318\\Project" "../Libraries/CMSIS/Device/ST/STM32F4xx/Include\\stm32f4xx.h"
	.file	6 "F:\\SkyDrive\\OtvoreniProjekti\\HotelSaplast\\fw\\KontrolerHotela\\HCBL020318\\Project" "../Libraries/STM32F4xx_StdPeriph_Driver/inc\\stm32f4xx_flash.h"
	.file	7 "F:\\SkyDrive\\OtvoreniProjekti\\HotelSaplast\\fw\\KontrolerHotela\\HCBL020318\\Project" "../Driver/fonts.h"
	.file	8 "C:/Keil\\ARM\\CMSIS\\Include" "core_cm4.h"
	.section	.text.COMMAND_Upload,"ax",%progbits
	.hidden	COMMAND_Upload          @ -- Begin function COMMAND_Upload
	.globl	COMMAND_Upload
	.p2align	2
	.type	COMMAND_Upload,%function
	.code	16                      @ @COMMAND_Upload
	.thumb_func
COMMAND_Upload:
.Lfunc_begin0:
	.loc	3 69 0                  @ ../Driver/command.c:69:0
	.fnstart
	.cfi_sections .debug_frame
	.cfi_startproc
@ %bb.0:
	.save	{r4, r5, r6, r7, r8, lr}
	.pad	#16
	push.w	{r0, r1, r2, r3, r4, r5, r6, r7, r8, lr}
	.cfi_def_cfa_offset 40
	.cfi_offset lr, -4
	.cfi_offset r8, -8
	.cfi_offset r7, -12
	.cfi_offset r6, -16
	.cfi_offset r5, -20
	.cfi_offset r4, -24
	ldr	r0, __arm_cp.0_0
.Ltmp0:
	.loc	3 70 16 prologue_end    @ ../Driver/command.c:70:16
	str	r0, [sp, #12]
	movs	r0, #0
	.loc	3 71 16                 @ ../Driver/command.c:71:16
	str	r0, [sp, #8]
.Ltmp1:
	@DEBUG_VALUE: COMMAND_Upload:readoutstatus <- 1
	@DEBUG_VALUE: COMMAND_Upload:indexoffset <- 0
	@DEBUG_VALUE: COMMAND_Upload:tmpcounter <- 0
	.loc	3 78 18                 @ ../Driver/command.c:78:18
	bl	FLASH_If_ReadOutProtectionStatus
.Ltmp2:
	@DEBUG_VALUE: COMMAND_Upload:readoutstatus <- $r0
	.loc	3 80 6                  @ ../Driver/command.c:80:6
	cbz	r0, .LBB0_2
.Ltmp3:
@ %bb.1:
	@DEBUG_VALUE: COMMAND_Upload:readoutstatus <- $r0
	.loc	3 122 3                 @ ../Driver/command.c:122:3
	bl	Fail_Handler
.Ltmp4:
	.loc	3 124 1                 @ ../Driver/command.c:124:1
	pop.w	{r0, r1, r2, r3, r4, r5, r6, r7, r8, pc}
.LBB0_2:
.Ltmp5:
	@DEBUG_VALUE: COMMAND_Upload:readoutstatus <- $r0
	.loc	3 83 3                  @ ../Driver/command.c:83:3
	ldr	r4, __arm_cp.0_1
	mov	r0, r4
.Ltmp6:
	bl	f_unlink
.Ltmp7:
	@DEBUG_VALUE: COMMAND_Upload:indexoffset <- 32768
	.loc	3 89 7                  @ ../Driver/command.c:89:7
	ldr	r0, __arm_cp.0_2
	mov	r1, r4
	movs	r2, #10
	bl	f_open
.Ltmp8:
	.loc	3 89 7 is_stmt 0        @ ../Driver/command.c:89:7
	cmp	r0, #0
.Ltmp9:
	.loc	3 124 1 is_stmt 1       @ ../Driver/command.c:124:1
	it	ne
	popne.w	{r0, r1, r2, r3, r4, r5, r6, r7, r8, pc}
	ldr	r4, __arm_cp.0_3
	ldr.w	r8, __arm_cp.0_2
	mov.w	r7, #32768
	movs	r5, #0
	add.w	r6, sp, #6
	b	.LBB0_8
.LBB0_3:                                @   in Loop: Header=BB0_8 Depth=1
.Ltmp10:
	@DEBUG_VALUE: COMMAND_Upload:indexoffset <- $r7
	.loc	3 94 22                 @ ../Driver/command.c:94:22
	str	r5, [sp, #8]
	b	.LBB0_5
.Ltmp11:
.LBB0_4:                                @   in Loop: Header=BB0_5 Depth=2
	@DEBUG_VALUE: COMMAND_Upload:indexoffset <- $r7
	.loc	3 99 20                 @ ../Driver/command.c:99:20
	ldr	r0, [sp, #8]
.Ltmp12:
	@DEBUG_VALUE: COMMAND_Upload:tmpcounter <- $r0
	.loc	3 100 49                @ ../Driver/command.c:100:49
	ldr	r1, [sp, #12]
	adds	r2, r1, #1
	str	r2, [sp, #12]
	.loc	3 100 30 is_stmt 0      @ ../Driver/command.c:100:30
	ldrb	r1, [r1]
	.loc	3 100 27                @ ../Driver/command.c:100:27
	strb	r1, [r4, r0]
.Ltmp13:
	.loc	3 94 65 is_stmt 1       @ ../Driver/command.c:94:65
	ldr	r0, [sp, #8]
.Ltmp14:
	adds	r0, #1
	str	r0, [sp, #8]
.Ltmp15:
.LBB0_5:                                @   Parent Loop BB0_8 Depth=1
                                        @ =>  This Inner Loop Header: Depth=2
	@DEBUG_VALUE: COMMAND_Upload:indexoffset <- $r7
	.loc	3 94 27 is_stmt 0       @ ../Driver/command.c:94:27
	ldr	r0, [sp, #8]
.Ltmp16:
	.loc	3 94 5                  @ ../Driver/command.c:94:5
	cmp.w	r5, r0, lsr #9
	bne	.LBB0_7
.Ltmp17:
@ %bb.6:                                @   in Loop: Header=BB0_5 Depth=2
	@DEBUG_VALUE: COMMAND_Upload:indexoffset <- $r7
	.loc	3 97 24 is_stmt 1       @ ../Driver/command.c:97:24
	ldr	r0, [sp, #8]
	.loc	3 97 22 is_stmt 0       @ ../Driver/command.c:97:22
	add	r0, r7
.Ltmp18:
	.loc	3 97 10                 @ ../Driver/command.c:97:10
	cmp.w	r0, #1048576
	bne	.LBB0_4
.Ltmp19:
.LBB0_7:                                @   in Loop: Header=BB0_8 Depth=1
	@DEBUG_VALUE: COMMAND_Upload:indexoffset <- $r7
	.loc	3 109 5 is_stmt 1       @ ../Driver/command.c:109:5
	mov	r0, r8
	mov	r1, r4
	mov.w	r2, #512
	mov	r3, r6
	bl	f_write
	.loc	3 112 33                @ ../Driver/command.c:112:33
	ldr	r0, [sp, #8]
	.loc	3 112 31 is_stmt 0      @ ../Driver/command.c:112:31
	add	r7, r0
.Ltmp20:
	@DEBUG_VALUE: COMMAND_Upload:indexoffset <- $r7
.LBB0_8:                                @ =>This Loop Header: Depth=1
                                        @     Child Loop BB0_5 Depth 2
	@DEBUG_VALUE: COMMAND_Upload:indexoffset <- $r7
	.loc	3 92 4 is_stmt 1        @ ../Driver/command.c:92:4
	cmp.w	r7, #1048576
	bne	.LBB0_3
.Ltmp21:
@ %bb.9:
	@DEBUG_VALUE: COMMAND_Upload:indexoffset <- $r7
	.loc	3 115 4                 @ ../Driver/command.c:115:4
	ldr	r0, __arm_cp.0_2
	bl	f_close
	.loc	3 116 4                 @ ../Driver/command.c:116:4
	adr	r1, .LCPI0_4
	movs	r0, #0
	movs	r2, #0
	bl	f_mount
.Ltmp22:
	.loc	3 124 1                 @ ../Driver/command.c:124:1
	pop.w	{r0, r1, r2, r3, r4, r5, r6, r7, r8, pc}
.Ltmp23:
	.p2align	2
@ %bb.10:
	.loc	3 0 1 is_stmt 0         @ ../Driver/command.c:0:1
__arm_cp.0_0:
	.long	134250496               @ 0x8008000
.Lcpi_end0:
	.size	__arm_cp.0_0, .Lcpi_end0-__arm_cp.0_0
__arm_cp.0_1:
	.long	.L.str
.Lcpi_end1:
	.size	__arm_cp.0_1, .Lcpi_end1-__arm_cp.0_1
__arm_cp.0_2:
	.long	file
.Lcpi_end2:
	.size	__arm_cp.0_2, .Lcpi_end2-__arm_cp.0_2
__arm_cp.0_3:
	.long	RAM_Buf
.Lcpi_end3:
	.size	__arm_cp.0_3, .Lcpi_end3-__arm_cp.0_3
.LCPI0_4:
.L.str.1:
	.asciz	"0:\000"
.Lfunc_end0:
	.size	COMMAND_Upload, .Lfunc_end0-COMMAND_Upload
	.cfi_endproc
	.cantunwind
	.fnend
                                        @ -- End function
	.section	.text.COMMAND_Download,"ax",%progbits
	.hidden	COMMAND_Download        @ -- Begin function COMMAND_Download
	.globl	COMMAND_Download
	.p2align	2
	.type	COMMAND_Download,%function
	.code	16                      @ @COMMAND_Download
	.thumb_func
COMMAND_Download:
.Lfunc_begin1:
	.loc	3 132 0 is_stmt 1       @ ../Driver/command.c:132:0
	.fnstart
	.cfi_startproc
@ %bb.0:
	.save	{r4, r5, r7, lr}
	push	{r4, r5, r7, lr}
	.cfi_def_cfa_offset 16
	.cfi_offset lr, -4
	.cfi_offset r7, -8
	.cfi_offset r5, -12
	.cfi_offset r4, -16
.Ltmp24:
	.loc	3 134 6 prologue_end    @ ../Driver/command.c:134:6
	ldr	r4, __arm_cp.1_0
	adr	r1, .LCPI1_1
	movs	r2, #1
	mov	r0, r4
	bl	f_open
.Ltmp25:
	.loc	3 134 6 is_stmt 0       @ ../Driver/command.c:134:6
	cbnz	r0, .LBB1_5
@ %bb.1:
.Ltmp26:
	.loc	3 136 25 is_stmt 1      @ ../Driver/command.c:136:25
	bl	LCD_GetFont
	ldrh	r0, [r0, #6]
	.loc	3 136 3 is_stmt 0       @ ../Driver/command.c:136:3
	adr	r1, .LCPI1_2
	.loc	3 136 25                @ ../Driver/command.c:136:25
	lsls	r0, r0, #2
	.loc	3 136 3                 @ ../Driver/command.c:136:3
	uxth	r0, r0
	bl	LCD_DisplayStringLine
.Ltmp27:
	.loc	3 138 17 is_stmt 1      @ ../Driver/command.c:138:17
	ldr	r0, [r4, #12]
.Ltmp28:
	.loc	3 138 7 is_stmt 0       @ ../Driver/command.c:138:7
	cmp.w	r0, #1048576
	bls	.LBB1_6
@ %bb.2:
.Ltmp29:
	.loc	3 142 4 is_stmt 1       @ ../Driver/command.c:142:4
	ldr	r0, __arm_cp.1_13
	movs	r1, #1
	ldr	r2, [r0]
	bfi	r2, r1, #4, #28
	.loc	3 143 4                 @ ../Driver/command.c:143:4
	movs	r1, #22
	.loc	3 142 4                 @ ../Driver/command.c:142:4
	str	r2, [r0]
	.loc	3 143 4                 @ ../Driver/command.c:143:4
	movs	r0, #160
	bl	I2C_EERPOM_WriteByte16
	.loc	3 144 26                @ ../Driver/command.c:144:26
	ldr	r4, __arm_cp.1_5
	blx	r4
	ldrh	r0, [r0, #6]
	.loc	3 144 4 is_stmt 0       @ ../Driver/command.c:144:4
	ldr	r1, __arm_cp.1_14
	ldr	r5, __arm_cp.1_6
	.loc	3 144 26                @ ../Driver/command.c:144:26
	add.w	r0, r0, r0, lsl #2
	.loc	3 144 4                 @ ../Driver/command.c:144:4
	uxth	r0, r0
	blx	r5
	.loc	3 145 26 is_stmt 1      @ ../Driver/command.c:145:26
	blx	r4
	ldrh	r0, [r0, #6]
	.loc	3 145 4 is_stmt 0       @ ../Driver/command.c:145:4
	ldr	r1, __arm_cp.1_15
	.loc	3 145 26                @ ../Driver/command.c:145:26
	add.w	r0, r0, r0, lsl #1
	lsls	r0, r0, #1
	.loc	3 145 4                 @ ../Driver/command.c:145:4
	uxth	r0, r0
	blx	r5
	.loc	3 146 26 is_stmt 1      @ ../Driver/command.c:146:26
	blx	r4
	ldrh	r0, [r0, #6]
	.loc	3 146 4 is_stmt 0       @ ../Driver/command.c:146:4
	ldr	r1, __arm_cp.1_16
	.loc	3 146 26                @ ../Driver/command.c:146:26
	add.w	r0, r0, r0, lsl #2
	lsls	r0, r0, #1
	.loc	3 146 4                 @ ../Driver/command.c:146:4
	uxth	r0, r0
	blx	r5
	.loc	3 147 16 is_stmt 1      @ ../Driver/command.c:147:16
	ldr	r0, __arm_cp.1_17
	mov.w	r1, #2000
	str	r1, [r0]
.LBB1_3:                                @ =>This Inner Loop Header: Depth=1
	.loc	3 148 10                @ ../Driver/command.c:148:10
	ldr	r1, [r0]
	.loc	3 148 4 is_stmt 0       @ ../Driver/command.c:148:4
	cmp	r1, #0
	bne	.LBB1_3
@ %bb.4:
	.loc	3 149 4 is_stmt 1       @ ../Driver/command.c:149:4
	bl	ApplicationExe
.Ltmp30:
.LBB1_5:
	.loc	3 0 0 is_stmt 0         @ ../Driver/command.c:0:0
	pop.w	{r4, r5, r7, lr}
	b	Fail_Handler
.LBB1_6:
.Ltmp31:
	.loc	3 154 26 is_stmt 1      @ ../Driver/command.c:154:26
	bl	LCD_GetFont
	ldrh	r0, [r0, #6]
	.loc	3 154 4 is_stmt 0       @ ../Driver/command.c:154:4
	adr	r1, .LCPI1_3
	.loc	3 154 26                @ ../Driver/command.c:154:26
	add.w	r0, r0, r0, lsl #2
	.loc	3 154 4                 @ ../Driver/command.c:154:4
	uxth	r0, r0
	bl	LCD_DisplayStringLine
	ldr	r0, __arm_cp.1_4
.Ltmp32:
	.loc	3 156 8 is_stmt 1       @ ../Driver/command.c:156:8
	bl	FLASH_If_EraseSectors
.Ltmp33:
	.loc	3 156 8 is_stmt 0       @ ../Driver/command.c:156:8
	cbz	r0, .LBB1_8
@ %bb.7:
.Ltmp34:
	.loc	3 158 27 is_stmt 1      @ ../Driver/command.c:158:27
	ldr	r5, __arm_cp.1_5
	blx	r5
	ldrh	r0, [r0, #6]
	.loc	3 158 5 is_stmt 0       @ ../Driver/command.c:158:5
	ldr	r4, __arm_cp.1_6
	adr	r1, .LCPI1_7
	.loc	3 158 27                @ ../Driver/command.c:158:27
	add.w	r0, r0, r0, lsl #1
	lsls	r0, r0, #1
	.loc	3 158 5                 @ ../Driver/command.c:158:5
	uxth	r0, r0
	blx	r4
	.loc	3 159 27 is_stmt 1      @ ../Driver/command.c:159:27
	blx	r5
	ldrh	r0, [r0, #6]
	.loc	3 159 5 is_stmt 0       @ ../Driver/command.c:159:5
	ldr	r1, __arm_cp.1_8
	.loc	3 159 27                @ ../Driver/command.c:159:27
	rsb	r0, r0, r0, lsl #3
	.loc	3 159 5                 @ ../Driver/command.c:159:5
	uxth	r0, r0
	blx	r4
	.loc	3 160 27 is_stmt 1      @ ../Driver/command.c:160:27
	blx	r5
	ldrh	r0, [r0, #6]
	.loc	3 160 5 is_stmt 0       @ ../Driver/command.c:160:5
	ldr	r1, __arm_cp.1_9
	.loc	3 160 27                @ ../Driver/command.c:160:27
	lsls	r0, r0, #3
	.loc	3 160 5                 @ ../Driver/command.c:160:5
	uxth	r0, r0
	blx	r4
	.loc	3 161 27 is_stmt 1      @ ../Driver/command.c:161:27
	blx	r5
	ldrh	r0, [r0, #6]
	.loc	3 161 5 is_stmt 0       @ ../Driver/command.c:161:5
	ldr	r1, __arm_cp.1_10
	.loc	3 161 27                @ ../Driver/command.c:161:27
	add.w	r0, r0, r0, lsl #2
	lsls	r0, r0, #1
	.loc	3 161 5                 @ ../Driver/command.c:161:5
	uxth	r0, r0
	blx	r4
	.loc	3 163 5 is_stmt 1       @ ../Driver/command.c:163:5
	bl	Fail_Handler
.Ltmp35:
.LBB1_8:
	.loc	3 166 26                @ ../Driver/command.c:166:26
	bl	LCD_GetFont
	ldrh	r0, [r0, #6]
	.loc	3 166 4 is_stmt 0       @ ../Driver/command.c:166:4
	adr	r1, .LCPI1_11
	.loc	3 166 26                @ ../Driver/command.c:166:26
	add.w	r0, r0, r0, lsl #1
	lsls	r0, r0, #1
	.loc	3 166 4                 @ ../Driver/command.c:166:4
	uxth	r0, r0
	bl	LCD_DisplayStringLine
	.loc	3 167 26 is_stmt 1      @ ../Driver/command.c:167:26
	bl	LCD_GetFont
	ldrh	r0, [r0, #6]
	.loc	3 167 4 is_stmt 0       @ ../Driver/command.c:167:4
	adr	r1, .LCPI1_12
	.loc	3 167 26                @ ../Driver/command.c:167:26
	rsb	r0, r0, r0, lsl #3
	.loc	3 167 4                 @ ../Driver/command.c:167:4
	uxth	r0, r0
	bl	LCD_DisplayStringLine
	.loc	3 169 4 is_stmt 1       @ ../Driver/command.c:169:4
	bl	COMMAND_ProgramFlashMemory
	.loc	3 171 4                 @ ../Driver/command.c:171:4
	ldr	r0, __arm_cp.1_0
	pop.w	{r4, r5, r7, lr}
	b	f_close
.Ltmp36:
	.p2align	2
@ %bb.9:
	.loc	3 0 4 is_stmt 0         @ ../Driver/command.c:0:4
__arm_cp.1_0:
	.long	fileR
.Lcpi_end4:
	.size	__arm_cp.1_0, .Lcpi_end4-__arm_cp.1_0
.LCPI1_1:
.L.str.2:
	.asciz	"0:CTRL_NEW.BIN\000"
.LCPI1_2:
.L.str.3:
	.asciz	"-file pronadjen"
.LCPI1_3:
.L.str.7:
	.asciz	"-formatiranje flash memorije\000\000\000"
__arm_cp.1_4:
	.long	134250496               @ 0x8008000
.Lcpi_end5:
	.size	__arm_cp.1_4, .Lcpi_end5-__arm_cp.1_4
__arm_cp.1_5:
	.long	LCD_GetFont
.Lcpi_end6:
	.size	__arm_cp.1_5, .Lcpi_end6-__arm_cp.1_5
__arm_cp.1_6:
	.long	LCD_DisplayStringLine
.Lcpi_end7:
	.size	__arm_cp.1_6, .Lcpi_end7-__arm_cp.1_6
.LCPI1_7:
.L.str.8:
	.asciz	"Greska formatiranja memorije\000\000\000"
__arm_cp.1_8:
	.long	.L.str.9
.Lcpi_end8:
	.size	__arm_cp.1_8, .Lcpi_end8-__arm_cp.1_8
__arm_cp.1_9:
	.long	.L.str.10
.Lcpi_end9:
	.size	__arm_cp.1_9, .Lcpi_end9-__arm_cp.1_9
__arm_cp.1_10:
	.long	.L.str.11
.Lcpi_end10:
	.size	__arm_cp.1_10, .Lcpi_end10-__arm_cp.1_10
.LCPI1_11:
.L.str.12:
	.asciz	"-memorija formatirana\000\000"
.LCPI1_12:
.L.str.13:
	.asciz	"-upis novog firmware-a\000"
__arm_cp.1_13:
	.long	system_config
.Lcpi_end11:
	.size	__arm_cp.1_13, .Lcpi_end11-__arm_cp.1_13
__arm_cp.1_14:
	.long	.L.str.4
.Lcpi_end12:
	.size	__arm_cp.1_14, .Lcpi_end12-__arm_cp.1_14
__arm_cp.1_15:
	.long	.L.str.5
.Lcpi_end13:
	.size	__arm_cp.1_15, .Lcpi_end13-__arm_cp.1_15
__arm_cp.1_16:
	.long	.L.str.6
.Lcpi_end14:
	.size	__arm_cp.1_16, .Lcpi_end14-__arm_cp.1_16
__arm_cp.1_17:
	.long	TimingDelay
.Lcpi_end15:
	.size	__arm_cp.1_17, .Lcpi_end15-__arm_cp.1_17
.Lfunc_end1:
	.size	COMMAND_Download, .Lfunc_end1-COMMAND_Download
	.cfi_endproc
	.cantunwind
	.fnend
                                        @ -- End function
	.section	.text.COMMAND_ProgramFlashMemory,"ax",%progbits
	.hidden	COMMAND_ProgramFlashMemory @ -- Begin function COMMAND_ProgramFlashMemory
	.globl	COMMAND_ProgramFlashMemory
	.p2align	2
	.type	COMMAND_ProgramFlashMemory,%function
	.code	16                      @ @COMMAND_ProgramFlashMemory
	.thumb_func
COMMAND_ProgramFlashMemory:
.Lfunc_begin2:
	.loc	3 198 0 is_stmt 1       @ ../Driver/command.c:198:0
	.fnstart
	.cfi_startproc
@ %bb.0:
	.save	{r4, r5, r6, r7, r8, r9, r10, r11, lr}
	.pad	#12
	push.w	{r1, r2, r3, r4, r5, r6, r7, r8, r9, r10, r11, lr}
	.cfi_def_cfa_offset 48
	.cfi_offset lr, -4
	.cfi_offset r11, -8
	.cfi_offset r10, -12
	.cfi_offset r9, -16
	.cfi_offset r8, -20
	.cfi_offset r7, -24
	.cfi_offset r6, -28
	.cfi_offset r5, -32
	.cfi_offset r4, -36
	movs	r0, #0
.Ltmp37:
	.loc	3 204 13 prologue_end   @ ../Driver/command.c:204:13
	ldr.w	r11, __arm_cp.2_0
	ldr	r1, __arm_cp.2_1
	ldr.w	r8, __arm_cp.2_2
	ldr	r5, __arm_cp.2_4
	ldr.w	r9, __arm_cp.2_5
	ldr.w	r10, __arm_cp.2_6
	ldr	r6, __arm_cp.2_9
	ldr	r7, __arm_cp.2_10
	movs	r4, #11
	.loc	3 199 16                @ ../Driver/command.c:199:16
	str	r0, [sp, #8]
.Ltmp38:
	@DEBUG_VALUE: COMMAND_ProgramFlashMemory:readflag <- 1
	.loc	3 0 16 is_stmt 0        @ ../Driver/command.c:0:16
	movs	r0, #1
	.loc	3 204 13 is_stmt 1      @ ../Driver/command.c:204:13
	strb.w	r0, [r11]
.LBB2_1:                                @ =>This Loop Header: Depth=1
                                        @     Child Loop BB2_5 Depth 2
.Ltmp39:
	@DEBUG_VALUE: COMMAND_ProgramFlashMemory:readflag <- $r0
	.loc	3 210 18                @ ../Driver/command.c:210:18
	uxtb	r0, r0
.Ltmp40:
	.loc	3 0 0 is_stmt 0         @ ../Driver/command.c:0:0
	str.w	r1, [r8]
	.loc	3 210 2                 @ ../Driver/command.c:210:2
	cmp	r0, #1
	.loc	3 243 1 is_stmt 1       @ ../Driver/command.c:243:1
	it	ne
	popne.w	{r1, r2, r3, r4, r5, r6, r7, r8, r9, r10, r11, pc}
.Ltmp41:
	.loc	3 213 3                 @ ../Driver/command.c:213:3
	ldr	r0, __arm_cp.2_3
	mov	r1, r5
	mov.w	r2, #512
	add.w	r3, sp, #6
	bl	f_read
.Ltmp42:
	@DEBUG_VALUE: COMMAND_ProgramFlashMemory:BytesRead <- undef
	.loc	3 216 17                @ ../Driver/command.c:216:17
	ldrh.w	r0, [sp, #6]
	.loc	3 216 15 is_stmt 0      @ ../Driver/command.c:216:15
	str.w	r0, [r11, #4]
	str	r0, [sp]                @ 4-byte Spill
	b	.LBB2_5
.LBB2_2:                                @   in Loop: Header=BB2_5 Depth=2
.Ltmp43:
	.loc	3 230 66 is_stmt 1      @ ../Driver/command.c:230:66
	ldr.w	r0, [r11, #4]
.Ltmp44:
	.loc	3 227 24                @ ../Driver/command.c:227:24
	ldr	r2, [sp, #8]
.Ltmp45:
	.loc	3 231 37                @ ../Driver/command.c:231:37
	ldr	r1, [sp, #8]
	.loc	3 231 24 is_stmt 0      @ ../Driver/command.c:231:24
	ldrb.w	r3, [r11]
	.loc	3 231 35                @ ../Driver/command.c:231:35
	subs	r1, r0, r1
	.loc	3 231 52                @ ../Driver/command.c:231:52
	cmp	r3, #0
	it	ne
	addne	r1, r5
	.loc	3 230 30 is_stmt 1      @ ../Driver/command.c:230:30
	ldr.w	r3, [r8]
	.loc	3 231 5                 @ ../Driver/command.c:231:5
	ldr	r1, [r1]
	.loc	3 230 44                @ ../Driver/command.c:230:44
	subs	r2, r3, r2
	.loc	3 230 64 is_stmt 0      @ ../Driver/command.c:230:64
	add	r0, r2
	.loc	3 230 8                 @ ../Driver/command.c:230:8
	bl	FLASH_If_ProgramWord
.Ltmp46:
	.loc	3 230 8                 @ ../Driver/command.c:230:8
	cmp	r0, #9
	beq	.LBB2_4
@ %bb.3:                                @   in Loop: Header=BB2_5 Depth=2
.Ltmp47:
	.loc	3 233 27 is_stmt 1      @ ../Driver/command.c:233:27
	blx	r9
	ldrh	r0, [r0, #6]
	.loc	3 233 5 is_stmt 0       @ ../Driver/command.c:233:5
	adr	r1, .LCPI2_7
	.loc	3 233 27                @ ../Driver/command.c:233:27
	lsls	r0, r0, #3
	.loc	3 233 5                 @ ../Driver/command.c:233:5
	uxth	r0, r0
	blx	r10
	.loc	3 234 27 is_stmt 1      @ ../Driver/command.c:234:27
	blx	r9
	ldrh	r0, [r0, #6]
	.loc	3 234 5 is_stmt 0       @ ../Driver/command.c:234:5
	ldr	r1, __arm_cp.2_8
	.loc	3 234 27                @ ../Driver/command.c:234:27
	add.w	r0, r0, r0, lsl #3
	.loc	3 234 5                 @ ../Driver/command.c:234:5
	uxth	r0, r0
	blx	r10
	.loc	3 235 27 is_stmt 1      @ ../Driver/command.c:235:27
	blx	r9
	ldrh	r0, [r0, #6]
	.loc	3 235 5 is_stmt 0       @ ../Driver/command.c:235:5
	mov	r1, r6
	.loc	3 235 27                @ ../Driver/command.c:235:27
	add.w	r0, r0, r0, lsl #2
	lsls	r0, r0, #1
	.loc	3 235 5                 @ ../Driver/command.c:235:5
	uxth	r0, r0
	blx	r10
	.loc	3 236 27 is_stmt 1      @ ../Driver/command.c:236:27
	blx	r9
	ldrh	r0, [r0, #6]
	.loc	3 236 5 is_stmt 0       @ ../Driver/command.c:236:5
	mov	r1, r7
	.loc	3 236 27                @ ../Driver/command.c:236:27
	muls	r0, r4, r0
	.loc	3 236 5                 @ ../Driver/command.c:236:5
	uxth	r0, r0
	blx	r10
	.loc	3 237 5 is_stmt 1       @ ../Driver/command.c:237:5
	bl	Fail_Handler
.Ltmp48:
.LBB2_4:                                @   in Loop: Header=BB2_5 Depth=2
	.loc	3 225 74                @ ../Driver/command.c:225:74
	ldr	r0, [sp, #8]
	subs	r0, #4
.Ltmp49:
.LBB2_5:                                @   Parent Loop BB2_1 Depth=1
                                        @ =>  This Inner Loop Header: Depth=2
	.loc	3 0 0 is_stmt 0         @ ../Driver/command.c:0:0
	str	r0, [sp, #8]
.Ltmp50:
	.loc	3 225 38                @ ../Driver/command.c:225:38
	ldr	r0, [sp, #8]
.Ltmp51:
	.loc	3 225 3                 @ ../Driver/command.c:225:3
	cmp	r0, #0
	bne	.LBB2_2
.Ltmp52:
@ %bb.6:                                @   in Loop: Header=BB2_1 Depth=1
	.loc	3 0 3                   @ ../Driver/command.c:0:3
	ldr	r2, [sp]                @ 4-byte Reload
.Ltmp53:
	.loc	3 219 19 is_stmt 1      @ ../Driver/command.c:219:19
	movs	r1, #0
	lsrs	r0, r2, #9
	cmp.w	r1, r2, lsr #9
	it	ne
	movne	r0, #1
.Ltmp54:
	@DEBUG_VALUE: COMMAND_ProgramFlashMemory:readflag <- undef
	.loc	3 241 19                @ ../Driver/command.c:241:19
	ldr.w	r1, [r8]
	.loc	3 241 35 is_stmt 0      @ ../Driver/command.c:241:35
	ldr.w	r2, [r11, #4]
	.loc	3 241 33                @ ../Driver/command.c:241:33
	add	r1, r2
	b	.LBB2_1
.Ltmp55:
	.p2align	2
@ %bb.7:
	.loc	3 0 33                  @ ../Driver/command.c:0:33
__arm_cp.2_0:
	.long	.L_MergedGlobals
.Lcpi_end16:
	.size	__arm_cp.2_0, .Lcpi_end16-__arm_cp.2_0
__arm_cp.2_1:
	.long	134250496               @ 0x8008000
.Lcpi_end17:
	.size	__arm_cp.2_1, .Lcpi_end17-__arm_cp.2_1
__arm_cp.2_2:
	.long	LastPGAddress
.Lcpi_end18:
	.size	__arm_cp.2_2, .Lcpi_end18-__arm_cp.2_2
__arm_cp.2_3:
	.long	fileR
.Lcpi_end19:
	.size	__arm_cp.2_3, .Lcpi_end19-__arm_cp.2_3
__arm_cp.2_4:
	.long	RAM_Buf
.Lcpi_end20:
	.size	__arm_cp.2_4, .Lcpi_end20-__arm_cp.2_4
__arm_cp.2_5:
	.long	LCD_GetFont
.Lcpi_end21:
	.size	__arm_cp.2_5, .Lcpi_end21-__arm_cp.2_5
__arm_cp.2_6:
	.long	LCD_DisplayStringLine
.Lcpi_end22:
	.size	__arm_cp.2_6, .Lcpi_end22-__arm_cp.2_6
.LCPI2_7:
.L.str.14:
	.asciz	"Greska upisa              \000"
__arm_cp.2_8:
	.long	.L.str.9
.Lcpi_end23:
	.size	__arm_cp.2_8, .Lcpi_end23-__arm_cp.2_8
__arm_cp.2_9:
	.long	.L.str.10
.Lcpi_end24:
	.size	__arm_cp.2_9, .Lcpi_end24-__arm_cp.2_9
__arm_cp.2_10:
	.long	.L.str.11
.Lcpi_end25:
	.size	__arm_cp.2_10, .Lcpi_end25-__arm_cp.2_10
.Lfunc_end2:
	.size	COMMAND_ProgramFlashMemory, .Lfunc_end2-COMMAND_ProgramFlashMemory
	.cfi_endproc
	.cantunwind
	.fnend
                                        @ -- End function
	.section	.text.COMMAND_Jump,"ax",%progbits
	.hidden	COMMAND_Jump            @ -- Begin function COMMAND_Jump
	.globl	COMMAND_Jump
	.p2align	1
	.type	COMMAND_Jump,%function
	.code	16                      @ @COMMAND_Jump
	.thumb_func
COMMAND_Jump:
.Lfunc_begin3:
	.loc	3 187 0 is_stmt 1       @ ../Driver/command.c:187:0
	.fnstart
	.cfi_startproc
@ %bb.0:
	.loc	3 189 3 prologue_end    @ ../Driver/command.c:189:3
	bl	NVIC_SystemReset
.Ltmp56:
.Lfunc_end3:
	.size	COMMAND_Jump, .Lfunc_end3-COMMAND_Jump
	.cfi_endproc
	.cantunwind
	.fnend
                                        @ -- End function
	.section	.text.NVIC_SystemReset,"ax",%progbits
	.p2align	2               @ -- Begin function NVIC_SystemReset
	.type	NVIC_SystemReset,%function
	.code	16                      @ @NVIC_SystemReset
	.thumb_func
NVIC_SystemReset:
.Lfunc_begin4:
	.loc	8 1624 0                @ C:/Keil\ARM\CMSIS\Include\core_cm4.h:1624:0
	.fnstart
	.cfi_startproc
@ %bb.0:
	ldr	r0, __arm_cp.4_0
.Ltmp57:
	.file	9 "C:/Keil\\ARM\\CMSIS\\Include" "core_cmInstr.h"
	.loc	9 346 3 prologue_end    @ C:/Keil\ARM\CMSIS\Include\core_cmInstr.h:346:3
	@APP
	dsb	sy
	@NO_APP
	ldr	r2, __arm_cp.4_1
.Ltmp58:
	.loc	8 1628 24               @ C:/Keil\ARM\CMSIS\Include\core_cm4.h:1628:24
	ldr	r1, [r0]
	.loc	8 1628 30 is_stmt 0     @ C:/Keil\ARM\CMSIS\Include\core_cm4.h:1628:30
	and	r1, r1, #1792
	.loc	8 1628 56               @ C:/Keil\ARM\CMSIS\Include\core_cm4.h:1628:56
	orrs	r1, r2
	.loc	8 1627 15 is_stmt 1     @ C:/Keil\ARM\CMSIS\Include\core_cm4.h:1627:15
	str	r1, [r0]
.Ltmp59:
	.loc	9 346 3                 @ C:/Keil\ARM\CMSIS\Include\core_cmInstr.h:346:3
	@APP
	dsb	sy
	@NO_APP
.Ltmp60:
.LBB4_1:                                @ =>This Inner Loop Header: Depth=1
	.loc	8 1631 3                @ C:/Keil\ARM\CMSIS\Include\core_cm4.h:1631:3
	b	.LBB4_1
.Ltmp61:
	.p2align	2
@ %bb.2:
	.loc	8 0 3 is_stmt 0         @ C:/Keil\ARM\CMSIS\Include\core_cm4.h:0:3
__arm_cp.4_0:
	.long	3758157068              @ 0xe000ed0c
.Lcpi_end26:
	.size	__arm_cp.4_0, .Lcpi_end26-__arm_cp.4_0
__arm_cp.4_1:
	.long	100270084               @ 0x5fa0004
.Lcpi_end27:
	.size	__arm_cp.4_1, .Lcpi_end27-__arm_cp.4_1
.Lfunc_end4:
	.size	NVIC_SystemReset, .Lfunc_end4-NVIC_SystemReset
	.cfi_endproc
	.cantunwind
	.fnend
                                        @ -- End function
	.type	.L.str,%object          @ @.str
	.section	.rodata.str1.1,"aMS",%progbits,1
.L.str:
	.asciz	"0:UPLOAD.BIN"
	.size	.L.str, 13

	.hidden	file                    @ @file
	.type	file,%object
	.section	.bss.file,"aw",%nobits
	.globl	file
	.p2align	2
file:
	.zero	552
	.size	file, 552

	.type	RAM_Buf,%object         @ @RAM_Buf
	.section	.bss.RAM_Buf,"aw",%nobits
RAM_Buf:
	.zero	512
	.size	RAM_Buf, 512

	.hidden	fileR                   @ @fileR
	.type	fileR,%object
	.section	.bss.fileR,"aw",%nobits
	.globl	fileR
	.p2align	2
fileR:
	.zero	552
	.size	fileR, 552

	.type	.L.str.4,%object        @ @.str.4
	.section	.rodata.str1.1,"aMS",%progbits,1
.L.str.4:
	.asciz	"Greska velicine fajla"
	.size	.L.str.4, 22

	.type	.L.str.5,%object        @ @.str.5
.L.str.5:
	.asciz	"-fajl je prevelik"
	.size	.L.str.5, 18

	.type	.L.str.6,%object        @ @.str.6
.L.str.6:
	.asciz	"Restart aplikacije za 2 sekunde"
	.size	.L.str.6, 32

	.type	.L.str.9,%object        @ @.str.9
.L.str.9:
	.asciz	"1. smetnja napajanja"
	.size	.L.str.9, 21

	.type	.L.str.10,%object       @ @.str.10
.L.str.10:
	.asciz	"2. neispravan flash uControlera"
	.size	.L.str.10, 32

	.type	.L.str.11,%object       @ @.str.11
.L.str.11:
	.asciz	"Pokusajte restart"
	.size	.L.str.11, 18

	.type	LastPGAddress,%object   @ @LastPGAddress
	.section	.data.LastPGAddress,"aw",%progbits
	.p2align	2
LastPGAddress:
	.long	134250496               @ 0x8008000
	.size	LastPGAddress, 4

	.hidden	fatfs                   @ @fatfs
	.type	fatfs,%object
	.section	.bss.fatfs,"aw",%nobits
	.globl	fatfs
	.p2align	2
fatfs:
	.zero	560
	.size	fatfs, 560

	.hidden	dir                     @ @dir
	.type	dir,%object
	.section	.bss.dir,"aw",%nobits
	.globl	dir
	.p2align	2
dir:
	.zero	44
	.size	dir, 44

	.hidden	fno                     @ @fno
	.type	fno,%object
	.section	.bss.fno,"aw",%nobits
	.globl	fno
	.p2align	2
fno:
	.zero	24
	.size	fno, 24

	.type	.L_MergedGlobals,%object @ @_MergedGlobals
	.section	.bss..L_MergedGlobals,"aw",%nobits
	.p2align	2
.L_MergedGlobals:
	.zero	8
	.size	.L_MergedGlobals, 8

	.section	".note.GNU-stack","",%progbits
	.eabi_attribute	30, 4	@ Tag_ABI_optimization_goals
	.ARM_attribute	16, 1	@ Tag_AV_eba