	.text
	.syntax unified
	.eabi_attribute	67, "2.09"	@ Tag_conformance
	.cpu	cortex-m4
	.eabi_attribute	6, 13	@ Tag_CPU_arch
	.eabi_attribute	7, 77	@ Tag_CPU_arch_profile
	.eabi_attribute	8, 0	@ Tag_ARM_ISA_use
	.eabi_attribute	9, 2	@ Tag_THUMB_ISA_use
	.fpu	fpv4-sp-d16
	.eabi_attribute	27, 1	@ Tag_ABI_HardFP_use
	.eabi_attribute	36, 1	@ Tag_FP_HP_extension
	.eabi_attribute	34, 1	@ Tag_CPU_unaligned_access
	.eabi_attribute	17, 1	@ Tag_ABI_PCS_GOT_use
	.eabi_attribute	20, 2	@ Tag_ABI_FP_denormal
	.eabi_attribute	21, 0	@ Tag_ABI_FP_exceptions
	.eabi_attribute	23, 1	@ Tag_ABI_FP_number_model
	.eabi_attribute	24, 1	@ Tag_ABI_align_needed
	.eabi_attribute	25, 1	@ Tag_ABI_align_preserved
	.eabi_attribute	28, 1	@ Tag_ABI_VFP_args
	.eabi_attribute	38, 1	@ Tag_ABI_FP_16bit_format
	.eabi_attribute	18, 2	@ Tag_ABI_PCS_wchar_t
	.eabi_attribute	26, 1	@ Tag_ABI_enum_size
	.eabi_attribute	14, 0	@ Tag_ABI_PCS_R9_use
	.file	"fatfs_drv.c"
	.file	1 "F:\\SkyDrive\\OtvoreniProjekti\\HotelSaplast\\fw\\KontrolerHotela\\HCBL020318\\Project" "../Libraries/CMSIS/Device/ST/STM32F4xx/Include\\stm32f4xx.h"
	.file	2 "F:\\SkyDrive\\OtvoreniProjekti\\HotelSaplast\\fw\\KontrolerHotela\\HCBL020318\\Project" "../Driver\\sdio_sd.h"
	.file	3 "F:\\SkyDrive\\OtvoreniProjekti\\HotelSaplast\\fw\\KontrolerHotela\\HCBL020318\\Project" "../User/FATFS\\diskio.h"
	.file	4 "C:\\Keil\\ARM\\ARMCLANG\\Bin\\..\\include" "stdint.h"
	.file	5 "F:\\SkyDrive\\OtvoreniProjekti\\HotelSaplast\\fw\\KontrolerHotela\\HCBL020318\\Project" "../User/FATFS/integer.h"
	.section	.text.disk_initialize,"ax",%progbits
	.hidden	disk_initialize         @ -- Begin function disk_initialize
	.globl	disk_initialize
	.p2align	2
	.type	disk_initialize,%function
	.code	16                      @ @disk_initialize
	.thumb_func
disk_initialize:
.Lfunc_begin0:
	.file	6 "F:\\SkyDrive\\OtvoreniProjekti\\HotelSaplast\\fw\\KontrolerHotela\\HCBL020318\\Project" "../User/TFTP_Server/fatfs_drv.c"
	.loc	6 30 0                  @ ../User/TFTP_Server/fatfs_drv.c:30:0
	.fnstart
	.cfi_sections .debug_frame
	.cfi_startproc
@ %bb.0:
	.save	{r7, lr}
	.pad	#8
	push	{r5, r6, r7, lr}
	.cfi_def_cfa_offset 16
	.cfi_offset lr, -4
	.cfi_offset r7, -8
	@DEBUG_VALUE: disk_initialize:pdrv <- $r0
.Ltmp0:
	@DEBUG_VALUE: disk_initialize:res <- 0
	.loc	6 35 3 prologue_end     @ ../User/TFTP_Server/fatfs_drv.c:35:3
	mov.w	r0, #1536
.Ltmp1:
	bl	NVIC_PriorityGroupConfig
	ldr	r0, __arm_cp.0_0
	.loc	6 37 38                 @ ../User/TFTP_Server/fatfs_drv.c:37:38
	str	r0, [sp, #4]
.Ltmp2:
	@DEBUG_VALUE: disk_initialize:NVIC_InitStructure <- [DW_OP_plus_uconst 4, DW_OP_deref] $sp
	.loc	6 0 38 is_stmt 0        @ ../User/TFTP_Server/fatfs_drv.c:0:38
	add	r0, sp, #4
	.loc	6 41 3 is_stmt 1        @ ../User/TFTP_Server/fatfs_drv.c:41:3
	bl	NVIC_Init
	.loc	6 43 10                 @ ../User/TFTP_Server/fatfs_drv.c:43:10
	bl	SD_Init
.Ltmp3:
	@DEBUG_VALUE: disk_initialize:res <- undef
	.loc	6 49 3                  @ ../User/TFTP_Server/fatfs_drv.c:49:3
	add	sp, #8
.Ltmp4:
	pop	{r7, pc}
.Ltmp5:
	.p2align	2
@ %bb.1:
	.loc	6 0 3 is_stmt 0         @ ../User/TFTP_Server/fatfs_drv.c:0:3
__arm_cp.0_0:
	.long	16777265                @ 0x1000031
.Lcpi_end0:
	.size	__arm_cp.0_0, .Lcpi_end0-__arm_cp.0_0
.Lfunc_end0:
	.size	disk_initialize, .Lfunc_end0-disk_initialize
	.cfi_endproc
	.cantunwind
	.fnend
                                        @ -- End function
	.section	.text.disk_status,"ax",%progbits
	.hidden	disk_status             @ -- Begin function disk_status
	.globl	disk_status
	.p2align	1
	.type	disk_status,%function
	.code	16                      @ @disk_status
	.thumb_func
disk_status:
.Lfunc_begin1:
	.loc	6 61 0 is_stmt 1        @ ../User/TFTP_Server/fatfs_drv.c:61:0
	.fnstart
	.cfi_startproc
@ %bb.0:
	@DEBUG_VALUE: disk_status:pdrv <- $r0
	@DEBUG_VALUE: disk_status:pdrv <- $r0
	.loc	6 62 7 prologue_end     @ ../User/TFTP_Server/fatfs_drv.c:62:7
	cmp	r0, #0
	it	ne
	movne	r0, #1
.Ltmp6:
	.loc	6 65 1                  @ ../User/TFTP_Server/fatfs_drv.c:65:1
	bx	lr
.Ltmp7:
.Lfunc_end1:
	.size	disk_status, .Lfunc_end1-disk_status
	.cfi_endproc
	.cantunwind
	.fnend
                                        @ -- End function
	.section	.text.disk_read,"ax",%progbits
	.hidden	disk_read               @ -- Begin function disk_read
	.globl	disk_read
	.p2align	1
	.type	disk_read,%function
	.code	16                      @ @disk_read
	.thumb_func
disk_read:
.Lfunc_begin2:
	.loc	6 79 0                  @ ../User/TFTP_Server/fatfs_drv.c:79:0
	.fnstart
	.cfi_startproc
@ %bb.0:
	.save	{r4, lr}
	.pad	#8
	push	{r2, r3, r4, lr}
	.cfi_def_cfa_offset 16
	.cfi_offset lr, -4
	.cfi_offset r4, -8
	@DEBUG_VALUE: disk_read:pdrv <- $r0
	@DEBUG_VALUE: disk_read:buff <- $r1
	@DEBUG_VALUE: disk_read:sector <- $r2
	@DEBUG_VALUE: disk_read:count <- $r3
	mov	r0, r1
.Ltmp8:
	@DEBUG_VALUE: disk_read:status <- 0
	@DEBUG_VALUE: disk_read:sector <- $r2
	@DEBUG_VALUE: disk_read:buff <- $r0
	movs	r1, #1
	mov.w	r3, #512
.Ltmp9:
	.loc	6 82 35 prologue_end    @ ../User/TFTP_Server/fatfs_drv.c:82:35
	lsls	r2, r2, #9
.Ltmp10:
	@DEBUG_VALUE: disk_read:buff <- $r0
	.loc	6 82 3 is_stmt 0        @ ../User/TFTP_Server/fatfs_drv.c:82:3
	strd	r3, r1, [sp]
	movs	r3, #0
	bl	SD_ReadMultiBlocks
.Ltmp11:
	.loc	6 85 13 is_stmt 1       @ ../User/TFTP_Server/fatfs_drv.c:85:13
	bl	SD_WaitReadOperation
	mov	r4, r0
.Ltmp12:
	@DEBUG_VALUE: disk_read:status <- undef
.LBB2_1:                                @ =>This Inner Loop Header: Depth=1
	.loc	6 86 10                 @ ../User/TFTP_Server/fatfs_drv.c:86:10
	bl	SD_GetStatus
	.loc	6 86 3 is_stmt 0        @ ../User/TFTP_Server/fatfs_drv.c:86:3
	cmp	r0, #0
	bne	.LBB2_1
@ %bb.2:
.Ltmp13:
	.loc	6 88 14 is_stmt 1       @ ../User/TFTP_Server/fatfs_drv.c:88:14
	cmp	r4, #0
	it	ne
	movne	r4, #1
.Ltmp14:
	.loc	6 93 1                  @ ../User/TFTP_Server/fatfs_drv.c:93:1
	mov	r0, r4
	add	sp, #8
	pop	{r4, pc}
.Ltmp15:
.Lfunc_end2:
	.size	disk_read, .Lfunc_end2-disk_read
	.cfi_endproc
	.cantunwind
	.fnend
                                        @ -- End function
	.section	.text.disk_write,"ax",%progbits
	.hidden	disk_write              @ -- Begin function disk_write
	.globl	disk_write
	.p2align	1
	.type	disk_write,%function
	.code	16                      @ @disk_write
	.thumb_func
disk_write:
.Lfunc_begin3:
	.loc	6 108 0                 @ ../User/TFTP_Server/fatfs_drv.c:108:0
	.fnstart
	.cfi_startproc
@ %bb.0:
	.save	{r4, lr}
	.pad	#8
	push	{r2, r3, r4, lr}
	.cfi_def_cfa_offset 16
	.cfi_offset lr, -4
	.cfi_offset r4, -8
	@DEBUG_VALUE: disk_write:pdrv <- $r0
	@DEBUG_VALUE: disk_write:buff <- $r1
	@DEBUG_VALUE: disk_write:sector <- $r2
	@DEBUG_VALUE: disk_write:count <- $r3
	mov	r0, r1
.Ltmp16:
	@DEBUG_VALUE: disk_write:status <- 0
	@DEBUG_VALUE: disk_write:sector <- $r2
	@DEBUG_VALUE: disk_write:buff <- $r0
	movs	r1, #1
	mov.w	r3, #512
.Ltmp17:
	.loc	6 111 44 prologue_end   @ ../User/TFTP_Server/fatfs_drv.c:111:44
	lsls	r2, r2, #9
.Ltmp18:
	@DEBUG_VALUE: disk_write:buff <- $r0
	.loc	6 111 3 is_stmt 0       @ ../User/TFTP_Server/fatfs_drv.c:111:3
	strd	r3, r1, [sp]
	movs	r3, #0
	bl	SD_WriteMultiBlocks
.Ltmp19:
	.loc	6 114 12 is_stmt 1      @ ../User/TFTP_Server/fatfs_drv.c:114:12
	bl	SD_WaitWriteOperation
	mov	r4, r0
.Ltmp20:
	@DEBUG_VALUE: disk_write:status <- undef
.LBB3_1:                                @ =>This Inner Loop Header: Depth=1
	.loc	6 115 9                 @ ../User/TFTP_Server/fatfs_drv.c:115:9
	bl	SD_GetStatus
	.loc	6 115 3 is_stmt 0       @ ../User/TFTP_Server/fatfs_drv.c:115:3
	cmp	r0, #0
	bne	.LBB3_1
@ %bb.2:
.Ltmp21:
	.loc	6 116 14 is_stmt 1      @ ../User/TFTP_Server/fatfs_drv.c:116:14
	cmp	r4, #0
	it	ne
	movne	r4, #1
.Ltmp22:
	.loc	6 121 1                 @ ../User/TFTP_Server/fatfs_drv.c:121:1
	mov	r0, r4
	add	sp, #8
	pop	{r4, pc}
.Ltmp23:
.Lfunc_end3:
	.size	disk_write, .Lfunc_end3-disk_write
	.cfi_endproc
	.cantunwind
	.fnend
                                        @ -- End function
	.section	.text.disk_ioctl,"ax",%progbits
	.hidden	disk_ioctl              @ -- Begin function disk_ioctl
	.globl	disk_ioctl
	.p2align	1
	.type	disk_ioctl,%function
	.code	16                      @ @disk_ioctl
	.thumb_func
disk_ioctl:
.Lfunc_begin4:
	.loc	6 135 0                 @ ../User/TFTP_Server/fatfs_drv.c:135:0
	.fnstart
	.cfi_startproc
@ %bb.0:
	.save	{r4, r5, r7, lr}
	push	{r4, r5, r7, lr}
	.cfi_def_cfa_offset 16
	.cfi_offset lr, -4
	.cfi_offset r7, -8
	.cfi_offset r5, -12
	.cfi_offset r4, -16
	.pad	#88
	sub	sp, #88
	.cfi_def_cfa_offset 104
	@DEBUG_VALUE: disk_ioctl:pdrv <- $r0
	@DEBUG_VALUE: disk_ioctl:cmd <- $r1
	@DEBUG_VALUE: disk_ioctl:buff <- $r2
	mov	r0, sp
.Ltmp24:
	mov	r4, r2
	mov	r5, r1
.Ltmp25:
	@DEBUG_VALUE: disk_ioctl:sdinfo <- [DW_OP_deref] $sp
	@DEBUG_VALUE: disk_ioctl:res <- 0
	@DEBUG_VALUE: disk_ioctl:buff <- $r4
	@DEBUG_VALUE: disk_ioctl:cmd <- $r5
	.loc	6 139 7 prologue_end    @ ../User/TFTP_Server/fatfs_drv.c:139:7
	bl	SD_GetCardInfo
.Ltmp26:
	.loc	6 139 7 is_stmt 0       @ ../User/TFTP_Server/fatfs_drv.c:139:7
	cbz	r0, .LBB4_2
.Ltmp27:
@ %bb.1:
	@DEBUG_VALUE: disk_ioctl:cmd <- $r5
	@DEBUG_VALUE: disk_ioctl:buff <- $r4
	@DEBUG_VALUE: disk_ioctl:sdinfo <- [DW_OP_deref] $sp
	.loc	6 0 7                   @ ../User/TFTP_Server/fatfs_drv.c:0:7
	movs	r0, #1
	b	.LBB4_10
.Ltmp28:
.LBB4_2:
	@DEBUG_VALUE: disk_ioctl:cmd <- $r5
	@DEBUG_VALUE: disk_ioctl:buff <- $r4
	@DEBUG_VALUE: disk_ioctl:sdinfo <- [DW_OP_deref] $sp
	.loc	6 141 3 is_stmt 1       @ ../User/TFTP_Server/fatfs_drv.c:141:3
	cmp	r5, #3
	beq	.LBB4_6
.Ltmp29:
@ %bb.3:
	@DEBUG_VALUE: disk_ioctl:cmd <- $r5
	@DEBUG_VALUE: disk_ioctl:buff <- $r4
	@DEBUG_VALUE: disk_ioctl:sdinfo <- [DW_OP_deref] $sp
	cmp	r5, #2
	beq	.LBB4_8
.Ltmp30:
@ %bb.4:
	@DEBUG_VALUE: disk_ioctl:cmd <- $r5
	@DEBUG_VALUE: disk_ioctl:buff <- $r4
	@DEBUG_VALUE: disk_ioctl:sdinfo <- [DW_OP_deref] $sp
	cmp	r5, #1
	bne	.LBB4_9
.Ltmp31:
@ %bb.5:
	@DEBUG_VALUE: disk_ioctl:cmd <- $r5
	@DEBUG_VALUE: disk_ioctl:buff <- $r4
	@DEBUG_VALUE: disk_ioctl:sdinfo <- [DW_OP_deref] $sp
	.loc	6 145 30                @ ../User/TFTP_Server/fatfs_drv.c:145:30
	ldrd	r0, r1, [sp, #72]
	.loc	6 145 43 is_stmt 0      @ ../User/TFTP_Server/fatfs_drv.c:145:43
	lsrs	r0, r0, #9
	orr.w	r0, r0, r1, lsl #23
	b	.LBB4_7
.Ltmp32:
.LBB4_6:
	@DEBUG_VALUE: disk_ioctl:cmd <- $r5
	@DEBUG_VALUE: disk_ioctl:buff <- $r4
	@DEBUG_VALUE: disk_ioctl:sdinfo <- [DW_OP_deref] $sp
	.loc	6 0 43                  @ ../User/TFTP_Server/fatfs_drv.c:0:43
	movs	r0, #32
.Ltmp33:
.LBB4_7:
	@DEBUG_VALUE: disk_ioctl:cmd <- $r5
	@DEBUG_VALUE: disk_ioctl:buff <- $r4
	@DEBUG_VALUE: disk_ioctl:sdinfo <- [DW_OP_deref] $sp
	str	r0, [r4]
	b	.LBB4_9
.Ltmp34:
.LBB4_8:
	@DEBUG_VALUE: disk_ioctl:cmd <- $r5
	@DEBUG_VALUE: disk_ioctl:buff <- $r4
	@DEBUG_VALUE: disk_ioctl:sdinfo <- [DW_OP_deref] $sp
	mov.w	r0, #512
	.loc	6 150 20 is_stmt 1      @ ../User/TFTP_Server/fatfs_drv.c:150:20
	strh	r0, [r4]
.Ltmp35:
.LBB4_9:
	@DEBUG_VALUE: disk_ioctl:cmd <- $r5
	@DEBUG_VALUE: disk_ioctl:buff <- $r4
	@DEBUG_VALUE: disk_ioctl:sdinfo <- [DW_OP_deref] $sp
	.loc	6 0 20 is_stmt 0        @ ../User/TFTP_Server/fatfs_drv.c:0:20
	movs	r0, #0
	@DEBUG_VALUE: disk_ioctl:res <- 0
.Ltmp36:
.LBB4_10:
	@DEBUG_VALUE: disk_ioctl:cmd <- $r5
	@DEBUG_VALUE: disk_ioctl:buff <- $r4
	@DEBUG_VALUE: disk_ioctl:sdinfo <- [DW_OP_deref] $sp
	.loc	6 160 1 is_stmt 1       @ ../User/TFTP_Server/fatfs_drv.c:160:1
	add	sp, #88
.Ltmp37:
	pop	{r4, r5, r7, pc}
.Ltmp38:
.Lfunc_end4:
	.size	disk_ioctl, .Lfunc_end4-disk_ioctl
	.cfi_endproc
	.cantunwind
	.fnend
                                        @ -- End function
	.section	.text.get_fattime,"ax",%progbits
	.hidden	get_fattime             @ -- Begin function get_fattime
	.globl	get_fattime
	.p2align	2
	.type	get_fattime,%function
	.code	16                      @ @get_fattime
	.thumb_func
get_fattime:
.Lfunc_begin5:
	.loc	6 168 0                 @ ../User/TFTP_Server/fatfs_drv.c:168:0
	.fnstart
	.cfi_startproc
@ %bb.0:
	ldr	r0, __arm_cp.5_0
.Ltmp39:
	.loc	6 169 2 prologue_end    @ ../User/TFTP_Server/fatfs_drv.c:169:2
	bx	lr
.Ltmp40:
	.p2align	2
@ %bb.1:
	.loc	6 0 2 is_stmt 0         @ ../User/TFTP_Server/fatfs_drv.c:0:2
__arm_cp.5_0:
	.long	1254383616              @ 0x4ac46000
.Lcpi_end1:
	.size	__arm_cp.5_0, .Lcpi_end1-__arm_cp.5_0
.Lfunc_end5:
	.size	get_fattime, .Lfunc_end5-get_fattime
	.cfi_endproc
	.cantunwind
	.fnend
                                        @ -- End function
	.section	.text.SDIO_IRQHandler,"ax",%progbits
	.hidden	SDIO_IRQHandler         @ -- Begin function SDIO_IRQHandler
	.globl	SDIO_IRQHandler
	.p2align	1
	.type	SDIO_IRQHandler,%function
	.code	16                      @ @SDIO_IRQHandler
	.thumb_func
SDIO_IRQHandler:
.Lfunc_begin6:
	.loc	6 187 0 is_stmt 1       @ ../User/TFTP_Server/fatfs_drv.c:187:0
	.fnstart
	.cfi_startproc
@ %bb.0:
	.loc	6 188 3 prologue_end    @ ../User/TFTP_Server/fatfs_drv.c:188:3
	b	SD_ProcessIRQSrc
.Ltmp41:
.Lfunc_end6:
	.size	SDIO_IRQHandler, .Lfunc_end6-SDIO_IRQHandler
	.cfi_endproc
	.cantunwind
	.fnend
                                        @ -- End function
	.section	.text.DMA2_Stream3_IRQHandler,"ax",%progbits
	.hidden	DMA2_Stream3_IRQHandler @ -- Begin function DMA2_Stream3_IRQHandler
	.globl	DMA2_Stream3_IRQHandler
	.p2align	1
	.type	DMA2_Stream3_IRQHandler,%function
	.code	16                      @ @DMA2_Stream3_IRQHandler
	.thumb_func
DMA2_Stream3_IRQHandler:
.Lfunc_begin7:
	.loc	6 200 0                 @ ../User/TFTP_Server/fatfs_drv.c:200:0
	.fnstart
	.cfi_startproc
@ %bb.0:
	.loc	6 201 3 prologue_end    @ ../User/TFTP_Server/fatfs_drv.c:201:3
	b	SD_ProcessDMAIRQ
.Ltmp42:
.Lfunc_end7:
	.size	DMA2_Stream3_IRQHandler, .Lfunc_end7-DMA2_Stream3_IRQHandler
	.cfi_endproc
	.cantunwind
	.fnend
                                        @ -- End function
	.file	7 "F:\\SkyDrive\\OtvoreniProjekti\\HotelSaplast\\fw\\KontrolerHotela\\HCBL020318\\Project" "../Libraries/STM32F4xx_StdPeriph_Driver/inc\\misc.h"
	.section	".note.GNU-stack","",%progbits
	.eabi_attribute	30, 4	@ Tag_ABI_optimization_goals
	.ARM_attribute	16, 1	@ Tag_AV_eba