	.text
	.syntax unified
	.eabi_attribute	67, "2.09"	@ Tag_conformance
	.cpu	cortex-m4
	.eabi_attribute	6, 13	@ Tag_CPU_arch
	.eabi_attribute	7, 77	@ Tag_CPU_arch_profile
	.eabi_attribute	8, 0	@ Tag_ARM_ISA_use
	.eabi_attribute	9, 2	@ Tag_THUMB_ISA_use
	.fpu	fpv4-sp-d16
	.eabi_attribute	27, 1	@ Tag_ABI_HardFP_use
	.eabi_attribute	36, 1	@ Tag_FP_HP_extension
	.eabi_attribute	34, 1	@ Tag_CPU_unaligned_access
	.eabi_attribute	17, 1	@ Tag_ABI_PCS_GOT_use
	.eabi_attribute	20, 2	@ Tag_ABI_FP_denormal
	.eabi_attribute	21, 0	@ Tag_ABI_FP_exceptions
	.eabi_attribute	23, 1	@ Tag_ABI_FP_number_model
	.eabi_attribute	24, 1	@ Tag_ABI_align_needed
	.eabi_attribute	25, 1	@ Tag_ABI_align_preserved
	.eabi_attribute	28, 1	@ Tag_ABI_VFP_args
	.eabi_attribute	38, 1	@ Tag_ABI_FP_16bit_format
	.eabi_attribute	18, 2	@ Tag_ABI_PCS_wchar_t
	.eabi_attribute	26, 1	@ Tag_ABI_enum_size
	.eabi_attribute	14, 0	@ Tag_ABI_PCS_R9_use
	.file	"ff.c"
	.file	1 "F:\\SkyDrive\\OtvoreniProjekti\\HotelSaplast\\fw\\KontrolerHotela\\HCBL020318\\Project" "../User/FATFS/integer.h"
	.file	2 "F:\\SkyDrive\\OtvoreniProjekti\\HotelSaplast\\fw\\KontrolerHotela\\HCBL020318\\Project" "../User/FATFS/ff.c"
	.file	3 "F:\\SkyDrive\\OtvoreniProjekti\\HotelSaplast\\fw\\KontrolerHotela\\HCBL020318\\Project" "../User/FATFS/ff.h"
	.file	4 "F:\\SkyDrive\\OtvoreniProjekti\\HotelSaplast\\fw\\KontrolerHotela\\HCBL020318\\Project" "../User/FATFS/diskio.h"
	.section	.text.f_mount,"ax",%progbits
	.hidden	f_mount                 @ -- Begin function f_mount
	.globl	f_mount
	.p2align	2
	.type	f_mount,%function
	.code	16                      @ @f_mount
	.thumb_func
f_mount:
.Lfunc_begin0:
	.loc	2 3254 0                @ ../User/FATFS/ff.c:3254:0
	.fnstart
	.cfi_sections .debug_frame
	.cfi_startproc
@ %bb.0:
	.save	{r4, r5, r7, lr}
	.pad	#16
	push	{r0, r1, r2, r3, r4, r5, r7, lr}
	.cfi_def_cfa_offset 32
	.cfi_offset lr, -4
	.cfi_offset r7, -8
	.cfi_offset r5, -12
	.cfi_offset r4, -16
	@DEBUG_VALUE: f_mount:fs <- $r0
	@DEBUG_VALUE: f_mount:path <- $r1
	@DEBUG_VALUE: f_mount:opt <- $r2
	str	r0, [sp, #12]
.Ltmp0:
	@DEBUG_VALUE: f_mount:rp <- [DW_OP_plus_uconst 8, DW_OP_deref] $sp
	@DEBUG_VALUE: f_mount:path <- [DW_OP_plus_uconst 8, DW_OP_deref] $sp
	@DEBUG_VALUE: f_mount:opt <- $r4
	@DEBUG_VALUE: f_mount:path <- $r1
	@DEBUG_VALUE: f_mount:fs <- $r5
	mov	r5, r0
.Ltmp1:
	add	r0, sp, #4
	mov	r4, r2
.Ltmp2:
	.loc	2 3258 15 prologue_end  @ ../User/FATFS/ff.c:3258:15
	strd	r1, r1, [sp, #4]
.Ltmp3:
	@DEBUG_VALUE: f_mount:rp <- [DW_OP_plus_uconst 4, DW_OP_deref] $sp
	.loc	2 3262 8                @ ../User/FATFS/ff.c:3262:8
	bl	get_ldnumber
.Ltmp4:
	@DEBUG_VALUE: f_mount:vol <- $r0
	.loc	2 3263 6                @ ../User/FATFS/ff.c:3263:6
	cmp	r0, #0
	blt	.LBB0_6
.Ltmp5:
@ %bb.1:
	@DEBUG_VALUE: f_mount:vol <- $r0
	@DEBUG_VALUE: f_mount:rp <- [DW_OP_plus_uconst 8, DW_OP_deref] $sp
	.loc	2 3264 8                @ ../User/FATFS/ff.c:3264:8
	ldr	r1, __arm_cp.0_0
	add.w	r1, r1, r0, lsl #2
	ldr	r0, [r1, #4]
.Ltmp6:
	@DEBUG_VALUE: f_mount:cfs <- $r0
	.loc	2 3266 6                @ ../User/FATFS/ff.c:3266:6
	cbz	r0, .LBB0_3
.Ltmp7:
@ %bb.2:
	@DEBUG_VALUE: f_mount:cfs <- $r0
	@DEBUG_VALUE: f_mount:rp <- [DW_OP_plus_uconst 8, DW_OP_deref] $sp
	.loc	2 0 6 is_stmt 0         @ ../User/FATFS/ff.c:0:6
	movs	r2, #0
.Ltmp8:
	.loc	2 3273 16 is_stmt 1     @ ../User/FATFS/ff.c:3273:16
	strb	r2, [r0]
.Ltmp9:
.LBB0_3:
	@DEBUG_VALUE: f_mount:cfs <- $r0
	@DEBUG_VALUE: f_mount:rp <- [DW_OP_plus_uconst 8, DW_OP_deref] $sp
	.loc	2 3276 6                @ ../User/FATFS/ff.c:3276:6
	cbz	r5, .LBB0_7
.Ltmp10:
@ %bb.4:
	@DEBUG_VALUE: f_mount:cfs <- $r0
	@DEBUG_VALUE: f_mount:rp <- [DW_OP_plus_uconst 8, DW_OP_deref] $sp
	.loc	2 0 6 is_stmt 0         @ ../User/FATFS/ff.c:0:6
	movs	r0, #0
.Ltmp11:
	.loc	2 3284 10 is_stmt 1     @ ../User/FATFS/ff.c:3284:10
	cmp	r4, #1
.Ltmp12:
	.loc	2 3277 15               @ ../User/FATFS/ff.c:3277:15
	strb	r0, [r5]
.Ltmp13:
	@DEBUG_VALUE: f_mount:fs <- [DW_OP_plus_uconst 12, DW_OP_deref] $sp
	.loc	2 3282 13               @ ../User/FATFS/ff.c:3282:13
	str	r5, [r1, #4]
.Ltmp14:
	.loc	2 3284 10               @ ../User/FATFS/ff.c:3284:10
	bne	.LBB0_8
.Ltmp15:
@ %bb.5:
	@DEBUG_VALUE: f_mount:fs <- [DW_OP_plus_uconst 12, DW_OP_deref] $sp
	@DEBUG_VALUE: f_mount:rp <- [DW_OP_plus_uconst 8, DW_OP_deref] $sp
	@DEBUG_VALUE: f_mount:path <- [DW_OP_plus_uconst 8, DW_OP_deref] $sp
	@DEBUG_VALUE: f_mount:fs <- [DW_OP_plus_uconst 12, DW_OP_deref] $sp
	.loc	2 0 10 is_stmt 0        @ ../User/FATFS/ff.c:0:10
	add	r0, sp, #8
	add	r1, sp, #12
	.loc	2 3286 8 is_stmt 1      @ ../User/FATFS/ff.c:3286:8
	movs	r2, #0
	bl	find_volume
.Ltmp16:
	@DEBUG_VALUE: f_mount:res <- undef
	.loc	2 0 8 is_stmt 0         @ ../User/FATFS/ff.c:0:8
	b	.LBB0_8
.Ltmp17:
.LBB0_6:
	@DEBUG_VALUE: f_mount:vol <- $r0
	@DEBUG_VALUE: f_mount:rp <- [DW_OP_plus_uconst 8, DW_OP_deref] $sp
	movs	r0, #11
.Ltmp18:
	b	.LBB0_8
.Ltmp19:
.LBB0_7:
	@DEBUG_VALUE: f_mount:cfs <- $r0
	@DEBUG_VALUE: f_mount:rp <- [DW_OP_plus_uconst 8, DW_OP_deref] $sp
	@DEBUG_VALUE: f_mount:fs <- [DW_OP_plus_uconst 12, DW_OP_deref] $sp
	.loc	2 3282 13 is_stmt 1     @ ../User/FATFS/ff.c:3282:13
	str	r5, [r1, #4]
	movs	r0, #0
.Ltmp20:
.LBB0_8:
	@DEBUG_VALUE: f_mount:rp <- [DW_OP_plus_uconst 8, DW_OP_deref] $sp
	.loc	2 3288 1                @ ../User/FATFS/ff.c:3288:1
	add	sp, #16
.Ltmp21:
	pop	{r4, r5, r7, pc}
.Ltmp22:
	.p2align	2
@ %bb.9:
	.loc	2 0 1 is_stmt 0         @ ../User/FATFS/ff.c:0:1
__arm_cp.0_0:
	.long	.L_MergedGlobals
.Lcpi_end0:
	.size	__arm_cp.0_0, .Lcpi_end0-__arm_cp.0_0
.Lfunc_end0:
	.size	f_mount, .Lfunc_end0-f_mount
	.cfi_endproc
	.cantunwind
	.fnend
                                        @ -- End function
	.section	.text.get_ldnumber,"ax",%progbits
	.p2align	1               @ -- Begin function get_ldnumber
	.type	get_ldnumber,%function
	.code	16                      @ @get_ldnumber
	.thumb_func
get_ldnumber:
.Lfunc_begin1:
	.loc	2 2907 0 is_stmt 1      @ ../User/FATFS/ff.c:2907:0
	.fnstart
	.cfi_startproc
@ %bb.0:
	@DEBUG_VALUE: get_ldnumber:path <- $r0
	@DEBUG_VALUE: get_ldnumber:path <- $r0
	@DEBUG_VALUE: get_ldnumber:vol <- -1
	.loc	2 2919 6 prologue_end   @ ../User/FATFS/ff.c:2919:6
	ldr	r2, [r0]
.Ltmp23:
	@DEBUG_VALUE: get_ldnumber:tp <- $r2
	@DEBUG_VALUE: get_ldnumber:tp <- [DW_OP_plus_uconst 1, DW_OP_stack_value] $r2
	.loc	2 2919 6 is_stmt 0      @ ../User/FATFS/ff.c:2919:6
	cbz	r2, .LBB1_9
.Ltmp24:
@ %bb.1:
	@DEBUG_VALUE: get_ldnumber:tp <- $r2
	@DEBUG_VALUE: get_ldnumber:path <- $r0
	.loc	2 0 6                   @ ../User/FATFS/ff.c:0:6
	movs	r3, #0
	b	.LBB1_4
.Ltmp25:
.LBB1_2:                                @   in Loop: Header=BB1_4 Depth=1
	@DEBUG_VALUE: get_ldnumber:tp <- $r2
	@DEBUG_VALUE: get_ldnumber:path <- $r0
	.loc	2 2920 3 is_stmt 1      @ ../User/FATFS/ff.c:2920:3
	cmp	r1, #58
	beq	.LBB1_6
.Ltmp26:
@ %bb.3:                                @   in Loop: Header=BB1_4 Depth=1
	@DEBUG_VALUE: get_ldnumber:tp <- $r2
	@DEBUG_VALUE: get_ldnumber:path <- $r0
	.loc	2 2920 73 is_stmt 0     @ ../User/FATFS/ff.c:2920:73
	adds	r3, #1
.Ltmp27:
.LBB1_4:                                @ =>This Inner Loop Header: Depth=1
	@DEBUG_VALUE: get_ldnumber:tp <- $r2
	@DEBUG_VALUE: get_ldnumber:path <- $r0
	.loc	2 2920 26               @ ../User/FATFS/ff.c:2920:26
	ldrb	r1, [r2, r3]
	.loc	2 2920 56               @ ../User/FATFS/ff.c:2920:56
	cmp	r1, #33
	bhs	.LBB1_2
.Ltmp28:
.LBB1_5:
	@DEBUG_VALUE: get_ldnumber:tp <- $r2
	@DEBUG_VALUE: get_ldnumber:path <- $r0
	.loc	2 0 56                  @ ../User/FATFS/ff.c:0:56
	movs	r1, #0
	b	.LBB1_10
.Ltmp29:
.LBB1_6:
	@DEBUG_VALUE: get_ldnumber:tp <- $r2
	@DEBUG_VALUE: get_ldnumber:path <- $r0
	.loc	2 2923 8 is_stmt 1      @ ../User/FATFS/ff.c:2923:8
	ldrb	r1, [r2]
	.loc	2 2923 14 is_stmt 0     @ ../User/FATFS/ff.c:2923:14
	sub.w	r12, r1, #48
.Ltmp30:
	@DEBUG_VALUE: get_ldnumber:i <- $r12
	@DEBUG_VALUE: get_ldnumber:vol <- $r12
	.loc	2 2924 15 is_stmt 1     @ ../User/FATFS/ff.c:2924:15
	cmp.w	r12, #9
	bhi	.LBB1_9
.Ltmp31:
@ %bb.7:
	@DEBUG_VALUE: get_ldnumber:vol <- $r12
	@DEBUG_VALUE: get_ldnumber:i <- $r12
	@DEBUG_VALUE: get_ldnumber:tp <- $r2
	@DEBUG_VALUE: get_ldnumber:path <- $r0
	.loc	2 2924 8 is_stmt 0      @ ../User/FATFS/ff.c:2924:8
	cmp	r3, #1
	mov.w	r1, #-1
	it	eq
	cmpeq.w	r12, #0
	bne	.LBB1_10
.Ltmp32:
@ %bb.8:
	@DEBUG_VALUE: get_ldnumber:vol <- $r12
	@DEBUG_VALUE: get_ldnumber:i <- $r12
	@DEBUG_VALUE: get_ldnumber:tp <- $r2
	@DEBUG_VALUE: get_ldnumber:path <- $r0
	.loc	2 2927 12 is_stmt 1     @ ../User/FATFS/ff.c:2927:12
	adds	r1, r2, r3
	adds	r1, #1
	str	r1, [r0]
	b	.LBB1_5
.Ltmp33:
.LBB1_9:
	@DEBUG_VALUE: get_ldnumber:tp <- $r2
	@DEBUG_VALUE: get_ldnumber:path <- $r0
	.loc	2 0 12 is_stmt 0        @ ../User/FATFS/ff.c:0:12
	mov.w	r1, #-1
.Ltmp34:
.LBB1_10:
	@DEBUG_VALUE: get_ldnumber:tp <- $r2
	@DEBUG_VALUE: get_ldnumber:path <- $r0
	.loc	2 2955 1 is_stmt 1      @ ../User/FATFS/ff.c:2955:1
	mov	r0, r1
	bx	lr
.Ltmp35:
.Lfunc_end1:
	.size	get_ldnumber, .Lfunc_end1-get_ldnumber
	.cfi_endproc
	.cantunwind
	.fnend
                                        @ -- End function
	.section	.text.find_volume,"ax",%progbits
	.p2align	2               @ -- Begin function find_volume
	.type	find_volume,%function
	.code	16                      @ @find_volume
	.thumb_func
find_volume:
.Lfunc_begin2:
	.loc	2 2998 0                @ ../User/FATFS/ff.c:2998:0
	.fnstart
	.cfi_startproc
@ %bb.0:
	.save	{r4, r5, r6, r7, r8, r9, r10, r11, lr}
	push.w	{r4, r5, r6, r7, r8, r9, r10, r11, lr}
	.cfi_def_cfa_offset 36
	.cfi_offset lr, -4
	.cfi_offset r11, -8
	.cfi_offset r10, -12
	.cfi_offset r9, -16
	.cfi_offset r8, -20
	.cfi_offset r7, -24
	.cfi_offset r6, -28
	.cfi_offset r5, -32
	.cfi_offset r4, -36
	.pad	#20
	sub	sp, #20
	.cfi_def_cfa_offset 56
	@DEBUG_VALUE: find_volume:path <- $r0
	@DEBUG_VALUE: find_volume:rfs <- $r1
	@DEBUG_VALUE: find_volume:mode <- $r2
	mov	r7, r1
	movs	r1, #0
.Ltmp36:
	@DEBUG_VALUE: find_volume:mode <- $r5
	@DEBUG_VALUE: find_volume:rfs <- $r7
	@DEBUG_VALUE: find_volume:path <- $r0
	mov	r5, r2
.Ltmp37:
	.loc	2 3009 7 prologue_end   @ ../User/FATFS/ff.c:3009:7
	str	r1, [r7]
	@DEBUG_VALUE: find_volume:path <- $r0
	.loc	2 3010 8                @ ../User/FATFS/ff.c:3010:8
	bl	get_ldnumber
.Ltmp38:
	.loc	2 3011 6                @ ../User/FATFS/ff.c:3011:6
	cmp	r0, #0
	blt	.LBB2_5
.Ltmp39:
@ %bb.1:
	@DEBUG_VALUE: find_volume:rfs <- $r7
	.loc	2 3014 7                @ ../User/FATFS/ff.c:3014:7
	ldr.w	r8, __arm_cp.2_0
	.loc	2 0 0 is_stmt 0         @ ../User/FATFS/ff.c:0:0
	mov	r6, r0
.Ltmp40:
	@DEBUG_VALUE: find_volume:vol <- $r6
	.loc	2 3014 7                @ ../User/FATFS/ff.c:3014:7
	add.w	r0, r8, r0, lsl #2
	ldr	r4, [r0, #4]
.Ltmp41:
	@DEBUG_VALUE: find_volume:fs <- $r4
	.loc	2 3015 6 is_stmt 1      @ ../User/FATFS/ff.c:3015:6
	cbz	r4, .LBB2_10
.Ltmp42:
@ %bb.2:
	@DEBUG_VALUE: find_volume:fs <- $r4
	@DEBUG_VALUE: find_volume:vol <- $r6
	@DEBUG_VALUE: find_volume:rfs <- $r7
	.loc	2 3018 7                @ ../User/FATFS/ff.c:3018:7
	str	r4, [r7]
	.loc	2 3020 7                @ ../User/FATFS/ff.c:3020:7
	and	r5, r5, #254
.Ltmp43:
	@DEBUG_VALUE: find_volume:mode <- $r5
	.loc	2 3021 10               @ ../User/FATFS/ff.c:3021:10
	ldrb	r0, [r4]
.Ltmp44:
	.loc	2 3021 6 is_stmt 0      @ ../User/FATFS/ff.c:3021:6
	cbz	r0, .LBB2_6
.Ltmp45:
@ %bb.3:
	@DEBUG_VALUE: find_volume:fs <- $r4
	@DEBUG_VALUE: find_volume:vol <- $r6
	@DEBUG_VALUE: find_volume:rfs <- $r7
	@DEBUG_VALUE: find_volume:mode <- $r5
	.loc	2 3022 26 is_stmt 1     @ ../User/FATFS/ff.c:3022:26
	ldrb	r0, [r4, #1]
	.loc	2 3022 10 is_stmt 0     @ ../User/FATFS/ff.c:3022:10
	bl	disk_status
	.loc	2 3023 7 is_stmt 1      @ ../User/FATFS/ff.c:3023:7
	lsls	r1, r0, #31
.Ltmp46:
	@DEBUG_VALUE: find_volume:stat <- undef
	bne	.LBB2_6
.Ltmp47:
@ %bb.4:
	@DEBUG_VALUE: find_volume:fs <- $r4
	@DEBUG_VALUE: find_volume:vol <- $r6
	@DEBUG_VALUE: find_volume:rfs <- $r7
	@DEBUG_VALUE: find_volume:mode <- $r5
	.loc	2 3024 39               @ ../User/FATFS/ff.c:3024:39
	lsls	r0, r0, #29
	movs	r1, #10
	.loc	2 3024 30 is_stmt 0     @ ../User/FATFS/ff.c:3024:30
	cmp	r5, #0
	it	ne
	andne.w	r5, r1, r0, asr #31
.Ltmp48:
	.loc	2 0 30                  @ ../User/FATFS/ff.c:0:30
	b	.LBB2_35
.Ltmp49:
.LBB2_5:
	@DEBUG_VALUE: find_volume:rfs <- $r7
	movs	r5, #11
	b	.LBB2_35
.Ltmp50:
.LBB2_6:
	@DEBUG_VALUE: find_volume:fs <- $r4
	@DEBUG_VALUE: find_volume:vol <- $r6
	@DEBUG_VALUE: find_volume:rfs <- $r7
	@DEBUG_VALUE: find_volume:mode <- $r5
	movs	r0, #0
	.loc	2 3035 10 is_stmt 1     @ ../User/FATFS/ff.c:3035:10
	strb	r6, [r4, #1]
	.loc	2 3034 14               @ ../User/FATFS/ff.c:3034:14
	strb	r0, [r4]
	.loc	2 3036 9                @ ../User/FATFS/ff.c:3036:9
	uxtb	r0, r6
	bl	disk_initialize
	.loc	2 3037 6                @ ../User/FATFS/ff.c:3037:6
	lsls	r1, r0, #31
	@DEBUG_VALUE: find_volume:stat <- undef
	bne	.LBB2_11
.Ltmp51:
@ %bb.7:
	@DEBUG_VALUE: find_volume:fs <- $r4
	@DEBUG_VALUE: find_volume:vol <- $r6
	@DEBUG_VALUE: find_volume:rfs <- $r7
	@DEBUG_VALUE: find_volume:mode <- $r5
	.loc	2 3040 28               @ ../User/FATFS/ff.c:3040:28
	cbz	r5, .LBB2_12
.Ltmp52:
@ %bb.8:
	@DEBUG_VALUE: find_volume:fs <- $r4
	@DEBUG_VALUE: find_volume:vol <- $r6
	@DEBUG_VALUE: find_volume:rfs <- $r7
	@DEBUG_VALUE: find_volume:mode <- $r5
	.loc	2 0 28 is_stmt 0        @ ../User/FATFS/ff.c:0:28
	ands	r0, r0, #4
	.loc	2 3040 28               @ ../User/FATFS/ff.c:3040:28
	beq	.LBB2_12
.Ltmp53:
@ %bb.9:
	@DEBUG_VALUE: find_volume:fs <- $r4
	@DEBUG_VALUE: find_volume:vol <- $r6
	@DEBUG_VALUE: find_volume:rfs <- $r7
	@DEBUG_VALUE: find_volume:mode <- $r5
	.loc	2 0 28                  @ ../User/FATFS/ff.c:0:28
	movs	r5, #10
.Ltmp54:
	b	.LBB2_35
.Ltmp55:
.LBB2_10:
	@DEBUG_VALUE: find_volume:fs <- $r4
	@DEBUG_VALUE: find_volume:vol <- $r6
	@DEBUG_VALUE: find_volume:rfs <- $r7
	movs	r5, #12
	b	.LBB2_35
.Ltmp56:
.LBB2_11:
	@DEBUG_VALUE: find_volume:fs <- $r4
	@DEBUG_VALUE: find_volume:vol <- $r6
	@DEBUG_VALUE: find_volume:rfs <- $r7
	@DEBUG_VALUE: find_volume:mode <- $r5
	movs	r5, #3
.Ltmp57:
	b	.LBB2_35
.Ltmp58:
.LBB2_12:
	@DEBUG_VALUE: find_volume:fs <- $r4
	@DEBUG_VALUE: find_volume:vol <- $r6
	@DEBUG_VALUE: find_volume:rfs <- $r7
	@DEBUG_VALUE: find_volume:mode <- $r5
	@DEBUG_VALUE: find_volume:bsect <- 0
	.loc	2 3050 8 is_stmt 1      @ ../User/FATFS/ff.c:3050:8
	mov	r0, r4
	movs	r1, #0
	movs	r5, #0
.Ltmp59:
	bl	check_fs
.Ltmp60:
	@DEBUG_VALUE: find_volume:fmt <- $r0
	.loc	2 3051 15               @ ../User/FATFS/ff.c:3051:15
	cmp	r0, #2
	bne	.LBB2_24
.Ltmp61:
@ %bb.13:
	@DEBUG_VALUE: find_volume:fmt <- $r0
	@DEBUG_VALUE: find_volume:fs <- $r4
	@DEBUG_VALUE: find_volume:vol <- $r6
	@DEBUG_VALUE: find_volume:rfs <- $r7
	.loc	2 0 15 is_stmt 0        @ ../User/FATFS/ff.c:0:15
	add	r6, sp, #4
.Ltmp62:
	movs	r5, #0
.Ltmp63:
	mov	r7, r6
.Ltmp64:
	b	.LBB2_18
.Ltmp65:
.LBB2_14:                               @   in Loop: Header=BB2_18 Depth=1
	@DEBUG_VALUE: find_volume:fmt <- $r0
	@DEBUG_VALUE: find_volume:fs <- $r4
	.loc	2 3054 12 is_stmt 1     @ ../User/FATFS/ff.c:3054:12
	adds	r0, r4, r5
.Ltmp66:
	ldrb.w	r1, [r0, #498]
	cbz	r1, .LBB2_16
.Ltmp67:
@ %bb.15:                               @   in Loop: Header=BB2_18 Depth=1
	@DEBUG_VALUE: find_volume:fs <- $r4
	.loc	2 3054 29 is_stmt 0     @ ../User/FATFS/ff.c:3054:29
	add.w	r0, r0, #502
	bl	ld_dword
	b	.LBB2_17
.Ltmp68:
.LBB2_16:                               @   in Loop: Header=BB2_18 Depth=1
	@DEBUG_VALUE: find_volume:fs <- $r4
	.loc	2 0 29                  @ ../User/FATFS/ff.c:0:29
	movs	r0, #0
.Ltmp69:
.LBB2_17:                               @   in Loop: Header=BB2_18 Depth=1
	@DEBUG_VALUE: find_volume:fs <- $r4
	.loc	2 3054 10               @ ../User/FATFS/ff.c:3054:10
	stm	r7!, {r0}
.Ltmp70:
	@DEBUG_VALUE: find_volume:i <- [DW_OP_plus_uconst 1, DW_OP_stack_value] undef
	.loc	2 3052 3 is_stmt 1      @ ../User/FATFS/ff.c:3052:3
	adds	r5, #16
.Ltmp71:
.LBB2_18:                               @ =>This Inner Loop Header: Depth=1
	@DEBUG_VALUE: find_volume:fmt <- $r0
	@DEBUG_VALUE: find_volume:fs <- $r4
	@DEBUG_VALUE: find_volume:i <- undef
	.loc	2 3052 3 is_stmt 0      @ ../User/FATFS/ff.c:3052:3
	cmp	r5, #64
	bne	.LBB2_14
.Ltmp72:
@ %bb.19:
	@DEBUG_VALUE: find_volume:fmt <- $r0
	@DEBUG_VALUE: find_volume:fs <- $r4
	.loc	2 0 3                   @ ../User/FATFS/ff.c:0:3
	movs	r7, #0
.Ltmp73:
.LBB2_20:                               @ =>This Inner Loop Header: Depth=1
	@DEBUG_VALUE: find_volume:fmt <- $r0
	@DEBUG_VALUE: find_volume:fs <- $r4
	@DEBUG_VALUE: find_volume:i <- $r7
	.loc	2 3059 12 is_stmt 1     @ ../User/FATFS/ff.c:3059:12
	ldr.w	r5, [r6, r7, lsl #2]
.Ltmp74:
	@DEBUG_VALUE: find_volume:bsect <- $r5
	.loc	2 0 12 is_stmt 0        @ ../User/FATFS/ff.c:0:12
	cbz	r5, .LBB2_22
.Ltmp75:
@ %bb.21:                               @   in Loop: Header=BB2_20 Depth=1
	@DEBUG_VALUE: find_volume:bsect <- $r5
	@DEBUG_VALUE: find_volume:i <- $r7
	@DEBUG_VALUE: find_volume:fmt <- $r0
	@DEBUG_VALUE: find_volume:fs <- $r4
	.loc	2 3060 18 is_stmt 1     @ ../User/FATFS/ff.c:3060:18
	mov	r0, r4
.Ltmp76:
	mov	r1, r5
	bl	check_fs
.Ltmp77:
	@DEBUG_VALUE: find_volume:fmt <- $r0
	.loc	2 3061 40               @ ../User/FATFS/ff.c:3061:40
	cmp	r0, #2
	bhs	.LBB2_23
	b	.LBB2_27
.Ltmp78:
.LBB2_22:                               @   in Loop: Header=BB2_20 Depth=1
	@DEBUG_VALUE: find_volume:bsect <- $r5
	@DEBUG_VALUE: find_volume:i <- $r7
	@DEBUG_VALUE: find_volume:fmt <- $r0
	@DEBUG_VALUE: find_volume:fs <- $r4
	.loc	2 0 40 is_stmt 0        @ ../User/FATFS/ff.c:0:40
	movs	r0, #3
.Ltmp79:
.LBB2_23:                               @   in Loop: Header=BB2_20 Depth=1
	@DEBUG_VALUE: find_volume:bsect <- $r5
	@DEBUG_VALUE: find_volume:i <- $r7
	@DEBUG_VALUE: find_volume:fs <- $r4
	.loc	2 3061 43               @ ../User/FATFS/ff.c:3061:43
	adds	r7, #1
.Ltmp80:
	@DEBUG_VALUE: find_volume:i <- $r7
	.loc	2 3061 3                @ ../User/FATFS/ff.c:3061:3
	cmp	r7, #4
	blo	.LBB2_20
.Ltmp81:
.LBB2_24:
	@DEBUG_VALUE: find_volume:fs <- $r4
	@DEBUG_VALUE: find_volume:bsect <- $r5
	@DEBUG_VALUE: find_volume:fmt <- $r0
	.loc	2 3063 6 is_stmt 1      @ ../User/FATFS/ff.c:3063:6
	cmp	r0, #4
	bne	.LBB2_26
.Ltmp82:
@ %bb.25:
	@DEBUG_VALUE: find_volume:bsect <- $r5
	@DEBUG_VALUE: find_volume:fmt <- $r0
	@DEBUG_VALUE: find_volume:fs <- $r4
	.loc	2 0 6 is_stmt 0         @ ../User/FATFS/ff.c:0:6
	movs	r5, #1
.Ltmp83:
	b	.LBB2_35
.Ltmp84:
.LBB2_26:
	@DEBUG_VALUE: find_volume:bsect <- $r5
	@DEBUG_VALUE: find_volume:fmt <- $r0
	@DEBUG_VALUE: find_volume:fs <- $r4
	.loc	2 3064 6 is_stmt 1      @ ../User/FATFS/ff.c:3064:6
	cmp	r0, #1
	bhi	.LBB2_34
.Ltmp85:
.LBB2_27:
	@DEBUG_VALUE: find_volume:bsect <- $r5
	@DEBUG_VALUE: find_volume:fmt <- $r0
	@DEBUG_VALUE: find_volume:fs <- $r4
	.loc	2 618 17                @ ../User/FATFS/ff.c:618:17
	ldrb.w	r0, [r4, #59]
.Ltmp86:
	@DEBUG_VALUE: ld_word:ptr <- [DW_OP_plus_uconst 59, DW_OP_stack_value] $r4
	.loc	2 617 7                 @ ../User/FATFS/ff.c:617:7
	ldrb.w	r1, [r4, #60]
	.loc	2 618 15                @ ../User/FATFS/ff.c:618:15
	orr.w	r0, r0, r1, lsl #8
.Ltmp87:
	@DEBUG_VALUE: ld_word:rv <- $r0
	.loc	2 3116 7                @ ../User/FATFS/ff.c:3116:7
	cmp.w	r0, #512
	bne	.LBB2_34
.Ltmp88:
@ %bb.28:
	@DEBUG_VALUE: find_volume:bsect <- $r5
	@DEBUG_VALUE: find_volume:fs <- $r4
	@DEBUG_VALUE: ld_word:ptr <- [DW_OP_plus_uconst 70, DW_OP_stack_value] $r4
	.loc	2 618 17                @ ../User/FATFS/ff.c:618:17
	ldrb.w	r0, [r4, #70]
	.loc	2 617 7                 @ ../User/FATFS/ff.c:617:7
	ldrb.w	r1, [r4, #71]
	.loc	2 618 15                @ ../User/FATFS/ff.c:618:15
	orr.w	r11, r0, r1, lsl #8
.Ltmp89:
	@DEBUG_VALUE: ld_word:rv <- $r11
	.loc	2 3119 7                @ ../User/FATFS/ff.c:3119:7
	cmp.w	r11, #0
	bne	.LBB2_30
.Ltmp90:
@ %bb.29:
	@DEBUG_VALUE: find_volume:bsect <- $r5
	@DEBUG_VALUE: find_volume:fs <- $r4
	.loc	2 3119 46 is_stmt 0     @ ../User/FATFS/ff.c:3119:46
	add.w	r0, r4, #84
	.loc	2 3119 29               @ ../User/FATFS/ff.c:3119:29
	bl	ld_dword
	mov	r11, r0
.Ltmp91:
	@DEBUG_VALUE: find_volume:fasize <- $r11
.LBB2_30:
	@DEBUG_VALUE: find_volume:bsect <- $r5
	@DEBUG_VALUE: find_volume:fs <- $r4
	@DEBUG_VALUE: find_volume:fasize <- $r11
	.loc	2 3120 13 is_stmt 1     @ ../User/FATFS/ff.c:3120:13
	str.w	r11, [r4, #24]
	.loc	2 3122 16               @ ../User/FATFS/ff.c:3122:16
	ldrb.w	r6, [r4, #64]
.Ltmp92:
	.loc	2 3123 23               @ ../User/FATFS/ff.c:3123:23
	subs	r0, r6, #1
.Ltmp93:
	.loc	2 3122 14               @ ../User/FATFS/ff.c:3122:14
	strb	r6, [r4, #2]
.Ltmp94:
	.loc	2 3123 23               @ ../User/FATFS/ff.c:3123:23
	cmp	r0, #1
	bhi	.LBB2_34
.Ltmp95:
@ %bb.31:
	@DEBUG_VALUE: find_volume:fasize <- $r11
	@DEBUG_VALUE: find_volume:bsect <- $r5
	@DEBUG_VALUE: find_volume:fs <- $r4
	.loc	2 3126 15               @ ../User/FATFS/ff.c:3126:15
	ldrb.w	r7, [r4, #61]
.Ltmp96:
	.loc	2 3127 22               @ ../User/FATFS/ff.c:3127:22
	cmp	r7, #0
.Ltmp97:
	.loc	2 3126 13               @ ../User/FATFS/ff.c:3126:13
	strh	r7, [r4, #10]
.Ltmp98:
	.loc	2 3127 22               @ ../User/FATFS/ff.c:3127:22
	beq	.LBB2_34
.Ltmp99:
@ %bb.32:
	@DEBUG_VALUE: find_volume:fasize <- $r11
	@DEBUG_VALUE: find_volume:bsect <- $r5
	@DEBUG_VALUE: find_volume:fs <- $r4
	.loc	2 3127 36 is_stmt 0     @ ../User/FATFS/ff.c:3127:36
	subs	r0, r7, #1
.Ltmp100:
	.loc	2 3127 7                @ ../User/FATFS/ff.c:3127:7
	tst	r0, r7
	bne	.LBB2_34
.Ltmp101:
@ %bb.33:
	@DEBUG_VALUE: find_volume:fasize <- $r11
	@DEBUG_VALUE: find_volume:bsect <- $r5
	@DEBUG_VALUE: find_volume:fs <- $r4
	@DEBUG_VALUE: ld_word:ptr <- [DW_OP_plus_uconst 65, DW_OP_stack_value] $r4
	.loc	2 618 17 is_stmt 1      @ ../User/FATFS/ff.c:618:17
	ldrb.w	r0, [r4, #65]
	.loc	2 617 7                 @ ../User/FATFS/ff.c:617:7
	ldrb.w	r1, [r4, #66]
	.loc	2 618 15                @ ../User/FATFS/ff.c:618:15
	orr.w	r10, r0, r1, lsl #8
.Ltmp102:
	@DEBUG_VALUE: ld_word:rv <- $r10
	.loc	2 3130 7                @ ../User/FATFS/ff.c:3130:7
	lsls	r0, r0, #28
	.loc	2 3129 17               @ ../User/FATFS/ff.c:3129:17
	strh.w	r10, [r4, #8]
	.loc	2 3130 7                @ ../User/FATFS/ff.c:3130:7
	beq	.LBB2_36
.Ltmp103:
.LBB2_34:
	@DEBUG_VALUE: find_volume:bsect <- $r5
	@DEBUG_VALUE: find_volume:fs <- $r4
	.loc	2 0 7 is_stmt 0         @ ../User/FATFS/ff.c:0:7
	movs	r5, #13
.Ltmp104:
.LBB2_35:
	.loc	2 3206 1 is_stmt 1      @ ../User/FATFS/ff.c:3206:1
	mov	r0, r5
	add	sp, #20
	pop.w	{r4, r5, r6, r7, r8, r9, r10, r11, pc}
.LBB2_36:
.Ltmp105:
	@DEBUG_VALUE: find_volume:fasize <- $r11
	@DEBUG_VALUE: find_volume:bsect <- $r5
	@DEBUG_VALUE: find_volume:fs <- $r4
	@DEBUG_VALUE: ld_word:ptr <- [DW_OP_plus_uconst 67, DW_OP_stack_value] $r4
	.loc	2 618 17                @ ../User/FATFS/ff.c:618:17
	ldrb.w	r0, [r4, #67]
	.loc	2 617 7                 @ ../User/FATFS/ff.c:617:7
	ldrb.w	r1, [r4, #68]
	.loc	2 618 15                @ ../User/FATFS/ff.c:618:15
	orr.w	r0, r0, r1, lsl #8
.Ltmp106:
	@DEBUG_VALUE: ld_word:rv <- $r0
	.loc	2 3133 7                @ ../User/FATFS/ff.c:3133:7
	cbnz	r0, .LBB2_38
.Ltmp107:
@ %bb.37:
	@DEBUG_VALUE: find_volume:fasize <- $r11
	@DEBUG_VALUE: find_volume:bsect <- $r5
	@DEBUG_VALUE: find_volume:fs <- $r4
	.loc	2 3133 44 is_stmt 0     @ ../User/FATFS/ff.c:3133:44
	add.w	r0, r4, #80
	.loc	2 3133 27               @ ../User/FATFS/ff.c:3133:27
	bl	ld_dword
.Ltmp108:
	@DEBUG_VALUE: find_volume:tsect <- $r0
.LBB2_38:
	@DEBUG_VALUE: find_volume:fasize <- $r11
	@DEBUG_VALUE: find_volume:bsect <- $r5
	@DEBUG_VALUE: find_volume:fs <- $r4
	@DEBUG_VALUE: find_volume:tsect <- $r0
	@DEBUG_VALUE: ld_word:ptr <- [DW_OP_plus_uconst 62, DW_OP_stack_value] $r4
	.loc	2 618 17 is_stmt 1      @ ../User/FATFS/ff.c:618:17
	ldrb.w	r1, [r4, #62]
	.loc	2 617 7                 @ ../User/FATFS/ff.c:617:7
	ldrb.w	r2, [r4, #63]
	.loc	2 618 15                @ ../User/FATFS/ff.c:618:15
	orr.w	r2, r1, r2, lsl #8
.Ltmp109:
	@DEBUG_VALUE: find_volume:nrsv <- $r2
	@DEBUG_VALUE: ld_word:rv <- $r2
	.loc	2 3136 7                @ ../User/FATFS/ff.c:3136:7
	cmp	r2, #0
	beq	.LBB2_34
.Ltmp110:
@ %bb.39:
	@DEBUG_VALUE: find_volume:nrsv <- $r2
	@DEBUG_VALUE: find_volume:tsect <- $r0
	@DEBUG_VALUE: find_volume:fasize <- $r11
	@DEBUG_VALUE: find_volume:bsect <- $r5
	@DEBUG_VALUE: find_volume:fs <- $r4
	.loc	2 0 0 is_stmt 0         @ ../User/FATFS/ff.c:0:0
	mul	r1, r11, r6
.Ltmp111:
	@DEBUG_VALUE: find_volume:fasize <- $r1
	.loc	2 3139 17 is_stmt 1     @ ../User/FATFS/ff.c:3139:17
	add.w	r3, r1, r10, lsr #4
	.loc	2 3139 26 is_stmt 0     @ ../User/FATFS/ff.c:3139:26
	add	r3, r2
.Ltmp112:
	@DEBUG_VALUE: find_volume:sysect <- $r3
	.loc	2 3140 7 is_stmt 1      @ ../User/FATFS/ff.c:3140:7
	cmp	r0, r3
	blo	.LBB2_34
.Ltmp113:
@ %bb.40:
	@DEBUG_VALUE: find_volume:sysect <- $r3
	@DEBUG_VALUE: find_volume:fasize <- $r1
	@DEBUG_VALUE: find_volume:nrsv <- $r2
	@DEBUG_VALUE: find_volume:tsect <- $r0
	@DEBUG_VALUE: find_volume:bsect <- $r5
	@DEBUG_VALUE: find_volume:fs <- $r4
	.loc	2 3141 18               @ ../User/FATFS/ff.c:3141:18
	subs	r0, r0, r3
.Ltmp114:
	.loc	2 3142 7                @ ../User/FATFS/ff.c:3142:7
	cmp	r0, r7
	blo	.LBB2_34
.Ltmp115:
@ %bb.41:
	@DEBUG_VALUE: find_volume:sysect <- $r3
	@DEBUG_VALUE: find_volume:fasize <- $r1
	@DEBUG_VALUE: find_volume:nrsv <- $r2
	@DEBUG_VALUE: find_volume:bsect <- $r5
	@DEBUG_VALUE: find_volume:fs <- $r4
	.loc	2 0 0 is_stmt 0         @ ../User/FATFS/ff.c:0:0
	udiv	r7, r0, r7
.Ltmp116:
	@DEBUG_VALUE: find_volume:nclst <- $r7
	@DEBUG_VALUE: find_volume:fmt <- 3
	.loc	2 3151 24 is_stmt 1     @ ../User/FATFS/ff.c:3151:24
	adds	r0, r3, r5
	mov.w	r9, #3
	.loc	2 3151 16 is_stmt 0     @ ../User/FATFS/ff.c:3151:16
	str	r0, [r4, #40]
	.loc	2 3150 23 is_stmt 1     @ ../User/FATFS/ff.c:3150:23
	adds	r0, r5, r2
	movw	r2, #65526
.Ltmp117:
	.loc	2 3148 24               @ ../User/FATFS/ff.c:3148:24
	adds	r6, r7, #2
	.loc	2 3144 7                @ ../User/FATFS/ff.c:3144:7
	cmp	r7, r2
	movw	r2, #4086
	.loc	2 3149 15               @ ../User/FATFS/ff.c:3149:15
	strd	r5, r0, [r4, #28]
	.loc	2 3148 16               @ ../User/FATFS/ff.c:3148:16
	str	r6, [r4, #20]
	.loc	2 3144 7                @ ../User/FATFS/ff.c:3144:7
	it	lo
	movlo.w	r9, #2
.Ltmp118:
	@DEBUG_VALUE: find_volume:fmt <- $r9
	.loc	2 3145 7                @ ../User/FATFS/ff.c:3145:7
	cmp	r7, r2
	it	lo
	movlo.w	r9, #1
.Ltmp119:
	@DEBUG_VALUE: find_volume:fmt <- $r9
	.loc	2 3152 7                @ ../User/FATFS/ff.c:3152:7
	cmp.w	r9, #3
	bne	.LBB2_44
.Ltmp120:
@ %bb.42:
	@DEBUG_VALUE: find_volume:fmt <- $r9
	@DEBUG_VALUE: find_volume:nclst <- $r7
	@DEBUG_VALUE: find_volume:sysect <- $r3
	@DEBUG_VALUE: find_volume:fasize <- $r1
	@DEBUG_VALUE: find_volume:bsect <- $r5
	@DEBUG_VALUE: find_volume:fs <- $r4
	@DEBUG_VALUE: ld_word:ptr <- [DW_OP_plus_uconst 90, DW_OP_stack_value] $r4
	.loc	2 618 17                @ ../User/FATFS/ff.c:618:17
	ldrb.w	r0, [r4, #90]
	.loc	2 617 7                 @ ../User/FATFS/ff.c:617:7
	ldrb.w	r1, [r4, #91]
.Ltmp121:
	@DEBUG_VALUE: ld_word:rv <- undef
	.loc	2 618 15                @ ../User/FATFS/ff.c:618:15
	orr.w	r0, r0, r10
.Ltmp122:
	.loc	2 3153 8                @ ../User/FATFS/ff.c:3153:8
	orr.w	r0, r0, r1, lsl #8
	cmp	r0, #0
	bne	.LBB2_34
.Ltmp123:
@ %bb.43:
	@DEBUG_VALUE: find_volume:fmt <- $r9
	@DEBUG_VALUE: find_volume:nclst <- $r7
	@DEBUG_VALUE: find_volume:sysect <- $r3
	@DEBUG_VALUE: find_volume:bsect <- $r5
	@DEBUG_VALUE: find_volume:fs <- $r4
	.loc	2 3155 35               @ ../User/FATFS/ff.c:3155:35
	add.w	r0, r4, #92
	.loc	2 3155 18 is_stmt 0     @ ../User/FATFS/ff.c:3155:18
	bl	ld_dword
.Ltmp124:
	.loc	2 3155 16               @ ../User/FATFS/ff.c:3155:16
	str	r0, [r4, #36]
	.loc	2 3156 26 is_stmt 1     @ ../User/FATFS/ff.c:3156:26
	lsls	r0, r6, #2
.Ltmp125:
	@DEBUG_VALUE: find_volume:szbfat <- $r0
	.loc	2 0 26 is_stmt 0        @ ../User/FATFS/ff.c:0:26
	b	.LBB2_46
.Ltmp126:
.LBB2_44:
	@DEBUG_VALUE: find_volume:fmt <- $r9
	@DEBUG_VALUE: find_volume:nclst <- $r7
	@DEBUG_VALUE: find_volume:sysect <- $r3
	@DEBUG_VALUE: find_volume:fasize <- $r1
	@DEBUG_VALUE: find_volume:bsect <- $r5
	@DEBUG_VALUE: find_volume:fs <- $r4
	.loc	2 3158 8 is_stmt 1      @ ../User/FATFS/ff.c:3158:8
	cmp.w	r10, #0
	beq	.LBB2_34
.Ltmp127:
@ %bb.45:
	@DEBUG_VALUE: find_volume:fmt <- $r9
	@DEBUG_VALUE: find_volume:nclst <- $r7
	@DEBUG_VALUE: find_volume:sysect <- $r3
	@DEBUG_VALUE: find_volume:fasize <- $r1
	@DEBUG_VALUE: find_volume:bsect <- $r5
	@DEBUG_VALUE: find_volume:fs <- $r4
	.loc	2 3159 30               @ ../User/FATFS/ff.c:3159:30
	add	r0, r1
	.loc	2 3160 13               @ ../User/FATFS/ff.c:3160:13
	cmp.w	r9, #2
	.loc	2 3159 16               @ ../User/FATFS/ff.c:3159:16
	str	r0, [r4, #36]
	.loc	2 3161 18               @ ../User/FATFS/ff.c:3161:18
	iteee	eq
	lsleq	r0, r6, #1
	.loc	2 3161 37 is_stmt 0     @ ../User/FATFS/ff.c:3161:37
	addne.w	r0, r6, r6, lsl #1
	.loc	2 3161 61               @ ../User/FATFS/ff.c:3161:61
	andne	r1, r6, #1
.Ltmp128:
	.loc	2 3161 45               @ ../User/FATFS/ff.c:3161:45
	addne.w	r0, r1, r0, lsr #1
.Ltmp129:
.LBB2_46:
	@DEBUG_VALUE: find_volume:fmt <- $r9
	@DEBUG_VALUE: find_volume:nclst <- $r7
	@DEBUG_VALUE: find_volume:bsect <- $r5
	@DEBUG_VALUE: find_volume:fs <- $r4
	@DEBUG_VALUE: find_volume:szbfat <- $r0
	.loc	2 3163 27 is_stmt 1     @ ../User/FATFS/ff.c:3163:27
	addw	r0, r0, #511
.Ltmp130:
	.loc	2 3163 7 is_stmt 0      @ ../User/FATFS/ff.c:3163:7
	cmp.w	r11, r0, lsr #9
	blo	.LBB2_34
.Ltmp131:
@ %bb.47:
	@DEBUG_VALUE: find_volume:fmt <- $r9
	@DEBUG_VALUE: find_volume:nclst <- $r7
	@DEBUG_VALUE: find_volume:bsect <- $r5
	@DEBUG_VALUE: find_volume:fs <- $r4
	.loc	2 0 7                   @ ../User/FATFS/ff.c:0:7
	mov.w	r0, #-1
.Ltmp132:
	.loc	2 3171 4 is_stmt 1      @ ../User/FATFS/ff.c:3171:4
	cmp.w	r9, #3
.Ltmp133:
	.loc	2 3167 17               @ ../User/FATFS/ff.c:3167:17
	strd	r0, r0, [r4, #12]
	mov.w	r0, #128
	.loc	2 3168 16               @ ../User/FATFS/ff.c:3168:16
	strb	r0, [r4, #4]
.Ltmp134:
	.loc	2 3171 4                @ ../User/FATFS/ff.c:3171:4
	bne	.LBB2_54
.Ltmp135:
@ %bb.48:
	@DEBUG_VALUE: find_volume:fmt <- $r9
	@DEBUG_VALUE: find_volume:nclst <- $r7
	@DEBUG_VALUE: find_volume:bsect <- $r5
	@DEBUG_VALUE: find_volume:fs <- $r4
	@DEBUG_VALUE: ld_word:ptr <- [DW_OP_plus_uconst 96, DW_OP_stack_value] $r4
	.loc	2 618 17                @ ../User/FATFS/ff.c:618:17
	ldrb.w	r0, [r4, #96]
	.loc	2 617 7                 @ ../User/FATFS/ff.c:617:7
	ldrb.w	r1, [r4, #97]
	.loc	2 618 15                @ ../User/FATFS/ff.c:618:15
	orr.w	r0, r0, r1, lsl #8
.Ltmp136:
	@DEBUG_VALUE: ld_word:rv <- $r0
	.loc	2 3172 4                @ ../User/FATFS/ff.c:3172:4
	cmp	r0, #1
	bne	.LBB2_54
.Ltmp137:
@ %bb.49:
	@DEBUG_VALUE: find_volume:fmt <- $r9
	@DEBUG_VALUE: find_volume:nclst <- $r7
	@DEBUG_VALUE: find_volume:bsect <- $r5
	@DEBUG_VALUE: find_volume:fs <- $r4
	.loc	2 3172 29 is_stmt 0     @ ../User/FATFS/ff.c:3172:29
	adds	r1, r5, #1
	.loc	2 3172 7                @ ../User/FATFS/ff.c:3172:7
	mov	r0, r4
	bl	move_window
.Ltmp138:
	.loc	2 3170 7 is_stmt 1      @ ../User/FATFS/ff.c:3170:7
	cbnz	r0, .LBB2_54
.Ltmp139:
@ %bb.50:
	@DEBUG_VALUE: find_volume:fmt <- $r9
	@DEBUG_VALUE: find_volume:nclst <- $r7
	@DEBUG_VALUE: find_volume:bsect <- $r5
	@DEBUG_VALUE: find_volume:fs <- $r4
	.loc	2 0 7 is_stmt 0         @ ../User/FATFS/ff.c:0:7
	movs	r0, #0
.Ltmp140:
	.loc	2 3174 17 is_stmt 1     @ ../User/FATFS/ff.c:3174:17
	strb	r0, [r4, #4]
.Ltmp141:
	.loc	2 618 17                @ ../User/FATFS/ff.c:618:17
	ldrb.w	r0, [r4, #558]
.Ltmp142:
	@DEBUG_VALUE: ld_word:ptr <- [DW_OP_plus_uconst 558, DW_OP_stack_value] $r4
	.loc	2 617 7                 @ ../User/FATFS/ff.c:617:7
	ldrb.w	r1, [r4, #559]
	.loc	2 618 15                @ ../User/FATFS/ff.c:618:15
	orr.w	r0, r0, r1, lsl #8
.Ltmp143:
	@DEBUG_VALUE: ld_word:rv <- $r0
	.loc	2 0 15 is_stmt 0        @ ../User/FATFS/ff.c:0:15
	movw	r1, #43605
.Ltmp144:
	.loc	2 3176 5 is_stmt 1      @ ../User/FATFS/ff.c:3176:5
	cmp	r0, r1
	bne	.LBB2_54
.Ltmp145:
@ %bb.51:
	@DEBUG_VALUE: find_volume:fmt <- $r9
	@DEBUG_VALUE: find_volume:nclst <- $r7
	@DEBUG_VALUE: find_volume:bsect <- $r5
	@DEBUG_VALUE: find_volume:fs <- $r4
	.loc	2 0 5 is_stmt 0         @ ../User/FATFS/ff.c:0:5
	add.w	r0, r4, #48
	.loc	2 3176 8                @ ../User/FATFS/ff.c:3176:8
	bl	ld_dword
	ldr	r1, __arm_cp.2_1
	.loc	2 3177 5 is_stmt 1      @ ../User/FATFS/ff.c:3177:5
	cmp	r0, r1
	bne	.LBB2_54
.Ltmp146:
@ %bb.52:
	@DEBUG_VALUE: find_volume:fmt <- $r9
	@DEBUG_VALUE: find_volume:nclst <- $r7
	@DEBUG_VALUE: find_volume:bsect <- $r5
	@DEBUG_VALUE: find_volume:fs <- $r4
	.loc	2 3177 25 is_stmt 0     @ ../User/FATFS/ff.c:3177:25
	add.w	r0, r4, #532
	.loc	2 3177 8                @ ../User/FATFS/ff.c:3177:8
	bl	ld_dword
	ldr	r1, __arm_cp.2_2
.Ltmp147:
	.loc	2 3175 8 is_stmt 1      @ ../User/FATFS/ff.c:3175:8
	cmp	r0, r1
	bne	.LBB2_54
.Ltmp148:
@ %bb.53:
	@DEBUG_VALUE: find_volume:fmt <- $r9
	@DEBUG_VALUE: find_volume:nclst <- $r7
	@DEBUG_VALUE: find_volume:bsect <- $r5
	@DEBUG_VALUE: find_volume:fs <- $r4
	.loc	2 3180 38               @ ../User/FATFS/ff.c:3180:38
	add.w	r0, r4, #536
	.loc	2 3180 21 is_stmt 0     @ ../User/FATFS/ff.c:3180:21
	bl	ld_dword
	.loc	2 3180 19               @ ../User/FATFS/ff.c:3180:19
	str	r0, [r4, #16]
	.loc	2 3183 38 is_stmt 1     @ ../User/FATFS/ff.c:3183:38
	add.w	r0, r4, #540
	.loc	2 3183 21 is_stmt 0     @ ../User/FATFS/ff.c:3183:21
	bl	ld_dword
	.loc	2 3183 19               @ ../User/FATFS/ff.c:3183:19
	str	r0, [r4, #12]
.Ltmp149:
.LBB2_54:
	@DEBUG_VALUE: find_volume:fmt <- $r9
	@DEBUG_VALUE: find_volume:nclst <- $r7
	@DEBUG_VALUE: find_volume:bsect <- $r5
	@DEBUG_VALUE: find_volume:fs <- $r4
	.loc	2 3191 14 is_stmt 1     @ ../User/FATFS/ff.c:3191:14
	strb.w	r9, [r4]
	movs	r5, #0
.Ltmp150:
	.loc	2 3192 11               @ ../User/FATFS/ff.c:3192:11
	ldrh.w	r0, [r8]
	adds	r0, #1
	strh.w	r0, [r8]
	.loc	2 3192 9 is_stmt 0      @ ../User/FATFS/ff.c:3192:9
	strh	r0, [r4, #6]
	b	.LBB2_35
.Ltmp151:
	.p2align	2
@ %bb.55:
	.loc	2 0 9                   @ ../User/FATFS/ff.c:0:9
__arm_cp.2_0:
	.long	.L_MergedGlobals
.Lcpi_end1:
	.size	__arm_cp.2_0, .Lcpi_end1-__arm_cp.2_0
__arm_cp.2_1:
	.long	1096897106              @ 0x41615252
.Lcpi_end2:
	.size	__arm_cp.2_1, .Lcpi_end2-__arm_cp.2_1
__arm_cp.2_2:
	.long	1631679090              @ 0x61417272
.Lcpi_end3:
	.size	__arm_cp.2_2, .Lcpi_end3-__arm_cp.2_2
.Lfunc_end2:
	.size	find_volume, .Lfunc_end2-find_volume
	.cfi_endproc
	.cantunwind
	.fnend
                                        @ -- End function
	.section	.text.f_open,"ax",%progbits
	.hidden	f_open                  @ -- Begin function f_open
	.globl	f_open
	.p2align	2
	.type	f_open,%function
	.code	16                      @ @f_open
	.thumb_func
f_open:
.Lfunc_begin3:
	.loc	2 3302 0 is_stmt 1      @ ../User/FATFS/ff.c:3302:0
	.fnstart
	.cfi_startproc
@ %bb.0:
	.save	{r4, r5, r6, r7, r8, r9, r10, lr}
	push.w	{r4, r5, r6, r7, r8, r9, r10, lr}
	.cfi_def_cfa_offset 32
	.cfi_offset lr, -4
	.cfi_offset r10, -8
	.cfi_offset r9, -12
	.cfi_offset r8, -16
	.cfi_offset r7, -20
	.cfi_offset r6, -24
	.cfi_offset r5, -28
	.cfi_offset r4, -32
	.pad	#56
	sub	sp, #56
	.cfi_def_cfa_offset 88
	@DEBUG_VALUE: f_open:fp <- $r0
	@DEBUG_VALUE: f_open:path <- $r1
	@DEBUG_VALUE: f_open:path <- $r1
	@DEBUG_VALUE: f_open:mode <- $r2
.Ltmp152:
	.loc	2 3313 6 prologue_end   @ ../User/FATFS/ff.c:3313:6
	cmp	r0, #0
	str	r1, [sp, #52]
	@DEBUG_VALUE: f_open:mode <- $r2
	beq	.LBB3_3
.Ltmp153:
@ %bb.1:
	@DEBUG_VALUE: f_open:mode <- $r2
	@DEBUG_VALUE: f_open:path <- $r1
	@DEBUG_VALUE: f_open:fp <- $r0
	.loc	2 3316 7                @ ../User/FATFS/ff.c:3316:7
	and	r6, r2, #63
	mov	r4, r0
.Ltmp154:
	@DEBUG_VALUE: f_open:fp <- $r4
	@DEBUG_VALUE: f_open:fp <- $r4
	@DEBUG_VALUE: f_open:mode <- undef
	@DEBUG_VALUE: f_open:path <- [DW_OP_plus_uconst 52, DW_OP_deref] $sp
	@DEBUG_VALUE: f_open:fs <- [DW_OP_plus_uconst 4, DW_OP_deref] $sp
	.loc	2 0 7 is_stmt 0         @ ../User/FATFS/ff.c:0:7
	add	r0, sp, #52
	add	r1, sp, #4
	.loc	2 3317 8 is_stmt 1      @ ../User/FATFS/ff.c:3317:8
	mov	r2, r6
	bl	find_volume
	mov	r7, r0
.Ltmp155:
	@DEBUG_VALUE: f_open:res <- $r7
	.loc	2 3318 6                @ ../User/FATFS/ff.c:3318:6
	cbz	r0, .LBB3_5
.Ltmp156:
.LBB3_2:
	@DEBUG_VALUE: f_open:fs <- [DW_OP_plus_uconst 4, DW_OP_deref] $sp
	@DEBUG_VALUE: f_open:fp <- $r4
	.loc	2 0 6 is_stmt 0         @ ../User/FATFS/ff.c:0:6
	movs	r0, #0
.Ltmp157:
	.loc	2 3488 31 is_stmt 1     @ ../User/FATFS/ff.c:3488:31
	str	r0, [r4]
	b	.LBB3_4
.Ltmp158:
.LBB3_3:
	@DEBUG_VALUE: f_open:mode <- $r2
	@DEBUG_VALUE: f_open:path <- $r1
	@DEBUG_VALUE: f_open:fp <- $r0
	.loc	2 0 31 is_stmt 0        @ ../User/FATFS/ff.c:0:31
	movs	r7, #9
.Ltmp159:
.LBB3_4:
	.loc	2 3491 1 is_stmt 1      @ ../User/FATFS/ff.c:3491:1
	uxtb	r0, r7
	add	sp, #56
	pop.w	{r4, r5, r6, r7, r8, r9, r10, pc}
.LBB3_5:
.Ltmp160:
	@DEBUG_VALUE: f_open:res <- $r7
	@DEBUG_VALUE: f_open:fs <- [DW_OP_plus_uconst 4, DW_OP_deref] $sp
	@DEBUG_VALUE: f_open:path <- [DW_OP_plus_uconst 52, DW_OP_deref] $sp
	@DEBUG_VALUE: f_open:fp <- $r4
	.loc	2 3319 15               @ ../User/FATFS/ff.c:3319:15
	ldr.w	r8, [sp, #4]
.Ltmp161:
	@DEBUG_VALUE: st_clust:fs <- $r8
	@DEBUG_VALUE: f_open:fs <- $r8
	@DEBUG_VALUE: f_open:fs <- [DW_OP_plus_uconst 4, DW_OP_deref] $sp
	.loc	2 3321 26               @ ../User/FATFS/ff.c:3321:26
	ldr	r1, [sp, #52]
.Ltmp162:
	@DEBUG_VALUE: f_open:dj <- [DW_OP_plus_uconst 8, DW_OP_deref] $sp
	@DEBUG_VALUE: f_open:path <- $r1
	.loc	2 0 26 is_stmt 0        @ ../User/FATFS/ff.c:0:26
	add	r0, sp, #8
	.loc	2 3319 13 is_stmt 1     @ ../User/FATFS/ff.c:3319:13
	str.w	r8, [sp, #8]
	.loc	2 3321 9                @ ../User/FATFS/ff.c:3321:9
	bl	follow_path
.Ltmp163:
	mov	r7, r0
.Ltmp164:
	@DEBUG_VALUE: f_open:res <- $r7
	.loc	2 3323 7                @ ../User/FATFS/ff.c:3323:7
	cbnz	r0, .LBB3_7
.Ltmp165:
@ %bb.6:
	@DEBUG_VALUE: f_open:dj <- [DW_OP_plus_uconst 8, DW_OP_deref] $sp
	@DEBUG_VALUE: f_open:res <- $r7
	@DEBUG_VALUE: f_open:fs <- [DW_OP_plus_uconst 4, DW_OP_deref] $sp
	@DEBUG_VALUE: f_open:fp <- $r4
	.loc	2 3324 8                @ ../User/FATFS/ff.c:3324:8
	ldrsb.w	r0, [sp, #51]
	movs	r1, #6
.Ltmp166:
	.loc	2 3324 8 is_stmt 0      @ ../User/FATFS/ff.c:3324:8
	and.w	r7, r1, r0, lsr #7
.Ltmp167:
.LBB3_7:
	@DEBUG_VALUE: f_open:dj <- [DW_OP_plus_uconst 8, DW_OP_deref] $sp
	@DEBUG_VALUE: f_open:fs <- [DW_OP_plus_uconst 4, DW_OP_deref] $sp
	@DEBUG_VALUE: f_open:fp <- $r4
	@DEBUG_VALUE: f_open:res <- $r7
	.loc	2 3334 7 is_stmt 1      @ ../User/FATFS/ff.c:3334:7
	tst.w	r6, #28
	beq	.LBB3_12
.Ltmp168:
@ %bb.8:
	@DEBUG_VALUE: f_open:dj <- [DW_OP_plus_uconst 8, DW_OP_deref] $sp
	@DEBUG_VALUE: f_open:res <- $r7
	@DEBUG_VALUE: f_open:fs <- [DW_OP_plus_uconst 4, DW_OP_deref] $sp
	@DEBUG_VALUE: f_open:fp <- $r4
	.loc	2 3335 8                @ ../User/FATFS/ff.c:3335:8
	cbz	r7, .LBB3_16
.Ltmp169:
@ %bb.9:
	@DEBUG_VALUE: f_open:dj <- [DW_OP_plus_uconst 8, DW_OP_deref] $sp
	@DEBUG_VALUE: f_open:res <- $r7
	@DEBUG_VALUE: f_open:fs <- [DW_OP_plus_uconst 4, DW_OP_deref] $sp
	@DEBUG_VALUE: f_open:fp <- $r4
	.loc	2 3336 9                @ ../User/FATFS/ff.c:3336:9
	cmp	r7, #4
	bne	.LBB3_2
.Ltmp170:
@ %bb.10:
	@DEBUG_VALUE: f_open:dj <- [DW_OP_plus_uconst 8, DW_OP_deref] $sp
	@DEBUG_VALUE: f_open:res <- $r7
	@DEBUG_VALUE: f_open:fs <- [DW_OP_plus_uconst 4, DW_OP_deref] $sp
	@DEBUG_VALUE: f_open:fp <- $r4
	@DEBUG_VALUE: f_open:dj <- [DW_OP_plus_uconst 8, DW_OP_deref] $sp
	.loc	2 0 9 is_stmt 0         @ ../User/FATFS/ff.c:0:9
	add	r0, sp, #8
.Ltmp171:
	.loc	2 3340 12 is_stmt 1     @ ../User/FATFS/ff.c:3340:12
	bl	dir_register
	mov	r7, r0
.Ltmp172:
	@DEBUG_VALUE: f_open:res <- $r7
	.loc	2 3352 21               @ ../User/FATFS/ff.c:3352:21
	cmp	r0, #0
	bne	.LBB3_2
.Ltmp173:
@ %bb.11:
	@DEBUG_VALUE: f_open:dj <- [DW_OP_plus_uconst 8, DW_OP_deref] $sp
	@DEBUG_VALUE: f_open:res <- $r7
	@DEBUG_VALUE: f_open:fs <- [DW_OP_plus_uconst 4, DW_OP_deref] $sp
	@DEBUG_VALUE: f_open:fp <- $r4
	.loc	2 0 21 is_stmt 0        @ ../User/FATFS/ff.c:0:21
	orr	r6, r6, #8
.Ltmp174:
	@DEBUG_VALUE: f_open:mode <- $r6
	b	.LBB3_19
.Ltmp175:
.LBB3_12:
	@DEBUG_VALUE: f_open:dj <- [DW_OP_plus_uconst 8, DW_OP_deref] $sp
	@DEBUG_VALUE: f_open:res <- $r7
	@DEBUG_VALUE: f_open:fs <- [DW_OP_plus_uconst 4, DW_OP_deref] $sp
	@DEBUG_VALUE: f_open:fp <- $r4
	.loc	2 3401 8 is_stmt 1      @ ../User/FATFS/ff.c:3401:8
	cmp	r7, #0
	bne	.LBB3_2
.Ltmp176:
@ %bb.13:
	@DEBUG_VALUE: f_open:dj <- [DW_OP_plus_uconst 8, DW_OP_deref] $sp
	@DEBUG_VALUE: f_open:res <- $r7
	@DEBUG_VALUE: f_open:fs <- [DW_OP_plus_uconst 4, DW_OP_deref] $sp
	@DEBUG_VALUE: f_open:fp <- $r4
	.loc	2 3402 16               @ ../User/FATFS/ff.c:3402:16
	ldrb.w	r0, [sp, #14]
.Ltmp177:
	.loc	2 3402 9 is_stmt 0      @ ../User/FATFS/ff.c:3402:9
	lsls	r1, r0, #27
	bmi.w	.LBB3_30
.Ltmp178:
@ %bb.14:
	@DEBUG_VALUE: f_open:dj <- [DW_OP_plus_uconst 8, DW_OP_deref] $sp
	@DEBUG_VALUE: f_open:res <- $r7
	@DEBUG_VALUE: f_open:fs <- [DW_OP_plus_uconst 4, DW_OP_deref] $sp
	@DEBUG_VALUE: f_open:fp <- $r4
	.loc	2 3405 28 is_stmt 1     @ ../User/FATFS/ff.c:3405:28
	lsls	r1, r6, #30
	bpl	.LBB3_23
.Ltmp179:
@ %bb.15:
	@DEBUG_VALUE: f_open:dj <- [DW_OP_plus_uconst 8, DW_OP_deref] $sp
	@DEBUG_VALUE: f_open:res <- $r7
	@DEBUG_VALUE: f_open:fs <- [DW_OP_plus_uconst 4, DW_OP_deref] $sp
	@DEBUG_VALUE: f_open:fp <- $r4
	.loc	2 0 28 is_stmt 0        @ ../User/FATFS/ff.c:0:28
	ands	r0, r0, #1
	.loc	2 3405 28               @ ../User/FATFS/ff.c:3405:28
	bne	.LBB3_17
	b	.LBB3_23
.Ltmp180:
.LBB3_16:
	@DEBUG_VALUE: f_open:dj <- [DW_OP_plus_uconst 8, DW_OP_deref] $sp
	@DEBUG_VALUE: f_open:res <- $r7
	@DEBUG_VALUE: f_open:fs <- [DW_OP_plus_uconst 4, DW_OP_deref] $sp
	@DEBUG_VALUE: f_open:fp <- $r4
	.loc	2 3346 16 is_stmt 1     @ ../User/FATFS/ff.c:3346:16
	ldrb.w	r0, [sp, #14]
.Ltmp181:
	.loc	2 3346 9 is_stmt 0      @ ../User/FATFS/ff.c:3346:9
	tst.w	r0, #17
	beq	.LBB3_18
.Ltmp182:
.LBB3_17:
	@DEBUG_VALUE: f_open:dj <- [DW_OP_plus_uconst 8, DW_OP_deref] $sp
	@DEBUG_VALUE: f_open:res <- $r7
	@DEBUG_VALUE: f_open:fs <- [DW_OP_plus_uconst 4, DW_OP_deref] $sp
	@DEBUG_VALUE: f_open:fp <- $r4
	.loc	2 0 9                   @ ../User/FATFS/ff.c:0:9
	movs	r7, #7
.Ltmp183:
	b	.LBB3_2
.Ltmp184:
.LBB3_18:
	@DEBUG_VALUE: f_open:dj <- [DW_OP_plus_uconst 8, DW_OP_deref] $sp
	@DEBUG_VALUE: f_open:res <- $r7
	@DEBUG_VALUE: f_open:fs <- [DW_OP_plus_uconst 4, DW_OP_deref] $sp
	@DEBUG_VALUE: f_open:fp <- $r4
	.loc	2 3349 10 is_stmt 1     @ ../User/FATFS/ff.c:3349:10
	lsls	r0, r6, #29
	bmi	.LBB3_31
.Ltmp185:
.LBB3_19:
	@DEBUG_VALUE: f_open:dj <- [DW_OP_plus_uconst 8, DW_OP_deref] $sp
	@DEBUG_VALUE: f_open:res <- $r7
	@DEBUG_VALUE: f_open:fs <- [DW_OP_plus_uconst 4, DW_OP_deref] $sp
	@DEBUG_VALUE: f_open:fp <- $r4
	@DEBUG_VALUE: f_open:mode <- $r6
	.loc	2 3352 8                @ ../User/FATFS/ff.c:3352:8
	lsls	r0, r6, #28
	bpl	.LBB3_23
.Ltmp186:
@ %bb.20:
	@DEBUG_VALUE: f_open:mode <- $r6
	@DEBUG_VALUE: f_open:dj <- [DW_OP_plus_uconst 8, DW_OP_deref] $sp
	@DEBUG_VALUE: f_open:res <- $r7
	@DEBUG_VALUE: f_open:fs <- [DW_OP_plus_uconst 4, DW_OP_deref] $sp
	@DEBUG_VALUE: f_open:fp <- $r4
	@DEBUG_VALUE: f_open:dw <- 1243676672
	.loc	2 3381 18               @ ../User/FATFS/ff.c:3381:18
	ldr	r7, [sp, #36]
.Ltmp187:
	@DEBUG_VALUE: st_dword:ptr <- [DW_OP_plus_uconst 29, DW_OP_stack_value] $r7
	@DEBUG_VALUE: st_dword:ptr <- [DW_OP_plus_uconst 30, DW_OP_stack_value] $r7
	@DEBUG_VALUE: st_dword:ptr <- [DW_OP_plus_uconst 31, DW_OP_stack_value] $r7
	@DEBUG_VALUE: st_dword:ptr <- [DW_OP_plus_uconst 31, DW_OP_plus_uconst 1, DW_OP_stack_value] $r7
	.loc	2 0 18 is_stmt 0        @ ../User/FATFS/ff.c:0:18
	ldr	r0, __arm_cp.3_0
.Ltmp188:
	@DEBUG_VALUE: st_dword:ptr <- undef
	@DEBUG_VALUE: st_dword:ptr <- [DW_OP_plus_uconst 22, DW_OP_stack_value] $r7
	@DEBUG_VALUE: st_dword:val <- 1243676672
	@DEBUG_VALUE: st_dword:ptr <- [DW_OP_plus_uconst 1, DW_OP_stack_value] undef
	@DEBUG_VALUE: st_dword:ptr <- undef
	@DEBUG_VALUE: st_dword:val <- 74
	.loc	2 663 9 is_stmt 1       @ ../User/FATFS/ff.c:663:9
	str.w	r0, [r7, #22]
.Ltmp189:
	@DEBUG_VALUE: st_dword:ptr <- [DW_OP_plus_uconst 14, DW_OP_stack_value] $r7
	@DEBUG_VALUE: st_dword:ptr <- undef
	@DEBUG_VALUE: st_dword:val <- 1243676672
	.loc	2 663 9 is_stmt 0       @ ../User/FATFS/ff.c:663:9
	str.w	r0, [r7, #14]
	movs	r0, #32
.Ltmp190:
	@DEBUG_VALUE: st_dword:ptr <- [DW_OP_plus_uconst 1, DW_OP_stack_value] undef
	@DEBUG_VALUE: st_dword:ptr <- undef
	@DEBUG_VALUE: st_dword:val <- 74
	.loc	2 3384 11 is_stmt 1     @ ../User/FATFS/ff.c:3384:11
	mov	r1, r7
	.loc	2 3383 23               @ ../User/FATFS/ff.c:3383:23
	strb	r0, [r7, #11]
	.loc	2 3384 11               @ ../User/FATFS/ff.c:3384:11
	mov	r0, r8
	bl	ld_clust
	mov	r5, r0
.Ltmp191:
	@DEBUG_VALUE: f_open:cl <- $r5
	.loc	2 0 11 is_stmt 0        @ ../User/FATFS/ff.c:0:11
	movs	r0, #0
.Ltmp192:
	@DEBUG_VALUE: st_word:ptr <- undef
	@DEBUG_VALUE: st_word:ptr <- [DW_OP_plus_uconst 1, DW_OP_stack_value] undef
	@DEBUG_VALUE: st_word:ptr <- [DW_OP_plus_uconst 26, DW_OP_stack_value] $r7
	@DEBUG_VALUE: st_word:val <- 0
	@DEBUG_VALUE: st_clust:cl <- 0
	@DEBUG_VALUE: st_clust:dir <- $r7
	.loc	2 656 9 is_stmt 1       @ ../User/FATFS/ff.c:656:9
	strh	r0, [r7, #26]
.Ltmp193:
	.loc	2 1657 10               @ ../User/FATFS/ff.c:1657:10
	ldrb.w	r1, [r8]
.Ltmp194:
	.loc	2 1657 6 is_stmt 0      @ ../User/FATFS/ff.c:1657:6
	cmp	r1, #3
.Ltmp195:
	@DEBUG_VALUE: st_word:ptr <- [DW_OP_plus_uconst 20, DW_OP_stack_value] $r7
	@DEBUG_VALUE: st_word:ptr <- [DW_OP_plus_uconst 1, DW_OP_stack_value] undef
	@DEBUG_VALUE: st_word:ptr <- undef
	.loc	2 656 9 is_stmt 1       @ ../User/FATFS/ff.c:656:9
	it	eq
	strheq	r0, [r7, #20]
.Ltmp196:
	@DEBUG_VALUE: st_dword:ptr <- [DW_OP_plus_uconst 28, DW_OP_stack_value] $r7
	@DEBUG_VALUE: st_dword:val <- 0
	.loc	2 664 9                 @ ../User/FATFS/ff.c:664:9
	str	r0, [r7, #28]
	movs	r0, #1
.Ltmp197:
	.loc	2 3389 10               @ ../User/FATFS/ff.c:3389:10
	cmp	r5, #0
	.loc	2 3387 16               @ ../User/FATFS/ff.c:3387:16
	strb.w	r0, [r8, #3]
	beq	.LBB3_23
.Ltmp198:
@ %bb.21:
	@DEBUG_VALUE: f_open:cl <- $r5
	@DEBUG_VALUE: f_open:mode <- $r6
	@DEBUG_VALUE: f_open:dj <- [DW_OP_plus_uconst 8, DW_OP_deref] $sp
	@DEBUG_VALUE: f_open:fs <- [DW_OP_plus_uconst 4, DW_OP_deref] $sp
	@DEBUG_VALUE: f_open:fp <- $r4
	.loc	2 3390 16               @ ../User/FATFS/ff.c:3390:16
	ldr.w	r9, [r8, #44]
.Ltmp199:
	@DEBUG_VALUE: f_open:dw <- $r9
	.loc	2 0 16 is_stmt 0        @ ../User/FATFS/ff.c:0:16
	add	r0, sp, #8
	.loc	2 3391 13 is_stmt 1     @ ../User/FATFS/ff.c:3391:13
	mov	r1, r5
	movs	r2, #0
	bl	remove_chain
	mov	r7, r0
.Ltmp200:
	@DEBUG_VALUE: f_open:res <- $r7
	.loc	2 3392 11               @ ../User/FATFS/ff.c:3392:11
	cmp	r0, #0
	bne	.LBB3_2
.Ltmp201:
@ %bb.22:
	@DEBUG_VALUE: f_open:dw <- $r9
	@DEBUG_VALUE: f_open:cl <- $r5
	@DEBUG_VALUE: f_open:mode <- $r6
	@DEBUG_VALUE: f_open:dj <- [DW_OP_plus_uconst 8, DW_OP_deref] $sp
	@DEBUG_VALUE: f_open:res <- $r7
	@DEBUG_VALUE: f_open:fs <- [DW_OP_plus_uconst 4, DW_OP_deref] $sp
	@DEBUG_VALUE: f_open:fp <- $r4
	.loc	2 3393 14               @ ../User/FATFS/ff.c:3393:14
	mov	r0, r8
	mov	r1, r9
	bl	move_window
	mov	r7, r0
.Ltmp202:
	@DEBUG_VALUE: f_open:res <- $r7
	.loc	2 3394 27               @ ../User/FATFS/ff.c:3394:27
	subs	r0, r5, #1
.Ltmp203:
	.loc	2 3411 7                @ ../User/FATFS/ff.c:3411:7
	cmp	r7, #0
.Ltmp204:
	.loc	2 3394 22               @ ../User/FATFS/ff.c:3394:22
	str.w	r0, [r8, #12]
	bne.w	.LBB3_2
.Ltmp205:
.LBB3_23:
	@DEBUG_VALUE: f_open:dj <- [DW_OP_plus_uconst 8, DW_OP_deref] $sp
	@DEBUG_VALUE: f_open:fs <- [DW_OP_plus_uconst 4, DW_OP_deref] $sp
	@DEBUG_VALUE: f_open:fp <- $r4
	.loc	2 3415 21               @ ../User/FATFS/ff.c:3415:21
	ldr	r7, [sp, #36]
	.loc	2 3414 23               @ ../User/FATFS/ff.c:3414:23
	ldr.w	r0, [r8, #44]
	.loc	2 3414 17 is_stmt 0     @ ../User/FATFS/ff.c:3414:17
	strd	r0, r7, [r4, #32]
.Ltmp206:
	.loc	2 3445 22 is_stmt 1     @ ../User/FATFS/ff.c:3445:22
	mov	r0, r8
	mov	r1, r7
	bl	ld_clust
	mov	r5, r0
.Ltmp207:
	@DEBUG_VALUE: f_open:clst <- $r5
	.loc	2 3445 20 is_stmt 0     @ ../User/FATFS/ff.c:3445:20
	str	r0, [r4, #8]
	.loc	2 3446 39 is_stmt 1     @ ../User/FATFS/ff.c:3446:39
	add.w	r0, r7, #28
	.loc	2 3446 23 is_stmt 0     @ ../User/FATFS/ff.c:3446:23
	bl	ld_dword
.Ltmp208:
	.loc	2 3451 15 is_stmt 1     @ ../User/FATFS/ff.c:3451:15
	str.w	r8, [r4]
.Ltmp209:
	.loc	2 3446 21               @ ../User/FATFS/ff.c:3446:21
	str	r0, [r4, #12]
.Ltmp210:
	.loc	2 3412 8                @ ../User/FATFS/ff.c:3412:8
	and	r1, r6, #8
.Ltmp211:
	.loc	2 3446 23               @ ../User/FATFS/ff.c:3446:23
	mov	r9, r0
.Ltmp212:
	@DEBUG_VALUE: f_open:ofs <- $r9
	@DEBUG_VALUE: f_open:fs <- [DW_OP_plus_uconst 4, DW_OP_deref] $sp
	.loc	2 0 23 is_stmt 0        @ ../User/FATFS/ff.c:0:23
	movs	r7, #0
.Ltmp213:
	.loc	2 3459 12 is_stmt 1     @ ../User/FATFS/ff.c:3459:12
	add.w	r10, r4, #40
.Ltmp214:
	@DEBUG_VALUE: mem_set:d <- $r10
	@DEBUG_VALUE: mem_set:dst <- $r10
	.loc	2 3452 21               @ ../User/FATFS/ff.c:3452:21
	ldrh.w	r0, [r8, #6]
.Ltmp215:
	.loc	2 3412 8                @ ../User/FATFS/ff.c:3412:8
	orr.w	r1, r6, r1, lsl #3
.Ltmp216:
	@DEBUG_VALUE: f_open:mode <- $r1
	.loc	2 3455 13               @ ../User/FATFS/ff.c:3455:13
	str	r7, [r4, #28]
	.loc	2 3456 13               @ ../User/FATFS/ff.c:3456:13
	str	r7, [r4, #20]
	.loc	2 3454 12               @ ../User/FATFS/ff.c:3454:12
	strb	r7, [r4, #17]
	.loc	2 3453 13               @ ../User/FATFS/ff.c:3453:13
	strb	r1, [r4, #16]
.Ltmp217:
	.loc	2 710 8                 @ ../User/FATFS/ff.c:710:8
	mov.w	r1, #512
.Ltmp218:
	.loc	2 3452 15               @ ../User/FATFS/ff.c:3452:15
	strh	r0, [r4, #4]
.Ltmp219:
	@DEBUG_VALUE: mem_set:cnt <- 512
	@DEBUG_VALUE: mem_set:val <- 0
	.loc	2 710 8                 @ ../User/FATFS/ff.c:710:8
	mov	r0, r10
	@DEBUG_VALUE: mem_set:cnt <- 512
	@DEBUG_VALUE: mem_set:val <- 0
	bl	__aeabi_memclr
.Ltmp220:
	.loc	2 3461 28               @ ../User/FATFS/ff.c:3461:28
	lsls	r0, r6, #26
.Ltmp221:
	@DEBUG_VALUE: mem_set:d <- undef
	@DEBUG_VALUE: mem_set:cnt <- undef
	bpl.w	.LBB3_4
.Ltmp222:
@ %bb.24:
	@DEBUG_VALUE: f_open:ofs <- $r9
	@DEBUG_VALUE: f_open:clst <- $r5
	@DEBUG_VALUE: f_open:dj <- [DW_OP_plus_uconst 8, DW_OP_deref] $sp
	@DEBUG_VALUE: f_open:fs <- [DW_OP_plus_uconst 4, DW_OP_deref] $sp
	@DEBUG_VALUE: f_open:fp <- $r4
	cmp.w	r9, #0
	beq.w	.LBB3_4
.Ltmp223:
@ %bb.25:
	@DEBUG_VALUE: f_open:ofs <- $r9
	@DEBUG_VALUE: f_open:clst <- $r5
	@DEBUG_VALUE: f_open:dj <- [DW_OP_plus_uconst 8, DW_OP_deref] $sp
	@DEBUG_VALUE: f_open:fs <- [DW_OP_plus_uconst 4, DW_OP_deref] $sp
	@DEBUG_VALUE: f_open:fp <- $r4
	.loc	2 3462 14               @ ../User/FATFS/ff.c:3462:14
	str.w	r9, [r4, #20]
	movs	r7, #0
	.loc	2 3463 22               @ ../User/FATFS/ff.c:3463:22
	ldrh.w	r0, [r8, #10]
	.loc	2 3463 28 is_stmt 0     @ ../User/FATFS/ff.c:3463:28
	lsls	r6, r0, #9
.Ltmp224:
	@DEBUG_VALUE: f_open:bcs <- $r6
	.loc	2 0 28                  @ ../User/FATFS/ff.c:0:28
	b	.LBB3_28
.Ltmp225:
.LBB3_26:                               @   in Loop: Header=BB3_28 Depth=1
	@DEBUG_VALUE: f_open:bcs <- $r6
	@DEBUG_VALUE: f_open:ofs <- $r9
	@DEBUG_VALUE: f_open:clst <- $r5
	@DEBUG_VALUE: f_open:dj <- [DW_OP_plus_uconst 8, DW_OP_deref] $sp
	@DEBUG_VALUE: f_open:res <- $r7
	@DEBUG_VALUE: f_open:fs <- [DW_OP_plus_uconst 4, DW_OP_deref] $sp
	@DEBUG_VALUE: f_open:fp <- $r4
	.loc	2 3465 5 is_stmt 1      @ ../User/FATFS/ff.c:3465:5
	cmp	r9, r6
	bls	.LBB3_32
.Ltmp226:
@ %bb.27:                               @   in Loop: Header=BB3_28 Depth=1
	@DEBUG_VALUE: f_open:bcs <- $r6
	@DEBUG_VALUE: f_open:ofs <- $r9
	@DEBUG_VALUE: f_open:clst <- $r5
	@DEBUG_VALUE: f_open:dj <- [DW_OP_plus_uconst 8, DW_OP_deref] $sp
	@DEBUG_VALUE: f_open:res <- $r7
	@DEBUG_VALUE: f_open:fs <- [DW_OP_plus_uconst 4, DW_OP_deref] $sp
	@DEBUG_VALUE: f_open:fp <- $r4
	.loc	2 3466 13               @ ../User/FATFS/ff.c:3466:13
	mov	r0, r4
	mov	r1, r5
	bl	get_fat
	mov	r5, r0
.Ltmp227:
	@DEBUG_VALUE: f_open:clst <- $r5
	.loc	2 3467 10               @ ../User/FATFS/ff.c:3467:10
	adds	r0, #1
.Ltmp228:
	.loc	2 3465 64               @ ../User/FATFS/ff.c:3465:64
	sub.w	r9, r9, r6
.Ltmp229:
	@DEBUG_VALUE: f_open:ofs <- $r9
	.loc	2 3467 10               @ ../User/FATFS/ff.c:3467:10
	clz	r0, r0
	cmp	r5, #2
	lsr.w	r7, r0, #5
.Ltmp230:
	.loc	2 0 10 is_stmt 0        @ ../User/FATFS/ff.c:0:10
	it	lo
	movlo	r7, #2
.Ltmp231:
.LBB3_28:                               @ =>This Inner Loop Header: Depth=1
	@DEBUG_VALUE: f_open:bcs <- $r6
	@DEBUG_VALUE: f_open:ofs <- $r9
	@DEBUG_VALUE: f_open:clst <- $r5
	@DEBUG_VALUE: f_open:dj <- [DW_OP_plus_uconst 8, DW_OP_deref] $sp
	@DEBUG_VALUE: f_open:fs <- [DW_OP_plus_uconst 4, DW_OP_deref] $sp
	@DEBUG_VALUE: f_open:fp <- $r4
	@DEBUG_VALUE: f_open:res <- $r7
	@DEBUG_VALUE: f_open:clst <- $r5
	@DEBUG_VALUE: f_open:ofs <- $r9
	.loc	2 3465 46 is_stmt 1     @ ../User/FATFS/ff.c:3465:46
	lsls	r0, r7, #24
	beq	.LBB3_26
.Ltmp232:
@ %bb.29:
	@DEBUG_VALUE: f_open:bcs <- $r6
	@DEBUG_VALUE: f_open:ofs <- $r9
	@DEBUG_VALUE: f_open:clst <- $r5
	@DEBUG_VALUE: f_open:dj <- [DW_OP_plus_uconst 8, DW_OP_deref] $sp
	@DEBUG_VALUE: f_open:res <- $r7
	@DEBUG_VALUE: f_open:fs <- [DW_OP_plus_uconst 4, DW_OP_deref] $sp
	@DEBUG_VALUE: f_open:fp <- $r4
	.loc	2 3470 15               @ ../User/FATFS/ff.c:3470:15
	str	r5, [r4, #24]
	b	.LBB3_2
.Ltmp233:
.LBB3_30:
	@DEBUG_VALUE: f_open:dj <- [DW_OP_plus_uconst 8, DW_OP_deref] $sp
	@DEBUG_VALUE: f_open:res <- $r7
	@DEBUG_VALUE: f_open:fs <- [DW_OP_plus_uconst 4, DW_OP_deref] $sp
	@DEBUG_VALUE: f_open:fp <- $r4
	.loc	2 0 15 is_stmt 0        @ ../User/FATFS/ff.c:0:15
	movs	r7, #4
.Ltmp234:
	b	.LBB3_2
.Ltmp235:
.LBB3_31:
	@DEBUG_VALUE: f_open:dj <- [DW_OP_plus_uconst 8, DW_OP_deref] $sp
	@DEBUG_VALUE: f_open:res <- $r7
	@DEBUG_VALUE: f_open:fs <- [DW_OP_plus_uconst 4, DW_OP_deref] $sp
	@DEBUG_VALUE: f_open:fp <- $r4
	movs	r7, #8
.Ltmp236:
	b	.LBB3_2
.Ltmp237:
.LBB3_32:
	@DEBUG_VALUE: f_open:bcs <- $r6
	@DEBUG_VALUE: f_open:ofs <- $r9
	@DEBUG_VALUE: f_open:clst <- $r5
	@DEBUG_VALUE: f_open:dj <- [DW_OP_plus_uconst 8, DW_OP_deref] $sp
	@DEBUG_VALUE: f_open:res <- $r7
	@DEBUG_VALUE: f_open:fs <- [DW_OP_plus_uconst 4, DW_OP_deref] $sp
	@DEBUG_VALUE: f_open:fp <- $r4
	.loc	2 3471 9 is_stmt 1      @ ../User/FATFS/ff.c:3471:9
	lsls.w	r0, r9, #23
	.loc	2 3470 15               @ ../User/FATFS/ff.c:3470:15
	str	r5, [r4, #24]
	.loc	2 3471 9                @ ../User/FATFS/ff.c:3471:9
	beq	.LBB3_35
.Ltmp238:
@ %bb.33:
	@DEBUG_VALUE: f_open:bcs <- $r6
	@DEBUG_VALUE: f_open:ofs <- $r9
	@DEBUG_VALUE: f_open:clst <- $r5
	@DEBUG_VALUE: f_open:dj <- [DW_OP_plus_uconst 8, DW_OP_deref] $sp
	@DEBUG_VALUE: f_open:res <- $r7
	@DEBUG_VALUE: f_open:fs <- [DW_OP_plus_uconst 4, DW_OP_deref] $sp
	@DEBUG_VALUE: f_open:fp <- $r4
	.loc	2 3472 16               @ ../User/FATFS/ff.c:3472:16
	mov	r0, r8
	mov	r1, r5
	bl	clust2sect
.Ltmp239:
	@DEBUG_VALUE: f_open:sc <- $r0
	.loc	2 3472 10 is_stmt 0     @ ../User/FATFS/ff.c:3472:10
	cbz	r0, .LBB3_36
.Ltmp240:
@ %bb.34:
	@DEBUG_VALUE: f_open:sc <- $r0
	@DEBUG_VALUE: f_open:bcs <- $r6
	@DEBUG_VALUE: f_open:ofs <- $r9
	@DEBUG_VALUE: f_open:clst <- $r5
	@DEBUG_VALUE: f_open:dj <- [DW_OP_plus_uconst 8, DW_OP_deref] $sp
	@DEBUG_VALUE: f_open:res <- $r7
	@DEBUG_VALUE: f_open:fs <- [DW_OP_plus_uconst 4, DW_OP_deref] $sp
	@DEBUG_VALUE: f_open:fp <- $r4
	.loc	2 3475 21 is_stmt 1     @ ../User/FATFS/ff.c:3475:21
	add.w	r2, r0, r9, lsr #9
.Ltmp241:
	.loc	2 3477 11               @ ../User/FATFS/ff.c:3477:11
	mov	r1, r10
	movs	r3, #1
	movs	r7, #1
.Ltmp242:
	.loc	2 3475 16               @ ../User/FATFS/ff.c:3475:16
	str	r2, [r4, #28]
.Ltmp243:
	.loc	2 3477 25               @ ../User/FATFS/ff.c:3477:25
	ldrb.w	r0, [r8, #1]
.Ltmp244:
	.loc	2 3477 11 is_stmt 0     @ ../User/FATFS/ff.c:3477:11
	bl	disk_read
.Ltmp245:
	.loc	2 3477 11               @ ../User/FATFS/ff.c:3477:11
	cmp	r0, #0
	bne.w	.LBB3_2
.Ltmp246:
.LBB3_35:
	@DEBUG_VALUE: f_open:bcs <- $r6
	@DEBUG_VALUE: f_open:ofs <- $r9
	@DEBUG_VALUE: f_open:clst <- $r5
	@DEBUG_VALUE: f_open:dj <- [DW_OP_plus_uconst 8, DW_OP_deref] $sp
	@DEBUG_VALUE: f_open:fs <- [DW_OP_plus_uconst 4, DW_OP_deref] $sp
	@DEBUG_VALUE: f_open:fp <- $r4
	.loc	2 0 11                  @ ../User/FATFS/ff.c:0:11
	movs	r7, #0
	b	.LBB3_4
.Ltmp247:
.LBB3_36:
	@DEBUG_VALUE: f_open:sc <- $r0
	@DEBUG_VALUE: f_open:bcs <- $r6
	@DEBUG_VALUE: f_open:ofs <- $r9
	@DEBUG_VALUE: f_open:clst <- $r5
	@DEBUG_VALUE: f_open:dj <- [DW_OP_plus_uconst 8, DW_OP_deref] $sp
	@DEBUG_VALUE: f_open:res <- $r7
	@DEBUG_VALUE: f_open:fs <- [DW_OP_plus_uconst 4, DW_OP_deref] $sp
	@DEBUG_VALUE: f_open:fp <- $r4
	movs	r7, #2
.Ltmp248:
	b	.LBB3_2
.Ltmp249:
	.p2align	2
@ %bb.37:
__arm_cp.3_0:
	.long	1243676672              @ 0x4a210000
.Lcpi_end4:
	.size	__arm_cp.3_0, .Lcpi_end4-__arm_cp.3_0
.Lfunc_end3:
	.size	f_open, .Lfunc_end3-f_open
	.cfi_endproc
	.cantunwind
	.fnend
                                        @ -- End function
	.section	.text.follow_path,"ax",%progbits
	.p2align	2               @ -- Begin function follow_path
	.type	follow_path,%function
	.code	16                      @ @follow_path
	.thumb_func
follow_path:
.Lfunc_begin4:
	.loc	2 2817 0 is_stmt 1      @ ../User/FATFS/ff.c:2817:0
	.fnstart
	.cfi_startproc
@ %bb.0:
	.save	{r4, r5, r6, r7, r8, r9, r10, r11, lr}
	.pad	#4
	push.w	{r3, r4, r5, r6, r7, r8, r9, r10, r11, lr}
	.cfi_def_cfa_offset 40
	.cfi_offset lr, -4
	.cfi_offset r11, -8
	.cfi_offset r10, -12
	.cfi_offset r9, -16
	.cfi_offset r8, -20
	.cfi_offset r7, -24
	.cfi_offset r6, -28
	.cfi_offset r5, -32
	.cfi_offset r4, -36
	@DEBUG_VALUE: follow_path:dp <- $r0
	@DEBUG_VALUE: follow_path:path <- $r1
.Ltmp250:
	@DEBUG_VALUE: follow_path:obj <- $r0
	@DEBUG_VALUE: create_name:dp <- $r0
	@DEBUG_VALUE: dir_find:dp <- $r0
	.loc	2 2821 19 prologue_end  @ ../User/FATFS/ff.c:2821:19
	ldr.w	r8, [r0]
.Ltmp251:
	@DEBUG_VALUE: follow_path:fs <- $r8
	.loc	2 0 19 is_stmt 0        @ ../User/FATFS/ff.c:0:19
	mov	r5, r1
	mov	r4, r0
.Ltmp252:
	@DEBUG_VALUE: dir_find:dp <- $r4
	@DEBUG_VALUE: create_name:dp <- $r4
	@DEBUG_VALUE: follow_path:obj <- $r4
	@DEBUG_VALUE: follow_path:path <- $r5
	@DEBUG_VALUE: follow_path:dp <- $r4
	b	.LBB4_2
.Ltmp253:
.LBB4_1:                                @   in Loop: Header=BB4_2 Depth=1
	@DEBUG_VALUE: follow_path:dp <- $r4
	@DEBUG_VALUE: follow_path:path <- $r5
	@DEBUG_VALUE: follow_path:obj <- $r4
	@DEBUG_VALUE: follow_path:fs <- $r8
	.loc	2 2830 45 is_stmt 1     @ ../User/FATFS/ff.c:2830:45
	adds	r5, #1
.Ltmp254:
	@DEBUG_VALUE: follow_path:path <- $r5
.LBB4_2:                                @ =>This Inner Loop Header: Depth=1
	@DEBUG_VALUE: follow_path:dp <- $r4
	@DEBUG_VALUE: follow_path:path <- $r5
	@DEBUG_VALUE: follow_path:obj <- $r4
	@DEBUG_VALUE: follow_path:fs <- $r8
	@DEBUG_VALUE: follow_path:path <- $r5
	.loc	2 2830 10 is_stmt 0     @ ../User/FATFS/ff.c:2830:10
	ldrb	r0, [r5]
	.loc	2 2830 23               @ ../User/FATFS/ff.c:2830:23
	cmp	r0, #92
	it	ne
	cmpne	r0, #47
	beq	.LBB4_1
.Ltmp255:
@ %bb.3:
	@DEBUG_VALUE: follow_path:dp <- $r4
	@DEBUG_VALUE: follow_path:path <- $r5
	@DEBUG_VALUE: follow_path:obj <- $r4
	@DEBUG_VALUE: follow_path:fs <- $r8
	.loc	2 0 23                  @ ../User/FATFS/ff.c:0:23
	movs	r0, #0
	.loc	2 2831 15 is_stmt 1     @ ../User/FATFS/ff.c:2831:15
	str	r0, [r4, #8]
.Ltmp256:
	.loc	2 2850 12               @ ../User/FATFS/ff.c:2850:12
	ldrb	r0, [r5]
.Ltmp257:
	.loc	2 2850 6 is_stmt 0      @ ../User/FATFS/ff.c:2850:6
	cmp	r0, #32
	bhs	.LBB4_5
.Ltmp258:
@ %bb.4:
	@DEBUG_VALUE: follow_path:dp <- $r4
	@DEBUG_VALUE: follow_path:path <- $r5
	@DEBUG_VALUE: follow_path:obj <- $r4
	@DEBUG_VALUE: follow_path:fs <- $r8
	.loc	2 0 6                   @ ../User/FATFS/ff.c:0:6
	movs	r0, #128
.Ltmp259:
	.loc	2 2851 18 is_stmt 1     @ ../User/FATFS/ff.c:2851:18
	strb.w	r0, [r4, #43]
	.loc	2 2852 9                @ ../User/FATFS/ff.c:2852:9
	mov	r0, r4
	pop.w	{r3, r4, r5, r6, r7, r8, r9, r10, r11, lr}
.Ltmp260:
	b	dir_sdi
.Ltmp261:
.LBB4_5:
	@DEBUG_VALUE: follow_path:dp <- $r4
	@DEBUG_VALUE: follow_path:path <- $r5
	@DEBUG_VALUE: follow_path:obj <- $r4
	@DEBUG_VALUE: follow_path:fs <- $r8
	.loc	2 0 9 is_stmt 0         @ ../User/FATFS/ff.c:0:9
	ldr.w	r11, __arm_cp.4_0
	ldr.w	r10, __arm_cp.4_1
.Ltmp262:
	@DEBUG_VALUE: create_name:sfn <- $r6
	add.w	r6, r4, #32
.Ltmp263:
	@DEBUG_VALUE: mem_set:dst <- $r6
	@DEBUG_VALUE: mem_set:d <- $r6
	mov.w	r0, #538976288
	b	.LBB4_21
.Ltmp264:
.LBB4_6:                                @   in Loop: Header=BB4_21 Depth=1
	@DEBUG_VALUE: create_name:si <- $r9
	@DEBUG_VALUE: create_name:i <- $r1
	@DEBUG_VALUE: create_name:ni <- $r2
	@DEBUG_VALUE: create_name:p <- $r5
	@DEBUG_VALUE: follow_path:dp <- $r4
	@DEBUG_VALUE: follow_path:path <- $r5
	@DEBUG_VALUE: follow_path:obj <- $r4
	@DEBUG_VALUE: follow_path:fs <- $r8
	.loc	2 2798 6 is_stmt 1      @ ../User/FATFS/ff.c:2798:6
	ldrb	r1, [r6]
.Ltmp265:
	.loc	2 2798 6 is_stmt 0      @ ../User/FATFS/ff.c:2798:6
	cmp	r1, #229
.Ltmp266:
	.loc	2 2798 29               @ ../User/FATFS/ff.c:2798:29
	itt	eq
	moveq	r1, #5
	strbeq	r1, [r6]
.Ltmp267:
	.loc	2 2799 14 is_stmt 1     @ ../User/FATFS/ff.c:2799:14
	strb.w	r0, [r4, #43]
.Ltmp268:
	@DEBUG_VALUE: follow_path:res <- 0
	.loc	2 2221 8                @ ../User/FATFS/ff.c:2221:8
	mov	r0, r4
	.loc	2 2215 22               @ ../User/FATFS/ff.c:2215:22
	ldr	r7, [r4]
.Ltmp269:
	@DEBUG_VALUE: dir_find:fs <- $r7
	.loc	2 2221 8                @ ../User/FATFS/ff.c:2221:8
	bl	dir_sdi
.Ltmp270:
	.loc	2 0 8 is_stmt 0         @ ../User/FATFS/ff.c:0:8
	b	.LBB4_8
.Ltmp271:
.LBB4_7:                                @   in Loop: Header=BB4_8 Depth=2
	@DEBUG_VALUE: dir_find:fs <- $r7
	@DEBUG_VALUE: follow_path:dp <- $r4
	@DEBUG_VALUE: follow_path:path <- $r5
	@DEBUG_VALUE: follow_path:obj <- $r4
	@DEBUG_VALUE: follow_path:fs <- $r8
	.loc	2 2277 9 is_stmt 1      @ ../User/FATFS/ff.c:2277:9
	mov	r0, r4
	movs	r1, #0
	bl	dir_next
.Ltmp272:
.LBB4_8:                                @   Parent Loop BB4_21 Depth=1
                                        @ =>  This Loop Header: Depth=2
                                        @       Child Loop BB4_13 Depth 3
	@DEBUG_VALUE: dir_find:fs <- $r7
	@DEBUG_VALUE: follow_path:dp <- $r4
	@DEBUG_VALUE: follow_path:path <- $r5
	@DEBUG_VALUE: follow_path:obj <- $r4
	@DEBUG_VALUE: follow_path:fs <- $r8
	@DEBUG_VALUE: dir_find:res <- $r0
	.loc	2 0 0 is_stmt 0         @ ../User/FATFS/ff.c:0:0
	cbnz	r0, .LBB4_17
.Ltmp273:
@ %bb.9:                                @   in Loop: Header=BB4_8 Depth=2
	@DEBUG_VALUE: dir_find:res <- $r0
	@DEBUG_VALUE: dir_find:fs <- $r7
	@DEBUG_VALUE: follow_path:dp <- $r4
	@DEBUG_VALUE: follow_path:path <- $r5
	@DEBUG_VALUE: follow_path:obj <- $r4
	@DEBUG_VALUE: follow_path:fs <- $r8
	.loc	2 2248 29 is_stmt 1     @ ../User/FATFS/ff.c:2248:29
	ldr	r1, [r4, #24]
	.loc	2 2248 9 is_stmt 0      @ ../User/FATFS/ff.c:2248:9
	mov	r0, r7
.Ltmp274:
	bl	move_window
.Ltmp275:
	@DEBUG_VALUE: dir_find:res <- $r0
	.loc	2 2249 7 is_stmt 1      @ ../User/FATFS/ff.c:2249:7
	cbnz	r0, .LBB4_17
.Ltmp276:
@ %bb.10:                               @   in Loop: Header=BB4_8 Depth=2
	@DEBUG_VALUE: dir_find:res <- $r0
	@DEBUG_VALUE: dir_find:fs <- $r7
	@DEBUG_VALUE: follow_path:dp <- $r4
	@DEBUG_VALUE: follow_path:path <- $r5
	@DEBUG_VALUE: follow_path:obj <- $r4
	@DEBUG_VALUE: follow_path:fs <- $r8
	.loc	2 2250 11               @ ../User/FATFS/ff.c:2250:11
	ldr	r0, [r4, #28]
.Ltmp277:
	.loc	2 2250 7 is_stmt 0      @ ../User/FATFS/ff.c:2250:7
	ldrb	r1, [r0]
.Ltmp278:
	@DEBUG_VALUE: dir_find:c <- $r1
	.loc	2 2251 7 is_stmt 1      @ ../User/FATFS/ff.c:2251:7
	cmp	r1, #0
	beq	.LBB4_41
.Ltmp279:
@ %bb.11:                               @   in Loop: Header=BB4_8 Depth=2
	@DEBUG_VALUE: dir_find:c <- $r1
	@DEBUG_VALUE: dir_find:fs <- $r7
	@DEBUG_VALUE: follow_path:dp <- $r4
	@DEBUG_VALUE: follow_path:path <- $r5
	@DEBUG_VALUE: follow_path:obj <- $r4
	@DEBUG_VALUE: follow_path:fs <- $r8
	.loc	2 2274 18               @ ../User/FATFS/ff.c:2274:18
	ldrb	r1, [r0, #11]
.Ltmp280:
	.loc	2 2274 36 is_stmt 0     @ ../User/FATFS/ff.c:2274:36
	and	r1, r1, #63
	.loc	2 2274 16               @ ../User/FATFS/ff.c:2274:16
	strb	r1, [r4, #6]
.Ltmp281:
	.loc	2 2275 9 is_stmt 1      @ ../User/FATFS/ff.c:2275:9
	ldrb	r1, [r0, #11]
	.loc	2 2275 37 is_stmt 0     @ ../User/FATFS/ff.c:2275:37
	lsls	r1, r1, #28
	bmi	.LBB4_7
.Ltmp282:
@ %bb.12:                               @   in Loop: Header=BB4_8 Depth=2
	@DEBUG_VALUE: dir_find:fs <- $r7
	@DEBUG_VALUE: follow_path:dp <- $r4
	@DEBUG_VALUE: follow_path:path <- $r5
	@DEBUG_VALUE: follow_path:obj <- $r4
	@DEBUG_VALUE: follow_path:fs <- $r8
	.loc	2 0 37                  @ ../User/FATFS/ff.c:0:37
	movs	r1, #0
.Ltmp283:
.LBB4_13:                               @   Parent Loop BB4_21 Depth=1
                                        @     Parent Loop BB4_8 Depth=2
                                        @ =>    This Inner Loop Header: Depth=3
	@DEBUG_VALUE: dir_find:fs <- $r7
	@DEBUG_VALUE: follow_path:dp <- $r4
	@DEBUG_VALUE: follow_path:path <- $r5
	@DEBUG_VALUE: follow_path:obj <- $r4
	@DEBUG_VALUE: follow_path:fs <- $r8
	@DEBUG_VALUE: mem_cmp:s <- undef
	@DEBUG_VALUE: mem_cmp:d <- undef
	@DEBUG_VALUE: mem_cmp:cnt <- undef
	@DEBUG_VALUE: mem_cmp:d <- [DW_OP_plus_uconst 1, DW_OP_stack_value] undef
	@DEBUG_VALUE: mem_cmp:s <- [DW_OP_plus_uconst 1, DW_OP_stack_value] undef
	.loc	2 721 14 is_stmt 1      @ ../User/FATFS/ff.c:721:14
	ldrb	r2, [r6, r1]
	.loc	2 721 7 is_stmt 0       @ ../User/FATFS/ff.c:721:7
	ldrb	r3, [r0, r1]
.Ltmp284:
	@DEBUG_VALUE: mem_cmp:cnt <- [DW_OP_constu 1, DW_OP_minus, DW_OP_stack_value] undef
	.loc	2 722 2 is_stmt 1       @ ../User/FATFS/ff.c:722:2
	cmp	r1, #10
	beq	.LBB4_15
.Ltmp285:
@ %bb.14:                               @   in Loop: Header=BB4_13 Depth=3
	@DEBUG_VALUE: dir_find:fs <- $r7
	@DEBUG_VALUE: follow_path:dp <- $r4
	@DEBUG_VALUE: follow_path:path <- $r5
	@DEBUG_VALUE: follow_path:obj <- $r4
	@DEBUG_VALUE: follow_path:fs <- $r8
	adds	r1, #1
	cmp	r3, r2
	beq	.LBB4_13
.Ltmp286:
.LBB4_15:                               @   in Loop: Header=BB4_8 Depth=2
	@DEBUG_VALUE: dir_find:fs <- $r7
	@DEBUG_VALUE: follow_path:dp <- $r4
	@DEBUG_VALUE: follow_path:path <- $r5
	@DEBUG_VALUE: follow_path:obj <- $r4
	@DEBUG_VALUE: follow_path:fs <- $r8
	.loc	2 2275 7                @ ../User/FATFS/ff.c:2275:7
	cmp	r3, r2
	bne	.LBB4_7
.Ltmp287:
@ %bb.16:                               @   in Loop: Header=BB4_21 Depth=1
	@DEBUG_VALUE: follow_path:dp <- $r4
	@DEBUG_VALUE: follow_path:path <- $r5
	@DEBUG_VALUE: follow_path:obj <- $r4
	@DEBUG_VALUE: follow_path:fs <- $r8
	.loc	2 2859 9                @ ../User/FATFS/ff.c:2859:9
	ldrb.w	r1, [r4, #43]
	b	.LBB4_18
.Ltmp288:
.LBB4_17:                               @   in Loop: Header=BB4_21 Depth=1
	@DEBUG_VALUE: follow_path:dp <- $r4
	@DEBUG_VALUE: follow_path:path <- $r5
	@DEBUG_VALUE: follow_path:obj <- $r4
	@DEBUG_VALUE: follow_path:fs <- $r8
	@DEBUG_VALUE: follow_path:res <- $r0
	ldrb.w	r1, [r4, #43]
.Ltmp289:
	@DEBUG_VALUE: follow_path:ns <- undef
	.loc	2 2860 8                @ ../User/FATFS/ff.c:2860:8
	cmp	r0, #0
	bne	.LBB4_43
.Ltmp290:
.LBB4_18:                               @   in Loop: Header=BB4_21 Depth=1
	@DEBUG_VALUE: follow_path:dp <- $r4
	@DEBUG_VALUE: follow_path:path <- $r5
	@DEBUG_VALUE: follow_path:obj <- $r4
	@DEBUG_VALUE: follow_path:fs <- $r8
	.loc	2 2872 8                @ ../User/FATFS/ff.c:2872:8
	lsls	r0, r1, #29
	bmi	.LBB4_44
.Ltmp291:
@ %bb.19:                               @   in Loop: Header=BB4_21 Depth=1
	@DEBUG_VALUE: follow_path:dp <- $r4
	@DEBUG_VALUE: follow_path:path <- $r5
	@DEBUG_VALUE: follow_path:obj <- $r4
	@DEBUG_VALUE: follow_path:fs <- $r8
	.loc	2 2874 15               @ ../User/FATFS/ff.c:2874:15
	ldrb	r0, [r4, #6]
.Ltmp292:
	.loc	2 2874 8 is_stmt 0      @ ../User/FATFS/ff.c:2874:8
	lsls	r0, r0, #27
	bpl	.LBB4_45
.Ltmp293:
@ %bb.20:                               @   in Loop: Header=BB4_21 Depth=1
	@DEBUG_VALUE: follow_path:dp <- $r4
	@DEBUG_VALUE: follow_path:path <- $r5
	@DEBUG_VALUE: follow_path:obj <- $r4
	@DEBUG_VALUE: follow_path:fs <- $r8
	.loc	2 2888 46 is_stmt 1     @ ../User/FATFS/ff.c:2888:46
	ldr	r0, [r4, #16]
.Ltmp294:
	.loc	2 0 0 is_stmt 0         @ ../User/FATFS/ff.c:0:0
	add	r5, r9
.Ltmp295:
	.loc	2 2888 51               @ ../User/FATFS/ff.c:2888:51
	bfc	r0, #9, #23
	.loc	2 2888 40               @ ../User/FATFS/ff.c:2888:40
	add	r0, r8
	add.w	r1, r0, #48
	.loc	2 2888 19               @ ../User/FATFS/ff.c:2888:19
	mov	r0, r8
	bl	ld_clust
	.loc	2 2888 17               @ ../User/FATFS/ff.c:2888:17
	str	r0, [r4, #8]
	mov.w	r0, #538976288
.Ltmp296:
.LBB4_21:                               @ =>This Loop Header: Depth=1
                                        @     Child Loop BB4_22 Depth 2
                                        @       Child Loop BB4_28 Depth 3
                                        @     Child Loop BB4_35 Depth 2
                                        @     Child Loop BB4_8 Depth 2
                                        @       Child Loop BB4_13 Depth 3
	@DEBUG_VALUE: mem_set:d <- $r6
	@DEBUG_VALUE: mem_set:dst <- $r6
	@DEBUG_VALUE: follow_path:dp <- $r4
	@DEBUG_VALUE: follow_path:path <- $r5
	@DEBUG_VALUE: follow_path:obj <- $r4
	@DEBUG_VALUE: follow_path:fs <- $r8
	@DEBUG_VALUE: create_name:p <- $r5
	@DEBUG_VALUE: mem_set:val <- 32
	@DEBUG_VALUE: mem_set:cnt <- 11
	.loc	2 0 17                  @ ../User/FATFS/ff.c:0:17
	mov.w	r9, #0
	movs	r2, #8
.Ltmp297:
	@DEBUG_VALUE: create_name:ni <- 8
	@DEBUG_VALUE: create_name:si <- 0
	@DEBUG_VALUE: create_name:i <- 0
	@DEBUG_VALUE: mem_set:cnt <- undef
	@DEBUG_VALUE: mem_set:d <- undef
	movs	r1, #0
.Ltmp298:
	@DEBUG_VALUE: create_name:ni <- $r2
	.loc	2 710 8 is_stmt 1       @ ../User/FATFS/ff.c:710:8
	str.w	r0, [r6, #7]
	str	r0, [r6, #4]
	str	r0, [r6]
.Ltmp299:
.LBB4_22:                               @   Parent Loop BB4_21 Depth=1
                                        @ =>  This Loop Header: Depth=2
                                        @       Child Loop BB4_28 Depth 3
	@DEBUG_VALUE: create_name:ni <- $r2
	@DEBUG_VALUE: create_name:p <- $r5
	@DEBUG_VALUE: follow_path:dp <- $r4
	@DEBUG_VALUE: follow_path:path <- $r5
	@DEBUG_VALUE: follow_path:obj <- $r4
	@DEBUG_VALUE: follow_path:fs <- $r8
	@DEBUG_VALUE: create_name:i <- $r1
	@DEBUG_VALUE: create_name:si <- $r9
	.loc	2 2764 13               @ ../User/FATFS/ff.c:2764:13
	ldrb.w	r3, [r5, r9]
	.loc	2 2764 17 is_stmt 0     @ ../User/FATFS/ff.c:2764:17
	add.w	r9, r9, #1
.Ltmp300:
	@DEBUG_VALUE: create_name:c <- undef
	@DEBUG_VALUE: create_name:si <- $r9
	.loc	2 2765 7 is_stmt 1      @ ../User/FATFS/ff.c:2765:7
	cmp	r3, #33
	blo	.LBB4_37
.Ltmp301:
@ %bb.23:                               @   in Loop: Header=BB4_22 Depth=2
	@DEBUG_VALUE: create_name:si <- $r9
	@DEBUG_VALUE: create_name:i <- $r1
	@DEBUG_VALUE: create_name:ni <- $r2
	@DEBUG_VALUE: create_name:p <- $r5
	@DEBUG_VALUE: follow_path:dp <- $r4
	@DEBUG_VALUE: follow_path:path <- $r5
	@DEBUG_VALUE: follow_path:obj <- $r4
	@DEBUG_VALUE: follow_path:fs <- $r8
	.loc	2 2766 16               @ ../User/FATFS/ff.c:2766:16
	cmp	r3, #46
	beq	.LBB4_32
.Ltmp302:
@ %bb.24:                               @   in Loop: Header=BB4_22 Depth=2
	@DEBUG_VALUE: create_name:si <- $r9
	@DEBUG_VALUE: create_name:i <- $r1
	@DEBUG_VALUE: create_name:ni <- $r2
	@DEBUG_VALUE: create_name:p <- $r5
	@DEBUG_VALUE: follow_path:dp <- $r4
	@DEBUG_VALUE: follow_path:path <- $r5
	@DEBUG_VALUE: follow_path:obj <- $r4
	@DEBUG_VALUE: follow_path:fs <- $r8
	cmp	r3, #92
	beq	.LBB4_35
.Ltmp303:
@ %bb.25:                               @   in Loop: Header=BB4_22 Depth=2
	@DEBUG_VALUE: create_name:si <- $r9
	@DEBUG_VALUE: create_name:i <- $r1
	@DEBUG_VALUE: create_name:ni <- $r2
	@DEBUG_VALUE: create_name:p <- $r5
	@DEBUG_VALUE: follow_path:dp <- $r4
	@DEBUG_VALUE: follow_path:path <- $r5
	@DEBUG_VALUE: follow_path:obj <- $r4
	@DEBUG_VALUE: follow_path:fs <- $r8
	cmp	r3, #47
	beq	.LBB4_35
.Ltmp304:
@ %bb.26:                               @   in Loop: Header=BB4_22 Depth=2
	@DEBUG_VALUE: create_name:si <- $r9
	@DEBUG_VALUE: create_name:i <- $r1
	@DEBUG_VALUE: create_name:ni <- $r2
	@DEBUG_VALUE: create_name:p <- $r5
	@DEBUG_VALUE: follow_path:dp <- $r4
	@DEBUG_VALUE: follow_path:path <- $r5
	@DEBUG_VALUE: follow_path:obj <- $r4
	@DEBUG_VALUE: follow_path:fs <- $r8
	.loc	2 2770 7                @ ../User/FATFS/ff.c:2770:7
	cmp	r1, r2
	bhs	.LBB4_32
.Ltmp305:
@ %bb.27:                               @   in Loop: Header=BB4_22 Depth=2
	@DEBUG_VALUE: create_name:si <- $r9
	@DEBUG_VALUE: create_name:i <- $r1
	@DEBUG_VALUE: create_name:ni <- $r2
	@DEBUG_VALUE: create_name:p <- $r5
	@DEBUG_VALUE: follow_path:dp <- $r4
	@DEBUG_VALUE: follow_path:path <- $r5
	@DEBUG_VALUE: follow_path:obj <- $r4
	@DEBUG_VALUE: follow_path:fs <- $r8
	.loc	2 2775 9                @ ../User/FATFS/ff.c:2775:9
	sxtb	r0, r3
.Ltmp306:
	.loc	2 2775 7 is_stmt 0      @ ../User/FATFS/ff.c:2775:7
	cmp.w	r0, #-1
.Ltmp307:
	.loc	2 2777 8 is_stmt 1      @ ../User/FATFS/ff.c:2777:8
	itt	le
	addle.w	r0, r11, r3
	ldrble	r3, [r0, #-128]
	@DEBUG_VALUE: create_name:c <- undef
.Ltmp308:
	@DEBUG_VALUE: create_name:c <- $r3
	@DEBUG_VALUE: chk_chr:str <- $r10
	.loc	2 0 8 is_stmt 0         @ ../User/FATFS/ff.c:0:8
	mov	r0, r10
.Ltmp309:
.LBB4_28:                               @   Parent Loop BB4_21 Depth=1
                                        @     Parent Loop BB4_22 Depth=2
                                        @ =>    This Inner Loop Header: Depth=3
	@DEBUG_VALUE: chk_chr:str <- $r10
	@DEBUG_VALUE: create_name:c <- $r3
	@DEBUG_VALUE: create_name:si <- $r9
	@DEBUG_VALUE: create_name:i <- $r1
	@DEBUG_VALUE: create_name:ni <- $r2
	@DEBUG_VALUE: create_name:p <- $r5
	@DEBUG_VALUE: follow_path:dp <- $r4
	@DEBUG_VALUE: follow_path:path <- $r5
	@DEBUG_VALUE: follow_path:obj <- $r4
	@DEBUG_VALUE: follow_path:fs <- $r8
	@DEBUG_VALUE: chk_chr:str <- $r0
	.loc	2 730 9 is_stmt 1       @ ../User/FATFS/ff.c:730:9
	ldrb	r7, [r0], #1
.Ltmp310:
	@DEBUG_VALUE: chk_chr:str <- $r0
	.loc	2 730 14 is_stmt 0      @ ../User/FATFS/ff.c:730:14
	cbz	r7, .LBB4_30
.Ltmp311:
@ %bb.29:                               @   in Loop: Header=BB4_28 Depth=3
	@DEBUG_VALUE: chk_chr:str <- $r0
	@DEBUG_VALUE: create_name:c <- $r3
	@DEBUG_VALUE: create_name:si <- $r9
	@DEBUG_VALUE: create_name:i <- $r1
	@DEBUG_VALUE: create_name:ni <- $r2
	@DEBUG_VALUE: create_name:p <- $r5
	@DEBUG_VALUE: follow_path:dp <- $r4
	@DEBUG_VALUE: follow_path:path <- $r5
	@DEBUG_VALUE: follow_path:obj <- $r4
	@DEBUG_VALUE: follow_path:fs <- $r8
	cmp	r7, r3
	bne	.LBB4_28
.Ltmp312:
.LBB4_30:                               @   in Loop: Header=BB4_22 Depth=2
	@DEBUG_VALUE: create_name:c <- $r3
	@DEBUG_VALUE: create_name:si <- $r9
	@DEBUG_VALUE: create_name:i <- $r1
	@DEBUG_VALUE: create_name:ni <- $r2
	@DEBUG_VALUE: create_name:p <- $r5
	@DEBUG_VALUE: follow_path:dp <- $r4
	@DEBUG_VALUE: follow_path:path <- $r5
	@DEBUG_VALUE: follow_path:obj <- $r4
	@DEBUG_VALUE: follow_path:fs <- $r8
	.loc	2 2790 8 is_stmt 1      @ ../User/FATFS/ff.c:2790:8
	cbnz	r7, .LBB4_39
.Ltmp313:
@ %bb.31:                               @   in Loop: Header=BB4_22 Depth=2
	@DEBUG_VALUE: create_name:c <- $r3
	@DEBUG_VALUE: create_name:si <- $r9
	@DEBUG_VALUE: create_name:i <- $r1
	@DEBUG_VALUE: create_name:ni <- $r2
	@DEBUG_VALUE: create_name:p <- $r5
	@DEBUG_VALUE: follow_path:dp <- $r4
	@DEBUG_VALUE: follow_path:path <- $r5
	@DEBUG_VALUE: follow_path:obj <- $r4
	@DEBUG_VALUE: follow_path:fs <- $r8
	.loc	2 2791 8                @ ../User/FATFS/ff.c:2791:8
	sub.w	r0, r3, #97
	uxtb	r0, r0
	cmp	r0, #26
.Ltmp314:
	.loc	2 2792 4                @ ../User/FATFS/ff.c:2792:4
	add.w	r0, r4, r1
.Ltmp315:
	.loc	2 2791 8                @ ../User/FATFS/ff.c:2791:8
	it	lo
	sublo	r3, #32
.Ltmp316:
	@DEBUG_VALUE: create_name:c <- $r3
	.loc	2 2792 9                @ ../User/FATFS/ff.c:2792:9
	adds	r1, #1
.Ltmp317:
	@DEBUG_VALUE: create_name:i <- $r1
	.loc	2 2792 13 is_stmt 0     @ ../User/FATFS/ff.c:2792:13
	strb.w	r3, [r0, #32]
	b	.LBB4_22
.Ltmp318:
.LBB4_32:                               @   in Loop: Header=BB4_22 Depth=2
	@DEBUG_VALUE: create_name:si <- $r9
	@DEBUG_VALUE: create_name:i <- $r1
	@DEBUG_VALUE: create_name:ni <- $r2
	@DEBUG_VALUE: create_name:p <- $r5
	@DEBUG_VALUE: follow_path:dp <- $r4
	@DEBUG_VALUE: follow_path:path <- $r5
	@DEBUG_VALUE: follow_path:obj <- $r4
	@DEBUG_VALUE: follow_path:fs <- $r8
	.loc	2 0 13                  @ ../User/FATFS/ff.c:0:13
	movs	r0, #6
.Ltmp319:
	.loc	2 2771 17 is_stmt 1     @ ../User/FATFS/ff.c:2771:17
	cmp	r2, #11
	beq	.LBB4_40
.Ltmp320:
@ %bb.33:                               @   in Loop: Header=BB4_22 Depth=2
	@DEBUG_VALUE: create_name:si <- $r9
	@DEBUG_VALUE: create_name:i <- $r1
	@DEBUG_VALUE: create_name:ni <- $r2
	@DEBUG_VALUE: create_name:p <- $r5
	@DEBUG_VALUE: follow_path:dp <- $r4
	@DEBUG_VALUE: follow_path:path <- $r5
	@DEBUG_VALUE: follow_path:obj <- $r4
	@DEBUG_VALUE: follow_path:fs <- $r8
	.loc	2 0 17 is_stmt 0        @ ../User/FATFS/ff.c:0:17
	movs	r1, #8
.Ltmp321:
	movs	r2, #11
.Ltmp322:
	.loc	2 2771 17               @ ../User/FATFS/ff.c:2771:17
	cmp	r3, #46
	beq	.LBB4_22
	b	.LBB4_40
.Ltmp323:
.LBB4_34:                               @   in Loop: Header=BB4_35 Depth=2
	@DEBUG_VALUE: create_name:si <- $r9
	@DEBUG_VALUE: create_name:i <- $r1
	@DEBUG_VALUE: create_name:ni <- $r2
	@DEBUG_VALUE: create_name:p <- $r5
	@DEBUG_VALUE: follow_path:dp <- $r4
	@DEBUG_VALUE: follow_path:path <- $r5
	@DEBUG_VALUE: follow_path:obj <- $r4
	@DEBUG_VALUE: follow_path:fs <- $r8
	.loc	2 2767 44 is_stmt 1     @ ../User/FATFS/ff.c:2767:44
	add.w	r9, r9, #1
.Ltmp324:
	@DEBUG_VALUE: create_name:si <- $r9
.LBB4_35:                               @   Parent Loop BB4_21 Depth=1
                                        @ =>  This Inner Loop Header: Depth=2
	@DEBUG_VALUE: create_name:si <- $r9
	@DEBUG_VALUE: create_name:i <- $r1
	@DEBUG_VALUE: create_name:ni <- $r2
	@DEBUG_VALUE: create_name:p <- $r5
	@DEBUG_VALUE: follow_path:dp <- $r4
	@DEBUG_VALUE: follow_path:path <- $r5
	@DEBUG_VALUE: follow_path:obj <- $r4
	@DEBUG_VALUE: follow_path:fs <- $r8
	@DEBUG_VALUE: create_name:si <- $r9
	.loc	2 2767 11 is_stmt 0     @ ../User/FATFS/ff.c:2767:11
	ldrb.w	r0, [r5, r9]
	.loc	2 2767 24               @ ../User/FATFS/ff.c:2767:24
	cmp	r0, #92
	it	ne
	cmpne	r0, #47
	beq	.LBB4_34
.Ltmp325:
@ %bb.36:                               @   in Loop: Header=BB4_21 Depth=1
	@DEBUG_VALUE: create_name:si <- $r9
	@DEBUG_VALUE: create_name:i <- $r1
	@DEBUG_VALUE: create_name:ni <- $r2
	@DEBUG_VALUE: create_name:p <- $r5
	@DEBUG_VALUE: follow_path:dp <- $r4
	@DEBUG_VALUE: follow_path:path <- $r5
	@DEBUG_VALUE: follow_path:obj <- $r4
	@DEBUG_VALUE: follow_path:fs <- $r8
	.loc	2 0 24                  @ ../User/FATFS/ff.c:0:24
	movs	r0, #0
	b	.LBB4_38
.Ltmp326:
.LBB4_37:                               @   in Loop: Header=BB4_21 Depth=1
	@DEBUG_VALUE: create_name:si <- $r9
	@DEBUG_VALUE: create_name:i <- $r1
	@DEBUG_VALUE: create_name:ni <- $r2
	@DEBUG_VALUE: create_name:p <- $r5
	@DEBUG_VALUE: follow_path:dp <- $r4
	@DEBUG_VALUE: follow_path:path <- $r5
	@DEBUG_VALUE: follow_path:obj <- $r4
	@DEBUG_VALUE: follow_path:fs <- $r8
	movs	r0, #4
.Ltmp327:
.LBB4_38:                               @   in Loop: Header=BB4_21 Depth=1
	@DEBUG_VALUE: create_name:si <- $r9
	@DEBUG_VALUE: create_name:i <- $r1
	@DEBUG_VALUE: create_name:ni <- $r2
	@DEBUG_VALUE: create_name:p <- $r5
	@DEBUG_VALUE: follow_path:dp <- $r4
	@DEBUG_VALUE: follow_path:path <- $r5
	@DEBUG_VALUE: follow_path:obj <- $r4
	@DEBUG_VALUE: follow_path:fs <- $r8
	@DEBUG_VALUE: create_name:si <- $r9
	.loc	2 2796 6 is_stmt 1      @ ../User/FATFS/ff.c:2796:6
	cmp	r1, #0
	bne.w	.LBB4_6
.Ltmp328:
.LBB4_39:
	@DEBUG_VALUE: create_name:si <- $r9
	@DEBUG_VALUE: create_name:i <- $r1
	@DEBUG_VALUE: create_name:ni <- $r2
	@DEBUG_VALUE: create_name:p <- $r5
	@DEBUG_VALUE: follow_path:dp <- $r4
	@DEBUG_VALUE: follow_path:path <- $r5
	@DEBUG_VALUE: follow_path:obj <- $r4
	@DEBUG_VALUE: follow_path:fs <- $r8
	.loc	2 0 6 is_stmt 0         @ ../User/FATFS/ff.c:0:6
	movs	r0, #6
.Ltmp329:
.LBB4_40:
	@DEBUG_VALUE: follow_path:dp <- $r4
	@DEBUG_VALUE: follow_path:path <- $r5
	@DEBUG_VALUE: follow_path:obj <- $r4
	@DEBUG_VALUE: follow_path:fs <- $r8
	@DEBUG_VALUE: follow_path:res <- $r0
	add	sp, #4
	pop.w	{r4, r5, r6, r7, r8, r9, r10, r11, pc}
.Ltmp330:
.LBB4_41:
	@DEBUG_VALUE: follow_path:dp <- $r4
	@DEBUG_VALUE: follow_path:path <- $r5
	@DEBUG_VALUE: follow_path:obj <- $r4
	@DEBUG_VALUE: follow_path:fs <- $r8
	.loc	2 2859 9 is_stmt 1      @ ../User/FATFS/ff.c:2859:9
	ldrb.w	r1, [r4, #43]
.Ltmp331:
.LBB4_42:
	@DEBUG_VALUE: follow_path:dp <- $r4
	@DEBUG_VALUE: follow_path:path <- $r5
	@DEBUG_VALUE: follow_path:obj <- $r4
	@DEBUG_VALUE: follow_path:fs <- $r8
	.loc	2 2867 11               @ ../User/FATFS/ff.c:2867:11
	lsls	r0, r1, #29
	mov.w	r0, #4
	it	pl
	movpl	r0, #5
	b	.LBB4_40
.Ltmp332:
.LBB4_43:
	@DEBUG_VALUE: follow_path:res <- $r0
	@DEBUG_VALUE: follow_path:dp <- $r4
	@DEBUG_VALUE: follow_path:path <- $r5
	@DEBUG_VALUE: follow_path:obj <- $r4
	@DEBUG_VALUE: follow_path:fs <- $r8
	.loc	2 2860 8                @ ../User/FATFS/ff.c:2860:8
	cmp	r0, #4
	bne	.LBB4_40
	b	.LBB4_42
.Ltmp333:
.LBB4_44:
	@DEBUG_VALUE: follow_path:dp <- $r4
	@DEBUG_VALUE: follow_path:path <- $r5
	@DEBUG_VALUE: follow_path:obj <- $r4
	@DEBUG_VALUE: follow_path:fs <- $r8
	.loc	2 0 8 is_stmt 0         @ ../User/FATFS/ff.c:0:8
	movs	r0, #0
	b	.LBB4_40
.Ltmp334:
.LBB4_45:
	@DEBUG_VALUE: follow_path:dp <- $r4
	@DEBUG_VALUE: follow_path:path <- $r5
	@DEBUG_VALUE: follow_path:obj <- $r4
	@DEBUG_VALUE: follow_path:fs <- $r8
	movs	r0, #5
	b	.LBB4_40
.Ltmp335:
	.p2align	2
@ %bb.46:
__arm_cp.4_0:
	.long	ExCvt
.Lcpi_end5:
	.size	__arm_cp.4_0, .Lcpi_end5-__arm_cp.4_0
__arm_cp.4_1:
	.long	.L.str.3
.Lcpi_end6:
	.size	__arm_cp.4_1, .Lcpi_end6-__arm_cp.4_1
.Lfunc_end4:
	.size	follow_path, .Lfunc_end4-follow_path
	.cfi_endproc
	.cantunwind
	.fnend
                                        @ -- End function
	.section	.text.dir_register,"ax",%progbits
	.p2align	1               @ -- Begin function dir_register
	.type	dir_register,%function
	.code	16                      @ @dir_register
	.thumb_func
dir_register:
.Lfunc_begin5:
	.loc	2 2295 0 is_stmt 1      @ ../User/FATFS/ff.c:2295:0
	.fnstart
	.cfi_startproc
@ %bb.0:
	.save	{r4, r5, r7, lr}
	push	{r4, r5, r7, lr}
	.cfi_def_cfa_offset 16
	.cfi_offset lr, -4
	.cfi_offset r7, -8
	.cfi_offset r5, -12
	.cfi_offset r4, -16
	@DEBUG_VALUE: dir_register:dp <- $r0
.Ltmp336:
	@DEBUG_VALUE: dir_alloc:dp <- $r0
	.loc	2 2297 22 prologue_end  @ ../User/FATFS/ff.c:2297:22
	ldr	r4, [r0]
.Ltmp337:
	@DEBUG_VALUE: dir_alloc:nent <- 1
	@DEBUG_VALUE: dir_alloc:fs <- $r4
	@DEBUG_VALUE: dir_register:fs <- $r4
	@DEBUG_VALUE: dir_alloc:dp <- $r5
	.loc	2 0 22 is_stmt 0        @ ../User/FATFS/ff.c:0:22
	mov	r5, r0
.Ltmp338:
	@DEBUG_VALUE: dir_register:dp <- $r5
	.loc	2 1599 8 is_stmt 1      @ ../User/FATFS/ff.c:1599:8
	bl	dir_sdi
	b	.LBB5_5
.Ltmp339:
.LBB5_1:                                @   in Loop: Header=BB5_5 Depth=1
	@DEBUG_VALUE: dir_alloc:res <- $r0
	@DEBUG_VALUE: dir_register:dp <- $r5
	@DEBUG_VALUE: dir_register:fs <- $r4
	@DEBUG_VALUE: dir_alloc:fs <- $r4
	@DEBUG_VALUE: dir_alloc:n <- 0
	.loc	2 1603 30               @ ../User/FATFS/ff.c:1603:30
	ldr	r1, [r5, #24]
	.loc	2 1603 10 is_stmt 0     @ ../User/FATFS/ff.c:1603:10
	mov	r0, r4
.Ltmp340:
	bl	move_window
.Ltmp341:
	@DEBUG_VALUE: dir_alloc:res <- $r0
	.loc	2 1604 8 is_stmt 1      @ ../User/FATFS/ff.c:1604:8
	cbnz	r0, .LBB5_6
.Ltmp342:
@ %bb.2:                                @   in Loop: Header=BB5_5 Depth=1
	@DEBUG_VALUE: dir_alloc:res <- $r0
	@DEBUG_VALUE: dir_register:dp <- $r5
	@DEBUG_VALUE: dir_register:fs <- $r4
	@DEBUG_VALUE: dir_alloc:fs <- $r4
	.loc	2 1608 12               @ ../User/FATFS/ff.c:1608:12
	ldr	r0, [r5, #28]
.Ltmp343:
	.loc	2 1608 8 is_stmt 0      @ ../User/FATFS/ff.c:1608:8
	ldrb	r0, [r0]
	.loc	2 1608 34               @ ../User/FATFS/ff.c:1608:34
	cbz	r0, .LBB5_7
.Ltmp344:
@ %bb.3:                                @   in Loop: Header=BB5_5 Depth=1
	@DEBUG_VALUE: dir_register:dp <- $r5
	@DEBUG_VALUE: dir_register:fs <- $r4
	@DEBUG_VALUE: dir_alloc:fs <- $r4
	cmp	r0, #229
	beq	.LBB5_7
.Ltmp345:
@ %bb.4:                                @   in Loop: Header=BB5_5 Depth=1
	@DEBUG_VALUE: dir_register:dp <- $r5
	@DEBUG_VALUE: dir_register:fs <- $r4
	@DEBUG_VALUE: dir_alloc:fs <- $r4
	@DEBUG_VALUE: dir_alloc:n <- 0
	.loc	2 1614 10 is_stmt 1     @ ../User/FATFS/ff.c:1614:10
	mov	r0, r5
	movs	r1, #1
	bl	dir_next
.Ltmp346:
.LBB5_5:                                @ =>This Inner Loop Header: Depth=1
	@DEBUG_VALUE: dir_register:dp <- $r5
	@DEBUG_VALUE: dir_register:fs <- $r4
	@DEBUG_VALUE: dir_alloc:fs <- $r4
	@DEBUG_VALUE: dir_alloc:res <- $r0
	.loc	2 0 0 is_stmt 0         @ ../User/FATFS/ff.c:0:0
	cmp	r0, #0
	beq	.LBB5_1
.Ltmp347:
.LBB5_6:
	@DEBUG_VALUE: dir_alloc:res <- $r0
	@DEBUG_VALUE: dir_register:dp <- $r5
	@DEBUG_VALUE: dir_register:fs <- $r4
	@DEBUG_VALUE: dir_alloc:fs <- $r4
	@DEBUG_VALUE: dir_alloc:res <- $r0
	.loc	2 1618 6 is_stmt 1      @ ../User/FATFS/ff.c:1618:6
	cmp	r0, #4
	it	eq
	moveq	r0, #7
.Ltmp348:
	@DEBUG_VALUE: dir_register:res <- $r0
	.loc	2 2371 6                @ ../User/FATFS/ff.c:2371:6
	cbnz	r0, .LBB5_8
.Ltmp349:
.LBB5_7:
	@DEBUG_VALUE: dir_register:dp <- $r5
	@DEBUG_VALUE: dir_register:fs <- $r4
	.loc	2 2372 29               @ ../User/FATFS/ff.c:2372:29
	ldr	r1, [r5, #24]
	.loc	2 2372 9 is_stmt 0      @ ../User/FATFS/ff.c:2372:9
	mov	r0, r4
	bl	move_window
.Ltmp350:
	@DEBUG_VALUE: dir_register:res <- $r0
	.loc	2 2373 7 is_stmt 1      @ ../User/FATFS/ff.c:2373:7
	cbz	r0, .LBB5_9
.Ltmp351:
.LBB5_8:
	@DEBUG_VALUE: dir_register:res <- $r0
	@DEBUG_VALUE: dir_register:dp <- $r5
	@DEBUG_VALUE: dir_register:fs <- $r4
	@DEBUG_VALUE: dir_register:res <- $r0
	.loc	2 2383 2                @ ../User/FATFS/ff.c:2383:2
	pop	{r4, r5, r7, pc}
.Ltmp352:
.LBB5_9:
	@DEBUG_VALUE: dir_register:res <- $r0
	@DEBUG_VALUE: dir_register:dp <- $r5
	@DEBUG_VALUE: dir_register:fs <- $r4
	.loc	2 2374 16               @ ../User/FATFS/ff.c:2374:16
	ldr	r0, [r5, #28]
.Ltmp353:
	@DEBUG_VALUE: mem_set:cnt <- 32
	@DEBUG_VALUE: mem_set:val <- 0
	@DEBUG_VALUE: mem_set:d <- $r0
	@DEBUG_VALUE: mem_set:dst <- $r0
	.loc	2 710 8                 @ ../User/FATFS/ff.c:710:8
	movs	r1, #32
	bl	__aeabi_memclr
.Ltmp354:
	@DEBUG_VALUE: mem_set:cnt <- undef
	@DEBUG_VALUE: mem_set:d <- undef
	.loc	2 2375 16               @ ../User/FATFS/ff.c:2375:16
	ldr	r0, [r5, #28]
	.loc	2 2375 32 is_stmt 0     @ ../User/FATFS/ff.c:2375:32
	add.w	r1, r5, #32
	.loc	2 2375 4                @ ../User/FATFS/ff.c:2375:4
	movs	r2, #11
	bl	mem_cpy
	movs	r0, #1
	.loc	2 2379 14 is_stmt 1     @ ../User/FATFS/ff.c:2379:14
	strb	r0, [r4, #3]
	movs	r0, #0
.Ltmp355:
	@DEBUG_VALUE: dir_register:res <- $r0
	.loc	2 2383 2                @ ../User/FATFS/ff.c:2383:2
	pop	{r4, r5, r7, pc}
.Ltmp356:
.Lfunc_end5:
	.size	dir_register, .Lfunc_end5-dir_register
	.cfi_endproc
	.cantunwind
	.fnend
                                        @ -- End function
	.section	.text.st_dword,"ax",%progbits
	.p2align	1               @ -- Begin function st_dword
	.type	st_dword,%function
	.code	16                      @ @st_dword
	.thumb_func
st_dword:
.Lfunc_begin6:
	.loc	2 662 0                 @ ../User/FATFS/ff.c:662:0
	.fnstart
	.cfi_startproc
@ %bb.0:
	@DEBUG_VALUE: st_dword:ptr <- $r0
	@DEBUG_VALUE: st_dword:ptr <- $r0
	@DEBUG_VALUE: st_dword:val <- $r1
	@DEBUG_VALUE: st_dword:val <- $r1
	@DEBUG_VALUE: st_dword:ptr <- [DW_OP_plus_uconst 1, DW_OP_stack_value] $r0
	.loc	2 665 26 prologue_end   @ ../User/FATFS/ff.c:665:26
	lsrs	r2, r1, #24
.Ltmp357:
	@DEBUG_VALUE: st_dword:val <- $r2
	.loc	2 663 9                 @ ../User/FATFS/ff.c:663:9
	strb	r1, [r0]
	.loc	2 666 9                 @ ../User/FATFS/ff.c:666:9
	strb	r2, [r0, #3]
	.loc	2 664 26                @ ../User/FATFS/ff.c:664:26
	lsrs	r2, r1, #16
.Ltmp358:
	@DEBUG_VALUE: st_dword:ptr <- [DW_OP_plus_uconst 3, DW_OP_stack_value] $r0
	@DEBUG_VALUE: st_dword:ptr <- [DW_OP_plus_uconst 3, DW_OP_plus_uconst 1, DW_OP_stack_value] $r0
	@DEBUG_VALUE: st_dword:val <- $r2
	.loc	2 663 26                @ ../User/FATFS/ff.c:663:26
	lsrs	r1, r1, #8
.Ltmp359:
	@DEBUG_VALUE: st_dword:ptr <- [DW_OP_plus_uconst 2, DW_OP_stack_value] $r0
	@DEBUG_VALUE: st_dword:val <- $r1
	.loc	2 665 9                 @ ../User/FATFS/ff.c:665:9
	strb	r2, [r0, #2]
	.loc	2 664 9                 @ ../User/FATFS/ff.c:664:9
	strb	r1, [r0, #1]
	.loc	2 667 1                 @ ../User/FATFS/ff.c:667:1
	bx	lr
.Ltmp360:
.Lfunc_end6:
	.size	st_dword, .Lfunc_end6-st_dword
	.cfi_endproc
	.cantunwind
	.fnend
                                        @ -- End function
	.section	.text.ld_clust,"ax",%progbits
	.p2align	1               @ -- Begin function ld_clust
	.type	ld_clust,%function
	.code	16                      @ @ld_clust
	.thumb_func
ld_clust:
.Lfunc_begin7:
	.loc	2 1636 0                @ ../User/FATFS/ff.c:1636:0
	.fnstart
	.cfi_startproc
@ %bb.0:
	@DEBUG_VALUE: ld_clust:fs <- $r0
	@DEBUG_VALUE: ld_clust:fs <- $r0
	@DEBUG_VALUE: ld_clust:dir <- $r1
	@DEBUG_VALUE: ld_clust:dir <- $r1
	.loc	2 1640 10 prologue_end  @ ../User/FATFS/ff.c:1640:10
	ldrb	r2, [r0]
.Ltmp361:
	@DEBUG_VALUE: ld_word:ptr <- [DW_OP_plus_uconst 26, DW_OP_stack_value] $r1
	.loc	2 618 17                @ ../User/FATFS/ff.c:618:17
	ldrb	r0, [r1, #26]
.Ltmp362:
	.loc	2 617 7                 @ ../User/FATFS/ff.c:617:7
	ldrb	r3, [r1, #27]
	.loc	2 618 15                @ ../User/FATFS/ff.c:618:15
	orr.w	r0, r0, r3, lsl #8
.Ltmp363:
	@DEBUG_VALUE: ld_clust:cl <- $r0
	@DEBUG_VALUE: ld_word:rv <- $r0
	.loc	2 1640 6                @ ../User/FATFS/ff.c:1640:6
	cmp	r2, #3
	@DEBUG_VALUE: ld_clust:cl <- $r0
	.loc	2 1644 2                @ ../User/FATFS/ff.c:1644:2
	it	ne
	bxne	lr
.Ltmp364:
	@DEBUG_VALUE: ld_word:ptr <- [DW_OP_plus_uconst 20, DW_OP_stack_value] $r1
	.loc	2 618 17                @ ../User/FATFS/ff.c:618:17
	ldrb	r2, [r1, #20]
	.loc	2 618 7 is_stmt 0       @ ../User/FATFS/ff.c:618:7
	ldrb	r1, [r1, #21]
.Ltmp365:
	.loc	2 618 15                @ ../User/FATFS/ff.c:618:15
	orr.w	r1, r2, r1, lsl #8
.Ltmp366:
	@DEBUG_VALUE: ld_word:rv <- $r1
	.loc	2 1641 6 is_stmt 1      @ ../User/FATFS/ff.c:1641:6
	orr.w	r0, r0, r1, lsl #16
.Ltmp367:
	@DEBUG_VALUE: ld_clust:cl <- $r0
	.loc	2 1644 2                @ ../User/FATFS/ff.c:1644:2
	bx	lr
.Ltmp368:
.Lfunc_end7:
	.size	ld_clust, .Lfunc_end7-ld_clust
	.cfi_endproc
	.cantunwind
	.fnend
                                        @ -- End function
	.section	.text.st_clust,"ax",%progbits
	.p2align	1               @ -- Begin function st_clust
	.type	st_clust,%function
	.code	16                      @ @st_clust
	.thumb_func
st_clust:
.Lfunc_begin8:
	.loc	2 1655 0                @ ../User/FATFS/ff.c:1655:0
	.fnstart
	.cfi_startproc
@ %bb.0:
	@DEBUG_VALUE: st_clust:fs <- $r0
	@DEBUG_VALUE: st_clust:fs <- $r0
	@DEBUG_VALUE: st_clust:dir <- $r1
	@DEBUG_VALUE: st_clust:dir <- $r1
	@DEBUG_VALUE: st_clust:cl <- $r2
	@DEBUG_VALUE: st_clust:cl <- $r2
	@DEBUG_VALUE: st_word:ptr <- [DW_OP_plus_uconst 26, DW_OP_stack_value] $r1
	@DEBUG_VALUE: st_word:val <- $r2
	@DEBUG_VALUE: st_word:ptr <- [DW_OP_plus_uconst 27, DW_OP_plus_uconst 1, DW_OP_stack_value] $r1
	@DEBUG_VALUE: st_word:ptr <- [DW_OP_plus_uconst 27, DW_OP_stack_value] $r1
	.loc	2 656 26 prologue_end   @ ../User/FATFS/ff.c:656:26
	lsrs	r3, r2, #8
.Ltmp369:
	@DEBUG_VALUE: st_word:val <- undef
	.loc	2 656 9 is_stmt 0       @ ../User/FATFS/ff.c:656:9
	strb	r2, [r1, #26]
	.loc	2 657 9 is_stmt 1       @ ../User/FATFS/ff.c:657:9
	strb	r3, [r1, #27]
.Ltmp370:
	.loc	2 1657 10               @ ../User/FATFS/ff.c:1657:10
	ldrb	r0, [r0]
.Ltmp371:
	.loc	2 1657 6 is_stmt 0      @ ../User/FATFS/ff.c:1657:6
	cmp	r0, #3
	.loc	2 1660 1 is_stmt 1      @ ../User/FATFS/ff.c:1660:1
	it	ne
	bxne	lr
.Ltmp372:
	.loc	2 656 26                @ ../User/FATFS/ff.c:656:26
	lsrs	r0, r2, #24
.Ltmp373:
	@DEBUG_VALUE: st_word:ptr <- [DW_OP_plus_uconst 20, DW_OP_stack_value] $r1
	.loc	2 657 9                 @ ../User/FATFS/ff.c:657:9
	strb	r0, [r1, #21]
.Ltmp374:
	.loc	2 1658 42               @ ../User/FATFS/ff.c:1658:42
	lsrs	r0, r2, #16
.Ltmp375:
	@DEBUG_VALUE: st_word:ptr <- [DW_OP_plus_uconst 21, DW_OP_stack_value] $r1
	@DEBUG_VALUE: st_word:ptr <- [DW_OP_plus_uconst 21, DW_OP_plus_uconst 1, DW_OP_stack_value] $r1
	.loc	2 656 9                 @ ../User/FATFS/ff.c:656:9
	strb	r0, [r1, #20]
.Ltmp376:
	@DEBUG_VALUE: st_word:ptr <- [DW_OP_plus_uconst 20, DW_OP_stack_value] $r1
	.loc	2 1660 1                @ ../User/FATFS/ff.c:1660:1
	bx	lr
.Ltmp377:
.Lfunc_end8:
	.size	st_clust, .Lfunc_end8-st_clust
	.cfi_endproc
	.cantunwind
	.fnend
                                        @ -- End function
	.section	.text.remove_chain,"ax",%progbits
	.p2align	1               @ -- Begin function remove_chain
	.type	remove_chain,%function
	.code	16                      @ @remove_chain
	.thumb_func
remove_chain:
.Lfunc_begin9:
	.loc	2 1276 0                @ ../User/FATFS/ff.c:1276:0
	.fnstart
	.cfi_startproc
@ %bb.0:
	.save	{r4, r5, r6, r7, lr}
	.pad	#4
	push	{r3, r4, r5, r6, r7, lr}
	.cfi_def_cfa_offset 24
	.cfi_offset lr, -4
	.cfi_offset r7, -8
	.cfi_offset r6, -12
	.cfi_offset r5, -16
	.cfi_offset r4, -20
	@DEBUG_VALUE: remove_chain:obj <- $r0
	@DEBUG_VALUE: remove_chain:clst <- $r1
	@DEBUG_VALUE: remove_chain:pclst <- $r2
.Ltmp378:
	@DEBUG_VALUE: remove_chain:res <- 0
	@DEBUG_VALUE: remove_chain:pclst <- $r2
	.loc	2 1287 15 prologue_end  @ ../User/FATFS/ff.c:1287:15
	cmp	r1, #2
	blo	.LBB9_12
.Ltmp379:
@ %bb.1:
	@DEBUG_VALUE: remove_chain:pclst <- $r2
	@DEBUG_VALUE: remove_chain:clst <- $r1
	@DEBUG_VALUE: remove_chain:obj <- $r0
	.loc	2 0 0 is_stmt 0         @ ../User/FATFS/ff.c:0:0
	ldr	r5, [r0]
.Ltmp380:
	@DEBUG_VALUE: remove_chain:fs <- $r5
	mov	r4, r0
.Ltmp381:
	@DEBUG_VALUE: remove_chain:obj <- $r4
	@DEBUG_VALUE: remove_chain:obj <- $r4
	mov	r6, r1
.Ltmp382:
	@DEBUG_VALUE: remove_chain:clst <- $r6
	.loc	2 1287 30               @ ../User/FATFS/ff.c:1287:30
	ldr	r0, [r5, #20]
.Ltmp383:
	.loc	2 1287 6                @ ../User/FATFS/ff.c:1287:6
	cmp	r0, r1
	bls	.LBB9_12
.Ltmp384:
@ %bb.2:
	@DEBUG_VALUE: remove_chain:clst <- $r6
	@DEBUG_VALUE: remove_chain:obj <- $r4
	@DEBUG_VALUE: remove_chain:fs <- $r5
	@DEBUG_VALUE: remove_chain:pclst <- $r2
	.loc	2 1290 6 is_stmt 1      @ ../User/FATFS/ff.c:1290:6
	cbz	r2, .LBB9_4
.Ltmp385:
@ %bb.3:
	@DEBUG_VALUE: remove_chain:clst <- $r6
	@DEBUG_VALUE: remove_chain:obj <- $r4
	@DEBUG_VALUE: remove_chain:fs <- $r5
	@DEBUG_VALUE: remove_chain:pclst <- $r2
	.loc	2 1291 9                @ ../User/FATFS/ff.c:1291:9
	mov	r1, r2
	mov	r0, r5
	mov.w	r2, #-1
.Ltmp386:
	bl	put_fat
.Ltmp387:
	@DEBUG_VALUE: remove_chain:res <- $r0
	.loc	2 1292 7                @ ../User/FATFS/ff.c:1292:7
	cbnz	r0, .LBB9_13
.Ltmp388:
.LBB9_4:                                @ =>This Inner Loop Header: Depth=1
	@DEBUG_VALUE: remove_chain:clst <- $r6
	@DEBUG_VALUE: remove_chain:obj <- $r4
	@DEBUG_VALUE: remove_chain:fs <- $r5
	@DEBUG_VALUE: remove_chain:clst <- $r6
	.loc	2 1297 9                @ ../User/FATFS/ff.c:1297:9
	mov	r0, r4
	mov	r1, r6
	bl	get_fat
	mov	r7, r0
.Ltmp389:
	@DEBUG_VALUE: remove_chain:nxt <- $r7
	@DEBUG_VALUE: remove_chain:clst <- $r7
	.loc	2 1298 7                @ ../User/FATFS/ff.c:1298:7
	adds	r0, #1
	beq	.LBB9_14
.Ltmp390:
@ %bb.5:                                @   in Loop: Header=BB9_4 Depth=1
	@DEBUG_VALUE: remove_chain:clst <- $r7
	@DEBUG_VALUE: remove_chain:nxt <- $r7
	@DEBUG_VALUE: remove_chain:obj <- $r4
	@DEBUG_VALUE: remove_chain:fs <- $r5
	cbz	r7, .LBB9_11
.Ltmp391:
@ %bb.6:                                @   in Loop: Header=BB9_4 Depth=1
	@DEBUG_VALUE: remove_chain:clst <- $r7
	@DEBUG_VALUE: remove_chain:nxt <- $r7
	@DEBUG_VALUE: remove_chain:obj <- $r4
	@DEBUG_VALUE: remove_chain:fs <- $r5
	cmp	r7, #1
	beq	.LBB9_12
.Ltmp392:
@ %bb.7:                                @   in Loop: Header=BB9_4 Depth=1
	@DEBUG_VALUE: remove_chain:clst <- $r7
	@DEBUG_VALUE: remove_chain:nxt <- $r7
	@DEBUG_VALUE: remove_chain:obj <- $r4
	@DEBUG_VALUE: remove_chain:fs <- $r5
	.loc	2 1302 10               @ ../User/FATFS/ff.c:1302:10
	mov	r0, r5
	mov	r1, r6
	movs	r2, #0
	bl	put_fat
.Ltmp393:
	@DEBUG_VALUE: remove_chain:res <- $r0
	.loc	2 1303 8                @ ../User/FATFS/ff.c:1303:8
	cbnz	r0, .LBB9_13
.Ltmp394:
@ %bb.8:                                @   in Loop: Header=BB9_4 Depth=1
	@DEBUG_VALUE: remove_chain:clst <- $r7
	@DEBUG_VALUE: remove_chain:nxt <- $r7
	@DEBUG_VALUE: remove_chain:res <- $r0
	@DEBUG_VALUE: remove_chain:obj <- $r4
	@DEBUG_VALUE: remove_chain:fs <- $r5
	.loc	2 1305 11               @ ../User/FATFS/ff.c:1305:11
	ldrd	r1, r0, [r5, #16]
.Ltmp395:
	.loc	2 1305 36 is_stmt 0     @ ../User/FATFS/ff.c:1305:36
	subs	r2, r0, #2
.Ltmp396:
	.loc	2 1305 7                @ ../User/FATFS/ff.c:1305:7
	cmp	r1, r2
	bhs	.LBB9_10
.Ltmp397:
@ %bb.9:                                @   in Loop: Header=BB9_4 Depth=1
	@DEBUG_VALUE: remove_chain:clst <- $r7
	@DEBUG_VALUE: remove_chain:nxt <- $r7
	@DEBUG_VALUE: remove_chain:obj <- $r4
	@DEBUG_VALUE: remove_chain:fs <- $r5
	.loc	2 1306 17 is_stmt 1     @ ../User/FATFS/ff.c:1306:17
	adds	r1, #1
	str	r1, [r5, #16]
	.loc	2 1307 17               @ ../User/FATFS/ff.c:1307:17
	ldrb	r1, [r5, #4]
	orr	r1, r1, #1
	strb	r1, [r5, #4]
.Ltmp398:
.LBB9_10:                               @   in Loop: Header=BB9_4 Depth=1
	@DEBUG_VALUE: remove_chain:clst <- $r7
	@DEBUG_VALUE: remove_chain:nxt <- $r7
	@DEBUG_VALUE: remove_chain:obj <- $r4
	@DEBUG_VALUE: remove_chain:fs <- $r5
	.loc	2 1328 2                @ ../User/FATFS/ff.c:1328:2
	cmp	r7, r0
	mov	r6, r7
.Ltmp399:
	@DEBUG_VALUE: remove_chain:nxt <- $r6
	blo	.LBB9_4
.Ltmp400:
.LBB9_11:
	@DEBUG_VALUE: remove_chain:clst <- $r7
	@DEBUG_VALUE: remove_chain:obj <- $r4
	@DEBUG_VALUE: remove_chain:fs <- $r5
	.loc	2 0 2 is_stmt 0         @ ../User/FATFS/ff.c:0:2
	movs	r0, #0
	b	.LBB9_13
.Ltmp401:
.LBB9_12:
	movs	r0, #2
.LBB9_13:
	.loc	2 1342 1 is_stmt 1      @ ../User/FATFS/ff.c:1342:1
	add	sp, #4
	pop	{r4, r5, r6, r7, pc}
.Ltmp402:
.LBB9_14:
	@DEBUG_VALUE: remove_chain:clst <- $r7
	@DEBUG_VALUE: remove_chain:nxt <- $r7
	@DEBUG_VALUE: remove_chain:obj <- $r4
	@DEBUG_VALUE: remove_chain:fs <- $r5
	.loc	2 0 1 is_stmt 0         @ ../User/FATFS/ff.c:0:1
	movs	r0, #1
	b	.LBB9_13
.Lfunc_end9:
	.size	remove_chain, .Lfunc_end9-remove_chain
	.cfi_endproc
	.cantunwind
	.fnend
                                        @ -- End function
	.section	.text.move_window,"ax",%progbits
	.p2align	1               @ -- Begin function move_window
	.type	move_window,%function
	.code	16                      @ @move_window
	.thumb_func
move_window:
.Lfunc_begin10:
	.loc	2 916 0 is_stmt 1       @ ../User/FATFS/ff.c:916:0
	.fnstart
	.cfi_startproc
@ %bb.0:
	.save	{r4, r5, r7, lr}
	push	{r4, r5, r7, lr}
	.cfi_def_cfa_offset 16
	.cfi_offset lr, -4
	.cfi_offset r7, -8
	.cfi_offset r5, -12
	.cfi_offset r4, -16
	@DEBUG_VALUE: move_window:fs <- $r0
	@DEBUG_VALUE: move_window:sector <- $r1
	mov	r5, r0
.Ltmp403:
	@DEBUG_VALUE: move_window:res <- 0
	@DEBUG_VALUE: move_window:fs <- $r5
	.loc	2 920 20 prologue_end   @ ../User/FATFS/ff.c:920:20
	ldr	r0, [r0, #44]
.Ltmp404:
	.loc	2 920 6 is_stmt 0       @ ../User/FATFS/ff.c:920:6
	cmp	r0, r1
	itt	eq
	moveq	r0, #0
.Ltmp405:
	@DEBUG_VALUE: move_window:res <- $r0
	.loc	2 932 2 is_stmt 1       @ ../User/FATFS/ff.c:932:2
	popeq	{r4, r5, r7, pc}
.Ltmp406:
	.loc	2 922 9                 @ ../User/FATFS/ff.c:922:9
	mov	r0, r5
.Ltmp407:
	.loc	2 0 9 is_stmt 0         @ ../User/FATFS/ff.c:0:9
	mov	r4, r1
.Ltmp408:
	@DEBUG_VALUE: move_window:sector <- $r4
	.loc	2 922 9                 @ ../User/FATFS/ff.c:922:9
	bl	sync_window
.Ltmp409:
	@DEBUG_VALUE: move_window:res <- $r0
	.loc	2 924 7 is_stmt 1       @ ../User/FATFS/ff.c:924:7
	cbz	r0, .LBB10_2
.Ltmp410:
@ %bb.1:
	@DEBUG_VALUE: move_window:sector <- $r4
	@DEBUG_VALUE: move_window:res <- $r0
	@DEBUG_VALUE: move_window:sector <- $r1
	@DEBUG_VALUE: move_window:res <- $r0
	.loc	2 932 2                 @ ../User/FATFS/ff.c:932:2
	pop	{r4, r5, r7, pc}
.Ltmp411:
.LBB10_2:
	@DEBUG_VALUE: move_window:sector <- $r4
	@DEBUG_VALUE: move_window:res <- $r0
	@DEBUG_VALUE: move_window:sector <- $r1
	.loc	2 925 22                @ ../User/FATFS/ff.c:925:22
	ldrb	r0, [r5, #1]
.Ltmp412:
	.loc	2 925 27 is_stmt 0      @ ../User/FATFS/ff.c:925:27
	add.w	r1, r5, #48
.Ltmp413:
	.loc	2 925 8                 @ ../User/FATFS/ff.c:925:8
	mov	r2, r4
	movs	r3, #1
	bl	disk_read
.Ltmp414:
	.loc	2 925 8                 @ ../User/FATFS/ff.c:925:8
	cmp	r0, #0
	it	ne
	movne.w	r4, #-1
.Ltmp415:
	@DEBUG_VALUE: move_window:res <- undef
	@DEBUG_VALUE: move_window:sector <- $r4
	.loc	2 929 16 is_stmt 1      @ ../User/FATFS/ff.c:929:16
	str	r4, [r5, #44]
.Ltmp416:
	.loc	2 925 47                @ ../User/FATFS/ff.c:925:47
	it	ne
	movne	r0, #1
.Ltmp417:
	@DEBUG_VALUE: move_window:res <- $r0
	.loc	2 932 2                 @ ../User/FATFS/ff.c:932:2
	pop	{r4, r5, r7, pc}
.Ltmp418:
.Lfunc_end10:
	.size	move_window, .Lfunc_end10-move_window
	.cfi_endproc
	.cantunwind
	.fnend
                                        @ -- End function
	.section	.text.ld_dword,"ax",%progbits
	.p2align	1               @ -- Begin function ld_dword
	.type	ld_dword,%function
	.code	16                      @ @ld_dword
	.thumb_func
ld_dword:
.Lfunc_begin11:
	.loc	2 624 0                 @ ../User/FATFS/ff.c:624:0
	.fnstart
	.cfi_startproc
@ %bb.0:
	@DEBUG_VALUE: ld_dword:ptr <- $r0
	@DEBUG_VALUE: ld_dword:ptr <- $r0
	@DEBUG_VALUE: ld_dword:rv <- undef
	.loc	2 630 15 prologue_end   @ ../User/FATFS/ff.c:630:15
	ldr	r0, [r0]
.Ltmp419:
	@DEBUG_VALUE: ld_dword:rv <- $r0
	.loc	2 631 2                 @ ../User/FATFS/ff.c:631:2
	bx	lr
.Ltmp420:
.Lfunc_end11:
	.size	ld_dword, .Lfunc_end11-ld_dword
	.cfi_endproc
	.cantunwind
	.fnend
                                        @ -- End function
	.section	.text.get_fat,"ax",%progbits
	.p2align	1               @ -- Begin function get_fat
	.type	get_fat,%function
	.code	16                      @ @get_fat
	.thumb_func
get_fat:
.Lfunc_begin12:
	.loc	2 1005 0                @ ../User/FATFS/ff.c:1005:0
	.fnstart
	.cfi_startproc
@ %bb.0:
	.save	{r4, r5, r6, r7, lr}
	.pad	#4
	push	{r3, r4, r5, r6, r7, lr}
	.cfi_def_cfa_offset 24
	.cfi_offset lr, -4
	.cfi_offset r7, -8
	.cfi_offset r6, -12
	.cfi_offset r5, -16
	.cfi_offset r4, -20
	@DEBUG_VALUE: get_fat:obj <- $r0
	@DEBUG_VALUE: get_fat:clst <- $r1
.Ltmp421:
	@DEBUG_VALUE: get_fat:bc <- $r1
	@DEBUG_VALUE: get_fat:obj <- $r0
	.loc	2 1011 15 prologue_end  @ ../User/FATFS/ff.c:1011:15
	cmp	r1, #2
	blo	.LBB12_8
.Ltmp422:
@ %bb.1:
	@DEBUG_VALUE: get_fat:bc <- $r1
	@DEBUG_VALUE: get_fat:clst <- $r1
	@DEBUG_VALUE: get_fat:obj <- $r0
	.loc	2 0 0 is_stmt 0         @ ../User/FATFS/ff.c:0:0
	ldr	r5, [r0]
.Ltmp423:
	@DEBUG_VALUE: get_fat:fs <- $r5
	mov	r4, r1
.Ltmp424:
	@DEBUG_VALUE: get_fat:clst <- $r4
	@DEBUG_VALUE: get_fat:bc <- $r4
	.loc	2 1011 30               @ ../User/FATFS/ff.c:1011:30
	ldr	r0, [r5, #20]
.Ltmp425:
	.loc	2 1011 6                @ ../User/FATFS/ff.c:1011:6
	cmp	r0, r1
	bls	.LBB12_8
.Ltmp426:
@ %bb.2:
	@DEBUG_VALUE: get_fat:bc <- $r4
	@DEBUG_VALUE: get_fat:clst <- $r4
	@DEBUG_VALUE: get_fat:fs <- $r5
	@DEBUG_VALUE: get_fat:val <- -1
	.loc	2 1017 15 is_stmt 1     @ ../User/FATFS/ff.c:1017:15
	ldrb	r0, [r5]
	.loc	2 1017 3 is_stmt 0      @ ../User/FATFS/ff.c:1017:3
	cmp	r0, #3
	beq	.LBB12_10
.Ltmp427:
@ %bb.3:
	@DEBUG_VALUE: get_fat:bc <- $r4
	@DEBUG_VALUE: get_fat:clst <- $r4
	@DEBUG_VALUE: get_fat:fs <- $r5
	cmp	r0, #2
	beq	.LBB12_12
.Ltmp428:
@ %bb.4:
	@DEBUG_VALUE: get_fat:bc <- $r4
	@DEBUG_VALUE: get_fat:clst <- $r4
	@DEBUG_VALUE: get_fat:fs <- $r5
	cmp	r0, #1
	bne	.LBB12_8
.Ltmp429:
@ %bb.5:
	@DEBUG_VALUE: get_fat:bc <- $r4
	@DEBUG_VALUE: get_fat:clst <- $r4
	@DEBUG_VALUE: get_fat:fs <- $r5
	.loc	2 1020 28 is_stmt 1     @ ../User/FATFS/ff.c:1020:28
	ldr	r0, [r5, #32]
.Ltmp430:
	.loc	2 1019 24               @ ../User/FATFS/ff.c:1019:24
	add.w	r7, r4, r4, lsr #1
.Ltmp431:
	@DEBUG_VALUE: get_fat:bc <- $r7
	.loc	2 1020 36               @ ../User/FATFS/ff.c:1020:36
	add.w	r1, r0, r7, lsr #9
	.loc	2 1020 8 is_stmt 0      @ ../User/FATFS/ff.c:1020:8
	mov	r0, r5
	bl	move_window
.Ltmp432:
	.loc	2 1020 8                @ ../User/FATFS/ff.c:1020:8
	cbnz	r0, .LBB12_13
.Ltmp433:
@ %bb.6:
	@DEBUG_VALUE: get_fat:bc <- $r7
	@DEBUG_VALUE: get_fat:clst <- $r4
	@DEBUG_VALUE: get_fat:fs <- $r5
	.loc	2 1021 19 is_stmt 1     @ ../User/FATFS/ff.c:1021:19
	adds	r6, r7, #1
	.loc	2 1021 22 is_stmt 0     @ ../User/FATFS/ff.c:1021:22
	bfc	r7, #9, #23
.Ltmp434:
	.loc	2 1021 9                @ ../User/FATFS/ff.c:1021:9
	adds	r0, r5, r7
	ldrb.w	r7, [r0, #48]
.Ltmp435:
	@DEBUG_VALUE: get_fat:wc <- $r7
	.loc	2 1022 28 is_stmt 1     @ ../User/FATFS/ff.c:1022:28
	ldr	r0, [r5, #32]
.Ltmp436:
	@DEBUG_VALUE: get_fat:bc <- $r6
	.loc	2 1022 36 is_stmt 0     @ ../User/FATFS/ff.c:1022:36
	add.w	r1, r0, r6, lsr #9
	.loc	2 1022 8                @ ../User/FATFS/ff.c:1022:8
	mov	r0, r5
	bl	move_window
.Ltmp437:
	.loc	2 1022 8                @ ../User/FATFS/ff.c:1022:8
	cbnz	r0, .LBB12_13
.Ltmp438:
@ %bb.7:
	@DEBUG_VALUE: get_fat:bc <- $r6
	@DEBUG_VALUE: get_fat:wc <- $r7
	@DEBUG_VALUE: get_fat:clst <- $r4
	@DEBUG_VALUE: get_fat:fs <- $r5
	.loc	2 1023 21 is_stmt 1     @ ../User/FATFS/ff.c:1023:21
	bfc	r6, #9, #23
.Ltmp439:
	.loc	2 1024 10               @ ../User/FATFS/ff.c:1024:10
	lsls	r2, r4, #31
	.loc	2 1023 10               @ ../User/FATFS/ff.c:1023:10
	add.w	r0, r5, r6
	ldrb.w	r0, [r0, #48]
	.loc	2 1023 7 is_stmt 0      @ ../User/FATFS/ff.c:1023:7
	orr.w	r1, r7, r0, lsl #8
.Ltmp440:
	@DEBUG_VALUE: get_fat:wc <- $r1
	.loc	2 1024 10 is_stmt 1     @ ../User/FATFS/ff.c:1024:10
	mov	r0, r1
	bfc	r0, #12, #20
	it	ne
	lsrne	r0, r1, #4
.Ltmp441:
	@DEBUG_VALUE: get_fat:val <- $r0
	.loc	2 0 10 is_stmt 0        @ ../User/FATFS/ff.c:0:10
	b	.LBB12_9
.Ltmp442:
.LBB12_8:
	movs	r0, #1
.LBB12_9:
.Ltmp443:
	@DEBUG_VALUE: get_fat:val <- $r0
	.loc	2 1069 2 is_stmt 1      @ ../User/FATFS/ff.c:1069:2
	add	sp, #4
	pop	{r4, r5, r6, r7, pc}
.Ltmp444:
.LBB12_10:
	@DEBUG_VALUE: get_fat:bc <- $r4
	@DEBUG_VALUE: get_fat:clst <- $r4
	@DEBUG_VALUE: get_fat:fs <- $r5
	.loc	2 1033 28               @ ../User/FATFS/ff.c:1033:28
	ldr	r0, [r5, #32]
	.loc	2 1033 36 is_stmt 0     @ ../User/FATFS/ff.c:1033:36
	add.w	r1, r0, r4, lsr #7
	.loc	2 1033 8                @ ../User/FATFS/ff.c:1033:8
	mov	r0, r5
	bl	move_window
.Ltmp445:
	.loc	2 1033 8                @ ../User/FATFS/ff.c:1033:8
	cbnz	r0, .LBB12_13
.Ltmp446:
@ %bb.11:
	@DEBUG_VALUE: get_fat:bc <- $r4
	@DEBUG_VALUE: get_fat:clst <- $r4
	@DEBUG_VALUE: get_fat:fs <- $r5
	.loc	2 1034 38 is_stmt 1     @ ../User/FATFS/ff.c:1034:38
	and	r0, r4, #127
	.loc	2 1034 27 is_stmt 0     @ ../User/FATFS/ff.c:1034:27
	add.w	r0, r5, r0, lsl #2
	adds	r0, #48
	.loc	2 1034 10               @ ../User/FATFS/ff.c:1034:10
	bl	ld_dword
	.loc	2 1034 48               @ ../User/FATFS/ff.c:1034:48
	bic	r0, r0, #-268435456
.Ltmp447:
	@DEBUG_VALUE: get_fat:val <- $r0
	.loc	2 0 48                  @ ../User/FATFS/ff.c:0:48
	b	.LBB12_9
.Ltmp448:
.LBB12_12:
	@DEBUG_VALUE: get_fat:bc <- $r4
	@DEBUG_VALUE: get_fat:clst <- $r4
	@DEBUG_VALUE: get_fat:fs <- $r5
	.loc	2 1028 28 is_stmt 1     @ ../User/FATFS/ff.c:1028:28
	ldr	r0, [r5, #32]
	.loc	2 1028 36 is_stmt 0     @ ../User/FATFS/ff.c:1028:36
	add.w	r1, r0, r4, lsr #8
	.loc	2 1028 8                @ ../User/FATFS/ff.c:1028:8
	mov	r0, r5
	bl	move_window
.Ltmp449:
	.loc	2 1028 8                @ ../User/FATFS/ff.c:1028:8
	cbz	r0, .LBB12_14
.Ltmp450:
.LBB12_13:
	@DEBUG_VALUE: get_fat:clst <- $r4
	@DEBUG_VALUE: get_fat:fs <- $r5
	.loc	2 0 8                   @ ../User/FATFS/ff.c:0:8
	mov.w	r0, #-1
	b	.LBB12_9
.Ltmp451:
.LBB12_14:
	@DEBUG_VALUE: get_fat:bc <- $r4
	@DEBUG_VALUE: get_fat:clst <- $r4
	@DEBUG_VALUE: get_fat:fs <- $r5
	.loc	2 1029 37 is_stmt 1     @ ../User/FATFS/ff.c:1029:37
	uxtb	r0, r4
	.loc	2 1029 26 is_stmt 0     @ ../User/FATFS/ff.c:1029:26
	add.w	r0, r5, r0, lsl #1
.Ltmp452:
	@DEBUG_VALUE: ld_word:ptr <- [DW_OP_plus_uconst 48, DW_OP_stack_value] $r0
	.loc	2 618 17 is_stmt 1      @ ../User/FATFS/ff.c:618:17
	ldrb.w	r1, [r0, #48]
	.loc	2 617 7                 @ ../User/FATFS/ff.c:617:7
	ldrb.w	r0, [r0, #49]
.Ltmp453:
	.loc	2 618 15                @ ../User/FATFS/ff.c:618:15
	orr.w	r0, r1, r0, lsl #8
.Ltmp454:
	@DEBUG_VALUE: ld_word:rv <- $r0
	@DEBUG_VALUE: get_fat:val <- $r0
	.loc	2 0 15 is_stmt 0        @ ../User/FATFS/ff.c:0:15
	b	.LBB12_9
.Ltmp455:
.Lfunc_end12:
	.size	get_fat, .Lfunc_end12-get_fat
	.cfi_endproc
	.cantunwind
	.fnend
                                        @ -- End function
	.section	.text.clust2sect,"ax",%progbits
	.p2align	1               @ -- Begin function clust2sect
	.type	clust2sect,%function
	.code	16                      @ @clust2sect
	.thumb_func
clust2sect:
.Lfunc_begin13:
	.loc	2 987 0 is_stmt 1       @ ../User/FATFS/ff.c:987:0
	.fnstart
	.cfi_startproc
@ %bb.0:
	@DEBUG_VALUE: clust2sect:fs <- $r0
	@DEBUG_VALUE: clust2sect:fs <- $r0
	@DEBUG_VALUE: clust2sect:clst <- $r1
	@DEBUG_VALUE: clust2sect:clst <- $r1
	.loc	2 989 18 prologue_end   @ ../User/FATFS/ff.c:989:18
	ldr	r2, [r0, #20]
.Ltmp456:
	.loc	2 988 7                 @ ../User/FATFS/ff.c:988:7
	subs	r1, #2
.Ltmp457:
	@DEBUG_VALUE: clust2sect:clst <- $r1
	.loc	2 989 27                @ ../User/FATFS/ff.c:989:27
	subs	r2, #2
.Ltmp458:
	.loc	2 989 6 is_stmt 0       @ ../User/FATFS/ff.c:989:6
	cmp	r1, r2
	iteee	hs
	movhs	r0, #0
.Ltmp459:
	.loc	2 990 32 is_stmt 1      @ ../User/FATFS/ff.c:990:32
	ldrlo	r2, [r0, #40]
	.loc	2 990 20 is_stmt 0      @ ../User/FATFS/ff.c:990:20
	ldrhlo	r0, [r0, #10]
	.loc	2 990 26                @ ../User/FATFS/ff.c:990:26
	mlalo	r0, r1, r0, r2
	.loc	2 991 1 is_stmt 1       @ ../User/FATFS/ff.c:991:1
	bx	lr
.Ltmp460:
.Lfunc_end13:
	.size	clust2sect, .Lfunc_end13-clust2sect
	.cfi_endproc
	.cantunwind
	.fnend
                                        @ -- End function
	.section	.text.f_read,"ax",%progbits
	.hidden	f_read                  @ -- Begin function f_read
	.globl	f_read
	.p2align	1
	.type	f_read,%function
	.code	16                      @ @f_read
	.thumb_func
f_read:
.Lfunc_begin14:
	.loc	2 3506 0                @ ../User/FATFS/ff.c:3506:0
	.fnstart
	.cfi_startproc
@ %bb.0:
	.save	{r4, r5, r6, r7, r8, r9, r10, r11, lr}
	.pad	#12
	push.w	{r1, r2, r3, r4, r5, r6, r7, r8, r9, r10, r11, lr}
	.cfi_def_cfa_offset 48
	.cfi_offset lr, -4
	.cfi_offset r11, -8
	.cfi_offset r10, -12
	.cfi_offset r9, -16
	.cfi_offset r8, -20
	.cfi_offset r7, -24
	.cfi_offset r6, -28
	.cfi_offset r5, -32
	.cfi_offset r4, -36
	@DEBUG_VALUE: f_read:fp <- $r0
	@DEBUG_VALUE: f_read:buff <- $r1
	@DEBUG_VALUE: f_read:btr <- $r2
	@DEBUG_VALUE: f_read:br <- $r3
.Ltmp461:
	@DEBUG_VALUE: f_read:rbuff <- $r1
	mov	r4, r0
	movs	r0, #0
.Ltmp462:
	@DEBUG_VALUE: f_read:rbuff <- $r7
	@DEBUG_VALUE: f_read:br <- $r11
	@DEBUG_VALUE: f_read:btr <- $r6
	@DEBUG_VALUE: f_read:buff <- $r7
	@DEBUG_VALUE: f_read:fp <- $r4
	mov	r7, r1
.Ltmp463:
	add	r1, sp, #8
	mov	r11, r3
.Ltmp464:
	mov	r6, r2
.Ltmp465:
	.loc	2 3515 6 prologue_end   @ ../User/FATFS/ff.c:3515:6
	str	r0, [r3]
.Ltmp466:
	@DEBUG_VALUE: f_read:fs <- [DW_OP_plus_uconst 8, DW_OP_deref] $sp
	.loc	2 3516 8                @ ../User/FATFS/ff.c:3516:8
	mov	r0, r4
	bl	validate
.Ltmp467:
	@DEBUG_VALUE: f_read:res <- $r0
	.loc	2 3517 19               @ ../User/FATFS/ff.c:3517:19
	cmp	r0, #0
	bne.w	.LBB14_34
.Ltmp468:
@ %bb.1:
	@DEBUG_VALUE: f_read:res <- $r0
	@DEBUG_VALUE: f_read:fs <- [DW_OP_plus_uconst 8, DW_OP_deref] $sp
	@DEBUG_VALUE: f_read:fp <- $r4
	.loc	2 3517 42 is_stmt 0     @ ../User/FATFS/ff.c:3517:42
	ldrb	r0, [r4, #17]
.Ltmp469:
	@DEBUG_VALUE: f_read:res <- $r0
	.loc	2 3517 6                @ ../User/FATFS/ff.c:3517:6
	cmp	r0, #0
	bne.w	.LBB14_34
.Ltmp470:
@ %bb.2:
	@DEBUG_VALUE: f_read:res <- $r0
	@DEBUG_VALUE: f_read:fs <- [DW_OP_plus_uconst 8, DW_OP_deref] $sp
	@DEBUG_VALUE: f_read:fp <- $r4
	.loc	2 3518 12 is_stmt 1     @ ../User/FATFS/ff.c:3518:12
	ldrb	r0, [r4, #16]
.Ltmp471:
	.loc	2 3518 6 is_stmt 0      @ ../User/FATFS/ff.c:3518:6
	lsls	r0, r0, #31
	bne	.LBB14_4
.Ltmp472:
@ %bb.3:
	@DEBUG_VALUE: f_read:fs <- [DW_OP_plus_uconst 8, DW_OP_deref] $sp
	@DEBUG_VALUE: f_read:fp <- $r4
	.loc	2 0 6                   @ ../User/FATFS/ff.c:0:6
	movs	r0, #7
	b	.LBB14_34
.Ltmp473:
.LBB14_4:
	@DEBUG_VALUE: f_read:fs <- [DW_OP_plus_uconst 8, DW_OP_deref] $sp
	@DEBUG_VALUE: f_read:fp <- $r4
	.loc	2 3519 19 is_stmt 1     @ ../User/FATFS/ff.c:3519:19
	ldr	r1, [r4, #12]
	.loc	2 3519 33 is_stmt 0     @ ../User/FATFS/ff.c:3519:33
	ldr	r0, [r4, #20]
	.loc	2 3519 27               @ ../User/FATFS/ff.c:3519:27
	subs	r1, r1, r0
.Ltmp474:
	@DEBUG_VALUE: f_read:remain <- $r1
	.loc	2 3520 6 is_stmt 1      @ ../User/FATFS/ff.c:3520:6
	cmp	r1, r6
	it	lo
	movlo	r6, r1
.Ltmp475:
	@DEBUG_VALUE: f_read:remain <- $r6
	@DEBUG_VALUE: f_read:btr <- $r6
	.loc	2 0 6 is_stmt 0         @ ../User/FATFS/ff.c:0:6
	ldr.w	r9, [sp, #8]
.Ltmp476:
	@DEBUG_VALUE: f_read:fs <- $r9
	add.w	r1, r4, #40
	str	r1, [sp, #4]            @ 4-byte Spill
.Ltmp477:
.LBB14_5:                               @ =>This Inner Loop Header: Depth=1
	@DEBUG_VALUE: f_read:remain <- $r6
	@DEBUG_VALUE: f_read:fs <- $r9
	@DEBUG_VALUE: f_read:fp <- $r4
	@DEBUG_VALUE: f_read:btr <- $r6
	@DEBUG_VALUE: f_read:btr <- $r6
	@DEBUG_VALUE: f_read:rbuff <- $r7
	.loc	2 3522 2 is_stmt 1      @ ../User/FATFS/ff.c:3522:2
	cmp	r6, #0
	beq.w	.LBB14_30
.Ltmp478:
@ %bb.6:                                @   in Loop: Header=BB14_5 Depth=1
	@DEBUG_VALUE: f_read:remain <- $r6
	@DEBUG_VALUE: f_read:fs <- $r9
	@DEBUG_VALUE: f_read:fp <- $r4
	@DEBUG_VALUE: f_read:btr <- $r6
	@DEBUG_VALUE: f_read:rbuff <- $r7
	.loc	2 3524 16               @ ../User/FATFS/ff.c:3524:16
	mov	r1, r0
	bfc	r1, #9, #23
.Ltmp479:
	.loc	2 3524 7 is_stmt 0      @ ../User/FATFS/ff.c:3524:7
	cbz	r1, .LBB14_8
.Ltmp480:
.LBB14_7:                               @   in Loop: Header=BB14_5 Depth=1
	@DEBUG_VALUE: f_read:remain <- $r6
	@DEBUG_VALUE: f_read:fs <- $r9
	@DEBUG_VALUE: f_read:fp <- $r4
	@DEBUG_VALUE: f_read:btr <- $r6
	@DEBUG_VALUE: f_read:rbuff <- $r7
	.loc	2 3579 17 is_stmt 1     @ ../User/FATFS/ff.c:3579:17
	rsb.w	r5, r1, #512
.Ltmp481:
	@DEBUG_VALUE: f_read:rcnt <- $r5
	.loc	2 3585 26               @ ../User/FATFS/ff.c:3585:26
	adds	r0, r4, r1
	.loc	2 3580 7                @ ../User/FATFS/ff.c:3580:7
	cmp	r5, r6
	it	hi
	movhi	r5, r6
.Ltmp482:
	@DEBUG_VALUE: f_read:rcnt <- $r5
	.loc	2 3585 26               @ ../User/FATFS/ff.c:3585:26
	add.w	r1, r0, #40
	.loc	2 3585 3 is_stmt 0      @ ../User/FATFS/ff.c:3585:3
	mov	r0, r7
	mov	r2, r5
	bl	mem_cpy
	b	.LBB14_23
.Ltmp483:
.LBB14_8:                               @   in Loop: Header=BB14_5 Depth=1
	@DEBUG_VALUE: f_read:remain <- $r6
	@DEBUG_VALUE: f_read:fs <- $r9
	@DEBUG_VALUE: f_read:fp <- $r4
	@DEBUG_VALUE: f_read:btr <- $r6
	@DEBUG_VALUE: f_read:rbuff <- $r7
	.loc	2 3525 44 is_stmt 1     @ ../User/FATFS/ff.c:3525:44
	ldrh.w	r1, [r9, #10]
	.loc	2 3525 50 is_stmt 0     @ ../User/FATFS/ff.c:3525:50
	subs	r1, #1
	.loc	2 3525 37               @ ../User/FATFS/ff.c:3525:37
	and.w	r5, r1, r0, lsr #9
.Ltmp484:
	@DEBUG_VALUE: f_read:csect <- $r5
	.loc	2 3526 8 is_stmt 1      @ ../User/FATFS/ff.c:3526:8
	cbz	r5, .LBB14_10
.Ltmp485:
@ %bb.9:                                @   in Loop: Header=BB14_5 Depth=1
	@DEBUG_VALUE: f_read:remain <- $r6
	@DEBUG_VALUE: f_read:csect <- $r5
	@DEBUG_VALUE: f_read:fs <- $r9
	@DEBUG_VALUE: f_read:fp <- $r4
	@DEBUG_VALUE: f_read:btr <- $r6
	@DEBUG_VALUE: f_read:rbuff <- $r7
	.loc	2 3543 30               @ ../User/FATFS/ff.c:3543:30
	ldr	r1, [r4, #24]
	b	.LBB14_16
.Ltmp486:
.LBB14_10:                              @   in Loop: Header=BB14_5 Depth=1
	@DEBUG_VALUE: f_read:remain <- $r6
	@DEBUG_VALUE: f_read:csect <- $r5
	@DEBUG_VALUE: f_read:fs <- $r9
	@DEBUG_VALUE: f_read:fp <- $r4
	@DEBUG_VALUE: f_read:btr <- $r6
	@DEBUG_VALUE: f_read:rbuff <- $r7
	.loc	2 3527 9                @ ../User/FATFS/ff.c:3527:9
	cbz	r0, .LBB14_12
.Ltmp487:
@ %bb.11:                               @   in Loop: Header=BB14_5 Depth=1
	@DEBUG_VALUE: f_read:remain <- $r6
	@DEBUG_VALUE: f_read:csect <- $r5
	@DEBUG_VALUE: f_read:fs <- $r9
	@DEBUG_VALUE: f_read:fp <- $r4
	@DEBUG_VALUE: f_read:btr <- $r6
	@DEBUG_VALUE: f_read:rbuff <- $r7
	.loc	2 3536 36               @ ../User/FATFS/ff.c:3536:36
	ldr	r1, [r4, #24]
	.loc	2 3536 14 is_stmt 0     @ ../User/FATFS/ff.c:3536:14
	mov	r0, r4
	bl	get_fat
	mov	r1, r0
.Ltmp488:
	@DEBUG_VALUE: f_read:clst <- $r1
	.loc	2 0 14                  @ ../User/FATFS/ff.c:0:14
	b	.LBB14_13
.Ltmp489:
.LBB14_12:                              @   in Loop: Header=BB14_5 Depth=1
	@DEBUG_VALUE: f_read:remain <- $r6
	@DEBUG_VALUE: f_read:csect <- $r5
	@DEBUG_VALUE: f_read:fs <- $r9
	@DEBUG_VALUE: f_read:fp <- $r4
	@DEBUG_VALUE: f_read:btr <- $r6
	@DEBUG_VALUE: f_read:rbuff <- $r7
	.loc	2 3528 21 is_stmt 1     @ ../User/FATFS/ff.c:3528:21
	ldr	r1, [r4, #8]
.Ltmp490:
	@DEBUG_VALUE: f_read:clst <- $r1
.LBB14_13:                              @   in Loop: Header=BB14_5 Depth=1
	@DEBUG_VALUE: f_read:remain <- $r6
	@DEBUG_VALUE: f_read:clst <- $r1
	@DEBUG_VALUE: f_read:csect <- $r5
	@DEBUG_VALUE: f_read:fs <- $r9
	@DEBUG_VALUE: f_read:fp <- $r4
	@DEBUG_VALUE: f_read:btr <- $r6
	@DEBUG_VALUE: f_read:rbuff <- $r7
	@DEBUG_VALUE: f_read:clst <- $r1
	.loc	2 3539 9                @ ../User/FATFS/ff.c:3539:9
	cmp	r1, #1
	bls	.LBB14_31
.Ltmp491:
@ %bb.14:                               @   in Loop: Header=BB14_5 Depth=1
	@DEBUG_VALUE: f_read:remain <- $r6
	@DEBUG_VALUE: f_read:clst <- $r1
	@DEBUG_VALUE: f_read:csect <- $r5
	@DEBUG_VALUE: f_read:fs <- $r9
	@DEBUG_VALUE: f_read:fp <- $r4
	@DEBUG_VALUE: f_read:btr <- $r6
	@DEBUG_VALUE: f_read:rbuff <- $r7
	.loc	2 3540 9                @ ../User/FATFS/ff.c:3540:9
	adds	r0, r1, #1
	beq	.LBB14_32
.Ltmp492:
@ %bb.15:                               @   in Loop: Header=BB14_5 Depth=1
	@DEBUG_VALUE: f_read:remain <- $r6
	@DEBUG_VALUE: f_read:clst <- $r1
	@DEBUG_VALUE: f_read:csect <- $r5
	@DEBUG_VALUE: f_read:fs <- $r9
	@DEBUG_VALUE: f_read:fp <- $r4
	@DEBUG_VALUE: f_read:btr <- $r6
	@DEBUG_VALUE: f_read:rbuff <- $r7
	.loc	2 3541 15               @ ../User/FATFS/ff.c:3541:15
	str	r1, [r4, #24]
.Ltmp493:
.LBB14_16:                              @   in Loop: Header=BB14_5 Depth=1
	@DEBUG_VALUE: f_read:remain <- $r6
	@DEBUG_VALUE: f_read:csect <- $r5
	@DEBUG_VALUE: f_read:fs <- $r9
	@DEBUG_VALUE: f_read:fp <- $r4
	@DEBUG_VALUE: f_read:btr <- $r6
	@DEBUG_VALUE: f_read:rbuff <- $r7
	.loc	2 3543 11               @ ../User/FATFS/ff.c:3543:11
	mov	r0, r9
	bl	clust2sect
.Ltmp494:
	@DEBUG_VALUE: f_read:sect <- $r0
	.loc	2 3544 8                @ ../User/FATFS/ff.c:3544:8
	cmp	r0, #0
	beq	.LBB14_31
.Ltmp495:
@ %bb.17:                               @   in Loop: Header=BB14_5 Depth=1
	@DEBUG_VALUE: f_read:remain <- $r6
	@DEBUG_VALUE: f_read:sect <- $r0
	@DEBUG_VALUE: f_read:csect <- $r5
	@DEBUG_VALUE: f_read:fs <- $r9
	@DEBUG_VALUE: f_read:fp <- $r4
	@DEBUG_VALUE: f_read:btr <- $r6
	@DEBUG_VALUE: f_read:rbuff <- $r7
	.loc	2 3545 9                @ ../User/FATFS/ff.c:3545:9
	add.w	r10, r0, r5
.Ltmp496:
	@DEBUG_VALUE: f_read:sect <- $r10
	.loc	2 3547 8                @ ../User/FATFS/ff.c:3547:8
	movs	r0, #0
	cmp.w	r0, r6, lsr #9
	beq	.LBB14_24
.Ltmp497:
@ %bb.18:                               @   in Loop: Header=BB14_5 Depth=1
	@DEBUG_VALUE: f_read:remain <- $r6
	@DEBUG_VALUE: f_read:sect <- $r10
	@DEBUG_VALUE: f_read:csect <- $r5
	@DEBUG_VALUE: f_read:fs <- $r9
	@DEBUG_VALUE: f_read:fp <- $r4
	@DEBUG_VALUE: f_read:btr <- $r6
	@DEBUG_VALUE: f_read:rbuff <- $r7
	.loc	2 0 0 is_stmt 0         @ ../User/FATFS/ff.c:0:0
	lsr.w	r8, r6, #9
.Ltmp498:
	@DEBUG_VALUE: f_read:cc <- $r8
	.loc	2 3548 26 is_stmt 1     @ ../User/FATFS/ff.c:3548:26
	ldrh.w	r1, [r9, #10]
.Ltmp499:
	.loc	2 3551 9                @ ../User/FATFS/ff.c:3551:9
	mov	r2, r10
.Ltmp500:
	.loc	2 3548 15               @ ../User/FATFS/ff.c:3548:15
	add.w	r0, r5, r8
.Ltmp501:
	.loc	2 3548 9 is_stmt 0      @ ../User/FATFS/ff.c:3548:9
	cmp	r0, r1
	it	hi
	subhi.w	r8, r1, r5
.Ltmp502:
	@DEBUG_VALUE: f_read:cc <- $r8
	.loc	2 3551 23 is_stmt 1     @ ../User/FATFS/ff.c:3551:23
	ldrb.w	r0, [r9, #1]
	.loc	2 3551 9 is_stmt 0      @ ../User/FATFS/ff.c:3551:9
	uxtb.w	r3, r8
	mov	r1, r7
	bl	disk_read
.Ltmp503:
	.loc	2 3551 9                @ ../User/FATFS/ff.c:3551:9
	cmp	r0, #0
	bne	.LBB14_32
.Ltmp504:
@ %bb.19:                               @   in Loop: Header=BB14_5 Depth=1
	@DEBUG_VALUE: f_read:remain <- $r6
	@DEBUG_VALUE: f_read:cc <- $r8
	@DEBUG_VALUE: f_read:sect <- $r10
	@DEBUG_VALUE: f_read:csect <- $r5
	@DEBUG_VALUE: f_read:fs <- $r9
	@DEBUG_VALUE: f_read:fp <- $r4
	@DEBUG_VALUE: f_read:btr <- $r6
	@DEBUG_VALUE: f_read:rbuff <- $r7
	.loc	2 3558 14 is_stmt 1     @ ../User/FATFS/ff.c:3558:14
	ldrsb.w	r0, [r4, #16]
	.loc	2 3558 31 is_stmt 0     @ ../User/FATFS/ff.c:3558:31
	cmp.w	r0, #-1
	bgt	.LBB14_22
.Ltmp505:
@ %bb.20:                               @   in Loop: Header=BB14_5 Depth=1
	@DEBUG_VALUE: f_read:remain <- $r6
	@DEBUG_VALUE: f_read:cc <- $r8
	@DEBUG_VALUE: f_read:sect <- $r10
	@DEBUG_VALUE: f_read:csect <- $r5
	@DEBUG_VALUE: f_read:fs <- $r9
	@DEBUG_VALUE: f_read:fp <- $r4
	@DEBUG_VALUE: f_read:btr <- $r6
	@DEBUG_VALUE: f_read:rbuff <- $r7
	.loc	2 3558 38               @ ../User/FATFS/ff.c:3558:38
	ldr	r0, [r4, #28]
	.loc	2 3558 43               @ ../User/FATFS/ff.c:3558:43
	sub.w	r0, r0, r10
.Ltmp506:
	.loc	2 3558 9                @ ../User/FATFS/ff.c:3558:9
	cmp	r0, r8
	bhs	.LBB14_22
.Ltmp507:
@ %bb.21:                               @   in Loop: Header=BB14_5 Depth=1
	@DEBUG_VALUE: f_read:remain <- $r6
	@DEBUG_VALUE: f_read:cc <- $r8
	@DEBUG_VALUE: f_read:sect <- $r10
	@DEBUG_VALUE: f_read:csect <- $r5
	@DEBUG_VALUE: f_read:fs <- $r9
	@DEBUG_VALUE: f_read:fp <- $r4
	@DEBUG_VALUE: f_read:btr <- $r6
	@DEBUG_VALUE: f_read:rbuff <- $r7
	.loc	2 3559 6 is_stmt 1      @ ../User/FATFS/ff.c:3559:6
	ldr	r1, [sp, #4]            @ 4-byte Reload
	.loc	2 3559 20 is_stmt 0     @ ../User/FATFS/ff.c:3559:20
	add.w	r0, r7, r0, lsl #9
	.loc	2 3559 6                @ ../User/FATFS/ff.c:3559:6
	mov.w	r2, #512
	bl	mem_cpy
.Ltmp508:
.LBB14_22:                              @   in Loop: Header=BB14_5 Depth=1
	@DEBUG_VALUE: f_read:remain <- $r6
	@DEBUG_VALUE: f_read:cc <- $r8
	@DEBUG_VALUE: f_read:sect <- $r10
	@DEBUG_VALUE: f_read:csect <- $r5
	@DEBUG_VALUE: f_read:fs <- $r9
	@DEBUG_VALUE: f_read:fp <- $r4
	@DEBUG_VALUE: f_read:btr <- $r6
	@DEBUG_VALUE: f_read:rbuff <- $r7
	.loc	2 3563 19 is_stmt 1     @ ../User/FATFS/ff.c:3563:19
	lsl.w	r5, r8, #9
.Ltmp509:
	@DEBUG_VALUE: f_read:rcnt <- $r5
.LBB14_23:                              @   in Loop: Header=BB14_5 Depth=1
	@DEBUG_VALUE: f_read:remain <- $r6
	@DEBUG_VALUE: f_read:rcnt <- $r5
	@DEBUG_VALUE: f_read:fs <- $r9
	@DEBUG_VALUE: f_read:fp <- $r4
	@DEBUG_VALUE: f_read:btr <- $r6
	@DEBUG_VALUE: f_read:rbuff <- $r7
	@DEBUG_VALUE: f_read:rcnt <- $r5
	.loc	2 3523 27               @ ../User/FATFS/ff.c:3523:27
	ldr	r0, [r4, #20]
	.loc	2 3523 53 is_stmt 0     @ ../User/FATFS/ff.c:3523:53
	subs	r6, r6, r5
.Ltmp510:
	@DEBUG_VALUE: f_read:btr <- $r6
	.loc	2 3523 9                @ ../User/FATFS/ff.c:3523:9
	add	r7, r5
.Ltmp511:
	@DEBUG_VALUE: f_read:rbuff <- $r7
	.loc	2 3523 27               @ ../User/FATFS/ff.c:3523:27
	add	r0, r5
	str	r0, [r4, #20]
	.loc	2 3523 40               @ ../User/FATFS/ff.c:3523:40
	ldr.w	r1, [r11]
	add	r1, r5
	str.w	r1, [r11]
	b	.LBB14_5
.Ltmp512:
.LBB14_24:                              @   in Loop: Header=BB14_5 Depth=1
	@DEBUG_VALUE: f_read:remain <- $r6
	@DEBUG_VALUE: f_read:sect <- $r10
	@DEBUG_VALUE: f_read:csect <- $r5
	@DEBUG_VALUE: f_read:fs <- $r9
	@DEBUG_VALUE: f_read:fp <- $r4
	@DEBUG_VALUE: f_read:btr <- $r6
	@DEBUG_VALUE: f_read:rbuff <- $r7
	.loc	2 3567 12 is_stmt 1     @ ../User/FATFS/ff.c:3567:12
	ldr	r2, [r4, #28]
.Ltmp513:
	.loc	2 3567 8 is_stmt 0      @ ../User/FATFS/ff.c:3567:8
	cmp	r2, r10
	beq	.LBB14_29
.Ltmp514:
@ %bb.25:                               @   in Loop: Header=BB14_5 Depth=1
	@DEBUG_VALUE: f_read:remain <- $r6
	@DEBUG_VALUE: f_read:sect <- $r10
	@DEBUG_VALUE: f_read:csect <- $r5
	@DEBUG_VALUE: f_read:fs <- $r9
	@DEBUG_VALUE: f_read:fp <- $r4
	@DEBUG_VALUE: f_read:btr <- $r6
	@DEBUG_VALUE: f_read:rbuff <- $r7
	.loc	2 3569 13 is_stmt 1     @ ../User/FATFS/ff.c:3569:13
	ldrsb.w	r0, [r4, #16]
.Ltmp515:
	.loc	2 3569 9 is_stmt 0      @ ../User/FATFS/ff.c:3569:9
	cmp.w	r0, #-1
	bgt	.LBB14_28
.Ltmp516:
@ %bb.26:                               @   in Loop: Header=BB14_5 Depth=1
	@DEBUG_VALUE: f_read:remain <- $r6
	@DEBUG_VALUE: f_read:sect <- $r10
	@DEBUG_VALUE: f_read:csect <- $r5
	@DEBUG_VALUE: f_read:fs <- $r9
	@DEBUG_VALUE: f_read:fp <- $r4
	@DEBUG_VALUE: f_read:btr <- $r6
	@DEBUG_VALUE: f_read:rbuff <- $r7
	.loc	2 3570 25 is_stmt 1     @ ../User/FATFS/ff.c:3570:25
	ldrb.w	r0, [r9, #1]
	.loc	2 3570 10 is_stmt 0     @ ../User/FATFS/ff.c:3570:10
	ldr	r1, [sp, #4]            @ 4-byte Reload
	movs	r3, #1
	bl	disk_write
.Ltmp517:
	.loc	2 3570 10               @ ../User/FATFS/ff.c:3570:10
	cbnz	r0, .LBB14_32
.Ltmp518:
@ %bb.27:                               @   in Loop: Header=BB14_5 Depth=1
	@DEBUG_VALUE: f_read:remain <- $r6
	@DEBUG_VALUE: f_read:sect <- $r10
	@DEBUG_VALUE: f_read:csect <- $r5
	@DEBUG_VALUE: f_read:fs <- $r9
	@DEBUG_VALUE: f_read:fp <- $r4
	@DEBUG_VALUE: f_read:btr <- $r6
	@DEBUG_VALUE: f_read:rbuff <- $r7
	.loc	2 3571 15 is_stmt 1     @ ../User/FATFS/ff.c:3571:15
	ldrb	r0, [r4, #16]
	and	r0, r0, #127
	strb	r0, [r4, #16]
.Ltmp519:
.LBB14_28:                              @   in Loop: Header=BB14_5 Depth=1
	@DEBUG_VALUE: f_read:remain <- $r6
	@DEBUG_VALUE: f_read:sect <- $r10
	@DEBUG_VALUE: f_read:csect <- $r5
	@DEBUG_VALUE: f_read:fs <- $r9
	@DEBUG_VALUE: f_read:fp <- $r4
	@DEBUG_VALUE: f_read:btr <- $r6
	@DEBUG_VALUE: f_read:rbuff <- $r7
	.loc	2 3574 23               @ ../User/FATFS/ff.c:3574:23
	ldrb.w	r0, [r9, #1]
	.loc	2 3574 9 is_stmt 0      @ ../User/FATFS/ff.c:3574:9
	ldr	r1, [sp, #4]            @ 4-byte Reload
	mov	r2, r10
	movs	r3, #1
	bl	disk_read
.Ltmp520:
	.loc	2 3574 9                @ ../User/FATFS/ff.c:3574:9
	cbnz	r0, .LBB14_32
.Ltmp521:
.LBB14_29:                              @   in Loop: Header=BB14_5 Depth=1
	@DEBUG_VALUE: f_read:remain <- $r6
	@DEBUG_VALUE: f_read:sect <- $r10
	@DEBUG_VALUE: f_read:csect <- $r5
	@DEBUG_VALUE: f_read:fs <- $r9
	@DEBUG_VALUE: f_read:fp <- $r4
	@DEBUG_VALUE: f_read:btr <- $r6
	@DEBUG_VALUE: f_read:rbuff <- $r7
	.loc	2 3577 13 is_stmt 1     @ ../User/FATFS/ff.c:3577:13
	str.w	r10, [r4, #28]
.Ltmp522:
	.loc	2 3579 29               @ ../User/FATFS/ff.c:3579:29
	ldr	r1, [r4, #20]
	.loc	2 3579 34 is_stmt 0     @ ../User/FATFS/ff.c:3579:34
	bfc	r1, #9, #23
	b	.LBB14_7
.Ltmp523:
.LBB14_30:
	@DEBUG_VALUE: f_read:remain <- $r6
	@DEBUG_VALUE: f_read:fs <- $r9
	@DEBUG_VALUE: f_read:fp <- $r4
	@DEBUG_VALUE: f_read:btr <- $r6
	@DEBUG_VALUE: f_read:rbuff <- $r7
	.loc	2 0 34                  @ ../User/FATFS/ff.c:0:34
	movs	r0, #0
	b	.LBB14_34
.Ltmp524:
.LBB14_31:
	@DEBUG_VALUE: f_read:remain <- $r6
	@DEBUG_VALUE: f_read:csect <- $r5
	@DEBUG_VALUE: f_read:fs <- $r9
	@DEBUG_VALUE: f_read:fp <- $r4
	@DEBUG_VALUE: f_read:btr <- $r6
	@DEBUG_VALUE: f_read:rbuff <- $r7
	movs	r0, #2
	b	.LBB14_33
.Ltmp525:
.LBB14_32:
	@DEBUG_VALUE: f_read:remain <- $r6
	@DEBUG_VALUE: f_read:csect <- $r5
	@DEBUG_VALUE: f_read:fs <- $r9
	@DEBUG_VALUE: f_read:fp <- $r4
	@DEBUG_VALUE: f_read:btr <- $r6
	@DEBUG_VALUE: f_read:rbuff <- $r7
	movs	r0, #1
.Ltmp526:
.LBB14_33:
	@DEBUG_VALUE: f_read:remain <- $r6
	@DEBUG_VALUE: f_read:csect <- $r5
	@DEBUG_VALUE: f_read:fs <- $r9
	@DEBUG_VALUE: f_read:fp <- $r4
	@DEBUG_VALUE: f_read:btr <- $r6
	@DEBUG_VALUE: f_read:rbuff <- $r7
	strb	r0, [r4, #17]
.Ltmp527:
.LBB14_34:
	@DEBUG_VALUE: f_read:fp <- $r4
	.loc	2 3590 1 is_stmt 1      @ ../User/FATFS/ff.c:3590:1
	add	sp, #12
	pop.w	{r4, r5, r6, r7, r8, r9, r10, r11, pc}
.Ltmp528:
.Lfunc_end14:
	.size	f_read, .Lfunc_end14-f_read
	.cfi_endproc
	.cantunwind
	.fnend
                                        @ -- End function
	.section	.text.validate,"ax",%progbits
	.p2align	1               @ -- Begin function validate
	.type	validate,%function
	.code	16                      @ @validate
	.thumb_func
validate:
.Lfunc_begin15:
	.loc	2 3220 0                @ ../User/FATFS/ff.c:3220:0
	.fnstart
	.cfi_startproc
@ %bb.0:
	.save	{r4, r5, r7, lr}
	push	{r4, r5, r7, lr}
	.cfi_def_cfa_offset 16
	.cfi_offset lr, -4
	.cfi_offset r7, -8
	.cfi_offset r5, -12
	.cfi_offset r4, -16
	@DEBUG_VALUE: validate:obj <- $r0
	@DEBUG_VALUE: validate:fs <- $r1
	mov	r4, r1
.Ltmp529:
	@DEBUG_VALUE: validate:fs <- $r4
	.loc	2 3223 11 prologue_end  @ ../User/FATFS/ff.c:3223:11
	cbz	r0, .LBB15_6
.Ltmp530:
@ %bb.1:
	@DEBUG_VALUE: validate:fs <- $r4
	@DEBUG_VALUE: validate:obj <- $r0
	.loc	2 0 11 is_stmt 0        @ ../User/FATFS/ff.c:0:11
	mov	r5, r0
.Ltmp531:
	@DEBUG_VALUE: validate:obj <- $r5
	.loc	2 3223 20               @ ../User/FATFS/ff.c:3223:20
	ldr	r0, [r0]
	.loc	2 3223 23               @ ../User/FATFS/ff.c:3223:23
	cbz	r0, .LBB15_6
.Ltmp532:
@ %bb.2:
	@DEBUG_VALUE: validate:obj <- $r5
	@DEBUG_VALUE: validate:fs <- $r4
	.loc	2 3223 36               @ ../User/FATFS/ff.c:3223:36
	ldrb	r1, [r0]
	.loc	2 3223 44               @ ../User/FATFS/ff.c:3223:44
	cbz	r1, .LBB15_6
.Ltmp533:
@ %bb.3:
	@DEBUG_VALUE: validate:obj <- $r5
	@DEBUG_VALUE: validate:fs <- $r4
	.loc	2 3223 67               @ ../User/FATFS/ff.c:3223:67
	ldrh	r1, [r5, #4]
	.loc	2 3223 56               @ ../User/FATFS/ff.c:3223:56
	ldrh	r2, [r0, #6]
	.loc	2 3223 70               @ ../User/FATFS/ff.c:3223:70
	cmp	r2, r1
	bne	.LBB15_6
.Ltmp534:
@ %bb.4:
	@DEBUG_VALUE: validate:obj <- $r5
	@DEBUG_VALUE: validate:fs <- $r4
	.loc	2 3223 95               @ ../User/FATFS/ff.c:3223:95
	ldrb	r0, [r0, #1]
	.loc	2 3223 74               @ ../User/FATFS/ff.c:3223:74
	bl	disk_status
.Ltmp535:
	.loc	2 3223 6                @ ../User/FATFS/ff.c:3223:6
	lsls	r0, r0, #31
	bne	.LBB15_6
.Ltmp536:
@ %bb.5:
	@DEBUG_VALUE: validate:obj <- $r5
	@DEBUG_VALUE: validate:fs <- $r4
	.loc	2 3227 14 is_stmt 1     @ ../User/FATFS/ff.c:3227:14
	ldr	r1, [r5]
	movs	r0, #0
.Ltmp537:
	@DEBUG_VALUE: validate:res <- 0
	.loc	2 0 14 is_stmt 0        @ ../User/FATFS/ff.c:0:14
	b	.LBB15_7
.Ltmp538:
.LBB15_6:
	@DEBUG_VALUE: validate:fs <- $r4
	movs	r0, #9
	movs	r1, #0
.Ltmp539:
.LBB15_7:
	@DEBUG_VALUE: validate:fs <- $r4
	@DEBUG_VALUE: validate:res <- $r0
	str	r1, [r4]
.Ltmp540:
	.loc	2 3231 2 is_stmt 1      @ ../User/FATFS/ff.c:3231:2
	pop	{r4, r5, r7, pc}
.Ltmp541:
.Lfunc_end15:
	.size	validate, .Lfunc_end15-validate
	.cfi_endproc
	.cantunwind
	.fnend
                                        @ -- End function
	.section	.text.mem_cpy,"ax",%progbits
	.p2align	1               @ -- Begin function mem_cpy
	.type	mem_cpy,%function
	.code	16                      @ @mem_cpy
	.thumb_func
mem_cpy:
.Lfunc_begin16:
	.loc	2 693 0                 @ ../User/FATFS/ff.c:693:0
	.fnstart
	.cfi_startproc
@ %bb.0:
	@DEBUG_VALUE: mem_cpy:dst <- $r0
	@DEBUG_VALUE: mem_cpy:dst <- $r0
	@DEBUG_VALUE: mem_cpy:src <- $r1
	@DEBUG_VALUE: mem_cpy:src <- $r1
	@DEBUG_VALUE: mem_cpy:cnt <- $r2
	@DEBUG_VALUE: mem_cpy:cnt <- $r2
	@DEBUG_VALUE: mem_cpy:d <- $r0
	@DEBUG_VALUE: mem_cpy:d <- $r0
	@DEBUG_VALUE: mem_cpy:s <- $r1
	@DEBUG_VALUE: mem_cpy:s <- $r1
	.loc	2 697 6 prologue_end    @ ../User/FATFS/ff.c:697:6
	cbz	r2, .LBB16_2
.Ltmp542:
.LBB16_1:                               @ =>This Inner Loop Header: Depth=1
	@DEBUG_VALUE: mem_cpy:s <- $r1
	@DEBUG_VALUE: mem_cpy:d <- $r0
	@DEBUG_VALUE: mem_cpy:cnt <- $r2
	@DEBUG_VALUE: mem_cpy:src <- $r1
	@DEBUG_VALUE: mem_cpy:dst <- $r0
	@DEBUG_VALUE: mem_cpy:cnt <- $r2
	@DEBUG_VALUE: mem_cpy:d <- $r0
	@DEBUG_VALUE: mem_cpy:s <- $r1
	.loc	2 699 11                @ ../User/FATFS/ff.c:699:11
	ldrb	r3, [r1], #1
.Ltmp543:
	.loc	2 700 12                @ ../User/FATFS/ff.c:700:12
	subs	r2, #1
.Ltmp544:
	@DEBUG_VALUE: mem_cpy:cnt <- $r2
	.loc	2 699 9                 @ ../User/FATFS/ff.c:699:9
	strb	r3, [r0], #1
.Ltmp545:
	.loc	2 700 3                 @ ../User/FATFS/ff.c:700:3
	bne	.LBB16_1
.Ltmp546:
.LBB16_2:
	@DEBUG_VALUE: mem_cpy:cnt <- $r2
	.loc	2 702 1                 @ ../User/FATFS/ff.c:702:1
	bx	lr
.Ltmp547:
.Lfunc_end16:
	.size	mem_cpy, .Lfunc_end16-mem_cpy
	.cfi_endproc
	.cantunwind
	.fnend
                                        @ -- End function
	.section	.text.f_write,"ax",%progbits
	.hidden	f_write                 @ -- Begin function f_write
	.globl	f_write
	.p2align	1
	.type	f_write,%function
	.code	16                      @ @f_write
	.thumb_func
f_write:
.Lfunc_begin17:
	.loc	2 3606 0                @ ../User/FATFS/ff.c:3606:0
	.fnstart
	.cfi_startproc
@ %bb.0:
	.save	{r4, r5, r6, r7, r8, r9, r10, r11, lr}
	.pad	#12
	push.w	{r1, r2, r3, r4, r5, r6, r7, r8, r9, r10, r11, lr}
	.cfi_def_cfa_offset 48
	.cfi_offset lr, -4
	.cfi_offset r11, -8
	.cfi_offset r10, -12
	.cfi_offset r9, -16
	.cfi_offset r8, -20
	.cfi_offset r7, -24
	.cfi_offset r6, -28
	.cfi_offset r5, -32
	.cfi_offset r4, -36
	@DEBUG_VALUE: f_write:fp <- $r0
	@DEBUG_VALUE: f_write:buff <- $r1
	@DEBUG_VALUE: f_write:btw <- $r2
	@DEBUG_VALUE: f_write:bw <- $r3
.Ltmp548:
	@DEBUG_VALUE: f_write:wbuff <- $r1
	mov	r4, r0
	movs	r0, #0
.Ltmp549:
	@DEBUG_VALUE: f_write:wbuff <- $r7
	@DEBUG_VALUE: f_write:bw <- $r10
	@DEBUG_VALUE: f_write:btw <- $r6
	@DEBUG_VALUE: f_write:buff <- $r7
	@DEBUG_VALUE: f_write:fp <- $r4
	mov	r7, r1
.Ltmp550:
	add	r1, sp, #8
	mov	r10, r3
.Ltmp551:
	mov	r6, r2
.Ltmp552:
	.loc	2 3614 6 prologue_end   @ ../User/FATFS/ff.c:3614:6
	str	r0, [r3]
.Ltmp553:
	@DEBUG_VALUE: f_write:fs <- [DW_OP_plus_uconst 8, DW_OP_deref] $sp
	.loc	2 3615 8                @ ../User/FATFS/ff.c:3615:8
	mov	r0, r4
	bl	validate
.Ltmp554:
	@DEBUG_VALUE: f_write:res <- $r0
	.loc	2 3616 19               @ ../User/FATFS/ff.c:3616:19
	cmp	r0, #0
	bne.w	.LBB17_36
.Ltmp555:
@ %bb.1:
	@DEBUG_VALUE: f_write:res <- $r0
	@DEBUG_VALUE: f_write:fs <- [DW_OP_plus_uconst 8, DW_OP_deref] $sp
	@DEBUG_VALUE: f_write:fp <- $r4
	.loc	2 3616 42 is_stmt 0     @ ../User/FATFS/ff.c:3616:42
	ldrb	r0, [r4, #17]
.Ltmp556:
	@DEBUG_VALUE: f_write:res <- $r0
	.loc	2 3616 6                @ ../User/FATFS/ff.c:3616:6
	cmp	r0, #0
	bne.w	.LBB17_36
.Ltmp557:
@ %bb.2:
	@DEBUG_VALUE: f_write:res <- $r0
	@DEBUG_VALUE: f_write:fs <- [DW_OP_plus_uconst 8, DW_OP_deref] $sp
	@DEBUG_VALUE: f_write:fp <- $r4
	.loc	2 3617 12 is_stmt 1     @ ../User/FATFS/ff.c:3617:12
	ldrb	r0, [r4, #16]
.Ltmp558:
	.loc	2 3617 6 is_stmt 0      @ ../User/FATFS/ff.c:3617:6
	lsls	r0, r0, #30
	bmi	.LBB17_4
.Ltmp559:
@ %bb.3:
	@DEBUG_VALUE: f_write:fs <- [DW_OP_plus_uconst 8, DW_OP_deref] $sp
	@DEBUG_VALUE: f_write:fp <- $r4
	.loc	2 0 6                   @ ../User/FATFS/ff.c:0:6
	movs	r0, #7
	b	.LBB17_36
.Ltmp560:
.LBB17_4:
	@DEBUG_VALUE: f_write:fs <- [DW_OP_plus_uconst 8, DW_OP_deref] $sp
	@DEBUG_VALUE: f_write:fp <- $r4
	.loc	2 3620 61 is_stmt 1     @ ../User/FATFS/ff.c:3620:61
	ldr	r0, [r4, #20]
	.loc	2 3620 73 is_stmt 0     @ ../User/FATFS/ff.c:3620:73
	mvns	r1, r0
.Ltmp561:
	.loc	2 3620 6                @ ../User/FATFS/ff.c:3620:6
	cmp	r1, r6
	it	lo
	movlo	r6, r1
.Ltmp562:
	@DEBUG_VALUE: f_write:btw <- $r6
	.loc	2 0 6                   @ ../User/FATFS/ff.c:0:6
	ldr.w	r9, [sp, #8]
.Ltmp563:
	@DEBUG_VALUE: f_write:fs <- $r9
	add.w	r1, r4, #40
	str	r1, [sp, #4]            @ 4-byte Spill
.Ltmp564:
.LBB17_5:                               @ =>This Inner Loop Header: Depth=1
	@DEBUG_VALUE: f_write:fs <- $r9
	@DEBUG_VALUE: f_write:fp <- $r4
	@DEBUG_VALUE: f_write:btw <- $r6
	@DEBUG_VALUE: f_write:btw <- $r6
	@DEBUG_VALUE: f_write:wbuff <- $r7
	.loc	2 3624 2 is_stmt 1      @ ../User/FATFS/ff.c:3624:2
	cmp	r6, #0
	beq.w	.LBB17_32
.Ltmp565:
@ %bb.6:                                @   in Loop: Header=BB17_5 Depth=1
	@DEBUG_VALUE: f_write:fs <- $r9
	@DEBUG_VALUE: f_write:fp <- $r4
	@DEBUG_VALUE: f_write:btw <- $r6
	@DEBUG_VALUE: f_write:wbuff <- $r7
	.loc	2 3626 16               @ ../User/FATFS/ff.c:3626:16
	mov	r1, r0
	bfc	r1, #9, #23
.Ltmp566:
	.loc	2 3626 7 is_stmt 0      @ ../User/FATFS/ff.c:3626:7
	cbz	r1, .LBB17_8
.Ltmp567:
.LBB17_7:                               @   in Loop: Header=BB17_5 Depth=1
	@DEBUG_VALUE: f_write:fs <- $r9
	@DEBUG_VALUE: f_write:fp <- $r4
	@DEBUG_VALUE: f_write:btw <- $r6
	@DEBUG_VALUE: f_write:wbuff <- $r7
	.loc	2 3704 19 is_stmt 1     @ ../User/FATFS/ff.c:3704:19
	adds	r0, r4, r1
	.loc	2 3697 17               @ ../User/FATFS/ff.c:3697:17
	rsb.w	r5, r1, #512
.Ltmp568:
	@DEBUG_VALUE: f_write:wcnt <- $r5
	.loc	2 3704 3                @ ../User/FATFS/ff.c:3704:3
	mov	r1, r7
	.loc	2 3698 7                @ ../User/FATFS/ff.c:3698:7
	cmp	r5, r6
	it	hi
	movhi	r5, r6
.Ltmp569:
	@DEBUG_VALUE: f_write:wcnt <- $r5
	.loc	2 3704 19               @ ../User/FATFS/ff.c:3704:19
	adds	r0, #40
	.loc	2 3704 3 is_stmt 0      @ ../User/FATFS/ff.c:3704:3
	mov	r2, r5
	bl	mem_cpy
	.loc	2 3705 12 is_stmt 1     @ ../User/FATFS/ff.c:3705:12
	ldrb	r0, [r4, #16]
	orr	r0, r0, #128
	strb	r0, [r4, #16]
	b	.LBB17_26
.Ltmp570:
.LBB17_8:                               @   in Loop: Header=BB17_5 Depth=1
	@DEBUG_VALUE: f_write:fs <- $r9
	@DEBUG_VALUE: f_write:fp <- $r4
	@DEBUG_VALUE: f_write:btw <- $r6
	@DEBUG_VALUE: f_write:wbuff <- $r7
	.loc	2 3627 45               @ ../User/FATFS/ff.c:3627:45
	ldrh.w	r1, [r9, #10]
	.loc	2 3627 51 is_stmt 0     @ ../User/FATFS/ff.c:3627:51
	subs	r1, #1
	.loc	2 3627 38               @ ../User/FATFS/ff.c:3627:38
	and.w	r11, r1, r0, lsr #9
.Ltmp571:
	@DEBUG_VALUE: f_write:csect <- $r11
	.loc	2 3628 8 is_stmt 1      @ ../User/FATFS/ff.c:3628:8
	cmp.w	r11, #0
	bne	.LBB17_17
.Ltmp572:
@ %bb.9:                                @   in Loop: Header=BB17_5 Depth=1
	@DEBUG_VALUE: f_write:csect <- $r11
	@DEBUG_VALUE: f_write:fs <- $r9
	@DEBUG_VALUE: f_write:fp <- $r4
	@DEBUG_VALUE: f_write:btw <- $r6
	@DEBUG_VALUE: f_write:wbuff <- $r7
	.loc	2 3629 9                @ ../User/FATFS/ff.c:3629:9
	cbz	r0, .LBB17_12
.Ltmp573:
@ %bb.10:                               @   in Loop: Header=BB17_5 Depth=1
	@DEBUG_VALUE: f_write:csect <- $r11
	@DEBUG_VALUE: f_write:fs <- $r9
	@DEBUG_VALUE: f_write:fp <- $r4
	@DEBUG_VALUE: f_write:btw <- $r6
	@DEBUG_VALUE: f_write:wbuff <- $r7
	.loc	2 3641 41               @ ../User/FATFS/ff.c:3641:41
	ldr	r1, [r4, #24]
.Ltmp574:
.LBB17_11:                              @   in Loop: Header=BB17_5 Depth=1
	@DEBUG_VALUE: f_write:csect <- $r11
	@DEBUG_VALUE: f_write:fs <- $r9
	@DEBUG_VALUE: f_write:fp <- $r4
	@DEBUG_VALUE: f_write:btw <- $r6
	@DEBUG_VALUE: f_write:wbuff <- $r7
	.loc	2 0 0 is_stmt 0         @ ../User/FATFS/ff.c:0:0
	mov	r0, r4
	bl	create_chain
.Ltmp575:
	@DEBUG_VALUE: f_write:clst <- $r0
	.loc	2 3644 9 is_stmt 1      @ ../User/FATFS/ff.c:3644:9
	cbnz	r0, .LBB17_13
	b	.LBB17_32
.Ltmp576:
.LBB17_12:                              @   in Loop: Header=BB17_5 Depth=1
	@DEBUG_VALUE: f_write:csect <- $r11
	@DEBUG_VALUE: f_write:fs <- $r9
	@DEBUG_VALUE: f_write:fp <- $r4
	@DEBUG_VALUE: f_write:btw <- $r6
	@DEBUG_VALUE: f_write:wbuff <- $r7
	.loc	2 3630 21               @ ../User/FATFS/ff.c:3630:21
	ldr	r0, [r4, #8]
.Ltmp577:
	@DEBUG_VALUE: f_write:clst <- $r0
	.loc	2 3631 10               @ ../User/FATFS/ff.c:3631:10
	cmp	r0, #0
	beq	.LBB17_31
.Ltmp578:
.LBB17_13:                              @   in Loop: Header=BB17_5 Depth=1
	@DEBUG_VALUE: f_write:clst <- $r0
	@DEBUG_VALUE: f_write:csect <- $r11
	@DEBUG_VALUE: f_write:fs <- $r9
	@DEBUG_VALUE: f_write:fp <- $r4
	@DEBUG_VALUE: f_write:btw <- $r6
	@DEBUG_VALUE: f_write:wbuff <- $r7
	.loc	2 3645 9                @ ../User/FATFS/ff.c:3645:9
	adds	r1, r0, #1
	beq	.LBB17_34
.Ltmp579:
@ %bb.14:                               @   in Loop: Header=BB17_5 Depth=1
	@DEBUG_VALUE: f_write:clst <- $r0
	@DEBUG_VALUE: f_write:csect <- $r11
	@DEBUG_VALUE: f_write:fs <- $r9
	@DEBUG_VALUE: f_write:fp <- $r4
	@DEBUG_VALUE: f_write:btw <- $r6
	@DEBUG_VALUE: f_write:wbuff <- $r7
	cmp	r0, #1
	beq	.LBB17_33
.Ltmp580:
@ %bb.15:                               @   in Loop: Header=BB17_5 Depth=1
	@DEBUG_VALUE: f_write:clst <- $r0
	@DEBUG_VALUE: f_write:csect <- $r11
	@DEBUG_VALUE: f_write:fs <- $r9
	@DEBUG_VALUE: f_write:fp <- $r4
	@DEBUG_VALUE: f_write:btw <- $r6
	@DEBUG_VALUE: f_write:wbuff <- $r7
	.loc	2 3647 15               @ ../User/FATFS/ff.c:3647:15
	str	r0, [r4, #24]
.Ltmp581:
	.loc	2 3648 17               @ ../User/FATFS/ff.c:3648:17
	ldr	r1, [r4, #8]
.Ltmp582:
	.loc	2 3648 9 is_stmt 0      @ ../User/FATFS/ff.c:3648:9
	cbnz	r1, .LBB17_17
.Ltmp583:
@ %bb.16:                               @   in Loop: Header=BB17_5 Depth=1
	@DEBUG_VALUE: f_write:clst <- $r0
	@DEBUG_VALUE: f_write:csect <- $r11
	@DEBUG_VALUE: f_write:fs <- $r9
	@DEBUG_VALUE: f_write:fp <- $r4
	@DEBUG_VALUE: f_write:btw <- $r6
	@DEBUG_VALUE: f_write:wbuff <- $r7
	.loc	2 3648 45               @ ../User/FATFS/ff.c:3648:45
	str	r0, [r4, #8]
.Ltmp584:
.LBB17_17:                              @   in Loop: Header=BB17_5 Depth=1
	@DEBUG_VALUE: f_write:csect <- $r11
	@DEBUG_VALUE: f_write:fs <- $r9
	@DEBUG_VALUE: f_write:fp <- $r4
	@DEBUG_VALUE: f_write:btw <- $r6
	@DEBUG_VALUE: f_write:wbuff <- $r7
	.loc	2 3653 12 is_stmt 1     @ ../User/FATFS/ff.c:3653:12
	ldrsb.w	r0, [r4, #16]
.Ltmp585:
	.loc	2 3653 8 is_stmt 0      @ ../User/FATFS/ff.c:3653:8
	cmp.w	r0, #-1
	bgt	.LBB17_20
.Ltmp586:
@ %bb.18:                               @   in Loop: Header=BB17_5 Depth=1
	@DEBUG_VALUE: f_write:csect <- $r11
	@DEBUG_VALUE: f_write:fs <- $r9
	@DEBUG_VALUE: f_write:fp <- $r4
	@DEBUG_VALUE: f_write:btw <- $r6
	@DEBUG_VALUE: f_write:wbuff <- $r7
	.loc	2 3654 42 is_stmt 1     @ ../User/FATFS/ff.c:3654:42
	ldr	r2, [r4, #28]
	.loc	2 3654 24 is_stmt 0     @ ../User/FATFS/ff.c:3654:24
	ldrb.w	r0, [r9, #1]
	.loc	2 3654 9                @ ../User/FATFS/ff.c:3654:9
	ldr	r1, [sp, #4]            @ 4-byte Reload
	movs	r3, #1
	bl	disk_write
.Ltmp587:
	.loc	2 3654 9                @ ../User/FATFS/ff.c:3654:9
	cmp	r0, #0
	bne	.LBB17_34
.Ltmp588:
@ %bb.19:                               @   in Loop: Header=BB17_5 Depth=1
	@DEBUG_VALUE: f_write:csect <- $r11
	@DEBUG_VALUE: f_write:fs <- $r9
	@DEBUG_VALUE: f_write:fp <- $r4
	@DEBUG_VALUE: f_write:btw <- $r6
	@DEBUG_VALUE: f_write:wbuff <- $r7
	.loc	2 3655 14 is_stmt 1     @ ../User/FATFS/ff.c:3655:14
	ldrb	r0, [r4, #16]
	and	r0, r0, #127
	strb	r0, [r4, #16]
.Ltmp589:
.LBB17_20:                              @   in Loop: Header=BB17_5 Depth=1
	@DEBUG_VALUE: f_write:csect <- $r11
	@DEBUG_VALUE: f_write:fs <- $r9
	@DEBUG_VALUE: f_write:fp <- $r4
	@DEBUG_VALUE: f_write:btw <- $r6
	@DEBUG_VALUE: f_write:wbuff <- $r7
	.loc	2 3658 30               @ ../User/FATFS/ff.c:3658:30
	ldr	r1, [r4, #24]
	.loc	2 3658 11 is_stmt 0     @ ../User/FATFS/ff.c:3658:11
	mov	r0, r9
	bl	clust2sect
.Ltmp590:
	@DEBUG_VALUE: f_write:sect <- $r0
	.loc	2 3659 8 is_stmt 1      @ ../User/FATFS/ff.c:3659:8
	cmp	r0, #0
	beq	.LBB17_33
.Ltmp591:
@ %bb.21:                               @   in Loop: Header=BB17_5 Depth=1
	@DEBUG_VALUE: f_write:sect <- $r0
	@DEBUG_VALUE: f_write:csect <- $r11
	@DEBUG_VALUE: f_write:fs <- $r9
	@DEBUG_VALUE: f_write:fp <- $r4
	@DEBUG_VALUE: f_write:btw <- $r6
	@DEBUG_VALUE: f_write:wbuff <- $r7
	.loc	2 3660 9                @ ../User/FATFS/ff.c:3660:9
	add.w	r5, r0, r11
.Ltmp592:
	@DEBUG_VALUE: f_write:sect <- $r5
	.loc	2 3662 8                @ ../User/FATFS/ff.c:3662:8
	movs	r0, #0
	cmp.w	r0, r6, lsr #9
	beq	.LBB17_27
.Ltmp593:
@ %bb.22:                               @   in Loop: Header=BB17_5 Depth=1
	@DEBUG_VALUE: f_write:sect <- $r5
	@DEBUG_VALUE: f_write:csect <- $r11
	@DEBUG_VALUE: f_write:fs <- $r9
	@DEBUG_VALUE: f_write:fp <- $r4
	@DEBUG_VALUE: f_write:btw <- $r6
	@DEBUG_VALUE: f_write:wbuff <- $r7
	.loc	2 0 0 is_stmt 0         @ ../User/FATFS/ff.c:0:0
	lsr.w	r8, r6, #9
.Ltmp594:
	@DEBUG_VALUE: f_write:cc <- $r8
	.loc	2 3663 26 is_stmt 1     @ ../User/FATFS/ff.c:3663:26
	ldrh.w	r1, [r9, #10]
.Ltmp595:
	.loc	2 3666 9                @ ../User/FATFS/ff.c:3666:9
	mov	r2, r5
.Ltmp596:
	.loc	2 3663 15               @ ../User/FATFS/ff.c:3663:15
	add.w	r0, r11, r8
.Ltmp597:
	.loc	2 3663 9 is_stmt 0      @ ../User/FATFS/ff.c:3663:9
	cmp	r0, r1
	it	hi
	subhi.w	r8, r1, r11
.Ltmp598:
	@DEBUG_VALUE: f_write:cc <- $r8
	.loc	2 3666 24 is_stmt 1     @ ../User/FATFS/ff.c:3666:24
	ldrb.w	r0, [r9, #1]
	.loc	2 3666 9 is_stmt 0      @ ../User/FATFS/ff.c:3666:9
	uxtb.w	r3, r8
	mov	r1, r7
	bl	disk_write
.Ltmp599:
	.loc	2 3666 9                @ ../User/FATFS/ff.c:3666:9
	cbnz	r0, .LBB17_34
.Ltmp600:
@ %bb.23:                               @   in Loop: Header=BB17_5 Depth=1
	@DEBUG_VALUE: f_write:cc <- $r8
	@DEBUG_VALUE: f_write:sect <- $r5
	@DEBUG_VALUE: f_write:csect <- $r11
	@DEBUG_VALUE: f_write:fs <- $r9
	@DEBUG_VALUE: f_write:fp <- $r4
	@DEBUG_VALUE: f_write:btw <- $r6
	@DEBUG_VALUE: f_write:wbuff <- $r7
	.loc	2 3674 13 is_stmt 1     @ ../User/FATFS/ff.c:3674:13
	ldr	r0, [r4, #28]
	.loc	2 3674 18 is_stmt 0     @ ../User/FATFS/ff.c:3674:18
	subs	r0, r0, r5
.Ltmp601:
	.loc	2 3674 9                @ ../User/FATFS/ff.c:3674:9
	cmp	r0, r8
	bhs	.LBB17_25
.Ltmp602:
@ %bb.24:                               @   in Loop: Header=BB17_5 Depth=1
	@DEBUG_VALUE: f_write:cc <- $r8
	@DEBUG_VALUE: f_write:sect <- $r5
	@DEBUG_VALUE: f_write:csect <- $r11
	@DEBUG_VALUE: f_write:fs <- $r9
	@DEBUG_VALUE: f_write:fp <- $r4
	@DEBUG_VALUE: f_write:btw <- $r6
	@DEBUG_VALUE: f_write:wbuff <- $r7
	.loc	2 3675 29 is_stmt 1     @ ../User/FATFS/ff.c:3675:29
	add.w	r1, r7, r0, lsl #9
	.loc	2 3675 6 is_stmt 0      @ ../User/FATFS/ff.c:3675:6
	ldr	r0, [sp, #4]            @ 4-byte Reload
	mov.w	r2, #512
	bl	mem_cpy
	.loc	2 3676 15 is_stmt 1     @ ../User/FATFS/ff.c:3676:15
	ldrb	r0, [r4, #16]
	and	r0, r0, #127
	strb	r0, [r4, #16]
.Ltmp603:
.LBB17_25:                              @   in Loop: Header=BB17_5 Depth=1
	@DEBUG_VALUE: f_write:cc <- $r8
	@DEBUG_VALUE: f_write:sect <- $r5
	@DEBUG_VALUE: f_write:csect <- $r11
	@DEBUG_VALUE: f_write:fs <- $r9
	@DEBUG_VALUE: f_write:fp <- $r4
	@DEBUG_VALUE: f_write:btw <- $r6
	@DEBUG_VALUE: f_write:wbuff <- $r7
	.loc	2 3680 19               @ ../User/FATFS/ff.c:3680:19
	lsl.w	r5, r8, #9
.Ltmp604:
	@DEBUG_VALUE: f_write:wcnt <- $r5
.LBB17_26:                              @   in Loop: Header=BB17_5 Depth=1
	@DEBUG_VALUE: f_write:wcnt <- $r5
	@DEBUG_VALUE: f_write:fs <- $r9
	@DEBUG_VALUE: f_write:fp <- $r4
	@DEBUG_VALUE: f_write:btw <- $r6
	@DEBUG_VALUE: f_write:wbuff <- $r7
	@DEBUG_VALUE: f_write:wcnt <- $r5
	.loc	2 3625 27               @ ../User/FATFS/ff.c:3625:27
	ldr	r0, [r4, #20]
	.loc	2 3625 74 is_stmt 0     @ ../User/FATFS/ff.c:3625:74
	ldr	r1, [r4, #12]
	.loc	2 3625 130              @ ../User/FATFS/ff.c:3625:130
	subs	r6, r6, r5
.Ltmp605:
	@DEBUG_VALUE: f_write:btw <- $r6
	.loc	2 3625 9                @ ../User/FATFS/ff.c:3625:9
	add	r7, r5
.Ltmp606:
	@DEBUG_VALUE: f_write:wbuff <- $r7
	.loc	2 3625 27               @ ../User/FATFS/ff.c:3625:27
	add	r0, r5
	str	r0, [r4, #20]
	.loc	2 3625 54               @ ../User/FATFS/ff.c:3625:54
	cmp	r0, r1
	it	hi
	movhi	r1, r0
	.loc	2 3625 52               @ ../User/FATFS/ff.c:3625:52
	str	r1, [r4, #12]
	.loc	2 3625 117              @ ../User/FATFS/ff.c:3625:117
	ldr.w	r1, [r10]
	add	r1, r5
	str.w	r1, [r10]
	b	.LBB17_5
.Ltmp607:
.LBB17_27:                              @   in Loop: Header=BB17_5 Depth=1
	@DEBUG_VALUE: f_write:sect <- $r5
	@DEBUG_VALUE: f_write:csect <- $r11
	@DEBUG_VALUE: f_write:fs <- $r9
	@DEBUG_VALUE: f_write:fp <- $r4
	@DEBUG_VALUE: f_write:btw <- $r6
	@DEBUG_VALUE: f_write:wbuff <- $r7
	.loc	2 3689 12 is_stmt 1     @ ../User/FATFS/ff.c:3689:12
	ldr	r0, [r4, #28]
	.loc	2 3689 25 is_stmt 0     @ ../User/FATFS/ff.c:3689:25
	cmp	r0, r5
	beq	.LBB17_30
.Ltmp608:
@ %bb.28:                               @   in Loop: Header=BB17_5 Depth=1
	@DEBUG_VALUE: f_write:sect <- $r5
	@DEBUG_VALUE: f_write:csect <- $r11
	@DEBUG_VALUE: f_write:fs <- $r9
	@DEBUG_VALUE: f_write:fp <- $r4
	@DEBUG_VALUE: f_write:btw <- $r6
	@DEBUG_VALUE: f_write:wbuff <- $r7
	.loc	2 3690 24 is_stmt 1     @ ../User/FATFS/ff.c:3690:24
	ldr	r0, [r4, #12]
	.loc	2 3690 9 is_stmt 0      @ ../User/FATFS/ff.c:3690:9
	ldr	r1, [r4, #20]
	.loc	2 3690 32               @ ../User/FATFS/ff.c:3690:32
	cmp	r1, r0
	bhs	.LBB17_30
.Ltmp609:
@ %bb.29:                               @   in Loop: Header=BB17_5 Depth=1
	@DEBUG_VALUE: f_write:sect <- $r5
	@DEBUG_VALUE: f_write:csect <- $r11
	@DEBUG_VALUE: f_write:fs <- $r9
	@DEBUG_VALUE: f_write:fp <- $r4
	@DEBUG_VALUE: f_write:btw <- $r6
	@DEBUG_VALUE: f_write:wbuff <- $r7
	.loc	2 3691 19 is_stmt 1     @ ../User/FATFS/ff.c:3691:19
	ldrb.w	r0, [r9, #1]
	.loc	2 3691 5 is_stmt 0      @ ../User/FATFS/ff.c:3691:5
	ldr	r1, [sp, #4]            @ 4-byte Reload
	mov	r2, r5
	movs	r3, #1
	bl	disk_read
.Ltmp610:
	.loc	2 3689 8 is_stmt 1      @ ../User/FATFS/ff.c:3689:8
	cbnz	r0, .LBB17_34
.Ltmp611:
.LBB17_30:                              @   in Loop: Header=BB17_5 Depth=1
	@DEBUG_VALUE: f_write:sect <- $r5
	@DEBUG_VALUE: f_write:csect <- $r11
	@DEBUG_VALUE: f_write:fs <- $r9
	@DEBUG_VALUE: f_write:fp <- $r4
	@DEBUG_VALUE: f_write:btw <- $r6
	@DEBUG_VALUE: f_write:wbuff <- $r7
	.loc	2 3695 13               @ ../User/FATFS/ff.c:3695:13
	str	r5, [r4, #28]
.Ltmp612:
	.loc	2 3697 29               @ ../User/FATFS/ff.c:3697:29
	ldr	r1, [r4, #20]
	.loc	2 3697 34 is_stmt 0     @ ../User/FATFS/ff.c:3697:34
	bfc	r1, #9, #23
	b	.LBB17_7
.Ltmp613:
.LBB17_31:                              @   in Loop: Header=BB17_5 Depth=1
	@DEBUG_VALUE: f_write:clst <- $r0
	@DEBUG_VALUE: f_write:csect <- $r11
	@DEBUG_VALUE: f_write:fs <- $r9
	@DEBUG_VALUE: f_write:fp <- $r4
	@DEBUG_VALUE: f_write:btw <- $r6
	@DEBUG_VALUE: f_write:wbuff <- $r7
	.loc	2 0 34                  @ ../User/FATFS/ff.c:0:34
	movs	r1, #0
	b	.LBB17_11
.Ltmp614:
.LBB17_32:
	@DEBUG_VALUE: f_write:fs <- $r9
	@DEBUG_VALUE: f_write:fp <- $r4
	@DEBUG_VALUE: f_write:btw <- $r6
	@DEBUG_VALUE: f_write:wbuff <- $r7
	.loc	2 3709 11 is_stmt 1     @ ../User/FATFS/ff.c:3709:11
	ldrb	r0, [r4, #16]
	orr	r0, r0, #64
	strb	r0, [r4, #16]
	movs	r0, #0
	b	.LBB17_36
.Ltmp615:
.LBB17_33:
	@DEBUG_VALUE: f_write:csect <- $r11
	@DEBUG_VALUE: f_write:fs <- $r9
	@DEBUG_VALUE: f_write:fp <- $r4
	@DEBUG_VALUE: f_write:btw <- $r6
	@DEBUG_VALUE: f_write:wbuff <- $r7
	.loc	2 0 11 is_stmt 0        @ ../User/FATFS/ff.c:0:11
	movs	r0, #2
	b	.LBB17_35
.Ltmp616:
.LBB17_34:
	@DEBUG_VALUE: f_write:csect <- $r11
	@DEBUG_VALUE: f_write:fs <- $r9
	@DEBUG_VALUE: f_write:fp <- $r4
	@DEBUG_VALUE: f_write:btw <- $r6
	@DEBUG_VALUE: f_write:wbuff <- $r7
	movs	r0, #1
.Ltmp617:
.LBB17_35:
	@DEBUG_VALUE: f_write:csect <- $r11
	@DEBUG_VALUE: f_write:fs <- $r9
	@DEBUG_VALUE: f_write:fp <- $r4
	@DEBUG_VALUE: f_write:btw <- $r6
	@DEBUG_VALUE: f_write:wbuff <- $r7
	strb	r0, [r4, #17]
.Ltmp618:
.LBB17_36:
	@DEBUG_VALUE: f_write:fp <- $r4
	.loc	2 3712 1 is_stmt 1      @ ../User/FATFS/ff.c:3712:1
	add	sp, #12
	pop.w	{r4, r5, r6, r7, r8, r9, r10, r11, pc}
.Ltmp619:
.Lfunc_end17:
	.size	f_write, .Lfunc_end17-f_write
	.cfi_endproc
	.cantunwind
	.fnend
                                        @ -- End function
	.section	.text.create_chain,"ax",%progbits
	.p2align	1               @ -- Begin function create_chain
	.type	create_chain,%function
	.code	16                      @ @create_chain
	.thumb_func
create_chain:
.Lfunc_begin18:
	.loc	2 1355 0                @ ../User/FATFS/ff.c:1355:0
	.fnstart
	.cfi_startproc
@ %bb.0:
	.save	{r4, r5, r6, r7, r8, lr}
	push.w	{r4, r5, r6, r7, r8, lr}
	.cfi_def_cfa_offset 24
	.cfi_offset lr, -4
	.cfi_offset r8, -8
	.cfi_offset r7, -12
	.cfi_offset r6, -16
	.cfi_offset r5, -20
	.cfi_offset r4, -24
	@DEBUG_VALUE: create_chain:obj <- $r0
	@DEBUG_VALUE: create_chain:clst <- $r1
.Ltmp620:
	.loc	2 1358 19 prologue_end  @ ../User/FATFS/ff.c:1358:19
	ldr	r4, [r0]
.Ltmp621:
	@DEBUG_VALUE: create_chain:fs <- $r4
	.loc	2 0 19 is_stmt 0        @ ../User/FATFS/ff.c:0:19
	mov	r8, r1
	mov	r7, r0
.Ltmp622:
	@DEBUG_VALUE: create_chain:clst <- $r8
	@DEBUG_VALUE: create_chain:obj <- $r7
	.loc	2 1361 6 is_stmt 1      @ ../User/FATFS/ff.c:1361:6
	cbz	r1, .LBB18_2
.Ltmp623:
@ %bb.1:
	@DEBUG_VALUE: create_chain:obj <- $r7
	@DEBUG_VALUE: create_chain:clst <- $r8
	@DEBUG_VALUE: create_chain:fs <- $r4
	.loc	2 1366 8                @ ../User/FATFS/ff.c:1366:8
	mov	r0, r7
	mov	r1, r8
	bl	get_fat
.Ltmp624:
	@DEBUG_VALUE: create_chain:cs <- $r0
	.loc	2 1367 7                @ ../User/FATFS/ff.c:1367:7
	cmp	r0, #2
	itt	lo
	movlo	r0, #1
.Ltmp625:
	.loc	2 1427 1                @ ../User/FATFS/ff.c:1427:1
	poplo.w	{r4, r5, r6, r7, r8, pc}
.Ltmp626:
	.loc	2 1368 7                @ ../User/FATFS/ff.c:1368:7
	adds	r1, r0, #1
	itt	eq
	moveq.w	r0, #-1
.Ltmp627:
	.loc	2 1427 1                @ ../User/FATFS/ff.c:1427:1
	popeq.w	{r4, r5, r6, r7, r8, pc}
.Ltmp628:
	.loc	2 1369 16               @ ../User/FATFS/ff.c:1369:16
	ldr	r1, [r4, #20]
.Ltmp629:
	.loc	2 0 0 is_stmt 0         @ ../User/FATFS/ff.c:0:0
	mov	r5, r8
.Ltmp630:
	.loc	2 1369 7                @ ../User/FATFS/ff.c:1369:7
	cmp	r0, r1
	bhs	.LBB18_5
	b	.LBB18_17
.Ltmp631:
.LBB18_2:
	@DEBUG_VALUE: create_chain:obj <- $r7
	@DEBUG_VALUE: create_chain:clst <- $r8
	@DEBUG_VALUE: create_chain:fs <- $r4
	.loc	2 1362 13 is_stmt 1     @ ../User/FATFS/ff.c:1362:13
	ldr	r5, [r4, #12]
.Ltmp632:
	@DEBUG_VALUE: create_chain:scl <- $r5
	.loc	2 1363 16               @ ../User/FATFS/ff.c:1363:16
	cbz	r5, .LBB18_4
.Ltmp633:
@ %bb.3:
	@DEBUG_VALUE: create_chain:scl <- $r5
	@DEBUG_VALUE: create_chain:obj <- $r7
	@DEBUG_VALUE: create_chain:clst <- $r8
	@DEBUG_VALUE: create_chain:fs <- $r4
	.loc	2 1363 30 is_stmt 0     @ ../User/FATFS/ff.c:1363:30
	ldr	r0, [r4, #20]
.Ltmp634:
	.loc	2 1363 7                @ ../User/FATFS/ff.c:1363:7
	cmp	r5, r0
	blo	.LBB18_5
.Ltmp635:
.LBB18_4:
	@DEBUG_VALUE: create_chain:scl <- $r5
	@DEBUG_VALUE: create_chain:obj <- $r7
	@DEBUG_VALUE: create_chain:clst <- $r8
	@DEBUG_VALUE: create_chain:fs <- $r4
	.loc	2 0 7                   @ ../User/FATFS/ff.c:0:7
	movs	r5, #1
.Ltmp636:
	@DEBUG_VALUE: create_chain:scl <- 1
.LBB18_5:
	@DEBUG_VALUE: create_chain:scl <- $r5
	@DEBUG_VALUE: create_chain:ncl <- $r5
	mov	r6, r5
.Ltmp637:
.LBB18_6:                               @ =>This Inner Loop Header: Depth=1
	@DEBUG_VALUE: create_chain:ncl <- $r5
	@DEBUG_VALUE: create_chain:scl <- $r5
	@DEBUG_VALUE: create_chain:ncl <- $r6
	.loc	2 1403 19 is_stmt 1     @ ../User/FATFS/ff.c:1403:19
	ldr	r0, [r4, #20]
.Ltmp638:
	.loc	2 1402 7                @ ../User/FATFS/ff.c:1402:7
	adds	r6, #1
.Ltmp639:
	@DEBUG_VALUE: create_chain:ncl <- $r6
	.loc	2 1403 8                @ ../User/FATFS/ff.c:1403:8
	cmp	r6, r0
	it	hs
	movhs	r6, #2
.Ltmp640:
	@DEBUG_VALUE: create_chain:ncl <- $r6
	blo	.LBB18_8
.Ltmp641:
@ %bb.7:                                @   in Loop: Header=BB18_6 Depth=1
	@DEBUG_VALUE: create_chain:ncl <- $r6
	@DEBUG_VALUE: create_chain:scl <- $r5
	cmp	r5, #2
	blo	.LBB18_11
.Ltmp642:
.LBB18_8:                               @   in Loop: Header=BB18_6 Depth=1
	@DEBUG_VALUE: create_chain:ncl <- $r6
	@DEBUG_VALUE: create_chain:scl <- $r5
	.loc	2 1407 9                @ ../User/FATFS/ff.c:1407:9
	mov	r0, r7
	mov	r1, r6
	bl	get_fat
.Ltmp643:
	@DEBUG_VALUE: create_chain:cs <- $r0
	.loc	2 1408 8                @ ../User/FATFS/ff.c:1408:8
	adds	r1, r0, #1
	beq	.LBB18_17
.Ltmp644:
@ %bb.9:                                @   in Loop: Header=BB18_6 Depth=1
	@DEBUG_VALUE: create_chain:ncl <- $r6
	@DEBUG_VALUE: create_chain:scl <- $r5
	@DEBUG_VALUE: create_chain:cs <- $r0
	cbz	r0, .LBB18_12
.Ltmp645:
@ %bb.10:                               @   in Loop: Header=BB18_6 Depth=1
	@DEBUG_VALUE: create_chain:ncl <- $r6
	@DEBUG_VALUE: create_chain:scl <- $r5
	@DEBUG_VALUE: create_chain:cs <- $r0
	cmp	r0, #1
.Ltmp646:
	.loc	2 1427 1                @ ../User/FATFS/ff.c:1427:1
	it	eq
	popeq.w	{r4, r5, r6, r7, r8, pc}
.Ltmp647:
	.loc	2 1410 8                @ ../User/FATFS/ff.c:1410:8
	cmp	r6, r5
	bne	.LBB18_6
.Ltmp648:
.LBB18_11:
	.loc	2 0 8 is_stmt 0         @ ../User/FATFS/ff.c:0:8
	movs	r0, #0
	.loc	2 1427 1 is_stmt 1      @ ../User/FATFS/ff.c:1427:1
	pop.w	{r4, r5, r6, r7, r8, pc}
.LBB18_12:
.Ltmp649:
	@DEBUG_VALUE: create_chain:ncl <- $r6
	@DEBUG_VALUE: create_chain:scl <- $r5
	@DEBUG_VALUE: create_chain:cs <- $r0
	.loc	2 1412 9                @ ../User/FATFS/ff.c:1412:9
	mov	r0, r4
.Ltmp650:
	mov	r1, r6
	mov.w	r2, #-1
	bl	put_fat
	mov	r1, r0
.Ltmp651:
	@DEBUG_VALUE: create_chain:res <- undef
	.loc	2 1413 20               @ ../User/FATFS/ff.c:1413:20
	cmp.w	r8, #0
	beq	.LBB18_15
.Ltmp652:
@ %bb.13:
	@DEBUG_VALUE: create_chain:ncl <- $r6
	@DEBUG_VALUE: create_chain:scl <- $r5
	cbnz	r1, .LBB18_15
.Ltmp653:
@ %bb.14:
	@DEBUG_VALUE: create_chain:ncl <- $r6
	@DEBUG_VALUE: create_chain:scl <- $r5
	.loc	2 1414 10               @ ../User/FATFS/ff.c:1414:10
	mov	r0, r4
	mov	r1, r8
	mov	r2, r6
	bl	put_fat
	mov	r1, r0
.Ltmp654:
	@DEBUG_VALUE: create_chain:res <- undef
.LBB18_15:
	@DEBUG_VALUE: create_chain:ncl <- $r6
	@DEBUG_VALUE: create_chain:scl <- $r5
	@DEBUG_VALUE: create_chain:res <- $r1
	.loc	2 1418 6                @ ../User/FATFS/ff.c:1418:6
	cbz	r1, .LBB18_18
.Ltmp655:
@ %bb.16:
	@DEBUG_VALUE: create_chain:res <- $r1
	@DEBUG_VALUE: create_chain:ncl <- $r6
	@DEBUG_VALUE: create_chain:scl <- $r5
	.loc	2 0 6 is_stmt 0         @ ../User/FATFS/ff.c:0:6
	movs	r0, #1
.Ltmp656:
	.loc	2 1423 9 is_stmt 1      @ ../User/FATFS/ff.c:1423:9
	cmp	r1, #1
	it	eq
	moveq.w	r0, #-1
.Ltmp657:
	@DEBUG_VALUE: create_chain:ncl <- $r0
.LBB18_17:
	.loc	2 1427 1                @ ../User/FATFS/ff.c:1427:1
	pop.w	{r4, r5, r6, r7, r8, pc}
.LBB18_18:
.Ltmp658:
	@DEBUG_VALUE: create_chain:res <- $r1
	@DEBUG_VALUE: create_chain:ncl <- $r6
	@DEBUG_VALUE: create_chain:scl <- $r5
	.loc	2 1419 17               @ ../User/FATFS/ff.c:1419:17
	str	r6, [r4, #12]
.Ltmp659:
	.loc	2 1420 11               @ ../User/FATFS/ff.c:1420:11
	ldrd	r0, r1, [r4, #16]
.Ltmp660:
	.loc	2 1420 37 is_stmt 0     @ ../User/FATFS/ff.c:1420:37
	subs	r1, #2
.Ltmp661:
	.loc	2 1420 7                @ ../User/FATFS/ff.c:1420:7
	cmp	r0, r1
.Ltmp662:
	.loc	2 1420 55               @ ../User/FATFS/ff.c:1420:55
	itt	ls
	subls	r0, #1
	strls	r0, [r4, #16]
.Ltmp663:
	.loc	2 1421 16 is_stmt 1     @ ../User/FATFS/ff.c:1421:16
	ldrb	r0, [r4, #4]
	orr	r0, r0, #1
	strb	r0, [r4, #4]
.Ltmp664:
	.loc	2 0 0 is_stmt 0         @ ../User/FATFS/ff.c:0:0
	mov	r0, r6
	.loc	2 1427 1 is_stmt 1      @ ../User/FATFS/ff.c:1427:1
	pop.w	{r4, r5, r6, r7, r8, pc}
.Ltmp665:
.Lfunc_end18:
	.size	create_chain, .Lfunc_end18-create_chain
	.cfi_endproc
	.cantunwind
	.fnend
                                        @ -- End function
	.section	.text.f_sync,"ax",%progbits
	.hidden	f_sync                  @ -- Begin function f_sync
	.globl	f_sync
	.p2align	2
	.type	f_sync,%function
	.code	16                      @ @f_sync
	.thumb_func
f_sync:
.Lfunc_begin19:
	.loc	2 3724 0                @ ../User/FATFS/ff.c:3724:0
	.fnstart
	.cfi_startproc
@ %bb.0:
	.save	{r4, r5, r6, lr}
	.pad	#8
	push	{r2, r3, r4, r5, r6, lr}
	.cfi_def_cfa_offset 24
	.cfi_offset lr, -4
	.cfi_offset r6, -8
	.cfi_offset r5, -12
	.cfi_offset r4, -16
	@DEBUG_VALUE: f_sync:fp <- $r0
	add	r1, sp, #4
	mov	r4, r0
.Ltmp666:
	@DEBUG_VALUE: f_sync:fs <- [DW_OP_plus_uconst 4, DW_OP_deref] $sp
	@DEBUG_VALUE: f_sync:fp <- $r4
	.loc	2 3734 8 prologue_end   @ ../User/FATFS/ff.c:3734:8
	bl	validate
	mov	r6, r0
.Ltmp667:
	@DEBUG_VALUE: f_sync:res <- $r6
	.loc	2 3735 6                @ ../User/FATFS/ff.c:3735:6
	cbnz	r0, .LBB19_8
.Ltmp668:
@ %bb.1:
	@DEBUG_VALUE: f_sync:res <- $r6
	@DEBUG_VALUE: f_sync:fp <- $r4
	@DEBUG_VALUE: f_sync:fs <- [DW_OP_plus_uconst 4, DW_OP_deref] $sp
	.loc	2 3736 11               @ ../User/FATFS/ff.c:3736:11
	ldrb	r0, [r4, #16]
.Ltmp669:
	.loc	2 3736 7 is_stmt 0      @ ../User/FATFS/ff.c:3736:7
	lsls	r1, r0, #25
	bmi	.LBB19_3
.Ltmp670:
@ %bb.2:
	@DEBUG_VALUE: f_sync:res <- $r6
	@DEBUG_VALUE: f_sync:fp <- $r4
	@DEBUG_VALUE: f_sync:fs <- [DW_OP_plus_uconst 4, DW_OP_deref] $sp
	.loc	2 0 7                   @ ../User/FATFS/ff.c:0:7
	movs	r6, #0
.Ltmp671:
	b	.LBB19_8
.Ltmp672:
.LBB19_3:
	@DEBUG_VALUE: f_sync:res <- $r6
	@DEBUG_VALUE: f_sync:fp <- $r4
	@DEBUG_VALUE: f_sync:fs <- [DW_OP_plus_uconst 4, DW_OP_deref] $sp
	ldr	r5, [sp, #4]
.Ltmp673:
	@DEBUG_VALUE: f_sync:fs <- $r5
	.loc	2 3738 8 is_stmt 1      @ ../User/FATFS/ff.c:3738:8
	lsls	r0, r0, #24
	bpl	.LBB19_6
.Ltmp674:
@ %bb.4:
	@DEBUG_VALUE: f_sync:fs <- $r5
	@DEBUG_VALUE: f_sync:res <- $r6
	@DEBUG_VALUE: f_sync:fp <- $r4
	.loc	2 3739 42               @ ../User/FATFS/ff.c:3739:42
	ldr	r2, [r4, #28]
	.loc	2 3739 24 is_stmt 0     @ ../User/FATFS/ff.c:3739:24
	ldrb	r0, [r5, #1]
	.loc	2 3739 29               @ ../User/FATFS/ff.c:3739:29
	add.w	r1, r4, #40
	.loc	2 3739 9                @ ../User/FATFS/ff.c:3739:9
	movs	r3, #1
	movs	r6, #1
.Ltmp675:
	bl	disk_write
.Ltmp676:
	.loc	2 3739 9                @ ../User/FATFS/ff.c:3739:9
	cbnz	r0, .LBB19_8
.Ltmp677:
@ %bb.5:
	@DEBUG_VALUE: f_sync:fs <- $r5
	@DEBUG_VALUE: f_sync:fp <- $r4
	.loc	2 3740 14 is_stmt 1     @ ../User/FATFS/ff.c:3740:14
	ldrb	r0, [r4, #16]
	and	r0, r0, #127
	strb	r0, [r4, #16]
.Ltmp678:
.LBB19_6:
	@DEBUG_VALUE: f_sync:fs <- $r5
	@DEBUG_VALUE: f_sync:fp <- $r4
	@DEBUG_VALUE: f_sync:tm <- 1243676672
	.loc	2 3774 31               @ ../User/FATFS/ff.c:3774:31
	ldr	r1, [r4, #32]
	.loc	2 3774 11 is_stmt 0     @ ../User/FATFS/ff.c:3774:11
	mov	r0, r5
	bl	move_window
	mov	r6, r0
.Ltmp679:
	@DEBUG_VALUE: f_sync:res <- $r6
	.loc	2 3775 9 is_stmt 1      @ ../User/FATFS/ff.c:3775:9
	cbnz	r0, .LBB19_8
.Ltmp680:
@ %bb.7:
	@DEBUG_VALUE: f_sync:fs <- $r5
	@DEBUG_VALUE: f_sync:res <- $r6
	@DEBUG_VALUE: f_sync:fp <- $r4
	.loc	2 3776 16               @ ../User/FATFS/ff.c:3776:16
	ldr	r6, [r4, #36]
.Ltmp681:
	@DEBUG_VALUE: f_sync:dir <- $r6
	.loc	2 3777 20               @ ../User/FATFS/ff.c:3777:20
	ldrb	r0, [r6, #11]
	.loc	2 3778 6                @ ../User/FATFS/ff.c:3778:6
	mov	r1, r6
	.loc	2 3777 20               @ ../User/FATFS/ff.c:3777:20
	orr	r0, r0, #32
	strb	r0, [r6, #11]
	.loc	2 3778 23               @ ../User/FATFS/ff.c:3778:23
	ldr	r0, [r4]
	.loc	2 3778 40 is_stmt 0     @ ../User/FATFS/ff.c:3778:40
	ldr	r2, [r4, #8]
	.loc	2 3778 6                @ ../User/FATFS/ff.c:3778:6
	bl	st_clust
	.loc	2 3779 50 is_stmt 1     @ ../User/FATFS/ff.c:3779:50
	ldr	r1, [r4, #12]
	.loc	2 3779 19 is_stmt 0     @ ../User/FATFS/ff.c:3779:19
	add.w	r0, r6, #28
	.loc	2 3779 6                @ ../User/FATFS/ff.c:3779:6
	bl	st_dword
	ldr	r0, __arm_cp.19_0
.Ltmp682:
	@DEBUG_VALUE: st_dword:ptr <- undef
	@DEBUG_VALUE: st_dword:ptr <- [DW_OP_plus_uconst 22, DW_OP_stack_value] $r6
	@DEBUG_VALUE: st_dword:val <- 1243676672
	.loc	2 663 9 is_stmt 1       @ ../User/FATFS/ff.c:663:9
	str.w	r0, [r6, #22]
	movs	r0, #0
.Ltmp683:
	@DEBUG_VALUE: st_word:ptr <- undef
	@DEBUG_VALUE: st_word:ptr <- [DW_OP_plus_uconst 1, DW_OP_stack_value] undef
	@DEBUG_VALUE: st_word:ptr <- [DW_OP_plus_uconst 18, DW_OP_stack_value] $r6
	@DEBUG_VALUE: st_word:val <- 0
	@DEBUG_VALUE: st_dword:ptr <- [DW_OP_plus_uconst 1, DW_OP_stack_value] undef
	@DEBUG_VALUE: st_dword:ptr <- undef
	@DEBUG_VALUE: st_dword:val <- 74
	.loc	2 656 9                 @ ../User/FATFS/ff.c:656:9
	strh	r0, [r6, #18]
	movs	r0, #1
.Ltmp684:
	.loc	2 3782 16               @ ../User/FATFS/ff.c:3782:16
	strb	r0, [r5, #3]
	.loc	2 3783 12               @ ../User/FATFS/ff.c:3783:12
	mov	r0, r5
	bl	sync_fs
	mov	r6, r0
.Ltmp685:
	@DEBUG_VALUE: f_sync:res <- undef
	.loc	2 3784 15               @ ../User/FATFS/ff.c:3784:15
	ldrb	r0, [r4, #16]
	and	r0, r0, #191
	strb	r0, [r4, #16]
.Ltmp686:
.LBB19_8:
	@DEBUG_VALUE: f_sync:fp <- $r4
	.loc	2 3791 1                @ ../User/FATFS/ff.c:3791:1
	mov	r0, r6
	add	sp, #8
	pop	{r4, r5, r6, pc}
.Ltmp687:
	.p2align	2
@ %bb.9:
	.loc	2 0 1 is_stmt 0         @ ../User/FATFS/ff.c:0:1
__arm_cp.19_0:
	.long	1243676672              @ 0x4a210000
.Lcpi_end7:
	.size	__arm_cp.19_0, .Lcpi_end7-__arm_cp.19_0
.Lfunc_end19:
	.size	f_sync, .Lfunc_end19-f_sync
	.cfi_endproc
	.cantunwind
	.fnend
                                        @ -- End function
	.section	.text.sync_fs,"ax",%progbits
	.p2align	2               @ -- Begin function sync_fs
	.type	sync_fs,%function
	.code	16                      @ @sync_fs
	.thumb_func
sync_fs:
.Lfunc_begin20:
	.loc	2 947 0 is_stmt 1       @ ../User/FATFS/ff.c:947:0
	.fnstart
	.cfi_startproc
@ %bb.0:
	.save	{r4, r5, r7, lr}
	push	{r4, r5, r7, lr}
	.cfi_def_cfa_offset 16
	.cfi_offset lr, -4
	.cfi_offset r7, -8
	.cfi_offset r5, -12
	.cfi_offset r4, -16
	@DEBUG_VALUE: sync_fs:fs <- $r0
	mov	r4, r0
.Ltmp688:
	@DEBUG_VALUE: sync_fs:fs <- $r4
	.loc	2 951 8 prologue_end    @ ../User/FATFS/ff.c:951:8
	bl	sync_window
.Ltmp689:
	@DEBUG_VALUE: sync_fs:res <- $r0
	.loc	2 952 6                 @ ../User/FATFS/ff.c:952:6
	cbz	r0, .LBB20_2
.Ltmp690:
@ %bb.1:
	@DEBUG_VALUE: sync_fs:res <- $r0
	@DEBUG_VALUE: sync_fs:fs <- $r4
	.loc	2 0 0 is_stmt 0         @ ../User/FATFS/ff.c:0:0
	pop	{r4, r5, r7, pc}
.Ltmp691:
.LBB20_2:
	@DEBUG_VALUE: sync_fs:res <- $r0
	@DEBUG_VALUE: sync_fs:fs <- $r4
	.loc	2 954 11 is_stmt 1      @ ../User/FATFS/ff.c:954:11
	ldrb	r0, [r4]
.Ltmp692:
	.loc	2 954 31 is_stmt 0      @ ../User/FATFS/ff.c:954:31
	cmp	r0, #3
	bne	.LBB20_5
.Ltmp693:
@ %bb.3:
	@DEBUG_VALUE: sync_fs:fs <- $r4
	.loc	2 954 38                @ ../User/FATFS/ff.c:954:38
	ldrb	r0, [r4, #4]
.Ltmp694:
	.loc	2 954 7                 @ ../User/FATFS/ff.c:954:7
	cmp	r0, #1
	bne	.LBB20_5
.Ltmp695:
@ %bb.4:
	@DEBUG_VALUE: sync_fs:fs <- $r4
	@DEBUG_VALUE: mem_set:val <- 0
	@DEBUG_VALUE: mem_set:cnt <- 512
	@DEBUG_VALUE: st_dword:ptr <- undef
	@DEBUG_VALUE: mem_set:dst <- undef
	@DEBUG_VALUE: mem_set:d <- undef
	.loc	2 0 7                   @ ../User/FATFS/ff.c:0:7
	add.w	r0, r4, #52
.Ltmp696:
	.loc	2 710 8 is_stmt 1       @ ../User/FATFS/ff.c:710:8
	mov.w	r1, #506
	bl	__aeabi_memclr
	ldr	r0, __arm_cp.20_0
.Ltmp697:
	@DEBUG_VALUE: st_dword:val <- 1096897106
	@DEBUG_VALUE: st_word:val <- 170
	@DEBUG_VALUE: st_dword:ptr <- undef
	.loc	2 663 9                 @ ../User/FATFS/ff.c:663:9
	mov	r5, r4
	str	r0, [r5, #48]!
	movw	r0, #43605
.Ltmp698:
	@DEBUG_VALUE: st_word:ptr <- undef
	@DEBUG_VALUE: st_word:ptr <- [DW_OP_plus_uconst 1, DW_OP_stack_value] undef
	@DEBUG_VALUE: st_word:ptr <- [DW_OP_plus_uconst 510, DW_OP_stack_value] $r5
	@DEBUG_VALUE: st_word:val <- -21931
	@DEBUG_VALUE: mem_set:d <- undef
	@DEBUG_VALUE: mem_set:cnt <- undef
	.loc	2 656 9                 @ ../User/FATFS/ff.c:656:9
	strh.w	r0, [r5, #510]
	ldr	r0, __arm_cp.20_1
.Ltmp699:
	@DEBUG_VALUE: st_dword:ptr <- undef
	@DEBUG_VALUE: st_dword:ptr <- [DW_OP_plus_uconst 484, DW_OP_stack_value] $r5
	@DEBUG_VALUE: st_dword:val <- 1631679090
	@DEBUG_VALUE: st_dword:ptr <- [DW_OP_plus_uconst 1, DW_OP_stack_value] undef
	@DEBUG_VALUE: st_dword:val <- 65
	@DEBUG_VALUE: st_dword:ptr <- undef
	.loc	2 663 9                 @ ../User/FATFS/ff.c:663:9
	str.w	r0, [r5, #484]
.Ltmp700:
	.loc	2 960 21                @ ../User/FATFS/ff.c:960:21
	add.w	r0, r5, #488
	.loc	2 960 43 is_stmt 0      @ ../User/FATFS/ff.c:960:43
	ldr	r1, [r5, #-32]
.Ltmp701:
	@DEBUG_VALUE: st_dword:ptr <- [DW_OP_plus_uconst 1, DW_OP_stack_value] undef
	@DEBUG_VALUE: st_dword:ptr <- undef
	@DEBUG_VALUE: st_dword:val <- 97
	.loc	2 960 4                 @ ../User/FATFS/ff.c:960:4
	bl	st_dword
	.loc	2 961 41 is_stmt 1      @ ../User/FATFS/ff.c:961:41
	ldr	r1, [r5, #-36]
	.loc	2 961 21 is_stmt 0      @ ../User/FATFS/ff.c:961:21
	add.w	r0, r5, #492
	.loc	2 961 4                 @ ../User/FATFS/ff.c:961:4
	bl	st_dword
	.loc	2 963 22 is_stmt 1      @ ../User/FATFS/ff.c:963:22
	ldr	r0, [r5, #-20]
	.loc	2 964 4                 @ ../User/FATFS/ff.c:964:4
	mov	r1, r5
	movs	r3, #1
	.loc	2 963 30                @ ../User/FATFS/ff.c:963:30
	adds	r2, r0, #1
	.loc	2 963 16 is_stmt 0      @ ../User/FATFS/ff.c:963:16
	str	r2, [r5, #-4]
	.loc	2 964 19 is_stmt 1      @ ../User/FATFS/ff.c:964:19
	ldrb	r0, [r5, #-47]
	.loc	2 964 4 is_stmt 0       @ ../User/FATFS/ff.c:964:4
	bl	disk_write
	movs	r0, #0
	.loc	2 965 17 is_stmt 1      @ ../User/FATFS/ff.c:965:17
	strb	r0, [r5, #-44]
.Ltmp702:
.LBB20_5:
	@DEBUG_VALUE: sync_fs:fs <- $r4
	.loc	2 968 22                @ ../User/FATFS/ff.c:968:22
	ldrb	r0, [r4, #1]
	.loc	2 968 7 is_stmt 0       @ ../User/FATFS/ff.c:968:7
	movs	r1, #0
	movs	r2, #0
	bl	disk_ioctl
	.loc	2 968 41                @ ../User/FATFS/ff.c:968:41
	cmp	r0, #0
	it	ne
	movne	r0, #1
.Ltmp703:
	.loc	2 0 0                   @ ../User/FATFS/ff.c:0:0
	pop	{r4, r5, r7, pc}
.Ltmp704:
	.p2align	2
@ %bb.6:
__arm_cp.20_0:
	.long	1096897106              @ 0x41615252
.Lcpi_end8:
	.size	__arm_cp.20_0, .Lcpi_end8-__arm_cp.20_0
__arm_cp.20_1:
	.long	1631679090              @ 0x61417272
.Lcpi_end9:
	.size	__arm_cp.20_1, .Lcpi_end9-__arm_cp.20_1
.Lfunc_end20:
	.size	sync_fs, .Lfunc_end20-sync_fs
	.cfi_endproc
	.cantunwind
	.fnend
                                        @ -- End function
	.section	.text.f_close,"ax",%progbits
	.hidden	f_close                 @ -- Begin function f_close
	.globl	f_close
	.p2align	1
	.type	f_close,%function
	.code	16                      @ @f_close
	.thumb_func
f_close:
.Lfunc_begin21:
	.loc	2 3805 0 is_stmt 1      @ ../User/FATFS/ff.c:3805:0
	.fnstart
	.cfi_startproc
@ %bb.0:
	.save	{r4, lr}
	.pad	#8
	push	{r2, r3, r4, lr}
	.cfi_def_cfa_offset 16
	.cfi_offset lr, -4
	.cfi_offset r4, -8
	@DEBUG_VALUE: f_close:fp <- $r0
	mov	r4, r0
.Ltmp705:
	@DEBUG_VALUE: f_close:fp <- $r4
	.loc	2 3810 8 prologue_end   @ ../User/FATFS/ff.c:3810:8
	bl	f_sync
.Ltmp706:
	@DEBUG_VALUE: f_close:res <- $r0
	.loc	2 3811 6                @ ../User/FATFS/ff.c:3811:6
	cbnz	r0, .LBB21_3
.Ltmp707:
@ %bb.1:
	@DEBUG_VALUE: f_close:res <- $r0
	@DEBUG_VALUE: f_close:fp <- $r4
	@DEBUG_VALUE: f_close:fs <- [DW_OP_plus_uconst 4, DW_OP_deref] $sp
	.loc	2 0 6 is_stmt 0         @ ../User/FATFS/ff.c:0:6
	add	r1, sp, #4
.Ltmp708:
	.loc	2 3814 9 is_stmt 1      @ ../User/FATFS/ff.c:3814:9
	mov	r0, r4
.Ltmp709:
	bl	validate
.Ltmp710:
	@DEBUG_VALUE: f_close:res <- $r0
	.loc	2 3815 7                @ ../User/FATFS/ff.c:3815:7
	cbnz	r0, .LBB21_3
.Ltmp711:
@ %bb.2:
	@DEBUG_VALUE: f_close:fs <- [DW_OP_plus_uconst 4, DW_OP_deref] $sp
	@DEBUG_VALUE: f_close:res <- $r0
	@DEBUG_VALUE: f_close:fp <- $r4
	.loc	2 0 7 is_stmt 0         @ ../User/FATFS/ff.c:0:7
	movs	r0, #0
.Ltmp712:
	.loc	2 3821 16 is_stmt 1     @ ../User/FATFS/ff.c:3821:16
	str	r0, [r4]
.Ltmp713:
.LBB21_3:
	@DEBUG_VALUE: f_close:fp <- $r4
	@DEBUG_VALUE: f_close:res <- $r0
	.loc	2 3828 2                @ ../User/FATFS/ff.c:3828:2
	add	sp, #8
	pop	{r4, pc}
.Ltmp714:
.Lfunc_end21:
	.size	f_close, .Lfunc_end21-f_close
	.cfi_endproc
	.cantunwind
	.fnend
                                        @ -- End function
	.section	.text.f_lseek,"ax",%progbits
	.hidden	f_lseek                 @ -- Begin function f_lseek
	.globl	f_lseek
	.p2align	1
	.type	f_lseek,%function
	.code	16                      @ @f_lseek
	.thumb_func
f_lseek:
.Lfunc_begin22:
	.loc	2 3994 0                @ ../User/FATFS/ff.c:3994:0
	.fnstart
	.cfi_startproc
@ %bb.0:
	.save	{r4, r5, r6, r7, r8, lr}
	.pad	#8
	push.w	{r2, r3, r4, r5, r6, r7, r8, lr}
	.cfi_def_cfa_offset 32
	.cfi_offset lr, -4
	.cfi_offset r8, -8
	.cfi_offset r7, -12
	.cfi_offset r6, -16
	.cfi_offset r5, -20
	.cfi_offset r4, -24
	@DEBUG_VALUE: f_lseek:fp <- $r0
	@DEBUG_VALUE: f_lseek:ofs <- $r1
	mov	r5, r1
	add	r1, sp, #4
.Ltmp715:
	mov	r4, r0
.Ltmp716:
	@DEBUG_VALUE: f_lseek:fs <- [DW_OP_plus_uconst 4, DW_OP_deref] $sp
	@DEBUG_VALUE: f_lseek:ofs <- $r5
	@DEBUG_VALUE: f_lseek:fp <- $r4
	.loc	2 4003 8 prologue_end   @ ../User/FATFS/ff.c:4003:8
	bl	validate
	mov	r6, r0
.Ltmp717:
	@DEBUG_VALUE: f_lseek:res <- $r6
	.loc	2 4004 6                @ ../User/FATFS/ff.c:4004:6
	cmp	r0, #0
	bne.w	.LBB22_39
.Ltmp718:
@ %bb.1:
	@DEBUG_VALUE: f_lseek:res <- $r6
	@DEBUG_VALUE: f_lseek:fp <- $r4
	@DEBUG_VALUE: f_lseek:ofs <- $r5
	@DEBUG_VALUE: f_lseek:fs <- [DW_OP_plus_uconst 4, DW_OP_deref] $sp
	.loc	2 4004 39 is_stmt 0     @ ../User/FATFS/ff.c:4004:39
	ldrb	r6, [r4, #17]
.Ltmp719:
	@DEBUG_VALUE: f_lseek:res <- $r6
	.loc	2 4010 6 is_stmt 1      @ ../User/FATFS/ff.c:4010:6
	cmp	r6, #0
	bne.w	.LBB22_39
.Ltmp720:
@ %bb.2:
	@DEBUG_VALUE: f_lseek:res <- $r6
	@DEBUG_VALUE: f_lseek:fp <- $r4
	@DEBUG_VALUE: f_lseek:ofs <- $r5
	@DEBUG_VALUE: f_lseek:fs <- [DW_OP_plus_uconst 4, DW_OP_deref] $sp
	.loc	2 4069 21               @ ../User/FATFS/ff.c:4069:21
	ldr	r6, [r4, #12]
.Ltmp721:
	.loc	2 4069 29 is_stmt 0     @ ../User/FATFS/ff.c:4069:29
	cmp	r6, r5
	bhs	.LBB22_5
.Ltmp722:
@ %bb.3:
	@DEBUG_VALUE: f_lseek:fp <- $r4
	@DEBUG_VALUE: f_lseek:ofs <- $r5
	@DEBUG_VALUE: f_lseek:fs <- [DW_OP_plus_uconst 4, DW_OP_deref] $sp
	.loc	2 4069 55               @ ../User/FATFS/ff.c:4069:55
	ldrb	r0, [r4, #16]
.Ltmp723:
	.loc	2 4069 7                @ ../User/FATFS/ff.c:4069:7
	lsls	r0, r0, #30
	bpl	.LBB22_6
.Ltmp724:
@ %bb.4:
	@DEBUG_VALUE: f_lseek:fp <- $r4
	@DEBUG_VALUE: f_lseek:ofs <- $r5
	@DEBUG_VALUE: f_lseek:fs <- [DW_OP_plus_uconst 4, DW_OP_deref] $sp
	.loc	2 4072 15 is_stmt 1     @ ../User/FATFS/ff.c:4072:15
	mov	r8, r4
	movs	r1, #0
.Ltmp725:
	@DEBUG_VALUE: f_lseek:nsect <- 0
	.loc	2 0 15 is_stmt 0        @ ../User/FATFS/ff.c:0:15
	mov	r6, r5
.Ltmp726:
	@DEBUG_VALUE: f_lseek:ofs <- $r6
	.loc	2 4072 15               @ ../User/FATFS/ff.c:4072:15
	ldr	r0, [r8, #20]!
	.loc	2 4073 12 is_stmt 1     @ ../User/FATFS/ff.c:4073:12
	str.w	r1, [r8]
	b	.LBB22_7
.Ltmp727:
.LBB22_5:
	@DEBUG_VALUE: f_lseek:fp <- $r4
	@DEBUG_VALUE: f_lseek:ofs <- $r5
	@DEBUG_VALUE: f_lseek:fs <- [DW_OP_plus_uconst 4, DW_OP_deref] $sp
	.loc	2 0 12 is_stmt 0        @ ../User/FATFS/ff.c:0:12
	mov	r6, r5
.Ltmp728:
	@DEBUG_VALUE: f_lseek:ofs <- $r6
.LBB22_6:
	@DEBUG_VALUE: f_lseek:fp <- $r4
	@DEBUG_VALUE: f_lseek:fs <- [DW_OP_plus_uconst 4, DW_OP_deref] $sp
	@DEBUG_VALUE: f_lseek:ofs <- $r6
	.loc	2 4072 15 is_stmt 1     @ ../User/FATFS/ff.c:4072:15
	mov	r8, r4
	movs	r5, #0
	@DEBUG_VALUE: f_lseek:nsect <- 0
	.loc	2 4074 7                @ ../User/FATFS/ff.c:4074:7
	cmp	r6, #0
	.loc	2 4072 15               @ ../User/FATFS/ff.c:4072:15
	ldr	r0, [r8, #20]!
.Ltmp729:
	@DEBUG_VALUE: f_lseek:ifptr <- $r0
	.loc	2 4073 12               @ ../User/FATFS/ff.c:4073:12
	str.w	r5, [r8]
	beq	.LBB22_14
.Ltmp730:
.LBB22_7:
	@DEBUG_VALUE: f_lseek:ofs <- $r6
	@DEBUG_VALUE: f_lseek:fp <- $r4
	@DEBUG_VALUE: f_lseek:fs <- [DW_OP_plus_uconst 4, DW_OP_deref] $sp
	.loc	2 4075 17               @ ../User/FATFS/ff.c:4075:17
	ldr	r5, [sp, #4]
.Ltmp731:
	@DEBUG_VALUE: f_lseek:fs <- $r5
	.loc	2 4076 18               @ ../User/FATFS/ff.c:4076:18
	cmp	r0, #0
.Ltmp732:
	.loc	2 4075 21               @ ../User/FATFS/ff.c:4075:21
	ldrh	r1, [r5, #10]
	.loc	2 4075 27 is_stmt 0     @ ../User/FATFS/ff.c:4075:27
	lsl.w	r7, r1, #9
.Ltmp733:
	@DEBUG_VALUE: f_lseek:bcs <- $r7
	.loc	2 4076 18 is_stmt 1     @ ../User/FATFS/ff.c:4076:18
	beq	.LBB22_9
.Ltmp734:
@ %bb.8:
	@DEBUG_VALUE: f_lseek:bcs <- $r7
	@DEBUG_VALUE: f_lseek:fs <- $r5
	@DEBUG_VALUE: f_lseek:ofs <- $r6
	@DEBUG_VALUE: f_lseek:fp <- $r4
	.loc	2 4077 10               @ ../User/FATFS/ff.c:4077:10
	subs	r2, r6, #1
	.loc	2 4077 31 is_stmt 0     @ ../User/FATFS/ff.c:4077:31
	subs	r0, #1
	.loc	2 4077 36               @ ../User/FATFS/ff.c:4077:36
	udiv	r1, r0, r7
	.loc	2 4077 15               @ ../User/FATFS/ff.c:4077:15
	udiv	r2, r2, r7
.Ltmp735:
	.loc	2 4076 8 is_stmt 1      @ ../User/FATFS/ff.c:4076:8
	cmp	r2, r1
	bhs	.LBB22_11
.Ltmp736:
.LBB22_9:
	@DEBUG_VALUE: f_lseek:bcs <- $r7
	@DEBUG_VALUE: f_lseek:fs <- $r5
	@DEBUG_VALUE: f_lseek:ofs <- $r6
	@DEBUG_VALUE: f_lseek:fp <- $r4
	.loc	2 4082 20               @ ../User/FATFS/ff.c:4082:20
	ldr	r1, [r4, #8]
.Ltmp737:
	@DEBUG_VALUE: f_lseek:clst <- $r1
	.loc	2 4084 9                @ ../User/FATFS/ff.c:4084:9
	cmp	r1, #0
	beq	.LBB22_33
.Ltmp738:
.LBB22_10:
	@DEBUG_VALUE: f_lseek:clst <- $r1
	@DEBUG_VALUE: f_lseek:bcs <- $r7
	@DEBUG_VALUE: f_lseek:fs <- $r5
	@DEBUG_VALUE: f_lseek:ofs <- $r6
	@DEBUG_VALUE: f_lseek:fp <- $r4
	@DEBUG_VALUE: f_lseek:clst <- $r1
	.loc	2 4091 15               @ ../User/FATFS/ff.c:4091:15
	str	r1, [r4, #24]
	b	.LBB22_12
.Ltmp739:
.LBB22_11:
	@DEBUG_VALUE: f_lseek:bcs <- $r7
	@DEBUG_VALUE: f_lseek:fs <- $r5
	@DEBUG_VALUE: f_lseek:ofs <- $r6
	@DEBUG_VALUE: f_lseek:fp <- $r4
	.loc	2 4078 30               @ ../User/FATFS/ff.c:4078:30
	rsbs	r1, r7, #0
	.loc	2 4078 28 is_stmt 0     @ ../User/FATFS/ff.c:4078:28
	ands	r0, r1
	.loc	2 4078 14               @ ../User/FATFS/ff.c:4078:14
	str	r0, [r4, #20]
	.loc	2 4079 9 is_stmt 1      @ ../User/FATFS/ff.c:4079:9
	subs	r6, r6, r0
.Ltmp740:
	@DEBUG_VALUE: f_lseek:ofs <- $r6
	.loc	2 4080 16               @ ../User/FATFS/ff.c:4080:16
	ldr	r1, [r4, #24]
.Ltmp741:
	@DEBUG_VALUE: f_lseek:clst <- $r1
.LBB22_12:
	@DEBUG_VALUE: f_lseek:clst <- $r1
	@DEBUG_VALUE: f_lseek:bcs <- $r7
	@DEBUG_VALUE: f_lseek:fs <- $r5
	@DEBUG_VALUE: f_lseek:ofs <- $r6
	@DEBUG_VALUE: f_lseek:fp <- $r4
	@DEBUG_VALUE: f_lseek:ofs <- $r6
	@DEBUG_VALUE: f_lseek:clst <- $r1
	.loc	2 4093 8                @ ../User/FATFS/ff.c:4093:8
	cbnz	r1, .LBB22_29
.Ltmp742:
.LBB22_13:
	@DEBUG_VALUE: f_lseek:clst <- $r1
	@DEBUG_VALUE: f_lseek:bcs <- $r7
	@DEBUG_VALUE: f_lseek:fs <- $r5
	@DEBUG_VALUE: f_lseek:ofs <- $r6
	@DEBUG_VALUE: f_lseek:fp <- $r4
	.loc	2 0 8 is_stmt 0         @ ../User/FATFS/ff.c:0:8
	movs	r5, #0
.Ltmp743:
.LBB22_14:
	@DEBUG_VALUE: f_lseek:ofs <- $r6
	@DEBUG_VALUE: f_lseek:fp <- $r4
	@DEBUG_VALUE: f_lseek:nsect <- $r5
	.loc	2 4123 43 is_stmt 1     @ ../User/FATFS/ff.c:4123:43
	ldr	r1, [r4, #12]
	.loc	2 4123 28 is_stmt 0     @ ../User/FATFS/ff.c:4123:28
	ldr	r0, [r4, #20]
.Ltmp744:
	.loc	2 4123 7                @ ../User/FATFS/ff.c:4123:7
	cmp	r0, r1
	bls	.LBB22_16
.Ltmp745:
@ %bb.15:
	@DEBUG_VALUE: f_lseek:nsect <- $r5
	@DEBUG_VALUE: f_lseek:ofs <- $r6
	@DEBUG_VALUE: f_lseek:fp <- $r4
	.loc	2 4124 20 is_stmt 1     @ ../User/FATFS/ff.c:4124:20
	str	r0, [r4, #12]
	.loc	2 4125 13               @ ../User/FATFS/ff.c:4125:13
	ldrb	r1, [r4, #16]
	orr	r1, r1, #64
	strb	r1, [r4, #16]
.Ltmp746:
.LBB22_16:
	@DEBUG_VALUE: f_lseek:nsect <- $r5
	@DEBUG_VALUE: f_lseek:ofs <- $r6
	@DEBUG_VALUE: f_lseek:fp <- $r4
	.loc	2 4127 25               @ ../User/FATFS/ff.c:4127:25
	lsls	r0, r0, #23
	beq	.LBB22_21
.Ltmp747:
@ %bb.17:
	@DEBUG_VALUE: f_lseek:nsect <- $r5
	@DEBUG_VALUE: f_lseek:ofs <- $r6
	@DEBUG_VALUE: f_lseek:fp <- $r4
	.loc	2 4127 41 is_stmt 0     @ ../User/FATFS/ff.c:4127:41
	ldr	r2, [r4, #28]
.Ltmp748:
	.loc	2 4127 7                @ ../User/FATFS/ff.c:4127:7
	cmp	r5, r2
	beq	.LBB22_21
.Ltmp749:
@ %bb.18:
	@DEBUG_VALUE: f_lseek:nsect <- $r5
	@DEBUG_VALUE: f_lseek:ofs <- $r6
	@DEBUG_VALUE: f_lseek:fp <- $r4
	.loc	2 4130 12 is_stmt 1     @ ../User/FATFS/ff.c:4130:12
	ldrsb.w	r0, [r4, #16]
.Ltmp750:
	.loc	2 0 0 is_stmt 0         @ ../User/FATFS/ff.c:0:0
	ldr	r7, [sp, #4]
.Ltmp751:
	@DEBUG_VALUE: f_lseek:fs <- $r7
	.loc	2 4130 8                @ ../User/FATFS/ff.c:4130:8
	cmp.w	r0, #-1
	ble	.LBB22_37
.Ltmp752:
.LBB22_19:
	@DEBUG_VALUE: f_lseek:fs <- $r7
	@DEBUG_VALUE: f_lseek:nsect <- $r5
	@DEBUG_VALUE: f_lseek:fp <- $r4
	.loc	2 4135 22 is_stmt 1     @ ../User/FATFS/ff.c:4135:22
	ldrb	r0, [r7, #1]
	.loc	2 4135 27 is_stmt 0     @ ../User/FATFS/ff.c:4135:27
	add.w	r1, r4, #40
	.loc	2 4135 8                @ ../User/FATFS/ff.c:4135:8
	mov	r2, r5
	movs	r3, #1
	movs	r6, #1
	bl	disk_read
.Ltmp753:
	.loc	2 4135 8                @ ../User/FATFS/ff.c:4135:8
	cmp	r0, #0
	bne	.LBB22_38
.Ltmp754:
@ %bb.20:
	@DEBUG_VALUE: f_lseek:fs <- $r7
	@DEBUG_VALUE: f_lseek:nsect <- $r5
	@DEBUG_VALUE: f_lseek:fp <- $r4
	.loc	2 4137 13 is_stmt 1     @ ../User/FATFS/ff.c:4137:13
	str	r5, [r4, #28]
.Ltmp755:
.LBB22_21:
	@DEBUG_VALUE: f_lseek:nsect <- $r5
	@DEBUG_VALUE: f_lseek:fp <- $r4
	.loc	2 0 13 is_stmt 0        @ ../User/FATFS/ff.c:0:13
	movs	r6, #0
	b	.LBB22_39
.Ltmp756:
.LBB22_22:                              @   in Loop: Header=BB22_29 Depth=1
	@DEBUG_VALUE: f_lseek:clst <- $r1
	@DEBUG_VALUE: f_lseek:bcs <- $r7
	@DEBUG_VALUE: f_lseek:fs <- $r5
	@DEBUG_VALUE: f_lseek:ofs <- $r6
	@DEBUG_VALUE: f_lseek:fp <- $r4
	.loc	2 4095 27 is_stmt 1     @ ../User/FATFS/ff.c:4095:27
	ldr	r0, [r4, #20]
	add	r0, r7
	str	r0, [r4, #20]
.Ltmp757:
	.loc	2 4097 14               @ ../User/FATFS/ff.c:4097:14
	ldrb	r0, [r4, #16]
.Ltmp758:
	.loc	2 4097 10 is_stmt 0     @ ../User/FATFS/ff.c:4097:10
	lsls	r0, r0, #30
	bmi	.LBB22_24
.Ltmp759:
@ %bb.23:                               @   in Loop: Header=BB22_29 Depth=1
	@DEBUG_VALUE: f_lseek:clst <- $r1
	@DEBUG_VALUE: f_lseek:bcs <- $r7
	@DEBUG_VALUE: f_lseek:fs <- $r5
	@DEBUG_VALUE: f_lseek:ofs <- $r6
	@DEBUG_VALUE: f_lseek:fp <- $r4
	.loc	2 4109 14 is_stmt 1     @ ../User/FATFS/ff.c:4109:14
	mov	r0, r4
	bl	get_fat
.Ltmp760:
	mov	r1, r0
.Ltmp761:
	@DEBUG_VALUE: f_lseek:clst <- $r1
	.loc	2 0 14 is_stmt 0        @ ../User/FATFS/ff.c:0:14
	b	.LBB22_25
.Ltmp762:
.LBB22_24:                              @   in Loop: Header=BB22_29 Depth=1
	@DEBUG_VALUE: f_lseek:clst <- $r1
	@DEBUG_VALUE: f_lseek:bcs <- $r7
	@DEBUG_VALUE: f_lseek:fs <- $r5
	@DEBUG_VALUE: f_lseek:ofs <- $r6
	@DEBUG_VALUE: f_lseek:fp <- $r4
	.loc	2 4102 14 is_stmt 1     @ ../User/FATFS/ff.c:4102:14
	mov	r0, r4
	bl	create_chain
.Ltmp763:
	mov	r1, r0
.Ltmp764:
	@DEBUG_VALUE: f_lseek:clst <- $r1
	.loc	2 4103 11               @ ../User/FATFS/ff.c:4103:11
	cmp	r0, #0
	beq	.LBB22_13
.Ltmp765:
.LBB22_25:                              @   in Loop: Header=BB22_29 Depth=1
	@DEBUG_VALUE: f_lseek:clst <- $r1
	@DEBUG_VALUE: f_lseek:bcs <- $r7
	@DEBUG_VALUE: f_lseek:fs <- $r5
	@DEBUG_VALUE: f_lseek:ofs <- $r6
	@DEBUG_VALUE: f_lseek:fp <- $r4
	@DEBUG_VALUE: f_lseek:clst <- $r1
	.loc	2 4111 10               @ ../User/FATFS/ff.c:4111:10
	adds	r0, r1, #1
	beq	.LBB22_36
.Ltmp766:
@ %bb.26:                               @   in Loop: Header=BB22_29 Depth=1
	@DEBUG_VALUE: f_lseek:clst <- $r1
	@DEBUG_VALUE: f_lseek:bcs <- $r7
	@DEBUG_VALUE: f_lseek:fs <- $r5
	@DEBUG_VALUE: f_lseek:ofs <- $r6
	@DEBUG_VALUE: f_lseek:fp <- $r4
	.loc	2 4112 20               @ ../User/FATFS/ff.c:4112:20
	cmp	r1, #2
	blo	.LBB22_35
.Ltmp767:
@ %bb.27:                               @   in Loop: Header=BB22_29 Depth=1
	@DEBUG_VALUE: f_lseek:clst <- $r1
	@DEBUG_VALUE: f_lseek:bcs <- $r7
	@DEBUG_VALUE: f_lseek:fs <- $r5
	@DEBUG_VALUE: f_lseek:ofs <- $r6
	@DEBUG_VALUE: f_lseek:fp <- $r4
	.loc	2 4112 35 is_stmt 0     @ ../User/FATFS/ff.c:4112:35
	ldr	r0, [r5, #20]
.Ltmp768:
	.loc	2 4112 10               @ ../User/FATFS/ff.c:4112:10
	cmp	r1, r0
	bhs	.LBB22_35
.Ltmp769:
@ %bb.28:                               @   in Loop: Header=BB22_29 Depth=1
	@DEBUG_VALUE: f_lseek:clst <- $r1
	@DEBUG_VALUE: f_lseek:bcs <- $r7
	@DEBUG_VALUE: f_lseek:fs <- $r5
	@DEBUG_VALUE: f_lseek:ofs <- $r6
	@DEBUG_VALUE: f_lseek:fp <- $r4
	.loc	2 0 0                   @ ../User/FATFS/ff.c:0:0
	subs	r6, r6, r7
.Ltmp770:
	@DEBUG_VALUE: f_lseek:ofs <- $r6
	.loc	2 4113 16 is_stmt 1     @ ../User/FATFS/ff.c:4113:16
	str	r1, [r4, #24]
.Ltmp771:
.LBB22_29:                              @ =>This Inner Loop Header: Depth=1
	@DEBUG_VALUE: f_lseek:clst <- $r1
	@DEBUG_VALUE: f_lseek:bcs <- $r7
	@DEBUG_VALUE: f_lseek:fs <- $r5
	@DEBUG_VALUE: f_lseek:ofs <- $r6
	@DEBUG_VALUE: f_lseek:fp <- $r4
	@DEBUG_VALUE: f_lseek:ofs <- $r6
	@DEBUG_VALUE: f_lseek:clst <- $r1
	.loc	2 4094 5                @ ../User/FATFS/ff.c:4094:5
	cmp	r6, r7
	bhi	.LBB22_22
.Ltmp772:
@ %bb.30:
	@DEBUG_VALUE: f_lseek:clst <- $r1
	@DEBUG_VALUE: f_lseek:bcs <- $r7
	@DEBUG_VALUE: f_lseek:fs <- $r5
	@DEBUG_VALUE: f_lseek:ofs <- $r6
	@DEBUG_VALUE: f_lseek:fp <- $r4
	.loc	2 4115 14               @ ../User/FATFS/ff.c:4115:14
	ldr.w	r0, [r8]
	add	r0, r6
	str.w	r0, [r8]
	.loc	2 4116 9                @ ../User/FATFS/ff.c:4116:9
	lsls	r0, r6, #23
	beq	.LBB22_13
.Ltmp773:
@ %bb.31:
	@DEBUG_VALUE: f_lseek:clst <- $r1
	@DEBUG_VALUE: f_lseek:bcs <- $r7
	@DEBUG_VALUE: f_lseek:fs <- $r5
	@DEBUG_VALUE: f_lseek:ofs <- $r6
	@DEBUG_VALUE: f_lseek:fp <- $r4
	.loc	2 4117 14               @ ../User/FATFS/ff.c:4117:14
	mov	r0, r5
	bl	clust2sect
.Ltmp774:
	@DEBUG_VALUE: f_lseek:nsect <- $r0
	.loc	2 4118 10               @ ../User/FATFS/ff.c:4118:10
	cbz	r0, .LBB22_35
.Ltmp775:
@ %bb.32:
	@DEBUG_VALUE: f_lseek:nsect <- $r0
	@DEBUG_VALUE: f_lseek:bcs <- $r7
	@DEBUG_VALUE: f_lseek:fs <- $r5
	@DEBUG_VALUE: f_lseek:ofs <- $r6
	@DEBUG_VALUE: f_lseek:fp <- $r4
	.loc	2 4119 12               @ ../User/FATFS/ff.c:4119:12
	add.w	r5, r0, r6, lsr #9
.Ltmp776:
	@DEBUG_VALUE: f_lseek:nsect <- $r5
	.loc	2 0 12 is_stmt 0        @ ../User/FATFS/ff.c:0:12
	b	.LBB22_14
.Ltmp777:
.LBB22_33:
	@DEBUG_VALUE: f_lseek:clst <- $r1
	@DEBUG_VALUE: f_lseek:bcs <- $r7
	@DEBUG_VALUE: f_lseek:fs <- $r5
	@DEBUG_VALUE: f_lseek:ofs <- $r6
	@DEBUG_VALUE: f_lseek:fp <- $r4
	.loc	2 4085 13 is_stmt 1     @ ../User/FATFS/ff.c:4085:13
	mov	r0, r4
	movs	r1, #0
.Ltmp778:
	bl	create_chain
	mov	r1, r0
.Ltmp779:
	@DEBUG_VALUE: f_lseek:clst <- $r1
	.loc	2 4086 10               @ ../User/FATFS/ff.c:4086:10
	adds	r0, #1
	beq	.LBB22_36
.Ltmp780:
@ %bb.34:
	@DEBUG_VALUE: f_lseek:clst <- $r1
	@DEBUG_VALUE: f_lseek:bcs <- $r7
	@DEBUG_VALUE: f_lseek:fs <- $r5
	@DEBUG_VALUE: f_lseek:ofs <- $r6
	@DEBUG_VALUE: f_lseek:fp <- $r4
	cmp	r1, #1
	bne	.LBB22_40
.Ltmp781:
.LBB22_35:
	@DEBUG_VALUE: f_lseek:bcs <- $r7
	@DEBUG_VALUE: f_lseek:fs <- $r5
	@DEBUG_VALUE: f_lseek:ofs <- $r6
	@DEBUG_VALUE: f_lseek:fp <- $r4
	.loc	2 0 10 is_stmt 0        @ ../User/FATFS/ff.c:0:10
	movs	r6, #2
.Ltmp782:
	b	.LBB22_38
.Ltmp783:
.LBB22_36:
	@DEBUG_VALUE: f_lseek:clst <- $r1
	@DEBUG_VALUE: f_lseek:bcs <- $r7
	@DEBUG_VALUE: f_lseek:fs <- $r5
	@DEBUG_VALUE: f_lseek:ofs <- $r6
	@DEBUG_VALUE: f_lseek:fp <- $r4
	movs	r6, #1
.Ltmp784:
	b	.LBB22_38
.Ltmp785:
.LBB22_37:
	@DEBUG_VALUE: f_lseek:fs <- $r7
	@DEBUG_VALUE: f_lseek:nsect <- $r5
	@DEBUG_VALUE: f_lseek:ofs <- $r6
	@DEBUG_VALUE: f_lseek:fp <- $r4
	.loc	2 4131 24 is_stmt 1     @ ../User/FATFS/ff.c:4131:24
	ldrb	r0, [r7, #1]
	.loc	2 4131 29 is_stmt 0     @ ../User/FATFS/ff.c:4131:29
	add.w	r1, r4, #40
	.loc	2 4131 9                @ ../User/FATFS/ff.c:4131:9
	movs	r3, #1
	movs	r6, #1
.Ltmp786:
	bl	disk_write
.Ltmp787:
	.loc	2 4131 9                @ ../User/FATFS/ff.c:4131:9
	cbz	r0, .LBB22_41
.Ltmp788:
.LBB22_38:
	@DEBUG_VALUE: f_lseek:fp <- $r4
	.loc	2 0 0                   @ ../User/FATFS/ff.c:0:0
	strb	r6, [r4, #17]
.Ltmp789:
.LBB22_39:
	@DEBUG_VALUE: f_lseek:fp <- $r4
	.loc	2 4142 1 is_stmt 1      @ ../User/FATFS/ff.c:4142:1
	mov	r0, r6
	add	sp, #8
	pop.w	{r4, r5, r6, r7, r8, pc}
.Ltmp790:
.LBB22_40:
	@DEBUG_VALUE: f_lseek:clst <- $r1
	@DEBUG_VALUE: f_lseek:bcs <- $r7
	@DEBUG_VALUE: f_lseek:fs <- $r5
	@DEBUG_VALUE: f_lseek:ofs <- $r6
	@DEBUG_VALUE: f_lseek:fp <- $r4
	.loc	2 4088 21               @ ../User/FATFS/ff.c:4088:21
	str	r1, [r4, #8]
	b	.LBB22_10
.Ltmp791:
.LBB22_41:
	@DEBUG_VALUE: f_lseek:fs <- $r7
	@DEBUG_VALUE: f_lseek:nsect <- $r5
	@DEBUG_VALUE: f_lseek:fp <- $r4
	.loc	2 4132 14               @ ../User/FATFS/ff.c:4132:14
	ldrb	r0, [r4, #16]
	and	r0, r0, #127
	strb	r0, [r4, #16]
	b	.LBB22_19
.Ltmp792:
.Lfunc_end22:
	.size	f_lseek, .Lfunc_end22-f_lseek
	.cfi_endproc
	.cantunwind
	.fnend
                                        @ -- End function
	.section	.text.f_opendir,"ax",%progbits
	.hidden	f_opendir               @ -- Begin function f_opendir
	.globl	f_opendir
	.p2align	1
	.type	f_opendir,%function
	.code	16                      @ @f_opendir
	.thumb_func
f_opendir:
.Lfunc_begin23:
	.loc	2 4155 0                @ ../User/FATFS/ff.c:4155:0
	.fnstart
	.cfi_startproc
@ %bb.0:
	.save	{r4, r5, r6, lr}
	.pad	#8
	push	{r2, r3, r4, r5, r6, lr}
	.cfi_def_cfa_offset 24
	.cfi_offset lr, -4
	.cfi_offset r6, -8
	.cfi_offset r5, -12
	.cfi_offset r4, -16
	@DEBUG_VALUE: f_opendir:dp <- $r0
	@DEBUG_VALUE: f_opendir:path <- $r1
	@DEBUG_VALUE: f_opendir:path <- $r1
.Ltmp793:
	@DEBUG_VALUE: f_opendir:obj <- $r0
	.loc	2 4162 6 prologue_end   @ ../User/FATFS/ff.c:4162:6
	cmp	r0, #0
	str	r1, [sp, #4]
	beq	.LBB23_6
.Ltmp794:
@ %bb.1:
	@DEBUG_VALUE: f_opendir:obj <- $r0
	@DEBUG_VALUE: f_opendir:path <- $r1
	@DEBUG_VALUE: f_opendir:dp <- $r0
	.loc	2 0 6 is_stmt 0         @ ../User/FATFS/ff.c:0:6
	mov	r4, r0
.Ltmp795:
	@DEBUG_VALUE: f_opendir:dp <- $r4
	@DEBUG_VALUE: f_opendir:dp <- $r4
	@DEBUG_VALUE: f_opendir:obj <- $r4
	@DEBUG_VALUE: f_opendir:path <- [DW_OP_plus_uconst 4, DW_OP_deref] $sp
	@DEBUG_VALUE: f_opendir:fs <- [DW_OP_deref] $sp
	add	r0, sp, #4
	mov	r1, sp
	.loc	2 4166 8 is_stmt 1      @ ../User/FATFS/ff.c:4166:8
	movs	r2, #0
	movs	r6, #0
	bl	find_volume
.Ltmp796:
	@DEBUG_VALUE: f_opendir:res <- $r0
	.loc	2 4167 6                @ ../User/FATFS/ff.c:4167:6
	cbnz	r0, .LBB23_11
.Ltmp797:
@ %bb.2:
	@DEBUG_VALUE: f_opendir:res <- $r0
	@DEBUG_VALUE: f_opendir:fs <- [DW_OP_deref] $sp
	@DEBUG_VALUE: f_opendir:path <- [DW_OP_plus_uconst 4, DW_OP_deref] $sp
	@DEBUG_VALUE: f_opendir:obj <- $r4
	@DEBUG_VALUE: f_opendir:dp <- $r4
	.loc	2 4168 13               @ ../User/FATFS/ff.c:4168:13
	ldr	r5, [sp]
.Ltmp798:
	@DEBUG_VALUE: f_opendir:fs <- $r5
	@DEBUG_VALUE: f_opendir:fs <- [DW_OP_deref] $sp
	.loc	2 4170 9                @ ../User/FATFS/ff.c:4170:9
	mov	r0, r4
.Ltmp799:
	.loc	2 4168 11               @ ../User/FATFS/ff.c:4168:11
	str	r5, [r4]
	.loc	2 4170 25               @ ../User/FATFS/ff.c:4170:25
	ldr	r1, [sp, #4]
.Ltmp800:
	@DEBUG_VALUE: f_opendir:path <- $r1
	.loc	2 4170 9 is_stmt 0      @ ../User/FATFS/ff.c:4170:9
	bl	follow_path
.Ltmp801:
	@DEBUG_VALUE: f_opendir:res <- $r0
	.loc	2 4171 7 is_stmt 1      @ ../User/FATFS/ff.c:4171:7
	cbnz	r0, .LBB23_9
.Ltmp802:
@ %bb.3:
	@DEBUG_VALUE: f_opendir:res <- $r0
	@DEBUG_VALUE: f_opendir:fs <- [DW_OP_deref] $sp
	@DEBUG_VALUE: f_opendir:obj <- $r4
	@DEBUG_VALUE: f_opendir:dp <- $r4
	.loc	2 4172 10               @ ../User/FATFS/ff.c:4172:10
	ldrsb.w	r0, [r4, #43]
.Ltmp803:
	.loc	2 4172 8 is_stmt 0      @ ../User/FATFS/ff.c:4172:8
	cmp	r0, #0
	blt	.LBB23_8
.Ltmp804:
@ %bb.4:
	@DEBUG_VALUE: f_opendir:fs <- [DW_OP_deref] $sp
	@DEBUG_VALUE: f_opendir:obj <- $r4
	@DEBUG_VALUE: f_opendir:dp <- $r4
	.loc	2 4173 14 is_stmt 1     @ ../User/FATFS/ff.c:4173:14
	ldrb	r0, [r4, #6]
.Ltmp805:
	.loc	2 4173 9 is_stmt 0      @ ../User/FATFS/ff.c:4173:9
	lsls	r0, r0, #27
	bmi	.LBB23_7
.Ltmp806:
@ %bb.5:
	@DEBUG_VALUE: f_opendir:fs <- [DW_OP_deref] $sp
	@DEBUG_VALUE: f_opendir:obj <- $r4
	@DEBUG_VALUE: f_opendir:dp <- $r4
	.loc	2 0 9                   @ ../User/FATFS/ff.c:0:9
	movs	r0, #5
	b	.LBB23_11
.Ltmp807:
.LBB23_6:
	@DEBUG_VALUE: f_opendir:obj <- $r0
	@DEBUG_VALUE: f_opendir:path <- $r1
	@DEBUG_VALUE: f_opendir:dp <- $r0
	movs	r0, #9
.Ltmp808:
	b	.LBB23_12
.Ltmp809:
.LBB23_7:
	@DEBUG_VALUE: f_opendir:fs <- [DW_OP_deref] $sp
	@DEBUG_VALUE: f_opendir:obj <- $r4
	@DEBUG_VALUE: f_opendir:dp <- $r4
	.loc	2 4185 38 is_stmt 1     @ ../User/FATFS/ff.c:4185:38
	ldr	r1, [r4, #28]
	.loc	2 4185 21 is_stmt 0     @ ../User/FATFS/ff.c:4185:21
	mov	r0, r5
	bl	ld_clust
	.loc	2 4185 19               @ ../User/FATFS/ff.c:4185:19
	str	r0, [r4, #8]
.Ltmp810:
.LBB23_8:
	@DEBUG_VALUE: f_opendir:fs <- [DW_OP_deref] $sp
	@DEBUG_VALUE: f_opendir:obj <- $r4
	@DEBUG_VALUE: f_opendir:dp <- $r4
	.loc	2 4192 19 is_stmt 1     @ ../User/FATFS/ff.c:4192:19
	ldrh	r0, [r5, #6]
	.loc	2 4192 13 is_stmt 0     @ ../User/FATFS/ff.c:4192:13
	strh	r0, [r4, #4]
	.loc	2 4193 11 is_stmt 1     @ ../User/FATFS/ff.c:4193:11
	mov	r0, r4
	bl	dir_sdi
.Ltmp811:
	@DEBUG_VALUE: f_opendir:res <- undef
.LBB23_9:
	@DEBUG_VALUE: f_opendir:fs <- [DW_OP_deref] $sp
	@DEBUG_VALUE: f_opendir:obj <- $r4
	@DEBUG_VALUE: f_opendir:dp <- $r4
	@DEBUG_VALUE: f_opendir:res <- $r0
	.loc	2 4207 7                @ ../User/FATFS/ff.c:4207:7
	cbz	r0, .LBB23_12
.Ltmp812:
@ %bb.10:
	@DEBUG_VALUE: f_opendir:res <- $r0
	@DEBUG_VALUE: f_opendir:fs <- [DW_OP_deref] $sp
	@DEBUG_VALUE: f_opendir:obj <- $r4
	@DEBUG_VALUE: f_opendir:dp <- $r4
	cmp	r0, #4
	it	eq
	moveq	r0, #5
.Ltmp813:
.LBB23_11:
	@DEBUG_VALUE: f_opendir:fs <- [DW_OP_deref] $sp
	@DEBUG_VALUE: f_opendir:obj <- $r4
	@DEBUG_VALUE: f_opendir:dp <- $r4
	.loc	2 4209 28               @ ../User/FATFS/ff.c:4209:28
	str	r6, [r4]
.Ltmp814:
.LBB23_12:
	.loc	2 4212 1                @ ../User/FATFS/ff.c:4212:1
	add	sp, #8
	pop	{r4, r5, r6, pc}
.Ltmp815:
.Lfunc_end23:
	.size	f_opendir, .Lfunc_end23-f_opendir
	.cfi_endproc
	.cantunwind
	.fnend
                                        @ -- End function
	.section	.text.dir_sdi,"ax",%progbits
	.p2align	1               @ -- Begin function dir_sdi
	.type	dir_sdi,%function
	.code	16                      @ @dir_sdi
	.thumb_func
dir_sdi:
.Lfunc_begin24:
	.loc	2 1474 0                @ ../User/FATFS/ff.c:1474:0
	.fnstart
	.cfi_startproc
@ %bb.0:
	.save	{r4, r5, r6, r7, r8, lr}
	push.w	{r4, r5, r6, r7, r8, lr}
	.cfi_def_cfa_offset 24
	.cfi_offset lr, -4
	.cfi_offset r8, -8
	.cfi_offset r7, -12
	.cfi_offset r6, -16
	.cfi_offset r5, -20
	.cfi_offset r4, -24
	@DEBUG_VALUE: dir_sdi:dp <- $r0
	mov	r4, r0
	movs	r0, #0
.Ltmp816:
	@DEBUG_VALUE: dir_sdi:ofs <- 0
	@DEBUG_VALUE: dir_sdi:dp <- $r4
	.loc	2 1482 11 prologue_end  @ ../User/FATFS/ff.c:1482:11
	str	r0, [r4, #16]
	.loc	2 1483 17               @ ../User/FATFS/ff.c:1483:17
	ldr	r6, [r4, #8]
.Ltmp817:
	@DEBUG_VALUE: dir_sdi:clst <- $r6
	.loc	2 1476 22               @ ../User/FATFS/ff.c:1476:22
	ldr.w	r8, [r4]
.Ltmp818:
	@DEBUG_VALUE: dir_sdi:fs <- $r8
	.loc	2 1484 16               @ ../User/FATFS/ff.c:1484:16
	cbz	r6, .LBB24_7
.Ltmp819:
.LBB24_1:
	@DEBUG_VALUE: dir_sdi:fs <- $r8
	@DEBUG_VALUE: dir_sdi:clst <- $r6
	@DEBUG_VALUE: dir_sdi:dp <- $r4
	.loc	2 1494 20               @ ../User/FATFS/ff.c:1494:20
	ldrh.w	r0, [r8, #10]
	movs	r7, #0
	.loc	2 1494 26 is_stmt 0     @ ../User/FATFS/ff.c:1494:26
	lsls	r5, r0, #9
.Ltmp820:
	@DEBUG_VALUE: dir_sdi:csz <- $r5
	.loc	2 0 26                  @ ../User/FATFS/ff.c:0:26
	b	.LBB24_5
.Ltmp821:
.LBB24_2:                               @   in Loop: Header=BB24_5 Depth=1
	@DEBUG_VALUE: dir_sdi:ofs <- $r7
	@DEBUG_VALUE: dir_sdi:csz <- $r5
	@DEBUG_VALUE: dir_sdi:fs <- $r8
	@DEBUG_VALUE: dir_sdi:clst <- $r6
	@DEBUG_VALUE: dir_sdi:dp <- $r4
	.loc	2 1496 11 is_stmt 1     @ ../User/FATFS/ff.c:1496:11
	mov	r0, r4
	mov	r1, r6
	bl	get_fat
	mov	r6, r0
.Ltmp822:
	@DEBUG_VALUE: dir_sdi:clst <- $r6
	.loc	2 1497 8                @ ../User/FATFS/ff.c:1497:8
	adds	r0, #1
	itt	eq
	moveq	r0, #1
.Ltmp823:
	.loc	2 1509 1                @ ../User/FATFS/ff.c:1509:1
	popeq.w	{r4, r5, r6, r7, r8, pc}
.Ltmp824:
	.loc	2 1498 17               @ ../User/FATFS/ff.c:1498:17
	cmp	r6, #2
	blo	.LBB24_13
@ %bb.3:                                @   in Loop: Header=BB24_5 Depth=1
	.loc	2 1498 32 is_stmt 0     @ ../User/FATFS/ff.c:1498:32
	ldr.w	r0, [r8, #20]
.Ltmp825:
	.loc	2 1498 8                @ ../User/FATFS/ff.c:1498:8
	cmp	r6, r0
	bhs	.LBB24_13
@ %bb.4:                                @   in Loop: Header=BB24_5 Depth=1
	.loc	2 1499 8 is_stmt 1      @ ../User/FATFS/ff.c:1499:8
	subs	r7, r7, r5
.Ltmp826:
	@DEBUG_VALUE: dir_sdi:ofs <- $r7
.LBB24_5:                               @ =>This Inner Loop Header: Depth=1
	@DEBUG_VALUE: dir_sdi:csz <- $r5
	@DEBUG_VALUE: dir_sdi:fs <- $r8
	@DEBUG_VALUE: dir_sdi:clst <- $r6
	@DEBUG_VALUE: dir_sdi:dp <- $r4
	@DEBUG_VALUE: dir_sdi:ofs <- $r7
	@DEBUG_VALUE: dir_sdi:clst <- $r6
	.loc	2 1495 3                @ ../User/FATFS/ff.c:1495:3
	cmp	r7, r5
	bhs	.LBB24_2
.Ltmp827:
@ %bb.6:
	@DEBUG_VALUE: dir_sdi:ofs <- $r7
	@DEBUG_VALUE: dir_sdi:csz <- $r5
	@DEBUG_VALUE: dir_sdi:fs <- $r8
	@DEBUG_VALUE: dir_sdi:clst <- $r6
	@DEBUG_VALUE: dir_sdi:dp <- $r4
	.loc	2 1501 14               @ ../User/FATFS/ff.c:1501:14
	mov	r0, r8
	mov	r1, r6
	bl	clust2sect
	b	.LBB24_11
.Ltmp828:
.LBB24_7:
	@DEBUG_VALUE: dir_sdi:fs <- $r8
	@DEBUG_VALUE: dir_sdi:clst <- $r6
	@DEBUG_VALUE: dir_sdi:dp <- $r4
	.loc	2 1484 23               @ ../User/FATFS/ff.c:1484:23
	ldrb.w	r0, [r8]
.Ltmp829:
	.loc	2 1484 6 is_stmt 0      @ ../User/FATFS/ff.c:1484:6
	cmp	r0, #3
	blo	.LBB24_9
.Ltmp830:
@ %bb.8:
	@DEBUG_VALUE: dir_sdi:fs <- $r8
	@DEBUG_VALUE: dir_sdi:clst <- $r6
	@DEBUG_VALUE: dir_sdi:dp <- $r4
	.loc	2 1485 14 is_stmt 1     @ ../User/FATFS/ff.c:1485:14
	ldr.w	r6, [r8, #36]
.Ltmp831:
	@DEBUG_VALUE: dir_sdi:clst <- $r6
	.loc	2 1489 6                @ ../User/FATFS/ff.c:1489:6
	cmp	r6, #0
	bne	.LBB24_1
.Ltmp832:
.LBB24_9:
	@DEBUG_VALUE: dir_sdi:fs <- $r8
	@DEBUG_VALUE: dir_sdi:clst <- $r6
	@DEBUG_VALUE: dir_sdi:dp <- $r4
	.loc	2 1490 27               @ ../User/FATFS/ff.c:1490:27
	ldrh.w	r0, [r8, #8]
.Ltmp833:
	.loc	2 1490 7 is_stmt 0      @ ../User/FATFS/ff.c:1490:7
	cbz	r0, .LBB24_13
.Ltmp834:
@ %bb.10:
	@DEBUG_VALUE: dir_sdi:fs <- $r8
	@DEBUG_VALUE: dir_sdi:clst <- $r6
	@DEBUG_VALUE: dir_sdi:dp <- $r4
	.loc	2 1491 18 is_stmt 1     @ ../User/FATFS/ff.c:1491:18
	ldr.w	r0, [r8, #36]
	movs	r7, #0
.Ltmp835:
	.loc	2 1485 8                @ ../User/FATFS/ff.c:1485:8
	movs	r6, #0
.Ltmp836:
.LBB24_11:
	@DEBUG_VALUE: dir_sdi:fs <- $r8
	@DEBUG_VALUE: dir_sdi:dp <- $r4
	@DEBUG_VALUE: dir_sdi:ofs <- $r7
	@DEBUG_VALUE: dir_sdi:clst <- $r6
	.loc	2 1504 6                @ ../User/FATFS/ff.c:1504:6
	cmp	r0, #0
	.loc	2 1503 12               @ ../User/FATFS/ff.c:1503:12
	strd	r6, r0, [r4, #20]
	.loc	2 1504 6                @ ../User/FATFS/ff.c:1504:6
	beq	.LBB24_13
.Ltmp837:
@ %bb.12:
	@DEBUG_VALUE: dir_sdi:ofs <- $r7
	@DEBUG_VALUE: dir_sdi:fs <- $r8
	@DEBUG_VALUE: dir_sdi:clst <- $r6
	@DEBUG_VALUE: dir_sdi:dp <- $r4
	.loc	2 1505 11               @ ../User/FATFS/ff.c:1505:11
	add.w	r0, r0, r7, lsr #9
	.loc	2 1506 27               @ ../User/FATFS/ff.c:1506:27
	bfc	r7, #9, #23
.Ltmp838:
	.loc	2 1506 20 is_stmt 0     @ ../User/FATFS/ff.c:1506:20
	add.w	r1, r8, r7
	adds	r1, #48
	.loc	2 1505 11 is_stmt 1     @ ../User/FATFS/ff.c:1505:11
	strd	r0, r1, [r4, #24]
	movs	r0, #0
	.loc	2 1509 1                @ ../User/FATFS/ff.c:1509:1
	pop.w	{r4, r5, r6, r7, r8, pc}
.Ltmp839:
.LBB24_13:
	.loc	2 0 1 is_stmt 0         @ ../User/FATFS/ff.c:0:1
	movs	r0, #2
	.loc	2 1509 1                @ ../User/FATFS/ff.c:1509:1
	pop.w	{r4, r5, r6, r7, r8, pc}
.Ltmp840:
.Lfunc_end24:
	.size	dir_sdi, .Lfunc_end24-dir_sdi
	.cfi_endproc
	.cantunwind
	.fnend
                                        @ -- End function
	.section	.text.f_closedir,"ax",%progbits
	.hidden	f_closedir              @ -- Begin function f_closedir
	.globl	f_closedir
	.p2align	1
	.type	f_closedir,%function
	.code	16                      @ @f_closedir
	.thumb_func
f_closedir:
.Lfunc_begin25:
	.loc	2 4224 0 is_stmt 1      @ ../User/FATFS/ff.c:4224:0
	.fnstart
	.cfi_startproc
@ %bb.0:
	.save	{r4, lr}
	.pad	#8
	push	{r2, r3, r4, lr}
	.cfi_def_cfa_offset 16
	.cfi_offset lr, -4
	.cfi_offset r4, -8
	@DEBUG_VALUE: f_closedir:dp <- $r0
	add	r1, sp, #4
	mov	r4, r0
.Ltmp841:
	@DEBUG_VALUE: f_closedir:fs <- [DW_OP_plus_uconst 4, DW_OP_deref] $sp
	@DEBUG_VALUE: f_closedir:dp <- $r4
	.loc	2 4229 8 prologue_end   @ ../User/FATFS/ff.c:4229:8
	bl	validate
.Ltmp842:
	@DEBUG_VALUE: f_closedir:res <- $r0
	.loc	2 4230 6                @ ../User/FATFS/ff.c:4230:6
	cbnz	r0, .LBB25_2
.Ltmp843:
@ %bb.1:
	@DEBUG_VALUE: f_closedir:res <- $r0
	@DEBUG_VALUE: f_closedir:dp <- $r4
	@DEBUG_VALUE: f_closedir:fs <- [DW_OP_plus_uconst 4, DW_OP_deref] $sp
	.loc	2 0 6 is_stmt 0         @ ../User/FATFS/ff.c:0:6
	movs	r1, #0
.Ltmp844:
	.loc	2 4238 15 is_stmt 1     @ ../User/FATFS/ff.c:4238:15
	str	r1, [r4]
.Ltmp845:
.LBB25_2:
	@DEBUG_VALUE: f_closedir:res <- $r0
	@DEBUG_VALUE: f_closedir:dp <- $r4
	@DEBUG_VALUE: f_closedir:fs <- [DW_OP_plus_uconst 4, DW_OP_deref] $sp
	.loc	2 4244 2                @ ../User/FATFS/ff.c:4244:2
	add	sp, #8
.Ltmp846:
	pop	{r4, pc}
.Ltmp847:
.Lfunc_end25:
	.size	f_closedir, .Lfunc_end25-f_closedir
	.cfi_endproc
	.cantunwind
	.fnend
                                        @ -- End function
	.section	.text.f_readdir,"ax",%progbits
	.hidden	f_readdir               @ -- Begin function f_readdir
	.globl	f_readdir
	.p2align	1
	.type	f_readdir,%function
	.code	16                      @ @f_readdir
	.thumb_func
f_readdir:
.Lfunc_begin26:
	.loc	2 4258 0                @ ../User/FATFS/ff.c:4258:0
	.fnstart
	.cfi_startproc
@ %bb.0:
	.save	{r4, r5, r7, lr}
	.pad	#8
	push	{r2, r3, r4, r5, r7, lr}
	.cfi_def_cfa_offset 24
	.cfi_offset lr, -4
	.cfi_offset r7, -8
	.cfi_offset r5, -12
	.cfi_offset r4, -16
	@DEBUG_VALUE: f_readdir:dp <- $r0
	@DEBUG_VALUE: f_readdir:fno <- $r1
	mov	r5, r1
	add	r1, sp, #4
.Ltmp848:
	mov	r4, r0
.Ltmp849:
	@DEBUG_VALUE: f_readdir:fs <- [DW_OP_plus_uconst 4, DW_OP_deref] $sp
	@DEBUG_VALUE: f_readdir:fno <- $r5
	@DEBUG_VALUE: f_readdir:dp <- $r4
	.loc	2 4264 8 prologue_end   @ ../User/FATFS/ff.c:4264:8
	bl	validate
.Ltmp850:
	@DEBUG_VALUE: f_readdir:res <- $r0
	.loc	2 4265 6                @ ../User/FATFS/ff.c:4265:6
	cbz	r0, .LBB26_2
.Ltmp851:
.LBB26_1:
	@DEBUG_VALUE: f_readdir:dp <- $r4
	@DEBUG_VALUE: f_readdir:fno <- $r5
	@DEBUG_VALUE: f_readdir:fs <- [DW_OP_plus_uconst 4, DW_OP_deref] $sp
	@DEBUG_VALUE: f_readdir:res <- $r0
	.loc	2 4280 2                @ ../User/FATFS/ff.c:4280:2
	add	sp, #8
.Ltmp852:
	pop	{r4, r5, r7, pc}
.Ltmp853:
.LBB26_2:
	@DEBUG_VALUE: f_readdir:res <- $r0
	@DEBUG_VALUE: f_readdir:dp <- $r4
	@DEBUG_VALUE: f_readdir:fno <- $r5
	@DEBUG_VALUE: f_readdir:fs <- [DW_OP_plus_uconst 4, DW_OP_deref] $sp
	.loc	2 4266 7                @ ../User/FATFS/ff.c:4266:7
	cbz	r5, .LBB26_5
.Ltmp854:
@ %bb.3:
	@DEBUG_VALUE: f_readdir:res <- $r0
	@DEBUG_VALUE: f_readdir:dp <- $r4
	@DEBUG_VALUE: f_readdir:fno <- $r5
	@DEBUG_VALUE: f_readdir:fs <- [DW_OP_plus_uconst 4, DW_OP_deref] $sp
	.loc	2 4270 10               @ ../User/FATFS/ff.c:4270:10
	mov	r0, r4
.Ltmp855:
	bl	dir_read
	mov	r1, r0
.Ltmp856:
	@DEBUG_VALUE: f_readdir:res <- $r1
	.loc	2 4271 8                @ ../User/FATFS/ff.c:4271:8
	subs	r0, #4
	it	ne
	movne	r0, r1
.Ltmp857:
	@DEBUG_VALUE: f_readdir:res <- $r0
	.loc	2 4272 8                @ ../User/FATFS/ff.c:4272:8
	cmp	r0, #0
	bne	.LBB26_1
.Ltmp858:
@ %bb.4:
	@DEBUG_VALUE: f_readdir:res <- $r0
	@DEBUG_VALUE: f_readdir:dp <- $r4
	@DEBUG_VALUE: f_readdir:fno <- $r5
	@DEBUG_VALUE: f_readdir:fs <- [DW_OP_plus_uconst 4, DW_OP_deref] $sp
	.loc	2 4273 5                @ ../User/FATFS/ff.c:4273:5
	mov	r0, r4
.Ltmp859:
	mov	r1, r5
	bl	get_fileinfo
	.loc	2 4274 11               @ ../User/FATFS/ff.c:4274:11
	mov	r0, r4
	movs	r1, #0
	bl	dir_next
	mov	r1, r0
.Ltmp860:
	@DEBUG_VALUE: f_readdir:res <- $r1
	.loc	2 4275 9                @ ../User/FATFS/ff.c:4275:9
	subs	r0, #4
	it	ne
	movne	r0, r1
.Ltmp861:
	@DEBUG_VALUE: f_readdir:res <- $r0
	.loc	2 0 9 is_stmt 0         @ ../User/FATFS/ff.c:0:9
	b	.LBB26_1
.Ltmp862:
.LBB26_5:
	@DEBUG_VALUE: f_readdir:res <- $r0
	@DEBUG_VALUE: f_readdir:dp <- $r4
	@DEBUG_VALUE: f_readdir:fno <- $r5
	@DEBUG_VALUE: f_readdir:fs <- [DW_OP_plus_uconst 4, DW_OP_deref] $sp
	.loc	2 4267 10 is_stmt 1     @ ../User/FATFS/ff.c:4267:10
	mov	r0, r4
.Ltmp863:
	bl	dir_sdi
.Ltmp864:
	@DEBUG_VALUE: f_readdir:res <- undef
	.loc	2 0 10 is_stmt 0        @ ../User/FATFS/ff.c:0:10
	b	.LBB26_1
.Ltmp865:
.Lfunc_end26:
	.size	f_readdir, .Lfunc_end26-f_readdir
	.cfi_endproc
	.cantunwind
	.fnend
                                        @ -- End function
	.section	.text.dir_read,"ax",%progbits
	.p2align	1               @ -- Begin function dir_read
	.type	dir_read,%function
	.code	16                      @ @dir_read
	.thumb_func
dir_read:
.Lfunc_begin27:
	.loc	2 2135 0 is_stmt 1      @ ../User/FATFS/ff.c:2135:0
	.fnstart
	.cfi_startproc
@ %bb.0:
	.save	{r4, r5, r6, lr}
	push	{r4, r5, r6, lr}
	.cfi_def_cfa_offset 16
	.cfi_offset lr, -4
	.cfi_offset r6, -8
	.cfi_offset r5, -12
	.cfi_offset r4, -16
	@DEBUG_VALUE: dir_read:dp <- $r0
.Ltmp866:
	.loc	2 2137 22 prologue_end  @ ../User/FATFS/ff.c:2137:22
	ldr	r5, [r0]
.Ltmp867:
	@DEBUG_VALUE: dir_read:fs <- $r5
	.loc	2 0 22 is_stmt 0        @ ../User/FATFS/ff.c:0:22
	mov	r4, r0
.Ltmp868:
	@DEBUG_VALUE: dir_read:res <- 4
	@DEBUG_VALUE: dir_read:vol <- 0
	@DEBUG_VALUE: dir_read:dp <- $r4
	movs	r6, #4
.Ltmp869:
.LBB27_1:                               @ =>This Inner Loop Header: Depth=1
	@DEBUG_VALUE: dir_read:dp <- $r4
	@DEBUG_VALUE: dir_read:fs <- $r5
	@DEBUG_VALUE: dir_read:res <- $r6
	.loc	2 2143 13 is_stmt 1     @ ../User/FATFS/ff.c:2143:13
	ldr	r1, [r4, #24]
	.loc	2 2143 2 is_stmt 0      @ ../User/FATFS/ff.c:2143:2
	cbz	r1, .LBB27_10
.Ltmp870:
@ %bb.2:                                @   in Loop: Header=BB27_1 Depth=1
	@DEBUG_VALUE: dir_read:res <- $r6
	@DEBUG_VALUE: dir_read:dp <- $r4
	@DEBUG_VALUE: dir_read:fs <- $r5
	.loc	2 2144 9 is_stmt 1      @ ../User/FATFS/ff.c:2144:9
	mov	r0, r5
	bl	move_window
	.loc	2 2145 7                @ ../User/FATFS/ff.c:2145:7
	cbnz	r0, .LBB27_9
.Ltmp871:
@ %bb.3:                                @   in Loop: Header=BB27_1 Depth=1
	@DEBUG_VALUE: dir_read:res <- $r6
	@DEBUG_VALUE: dir_read:dp <- $r4
	@DEBUG_VALUE: dir_read:fs <- $r5
	.loc	2 2146 11               @ ../User/FATFS/ff.c:2146:11
	ldr	r0, [r4, #28]
	.loc	2 2146 7 is_stmt 0      @ ../User/FATFS/ff.c:2146:7
	ldrb	r1, [r0]
.Ltmp872:
	@DEBUG_VALUE: dir_read:c <- $r1
	.loc	2 2147 7 is_stmt 1      @ ../User/FATFS/ff.c:2147:7
	cbz	r1, .LBB27_12
.Ltmp873:
@ %bb.4:                                @   in Loop: Header=BB27_1 Depth=1
	@DEBUG_VALUE: dir_read:c <- $r1
	@DEBUG_VALUE: dir_read:res <- $r6
	@DEBUG_VALUE: dir_read:dp <- $r4
	@DEBUG_VALUE: dir_read:fs <- $r5
	.loc	2 2167 23               @ ../User/FATFS/ff.c:2167:23
	ldrb	r0, [r0, #11]
.Ltmp874:
	.loc	2 2188 18               @ ../User/FATFS/ff.c:2188:18
	cmp	r1, #46
.Ltmp875:
	.loc	2 2167 41               @ ../User/FATFS/ff.c:2167:41
	and	r2, r0, #63
.Ltmp876:
	@DEBUG_VALUE: dir_read:a <- $r2
	.loc	2 2167 17 is_stmt 0     @ ../User/FATFS/ff.c:2167:17
	strb	r2, [r4, #6]
.Ltmp877:
	.loc	2 2188 18 is_stmt 1     @ ../User/FATFS/ff.c:2188:18
	beq	.LBB27_8
.Ltmp878:
@ %bb.5:                                @   in Loop: Header=BB27_1 Depth=1
	@DEBUG_VALUE: dir_read:a <- $r2
	@DEBUG_VALUE: dir_read:c <- $r1
	@DEBUG_VALUE: dir_read:res <- $r6
	@DEBUG_VALUE: dir_read:dp <- $r4
	@DEBUG_VALUE: dir_read:fs <- $r5
	cmp	r1, #229
	beq	.LBB27_8
.Ltmp879:
@ %bb.6:                                @   in Loop: Header=BB27_1 Depth=1
	@DEBUG_VALUE: dir_read:a <- $r2
	@DEBUG_VALUE: dir_read:c <- $r1
	@DEBUG_VALUE: dir_read:res <- $r6
	@DEBUG_VALUE: dir_read:dp <- $r4
	@DEBUG_VALUE: dir_read:fs <- $r5
	.loc	2 2188 45 is_stmt 0     @ ../User/FATFS/ff.c:2188:45
	cmp	r2, #15
	beq	.LBB27_8
.Ltmp880:
@ %bb.7:                                @   in Loop: Header=BB27_1 Depth=1
	@DEBUG_VALUE: dir_read:a <- $r2
	@DEBUG_VALUE: dir_read:c <- $r1
	@DEBUG_VALUE: dir_read:res <- $r6
	@DEBUG_VALUE: dir_read:dp <- $r4
	@DEBUG_VALUE: dir_read:fs <- $r5
	.loc	2 0 45                  @ ../User/FATFS/ff.c:0:45
	and	r0, r0, #31
	.loc	2 2188 45               @ ../User/FATFS/ff.c:2188:45
	cmp	r0, #8
	bne	.LBB27_11
.Ltmp881:
.LBB27_8:                               @   in Loop: Header=BB27_1 Depth=1
	@DEBUG_VALUE: dir_read:a <- $r2
	@DEBUG_VALUE: dir_read:c <- $r1
	@DEBUG_VALUE: dir_read:res <- $r6
	@DEBUG_VALUE: dir_read:dp <- $r4
	@DEBUG_VALUE: dir_read:fs <- $r5
	.loc	2 2193 9 is_stmt 1      @ ../User/FATFS/ff.c:2193:9
	mov	r0, r4
	movs	r1, #0
.Ltmp882:
	.loc	2 0 9 is_stmt 0         @ ../User/FATFS/ff.c:0:9
	movs	r6, #0
.Ltmp883:
	.loc	2 2193 9                @ ../User/FATFS/ff.c:2193:9
	bl	dir_next
.Ltmp884:
	@DEBUG_VALUE: dir_read:res <- $r0
	.loc	2 2194 7 is_stmt 1      @ ../User/FATFS/ff.c:2194:7
	cmp	r0, #0
	beq	.LBB27_1
.Ltmp885:
.LBB27_9:
	@DEBUG_VALUE: dir_read:dp <- $r4
	@DEBUG_VALUE: dir_read:fs <- $r5
	.loc	2 0 7 is_stmt 0         @ ../User/FATFS/ff.c:0:7
	mov	r6, r0
.Ltmp886:
	@DEBUG_VALUE: dir_read:res <- $r6
	b	.LBB27_13
.Ltmp887:
.LBB27_10:
	@DEBUG_VALUE: dir_read:res <- $r6
	@DEBUG_VALUE: dir_read:dp <- $r4
	@DEBUG_VALUE: dir_read:fs <- $r5
	.loc	2 2197 6 is_stmt 1      @ ../User/FATFS/ff.c:2197:6
	cbnz	r6, .LBB27_13
.Ltmp888:
.LBB27_11:
	@DEBUG_VALUE: dir_read:res <- $r6
	@DEBUG_VALUE: dir_read:dp <- $r4
	@DEBUG_VALUE: dir_read:fs <- $r5
	.loc	2 0 6 is_stmt 0         @ ../User/FATFS/ff.c:0:6
	movs	r6, #0
.Ltmp889:
	b	.LBB27_14
.Ltmp890:
.LBB27_12:
	@DEBUG_VALUE: dir_read:c <- $r1
	@DEBUG_VALUE: dir_read:res <- $r6
	@DEBUG_VALUE: dir_read:dp <- $r4
	@DEBUG_VALUE: dir_read:fs <- $r5
	movs	r6, #4
.Ltmp891:
.LBB27_13:
	@DEBUG_VALUE: dir_read:dp <- $r4
	@DEBUG_VALUE: dir_read:fs <- $r5
	movs	r0, #0
.Ltmp892:
	.loc	2 2197 29               @ ../User/FATFS/ff.c:2197:29
	str	r0, [r4, #24]
.Ltmp893:
.LBB27_14:
	@DEBUG_VALUE: dir_read:dp <- $r4
	@DEBUG_VALUE: dir_read:fs <- $r5
	.loc	2 2198 2 is_stmt 1      @ ../User/FATFS/ff.c:2198:2
	uxtb	r0, r6
	pop	{r4, r5, r6, pc}
.Ltmp894:
.Lfunc_end27:
	.size	dir_read, .Lfunc_end27-dir_read
	.cfi_endproc
	.cantunwind
	.fnend
                                        @ -- End function
	.section	.text.get_fileinfo,"ax",%progbits
	.p2align	1               @ -- Begin function get_fileinfo
	.type	get_fileinfo,%function
	.code	16                      @ @get_fileinfo
	.thumb_func
get_fileinfo:
.Lfunc_begin28:
	.loc	2 2448 0                @ ../User/FATFS/ff.c:2448:0
	.fnstart
	.cfi_startproc
@ %bb.0:
	.save	{r4, r5, r7, lr}
	push	{r4, r5, r7, lr}
	.cfi_def_cfa_offset 16
	.cfi_offset lr, -4
	.cfi_offset r7, -8
	.cfi_offset r5, -12
	.cfi_offset r4, -16
	@DEBUG_VALUE: get_fileinfo:dp <- $r0
	@DEBUG_VALUE: get_fileinfo:fno <- $r1
	mov	r4, r1
	movs	r1, #0
.Ltmp895:
	@DEBUG_VALUE: get_fileinfo:fno <- $r4
	@DEBUG_VALUE: get_fileinfo:dp <- $r0
	.loc	2 2458 16 prologue_end  @ ../User/FATFS/ff.c:2458:16
	strb	r1, [r4, #9]
.Ltmp896:
	.loc	2 2459 11               @ ../User/FATFS/ff.c:2459:11
	ldr	r1, [r0, #24]
.Ltmp897:
	.loc	2 2459 6 is_stmt 0      @ ../User/FATFS/ff.c:2459:6
	cbz	r1, .LBB28_6
.Ltmp898:
@ %bb.1:
	@DEBUG_VALUE: get_fileinfo:fno <- $r4
	@DEBUG_VALUE: get_fileinfo:dp <- $r0
	.loc	2 0 6                   @ ../User/FATFS/ff.c:0:6
	mov.w	lr, #0
	mov.w	r12, #46
	movs	r3, #0
.Ltmp899:
	@DEBUG_VALUE: get_fileinfo:j <- $lr
	b	.LBB28_4
.Ltmp900:
.LBB28_2:                               @   in Loop: Header=BB28_4 Depth=1
	@DEBUG_VALUE: get_fileinfo:i <- $r3
	@DEBUG_VALUE: get_fileinfo:j <- $lr
	@DEBUG_VALUE: get_fileinfo:fno <- $r4
	@DEBUG_VALUE: get_fileinfo:dp <- $r0
	.loc	2 2521 18 is_stmt 1     @ ../User/FATFS/ff.c:2521:18
	ldr	r2, [r0, #28]
	.loc	2 2521 14 is_stmt 0     @ ../User/FATFS/ff.c:2521:14
	ldrb	r2, [r2, r3]
.Ltmp901:
	@DEBUG_VALUE: get_fileinfo:c <- $r2
	.loc	2 2521 23               @ ../User/FATFS/ff.c:2521:23
	adds	r3, #1
.Ltmp902:
	@DEBUG_VALUE: get_fileinfo:i <- $r3
	.loc	2 2522 7 is_stmt 1      @ ../User/FATFS/ff.c:2522:7
	cmp	r2, #32
	beq	.LBB28_4
.Ltmp903:
@ %bb.3:                                @   in Loop: Header=BB28_4 Depth=1
	@DEBUG_VALUE: get_fileinfo:i <- $r3
	@DEBUG_VALUE: get_fileinfo:c <- $r2
	@DEBUG_VALUE: get_fileinfo:j <- $lr
	@DEBUG_VALUE: get_fileinfo:fno <- $r4
	@DEBUG_VALUE: get_fileinfo:dp <- $r0
	cmp	r2, #5
	it	eq
	moveq	r2, #229
.Ltmp904:
	@DEBUG_VALUE: get_fileinfo:c <- $r2
	.loc	2 2524 7                @ ../User/FATFS/ff.c:2524:7
	cmp	r3, #9
.Ltmp905:
	.loc	2 2524 15 is_stmt 0     @ ../User/FATFS/ff.c:2524:15
	ittt	eq
	addeq.w	r1, r4, lr
	.loc	2 2524 31               @ ../User/FATFS/ff.c:2524:31
	strbeq.w	r12, [r1, #9]
	.loc	2 2524 27               @ ../User/FATFS/ff.c:2524:27
	addeq.w	lr, lr, #1
.Ltmp906:
	@DEBUG_VALUE: get_fileinfo:j <- $lr
	.loc	2 2525 3 is_stmt 1      @ ../User/FATFS/ff.c:2525:3
	add.w	r1, r4, lr
	.loc	2 2525 15 is_stmt 0     @ ../User/FATFS/ff.c:2525:15
	add.w	lr, lr, #1
.Ltmp907:
	@DEBUG_VALUE: get_fileinfo:j <- $lr
	@DEBUG_VALUE: get_fileinfo:j <- $lr
	.loc	2 2525 19               @ ../User/FATFS/ff.c:2525:19
	strb	r2, [r1, #9]
.Ltmp908:
.LBB28_4:                               @ =>This Inner Loop Header: Depth=1
	@DEBUG_VALUE: get_fileinfo:j <- $lr
	@DEBUG_VALUE: get_fileinfo:fno <- $r4
	@DEBUG_VALUE: get_fileinfo:dp <- $r0
	@DEBUG_VALUE: get_fileinfo:i <- $r3
	.loc	2 2520 2 is_stmt 1      @ ../User/FATFS/ff.c:2520:2
	cmp	r3, #10
	bls	.LBB28_2
.Ltmp909:
@ %bb.5:
	@DEBUG_VALUE: get_fileinfo:i <- $r3
	@DEBUG_VALUE: get_fileinfo:j <- $lr
	@DEBUG_VALUE: get_fileinfo:fno <- $r4
	@DEBUG_VALUE: get_fileinfo:dp <- $r0
	.loc	2 2527 2                @ ../User/FATFS/ff.c:2527:2
	add.w	r1, r4, lr
	movs	r2, #0
	.loc	2 2527 16 is_stmt 0     @ ../User/FATFS/ff.c:2527:16
	strb	r2, [r1, #9]
	.loc	2 2530 21 is_stmt 1     @ ../User/FATFS/ff.c:2530:21
	ldr	r5, [r0, #28]
	.loc	2 2530 17 is_stmt 0     @ ../User/FATFS/ff.c:2530:17
	ldrb	r0, [r5, #11]
.Ltmp910:
	.loc	2 2530 15               @ ../User/FATFS/ff.c:2530:15
	strb	r0, [r4, #8]
	.loc	2 2531 32 is_stmt 1     @ ../User/FATFS/ff.c:2531:32
	add.w	r0, r5, #28
	.loc	2 2531 15 is_stmt 0     @ ../User/FATFS/ff.c:2531:15
	bl	ld_dword
.Ltmp911:
	.loc	2 2531 13               @ ../User/FATFS/ff.c:2531:13
	str	r0, [r4]
	.loc	2 2532 24 is_stmt 1     @ ../User/FATFS/ff.c:2532:24
	add.w	r0, r5, #22
	.loc	2 2532 7 is_stmt 0      @ ../User/FATFS/ff.c:2532:7
	bl	ld_dword
.Ltmp912:
	@DEBUG_VALUE: get_fileinfo:tm <- $r0
	.loc	2 2533 13 is_stmt 1     @ ../User/FATFS/ff.c:2533:13
	strh	r0, [r4, #6]
	.loc	2 2533 48 is_stmt 0     @ ../User/FATFS/ff.c:2533:48
	lsrs	r0, r0, #16
.Ltmp913:
	.loc	2 2533 36               @ ../User/FATFS/ff.c:2533:36
	strh	r0, [r4, #4]
.Ltmp914:
.LBB28_6:
	@DEBUG_VALUE: get_fileinfo:fno <- $r4
	.loc	2 2534 1 is_stmt 1      @ ../User/FATFS/ff.c:2534:1
	pop	{r4, r5, r7, pc}
.Ltmp915:
.Lfunc_end28:
	.size	get_fileinfo, .Lfunc_end28-get_fileinfo
	.cfi_endproc
	.cantunwind
	.fnend
                                        @ -- End function
	.section	.text.dir_next,"ax",%progbits
	.p2align	2               @ -- Begin function dir_next
	.type	dir_next,%function
	.code	16                      @ @dir_next
	.thumb_func
dir_next:
.Lfunc_begin29:
	.loc	2 1523 0                @ ../User/FATFS/ff.c:1523:0
	.fnstart
	.cfi_startproc
@ %bb.0:
	.save	{r4, r5, r6, r7, r8, r9, r10, lr}
	push.w	{r4, r5, r6, r7, r8, r9, r10, lr}
	.cfi_def_cfa_offset 32
	.cfi_offset lr, -4
	.cfi_offset r10, -8
	.cfi_offset r9, -12
	.cfi_offset r8, -16
	.cfi_offset r7, -20
	.cfi_offset r6, -24
	.cfi_offset r5, -28
	.cfi_offset r4, -32
	@DEBUG_VALUE: dir_next:dp <- $r0
	@DEBUG_VALUE: dir_next:stretch <- $r1
	mov	r4, r0
.Ltmp916:
	@DEBUG_VALUE: dir_next:dp <- $r4
	.loc	2 1531 11 prologue_end  @ ../User/FATFS/ff.c:1531:11
	ldr	r0, [r0, #24]
	movs	r6, #4
	.loc	2 1531 16 is_stmt 0     @ ../User/FATFS/ff.c:1531:16
	cbz	r0, .LBB29_4
.Ltmp917:
@ %bb.1:
	@DEBUG_VALUE: dir_next:dp <- $r4
	@DEBUG_VALUE: dir_next:stretch <- $r1
	.loc	2 0 16                  @ ../User/FATFS/ff.c:0:16
	mov	r10, r1
.Ltmp918:
	@DEBUG_VALUE: dir_next:stretch <- $r10
	@DEBUG_VALUE: dir_next:stretch <- $r10
	ldr	r1, [r4, #16]
	ldr	r2, __arm_cp.29_0
	add.w	r5, r1, #32
.Ltmp919:
	@DEBUG_VALUE: dir_next:ofs <- $r5
	.loc	2 1531 16               @ ../User/FATFS/ff.c:1531:16
	cmp	r5, r2
	bhi	.LBB29_4
.Ltmp920:
@ %bb.2:
	@DEBUG_VALUE: dir_next:ofs <- $r5
	@DEBUG_VALUE: dir_next:stretch <- $r10
	@DEBUG_VALUE: dir_next:dp <- $r4
	.loc	2 1533 10 is_stmt 1     @ ../User/FATFS/ff.c:1533:10
	mov	r7, r5
	ldr.w	r9, [r4]
.Ltmp921:
	@DEBUG_VALUE: dir_next:fs <- $r9
	bfc	r7, #9, #23
.Ltmp922:
	.loc	2 1533 6 is_stmt 0      @ ../User/FATFS/ff.c:1533:6
	cbz	r7, .LBB29_5
.Ltmp923:
.LBB29_3:
	@DEBUG_VALUE: dir_next:fs <- $r9
	@DEBUG_VALUE: dir_next:ofs <- $r5
	@DEBUG_VALUE: dir_next:dp <- $r4
	.loc	2 1575 20 is_stmt 1     @ ../User/FATFS/ff.c:1575:20
	add.w	r0, r9, r7
	movs	r6, #0
	.loc	2 1574 11               @ ../User/FATFS/ff.c:1574:11
	str	r5, [r4, #16]
	.loc	2 1575 20               @ ../User/FATFS/ff.c:1575:20
	adds	r0, #48
	.loc	2 1575 10 is_stmt 0     @ ../User/FATFS/ff.c:1575:10
	str	r0, [r4, #28]
.Ltmp924:
.LBB29_4:
	@DEBUG_VALUE: dir_next:dp <- $r4
	.loc	2 1578 1 is_stmt 1      @ ../User/FATFS/ff.c:1578:1
	mov	r0, r6
	pop.w	{r4, r5, r6, r7, r8, r9, r10, pc}
.Ltmp925:
.LBB29_5:
	@DEBUG_VALUE: dir_next:fs <- $r9
	@DEBUG_VALUE: dir_next:ofs <- $r5
	@DEBUG_VALUE: dir_next:stretch <- $r10
	@DEBUG_VALUE: dir_next:dp <- $r4
	.loc	2 1534 11               @ ../User/FATFS/ff.c:1534:11
	adds	r0, #1
	str	r0, [r4, #24]
.Ltmp926:
	.loc	2 1536 12               @ ../User/FATFS/ff.c:1536:12
	ldr	r1, [r4, #20]
.Ltmp927:
	.loc	2 1536 7 is_stmt 0      @ ../User/FATFS/ff.c:1536:7
	cbz	r1, .LBB29_9
.Ltmp928:
@ %bb.6:
	@DEBUG_VALUE: dir_next:fs <- $r9
	@DEBUG_VALUE: dir_next:ofs <- $r5
	@DEBUG_VALUE: dir_next:stretch <- $r10
	@DEBUG_VALUE: dir_next:dp <- $r4
	.loc	2 1542 29 is_stmt 1     @ ../User/FATFS/ff.c:1542:29
	ldrh.w	r0, [r9, #10]
	.loc	2 1542 25 is_stmt 0     @ ../User/FATFS/ff.c:1542:25
	add	r0, r2
	.loc	2 1542 35               @ ../User/FATFS/ff.c:1542:35
	add.w	r0, r0, #6291456
.Ltmp929:
	.loc	2 1542 8                @ ../User/FATFS/ff.c:1542:8
	tst.w	r0, r5, lsr #9
	bne	.LBB29_3
.Ltmp930:
@ %bb.7:
	@DEBUG_VALUE: dir_next:fs <- $r9
	@DEBUG_VALUE: dir_next:ofs <- $r5
	@DEBUG_VALUE: dir_next:stretch <- $r10
	@DEBUG_VALUE: dir_next:dp <- $r4
	.loc	2 1543 12 is_stmt 1     @ ../User/FATFS/ff.c:1543:12
	mov	r0, r4
	bl	get_fat
	.loc	2 1544 9                @ ../User/FATFS/ff.c:1544:9
	cmp	r0, #2
	bhs	.LBB29_11
.Ltmp931:
@ %bb.8:
	@DEBUG_VALUE: dir_next:fs <- $r9
	@DEBUG_VALUE: dir_next:ofs <- $r5
	@DEBUG_VALUE: dir_next:stretch <- $r10
	@DEBUG_VALUE: dir_next:dp <- $r4
	.loc	2 0 9 is_stmt 0         @ ../User/FATFS/ff.c:0:9
	movs	r6, #2
	b	.LBB29_4
.Ltmp932:
.LBB29_9:
	@DEBUG_VALUE: dir_next:fs <- $r9
	@DEBUG_VALUE: dir_next:ofs <- $r5
	@DEBUG_VALUE: dir_next:stretch <- $r10
	@DEBUG_VALUE: dir_next:dp <- $r4
	.loc	2 1537 28 is_stmt 1     @ ../User/FATFS/ff.c:1537:28
	ldrh.w	r0, [r9, #8]
.Ltmp933:
	.loc	2 1537 8 is_stmt 0      @ ../User/FATFS/ff.c:1537:8
	cmp.w	r0, r5, lsr #5
	bhi	.LBB29_3
.Ltmp934:
.LBB29_10:
	@DEBUG_VALUE: dir_next:fs <- $r9
	@DEBUG_VALUE: dir_next:ofs <- $r5
	@DEBUG_VALUE: dir_next:stretch <- $r10
	@DEBUG_VALUE: dir_next:dp <- $r4
	.loc	2 0 8                   @ ../User/FATFS/ff.c:0:8
	movs	r0, #0
	movs	r6, #4
	str	r0, [r4, #24]
	b	.LBB29_4
.Ltmp935:
.LBB29_11:
	@DEBUG_VALUE: dir_next:fs <- $r9
	@DEBUG_VALUE: dir_next:ofs <- $r5
	@DEBUG_VALUE: dir_next:stretch <- $r10
	@DEBUG_VALUE: dir_next:dp <- $r4
	mov	r8, r0
.Ltmp936:
	@DEBUG_VALUE: dir_next:clst <- $r8
	.loc	2 1545 9 is_stmt 1      @ ../User/FATFS/ff.c:1545:9
	adds	r0, #1
	beq	.LBB29_18
.Ltmp937:
@ %bb.12:
	@DEBUG_VALUE: dir_next:clst <- $r8
	@DEBUG_VALUE: dir_next:fs <- $r9
	@DEBUG_VALUE: dir_next:ofs <- $r5
	@DEBUG_VALUE: dir_next:stretch <- $r10
	@DEBUG_VALUE: dir_next:dp <- $r4
	.loc	2 1546 21               @ ../User/FATFS/ff.c:1546:21
	ldr.w	r0, [r9, #20]
.Ltmp938:
	.loc	2 1546 9 is_stmt 0      @ ../User/FATFS/ff.c:1546:9
	cmp	r8, r0
	bhs	.LBB29_14
.Ltmp939:
.LBB29_13:
	@DEBUG_VALUE: dir_next:clst <- $r8
	@DEBUG_VALUE: dir_next:fs <- $r9
	@DEBUG_VALUE: dir_next:ofs <- $r5
	@DEBUG_VALUE: dir_next:dp <- $r4
	@DEBUG_VALUE: dir_next:clst <- $r8
	.loc	2 1570 16 is_stmt 1     @ ../User/FATFS/ff.c:1570:16
	mov	r0, r9
	mov	r1, r8
	.loc	2 1569 15               @ ../User/FATFS/ff.c:1569:15
	str.w	r8, [r4, #20]
	.loc	2 1570 16               @ ../User/FATFS/ff.c:1570:16
	bl	clust2sect
	.loc	2 1570 14 is_stmt 0     @ ../User/FATFS/ff.c:1570:14
	str	r0, [r4, #24]
	b	.LBB29_3
.Ltmp940:
.LBB29_14:
	@DEBUG_VALUE: dir_next:clst <- $r8
	@DEBUG_VALUE: dir_next:fs <- $r9
	@DEBUG_VALUE: dir_next:ofs <- $r5
	@DEBUG_VALUE: dir_next:stretch <- $r10
	@DEBUG_VALUE: dir_next:dp <- $r4
	.loc	2 1548 10 is_stmt 1     @ ../User/FATFS/ff.c:1548:10
	cmp.w	r10, #0
	beq	.LBB29_10
.Ltmp941:
@ %bb.15:
	@DEBUG_VALUE: dir_next:clst <- $r8
	@DEBUG_VALUE: dir_next:fs <- $r9
	@DEBUG_VALUE: dir_next:ofs <- $r5
	@DEBUG_VALUE: dir_next:stretch <- $r10
	@DEBUG_VALUE: dir_next:dp <- $r4
	.loc	2 1551 40               @ ../User/FATFS/ff.c:1551:40
	ldr	r1, [r4, #20]
	.loc	2 1551 13 is_stmt 0     @ ../User/FATFS/ff.c:1551:13
	mov	r0, r4
	bl	create_chain
	mov	r8, r0
.Ltmp942:
	@DEBUG_VALUE: dir_next:clst <- $r8
	.loc	2 1552 10 is_stmt 1     @ ../User/FATFS/ff.c:1552:10
	adds	r0, #1
	cmp	r0, #3
	bhs	.LBB29_17
.Ltmp943:
@ %bb.16:
	@DEBUG_VALUE: dir_next:clst <- $r8
	@DEBUG_VALUE: dir_next:fs <- $r9
	@DEBUG_VALUE: dir_next:ofs <- $r5
	@DEBUG_VALUE: dir_next:stretch <- $r10
	@DEBUG_VALUE: dir_next:dp <- $r4
	.loc	2 0 10 is_stmt 0        @ ../User/FATFS/ff.c:0:10
	ldr	r1, __arm_cp.29_1
	.loc	2 1552 10               @ ../User/FATFS/ff.c:1552:10
	and.w	r0, r1, r0, lsl #3
	ldr	r1, __arm_cp.29_2
	lsr.w	r0, r1, r0
	uxtb	r0, r0
	pop.w	{r4, r5, r6, r7, r8, r9, r10, pc}
.Ltmp944:
.LBB29_17:
	@DEBUG_VALUE: dir_next:clst <- $r8
	@DEBUG_VALUE: dir_next:fs <- $r9
	@DEBUG_VALUE: dir_next:ofs <- $r5
	@DEBUG_VALUE: dir_next:stretch <- $r10
	@DEBUG_VALUE: dir_next:dp <- $r4
	.loc	2 1557 10 is_stmt 1     @ ../User/FATFS/ff.c:1557:10
	mov	r0, r9
	bl	sync_window
.Ltmp945:
	.loc	2 1557 10 is_stmt 0     @ ../User/FATFS/ff.c:1557:10
	cbz	r0, .LBB29_19
.Ltmp946:
.LBB29_18:
	@DEBUG_VALUE: dir_next:clst <- $r8
	@DEBUG_VALUE: dir_next:fs <- $r9
	@DEBUG_VALUE: dir_next:ofs <- $r5
	@DEBUG_VALUE: dir_next:stretch <- $r10
	@DEBUG_VALUE: dir_next:dp <- $r4
	.loc	2 0 10                  @ ../User/FATFS/ff.c:0:10
	movs	r6, #1
	b	.LBB29_4
.Ltmp947:
.LBB29_19:
	@DEBUG_VALUE: dir_next:clst <- $r8
	@DEBUG_VALUE: dir_next:fs <- $r9
	@DEBUG_VALUE: dir_next:ofs <- $r5
	@DEBUG_VALUE: dir_next:stretch <- $r10
	@DEBUG_VALUE: dir_next:dp <- $r4
	@DEBUG_VALUE: mem_set:val <- 0
	@DEBUG_VALUE: mem_set:cnt <- 512
	.loc	2 1558 14 is_stmt 1     @ ../User/FATFS/ff.c:1558:14
	add.w	r0, r9, #48
.Ltmp948:
	@DEBUG_VALUE: mem_set:d <- $r0
	@DEBUG_VALUE: mem_set:dst <- $r0
	@DEBUG_VALUE: mem_set:cnt <- 512
	@DEBUG_VALUE: mem_set:val <- 0
	.loc	2 710 8                 @ ../User/FATFS/ff.c:710:8
	mov.w	r1, #512
	bl	__aeabi_memclr
.Ltmp949:
	@DEBUG_VALUE: dir_next:n <- 0
	@DEBUG_VALUE: mem_set:d <- undef
	@DEBUG_VALUE: mem_set:cnt <- undef
	.loc	2 1559 32               @ ../User/FATFS/ff.c:1559:32
	mov	r0, r9
	mov	r1, r8
	bl	clust2sect
	mov.w	r10, #0
.Ltmp950:
	.loc	2 0 32 is_stmt 0        @ ../User/FATFS/ff.c:0:32
	movs	r6, #1
	b	.LBB29_22
.Ltmp951:
.LBB29_20:                              @   in Loop: Header=BB29_22 Depth=1
	@DEBUG_VALUE: dir_next:n <- $r10
	@DEBUG_VALUE: dir_next:clst <- $r8
	@DEBUG_VALUE: dir_next:fs <- $r9
	@DEBUG_VALUE: dir_next:ofs <- $r5
	@DEBUG_VALUE: dir_next:dp <- $r4
	.loc	2 1561 11 is_stmt 1     @ ../User/FATFS/ff.c:1561:11
	mov	r0, r9
.Ltmp952:
	.loc	2 1560 17               @ ../User/FATFS/ff.c:1560:17
	strb.w	r6, [r9, #3]
.Ltmp953:
	.loc	2 1561 11               @ ../User/FATFS/ff.c:1561:11
	bl	sync_window
.Ltmp954:
	.loc	2 1561 11 is_stmt 0     @ ../User/FATFS/ff.c:1561:11
	cmp	r0, #0
	bne	.LBB29_4
.Ltmp955:
@ %bb.21:                               @   in Loop: Header=BB29_22 Depth=1
	@DEBUG_VALUE: dir_next:n <- $r10
	@DEBUG_VALUE: dir_next:clst <- $r8
	@DEBUG_VALUE: dir_next:fs <- $r9
	@DEBUG_VALUE: dir_next:ofs <- $r5
	@DEBUG_VALUE: dir_next:dp <- $r4
	.loc	2 1559 85 is_stmt 1     @ ../User/FATFS/ff.c:1559:85
	ldr.w	r0, [r9, #44]
	.loc	2 1559 70 is_stmt 0     @ ../User/FATFS/ff.c:1559:70
	add.w	r10, r10, #1
.Ltmp956:
	@DEBUG_VALUE: dir_next:n <- $r10
	.loc	2 1559 85               @ ../User/FATFS/ff.c:1559:85
	adds	r0, #1
.Ltmp957:
.LBB29_22:                              @ =>This Inner Loop Header: Depth=1
	@DEBUG_VALUE: dir_next:clst <- $r8
	@DEBUG_VALUE: dir_next:fs <- $r9
	@DEBUG_VALUE: dir_next:ofs <- $r5
	@DEBUG_VALUE: dir_next:dp <- $r4
	@DEBUG_VALUE: dir_next:n <- $r10
	.loc	2 0 0                   @ ../User/FATFS/ff.c:0:0
	str.w	r0, [r9, #44]
.Ltmp958:
	.loc	2 1559 62               @ ../User/FATFS/ff.c:1559:62
	ldrh.w	r1, [r9, #10]
.Ltmp959:
	.loc	2 1559 6                @ ../User/FATFS/ff.c:1559:6
	cmp	r10, r1
	blo	.LBB29_20
.Ltmp960:
@ %bb.23:
	@DEBUG_VALUE: dir_next:n <- $r10
	@DEBUG_VALUE: dir_next:clst <- $r8
	@DEBUG_VALUE: dir_next:fs <- $r9
	@DEBUG_VALUE: dir_next:ofs <- $r5
	@DEBUG_VALUE: dir_next:dp <- $r4
	.loc	2 1563 18 is_stmt 1     @ ../User/FATFS/ff.c:1563:18
	sub.w	r0, r0, r10
	str.w	r0, [r9, #44]
	b	.LBB29_13
.Ltmp961:
	.p2align	2
@ %bb.24:
	.loc	2 0 18 is_stmt 0        @ ../User/FATFS/ff.c:0:18
__arm_cp.29_0:
	.long	2097151                 @ 0x1fffff
.Lcpi_end10:
	.size	__arm_cp.29_0, .Lcpi_end10-__arm_cp.29_0
__arm_cp.29_1:
	.long	16777208                @ 0xfffff8
.Lcpi_end11:
	.size	__arm_cp.29_1, .Lcpi_end11-__arm_cp.29_1
__arm_cp.29_2:
	.long	132865                  @ 0x20701
.Lcpi_end12:
	.size	__arm_cp.29_2, .Lcpi_end12-__arm_cp.29_2
.Lfunc_end29:
	.size	dir_next, .Lfunc_end29-dir_next
	.cfi_endproc
	.cantunwind
	.fnend
                                        @ -- End function
	.section	.text.f_stat,"ax",%progbits
	.hidden	f_stat                  @ -- Begin function f_stat
	.globl	f_stat
	.p2align	1
	.type	f_stat,%function
	.code	16                      @ @f_stat
	.thumb_func
f_stat:
.Lfunc_begin30:
	.loc	2 4346 0 is_stmt 1      @ ../User/FATFS/ff.c:4346:0
	.fnstart
	.cfi_startproc
@ %bb.0:
	.save	{r4, lr}
	push	{r4, lr}
	.cfi_def_cfa_offset 8
	.cfi_offset lr, -4
	.cfi_offset r4, -8
	.pad	#48
	sub	sp, #48
	.cfi_def_cfa_offset 56
	@DEBUG_VALUE: f_stat:path <- $r0
	@DEBUG_VALUE: f_stat:fno <- $r1
	mov	r4, r1
	@DEBUG_VALUE: f_stat:path <- $r0
	str	r0, [sp, #44]
.Ltmp962:
	@DEBUG_VALUE: f_stat:path <- [DW_OP_plus_uconst 44, DW_OP_deref] $sp
	@DEBUG_VALUE: f_stat:fno <- $r4
	add	r0, sp, #44
	mov	r1, sp
.Ltmp963:
	.loc	2 4353 8 prologue_end   @ ../User/FATFS/ff.c:4353:8
	movs	r2, #0
	bl	find_volume
.Ltmp964:
	@DEBUG_VALUE: f_stat:res <- $r0
	.loc	2 4354 6                @ ../User/FATFS/ff.c:4354:6
	cbnz	r0, .LBB30_7
.Ltmp965:
@ %bb.1:
	@DEBUG_VALUE: f_stat:res <- $r0
	@DEBUG_VALUE: f_stat:fno <- $r4
	@DEBUG_VALUE: f_stat:path <- [DW_OP_plus_uconst 44, DW_OP_deref] $sp
	.loc	2 4356 26               @ ../User/FATFS/ff.c:4356:26
	ldr	r1, [sp, #44]
.Ltmp966:
	@DEBUG_VALUE: f_stat:dj <- [DW_OP_deref] $sp
	@DEBUG_VALUE: f_stat:path <- $r1
	.loc	2 0 26 is_stmt 0        @ ../User/FATFS/ff.c:0:26
	mov	r0, sp
.Ltmp967:
	.loc	2 4356 9                @ ../User/FATFS/ff.c:4356:9
	bl	follow_path
.Ltmp968:
	@DEBUG_VALUE: f_stat:res <- $r0
	.loc	2 4357 7 is_stmt 1      @ ../User/FATFS/ff.c:4357:7
	cbnz	r0, .LBB30_7
.Ltmp969:
@ %bb.2:
	@DEBUG_VALUE: f_stat:dj <- [DW_OP_deref] $sp
	@DEBUG_VALUE: f_stat:res <- $r0
	@DEBUG_VALUE: f_stat:fno <- $r4
	.loc	2 4358 8                @ ../User/FATFS/ff.c:4358:8
	ldrsb.w	r0, [sp, #43]
.Ltmp970:
	.loc	2 4358 8 is_stmt 0      @ ../User/FATFS/ff.c:4358:8
	cmp	r0, #0
	blt	.LBB30_6
.Ltmp971:
@ %bb.3:
	@DEBUG_VALUE: f_stat:dj <- [DW_OP_deref] $sp
	@DEBUG_VALUE: f_stat:fno <- $r4
	.loc	2 4361 9 is_stmt 1      @ ../User/FATFS/ff.c:4361:9
	cbz	r4, .LBB30_5
.Ltmp972:
@ %bb.4:
	@DEBUG_VALUE: f_stat:dj <- [DW_OP_deref] $sp
	@DEBUG_VALUE: f_stat:fno <- $r4
	@DEBUG_VALUE: f_stat:dj <- [DW_OP_deref] $sp
	.loc	2 0 9 is_stmt 0         @ ../User/FATFS/ff.c:0:9
	mov	r0, sp
.Ltmp973:
	.loc	2 4361 14               @ ../User/FATFS/ff.c:4361:14
	mov	r1, r4
	bl	get_fileinfo
.Ltmp974:
.LBB30_5:
	@DEBUG_VALUE: f_stat:dj <- [DW_OP_deref] $sp
	@DEBUG_VALUE: f_stat:fno <- $r4
	.loc	2 0 14                  @ ../User/FATFS/ff.c:0:14
	movs	r0, #0
	b	.LBB30_7
.Ltmp975:
.LBB30_6:
	@DEBUG_VALUE: f_stat:dj <- [DW_OP_deref] $sp
	@DEBUG_VALUE: f_stat:fno <- $r4
	movs	r0, #6
.Ltmp976:
.LBB30_7:
	@DEBUG_VALUE: f_stat:fno <- $r4
	@DEBUG_VALUE: f_stat:res <- $r0
	.loc	2 4367 2 is_stmt 1      @ ../User/FATFS/ff.c:4367:2
	add	sp, #48
	pop	{r4, pc}
.Ltmp977:
.Lfunc_end30:
	.size	f_stat, .Lfunc_end30-f_stat
	.cfi_endproc
	.cantunwind
	.fnend
                                        @ -- End function
	.section	.text.f_getfree,"ax",%progbits
	.hidden	f_getfree               @ -- Begin function f_getfree
	.globl	f_getfree
	.p2align	1
	.type	f_getfree,%function
	.code	16                      @ @f_getfree
	.thumb_func
f_getfree:
.Lfunc_begin31:
	.loc	2 4382 0                @ ../User/FATFS/ff.c:4382:0
	.fnstart
	.cfi_startproc
@ %bb.0:
	.save	{r4, r5, r6, r7, r8, r9, r10, r11, lr}
	push.w	{r4, r5, r6, r7, r8, r9, r10, r11, lr}
	.cfi_def_cfa_offset 36
	.cfi_offset lr, -4
	.cfi_offset r11, -8
	.cfi_offset r10, -12
	.cfi_offset r9, -16
	.cfi_offset r8, -20
	.cfi_offset r7, -24
	.cfi_offset r6, -28
	.cfi_offset r5, -32
	.cfi_offset r4, -36
	.pad	#28
	sub	sp, #28
	.cfi_def_cfa_offset 64
	@DEBUG_VALUE: f_getfree:path <- $r0
	@DEBUG_VALUE: f_getfree:nclst <- $r1
	@DEBUG_VALUE: f_getfree:fatfs <- $r2
	mov	r6, r2
	mov	r8, r1
	@DEBUG_VALUE: f_getfree:path <- $r0
	str	r0, [sp, #24]
.Ltmp978:
	@DEBUG_VALUE: f_getfree:fs <- [DW_OP_plus_uconst 20, DW_OP_deref] $sp
	@DEBUG_VALUE: f_getfree:path <- [DW_OP_plus_uconst 24, DW_OP_deref] $sp
	@DEBUG_VALUE: f_getfree:fatfs <- $r6
	@DEBUG_VALUE: f_getfree:nclst <- $r8
	add	r0, sp, #24
	add	r1, sp, #20
.Ltmp979:
	.loc	2 4392 8 prologue_end   @ ../User/FATFS/ff.c:4392:8
	movs	r2, #0
	bl	find_volume
.Ltmp980:
	@DEBUG_VALUE: f_getfree:res <- $r0
	.loc	2 4393 6                @ ../User/FATFS/ff.c:4393:6
	cmp	r0, #0
	bne	.LBB31_24
.Ltmp981:
@ %bb.1:
	@DEBUG_VALUE: f_getfree:res <- $r0
	@DEBUG_VALUE: f_getfree:nclst <- $r8
	@DEBUG_VALUE: f_getfree:fatfs <- $r6
	@DEBUG_VALUE: f_getfree:path <- [DW_OP_plus_uconst 24, DW_OP_deref] $sp
	@DEBUG_VALUE: f_getfree:fs <- [DW_OP_plus_uconst 20, DW_OP_deref] $sp
	.loc	2 4394 12               @ ../User/FATFS/ff.c:4394:12
	ldr.w	r11, [sp, #20]
	@DEBUG_VALUE: f_getfree:fs <- [DW_OP_plus_uconst 20, DW_OP_deref] $sp
	.loc	2 4394 10 is_stmt 0     @ ../User/FATFS/ff.c:4394:10
	str.w	r11, [r6]
.Ltmp982:
	@DEBUG_VALUE: f_getfree:clst <- undef
	@DEBUG_VALUE: f_getfree:fs <- $r11
	.loc	2 4396 11 is_stmt 1     @ ../User/FATFS/ff.c:4396:11
	ldrd	r0, r6, [r11, #16]
.Ltmp983:
	.loc	2 4396 37 is_stmt 0     @ ../User/FATFS/ff.c:4396:37
	subs	r1, r6, #2
.Ltmp984:
	.loc	2 4396 7                @ ../User/FATFS/ff.c:4396:7
	cmp	r0, r1
	bls	.LBB31_10
.Ltmp985:
@ %bb.2:
	@DEBUG_VALUE: f_getfree:fs <- $r11
	@DEBUG_VALUE: f_getfree:nclst <- $r8
	@DEBUG_VALUE: f_getfree:path <- [DW_OP_plus_uconst 24, DW_OP_deref] $sp
	@DEBUG_VALUE: f_getfree:nfree <- 0
	.loc	2 4401 12 is_stmt 1     @ ../User/FATFS/ff.c:4401:12
	ldrb.w	r5, [r11]
.Ltmp986:
	.loc	2 4401 8 is_stmt 0      @ ../User/FATFS/ff.c:4401:8
	cmp	r5, #1
	bne	.LBB31_11
.Ltmp987:
@ %bb.3:
	@DEBUG_VALUE: f_getfree:fs <- $r11
	@DEBUG_VALUE: f_getfree:nclst <- $r8
	@DEBUG_VALUE: f_getfree:path <- [DW_OP_plus_uconst 24, DW_OP_deref] $sp
	@DEBUG_VALUE: f_getfree:clst <- 2
	.loc	2 0 8                   @ ../User/FATFS/ff.c:0:8
	movs	r6, #2
	movs	r4, #0
	add	r7, sp, #4
.Ltmp988:
	.loc	2 4402 22 is_stmt 1     @ ../User/FATFS/ff.c:4402:22
	str.w	r11, [sp, #4]
.Ltmp989:
.LBB31_4:                               @ =>This Inner Loop Header: Depth=1
	@DEBUG_VALUE: f_getfree:fs <- $r11
	@DEBUG_VALUE: f_getfree:nclst <- $r8
	@DEBUG_VALUE: f_getfree:path <- [DW_OP_plus_uconst 24, DW_OP_deref] $sp
	@DEBUG_VALUE: f_getfree:clst <- $r6
	@DEBUG_VALUE: f_getfree:nfree <- $r4
	@DEBUG_VALUE: f_getfree:obj <- [DW_OP_plus_uconst 4, DW_OP_deref] $sp
	.loc	2 4404 13               @ ../User/FATFS/ff.c:4404:13
	mov	r0, r7
	mov	r1, r6
	bl	get_fat
.Ltmp990:
	@DEBUG_VALUE: f_getfree:stat <- $r0
	.loc	2 4405 10               @ ../User/FATFS/ff.c:4405:10
	cbz	r0, .LBB31_7
.Ltmp991:
@ %bb.5:                                @   in Loop: Header=BB31_4 Depth=1
	@DEBUG_VALUE: f_getfree:stat <- $r0
	@DEBUG_VALUE: f_getfree:obj <- [DW_OP_plus_uconst 4, DW_OP_deref] $sp
	@DEBUG_VALUE: f_getfree:nfree <- $r4
	@DEBUG_VALUE: f_getfree:clst <- $r6
	@DEBUG_VALUE: f_getfree:fs <- $r11
	@DEBUG_VALUE: f_getfree:nclst <- $r8
	@DEBUG_VALUE: f_getfree:path <- [DW_OP_plus_uconst 24, DW_OP_deref] $sp
	adds	r1, r0, #1
	beq	.LBB31_22
.Ltmp992:
@ %bb.6:                                @   in Loop: Header=BB31_4 Depth=1
	@DEBUG_VALUE: f_getfree:stat <- $r0
	@DEBUG_VALUE: f_getfree:obj <- [DW_OP_plus_uconst 4, DW_OP_deref] $sp
	@DEBUG_VALUE: f_getfree:nfree <- $r4
	@DEBUG_VALUE: f_getfree:clst <- $r6
	@DEBUG_VALUE: f_getfree:fs <- $r11
	@DEBUG_VALUE: f_getfree:nclst <- $r8
	@DEBUG_VALUE: f_getfree:path <- [DW_OP_plus_uconst 24, DW_OP_deref] $sp
	cmp	r0, #1
	bne	.LBB31_8
	b	.LBB31_21
.Ltmp993:
.LBB31_7:                               @   in Loop: Header=BB31_4 Depth=1
	@DEBUG_VALUE: f_getfree:stat <- $r0
	@DEBUG_VALUE: f_getfree:obj <- [DW_OP_plus_uconst 4, DW_OP_deref] $sp
	@DEBUG_VALUE: f_getfree:nfree <- $r4
	@DEBUG_VALUE: f_getfree:clst <- $r6
	@DEBUG_VALUE: f_getfree:fs <- $r11
	@DEBUG_VALUE: f_getfree:nclst <- $r8
	@DEBUG_VALUE: f_getfree:path <- [DW_OP_plus_uconst 24, DW_OP_deref] $sp
	.loc	2 4407 26               @ ../User/FATFS/ff.c:4407:26
	adds	r4, #1
.Ltmp994:
	@DEBUG_VALUE: f_getfree:nfree <- $r4
.LBB31_8:                               @   in Loop: Header=BB31_4 Depth=1
	@DEBUG_VALUE: f_getfree:stat <- $r0
	@DEBUG_VALUE: f_getfree:obj <- [DW_OP_plus_uconst 4, DW_OP_deref] $sp
	@DEBUG_VALUE: f_getfree:nfree <- $r4
	@DEBUG_VALUE: f_getfree:clst <- $r6
	@DEBUG_VALUE: f_getfree:fs <- $r11
	@DEBUG_VALUE: f_getfree:nclst <- $r8
	@DEBUG_VALUE: f_getfree:path <- [DW_OP_plus_uconst 24, DW_OP_deref] $sp
	@DEBUG_VALUE: f_getfree:nfree <- $r4
	.loc	2 4408 27               @ ../User/FATFS/ff.c:4408:27
	ldr.w	r0, [r11, #20]
.Ltmp995:
	.loc	2 4408 14 is_stmt 0     @ ../User/FATFS/ff.c:4408:14
	adds	r6, #1
.Ltmp996:
	@DEBUG_VALUE: f_getfree:clst <- $r6
	.loc	2 4408 5                @ ../User/FATFS/ff.c:4408:5
	cmp	r6, r0
	blo	.LBB31_4
.Ltmp997:
@ %bb.9:
	@DEBUG_VALUE: f_getfree:obj <- [DW_OP_plus_uconst 4, DW_OP_deref] $sp
	@DEBUG_VALUE: f_getfree:nfree <- $r4
	@DEBUG_VALUE: f_getfree:clst <- $r6
	@DEBUG_VALUE: f_getfree:fs <- $r11
	@DEBUG_VALUE: f_getfree:nclst <- $r8
	@DEBUG_VALUE: f_getfree:path <- [DW_OP_plus_uconst 24, DW_OP_deref] $sp
	.loc	2 0 5                   @ ../User/FATFS/ff.c:0:5
	movs	r0, #0
	b	.LBB31_23
.Ltmp998:
.LBB31_10:
	@DEBUG_VALUE: f_getfree:fs <- $r11
	@DEBUG_VALUE: f_getfree:nclst <- $r8
	@DEBUG_VALUE: f_getfree:path <- [DW_OP_plus_uconst 24, DW_OP_deref] $sp
	.loc	2 4397 11 is_stmt 1     @ ../User/FATFS/ff.c:4397:11
	str.w	r0, [r8]
	movs	r0, #0
	b	.LBB31_24
.Ltmp999:
.LBB31_11:
	@DEBUG_VALUE: f_getfree:fs <- $r11
	@DEBUG_VALUE: f_getfree:nclst <- $r8
	@DEBUG_VALUE: f_getfree:path <- [DW_OP_plus_uconst 24, DW_OP_deref] $sp
	@DEBUG_VALUE: f_getfree:i <- 0
	@DEBUG_VALUE: f_getfree:p <- 0
	.loc	2 4429 38               @ ../User/FATFS/ff.c:4429:38
	ldr.w	r9, [r11, #32]
.Ltmp1000:
	@DEBUG_VALUE: f_getfree:sect <- $r9
	.loc	2 0 38 is_stmt 0        @ ../User/FATFS/ff.c:0:38
	str.w	r8, [sp]                @ 4-byte Spill
.Ltmp1001:
	@DEBUG_VALUE: f_getfree:nclst <- [$sp+0]
	add.w	r10, r11, #48
.Ltmp1002:
	@DEBUG_VALUE: f_getfree:p <- $r10
	movs	r4, #0
	mov.w	r8, #0
	movs	r7, #0
.Ltmp1003:
.LBB31_12:                              @ =>This Inner Loop Header: Depth=1
	@DEBUG_VALUE: f_getfree:nclst <- [$sp+0]
	@DEBUG_VALUE: f_getfree:p <- $r10
	@DEBUG_VALUE: f_getfree:sect <- $r9
	@DEBUG_VALUE: f_getfree:fs <- $r11
	@DEBUG_VALUE: f_getfree:path <- [DW_OP_plus_uconst 24, DW_OP_deref] $sp
	@DEBUG_VALUE: f_getfree:res <- 0
	@DEBUG_VALUE: f_getfree:clst <- $r6
	@DEBUG_VALUE: f_getfree:nfree <- $r4
	@DEBUG_VALUE: f_getfree:i <- $r8
	@DEBUG_VALUE: f_getfree:p <- $r7
	@DEBUG_VALUE: f_getfree:sect <- $r9
	.loc	2 4432 11 is_stmt 1     @ ../User/FATFS/ff.c:4432:11
	cmp.w	r8, #0
	bne	.LBB31_15
.Ltmp1004:
@ %bb.13:                               @   in Loop: Header=BB31_12 Depth=1
	@DEBUG_VALUE: f_getfree:nclst <- [$sp+0]
	@DEBUG_VALUE: f_getfree:p <- $r7
	@DEBUG_VALUE: f_getfree:i <- $r8
	@DEBUG_VALUE: f_getfree:sect <- $r9
	@DEBUG_VALUE: f_getfree:nfree <- $r4
	@DEBUG_VALUE: f_getfree:clst <- $r6
	@DEBUG_VALUE: f_getfree:fs <- $r11
	@DEBUG_VALUE: f_getfree:path <- [DW_OP_plus_uconst 24, DW_OP_deref] $sp
	.loc	2 4433 14               @ ../User/FATFS/ff.c:4433:14
	mov	r0, r11
	mov	r1, r9
	bl	move_window
.Ltmp1005:
	@DEBUG_VALUE: f_getfree:res <- $r0
	.loc	2 4434 12               @ ../User/FATFS/ff.c:4434:12
	cbnz	r0, .LBB31_20
.Ltmp1006:
@ %bb.14:                               @   in Loop: Header=BB31_12 Depth=1
	@DEBUG_VALUE: f_getfree:nclst <- [$sp+0]
	@DEBUG_VALUE: f_getfree:p <- $r7
	@DEBUG_VALUE: f_getfree:i <- $r8
	@DEBUG_VALUE: f_getfree:sect <- $r9
	@DEBUG_VALUE: f_getfree:nfree <- $r4
	@DEBUG_VALUE: f_getfree:clst <- $r6
	@DEBUG_VALUE: f_getfree:fs <- $r11
	@DEBUG_VALUE: f_getfree:res <- $r0
	@DEBUG_VALUE: f_getfree:path <- [DW_OP_plus_uconst 24, DW_OP_deref] $sp
	.loc	2 4438 15               @ ../User/FATFS/ff.c:4438:15
	ldrb.w	r5, [r11]
.Ltmp1007:
	.loc	2 4433 34               @ ../User/FATFS/ff.c:4433:34
	add.w	r9, r9, #1
.Ltmp1008:
	@DEBUG_VALUE: f_getfree:sect <- $r9
	@DEBUG_VALUE: f_getfree:i <- 512
	.loc	2 0 34 is_stmt 0        @ ../User/FATFS/ff.c:0:34
	mov.w	r8, #512
.Ltmp1009:
	mov	r7, r10
.Ltmp1010:
.LBB31_15:                              @   in Loop: Header=BB31_12 Depth=1
	@DEBUG_VALUE: f_getfree:nclst <- [$sp+0]
	@DEBUG_VALUE: f_getfree:sect <- $r9
	@DEBUG_VALUE: f_getfree:nfree <- $r4
	@DEBUG_VALUE: f_getfree:clst <- $r6
	@DEBUG_VALUE: f_getfree:fs <- $r11
	@DEBUG_VALUE: f_getfree:path <- [DW_OP_plus_uconst 24, DW_OP_deref] $sp
	@DEBUG_VALUE: f_getfree:res <- 0
	@DEBUG_VALUE: f_getfree:i <- $r8
	@DEBUG_VALUE: f_getfree:p <- $r7
	@DEBUG_VALUE: f_getfree:sect <- $r9
	@DEBUG_VALUE: ld_word:ptr <- $r7
	.loc	2 4438 11 is_stmt 1     @ ../User/FATFS/ff.c:4438:11
	cmp	r5, #2
	bne	.LBB31_17
.Ltmp1011:
@ %bb.16:                               @   in Loop: Header=BB31_12 Depth=1
	@DEBUG_VALUE: f_getfree:nclst <- [$sp+0]
	@DEBUG_VALUE: ld_word:ptr <- $r7
	@DEBUG_VALUE: f_getfree:p <- $r7
	@DEBUG_VALUE: f_getfree:i <- $r8
	@DEBUG_VALUE: f_getfree:sect <- $r9
	@DEBUG_VALUE: f_getfree:nfree <- $r4
	@DEBUG_VALUE: f_getfree:clst <- $r6
	@DEBUG_VALUE: f_getfree:fs <- $r11
	@DEBUG_VALUE: f_getfree:path <- [DW_OP_plus_uconst 24, DW_OP_deref] $sp
	.loc	2 618 17                @ ../User/FATFS/ff.c:618:17
	ldrb	r0, [r7]
	.loc	2 617 7                 @ ../User/FATFS/ff.c:617:7
	ldrb	r1, [r7, #1]
	movs	r2, #2
	.loc	2 618 15                @ ../User/FATFS/ff.c:618:15
	orr.w	r0, r0, r1, lsl #8
.Ltmp1012:
	@DEBUG_VALUE: ld_word:rv <- $r0
	.loc	2 0 15 is_stmt 0        @ ../User/FATFS/ff.c:0:15
	mvn	r1, #1
	b	.LBB31_18
.Ltmp1013:
.LBB31_17:                              @   in Loop: Header=BB31_12 Depth=1
	@DEBUG_VALUE: f_getfree:nclst <- [$sp+0]
	@DEBUG_VALUE: f_getfree:p <- $r7
	@DEBUG_VALUE: f_getfree:i <- $r8
	@DEBUG_VALUE: f_getfree:sect <- $r9
	@DEBUG_VALUE: f_getfree:nfree <- $r4
	@DEBUG_VALUE: f_getfree:clst <- $r6
	@DEBUG_VALUE: f_getfree:fs <- $r11
	@DEBUG_VALUE: f_getfree:path <- [DW_OP_plus_uconst 24, DW_OP_deref] $sp
	.loc	2 4442 13 is_stmt 1     @ ../User/FATFS/ff.c:4442:13
	mov	r0, r7
	bl	ld_dword
	.loc	2 4442 25 is_stmt 0     @ ../User/FATFS/ff.c:4442:25
	bic	r0, r0, #-268435456
	mvn	r1, #3
	movs	r2, #4
.Ltmp1014:
.LBB31_18:                              @   in Loop: Header=BB31_12 Depth=1
	@DEBUG_VALUE: f_getfree:nclst <- [$sp+0]
	@DEBUG_VALUE: f_getfree:p <- $r7
	@DEBUG_VALUE: f_getfree:i <- $r8
	@DEBUG_VALUE: f_getfree:sect <- $r9
	@DEBUG_VALUE: f_getfree:nfree <- $r4
	@DEBUG_VALUE: f_getfree:clst <- $r6
	@DEBUG_VALUE: f_getfree:fs <- $r11
	@DEBUG_VALUE: f_getfree:path <- [DW_OP_plus_uconst 24, DW_OP_deref] $sp
	.loc	2 0 0                   @ ../User/FATFS/ff.c:0:0
	clz	r0, r0
	lsrs	r0, r0, #5
	add	r4, r0
.Ltmp1015:
	@DEBUG_VALUE: f_getfree:nfree <- $r4
	add	r8, r1
.Ltmp1016:
	@DEBUG_VALUE: f_getfree:i <- $r8
	add	r7, r2
.Ltmp1017:
	@DEBUG_VALUE: f_getfree:p <- $r7
	.loc	2 4445 15 is_stmt 1     @ ../User/FATFS/ff.c:4445:15
	subs	r6, #1
.Ltmp1018:
	@DEBUG_VALUE: f_getfree:clst <- $r6
	.loc	2 4445 6 is_stmt 0      @ ../User/FATFS/ff.c:4445:6
	bne	.LBB31_12
.Ltmp1019:
@ %bb.19:
	@DEBUG_VALUE: f_getfree:nclst <- [$sp+0]
	@DEBUG_VALUE: f_getfree:p <- $r7
	@DEBUG_VALUE: f_getfree:i <- $r8
	@DEBUG_VALUE: f_getfree:sect <- $r9
	@DEBUG_VALUE: f_getfree:nfree <- $r4
	@DEBUG_VALUE: f_getfree:clst <- $r6
	@DEBUG_VALUE: f_getfree:fs <- $r11
	@DEBUG_VALUE: f_getfree:path <- [DW_OP_plus_uconst 24, DW_OP_deref] $sp
	.loc	2 0 6                   @ ../User/FATFS/ff.c:0:6
	movs	r0, #0
.Ltmp1020:
.LBB31_20:
	@DEBUG_VALUE: f_getfree:nclst <- [$sp+0]
	@DEBUG_VALUE: f_getfree:p <- $r7
	@DEBUG_VALUE: f_getfree:i <- $r8
	@DEBUG_VALUE: f_getfree:sect <- $r9
	@DEBUG_VALUE: f_getfree:nfree <- $r4
	@DEBUG_VALUE: f_getfree:clst <- $r6
	@DEBUG_VALUE: f_getfree:fs <- $r11
	@DEBUG_VALUE: f_getfree:path <- [DW_OP_plus_uconst 24, DW_OP_deref] $sp
	ldr.w	r8, [sp]                @ 4-byte Reload
.Ltmp1021:
	b	.LBB31_23
.Ltmp1022:
.LBB31_21:
	@DEBUG_VALUE: f_getfree:stat <- $r0
	@DEBUG_VALUE: f_getfree:obj <- [DW_OP_plus_uconst 4, DW_OP_deref] $sp
	@DEBUG_VALUE: f_getfree:nfree <- $r4
	@DEBUG_VALUE: f_getfree:clst <- $r6
	@DEBUG_VALUE: f_getfree:fs <- $r11
	@DEBUG_VALUE: f_getfree:nclst <- $r8
	@DEBUG_VALUE: f_getfree:path <- [DW_OP_plus_uconst 24, DW_OP_deref] $sp
	movs	r0, #2
.Ltmp1023:
	b	.LBB31_23
.Ltmp1024:
.LBB31_22:
	@DEBUG_VALUE: f_getfree:stat <- $r0
	@DEBUG_VALUE: f_getfree:obj <- [DW_OP_plus_uconst 4, DW_OP_deref] $sp
	@DEBUG_VALUE: f_getfree:nfree <- $r4
	@DEBUG_VALUE: f_getfree:clst <- $r6
	@DEBUG_VALUE: f_getfree:fs <- $r11
	@DEBUG_VALUE: f_getfree:nclst <- $r8
	@DEBUG_VALUE: f_getfree:path <- [DW_OP_plus_uconst 24, DW_OP_deref] $sp
	movs	r0, #1
.Ltmp1025:
.LBB31_23:
	@DEBUG_VALUE: f_getfree:nfree <- $r4
	@DEBUG_VALUE: f_getfree:clst <- $r6
	@DEBUG_VALUE: f_getfree:fs <- $r11
	@DEBUG_VALUE: f_getfree:path <- [DW_OP_plus_uconst 24, DW_OP_deref] $sp
	@DEBUG_VALUE: f_getfree:res <- $r0
	@DEBUG_VALUE: f_getfree:nfree <- $r4
	.loc	2 4448 11 is_stmt 1     @ ../User/FATFS/ff.c:4448:11
	str.w	r4, [r8]
	.loc	2 4449 18               @ ../User/FATFS/ff.c:4449:18
	str.w	r4, [r11, #16]
	.loc	2 4450 17               @ ../User/FATFS/ff.c:4450:17
	ldrb.w	r1, [r11, #4]
	orr	r1, r1, #1
	strb.w	r1, [r11, #4]
.Ltmp1026:
.LBB31_24:
	@DEBUG_VALUE: f_getfree:path <- [DW_OP_plus_uconst 24, DW_OP_deref] $sp
	@DEBUG_VALUE: f_getfree:res <- $r0
	.loc	2 4454 2                @ ../User/FATFS/ff.c:4454:2
	add	sp, #28
.Ltmp1027:
	pop.w	{r4, r5, r6, r7, r8, r9, r10, r11, pc}
.Ltmp1028:
.Lfunc_end31:
	.size	f_getfree, .Lfunc_end31-f_getfree
	.cfi_endproc
	.cantunwind
	.fnend
                                        @ -- End function
	.section	.text.f_truncate,"ax",%progbits
	.hidden	f_truncate              @ -- Begin function f_truncate
	.globl	f_truncate
	.p2align	1
	.type	f_truncate,%function
	.code	16                      @ @f_truncate
	.thumb_func
f_truncate:
.Lfunc_begin32:
	.loc	2 4467 0                @ ../User/FATFS/ff.c:4467:0
	.fnstart
	.cfi_startproc
@ %bb.0:
	.save	{r4, r5, r6, lr}
	.pad	#8
	push	{r2, r3, r4, r5, r6, lr}
	.cfi_def_cfa_offset 24
	.cfi_offset lr, -4
	.cfi_offset r6, -8
	.cfi_offset r5, -12
	.cfi_offset r4, -16
	@DEBUG_VALUE: f_truncate:fp <- $r0
	add	r1, sp, #4
	mov	r4, r0
.Ltmp1029:
	@DEBUG_VALUE: f_truncate:fs <- [DW_OP_plus_uconst 4, DW_OP_deref] $sp
	@DEBUG_VALUE: f_truncate:fp <- $r4
	.loc	2 4473 8 prologue_end   @ ../User/FATFS/ff.c:4473:8
	bl	validate
	mov	r5, r0
.Ltmp1030:
	@DEBUG_VALUE: f_truncate:res <- $r5
	.loc	2 4474 19               @ ../User/FATFS/ff.c:4474:19
	cmp	r0, #0
	bne	.LBB32_16
.Ltmp1031:
@ %bb.1:
	@DEBUG_VALUE: f_truncate:res <- $r5
	@DEBUG_VALUE: f_truncate:fp <- $r4
	@DEBUG_VALUE: f_truncate:fs <- [DW_OP_plus_uconst 4, DW_OP_deref] $sp
	.loc	2 4474 42 is_stmt 0     @ ../User/FATFS/ff.c:4474:42
	ldrb	r5, [r4, #17]
.Ltmp1032:
	@DEBUG_VALUE: f_truncate:res <- undef
	.loc	2 4474 6                @ ../User/FATFS/ff.c:4474:6
	cmp	r5, #0
	bne	.LBB32_16
.Ltmp1033:
@ %bb.2:
	@DEBUG_VALUE: f_truncate:fp <- $r4
	@DEBUG_VALUE: f_truncate:fs <- [DW_OP_plus_uconst 4, DW_OP_deref] $sp
	.loc	2 4475 12 is_stmt 1     @ ../User/FATFS/ff.c:4475:12
	ldrb	r0, [r4, #16]
.Ltmp1034:
	.loc	2 4475 6 is_stmt 0      @ ../User/FATFS/ff.c:4475:6
	lsls	r0, r0, #30
	bmi	.LBB32_4
.Ltmp1035:
@ %bb.3:
	@DEBUG_VALUE: f_truncate:fp <- $r4
	@DEBUG_VALUE: f_truncate:fs <- [DW_OP_plus_uconst 4, DW_OP_deref] $sp
	.loc	2 0 6                   @ ../User/FATFS/ff.c:0:6
	movs	r5, #7
	b	.LBB32_16
.Ltmp1036:
.LBB32_4:
	@DEBUG_VALUE: f_truncate:fp <- $r4
	@DEBUG_VALUE: f_truncate:fs <- [DW_OP_plus_uconst 4, DW_OP_deref] $sp
	.loc	2 4477 25 is_stmt 1     @ ../User/FATFS/ff.c:4477:25
	ldr	r1, [r4, #12]
	.loc	2 4477 10 is_stmt 0     @ ../User/FATFS/ff.c:4477:10
	ldr	r0, [r4, #20]
.Ltmp1037:
	.loc	2 4477 6                @ ../User/FATFS/ff.c:4477:6
	cmp	r0, r1
	bhs	.LBB32_15
.Ltmp1038:
@ %bb.5:
	@DEBUG_VALUE: f_truncate:fp <- $r4
	@DEBUG_VALUE: f_truncate:fs <- [DW_OP_plus_uconst 4, DW_OP_deref] $sp
	.loc	2 4478 7 is_stmt 1      @ ../User/FATFS/ff.c:4478:7
	cbz	r0, .LBB32_8
.Ltmp1039:
@ %bb.6:
	@DEBUG_VALUE: f_truncate:fp <- $r4
	@DEBUG_VALUE: f_truncate:fs <- [DW_OP_plus_uconst 4, DW_OP_deref] $sp
	.loc	2 4482 32               @ ../User/FATFS/ff.c:4482:32
	ldr	r1, [r4, #24]
	.loc	2 4482 10 is_stmt 0     @ ../User/FATFS/ff.c:4482:10
	mov	r0, r4
	bl	get_fat
	mov	r1, r0
.Ltmp1040:
	@DEBUG_VALUE: f_truncate:ncl <- $r1
	@DEBUG_VALUE: f_truncate:res <- 0
	.loc	2 4484 12 is_stmt 1     @ ../User/FATFS/ff.c:4484:12
	adds	r0, #1
	clz	r0, r0
.Ltmp1041:
	.loc	2 4485 8                @ ../User/FATFS/ff.c:4485:8
	cmp	r1, #1
.Ltmp1042:
	.loc	2 4484 12               @ ../User/FATFS/ff.c:4484:12
	lsr.w	r5, r0, #5
.Ltmp1043:
	@DEBUG_VALUE: f_truncate:res <- $r5
	.loc	2 4485 8                @ ../User/FATFS/ff.c:4485:8
	it	eq
	moveq	r5, #2
.Ltmp1044:
	@DEBUG_VALUE: f_truncate:res <- $r5
	.loc	2 4486 21               @ ../User/FATFS/ff.c:4486:21
	cbz	r5, .LBB32_9
.Ltmp1045:
@ %bb.7:
	@DEBUG_VALUE: f_truncate:ncl <- $r1
	@DEBUG_VALUE: f_truncate:res <- $r5
	@DEBUG_VALUE: f_truncate:fp <- $r4
	@DEBUG_VALUE: f_truncate:fs <- [DW_OP_plus_uconst 4, DW_OP_deref] $sp
	.loc	2 4490 25               @ ../User/FATFS/ff.c:4490:25
	ldr	r0, [r4, #20]
	.loc	2 4490 19 is_stmt 0     @ ../User/FATFS/ff.c:4490:19
	str	r0, [r4, #12]
	.loc	2 4491 12 is_stmt 1     @ ../User/FATFS/ff.c:4491:12
	ldrb	r0, [r4, #16]
	orr	r0, r0, #64
	strb	r0, [r4, #16]
	b	.LBB32_12
.Ltmp1046:
.LBB32_8:
	@DEBUG_VALUE: f_truncate:fp <- $r4
	@DEBUG_VALUE: f_truncate:fs <- [DW_OP_plus_uconst 4, DW_OP_deref] $sp
	.loc	2 4479 41               @ ../User/FATFS/ff.c:4479:41
	ldr	r1, [r4, #8]
	.loc	2 4479 10 is_stmt 0     @ ../User/FATFS/ff.c:4479:10
	mov	r0, r4
	movs	r2, #0
	movs	r6, #0
	bl	remove_chain
	mov	r5, r0
.Ltmp1047:
	@DEBUG_VALUE: f_truncate:res <- undef
	.loc	2 4480 19 is_stmt 1     @ ../User/FATFS/ff.c:4480:19
	str	r6, [r4, #8]
	b	.LBB32_11
.Ltmp1048:
.LBB32_9:
	@DEBUG_VALUE: f_truncate:ncl <- $r1
	@DEBUG_VALUE: f_truncate:res <- $r5
	@DEBUG_VALUE: f_truncate:fp <- $r4
	@DEBUG_VALUE: f_truncate:fs <- [DW_OP_plus_uconst 4, DW_OP_deref] $sp
	.loc	2 4486 30               @ ../User/FATFS/ff.c:4486:30
	ldr	r0, [sp, #4]
.Ltmp1049:
	@DEBUG_VALUE: f_truncate:fs <- $r0
	.loc	2 4486 34 is_stmt 0     @ ../User/FATFS/ff.c:4486:34
	ldr	r0, [r0, #20]
.Ltmp1050:
	.loc	2 4486 8                @ ../User/FATFS/ff.c:4486:8
	cmp	r1, r0
	bhs	.LBB32_13
.Ltmp1051:
@ %bb.10:
	@DEBUG_VALUE: f_truncate:ncl <- $r1
	@DEBUG_VALUE: f_truncate:res <- $r5
	@DEBUG_VALUE: f_truncate:fp <- $r4
	.loc	2 4487 43 is_stmt 1     @ ../User/FATFS/ff.c:4487:43
	ldr	r2, [r4, #24]
	.loc	2 4487 11 is_stmt 0     @ ../User/FATFS/ff.c:4487:11
	mov	r0, r4
	bl	remove_chain
.Ltmp1052:
	mov	r5, r0
.Ltmp1053:
	@DEBUG_VALUE: f_truncate:res <- undef
.LBB32_11:
	@DEBUG_VALUE: f_truncate:fp <- $r4
	@DEBUG_VALUE: f_truncate:res <- $r5
	.loc	2 4490 25 is_stmt 1     @ ../User/FATFS/ff.c:4490:25
	ldr	r0, [r4, #20]
.Ltmp1054:
	.loc	2 4493 20               @ ../User/FATFS/ff.c:4493:20
	cmp	r5, #0
.Ltmp1055:
	.loc	2 4490 19               @ ../User/FATFS/ff.c:4490:19
	str	r0, [r4, #12]
	.loc	2 4491 12               @ ../User/FATFS/ff.c:4491:12
	ldrb	r0, [r4, #16]
	orr	r1, r0, #64
	strb	r1, [r4, #16]
.Ltmp1056:
	.loc	2 4493 20               @ ../User/FATFS/ff.c:4493:20
	beq	.LBB32_14
.Ltmp1057:
.LBB32_12:
	@DEBUG_VALUE: f_truncate:fp <- $r4
	.loc	2 4501 21               @ ../User/FATFS/ff.c:4501:21
	strb	r5, [r4, #17]
	b	.LBB32_16
.Ltmp1058:
.LBB32_13:
	@DEBUG_VALUE: f_truncate:ncl <- $r1
	@DEBUG_VALUE: f_truncate:res <- $r5
	@DEBUG_VALUE: f_truncate:fp <- $r4
	.loc	2 4490 25               @ ../User/FATFS/ff.c:4490:25
	ldr	r0, [r4, #20]
	.loc	2 4490 19 is_stmt 0     @ ../User/FATFS/ff.c:4490:19
	str	r0, [r4, #12]
	.loc	2 4491 12 is_stmt 1     @ ../User/FATFS/ff.c:4491:12
	ldrb	r0, [r4, #16]
	orr	r1, r0, #64
.Ltmp1059:
	strb	r1, [r4, #16]
.Ltmp1060:
.LBB32_14:
	@DEBUG_VALUE: f_truncate:res <- $r5
	@DEBUG_VALUE: f_truncate:fp <- $r4
	.loc	2 4493 33               @ ../User/FATFS/ff.c:4493:33
	sxtb	r0, r0
.Ltmp1061:
	.loc	2 4493 7 is_stmt 0      @ ../User/FATFS/ff.c:4493:7
	cmp.w	r0, #-1
	ble	.LBB32_17
.Ltmp1062:
.LBB32_15:
	@DEBUG_VALUE: f_truncate:fp <- $r4
	.loc	2 0 7                   @ ../User/FATFS/ff.c:0:7
	movs	r5, #0
.Ltmp1063:
.LBB32_16:
	@DEBUG_VALUE: f_truncate:fp <- $r4
	.loc	2 4505 1 is_stmt 1      @ ../User/FATFS/ff.c:4505:1
	mov	r0, r5
	add	sp, #8
	pop	{r4, r5, r6, pc}
.Ltmp1064:
.LBB32_17:
	@DEBUG_VALUE: f_truncate:res <- $r5
	@DEBUG_VALUE: f_truncate:fp <- $r4
	.loc	2 4494 19               @ ../User/FATFS/ff.c:4494:19
	ldr	r0, [sp, #4]
.Ltmp1065:
	@DEBUG_VALUE: f_truncate:fs <- $r0
	.loc	2 4494 41 is_stmt 0     @ ../User/FATFS/ff.c:4494:41
	ldr	r2, [r4, #28]
	.loc	2 4494 28               @ ../User/FATFS/ff.c:4494:28
	add.w	r1, r4, #40
	.loc	2 4494 8                @ ../User/FATFS/ff.c:4494:8
	movs	r3, #1
	movs	r5, #1
.Ltmp1066:
	.loc	2 4494 23               @ ../User/FATFS/ff.c:4494:23
	ldrb	r0, [r0, #1]
.Ltmp1067:
	.loc	2 4494 8                @ ../User/FATFS/ff.c:4494:8
	bl	disk_write
.Ltmp1068:
	.loc	2 4494 8                @ ../User/FATFS/ff.c:4494:8
	cmp	r0, #0
	bne	.LBB32_12
.Ltmp1069:
@ %bb.18:
	@DEBUG_VALUE: f_truncate:fp <- $r4
	.loc	2 4497 14 is_stmt 1     @ ../User/FATFS/ff.c:4497:14
	ldrb	r0, [r4, #16]
	and	r0, r0, #127
	strb	r0, [r4, #16]
	b	.LBB32_15
.Ltmp1070:
.Lfunc_end32:
	.size	f_truncate, .Lfunc_end32-f_truncate
	.cfi_endproc
	.cantunwind
	.fnend
                                        @ -- End function
	.section	.text.f_unlink,"ax",%progbits
	.hidden	f_unlink                @ -- Begin function f_unlink
	.globl	f_unlink
	.p2align	1
	.type	f_unlink,%function
	.code	16                      @ @f_unlink
	.thumb_func
f_unlink:
.Lfunc_begin33:
	.loc	2 4517 0                @ ../User/FATFS/ff.c:4517:0
	.fnstart
	.cfi_startproc
@ %bb.0:
	.save	{r4, r5, r6, lr}
	push	{r4, r5, r6, lr}
	.cfi_def_cfa_offset 16
	.cfi_offset lr, -4
	.cfi_offset r6, -8
	.cfi_offset r5, -12
	.cfi_offset r4, -16
	.pad	#96
	sub	sp, #96
	.cfi_def_cfa_offset 112
	@DEBUG_VALUE: f_unlink:path <- $r0
	@DEBUG_VALUE: f_unlink:path <- $r0
	str	r0, [sp, #92]
.Ltmp1071:
	@DEBUG_VALUE: f_unlink:fs <- [DW_OP_deref] $sp
	@DEBUG_VALUE: f_unlink:path <- [DW_OP_plus_uconst 92, DW_OP_deref] $sp
	@DEBUG_VALUE: f_unlink:dclst <- 0
	add	r0, sp, #92
	mov	r1, sp
.Ltmp1072:
	.loc	2 4529 8 prologue_end   @ ../User/FATFS/ff.c:4529:8
	movs	r2, #2
	bl	find_volume
.Ltmp1073:
	@DEBUG_VALUE: f_unlink:res <- $r0
	.loc	2 4530 14               @ ../User/FATFS/ff.c:4530:14
	ldr	r4, [sp]
.Ltmp1074:
	@DEBUG_VALUE: f_unlink:fs <- $r4
