	.text
	.syntax unified
	.eabi_attribute	67, "2.09"	@ Tag_conformance
	.cpu	cortex-m4
	.eabi_attribute	6, 13	@ Tag_CPU_arch
	.eabi_attribute	7, 77	@ Tag_CPU_arch_profile
	.eabi_attribute	8, 0	@ Tag_ARM_ISA_use
	.eabi_attribute	9, 2	@ Tag_THUMB_ISA_use
	.fpu	fpv4-sp-d16
	.eabi_attribute	27, 1	@ Tag_ABI_HardFP_use
	.eabi_attribute	36, 1	@ Tag_FP_HP_extension
	.eabi_attribute	34, 1	@ Tag_CPU_unaligned_access
	.eabi_attribute	17, 1	@ Tag_ABI_PCS_GOT_use
	.eabi_attribute	20, 2	@ Tag_ABI_FP_denormal
	.eabi_attribute	21, 0	@ Tag_ABI_FP_exceptions
	.eabi_attribute	23, 1	@ Tag_ABI_FP_number_model
	.eabi_attribute	24, 1	@ Tag_ABI_align_needed
	.eabi_attribute	25, 1	@ Tag_ABI_align_preserved
	.eabi_attribute	28, 1	@ Tag_ABI_VFP_args
	.eabi_attribute	38, 1	@ Tag_ABI_FP_16bit_format
	.eabi_attribute	18, 2	@ Tag_ABI_PCS_wchar_t
	.eabi_attribute	26, 1	@ Tag_ABI_enum_size
	.eabi_attribute	14, 0	@ Tag_ABI_PCS_R9_use
	.file	"i2c_eeprom.c"
	.file	1 "C:\\Keil\\ARM\\ARMCLANG\\Bin\\..\\include" "stdint.h"
	.file	2 "F:\\SkyDrive\\OtvoreniProjekti\\HotelSaplast\\fw\\KontrolerHotela\\HCBL020318\\Project" "../Libraries/CMSIS/Device/ST/STM32F4xx/Include\\stm32f4xx.h"
	.file	3 "F:\\SkyDrive\\OtvoreniProjekti\\HotelSaplast\\fw\\KontrolerHotela\\HCBL020318\\Project" "../Driver/i2c_eeprom.h"
	.file	4 "F:\\SkyDrive\\OtvoreniProjekti\\HotelSaplast\\fw\\KontrolerHotela\\HCBL020318\\Project" "../Driver/i2c_eeprom.c"
	.file	5 "F:\\SkyDrive\\OtvoreniProjekti\\HotelSaplast\\fw\\KontrolerHotela\\HCBL020318\\Project" "../Libraries/STM32F4xx_StdPeriph_Driver/inc\\stm32f4xx_gpio.h"
	.section	.text.I2C_EERPOM_Init,"ax",%progbits
	.hidden	I2C_EERPOM_Init         @ -- Begin function I2C_EERPOM_Init
	.globl	I2C_EERPOM_Init
	.p2align	2
	.type	I2C_EERPOM_Init,%function
	.code	16                      @ @I2C_EERPOM_Init
	.thumb_func
I2C_EERPOM_Init:
.Lfunc_begin0:
	.loc	4 34 0                  @ ../Driver/i2c_eeprom.c:34:0
	.fnstart
	.cfi_sections .debug_frame
	.cfi_startproc
@ %bb.0:
	.save	{r4, r5, r7, lr}
	.pad	#8
	push	{r2, r3, r4, r5, r7, lr}
	.cfi_def_cfa_offset 24
	.cfi_offset lr, -4
	.cfi_offset r7, -8
	.cfi_offset r5, -12
	.cfi_offset r4, -16
.Ltmp0:
	.loc	4 37 2 prologue_end     @ ../Driver/i2c_eeprom.c:37:2
	mov.w	r0, #4194304
	movs	r1, #1
	bl	RCC_APB1PeriphClockCmd
	.loc	4 38 37                 @ ../Driver/i2c_eeprom.c:38:37
	ldr	r5, __arm_cp.0_0
	.loc	4 38 2 is_stmt 0        @ ../Driver/i2c_eeprom.c:38:2
	movs	r1, #1
	.loc	4 38 37                 @ ../Driver/i2c_eeprom.c:38:37
	ldr	r0, [r5, #8]
	.loc	4 38 2                  @ ../Driver/i2c_eeprom.c:38:2
	bl	RCC_AHB1PeriphClockCmd
	.loc	4 39 37 is_stmt 1       @ ../Driver/i2c_eeprom.c:39:37
	ldr	r0, [r5, #24]
	.loc	4 39 2 is_stmt 0        @ ../Driver/i2c_eeprom.c:39:2
	movs	r1, #1
	bl	RCC_AHB1PeriphClockCmd
	.loc	4 40 2 is_stmt 1        @ ../Driver/i2c_eeprom.c:40:2
	mov.w	r0, #4194304
	movs	r1, #1
	bl	RCC_APB1PeriphResetCmd
	.loc	4 41 2                  @ ../Driver/i2c_eeprom.c:41:2
	mov.w	r0, #4194304
	movs	r1, #0
	bl	RCC_APB1PeriphResetCmd
	.loc	4 43 49                 @ ../Driver/i2c_eeprom.c:43:49
	ldrb	r1, [r5, #12]
	.loc	4 43 31 is_stmt 0       @ ../Driver/i2c_eeprom.c:43:31
	ldr	r0, [r5]
	.loc	4 43 2                  @ ../Driver/i2c_eeprom.c:43:2
	movs	r2, #4
	bl	GPIO_PinAFConfig
	.loc	4 44 49 is_stmt 1       @ ../Driver/i2c_eeprom.c:44:49
	ldrb	r1, [r5, #28]
	.loc	4 44 31 is_stmt 0       @ ../Driver/i2c_eeprom.c:44:31
	ldr	r0, [r5, #16]
	.loc	4 44 2                  @ ../Driver/i2c_eeprom.c:44:2
	movs	r2, #4
	bl	GPIO_PinAFConfig
	ldr	r0, __arm_cp.0_1
	mov	r4, sp
	.loc	4 51 2 is_stmt 1        @ ../Driver/i2c_eeprom.c:51:2
	mov	r1, r4
	.loc	4 46 31                 @ ../Driver/i2c_eeprom.c:46:31
	str	r0, [sp, #4]
	.loc	4 50 44                 @ ../Driver/i2c_eeprom.c:50:44
	ldrh	r0, [r5, #4]
	.loc	4 50 30 is_stmt 0       @ ../Driver/i2c_eeprom.c:50:30
	str	r0, [sp]
	.loc	4 51 24 is_stmt 1       @ ../Driver/i2c_eeprom.c:51:24
	ldr	r0, [r5]
.Ltmp1:
	@DEBUG_VALUE: I2C_EERPOM_Init:GPIO_InitStructure <- [DW_OP_deref] $sp
	.loc	4 51 2 is_stmt 0        @ ../Driver/i2c_eeprom.c:51:2
	bl	GPIO_Init
	.loc	4 52 44 is_stmt 1       @ ../Driver/i2c_eeprom.c:52:44
	ldrh	r0, [r5, #20]
	.loc	4 53 2                  @ ../Driver/i2c_eeprom.c:53:2
	mov	r1, r4
	.loc	4 52 30                 @ ../Driver/i2c_eeprom.c:52:30
	str	r0, [sp]
	.loc	4 53 24                 @ ../Driver/i2c_eeprom.c:53:24
	ldr	r0, [r5, #16]
	.loc	4 53 2 is_stmt 0        @ ../Driver/i2c_eeprom.c:53:2
	bl	GPIO_Init
	.loc	4 55 2 is_stmt 1        @ ../Driver/i2c_eeprom.c:55:2
	bl	I2C2_Init
	.loc	4 56 1                  @ ../Driver/i2c_eeprom.c:56:1
	pop	{r2, r3, r4, r5, r7, pc}
.Ltmp2:
	.p2align	2
@ %bb.1:
	.loc	4 0 1 is_stmt 0         @ ../Driver/i2c_eeprom.c:0:1
__arm_cp.0_0:
	.long	I2C2DEV
.Lcpi_end0:
	.size	__arm_cp.0_0, .Lcpi_end0-__arm_cp.0_0
__arm_cp.0_1:
	.long	66050                   @ 0x10202
.Lcpi_end1:
	.size	__arm_cp.0_1, .Lcpi_end1-__arm_cp.0_1
.Lfunc_end0:
	.size	I2C_EERPOM_Init, .Lfunc_end0-I2C_EERPOM_Init
	.cfi_endproc
	.cantunwind
	.fnend
                                        @ -- End function
	.section	.text.I2C2_Init,"ax",%progbits
	.hidden	I2C2_Init               @ -- Begin function I2C2_Init
	.globl	I2C2_Init
	.p2align	2
	.type	I2C2_Init,%function
	.code	16                      @ @I2C2_Init
	.thumb_func
I2C2_Init:
.Lfunc_begin1:
	.loc	4 747 0 is_stmt 1       @ ../Driver/i2c_eeprom.c:747:0
	.fnstart
	.cfi_startproc
@ %bb.0:
	.save	{r4, lr}
	.pad	#16
	push	{r0, r1, r2, r3, r4, lr}
	.cfi_def_cfa_offset 24
	.cfi_offset lr, -4
	.cfi_offset r4, -8
	mov.w	r0, #16384
	ldr	r4, __arm_cp.1_2
.Ltmp3:
	.loc	4 759 3 prologue_end    @ ../Driver/i2c_eeprom.c:759:3
	movs	r1, #1
	.loc	4 755 45                @ ../Driver/i2c_eeprom.c:755:45
	strh.w	r0, [sp, #12]
	mov.w	r0, #67108864
	.loc	4 753 37                @ ../Driver/i2c_eeprom.c:753:37
	str	r0, [sp, #8]
	ldr	r0, __arm_cp.1_0
	.loc	4 751 30                @ ../Driver/i2c_eeprom.c:751:30
	str	r0, [sp, #4]
	ldr	r0, __arm_cp.1_1
	.loc	4 756 36                @ ../Driver/i2c_eeprom.c:756:36
	str	r0, [sp]
	.loc	4 759 3                 @ ../Driver/i2c_eeprom.c:759:3
	mov	r0, r4
	bl	I2C_Cmd
.Ltmp4:
	@DEBUG_VALUE: I2C2_Init:I2C_InitStructure <- [DW_OP_deref] $sp
	.loc	4 0 3 is_stmt 0         @ ../Driver/i2c_eeprom.c:0:3
	mov	r1, sp
	.loc	4 762 3 is_stmt 1       @ ../Driver/i2c_eeprom.c:762:3
	mov	r0, r4
	bl	I2C_Init
	.loc	4 763 1                 @ ../Driver/i2c_eeprom.c:763:1
	pop	{r0, r1, r2, r3, r4, pc}
.Ltmp5:
	.p2align	2
@ %bb.1:
	.loc	4 0 1 is_stmt 0         @ ../Driver/i2c_eeprom.c:0:1
__arm_cp.1_0:
	.long	3221159936              @ 0xbfff0000
.Lcpi_end2:
	.size	__arm_cp.1_0, .Lcpi_end2-__arm_cp.1_0
__arm_cp.1_1:
	.long	100000                  @ 0x186a0
.Lcpi_end3:
	.size	__arm_cp.1_1, .Lcpi_end3-__arm_cp.1_1
__arm_cp.1_2:
	.long	1073764352              @ 0x40005800
.Lcpi_end4:
	.size	__arm_cp.1_2, .Lcpi_end4-__arm_cp.1_2
.Lfunc_end1:
	.size	I2C2_Init, .Lfunc_end1-I2C2_Init
	.cfi_endproc
	.cantunwind
	.fnend
                                        @ -- End function
	.section	.text.I2C_EERPOM_ReadByte,"ax",%progbits
	.hidden	I2C_EERPOM_ReadByte     @ -- Begin function I2C_EERPOM_ReadByte
	.globl	I2C_EERPOM_ReadByte
	.p2align	2
	.type	I2C_EERPOM_ReadByte,%function
	.code	16                      @ @I2C_EERPOM_ReadByte
	.thumb_func
I2C_EERPOM_ReadByte:
.Lfunc_begin2:
	.loc	4 60 0 is_stmt 1        @ ../Driver/i2c_eeprom.c:60:0
	.fnstart
	.cfi_startproc
@ %bb.0:
	.save	{r4, r5, r6, r7, r8, r9, r10, lr}
	push.w	{r4, r5, r6, r7, r8, r9, r10, lr}
	.cfi_def_cfa_offset 32
	.cfi_offset lr, -4
	.cfi_offset r10, -8
	.cfi_offset r9, -12
	.cfi_offset r8, -16
	.cfi_offset r7, -20
	.cfi_offset r6, -24
	.cfi_offset r5, -28
	.cfi_offset r4, -32
	@DEBUG_VALUE: I2C_EERPOM_ReadByte:slave_address <- $r0
	@DEBUG_VALUE: I2C_EERPOM_ReadByte:data_address <- $r1
	ldr	r4, __arm_cp.2_0
	mov	r9, r1
	mov	r8, r0
.Ltmp6:
	@DEBUG_VALUE: I2C_EERPOM_ReadByte:timeout <- 12288
	@DEBUG_VALUE: I2C_EERPOM_ReadByte:ret_data <- 0
	@DEBUG_VALUE: I2C_EERPOM_ReadByte:data_address <- $r9
	@DEBUG_VALUE: I2C_EERPOM_ReadByte:slave_address <- $r8
	.loc	4 64 2 prologue_end     @ ../Driver/i2c_eeprom.c:64:2
	movs	r1, #1
	mov	r0, r4
	bl	I2C_GenerateSTART
	ldr	r6, __arm_cp.2_1
	mvn	r5, #12288
.Ltmp7:
.LBB2_1:                                @ =>This Inner Loop Header: Depth=1
	@DEBUG_VALUE: I2C_EERPOM_ReadByte:slave_address <- $r8
	@DEBUG_VALUE: I2C_EERPOM_ReadByte:data_address <- $r9
	@DEBUG_VALUE: I2C_EERPOM_ReadByte:timeout <- undef
	.loc	4 67 10                 @ ../Driver/i2c_eeprom.c:67:10
	mov	r0, r4
	mov	r1, r6
	bl	I2C_GetFlagStatus
	.loc	4 67 2 is_stmt 0        @ ../Driver/i2c_eeprom.c:67:2
	cbnz	r0, .LBB2_4
.Ltmp8:
@ %bb.2:                                @   in Loop: Header=BB2_1 Depth=1
	@DEBUG_VALUE: I2C_EERPOM_ReadByte:slave_address <- $r8
	@DEBUG_VALUE: I2C_EERPOM_ReadByte:data_address <- $r9
	@DEBUG_VALUE: I2C_EERPOM_ReadByte:timeout <- [DW_OP_constu 1, DW_OP_minus, DW_OP_stack_value] undef
	.loc	4 69 14 is_stmt 1       @ ../Driver/i2c_eeprom.c:69:14
	adds	r5, #1
.Ltmp9:
	.loc	4 69 6 is_stmt 0        @ ../Driver/i2c_eeprom.c:69:6
	bne	.LBB2_1
.Ltmp10:
@ %bb.3:
	@DEBUG_VALUE: I2C_EERPOM_ReadByte:slave_address <- $r8
	@DEBUG_VALUE: I2C_EERPOM_ReadByte:data_address <- $r9
	.loc	4 0 6                   @ ../Driver/i2c_eeprom.c:0:6
	mvn	r0, #6
.Ltmp11:
	.loc	4 70 15 is_stmt 1       @ ../Driver/i2c_eeprom.c:70:15
	adds	r5, r0, #6
	b	.LBB2_25
.Ltmp12:
.LBB2_4:
	@DEBUG_VALUE: I2C_EERPOM_ReadByte:slave_address <- $r8
	@DEBUG_VALUE: I2C_EERPOM_ReadByte:data_address <- $r9
	.loc	4 73 2                  @ ../Driver/i2c_eeprom.c:73:2
	mov	r0, r4
	movs	r1, #0
	bl	I2C_AcknowledgeConfig
	.loc	4 74 2                  @ ../Driver/i2c_eeprom.c:74:2
	mov	r0, r4
	mov	r1, r8
	movs	r2, #0
	bl	I2C_Send7bitAddress
	mvn	r5, #12288
.Ltmp13:
	@DEBUG_VALUE: I2C_EERPOM_ReadByte:timeout <- 12288
	.loc	4 0 2 is_stmt 0         @ ../Driver/i2c_eeprom.c:0:2
	adds	r7, r6, #1
.Ltmp14:
.LBB2_5:                                @ =>This Inner Loop Header: Depth=1
	@DEBUG_VALUE: I2C_EERPOM_ReadByte:slave_address <- $r8
	@DEBUG_VALUE: I2C_EERPOM_ReadByte:data_address <- $r9
	@DEBUG_VALUE: I2C_EERPOM_ReadByte:timeout <- undef
	.loc	4 77 10 is_stmt 1       @ ../Driver/i2c_eeprom.c:77:10
	mov	r0, r4
	mov	r1, r7
	bl	I2C_GetFlagStatus
	.loc	4 77 2 is_stmt 0        @ ../Driver/i2c_eeprom.c:77:2
	cbnz	r0, .LBB2_8
.Ltmp15:
@ %bb.6:                                @   in Loop: Header=BB2_5 Depth=1
	@DEBUG_VALUE: I2C_EERPOM_ReadByte:slave_address <- $r8
	@DEBUG_VALUE: I2C_EERPOM_ReadByte:data_address <- $r9
	@DEBUG_VALUE: I2C_EERPOM_ReadByte:timeout <- [DW_OP_constu 1, DW_OP_minus, DW_OP_stack_value] undef
	.loc	4 79 14 is_stmt 1       @ ../Driver/i2c_eeprom.c:79:14
	adds	r5, #1
.Ltmp16:
	.loc	4 79 6 is_stmt 0        @ ../Driver/i2c_eeprom.c:79:6
	bne	.LBB2_5
.Ltmp17:
@ %bb.7:
	@DEBUG_VALUE: I2C_EERPOM_ReadByte:slave_address <- $r8
	@DEBUG_VALUE: I2C_EERPOM_ReadByte:data_address <- $r9
	.loc	4 0 6                   @ ../Driver/i2c_eeprom.c:0:6
	mvn	r0, #6
.Ltmp18:
	.loc	4 80 15 is_stmt 1       @ ../Driver/i2c_eeprom.c:80:15
	adds	r5, r0, #5
	b	.LBB2_25
.Ltmp19:
.LBB2_8:
	@DEBUG_VALUE: I2C_EERPOM_ReadByte:slave_address <- $r8
	@DEBUG_VALUE: I2C_EERPOM_ReadByte:data_address <- $r9
	.loc	4 0 15 is_stmt 0        @ ../Driver/i2c_eeprom.c:0:15
	mov	r10, r6
	.loc	4 83 8 is_stmt 1        @ ../Driver/i2c_eeprom.c:83:8
	ldrh	r0, [r4, #24]
	mvn	r5, #12288
.Ltmp20:
	@DEBUG_VALUE: I2C_EERPOM_ReadByte:timeout <- 12288
	.loc	4 0 8 is_stmt 0         @ ../Driver/i2c_eeprom.c:0:8
	adds	r6, #127
.Ltmp21:
.LBB2_9:                                @ =>This Inner Loop Header: Depth=1
	@DEBUG_VALUE: I2C_EERPOM_ReadByte:slave_address <- $r8
	@DEBUG_VALUE: I2C_EERPOM_ReadByte:data_address <- $r9
	@DEBUG_VALUE: I2C_EERPOM_ReadByte:timeout <- undef
	.loc	4 86 10 is_stmt 1       @ ../Driver/i2c_eeprom.c:86:10
	mov	r0, r4
	mov	r1, r6
	bl	I2C_GetFlagStatus
	.loc	4 86 2 is_stmt 0        @ ../Driver/i2c_eeprom.c:86:2
	cbnz	r0, .LBB2_12
.Ltmp22:
@ %bb.10:                               @   in Loop: Header=BB2_9 Depth=1
	@DEBUG_VALUE: I2C_EERPOM_ReadByte:slave_address <- $r8
	@DEBUG_VALUE: I2C_EERPOM_ReadByte:data_address <- $r9
	@DEBUG_VALUE: I2C_EERPOM_ReadByte:timeout <- [DW_OP_constu 1, DW_OP_minus, DW_OP_stack_value] undef
	.loc	4 88 14 is_stmt 1       @ ../Driver/i2c_eeprom.c:88:14
	adds	r5, #1
.Ltmp23:
	.loc	4 88 6 is_stmt 0        @ ../Driver/i2c_eeprom.c:88:6
	bne	.LBB2_9
.Ltmp24:
@ %bb.11:
	@DEBUG_VALUE: I2C_EERPOM_ReadByte:slave_address <- $r8
	@DEBUG_VALUE: I2C_EERPOM_ReadByte:data_address <- $r9
	.loc	4 0 6                   @ ../Driver/i2c_eeprom.c:0:6
	mvn	r0, #6
.Ltmp25:
	.loc	4 89 15 is_stmt 1       @ ../Driver/i2c_eeprom.c:89:15
	adds	r5, r0, #4
	b	.LBB2_25
.Ltmp26:
.LBB2_12:
	@DEBUG_VALUE: I2C_EERPOM_ReadByte:slave_address <- $r8
	@DEBUG_VALUE: I2C_EERPOM_ReadByte:data_address <- $r9
	.loc	4 92 2                  @ ../Driver/i2c_eeprom.c:92:2
	mov	r0, r4
	mov	r1, r9
	bl	I2C_SendData
	mvn	r5, #12288
.Ltmp27:
	@DEBUG_VALUE: I2C_EERPOM_ReadByte:timeout <- 12288
	.loc	4 0 2 is_stmt 0         @ ../Driver/i2c_eeprom.c:0:2
	add.w	r9, r10, #3
.Ltmp28:
	mov	r0, r10
.Ltmp29:
.LBB2_13:                               @ =>This Inner Loop Header: Depth=1
	@DEBUG_VALUE: I2C_EERPOM_ReadByte:slave_address <- $r8
	@DEBUG_VALUE: I2C_EERPOM_ReadByte:timeout <- undef
	.loc	4 95 11 is_stmt 1       @ ../Driver/i2c_eeprom.c:95:11
	mov	r0, r4
	mov	r1, r6
	bl	I2C_GetFlagStatus
	.loc	4 95 50 is_stmt 0       @ ../Driver/i2c_eeprom.c:95:50
	cbz	r0, .LBB2_15
.Ltmp30:
@ %bb.14:                               @   in Loop: Header=BB2_13 Depth=1
	@DEBUG_VALUE: I2C_EERPOM_ReadByte:slave_address <- $r8
	.loc	4 95 55                 @ ../Driver/i2c_eeprom.c:95:55
	mov	r0, r4
	mov	r1, r9
	bl	I2C_GetFlagStatus
	.loc	4 95 2                  @ ../Driver/i2c_eeprom.c:95:2
	cbnz	r0, .LBB2_17
.Ltmp31:
.LBB2_15:                               @   in Loop: Header=BB2_13 Depth=1
	@DEBUG_VALUE: I2C_EERPOM_ReadByte:slave_address <- $r8
	@DEBUG_VALUE: I2C_EERPOM_ReadByte:timeout <- [DW_OP_constu 1, DW_OP_minus, DW_OP_stack_value] undef
	.loc	4 97 14 is_stmt 1       @ ../Driver/i2c_eeprom.c:97:14
	adds	r5, #1
.Ltmp32:
	.loc	4 97 6 is_stmt 0        @ ../Driver/i2c_eeprom.c:97:6
	bne	.LBB2_13
.Ltmp33:
@ %bb.16:
	@DEBUG_VALUE: I2C_EERPOM_ReadByte:slave_address <- $r8
	.loc	4 0 6                   @ ../Driver/i2c_eeprom.c:0:6
	mvn	r0, #6
.Ltmp34:
	.loc	4 98 15 is_stmt 1       @ ../Driver/i2c_eeprom.c:98:15
	adds	r5, r0, #3
	b	.LBB2_25
.Ltmp35:
.LBB2_17:
	@DEBUG_VALUE: I2C_EERPOM_ReadByte:slave_address <- $r8
	.loc	4 101 2                 @ ../Driver/i2c_eeprom.c:101:2
	mov	r0, r4
	movs	r1, #1
	bl	I2C_GenerateSTART
	mvn	r5, #12288
.Ltmp36:
	@DEBUG_VALUE: I2C_EERPOM_ReadByte:timeout <- 12288
	.loc	4 0 2 is_stmt 0         @ ../Driver/i2c_eeprom.c:0:2
	mov	r6, r10
.Ltmp37:
.LBB2_18:                               @ =>This Inner Loop Header: Depth=1
	@DEBUG_VALUE: I2C_EERPOM_ReadByte:slave_address <- $r8
	@DEBUG_VALUE: I2C_EERPOM_ReadByte:timeout <- undef
	.loc	4 104 10 is_stmt 1      @ ../Driver/i2c_eeprom.c:104:10
	mov	r0, r4
	mov	r1, r6
	bl	I2C_GetFlagStatus
	.loc	4 104 2 is_stmt 0       @ ../Driver/i2c_eeprom.c:104:2
	cbnz	r0, .LBB2_21
.Ltmp38:
@ %bb.19:                               @   in Loop: Header=BB2_18 Depth=1
	@DEBUG_VALUE: I2C_EERPOM_ReadByte:slave_address <- $r8
	@DEBUG_VALUE: I2C_EERPOM_ReadByte:timeout <- [DW_OP_constu 1, DW_OP_minus, DW_OP_stack_value] undef
	.loc	4 106 14 is_stmt 1      @ ../Driver/i2c_eeprom.c:106:14
	adds	r5, #1
.Ltmp39:
	.loc	4 106 6 is_stmt 0       @ ../Driver/i2c_eeprom.c:106:6
	bne	.LBB2_18
.Ltmp40:
@ %bb.20:
	@DEBUG_VALUE: I2C_EERPOM_ReadByte:slave_address <- $r8
	.loc	4 0 6                   @ ../Driver/i2c_eeprom.c:0:6
	mvn	r0, #6
.Ltmp41:
	.loc	4 107 15 is_stmt 1      @ ../Driver/i2c_eeprom.c:107:15
	adds	r5, r0, #2
	b	.LBB2_25
.Ltmp42:
.LBB2_21:
	@DEBUG_VALUE: I2C_EERPOM_ReadByte:slave_address <- $r8
	.loc	4 110 2                 @ ../Driver/i2c_eeprom.c:110:2
	mov	r0, r4
	mov	r1, r8
	movs	r2, #1
	bl	I2C_Send7bitAddress
	mvn	r5, #12288
.Ltmp43:
	@DEBUG_VALUE: I2C_EERPOM_ReadByte:timeout <- 12288
.LBB2_22:                               @ =>This Inner Loop Header: Depth=1
	@DEBUG_VALUE: I2C_EERPOM_ReadByte:slave_address <- $r8
	@DEBUG_VALUE: I2C_EERPOM_ReadByte:timeout <- undef
	.loc	4 113 10                @ ../Driver/i2c_eeprom.c:113:10
	mov	r0, r4
	mov	r1, r7
	bl	I2C_GetFlagStatus
	.loc	4 113 2 is_stmt 0       @ ../Driver/i2c_eeprom.c:113:2
	cbnz	r0, .LBB2_27
.Ltmp44:
@ %bb.23:                               @   in Loop: Header=BB2_22 Depth=1
	@DEBUG_VALUE: I2C_EERPOM_ReadByte:slave_address <- $r8
	@DEBUG_VALUE: I2C_EERPOM_ReadByte:timeout <- [DW_OP_constu 1, DW_OP_minus, DW_OP_stack_value] undef
	.loc	4 115 14 is_stmt 1      @ ../Driver/i2c_eeprom.c:115:14
	adds	r5, #1
.Ltmp45:
	.loc	4 115 6 is_stmt 0       @ ../Driver/i2c_eeprom.c:115:6
	bne	.LBB2_22
.Ltmp46:
@ %bb.24:
	@DEBUG_VALUE: I2C_EERPOM_ReadByte:slave_address <- $r8
	.loc	4 0 6                   @ ../Driver/i2c_eeprom.c:0:6
	mvn	r0, #6
.Ltmp47:
	.loc	4 116 15 is_stmt 1      @ ../Driver/i2c_eeprom.c:116:15
	adds	r5, r0, #1
.Ltmp48:
.LBB2_25:
	@DEBUG_VALUE: I2C_EERPOM_ReadByte:slave_address <- $r8
	.loc	4 0 0 is_stmt 0         @ ../Driver/i2c_eeprom.c:0:0
	mov	r0, r5
	bl	I2C_EEPROM_timeout
.Ltmp49:
.LBB2_26:
	@DEBUG_VALUE: I2C_EERPOM_ReadByte:slave_address <- $r8
	.loc	4 132 1 is_stmt 1       @ ../Driver/i2c_eeprom.c:132:1
	sxth	r0, r5
	pop.w	{r4, r5, r6, r7, r8, r9, r10, pc}
.Ltmp50:
.LBB2_27:
	@DEBUG_VALUE: I2C_EERPOM_ReadByte:slave_address <- $r8
	.loc	4 119 8                 @ ../Driver/i2c_eeprom.c:119:8
	ldrh	r0, [r4, #24]
	mov	r0, r6
	mvn	r6, #12288
.Ltmp51:
	@DEBUG_VALUE: I2C_EERPOM_ReadByte:timeout <- 12288
	.loc	4 0 8 is_stmt 0         @ ../Driver/i2c_eeprom.c:0:8
	add.w	r5, r0, #63
.Ltmp52:
.LBB2_28:                               @ =>This Inner Loop Header: Depth=1
	@DEBUG_VALUE: I2C_EERPOM_ReadByte:slave_address <- $r8
	@DEBUG_VALUE: I2C_EERPOM_ReadByte:timeout <- undef
	.loc	4 122 10 is_stmt 1      @ ../Driver/i2c_eeprom.c:122:10
	mov	r0, r4
	mov	r1, r5
	bl	I2C_GetFlagStatus
	.loc	4 122 2 is_stmt 0       @ ../Driver/i2c_eeprom.c:122:2
	cbnz	r0, .LBB2_31
.Ltmp53:
@ %bb.29:                               @   in Loop: Header=BB2_28 Depth=1
	@DEBUG_VALUE: I2C_EERPOM_ReadByte:slave_address <- $r8
	@DEBUG_VALUE: I2C_EERPOM_ReadByte:timeout <- [DW_OP_constu 1, DW_OP_minus, DW_OP_stack_value] undef
	.loc	4 124 14 is_stmt 1      @ ../Driver/i2c_eeprom.c:124:14
	adds	r6, #1
.Ltmp54:
	.loc	4 124 6 is_stmt 0       @ ../Driver/i2c_eeprom.c:124:6
	bne	.LBB2_28
.Ltmp55:
@ %bb.30:
	@DEBUG_VALUE: I2C_EERPOM_ReadByte:slave_address <- $r8
	.loc	4 125 15 is_stmt 1      @ ../Driver/i2c_eeprom.c:125:15
	mvn	r0, #6
	bl	I2C_EEPROM_timeout
	movw	r5, #65529
	b	.LBB2_26
.Ltmp56:
.LBB2_31:
	@DEBUG_VALUE: I2C_EERPOM_ReadByte:slave_address <- $r8
	.loc	4 128 2                 @ ../Driver/i2c_eeprom.c:128:2
	mov	r0, r4
	movs	r1, #1
	bl	I2C_GenerateSTOP
	.loc	4 129 23                @ ../Driver/i2c_eeprom.c:129:23
	mov	r0, r4
	bl	I2C_ReceiveData
	mov	r5, r0
.Ltmp57:
	@DEBUG_VALUE: I2C_EERPOM_ReadByte:ret_data <- undef
	.loc	4 130 2                 @ ../Driver/i2c_eeprom.c:130:2
	mov	r0, r4
	movs	r1, #1
	bl	I2C_AcknowledgeConfig
	b	.LBB2_26
.Ltmp58:
	.p2align	2
@ %bb.32:
	.loc	4 0 2 is_stmt 0         @ ../Driver/i2c_eeprom.c:0:2
__arm_cp.2_0:
	.long	1073764352              @ 0x40005800
.Lcpi_end5:
	.size	__arm_cp.2_0, .Lcpi_end5-__arm_cp.2_0
__arm_cp.2_1:
	.long	268435457               @ 0x10000001
.Lcpi_end6:
	.size	__arm_cp.2_1, .Lcpi_end6-__arm_cp.2_1
.Lfunc_end2:
	.size	I2C_EERPOM_ReadByte, .Lfunc_end2-I2C_EERPOM_ReadByte
	.cfi_endproc
	.cantunwind
	.fnend
                                        @ -- End function
	.section	.text.I2C_EEPROM_timeout,"ax",%progbits
	.hidden	I2C_EEPROM_timeout      @ -- Begin function I2C_EEPROM_timeout
	.globl	I2C_EEPROM_timeout
	.p2align	2
	.type	I2C_EEPROM_timeout,%function
	.code	16                      @ @I2C_EEPROM_timeout
	.thumb_func
I2C_EEPROM_timeout:
.Lfunc_begin3:
	.loc	4 767 0 is_stmt 1       @ ../Driver/i2c_eeprom.c:767:0
	.fnstart
	.cfi_startproc
@ %bb.0:
	.save	{r4, r5, r7, lr}
	push	{r4, r5, r7, lr}
	.cfi_def_cfa_offset 16
	.cfi_offset lr, -4
	.cfi_offset r7, -8
	.cfi_offset r5, -12
	.cfi_offset r4, -16
	@DEBUG_VALUE: I2C_EEPROM_timeout:time <- $r0
.Ltmp59:
	@DEBUG_VALUE: I2C_EEPROM_timeout:ret_time <- $r0
	ldr	r4, __arm_cp.3_0
	mov	r5, r0
.Ltmp60:
	@DEBUG_VALUE: I2C_EEPROM_timeout:ret_time <- $r5
	@DEBUG_VALUE: I2C_EEPROM_timeout:time <- $r5
	.loc	4 771 3 prologue_end    @ ../Driver/i2c_eeprom.c:771:3
	movs	r1, #1
	mov	r0, r4
	bl	I2C_GenerateSTOP
	.loc	4 772 3                 @ ../Driver/i2c_eeprom.c:772:3
	mov	r0, r4
	movs	r1, #1
	bl	I2C_SoftwareResetCmd
	.loc	4 773 3                 @ ../Driver/i2c_eeprom.c:773:3
	mov	r0, r4
	movs	r1, #0
	bl	I2C_SoftwareResetCmd
	.loc	4 776 3                 @ ../Driver/i2c_eeprom.c:776:3
	mov	r0, r4
	bl	I2C_DeInit
	.loc	4 778 3                 @ ../Driver/i2c_eeprom.c:778:3
	bl	I2C2_Init
	.loc	4 780 3                 @ ../Driver/i2c_eeprom.c:780:3
	mov	r0, r5
.Ltmp61:
	@DEBUG_VALUE: I2C_EEPROM_timeout:ret_time <- $r0
	@DEBUG_VALUE: I2C_EEPROM_timeout:time <- $r0
	pop	{r4, r5, r7, pc}
.Ltmp62:
	.p2align	2
@ %bb.1:
	.loc	4 0 3 is_stmt 0         @ ../Driver/i2c_eeprom.c:0:3
__arm_cp.3_0:
	.long	1073764352              @ 0x40005800
.Lcpi_end7:
	.size	__arm_cp.3_0, .Lcpi_end7-__arm_cp.3_0
.Lfunc_end3:
	.size	I2C_EEPROM_timeout, .Lfunc_end3-I2C_EEPROM_timeout
	.cfi_endproc
	.cantunwind
	.fnend
                                        @ -- End function
	.section	.text.I2C_EERPOM_WriteByte,"ax",%progbits
	.hidden	I2C_EERPOM_WriteByte    @ -- Begin function I2C_EERPOM_WriteByte
	.globl	I2C_EERPOM_WriteByte
	.p2align	2
	.type	I2C_EERPOM_WriteByte,%function
	.code	16                      @ @I2C_EERPOM_WriteByte
	.thumb_func
I2C_EERPOM_WriteByte:
.Lfunc_begin4:
	.loc	4 136 0 is_stmt 1       @ ../Driver/i2c_eeprom.c:136:0
	.fnstart
	.cfi_startproc
@ %bb.0:
	.save	{r4, r5, r6, r7, r8, r9, lr}
	.pad	#4
	push.w	{r3, r4, r5, r6, r7, r8, r9, lr}
	.cfi_def_cfa_offset 32
	.cfi_offset lr, -4
	.cfi_offset r9, -8
	.cfi_offset r8, -12
	.cfi_offset r7, -16
	.cfi_offset r6, -20
	.cfi_offset r5, -24
	.cfi_offset r4, -28
	@DEBUG_VALUE: I2C_EERPOM_WriteByte:slave_address <- $r0
	@DEBUG_VALUE: I2C_EERPOM_WriteByte:data_address <- $r1
	@DEBUG_VALUE: I2C_EERPOM_WriteByte:data <- $r2
	ldr	r4, __arm_cp.4_0
	mov	r9, r1
	mov	r5, r0
.Ltmp63:
	@DEBUG_VALUE: I2C_EERPOM_WriteByte:timeout <- 12288
	@DEBUG_VALUE: I2C_EERPOM_WriteByte:ret_data <- 0
	@DEBUG_VALUE: I2C_EERPOM_WriteByte:data <- $r8
	@DEBUG_VALUE: I2C_EERPOM_WriteByte:data_address <- $r9
	@DEBUG_VALUE: I2C_EERPOM_WriteByte:slave_address <- $r5
	.loc	4 140 2 prologue_end    @ ../Driver/i2c_eeprom.c:140:2
	movs	r1, #1
	mov	r8, r2
.Ltmp64:
	mov	r0, r4
	bl	I2C_GenerateSTART
	ldr	r6, __arm_cp.4_1
	mvn	r7, #12288
.Ltmp65:
.LBB4_1:                                @ =>This Inner Loop Header: Depth=1
	@DEBUG_VALUE: I2C_EERPOM_WriteByte:slave_address <- $r5
	@DEBUG_VALUE: I2C_EERPOM_WriteByte:data_address <- $r9
	@DEBUG_VALUE: I2C_EERPOM_WriteByte:timeout <- undef
	.loc	4 143 10                @ ../Driver/i2c_eeprom.c:143:10
	mov	r0, r4
	mov	r1, r6
	bl	I2C_GetFlagStatus
	.loc	4 143 2 is_stmt 0       @ ../Driver/i2c_eeprom.c:143:2
	cbnz	r0, .LBB4_4
.Ltmp66:
@ %bb.2:                                @   in Loop: Header=BB4_1 Depth=1
	@DEBUG_VALUE: I2C_EERPOM_WriteByte:slave_address <- $r5
	@DEBUG_VALUE: I2C_EERPOM_WriteByte:data_address <- $r9
	@DEBUG_VALUE: I2C_EERPOM_WriteByte:timeout <- [DW_OP_constu 1, DW_OP_minus, DW_OP_stack_value] undef
	.loc	4 145 14 is_stmt 1      @ ../Driver/i2c_eeprom.c:145:14
	adds	r7, #1
.Ltmp67:
	.loc	4 145 6 is_stmt 0       @ ../Driver/i2c_eeprom.c:145:6
	bne	.LBB4_1
.Ltmp68:
@ %bb.3:
	@DEBUG_VALUE: I2C_EERPOM_WriteByte:slave_address <- $r5
	@DEBUG_VALUE: I2C_EERPOM_WriteByte:data_address <- $r9
	.loc	4 0 6                   @ ../Driver/i2c_eeprom.c:0:6
	mvn	r0, #4
.Ltmp69:
	.loc	4 146 15 is_stmt 1      @ ../Driver/i2c_eeprom.c:146:15
	adds	r0, #4
	b	.LBB4_16
.Ltmp70:
.LBB4_4:
	@DEBUG_VALUE: I2C_EERPOM_WriteByte:slave_address <- $r5
	@DEBUG_VALUE: I2C_EERPOM_WriteByte:data_address <- $r9
	.loc	4 149 2                 @ ../Driver/i2c_eeprom.c:149:2
	mov	r0, r4
	mov	r1, r5
	movs	r2, #0
	bl	I2C_Send7bitAddress
	mvn	r7, #12288
.Ltmp71:
	@DEBUG_VALUE: I2C_EERPOM_WriteByte:timeout <- 12288
	.loc	4 0 2 is_stmt 0         @ ../Driver/i2c_eeprom.c:0:2
	adds	r5, r6, #1
.Ltmp72:
.LBB4_5:                                @ =>This Inner Loop Header: Depth=1
	@DEBUG_VALUE: I2C_EERPOM_WriteByte:data_address <- $r9
	@DEBUG_VALUE: I2C_EERPOM_WriteByte:timeout <- undef
	.loc	4 152 10 is_stmt 1      @ ../Driver/i2c_eeprom.c:152:10
	mov	r0, r4
	mov	r1, r5
	bl	I2C_GetFlagStatus
	.loc	4 152 2 is_stmt 0       @ ../Driver/i2c_eeprom.c:152:2
	cbnz	r0, .LBB4_8
.Ltmp73:
@ %bb.6:                                @   in Loop: Header=BB4_5 Depth=1
	@DEBUG_VALUE: I2C_EERPOM_WriteByte:data_address <- $r9
	@DEBUG_VALUE: I2C_EERPOM_WriteByte:timeout <- [DW_OP_constu 1, DW_OP_minus, DW_OP_stack_value] undef
	.loc	4 154 14 is_stmt 1      @ ../Driver/i2c_eeprom.c:154:14
	adds	r7, #1
.Ltmp74:
	.loc	4 154 6 is_stmt 0       @ ../Driver/i2c_eeprom.c:154:6
	bne	.LBB4_5
.Ltmp75:
@ %bb.7:
	@DEBUG_VALUE: I2C_EERPOM_WriteByte:data_address <- $r9
	.loc	4 0 6                   @ ../Driver/i2c_eeprom.c:0:6
	mvn	r0, #4
.Ltmp76:
	.loc	4 155 15 is_stmt 1      @ ../Driver/i2c_eeprom.c:155:15
	adds	r0, #3
	b	.LBB4_16
.Ltmp77:
.LBB4_8:
	@DEBUG_VALUE: I2C_EERPOM_WriteByte:data_address <- $r9
	.loc	4 158 8                 @ ../Driver/i2c_eeprom.c:158:8
	ldrh	r0, [r4, #24]
	mvn	r7, #12288
.Ltmp78:
	@DEBUG_VALUE: I2C_EERPOM_WriteByte:timeout <- 12288
	.loc	4 0 8 is_stmt 0         @ ../Driver/i2c_eeprom.c:0:8
	add.w	r5, r6, #127
.Ltmp79:
.LBB4_9:                                @ =>This Inner Loop Header: Depth=1
	@DEBUG_VALUE: I2C_EERPOM_WriteByte:data_address <- $r9
	@DEBUG_VALUE: I2C_EERPOM_WriteByte:timeout <- undef
	.loc	4 161 10 is_stmt 1      @ ../Driver/i2c_eeprom.c:161:10
	mov	r0, r4
	mov	r1, r5
	bl	I2C_GetFlagStatus
	.loc	4 161 2 is_stmt 0       @ ../Driver/i2c_eeprom.c:161:2
	cbnz	r0, .LBB4_12
.Ltmp80:
@ %bb.10:                               @   in Loop: Header=BB4_9 Depth=1
	@DEBUG_VALUE: I2C_EERPOM_WriteByte:data_address <- $r9
	@DEBUG_VALUE: I2C_EERPOM_WriteByte:timeout <- [DW_OP_constu 1, DW_OP_minus, DW_OP_stack_value] undef
	.loc	4 163 14 is_stmt 1      @ ../Driver/i2c_eeprom.c:163:14
	adds	r7, #1
.Ltmp81:
	.loc	4 163 6 is_stmt 0       @ ../Driver/i2c_eeprom.c:163:6
	bne	.LBB4_9
.Ltmp82:
@ %bb.11:
	@DEBUG_VALUE: I2C_EERPOM_WriteByte:data_address <- $r9
	.loc	4 0 6                   @ ../Driver/i2c_eeprom.c:0:6
	mvn	r0, #4
.Ltmp83:
	.loc	4 164 15 is_stmt 1      @ ../Driver/i2c_eeprom.c:164:15
	adds	r0, #2
	b	.LBB4_16
.Ltmp84:
.LBB4_12:
	@DEBUG_VALUE: I2C_EERPOM_WriteByte:data_address <- $r9
	.loc	4 167 2                 @ ../Driver/i2c_eeprom.c:167:2
	mov	r0, r4
	mov	r1, r9
	bl	I2C_SendData
	mvn	r7, #12288
.Ltmp85:
	@DEBUG_VALUE: I2C_EERPOM_WriteByte:timeout <- 12288
.LBB4_13:                               @ =>This Inner Loop Header: Depth=1
	@DEBUG_VALUE: I2C_EERPOM_WriteByte:data_address <- $r9
	@DEBUG_VALUE: I2C_EERPOM_WriteByte:timeout <- undef
	.loc	4 170 10                @ ../Driver/i2c_eeprom.c:170:10
	mov	r0, r4
	mov	r1, r5
	bl	I2C_GetFlagStatus
	.loc	4 170 2 is_stmt 0       @ ../Driver/i2c_eeprom.c:170:2
	cbnz	r0, .LBB4_18
.Ltmp86:
@ %bb.14:                               @   in Loop: Header=BB4_13 Depth=1
	@DEBUG_VALUE: I2C_EERPOM_WriteByte:data_address <- $r9
	@DEBUG_VALUE: I2C_EERPOM_WriteByte:timeout <- [DW_OP_constu 1, DW_OP_minus, DW_OP_stack_value] undef
	.loc	4 172 14 is_stmt 1      @ ../Driver/i2c_eeprom.c:172:14
	adds	r7, #1
.Ltmp87:
	.loc	4 172 6 is_stmt 0       @ ../Driver/i2c_eeprom.c:172:6
	bne	.LBB4_13
.Ltmp88:
@ %bb.15:
	@DEBUG_VALUE: I2C_EERPOM_WriteByte:data_address <- $r9
	.loc	4 0 6                   @ ../Driver/i2c_eeprom.c:0:6
	mvn	r0, #4
.Ltmp89:
	.loc	4 173 15 is_stmt 1      @ ../Driver/i2c_eeprom.c:173:15
	adds	r0, #1
.Ltmp90:
.LBB4_16:
	@DEBUG_VALUE: I2C_EERPOM_WriteByte:data_address <- $r9
	.loc	4 0 0 is_stmt 0         @ ../Driver/i2c_eeprom.c:0:0
	bl	I2C_EEPROM_timeout
.Ltmp91:
.LBB4_17:
	@DEBUG_VALUE: I2C_EERPOM_WriteByte:data_address <- $r9
	.loc	4 188 1 is_stmt 1       @ ../Driver/i2c_eeprom.c:188:1
	sxth	r0, r0
	add	sp, #4
	pop.w	{r4, r5, r6, r7, r8, r9, pc}
.Ltmp92:
.LBB4_18:
	@DEBUG_VALUE: I2C_EERPOM_WriteByte:data_address <- $r9
	.loc	4 176 2                 @ ../Driver/i2c_eeprom.c:176:2
	mov	r0, r4
	mov	r1, r8
	bl	I2C_SendData
	mvn	r7, #12288
.Ltmp93:
	@DEBUG_VALUE: I2C_EERPOM_WriteByte:timeout <- 12288
	.loc	4 0 2 is_stmt 0         @ ../Driver/i2c_eeprom.c:0:2
	adds	r6, #3
.Ltmp94:
.LBB4_19:                               @ =>This Inner Loop Header: Depth=1
	@DEBUG_VALUE: I2C_EERPOM_WriteByte:data_address <- $r9
	@DEBUG_VALUE: I2C_EERPOM_WriteByte:timeout <- undef
	.loc	4 179 11 is_stmt 1      @ ../Driver/i2c_eeprom.c:179:11
	mov	r0, r4
	mov	r1, r5
	bl	I2C_GetFlagStatus
	.loc	4 179 50 is_stmt 0      @ ../Driver/i2c_eeprom.c:179:50
	cbz	r0, .LBB4_21
.Ltmp95:
@ %bb.20:                               @   in Loop: Header=BB4_19 Depth=1
	@DEBUG_VALUE: I2C_EERPOM_WriteByte:data_address <- $r9
	.loc	4 179 55                @ ../Driver/i2c_eeprom.c:179:55
	mov	r0, r4
	mov	r1, r6
	bl	I2C_GetFlagStatus
	.loc	4 179 2                 @ ../Driver/i2c_eeprom.c:179:2
	cbnz	r0, .LBB4_23
.Ltmp96:
.LBB4_21:                               @   in Loop: Header=BB4_19 Depth=1
	@DEBUG_VALUE: I2C_EERPOM_WriteByte:data_address <- $r9
	@DEBUG_VALUE: I2C_EERPOM_WriteByte:timeout <- [DW_OP_constu 1, DW_OP_minus, DW_OP_stack_value] undef
	.loc	4 181 14 is_stmt 1      @ ../Driver/i2c_eeprom.c:181:14
	adds	r7, #1
.Ltmp97:
	.loc	4 181 6 is_stmt 0       @ ../Driver/i2c_eeprom.c:181:6
	bne	.LBB4_19
.Ltmp98:
@ %bb.22:
	@DEBUG_VALUE: I2C_EERPOM_WriteByte:data_address <- $r9
	.loc	4 182 15 is_stmt 1      @ ../Driver/i2c_eeprom.c:182:15
	mvn	r0, #4
	bl	I2C_EEPROM_timeout
	movw	r0, #65531
	b	.LBB4_17
.Ltmp99:
.LBB4_23:
	@DEBUG_VALUE: I2C_EERPOM_WriteByte:data_address <- $r9
	.loc	4 185 2                 @ ../Driver/i2c_eeprom.c:185:2
	mov	r0, r4
	movs	r1, #1
	bl	I2C_GenerateSTOP
	movs	r0, #0
	@DEBUG_VALUE: I2C_EERPOM_WriteByte:ret_data <- 0
	b	.LBB4_17
.Ltmp100:
	.p2align	2
@ %bb.24:
	.loc	4 0 2 is_stmt 0         @ ../Driver/i2c_eeprom.c:0:2
__arm_cp.4_0:
	.long	1073764352              @ 0x40005800
.Lcpi_end8:
	.size	__arm_cp.4_0, .Lcpi_end8-__arm_cp.4_0
__arm_cp.4_1:
	.long	268435457               @ 0x10000001
.Lcpi_end9:
	.size	__arm_cp.4_1, .Lcpi_end9-__arm_cp.4_1
.Lfunc_end4:
	.size	I2C_EERPOM_WriteByte, .Lfunc_end4-I2C_EERPOM_WriteByte
	.cfi_endproc
	.cantunwind
	.fnend
                                        @ -- End function
	.section	.text.I2C_EERPOM_ReadBytes,"ax",%progbits
	.hidden	I2C_EERPOM_ReadBytes    @ -- Begin function I2C_EERPOM_ReadBytes
	.globl	I2C_EERPOM_ReadBytes
	.p2align	2
	.type	I2C_EERPOM_ReadBytes,%function
	.code	16                      @ @I2C_EERPOM_ReadBytes
	.thumb_func
I2C_EERPOM_ReadBytes:
.Lfunc_begin5:
	.loc	4 192 0 is_stmt 1       @ ../Driver/i2c_eeprom.c:192:0
	.fnstart
	.cfi_startproc
@ %bb.0:
	.save	{r4, r5, r6, r7, r8, r9, r10, r11, lr}
	.pad	#4
	push.w	{r3, r4, r5, r6, r7, r8, r9, r10, r11, lr}
	.cfi_def_cfa_offset 40
	.cfi_offset lr, -4
	.cfi_offset r11, -8
	.cfi_offset r10, -12
	.cfi_offset r9, -16
	.cfi_offset r8, -20
	.cfi_offset r7, -24
	.cfi_offset r6, -28
	.cfi_offset r5, -32
	.cfi_offset r4, -36
	@DEBUG_VALUE: I2C_EERPOM_ReadBytes:slave_address <- $r0
	@DEBUG_VALUE: I2C_EERPOM_ReadBytes:data_address <- $r1
	@DEBUG_VALUE: I2C_EERPOM_ReadBytes:cnt <- $r2
	movw	r11, #65528
.Ltmp101:
	@DEBUG_VALUE: I2C_EERPOM_ReadBytes:timeout <- 12288
	@DEBUG_VALUE: I2C_EERPOM_ReadBytes:ret_data <- 0
	.loc	4 197 5 prologue_end    @ ../Driver/i2c_eeprom.c:197:5
	cmp	r2, #0
	beq.w	.LBB5_37
.Ltmp102:
@ %bb.1:
	@DEBUG_VALUE: I2C_EERPOM_ReadBytes:cnt <- $r2
	@DEBUG_VALUE: I2C_EERPOM_ReadBytes:data_address <- $r1
	@DEBUG_VALUE: I2C_EERPOM_ReadBytes:slave_address <- $r0
	.loc	4 0 5 is_stmt 0         @ ../Driver/i2c_eeprom.c:0:5
	ldr	r5, __arm_cp.5_0
	mov	r9, r1
.Ltmp103:
	@DEBUG_VALUE: I2C_EERPOM_ReadBytes:data_address <- $r9
	@DEBUG_VALUE: I2C_EERPOM_ReadBytes:data_address <- $r9
	mov	r8, r0
.Ltmp104:
	@DEBUG_VALUE: I2C_EERPOM_ReadBytes:slave_address <- $r8
	@DEBUG_VALUE: I2C_EERPOM_ReadBytes:slave_address <- $r8
	@DEBUG_VALUE: I2C_EERPOM_ReadBytes:slave_address <- $r8
	@DEBUG_VALUE: I2C_EERPOM_ReadBytes:data_address <- $r9
	.loc	4 198 2 is_stmt 1       @ ../Driver/i2c_eeprom.c:198:2
	movs	r1, #1
	mov	r10, r2
.Ltmp105:
	@DEBUG_VALUE: I2C_EERPOM_ReadBytes:cnt <- $r10
	@DEBUG_VALUE: I2C_EERPOM_ReadBytes:cnt <- $r10
	mov	r0, r5
	bl	I2C_GenerateSTART
	ldr	r6, __arm_cp.5_1
	@DEBUG_VALUE: I2C_EERPOM_ReadBytes:timeout <- 12288
	mvn	r4, #12288
.Ltmp106:
.LBB5_2:                                @ =>This Inner Loop Header: Depth=1
	@DEBUG_VALUE: I2C_EERPOM_ReadBytes:cnt <- $r10
	@DEBUG_VALUE: I2C_EERPOM_ReadBytes:slave_address <- $r8
	@DEBUG_VALUE: I2C_EERPOM_ReadBytes:data_address <- $r9
	@DEBUG_VALUE: I2C_EERPOM_ReadBytes:timeout <- undef
	.loc	4 201 10                @ ../Driver/i2c_eeprom.c:201:10
	mov	r0, r5
	mov	r1, r6
	bl	I2C_GetFlagStatus
	.loc	4 201 2 is_stmt 0       @ ../Driver/i2c_eeprom.c:201:2
	cbnz	r0, .LBB5_5
.Ltmp107:
@ %bb.3:                                @   in Loop: Header=BB5_2 Depth=1
	@DEBUG_VALUE: I2C_EERPOM_ReadBytes:cnt <- $r10
	@DEBUG_VALUE: I2C_EERPOM_ReadBytes:slave_address <- $r8
	@DEBUG_VALUE: I2C_EERPOM_ReadBytes:data_address <- $r9
	@DEBUG_VALUE: I2C_EERPOM_ReadBytes:timeout <- [DW_OP_constu 1, DW_OP_minus, DW_OP_stack_value] undef
	.loc	4 203 14 is_stmt 1      @ ../Driver/i2c_eeprom.c:203:14
	adds	r4, #1
.Ltmp108:
	.loc	4 203 6 is_stmt 0       @ ../Driver/i2c_eeprom.c:203:6
	bne	.LBB5_2
.Ltmp109:
@ %bb.4:
	@DEBUG_VALUE: I2C_EERPOM_ReadBytes:cnt <- $r10
	@DEBUG_VALUE: I2C_EERPOM_ReadBytes:slave_address <- $r8
	@DEBUG_VALUE: I2C_EERPOM_ReadBytes:data_address <- $r9
	.loc	4 204 15 is_stmt 1      @ ../Driver/i2c_eeprom.c:204:15
	add.w	r11, r11, #7
	b	.LBB5_36
.Ltmp110:
.LBB5_5:
	@DEBUG_VALUE: I2C_EERPOM_ReadBytes:cnt <- $r10
	@DEBUG_VALUE: I2C_EERPOM_ReadBytes:slave_address <- $r8
	@DEBUG_VALUE: I2C_EERPOM_ReadBytes:data_address <- $r9
	.loc	4 213 3                 @ ../Driver/i2c_eeprom.c:213:3
	mov	r0, r5
.Ltmp111:
	.loc	4 207 5                 @ ../Driver/i2c_eeprom.c:207:5
	cmp.w	r10, #1
.Ltmp112:
	.loc	4 213 3                 @ ../Driver/i2c_eeprom.c:213:3
	ite	ne
	movne	r1, #1
.Ltmp113:
	.loc	4 209 3                 @ ../Driver/i2c_eeprom.c:209:3
	moveq	r1, #0
.Ltmp114:
	.loc	4 0 0 is_stmt 0         @ ../Driver/i2c_eeprom.c:0:0
	bl	I2C_AcknowledgeConfig
.Ltmp115:
	.loc	4 216 2 is_stmt 1       @ ../Driver/i2c_eeprom.c:216:2
	mov	r0, r5
	mov	r1, r8
	movs	r2, #0
	bl	I2C_Send7bitAddress
	mvn	r4, #12288
.Ltmp116:
	@DEBUG_VALUE: I2C_EERPOM_ReadBytes:timeout <- 12288
	.loc	4 0 2 is_stmt 0         @ ../Driver/i2c_eeprom.c:0:2
	adds	r7, r6, #1
.Ltmp117:
.LBB5_6:                                @ =>This Inner Loop Header: Depth=1
	@DEBUG_VALUE: I2C_EERPOM_ReadBytes:cnt <- $r10
	@DEBUG_VALUE: I2C_EERPOM_ReadBytes:slave_address <- $r8
	@DEBUG_VALUE: I2C_EERPOM_ReadBytes:data_address <- $r9
	@DEBUG_VALUE: I2C_EERPOM_ReadBytes:timeout <- undef
	.loc	4 219 10 is_stmt 1      @ ../Driver/i2c_eeprom.c:219:10
	mov	r0, r5
	mov	r1, r7
	bl	I2C_GetFlagStatus
	.loc	4 219 2 is_stmt 0       @ ../Driver/i2c_eeprom.c:219:2
	cbnz	r0, .LBB5_9
.Ltmp118:
@ %bb.7:                                @   in Loop: Header=BB5_6 Depth=1
	@DEBUG_VALUE: I2C_EERPOM_ReadBytes:cnt <- $r10
	@DEBUG_VALUE: I2C_EERPOM_ReadBytes:slave_address <- $r8
	@DEBUG_VALUE: I2C_EERPOM_ReadBytes:data_address <- $r9
	@DEBUG_VALUE: I2C_EERPOM_ReadBytes:timeout <- [DW_OP_constu 1, DW_OP_minus, DW_OP_stack_value] undef
	.loc	4 221 14 is_stmt 1      @ ../Driver/i2c_eeprom.c:221:14
	adds	r4, #1
.Ltmp119:
	.loc	4 221 6 is_stmt 0       @ ../Driver/i2c_eeprom.c:221:6
	bne	.LBB5_6
.Ltmp120:
@ %bb.8:
	@DEBUG_VALUE: I2C_EERPOM_ReadBytes:cnt <- $r10
	@DEBUG_VALUE: I2C_EERPOM_ReadBytes:slave_address <- $r8
	@DEBUG_VALUE: I2C_EERPOM_ReadBytes:data_address <- $r9
	.loc	4 222 15 is_stmt 1      @ ../Driver/i2c_eeprom.c:222:15
	add.w	r11, r11, #6
	b	.LBB5_36
.Ltmp121:
.LBB5_9:
	@DEBUG_VALUE: I2C_EERPOM_ReadBytes:cnt <- $r10
	@DEBUG_VALUE: I2C_EERPOM_ReadBytes:slave_address <- $r8
	@DEBUG_VALUE: I2C_EERPOM_ReadBytes:data_address <- $r9
	.loc	4 225 8                 @ ../Driver/i2c_eeprom.c:225:8
	ldrh	r0, [r5, #24]
	mov	r0, r6
	mvn	r6, #12288
.Ltmp122:
	@DEBUG_VALUE: I2C_EERPOM_ReadBytes:timeout <- 12288
	.loc	4 0 8 is_stmt 0         @ ../Driver/i2c_eeprom.c:0:8
	add.w	r4, r0, #127
.Ltmp123:
.LBB5_10:                               @ =>This Inner Loop Header: Depth=1
	@DEBUG_VALUE: I2C_EERPOM_ReadBytes:cnt <- $r10
	@DEBUG_VALUE: I2C_EERPOM_ReadBytes:slave_address <- $r8
	@DEBUG_VALUE: I2C_EERPOM_ReadBytes:data_address <- $r9
	@DEBUG_VALUE: I2C_EERPOM_ReadBytes:timeout <- undef
	.loc	4 228 10 is_stmt 1      @ ../Driver/i2c_eeprom.c:228:10
	mov	r0, r5
	mov	r1, r4
	bl	I2C_GetFlagStatus
	.loc	4 228 2 is_stmt 0       @ ../Driver/i2c_eeprom.c:228:2
	cbnz	r0, .LBB5_13
.Ltmp124:
@ %bb.11:                               @   in Loop: Header=BB5_10 Depth=1
	@DEBUG_VALUE: I2C_EERPOM_ReadBytes:cnt <- $r10
	@DEBUG_VALUE: I2C_EERPOM_ReadBytes:slave_address <- $r8
	@DEBUG_VALUE: I2C_EERPOM_ReadBytes:data_address <- $r9
	@DEBUG_VALUE: I2C_EERPOM_ReadBytes:timeout <- [DW_OP_constu 1, DW_OP_minus, DW_OP_stack_value] undef
	.loc	4 230 14 is_stmt 1      @ ../Driver/i2c_eeprom.c:230:14
	adds	r6, #1
.Ltmp125:
	.loc	4 230 6 is_stmt 0       @ ../Driver/i2c_eeprom.c:230:6
	bne	.LBB5_10
.Ltmp126:
@ %bb.12:
	@DEBUG_VALUE: I2C_EERPOM_ReadBytes:cnt <- $r10
	@DEBUG_VALUE: I2C_EERPOM_ReadBytes:slave_address <- $r8
	@DEBUG_VALUE: I2C_EERPOM_ReadBytes:data_address <- $r9
	.loc	4 231 15 is_stmt 1      @ ../Driver/i2c_eeprom.c:231:15
	add.w	r11, r11, #5
	b	.LBB5_36
.Ltmp127:
.LBB5_13:
	@DEBUG_VALUE: I2C_EERPOM_ReadBytes:cnt <- $r10
	@DEBUG_VALUE: I2C_EERPOM_ReadBytes:slave_address <- $r8
	@DEBUG_VALUE: I2C_EERPOM_ReadBytes:data_address <- $r9
	.loc	4 234 2                 @ ../Driver/i2c_eeprom.c:234:2
	mov	r0, r5
	mov	r1, r9
	str.w	r8, [sp]                @ 4-byte Spill
.Ltmp128:
	@DEBUG_VALUE: I2C_EERPOM_ReadBytes:slave_address <- [$sp+0]
	bl	I2C_SendData
	ldr	r6, __arm_cp.5_1
	mvn	r8, #12288
.Ltmp129:
	@DEBUG_VALUE: I2C_EERPOM_ReadBytes:timeout <- 12288
	.loc	4 0 2 is_stmt 0         @ ../Driver/i2c_eeprom.c:0:2
	add.w	r9, r6, #3
.Ltmp130:
.LBB5_14:                               @ =>This Inner Loop Header: Depth=1
	@DEBUG_VALUE: I2C_EERPOM_ReadBytes:slave_address <- [$sp+0]
	@DEBUG_VALUE: I2C_EERPOM_ReadBytes:cnt <- $r10
	@DEBUG_VALUE: I2C_EERPOM_ReadBytes:timeout <- undef
	.loc	4 237 11 is_stmt 1      @ ../Driver/i2c_eeprom.c:237:11
	mov	r0, r5
	mov	r1, r4
	bl	I2C_GetFlagStatus
	.loc	4 237 50 is_stmt 0      @ ../Driver/i2c_eeprom.c:237:50
	cbz	r0, .LBB5_16
.Ltmp131:
@ %bb.15:                               @   in Loop: Header=BB5_14 Depth=1
	@DEBUG_VALUE: I2C_EERPOM_ReadBytes:slave_address <- [$sp+0]
	@DEBUG_VALUE: I2C_EERPOM_ReadBytes:cnt <- $r10
	.loc	4 237 55                @ ../Driver/i2c_eeprom.c:237:55
	mov	r0, r5
	mov	r1, r9
	bl	I2C_GetFlagStatus
	.loc	4 237 2                 @ ../Driver/i2c_eeprom.c:237:2
	cbnz	r0, .LBB5_18
.Ltmp132:
.LBB5_16:                               @   in Loop: Header=BB5_14 Depth=1
	@DEBUG_VALUE: I2C_EERPOM_ReadBytes:slave_address <- [$sp+0]
	@DEBUG_VALUE: I2C_EERPOM_ReadBytes:cnt <- $r10
	@DEBUG_VALUE: I2C_EERPOM_ReadBytes:timeout <- [DW_OP_constu 1, DW_OP_minus, DW_OP_stack_value] undef
	.loc	4 239 14 is_stmt 1      @ ../Driver/i2c_eeprom.c:239:14
	adds.w	r8, r8, #1
.Ltmp133:
	.loc	4 239 6 is_stmt 0       @ ../Driver/i2c_eeprom.c:239:6
	bne	.LBB5_14
.Ltmp134:
@ %bb.17:
	@DEBUG_VALUE: I2C_EERPOM_ReadBytes:slave_address <- [$sp+0]
	@DEBUG_VALUE: I2C_EERPOM_ReadBytes:cnt <- $r10
	.loc	4 240 15 is_stmt 1      @ ../Driver/i2c_eeprom.c:240:15
	add.w	r11, r11, #4
	b	.LBB5_36
.Ltmp135:
.LBB5_18:
	@DEBUG_VALUE: I2C_EERPOM_ReadBytes:slave_address <- [$sp+0]
	@DEBUG_VALUE: I2C_EERPOM_ReadBytes:cnt <- $r10
	.loc	4 243 2                 @ ../Driver/i2c_eeprom.c:243:2
	mov	r0, r5
	movs	r1, #1
	bl	I2C_GenerateSTART
	ldr.w	r8, [sp]                @ 4-byte Reload
	mvn	r4, #12288
.Ltmp136:
	@DEBUG_VALUE: I2C_EERPOM_ReadBytes:timeout <- 12288
.LBB5_19:                               @ =>This Inner Loop Header: Depth=1
	@DEBUG_VALUE: I2C_EERPOM_ReadBytes:slave_address <- [$sp+0]
	@DEBUG_VALUE: I2C_EERPOM_ReadBytes:cnt <- $r10
	@DEBUG_VALUE: I2C_EERPOM_ReadBytes:timeout <- undef
	.loc	4 246 10                @ ../Driver/i2c_eeprom.c:246:10
	mov	r0, r5
	mov	r1, r6
	bl	I2C_GetFlagStatus
	.loc	4 246 2 is_stmt 0       @ ../Driver/i2c_eeprom.c:246:2
	cbnz	r0, .LBB5_22
.Ltmp137:
@ %bb.20:                               @   in Loop: Header=BB5_19 Depth=1
	@DEBUG_VALUE: I2C_EERPOM_ReadBytes:slave_address <- [$sp+0]
	@DEBUG_VALUE: I2C_EERPOM_ReadBytes:cnt <- $r10
	@DEBUG_VALUE: I2C_EERPOM_ReadBytes:timeout <- [DW_OP_constu 1, DW_OP_minus, DW_OP_stack_value] undef
	.loc	4 248 14 is_stmt 1      @ ../Driver/i2c_eeprom.c:248:14
	adds	r4, #1
.Ltmp138:
	.loc	4 248 6 is_stmt 0       @ ../Driver/i2c_eeprom.c:248:6
	bne	.LBB5_19
.Ltmp139:
@ %bb.21:
	@DEBUG_VALUE: I2C_EERPOM_ReadBytes:slave_address <- [$sp+0]
	@DEBUG_VALUE: I2C_EERPOM_ReadBytes:cnt <- $r10
	.loc	4 249 15 is_stmt 1      @ ../Driver/i2c_eeprom.c:249:15
	add.w	r11, r11, #3
	b	.LBB5_36
.Ltmp140:
.LBB5_22:
	@DEBUG_VALUE: I2C_EERPOM_ReadBytes:slave_address <- [$sp+0]
	@DEBUG_VALUE: I2C_EERPOM_ReadBytes:cnt <- $r10
	.loc	4 252 2                 @ ../Driver/i2c_eeprom.c:252:2
	mov	r0, r5
	mov	r1, r8
	movs	r2, #1
	bl	I2C_Send7bitAddress
	mvn	r4, #12288
.Ltmp141:
	@DEBUG_VALUE: I2C_EERPOM_ReadBytes:timeout <- 12288
.LBB5_23:                               @ =>This Inner Loop Header: Depth=1
	@DEBUG_VALUE: I2C_EERPOM_ReadBytes:slave_address <- [$sp+0]
	@DEBUG_VALUE: I2C_EERPOM_ReadBytes:cnt <- $r10
	@DEBUG_VALUE: I2C_EERPOM_ReadBytes:timeout <- undef
	.loc	4 255 10                @ ../Driver/i2c_eeprom.c:255:10
	mov	r0, r5
	mov	r1, r7
	bl	I2C_GetFlagStatus
	.loc	4 255 2 is_stmt 0       @ ../Driver/i2c_eeprom.c:255:2
	cbnz	r0, .LBB5_26
.Ltmp142:
@ %bb.24:                               @   in Loop: Header=BB5_23 Depth=1
	@DEBUG_VALUE: I2C_EERPOM_ReadBytes:slave_address <- [$sp+0]
	@DEBUG_VALUE: I2C_EERPOM_ReadBytes:cnt <- $r10
	@DEBUG_VALUE: I2C_EERPOM_ReadBytes:timeout <- [DW_OP_constu 1, DW_OP_minus, DW_OP_stack_value] undef
	.loc	4 257 14 is_stmt 1      @ ../Driver/i2c_eeprom.c:257:14
	adds	r4, #1
.Ltmp143:
	.loc	4 257 6 is_stmt 0       @ ../Driver/i2c_eeprom.c:257:6
	bne	.LBB5_23
.Ltmp144:
@ %bb.25:
	@DEBUG_VALUE: I2C_EERPOM_ReadBytes:slave_address <- [$sp+0]
	@DEBUG_VALUE: I2C_EERPOM_ReadBytes:cnt <- $r10
	.loc	4 258 15 is_stmt 1      @ ../Driver/i2c_eeprom.c:258:15
	add.w	r11, r11, #2
	b	.LBB5_36
.Ltmp145:
.LBB5_26:
	@DEBUG_VALUE: I2C_EERPOM_ReadBytes:slave_address <- [$sp+0]
	@DEBUG_VALUE: I2C_EERPOM_ReadBytes:cnt <- $r10
	.loc	4 0 15 is_stmt 0        @ ../Driver/i2c_eeprom.c:0:15
	ldr.w	r8, __arm_cp.5_2
	.loc	4 261 8 is_stmt 1       @ ../Driver/i2c_eeprom.c:261:8
	ldrh	r0, [r5, #24]
	movs	r7, #0
.Ltmp146:
	@DEBUG_VALUE: I2C_EERPOM_ReadBytes:n <- 0
	.loc	4 0 8 is_stmt 0         @ ../Driver/i2c_eeprom.c:0:8
	add.w	r4, r6, #63
	b	.LBB5_33
.Ltmp147:
.LBB5_27:                               @   in Loop: Header=BB5_33 Depth=1
	@DEBUG_VALUE: I2C_EERPOM_ReadBytes:slave_address <- [$sp+0]
	@DEBUG_VALUE: I2C_EERPOM_ReadBytes:n <- $r7
	@DEBUG_VALUE: I2C_EERPOM_ReadBytes:cnt <- $r10
	.loc	4 266 9 is_stmt 1       @ ../Driver/i2c_eeprom.c:266:9
	add.w	r9, r7, #1
.Ltmp148:
	.loc	4 266 6 is_stmt 0       @ ../Driver/i2c_eeprom.c:266:6
	cmp	r9, r10
	blo	.LBB5_29
.Ltmp149:
@ %bb.28:                               @   in Loop: Header=BB5_33 Depth=1
	@DEBUG_VALUE: I2C_EERPOM_ReadBytes:slave_address <- [$sp+0]
	@DEBUG_VALUE: I2C_EERPOM_ReadBytes:n <- $r7
	@DEBUG_VALUE: I2C_EERPOM_ReadBytes:cnt <- $r10
	.loc	4 268 4 is_stmt 1       @ ../Driver/i2c_eeprom.c:268:4
	mov	r0, r5
	movs	r1, #0
	bl	I2C_AcknowledgeConfig
	.loc	4 269 4                 @ ../Driver/i2c_eeprom.c:269:4
	mov	r0, r5
	movs	r1, #1
	bl	I2C_GenerateSTOP
.Ltmp150:
.LBB5_29:                               @   in Loop: Header=BB5_33 Depth=1
	@DEBUG_VALUE: I2C_EERPOM_ReadBytes:slave_address <- [$sp+0]
	@DEBUG_VALUE: I2C_EERPOM_ReadBytes:n <- $r7
	@DEBUG_VALUE: I2C_EERPOM_ReadBytes:cnt <- $r10
	.loc	4 0 4 is_stmt 0         @ ../Driver/i2c_eeprom.c:0:4
	mvn	r6, #12288
.Ltmp151:
.LBB5_30:                               @   Parent Loop BB5_33 Depth=1
                                        @ =>  This Inner Loop Header: Depth=2
	@DEBUG_VALUE: I2C_EERPOM_ReadBytes:slave_address <- [$sp+0]
	@DEBUG_VALUE: I2C_EERPOM_ReadBytes:n <- $r7
	@DEBUG_VALUE: I2C_EERPOM_ReadBytes:cnt <- $r10
	@DEBUG_VALUE: I2C_EERPOM_ReadBytes:timeout <- undef
	.loc	4 274 11 is_stmt 1      @ ../Driver/i2c_eeprom.c:274:11
	mov	r0, r5
	mov	r1, r4
	bl	I2C_GetFlagStatus
	.loc	4 274 3 is_stmt 0       @ ../Driver/i2c_eeprom.c:274:3
	cbnz	r0, .LBB5_32
.Ltmp152:
@ %bb.31:                               @   in Loop: Header=BB5_30 Depth=2
	@DEBUG_VALUE: I2C_EERPOM_ReadBytes:slave_address <- [$sp+0]
	@DEBUG_VALUE: I2C_EERPOM_ReadBytes:n <- $r7
	@DEBUG_VALUE: I2C_EERPOM_ReadBytes:cnt <- $r10
	@DEBUG_VALUE: I2C_EERPOM_ReadBytes:timeout <- [DW_OP_constu 1, DW_OP_minus, DW_OP_stack_value] undef
	.loc	4 276 15 is_stmt 1      @ ../Driver/i2c_eeprom.c:276:15
	adds	r6, #1
.Ltmp153:
	.loc	4 276 7 is_stmt 0       @ ../Driver/i2c_eeprom.c:276:7
	bne	.LBB5_30
	b	.LBB5_35
.Ltmp154:
.LBB5_32:                               @   in Loop: Header=BB5_33 Depth=1
	@DEBUG_VALUE: I2C_EERPOM_ReadBytes:slave_address <- [$sp+0]
	@DEBUG_VALUE: I2C_EERPOM_ReadBytes:n <- $r7
	@DEBUG_VALUE: I2C_EERPOM_ReadBytes:cnt <- $r10
	.loc	4 280 22 is_stmt 1      @ ../Driver/i2c_eeprom.c:280:22
	mov	r0, r5
	bl	I2C_ReceiveData
	.loc	4 280 20 is_stmt 0      @ ../Driver/i2c_eeprom.c:280:20
	strb.w	r0, [r8, r7]
.Ltmp155:
	.loc	4 0 0                   @ ../Driver/i2c_eeprom.c:0:0
	mov	r7, r9
.Ltmp156:
.LBB5_33:                               @ =>This Loop Header: Depth=1
                                        @     Child Loop BB5_30 Depth 2
	@DEBUG_VALUE: I2C_EERPOM_ReadBytes:slave_address <- [$sp+0]
	@DEBUG_VALUE: I2C_EERPOM_ReadBytes:cnt <- $r10
	@DEBUG_VALUE: I2C_EERPOM_ReadBytes:n <- $r7
	.loc	4 263 2 is_stmt 1       @ ../Driver/i2c_eeprom.c:263:2
	cmp	r7, r10
	blo	.LBB5_27
.Ltmp157:
@ %bb.34:
	@DEBUG_VALUE: I2C_EERPOM_ReadBytes:slave_address <- [$sp+0]
	@DEBUG_VALUE: I2C_EERPOM_ReadBytes:n <- $r7
	@DEBUG_VALUE: I2C_EERPOM_ReadBytes:cnt <- $r10
	.loc	4 283 2                 @ ../Driver/i2c_eeprom.c:283:2
	mov	r0, r5
	movs	r1, #1
	bl	I2C_AcknowledgeConfig
	mov.w	r11, #0
	@DEBUG_VALUE: I2C_EERPOM_ReadBytes:ret_data <- 0
	b	.LBB5_37
.Ltmp158:
.LBB5_35:
	@DEBUG_VALUE: I2C_EERPOM_ReadBytes:slave_address <- [$sp+0]
	@DEBUG_VALUE: I2C_EERPOM_ReadBytes:n <- $r7
	@DEBUG_VALUE: I2C_EERPOM_ReadBytes:cnt <- $r10
	.loc	4 277 16                @ ../Driver/i2c_eeprom.c:277:16
	add.w	r11, r11, #1
.Ltmp159:
.LBB5_36:
	@DEBUG_VALUE: I2C_EERPOM_ReadBytes:cnt <- $r10
	.loc	4 0 0 is_stmt 0         @ ../Driver/i2c_eeprom.c:0:0
	sxth.w	r0, r11
	bl	I2C_EEPROM_timeout
.Ltmp160:
.LBB5_37:
	.loc	4 286 1 is_stmt 1       @ ../Driver/i2c_eeprom.c:286:1
	sxth.w	r0, r11
	add	sp, #4
	pop.w	{r4, r5, r6, r7, r8, r9, r10, r11, pc}
.Ltmp161:
	.p2align	2
@ %bb.38:
	.loc	4 0 1 is_stmt 0         @ ../Driver/i2c_eeprom.c:0:1
__arm_cp.5_0:
	.long	1073764352              @ 0x40005800
.Lcpi_end10:
	.size	__arm_cp.5_0, .Lcpi_end10-__arm_cp.5_0
__arm_cp.5_1:
	.long	268435457               @ 0x10000001
.Lcpi_end11:
	.size	__arm_cp.5_1, .Lcpi_end11-__arm_cp.5_1
__arm_cp.5_2:
	.long	aEepromBuffer
.Lcpi_end12:
	.size	__arm_cp.5_2, .Lcpi_end12-__arm_cp.5_2
.Lfunc_end5:
	.size	I2C_EERPOM_ReadBytes, .Lfunc_end5-I2C_EERPOM_ReadBytes
	.cfi_endproc
	.cantunwind
	.fnend
                                        @ -- End function
	.section	.text.I2C_EERPOM_WriteBytes,"ax",%progbits
	.hidden	I2C_EERPOM_WriteBytes   @ -- Begin function I2C_EERPOM_WriteBytes
	.globl	I2C_EERPOM_WriteBytes
	.p2align	2
	.type	I2C_EERPOM_WriteBytes,%function
	.code	16                      @ @I2C_EERPOM_WriteBytes
	.thumb_func
I2C_EERPOM_WriteBytes:
.Lfunc_begin6:
	.loc	4 290 0 is_stmt 1       @ ../Driver/i2c_eeprom.c:290:0
	.fnstart
	.cfi_startproc
@ %bb.0:
	.save	{r4, r5, r6, r7, r8, r9, r10, r11, lr}
	.pad	#4
	push.w	{r3, r4, r5, r6, r7, r8, r9, r10, r11, lr}
	.cfi_def_cfa_offset 40
	.cfi_offset lr, -4
	.cfi_offset r11, -8
	.cfi_offset r10, -12
	.cfi_offset r9, -16
	.cfi_offset r8, -20
	.cfi_offset r7, -24
	.cfi_offset r6, -28
	.cfi_offset r5, -32
	.cfi_offset r4, -36
	@DEBUG_VALUE: I2C_EERPOM_WriteBytes:slave_address <- $r0
	@DEBUG_VALUE: I2C_EERPOM_WriteBytes:data_address <- $r1
	@DEBUG_VALUE: I2C_EERPOM_WriteBytes:cnt <- $r2
	movw	r10, #65530
.Ltmp162:
	@DEBUG_VALUE: I2C_EERPOM_WriteBytes:timeout <- 12288
	@DEBUG_VALUE: I2C_EERPOM_WriteBytes:ret_data <- 0
	.loc	4 295 5 prologue_end    @ ../Driver/i2c_eeprom.c:295:5
	cmp	r2, #0
	beq	.LBB6_27
.Ltmp163:
@ %bb.1:
	@DEBUG_VALUE: I2C_EERPOM_WriteBytes:cnt <- $r2
	@DEBUG_VALUE: I2C_EERPOM_WriteBytes:data_address <- $r1
	@DEBUG_VALUE: I2C_EERPOM_WriteBytes:slave_address <- $r0
	.loc	4 0 5 is_stmt 0         @ ../Driver/i2c_eeprom.c:0:5
	ldr	r5, __arm_cp.6_0
	mov	r8, r1
.Ltmp164:
	@DEBUG_VALUE: I2C_EERPOM_WriteBytes:data_address <- $r8
	@DEBUG_VALUE: I2C_EERPOM_WriteBytes:data_address <- $r8
	mov	r7, r0
.Ltmp165:
	@DEBUG_VALUE: I2C_EERPOM_WriteBytes:slave_address <- $r7
	@DEBUG_VALUE: I2C_EERPOM_WriteBytes:slave_address <- $r7
	@DEBUG_VALUE: I2C_EERPOM_WriteBytes:slave_address <- $r7
	@DEBUG_VALUE: I2C_EERPOM_WriteBytes:data_address <- $r8
	.loc	4 296 2 is_stmt 1       @ ../Driver/i2c_eeprom.c:296:2
	movs	r1, #1
	mov	r9, r2
.Ltmp166:
	@DEBUG_VALUE: I2C_EERPOM_WriteBytes:cnt <- $r9
	@DEBUG_VALUE: I2C_EERPOM_WriteBytes:cnt <- $r9
	mov	r0, r5
	bl	I2C_GenerateSTART
	ldr	r6, __arm_cp.6_1
	@DEBUG_VALUE: I2C_EERPOM_WriteBytes:timeout <- 12288
	mvn	r4, #12288
.Ltmp167:
.LBB6_2:                                @ =>This Inner Loop Header: Depth=1
	@DEBUG_VALUE: I2C_EERPOM_WriteBytes:cnt <- $r9
	@DEBUG_VALUE: I2C_EERPOM_WriteBytes:slave_address <- $r7
	@DEBUG_VALUE: I2C_EERPOM_WriteBytes:data_address <- $r8
	@DEBUG_VALUE: I2C_EERPOM_WriteBytes:timeout <- undef
	.loc	4 299 10                @ ../Driver/i2c_eeprom.c:299:10
	mov	r0, r5
	mov	r1, r6
	bl	I2C_GetFlagStatus
	.loc	4 299 2 is_stmt 0       @ ../Driver/i2c_eeprom.c:299:2
	cbnz	r0, .LBB6_5
.Ltmp168:
@ %bb.3:                                @   in Loop: Header=BB6_2 Depth=1
	@DEBUG_VALUE: I2C_EERPOM_WriteBytes:cnt <- $r9
	@DEBUG_VALUE: I2C_EERPOM_WriteBytes:slave_address <- $r7
	@DEBUG_VALUE: I2C_EERPOM_WriteBytes:data_address <- $r8
	@DEBUG_VALUE: I2C_EERPOM_WriteBytes:timeout <- [DW_OP_constu 1, DW_OP_minus, DW_OP_stack_value] undef
	.loc	4 301 14 is_stmt 1      @ ../Driver/i2c_eeprom.c:301:14
	adds	r4, #1
.Ltmp169:
	.loc	4 301 6 is_stmt 0       @ ../Driver/i2c_eeprom.c:301:6
	bne	.LBB6_2
.Ltmp170:
@ %bb.4:
	@DEBUG_VALUE: I2C_EERPOM_WriteBytes:cnt <- $r9
	@DEBUG_VALUE: I2C_EERPOM_WriteBytes:slave_address <- $r7
	@DEBUG_VALUE: I2C_EERPOM_WriteBytes:data_address <- $r8
	.loc	4 302 15 is_stmt 1      @ ../Driver/i2c_eeprom.c:302:15
	add.w	r10, r10, #5
	b	.LBB6_26
.Ltmp171:
.LBB6_5:
	@DEBUG_VALUE: I2C_EERPOM_WriteBytes:cnt <- $r9
	@DEBUG_VALUE: I2C_EERPOM_WriteBytes:slave_address <- $r7
	@DEBUG_VALUE: I2C_EERPOM_WriteBytes:data_address <- $r8
	.loc	4 305 2                 @ ../Driver/i2c_eeprom.c:305:2
	mov	r0, r5
	mov	r1, r7
	movs	r2, #0
	bl	I2C_Send7bitAddress
	mvn	r4, #12288
.Ltmp172:
	@DEBUG_VALUE: I2C_EERPOM_WriteBytes:timeout <- 12288
	.loc	4 0 2 is_stmt 0         @ ../Driver/i2c_eeprom.c:0:2
	adds	r7, r6, #1
.Ltmp173:
.LBB6_6:                                @ =>This Inner Loop Header: Depth=1
	@DEBUG_VALUE: I2C_EERPOM_WriteBytes:cnt <- $r9
	@DEBUG_VALUE: I2C_EERPOM_WriteBytes:data_address <- $r8
	@DEBUG_VALUE: I2C_EERPOM_WriteBytes:timeout <- undef
	.loc	4 308 10 is_stmt 1      @ ../Driver/i2c_eeprom.c:308:10
	mov	r0, r5
	mov	r1, r7
	bl	I2C_GetFlagStatus
	.loc	4 308 2 is_stmt 0       @ ../Driver/i2c_eeprom.c:308:2
	cbnz	r0, .LBB6_9
.Ltmp174:
@ %bb.7:                                @   in Loop: Header=BB6_6 Depth=1
	@DEBUG_VALUE: I2C_EERPOM_WriteBytes:cnt <- $r9
	@DEBUG_VALUE: I2C_EERPOM_WriteBytes:data_address <- $r8
	@DEBUG_VALUE: I2C_EERPOM_WriteBytes:timeout <- [DW_OP_constu 1, DW_OP_minus, DW_OP_stack_value] undef
	.loc	4 310 14 is_stmt 1      @ ../Driver/i2c_eeprom.c:310:14
	adds	r4, #1
.Ltmp175:
	.loc	4 310 6 is_stmt 0       @ ../Driver/i2c_eeprom.c:310:6
	bne	.LBB6_6
.Ltmp176:
@ %bb.8:
	@DEBUG_VALUE: I2C_EERPOM_WriteBytes:cnt <- $r9
	@DEBUG_VALUE: I2C_EERPOM_WriteBytes:data_address <- $r8
	.loc	4 311 15 is_stmt 1      @ ../Driver/i2c_eeprom.c:311:15
	add.w	r10, r10, #4
	b	.LBB6_26
.Ltmp177:
.LBB6_9:
	@DEBUG_VALUE: I2C_EERPOM_WriteBytes:cnt <- $r9
	@DEBUG_VALUE: I2C_EERPOM_WriteBytes:data_address <- $r8
	.loc	4 314 8                 @ ../Driver/i2c_eeprom.c:314:8
	ldrh	r0, [r5, #24]
	mvn	r4, #12288
.Ltmp178:
	@DEBUG_VALUE: I2C_EERPOM_WriteBytes:timeout <- 12288
	.loc	4 0 8 is_stmt 0         @ ../Driver/i2c_eeprom.c:0:8
	add.w	r7, r6, #127
.Ltmp179:
.LBB6_10:                               @ =>This Inner Loop Header: Depth=1
	@DEBUG_VALUE: I2C_EERPOM_WriteBytes:cnt <- $r9
	@DEBUG_VALUE: I2C_EERPOM_WriteBytes:data_address <- $r8
	@DEBUG_VALUE: I2C_EERPOM_WriteBytes:timeout <- undef
	.loc	4 317 10 is_stmt 1      @ ../Driver/i2c_eeprom.c:317:10
	mov	r0, r5
	mov	r1, r7
	bl	I2C_GetFlagStatus
	.loc	4 317 2 is_stmt 0       @ ../Driver/i2c_eeprom.c:317:2
	cbnz	r0, .LBB6_13
.Ltmp180:
@ %bb.11:                               @   in Loop: Header=BB6_10 Depth=1
	@DEBUG_VALUE: I2C_EERPOM_WriteBytes:cnt <- $r9
	@DEBUG_VALUE: I2C_EERPOM_WriteBytes:data_address <- $r8
	@DEBUG_VALUE: I2C_EERPOM_WriteBytes:timeout <- [DW_OP_constu 1, DW_OP_minus, DW_OP_stack_value] undef
	.loc	4 319 14 is_stmt 1      @ ../Driver/i2c_eeprom.c:319:14
	adds	r4, #1
.Ltmp181:
	.loc	4 319 6 is_stmt 0       @ ../Driver/i2c_eeprom.c:319:6
	bne	.LBB6_10
.Ltmp182:
@ %bb.12:
	@DEBUG_VALUE: I2C_EERPOM_WriteBytes:cnt <- $r9
	@DEBUG_VALUE: I2C_EERPOM_WriteBytes:data_address <- $r8
	.loc	4 320 15 is_stmt 1      @ ../Driver/i2c_eeprom.c:320:15
	add.w	r10, r10, #3
	b	.LBB6_26
.Ltmp183:
.LBB6_13:
	@DEBUG_VALUE: I2C_EERPOM_WriteBytes:cnt <- $r9
	@DEBUG_VALUE: I2C_EERPOM_WriteBytes:data_address <- $r8
	.loc	4 323 2                 @ ../Driver/i2c_eeprom.c:323:2
	mov	r0, r5
	mov	r1, r8
	bl	I2C_SendData
	mvn	r4, #12288
.Ltmp184:
	@DEBUG_VALUE: I2C_EERPOM_WriteBytes:timeout <- 12288
.LBB6_14:                               @ =>This Inner Loop Header: Depth=1
	@DEBUG_VALUE: I2C_EERPOM_WriteBytes:cnt <- $r9
	@DEBUG_VALUE: I2C_EERPOM_WriteBytes:data_address <- $r8
	@DEBUG_VALUE: I2C_EERPOM_WriteBytes:timeout <- undef
	.loc	4 326 10                @ ../Driver/i2c_eeprom.c:326:10
	mov	r0, r5
	mov	r1, r7
	bl	I2C_GetFlagStatus
	.loc	4 326 2 is_stmt 0       @ ../Driver/i2c_eeprom.c:326:2
	cbnz	r0, .LBB6_17
.Ltmp185:
@ %bb.15:                               @   in Loop: Header=BB6_14 Depth=1
	@DEBUG_VALUE: I2C_EERPOM_WriteBytes:cnt <- $r9
	@DEBUG_VALUE: I2C_EERPOM_WriteBytes:data_address <- $r8
	@DEBUG_VALUE: I2C_EERPOM_WriteBytes:timeout <- [DW_OP_constu 1, DW_OP_minus, DW_OP_stack_value] undef
	.loc	4 328 14 is_stmt 1      @ ../Driver/i2c_eeprom.c:328:14
	adds	r4, #1
.Ltmp186:
	.loc	4 328 6 is_stmt 0       @ ../Driver/i2c_eeprom.c:328:6
	bne	.LBB6_14
.Ltmp187:
@ %bb.16:
	@DEBUG_VALUE: I2C_EERPOM_WriteBytes:cnt <- $r9
	@DEBUG_VALUE: I2C_EERPOM_WriteBytes:data_address <- $r8
	.loc	4 329 15 is_stmt 1      @ ../Driver/i2c_eeprom.c:329:15
	add.w	r10, r10, #2
	b	.LBB6_26
.Ltmp188:
.LBB6_17:
	@DEBUG_VALUE: I2C_EERPOM_WriteBytes:cnt <- $r9
	@DEBUG_VALUE: I2C_EERPOM_WriteBytes:data_address <- $r8
	.loc	4 0 15 is_stmt 0        @ ../Driver/i2c_eeprom.c:0:15
	ldr	r4, __arm_cp.6_2
	mov.w	r8, #0
.Ltmp189:
	add.w	r11, r6, #3
	b	.LBB6_23
.Ltmp190:
.LBB6_18:                               @   in Loop: Header=BB6_23 Depth=1
	@DEBUG_VALUE: I2C_EERPOM_WriteBytes:n <- $r8
	@DEBUG_VALUE: I2C_EERPOM_WriteBytes:cnt <- $r9
	.loc	4 334 22 is_stmt 1      @ ../Driver/i2c_eeprom.c:334:22
	ldrb.w	r1, [r4, r8]
	.loc	4 334 3 is_stmt 0       @ ../Driver/i2c_eeprom.c:334:3
	mov	r0, r5
	bl	I2C_SendData
	mvn	r6, #12288
.Ltmp191:
	@DEBUG_VALUE: I2C_EERPOM_WriteBytes:timeout <- 12288
.LBB6_19:                               @   Parent Loop BB6_23 Depth=1
                                        @ =>  This Inner Loop Header: Depth=2
	@DEBUG_VALUE: I2C_EERPOM_WriteBytes:n <- $r8
	@DEBUG_VALUE: I2C_EERPOM_WriteBytes:cnt <- $r9
	@DEBUG_VALUE: I2C_EERPOM_WriteBytes:timeout <- undef
	.loc	4 337 12 is_stmt 1      @ ../Driver/i2c_eeprom.c:337:12
	mov	r0, r5
	mov	r1, r7
	bl	I2C_GetFlagStatus
	.loc	4 337 51 is_stmt 0      @ ../Driver/i2c_eeprom.c:337:51
	cbz	r0, .LBB6_21
.Ltmp192:
@ %bb.20:                               @   in Loop: Header=BB6_19 Depth=2
	@DEBUG_VALUE: I2C_EERPOM_WriteBytes:n <- $r8
	@DEBUG_VALUE: I2C_EERPOM_WriteBytes:cnt <- $r9
	.loc	4 337 56                @ ../Driver/i2c_eeprom.c:337:56
	mov	r0, r5
	mov	r1, r11
	bl	I2C_GetFlagStatus
	.loc	4 337 3                 @ ../Driver/i2c_eeprom.c:337:3
	cbnz	r0, .LBB6_22
.Ltmp193:
.LBB6_21:                               @   in Loop: Header=BB6_19 Depth=2
	@DEBUG_VALUE: I2C_EERPOM_WriteBytes:n <- $r8
	@DEBUG_VALUE: I2C_EERPOM_WriteBytes:cnt <- $r9
	@DEBUG_VALUE: I2C_EERPOM_WriteBytes:timeout <- [DW_OP_constu 1, DW_OP_minus, DW_OP_stack_value] undef
	.loc	4 339 15 is_stmt 1      @ ../Driver/i2c_eeprom.c:339:15
	adds	r6, #1
.Ltmp194:
	.loc	4 339 7 is_stmt 0       @ ../Driver/i2c_eeprom.c:339:7
	bne	.LBB6_19
	b	.LBB6_25
.Ltmp195:
.LBB6_22:                               @   in Loop: Header=BB6_23 Depth=1
	@DEBUG_VALUE: I2C_EERPOM_WriteBytes:n <- $r8
	@DEBUG_VALUE: I2C_EERPOM_WriteBytes:cnt <- $r9
	.loc	4 332 23 is_stmt 1      @ ../Driver/i2c_eeprom.c:332:23
	add.w	r8, r8, #1
.Ltmp196:
.LBB6_23:                               @ =>This Loop Header: Depth=1
                                        @     Child Loop BB6_19 Depth 2
	@DEBUG_VALUE: I2C_EERPOM_WriteBytes:cnt <- $r9
	@DEBUG_VALUE: I2C_EERPOM_WriteBytes:n <- $r8
	.loc	4 332 2 is_stmt 0       @ ../Driver/i2c_eeprom.c:332:2
	cmp	r8, r9
	blo	.LBB6_18
.Ltmp197:
@ %bb.24:
	@DEBUG_VALUE: I2C_EERPOM_WriteBytes:n <- $r8
	@DEBUG_VALUE: I2C_EERPOM_WriteBytes:cnt <- $r9
	.loc	4 344 2 is_stmt 1       @ ../Driver/i2c_eeprom.c:344:2
	mov	r0, r5
	movs	r1, #1
	bl	I2C_GenerateSTOP
	mov.w	r10, #0
	@DEBUG_VALUE: I2C_EERPOM_WriteBytes:ret_data <- 0
	b	.LBB6_27
.Ltmp198:
.LBB6_25:
	@DEBUG_VALUE: I2C_EERPOM_WriteBytes:n <- $r8
	@DEBUG_VALUE: I2C_EERPOM_WriteBytes:cnt <- $r9
	.loc	4 340 16                @ ../Driver/i2c_eeprom.c:340:16
	add.w	r10, r10, #1
.Ltmp199:
.LBB6_26:
	@DEBUG_VALUE: I2C_EERPOM_WriteBytes:cnt <- $r9
	.loc	4 0 0 is_stmt 0         @ ../Driver/i2c_eeprom.c:0:0
	sxth.w	r0, r10
	bl	I2C_EEPROM_timeout
.Ltmp200:
.LBB6_27:
	.loc	4 347 1 is_stmt 1       @ ../Driver/i2c_eeprom.c:347:1
	sxth.w	r0, r10
	add	sp, #4
	pop.w	{r4, r5, r6, r7, r8, r9, r10, r11, pc}
.Ltmp201:
	.p2align	2
@ %bb.28:
	.loc	4 0 1 is_stmt 0         @ ../Driver/i2c_eeprom.c:0:1
__arm_cp.6_0:
	.long	1073764352              @ 0x40005800
.Lcpi_end13:
	.size	__arm_cp.6_0, .Lcpi_end13-__arm_cp.6_0
__arm_cp.6_1:
	.long	268435457               @ 0x10000001
.Lcpi_end14:
	.size	__arm_cp.6_1, .Lcpi_end14-__arm_cp.6_1
__arm_cp.6_2:
	.long	aEepromBuffer
.Lcpi_end15:
	.size	__arm_cp.6_2, .Lcpi_end15-__arm_cp.6_2
.Lfunc_end6:
	.size	I2C_EERPOM_WriteBytes, .Lfunc_end6-I2C_EERPOM_WriteBytes
	.cfi_endproc
	.cantunwind
	.fnend
                                        @ -- End function
	.section	.text.I2C_EERPOM_WriteCMD,"ax",%progbits
	.hidden	I2C_EERPOM_WriteCMD     @ -- Begin function I2C_EERPOM_WriteCMD
	.globl	I2C_EERPOM_WriteCMD
	.p2align	2
	.type	I2C_EERPOM_WriteCMD,%function
	.code	16                      @ @I2C_EERPOM_WriteCMD
	.thumb_func
I2C_EERPOM_WriteCMD:
.Lfunc_begin7:
	.loc	4 351 0 is_stmt 1       @ ../Driver/i2c_eeprom.c:351:0
	.fnstart
	.cfi_startproc
@ %bb.0:
	.save	{r4, r5, r6, r7, r8, lr}
	push.w	{r4, r5, r6, r7, r8, lr}
	.cfi_def_cfa_offset 24
	.cfi_offset lr, -4
	.cfi_offset r8, -8
	.cfi_offset r7, -12
	.cfi_offset r6, -16
	.cfi_offset r5, -20
	.cfi_offset r4, -24
	@DEBUG_VALUE: I2C_EERPOM_WriteCMD:slave_address <- $r0
	@DEBUG_VALUE: I2C_EERPOM_WriteCMD:cmd <- $r1
	ldr	r4, __arm_cp.7_0
	mov	r8, r1
	mov	r7, r0
.Ltmp202:
	@DEBUG_VALUE: I2C_EERPOM_WriteCMD:timeout <- 12288
	@DEBUG_VALUE: I2C_EERPOM_WriteCMD:ret_data <- 0
	@DEBUG_VALUE: I2C_EERPOM_WriteCMD:cmd <- $r8
	@DEBUG_VALUE: I2C_EERPOM_WriteCMD:slave_address <- $r7
	.loc	4 355 2 prologue_end    @ ../Driver/i2c_eeprom.c:355:2
	movs	r1, #1
	mov	r0, r4
	bl	I2C_GenerateSTART
	ldr	r6, __arm_cp.7_1
	mvn	r5, #12288
.Ltmp203:
.LBB7_1:                                @ =>This Inner Loop Header: Depth=1
	@DEBUG_VALUE: I2C_EERPOM_WriteCMD:slave_address <- $r7
	@DEBUG_VALUE: I2C_EERPOM_WriteCMD:cmd <- $r8
	@DEBUG_VALUE: I2C_EERPOM_WriteCMD:timeout <- undef
	.loc	4 358 10                @ ../Driver/i2c_eeprom.c:358:10
	mov	r0, r4
	mov	r1, r6
	bl	I2C_GetFlagStatus
	.loc	4 358 2 is_stmt 0       @ ../Driver/i2c_eeprom.c:358:2
	cbnz	r0, .LBB7_4
.Ltmp204:
@ %bb.2:                                @   in Loop: Header=BB7_1 Depth=1
	@DEBUG_VALUE: I2C_EERPOM_WriteCMD:slave_address <- $r7
	@DEBUG_VALUE: I2C_EERPOM_WriteCMD:cmd <- $r8
	@DEBUG_VALUE: I2C_EERPOM_WriteCMD:timeout <- [DW_OP_constu 1, DW_OP_minus, DW_OP_stack_value] undef
	.loc	4 360 14 is_stmt 1      @ ../Driver/i2c_eeprom.c:360:14
	adds	r5, #1
.Ltmp205:
	.loc	4 360 6 is_stmt 0       @ ../Driver/i2c_eeprom.c:360:6
	bne	.LBB7_1
.Ltmp206:
@ %bb.3:
	@DEBUG_VALUE: I2C_EERPOM_WriteCMD:slave_address <- $r7
	@DEBUG_VALUE: I2C_EERPOM_WriteCMD:cmd <- $r8
	.loc	4 0 6                   @ ../Driver/i2c_eeprom.c:0:6
	mvn	r0, #3
.Ltmp207:
	.loc	4 361 15 is_stmt 1      @ ../Driver/i2c_eeprom.c:361:15
	adds	r0, #3
	b	.LBB7_12
.Ltmp208:
.LBB7_4:
	@DEBUG_VALUE: I2C_EERPOM_WriteCMD:slave_address <- $r7
	@DEBUG_VALUE: I2C_EERPOM_WriteCMD:cmd <- $r8
	.loc	4 364 2                 @ ../Driver/i2c_eeprom.c:364:2
	mov	r0, r4
	mov	r1, r7
	movs	r2, #0
	bl	I2C_Send7bitAddress
	mvn	r5, #12288
.Ltmp209:
	@DEBUG_VALUE: I2C_EERPOM_WriteCMD:timeout <- 12288
	.loc	4 0 2 is_stmt 0         @ ../Driver/i2c_eeprom.c:0:2
	adds	r7, r6, #1
.Ltmp210:
.LBB7_5:                                @ =>This Inner Loop Header: Depth=1
	@DEBUG_VALUE: I2C_EERPOM_WriteCMD:cmd <- $r8
	@DEBUG_VALUE: I2C_EERPOM_WriteCMD:timeout <- undef
	.loc	4 367 10 is_stmt 1      @ ../Driver/i2c_eeprom.c:367:10
	mov	r0, r4
	mov	r1, r7
	bl	I2C_GetFlagStatus
	.loc	4 367 2 is_stmt 0       @ ../Driver/i2c_eeprom.c:367:2
	cbnz	r0, .LBB7_8
.Ltmp211:
@ %bb.6:                                @   in Loop: Header=BB7_5 Depth=1
	@DEBUG_VALUE: I2C_EERPOM_WriteCMD:cmd <- $r8
	@DEBUG_VALUE: I2C_EERPOM_WriteCMD:timeout <- [DW_OP_constu 1, DW_OP_minus, DW_OP_stack_value] undef
	.loc	4 369 14 is_stmt 1      @ ../Driver/i2c_eeprom.c:369:14
	adds	r5, #1
.Ltmp212:
	.loc	4 369 6 is_stmt 0       @ ../Driver/i2c_eeprom.c:369:6
	bne	.LBB7_5
.Ltmp213:
@ %bb.7:
	@DEBUG_VALUE: I2C_EERPOM_WriteCMD:cmd <- $r8
	.loc	4 0 6                   @ ../Driver/i2c_eeprom.c:0:6
	mvn	r0, #3
.Ltmp214:
	.loc	4 370 15 is_stmt 1      @ ../Driver/i2c_eeprom.c:370:15
	adds	r0, #2
	b	.LBB7_12
.Ltmp215:
.LBB7_8:
	@DEBUG_VALUE: I2C_EERPOM_WriteCMD:cmd <- $r8
	.loc	4 373 8                 @ ../Driver/i2c_eeprom.c:373:8
	ldrh	r0, [r4, #24]
	mvn	r5, #12288
.Ltmp216:
	@DEBUG_VALUE: I2C_EERPOM_WriteCMD:timeout <- 12288
	.loc	4 0 8 is_stmt 0         @ ../Driver/i2c_eeprom.c:0:8
	add.w	r7, r6, #127
.Ltmp217:
.LBB7_9:                                @ =>This Inner Loop Header: Depth=1
	@DEBUG_VALUE: I2C_EERPOM_WriteCMD:cmd <- $r8
	@DEBUG_VALUE: I2C_EERPOM_WriteCMD:timeout <- undef
	.loc	4 376 10 is_stmt 1      @ ../Driver/i2c_eeprom.c:376:10
	mov	r0, r4
	mov	r1, r7
	bl	I2C_GetFlagStatus
	.loc	4 376 2 is_stmt 0       @ ../Driver/i2c_eeprom.c:376:2
	cbnz	r0, .LBB7_14
.Ltmp218:
@ %bb.10:                               @   in Loop: Header=BB7_9 Depth=1
	@DEBUG_VALUE: I2C_EERPOM_WriteCMD:cmd <- $r8
	@DEBUG_VALUE: I2C_EERPOM_WriteCMD:timeout <- [DW_OP_constu 1, DW_OP_minus, DW_OP_stack_value] undef
	.loc	4 378 14 is_stmt 1      @ ../Driver/i2c_eeprom.c:378:14
	adds	r5, #1
.Ltmp219:
	.loc	4 378 6 is_stmt 0       @ ../Driver/i2c_eeprom.c:378:6
	bne	.LBB7_9
.Ltmp220:
@ %bb.11:
	@DEBUG_VALUE: I2C_EERPOM_WriteCMD:cmd <- $r8
	.loc	4 0 6                   @ ../Driver/i2c_eeprom.c:0:6
	mvn	r0, #3
.Ltmp221:
	.loc	4 379 15 is_stmt 1      @ ../Driver/i2c_eeprom.c:379:15
	adds	r0, #1
.Ltmp222:
.LBB7_12:
	@DEBUG_VALUE: I2C_EERPOM_WriteCMD:cmd <- $r8
	.loc	4 0 0 is_stmt 0         @ ../Driver/i2c_eeprom.c:0:0
	bl	I2C_EEPROM_timeout
.Ltmp223:
.LBB7_13:
	@DEBUG_VALUE: I2C_EERPOM_WriteCMD:cmd <- $r8
	.loc	4 394 1 is_stmt 1       @ ../Driver/i2c_eeprom.c:394:1
	sxth	r0, r0
	pop.w	{r4, r5, r6, r7, r8, pc}
.Ltmp224:
.LBB7_14:
	@DEBUG_VALUE: I2C_EERPOM_WriteCMD:cmd <- $r8
	.loc	4 382 2                 @ ../Driver/i2c_eeprom.c:382:2
	mov	r0, r4
	mov	r1, r8
	bl	I2C_SendData
	mvn	r5, #12288
.Ltmp225:
	@DEBUG_VALUE: I2C_EERPOM_WriteCMD:timeout <- 12288
	.loc	4 0 2 is_stmt 0         @ ../Driver/i2c_eeprom.c:0:2
	adds	r6, #3
.Ltmp226:
.LBB7_15:                               @ =>This Inner Loop Header: Depth=1
	@DEBUG_VALUE: I2C_EERPOM_WriteCMD:cmd <- $r8
	@DEBUG_VALUE: I2C_EERPOM_WriteCMD:timeout <- undef
	.loc	4 385 11 is_stmt 1      @ ../Driver/i2c_eeprom.c:385:11
	mov	r0, r4
	mov	r1, r7
	bl	I2C_GetFlagStatus
	.loc	4 385 50 is_stmt 0      @ ../Driver/i2c_eeprom.c:385:50
	cbz	r0, .LBB7_17
.Ltmp227:
@ %bb.16:                               @   in Loop: Header=BB7_15 Depth=1
	@DEBUG_VALUE: I2C_EERPOM_WriteCMD:cmd <- $r8
	.loc	4 385 55                @ ../Driver/i2c_eeprom.c:385:55
	mov	r0, r4
	mov	r1, r6
	bl	I2C_GetFlagStatus
	.loc	4 385 2                 @ ../Driver/i2c_eeprom.c:385:2
	cbnz	r0, .LBB7_19
.Ltmp228:
.LBB7_17:                               @   in Loop: Header=BB7_15 Depth=1
	@DEBUG_VALUE: I2C_EERPOM_WriteCMD:cmd <- $r8
	@DEBUG_VALUE: I2C_EERPOM_WriteCMD:timeout <- [DW_OP_constu 1, DW_OP_minus, DW_OP_stack_value] undef
	.loc	4 387 14 is_stmt 1      @ ../Driver/i2c_eeprom.c:387:14
	adds	r5, #1
.Ltmp229:
	.loc	4 387 6 is_stmt 0       @ ../Driver/i2c_eeprom.c:387:6
	bne	.LBB7_15
.Ltmp230:
@ %bb.18:
	@DEBUG_VALUE: I2C_EERPOM_WriteCMD:cmd <- $r8
	.loc	4 388 15 is_stmt 1      @ ../Driver/i2c_eeprom.c:388:15
	mvn	r0, #3
	bl	I2C_EEPROM_timeout
	movw	r0, #65532
	b	.LBB7_13
.Ltmp231:
.LBB7_19:
	@DEBUG_VALUE: I2C_EERPOM_WriteCMD:cmd <- $r8
	.loc	4 391 2                 @ ../Driver/i2c_eeprom.c:391:2
	mov	r0, r4
	movs	r1, #1
	bl	I2C_GenerateSTOP
	movs	r0, #0
	@DEBUG_VALUE: I2C_EERPOM_WriteCMD:ret_data <- 0
	b	.LBB7_13
.Ltmp232:
	.p2align	2
@ %bb.20:
	.loc	4 0 2 is_stmt 0         @ ../Driver/i2c_eeprom.c:0:2
__arm_cp.7_0:
	.long	1073764352              @ 0x40005800
.Lcpi_end16:
	.size	__arm_cp.7_0, .Lcpi_end16-__arm_cp.7_0
__arm_cp.7_1:
	.long	268435457               @ 0x10000001
.Lcpi_end17:
	.size	__arm_cp.7_1, .Lcpi_end17-__arm_cp.7_1
.Lfunc_end7:
	.size	I2C_EERPOM_WriteCMD, .Lfunc_end7-I2C_EERPOM_WriteCMD
	.cfi_endproc
	.cantunwind
	.fnend
                                        @ -- End function
	.section	.text.I2C_EERPOM_ReadByte16,"ax",%progbits
	.hidden	I2C_EERPOM_ReadByte16   @ -- Begin function I2C_EERPOM_ReadByte16
	.globl	I2C_EERPOM_ReadByte16
	.p2align	2
	.type	I2C_EERPOM_ReadByte16,%function
	.code	16                      @ @I2C_EERPOM_ReadByte16
	.thumb_func
I2C_EERPOM_ReadByte16:
.Lfunc_begin8:
	.loc	4 398 0 is_stmt 1       @ ../Driver/i2c_eeprom.c:398:0
	.fnstart
	.cfi_startproc
@ %bb.0:
	.save	{r4, r5, r6, r7, r8, r9, r10, r11, lr}
	.pad	#4
	push.w	{r3, r4, r5, r6, r7, r8, r9, r10, r11, lr}
	.cfi_def_cfa_offset 40
	.cfi_offset lr, -4
	.cfi_offset r11, -8
	.cfi_offset r10, -12
	.cfi_offset r9, -16
	.cfi_offset r8, -20
	.cfi_offset r7, -24
	.cfi_offset r6, -28
	.cfi_offset r5, -32
	.cfi_offset r4, -36
	@DEBUG_VALUE: I2C_EERPOM_ReadByte16:slave_address <- $r0
	@DEBUG_VALUE: I2C_EERPOM_ReadByte16:data_address <- $r1
	ldr	r4, __arm_cp.8_0
	mov	r9, r1
	mov	r8, r0
.Ltmp233:
	@DEBUG_VALUE: I2C_EERPOM_ReadByte16:data_address <- $r9
	@DEBUG_VALUE: I2C_EERPOM_ReadByte16:slave_address <- $r8
	.loc	4 406 2 prologue_end    @ ../Driver/i2c_eeprom.c:406:2
	movs	r1, #1
	mov	r0, r4
	bl	I2C_GenerateSTART
.Ltmp234:
	@DEBUG_VALUE: I2C_EERPOM_ReadByte16:timeout <- 12288
	@DEBUG_VALUE: I2C_EERPOM_ReadByte16:ret_data <- 0
	.loc	4 0 2 is_stmt 0         @ ../Driver/i2c_eeprom.c:0:2
	ldr	r6, __arm_cp.8_1
	.loc	4 404 7 is_stmt 1       @ ../Driver/i2c_eeprom.c:404:7
	lsr.w	r10, r9, #8
	mvn	r5, #12288
.Ltmp235:
.LBB8_1:                                @ =>This Inner Loop Header: Depth=1
	@DEBUG_VALUE: I2C_EERPOM_ReadByte16:slave_address <- $r8
	@DEBUG_VALUE: I2C_EERPOM_ReadByte16:data_address <- $r9
	@DEBUG_VALUE: I2C_EERPOM_ReadByte16:timeout <- undef
	.loc	4 409 10                @ ../Driver/i2c_eeprom.c:409:10
	mov	r0, r4
	mov	r1, r6
	bl	I2C_GetFlagStatus
	.loc	4 409 2 is_stmt 0       @ ../Driver/i2c_eeprom.c:409:2
	cbnz	r0, .LBB8_4
.Ltmp236:
@ %bb.2:                                @   in Loop: Header=BB8_1 Depth=1
	@DEBUG_VALUE: I2C_EERPOM_ReadByte16:slave_address <- $r8
	@DEBUG_VALUE: I2C_EERPOM_ReadByte16:data_address <- $r9
	@DEBUG_VALUE: I2C_EERPOM_ReadByte16:timeout <- [DW_OP_constu 1, DW_OP_minus, DW_OP_stack_value] undef
	.loc	4 411 14 is_stmt 1      @ ../Driver/i2c_eeprom.c:411:14
	adds	r5, #1
.Ltmp237:
	.loc	4 411 6 is_stmt 0       @ ../Driver/i2c_eeprom.c:411:6
	bne	.LBB8_1
.Ltmp238:
@ %bb.3:
	@DEBUG_VALUE: I2C_EERPOM_ReadByte16:slave_address <- $r8
	@DEBUG_VALUE: I2C_EERPOM_ReadByte16:data_address <- $r9
	.loc	4 0 6                   @ ../Driver/i2c_eeprom.c:0:6
	mvn	r0, #6
.Ltmp239:
	.loc	4 412 15 is_stmt 1      @ ../Driver/i2c_eeprom.c:412:15
	adds	r5, r0, #6
	b	.LBB8_21
.Ltmp240:
.LBB8_4:
	@DEBUG_VALUE: I2C_EERPOM_ReadByte16:slave_address <- $r8
	@DEBUG_VALUE: I2C_EERPOM_ReadByte16:data_address <- $r9
	.loc	4 415 2                 @ ../Driver/i2c_eeprom.c:415:2
	mov	r0, r4
	movs	r1, #0
	bl	I2C_AcknowledgeConfig
	.loc	4 416 2                 @ ../Driver/i2c_eeprom.c:416:2
	mov	r0, r4
	mov	r1, r8
	movs	r2, #0
	bl	I2C_Send7bitAddress
	mvn	r5, #12288
.Ltmp241:
	@DEBUG_VALUE: I2C_EERPOM_ReadByte16:timeout <- 12288
	.loc	4 0 2 is_stmt 0         @ ../Driver/i2c_eeprom.c:0:2
	adds	r7, r6, #1
.Ltmp242:
.LBB8_5:                                @ =>This Inner Loop Header: Depth=1
	@DEBUG_VALUE: I2C_EERPOM_ReadByte16:slave_address <- $r8
	@DEBUG_VALUE: I2C_EERPOM_ReadByte16:data_address <- $r9
	@DEBUG_VALUE: I2C_EERPOM_ReadByte16:timeout <- undef
	.loc	4 419 10 is_stmt 1      @ ../Driver/i2c_eeprom.c:419:10
	mov	r0, r4
	mov	r1, r7
	bl	I2C_GetFlagStatus
	.loc	4 419 2 is_stmt 0       @ ../Driver/i2c_eeprom.c:419:2
	cbnz	r0, .LBB8_8
.Ltmp243:
@ %bb.6:                                @   in Loop: Header=BB8_5 Depth=1
	@DEBUG_VALUE: I2C_EERPOM_ReadByte16:slave_address <- $r8
	@DEBUG_VALUE: I2C_EERPOM_ReadByte16:data_address <- $r9
	@DEBUG_VALUE: I2C_EERPOM_ReadByte16:timeout <- [DW_OP_constu 1, DW_OP_minus, DW_OP_stack_value] undef
	.loc	4 421 13 is_stmt 1      @ ../Driver/i2c_eeprom.c:421:13
	adds	r5, #1
.Ltmp244:
	.loc	4 421 6 is_stmt 0       @ ../Driver/i2c_eeprom.c:421:6
	bne	.LBB8_5
.Ltmp245:
@ %bb.7:
	@DEBUG_VALUE: I2C_EERPOM_ReadByte16:slave_address <- $r8
	@DEBUG_VALUE: I2C_EERPOM_ReadByte16:data_address <- $r9
	.loc	4 0 6                   @ ../Driver/i2c_eeprom.c:0:6
	mvn	r0, #6
.Ltmp246:
	.loc	4 422 15 is_stmt 1      @ ../Driver/i2c_eeprom.c:422:15
	adds	r5, r0, #5
	b	.LBB8_21
.Ltmp247:
.LBB8_8:
	@DEBUG_VALUE: I2C_EERPOM_ReadByte16:slave_address <- $r8
	@DEBUG_VALUE: I2C_EERPOM_ReadByte16:data_address <- $r9
	.loc	4 0 15 is_stmt 0        @ ../Driver/i2c_eeprom.c:0:15
	mov	r11, r6
	.loc	4 425 8 is_stmt 1       @ ../Driver/i2c_eeprom.c:425:8
	ldrh	r0, [r4, #24]
	mvn	r5, #12288
.Ltmp248:
	@DEBUG_VALUE: I2C_EERPOM_ReadByte16:timeout <- 12288
	.loc	4 0 8 is_stmt 0         @ ../Driver/i2c_eeprom.c:0:8
	adds	r6, #127
.Ltmp249:
.LBB8_9:                                @ =>This Inner Loop Header: Depth=1
	@DEBUG_VALUE: I2C_EERPOM_ReadByte16:slave_address <- $r8
	@DEBUG_VALUE: I2C_EERPOM_ReadByte16:data_address <- $r9
	@DEBUG_VALUE: I2C_EERPOM_ReadByte16:timeout <- undef
	.loc	4 428 10 is_stmt 1      @ ../Driver/i2c_eeprom.c:428:10
	mov	r0, r4
	mov	r1, r6
	bl	I2C_GetFlagStatus
	.loc	4 428 2 is_stmt 0       @ ../Driver/i2c_eeprom.c:428:2
	cbnz	r0, .LBB8_12
.Ltmp250:
@ %bb.10:                               @   in Loop: Header=BB8_9 Depth=1
	@DEBUG_VALUE: I2C_EERPOM_ReadByte16:slave_address <- $r8
	@DEBUG_VALUE: I2C_EERPOM_ReadByte16:data_address <- $r9
	@DEBUG_VALUE: I2C_EERPOM_ReadByte16:timeout <- [DW_OP_constu 1, DW_OP_minus, DW_OP_stack_value] undef
	.loc	4 430 14 is_stmt 1      @ ../Driver/i2c_eeprom.c:430:14
	adds	r5, #1
.Ltmp251:
	.loc	4 430 6 is_stmt 0       @ ../Driver/i2c_eeprom.c:430:6
	bne	.LBB8_9
.Ltmp252:
@ %bb.11:
	@DEBUG_VALUE: I2C_EERPOM_ReadByte16:slave_address <- $r8
	@DEBUG_VALUE: I2C_EERPOM_ReadByte16:data_address <- $r9
	.loc	4 0 6                   @ ../Driver/i2c_eeprom.c:0:6
	mvn	r0, #6
.Ltmp253:
	.loc	4 431 15 is_stmt 1      @ ../Driver/i2c_eeprom.c:431:15
	adds	r5, r0, #4
	b	.LBB8_21
.Ltmp254:
.LBB8_12:
	@DEBUG_VALUE: I2C_EERPOM_ReadByte16:slave_address <- $r8
	@DEBUG_VALUE: I2C_EERPOM_ReadByte16:data_address <- $r9
	.loc	4 434 2                 @ ../Driver/i2c_eeprom.c:434:2
	mov	r0, r4
	mov	r1, r10
	bl	I2C_SendData
	mvn	r5, #12288
.Ltmp255:
	@DEBUG_VALUE: I2C_EERPOM_ReadByte16:timeout <- 12288
	.loc	4 0 2 is_stmt 0         @ ../Driver/i2c_eeprom.c:0:2
	add.w	r10, r11, #3
	mov	r0, r11
.Ltmp256:
.LBB8_13:                               @ =>This Inner Loop Header: Depth=1
	@DEBUG_VALUE: I2C_EERPOM_ReadByte16:slave_address <- $r8
	@DEBUG_VALUE: I2C_EERPOM_ReadByte16:data_address <- $r9
	@DEBUG_VALUE: I2C_EERPOM_ReadByte16:timeout <- undef
	.loc	4 437 11 is_stmt 1      @ ../Driver/i2c_eeprom.c:437:11
	mov	r0, r4
	mov	r1, r6
	bl	I2C_GetFlagStatus
	.loc	4 437 50 is_stmt 0      @ ../Driver/i2c_eeprom.c:437:50
	cbz	r0, .LBB8_15
.Ltmp257:
@ %bb.14:                               @   in Loop: Header=BB8_13 Depth=1
	@DEBUG_VALUE: I2C_EERPOM_ReadByte16:slave_address <- $r8
	@DEBUG_VALUE: I2C_EERPOM_ReadByte16:data_address <- $r9
	.loc	4 437 55                @ ../Driver/i2c_eeprom.c:437:55
	mov	r0, r4
	mov	r1, r10
	bl	I2C_GetFlagStatus
	.loc	4 437 2                 @ ../Driver/i2c_eeprom.c:437:2
	cbnz	r0, .LBB8_16
.Ltmp258:
.LBB8_15:                               @   in Loop: Header=BB8_13 Depth=1
	@DEBUG_VALUE: I2C_EERPOM_ReadByte16:slave_address <- $r8
	@DEBUG_VALUE: I2C_EERPOM_ReadByte16:data_address <- $r9
	@DEBUG_VALUE: I2C_EERPOM_ReadByte16:timeout <- [DW_OP_constu 1, DW_OP_minus, DW_OP_stack_value] undef
	.loc	4 439 14 is_stmt 1      @ ../Driver/i2c_eeprom.c:439:14
	adds	r5, #1
.Ltmp259:
	.loc	4 439 6 is_stmt 0       @ ../Driver/i2c_eeprom.c:439:6
	bne	.LBB8_13
	b	.LBB8_20
.Ltmp260:
.LBB8_16:
	@DEBUG_VALUE: I2C_EERPOM_ReadByte16:slave_address <- $r8
	@DEBUG_VALUE: I2C_EERPOM_ReadByte16:data_address <- $r9
	.loc	4 443 2 is_stmt 1       @ ../Driver/i2c_eeprom.c:443:2
	uxtb.w	r1, r9
	mov	r0, r4
	bl	I2C_SendData
	mvn	r5, #12288
.Ltmp261:
	@DEBUG_VALUE: I2C_EERPOM_ReadByte16:timeout <- 12288
.LBB8_17:                               @ =>This Inner Loop Header: Depth=1
	@DEBUG_VALUE: I2C_EERPOM_ReadByte16:slave_address <- $r8
	@DEBUG_VALUE: I2C_EERPOM_ReadByte16:data_address <- $r9
	@DEBUG_VALUE: I2C_EERPOM_ReadByte16:timeout <- undef
	.loc	4 446 11                @ ../Driver/i2c_eeprom.c:446:11
	mov	r0, r4
	mov	r1, r6
	bl	I2C_GetFlagStatus
	.loc	4 446 50 is_stmt 0      @ ../Driver/i2c_eeprom.c:446:50
	cbz	r0, .LBB8_19
.Ltmp262:
@ %bb.18:                               @   in Loop: Header=BB8_17 Depth=1
	@DEBUG_VALUE: I2C_EERPOM_ReadByte16:slave_address <- $r8
	@DEBUG_VALUE: I2C_EERPOM_ReadByte16:data_address <- $r9
	.loc	4 446 55                @ ../Driver/i2c_eeprom.c:446:55
	mov	r0, r4
	mov	r1, r10
	bl	I2C_GetFlagStatus
	.loc	4 446 2                 @ ../Driver/i2c_eeprom.c:446:2
	cbnz	r0, .LBB8_23
.Ltmp263:
.LBB8_19:                               @   in Loop: Header=BB8_17 Depth=1
	@DEBUG_VALUE: I2C_EERPOM_ReadByte16:slave_address <- $r8
	@DEBUG_VALUE: I2C_EERPOM_ReadByte16:data_address <- $r9
	@DEBUG_VALUE: I2C_EERPOM_ReadByte16:timeout <- [DW_OP_constu 1, DW_OP_minus, DW_OP_stack_value] undef
	.loc	4 448 14 is_stmt 1      @ ../Driver/i2c_eeprom.c:448:14
	adds	r5, #1
.Ltmp264:
	.loc	4 448 6 is_stmt 0       @ ../Driver/i2c_eeprom.c:448:6
	bne	.LBB8_17
.Ltmp265:
.LBB8_20:
	@DEBUG_VALUE: I2C_EERPOM_ReadByte16:slave_address <- $r8
	@DEBUG_VALUE: I2C_EERPOM_ReadByte16:data_address <- $r9
	.loc	4 0 6                   @ ../Driver/i2c_eeprom.c:0:6
	mvn	r0, #6
	adds	r5, r0, #3
.Ltmp266:
.LBB8_21:
	@DEBUG_VALUE: I2C_EERPOM_ReadByte16:slave_address <- $r8
	@DEBUG_VALUE: I2C_EERPOM_ReadByte16:data_address <- $r9
	mov	r0, r5
	bl	I2C_EEPROM_timeout
.Ltmp267:
.LBB8_22:
	@DEBUG_VALUE: I2C_EERPOM_ReadByte16:slave_address <- $r8
	@DEBUG_VALUE: I2C_EERPOM_ReadByte16:data_address <- $r9
	.loc	4 484 1 is_stmt 1       @ ../Driver/i2c_eeprom.c:484:1
	sxth	r0, r5
	add	sp, #4
	pop.w	{r4, r5, r6, r7, r8, r9, r10, r11, pc}
.Ltmp268:
.LBB8_23:
	@DEBUG_VALUE: I2C_EERPOM_ReadByte16:slave_address <- $r8
	@DEBUG_VALUE: I2C_EERPOM_ReadByte16:data_address <- $r9
	.loc	4 452 2                 @ ../Driver/i2c_eeprom.c:452:2
	mov	r0, r4
	movs	r1, #1
	bl	I2C_GenerateSTART
	mvn	r5, #12288
.Ltmp269:
	@DEBUG_VALUE: I2C_EERPOM_ReadByte16:timeout <- 12288
	.loc	4 0 2 is_stmt 0         @ ../Driver/i2c_eeprom.c:0:2
	mov	r6, r11
.Ltmp270:
.LBB8_24:                               @ =>This Inner Loop Header: Depth=1
	@DEBUG_VALUE: I2C_EERPOM_ReadByte16:slave_address <- $r8
	@DEBUG_VALUE: I2C_EERPOM_ReadByte16:data_address <- $r9
	@DEBUG_VALUE: I2C_EERPOM_ReadByte16:timeout <- undef
	.loc	4 455 10 is_stmt 1      @ ../Driver/i2c_eeprom.c:455:10
	mov	r0, r4
	mov	r1, r6
	bl	I2C_GetFlagStatus
	.loc	4 455 2 is_stmt 0       @ ../Driver/i2c_eeprom.c:455:2
	cbnz	r0, .LBB8_27
.Ltmp271:
@ %bb.25:                               @   in Loop: Header=BB8_24 Depth=1
	@DEBUG_VALUE: I2C_EERPOM_ReadByte16:slave_address <- $r8
	@DEBUG_VALUE: I2C_EERPOM_ReadByte16:data_address <- $r9
	@DEBUG_VALUE: I2C_EERPOM_ReadByte16:timeout <- [DW_OP_constu 1, DW_OP_minus, DW_OP_stack_value] undef
	.loc	4 457 14 is_stmt 1      @ ../Driver/i2c_eeprom.c:457:14
	adds	r5, #1
.Ltmp272:
	.loc	4 457 6 is_stmt 0       @ ../Driver/i2c_eeprom.c:457:6
	bne	.LBB8_24
.Ltmp273:
@ %bb.26:
	@DEBUG_VALUE: I2C_EERPOM_ReadByte16:slave_address <- $r8
	@DEBUG_VALUE: I2C_EERPOM_ReadByte16:data_address <- $r9
	.loc	4 0 6                   @ ../Driver/i2c_eeprom.c:0:6
	mvn	r0, #6
.Ltmp274:
	.loc	4 458 15 is_stmt 1      @ ../Driver/i2c_eeprom.c:458:15
	adds	r5, r0, #2
	b	.LBB8_21
.Ltmp275:
.LBB8_27:
	@DEBUG_VALUE: I2C_EERPOM_ReadByte16:slave_address <- $r8
	@DEBUG_VALUE: I2C_EERPOM_ReadByte16:data_address <- $r9
	.loc	4 461 2                 @ ../Driver/i2c_eeprom.c:461:2
	mov	r0, r4
	mov	r1, r8
	movs	r2, #1
	bl	I2C_Send7bitAddress
	mvn	r5, #12288
.Ltmp276:
	@DEBUG_VALUE: I2C_EERPOM_ReadByte16:timeout <- 12288
.LBB8_28:                               @ =>This Inner Loop Header: Depth=1
	@DEBUG_VALUE: I2C_EERPOM_ReadByte16:slave_address <- $r8
	@DEBUG_VALUE: I2C_EERPOM_ReadByte16:data_address <- $r9
	@DEBUG_VALUE: I2C_EERPOM_ReadByte16:timeout <- undef
	.loc	4 464 10                @ ../Driver/i2c_eeprom.c:464:10
	mov	r0, r4
	mov	r1, r7
	bl	I2C_GetFlagStatus
	.loc	4 464 2 is_stmt 0       @ ../Driver/i2c_eeprom.c:464:2
	cbnz	r0, .LBB8_31
.Ltmp277:
@ %bb.29:                               @   in Loop: Header=BB8_28 Depth=1
	@DEBUG_VALUE: I2C_EERPOM_ReadByte16:slave_address <- $r8
	@DEBUG_VALUE: I2C_EERPOM_ReadByte16:data_address <- $r9
	@DEBUG_VALUE: I2C_EERPOM_ReadByte16:timeout <- [DW_OP_constu 1, DW_OP_minus, DW_OP_stack_value] undef
	.loc	4 466 14 is_stmt 1      @ ../Driver/i2c_eeprom.c:466:14
	adds	r5, #1
.Ltmp278:
	.loc	4 466 6 is_stmt 0       @ ../Driver/i2c_eeprom.c:466:6
	bne	.LBB8_28
.Ltmp279:
@ %bb.30:
	@DEBUG_VALUE: I2C_EERPOM_ReadByte16:slave_address <- $r8
	@DEBUG_VALUE: I2C_EERPOM_ReadByte16:data_address <- $r9
	.loc	4 0 6                   @ ../Driver/i2c_eeprom.c:0:6
	mvn	r0, #6
.Ltmp280:
	.loc	4 467 15 is_stmt 1      @ ../Driver/i2c_eeprom.c:467:15
	adds	r5, r0, #1
	b	.LBB8_21
.Ltmp281:
.LBB8_31:
	@DEBUG_VALUE: I2C_EERPOM_ReadByte16:slave_address <- $r8
	@DEBUG_VALUE: I2C_EERPOM_ReadByte16:data_address <- $r9
	.loc	4 471 8                 @ ../Driver/i2c_eeprom.c:471:8
	ldrh	r0, [r4, #24]
	mov	r0, r6
	mvn	r6, #12288
.Ltmp282:
	@DEBUG_VALUE: I2C_EERPOM_ReadByte16:timeout <- 12288
	.loc	4 0 8 is_stmt 0         @ ../Driver/i2c_eeprom.c:0:8
	add.w	r5, r0, #63
.Ltmp283:
.LBB8_32:                               @ =>This Inner Loop Header: Depth=1
	@DEBUG_VALUE: I2C_EERPOM_ReadByte16:slave_address <- $r8
	@DEBUG_VALUE: I2C_EERPOM_ReadByte16:data_address <- $r9
	@DEBUG_VALUE: I2C_EERPOM_ReadByte16:timeout <- undef
	.loc	4 474 10 is_stmt 1      @ ../Driver/i2c_eeprom.c:474:10
	mov	r0, r4
	mov	r1, r5
	bl	I2C_GetFlagStatus
	.loc	4 474 2 is_stmt 0       @ ../Driver/i2c_eeprom.c:474:2
	cbnz	r0, .LBB8_35
.Ltmp284:
@ %bb.33:                               @   in Loop: Header=BB8_32 Depth=1
	@DEBUG_VALUE: I2C_EERPOM_ReadByte16:slave_address <- $r8
	@DEBUG_VALUE: I2C_EERPOM_ReadByte16:data_address <- $r9
	@DEBUG_VALUE: I2C_EERPOM_ReadByte16:timeout <- [DW_OP_constu 1, DW_OP_minus, DW_OP_stack_value] undef
	.loc	4 476 14 is_stmt 1      @ ../Driver/i2c_eeprom.c:476:14
	adds	r6, #1
.Ltmp285:
	.loc	4 476 6 is_stmt 0       @ ../Driver/i2c_eeprom.c:476:6
	bne	.LBB8_32
.Ltmp286:
@ %bb.34:
	@DEBUG_VALUE: I2C_EERPOM_ReadByte16:slave_address <- $r8
	@DEBUG_VALUE: I2C_EERPOM_ReadByte16:data_address <- $r9
	.loc	4 477 15 is_stmt 1      @ ../Driver/i2c_eeprom.c:477:15
	mvn	r0, #6
	bl	I2C_EEPROM_timeout
	movw	r5, #65529
	b	.LBB8_22
.Ltmp287:
.LBB8_35:
	@DEBUG_VALUE: I2C_EERPOM_ReadByte16:slave_address <- $r8
	@DEBUG_VALUE: I2C_EERPOM_ReadByte16:data_address <- $r9
	.loc	4 480 2                 @ ../Driver/i2c_eeprom.c:480:2
	mov	r0, r4
	movs	r1, #1
	bl	I2C_GenerateSTOP
	.loc	4 481 23                @ ../Driver/i2c_eeprom.c:481:23
	mov	r0, r4
	bl	I2C_ReceiveData
	mov	r5, r0
.Ltmp288:
	@DEBUG_VALUE: I2C_EERPOM_ReadByte16:ret_data <- undef
	.loc	4 482 2                 @ ../Driver/i2c_eeprom.c:482:2
	mov	r0, r4
	movs	r1, #1
	bl	I2C_AcknowledgeConfig
	b	.LBB8_22
.Ltmp289:
	.p2align	2
@ %bb.36:
	.loc	4 0 2 is_stmt 0         @ ../Driver/i2c_eeprom.c:0:2
__arm_cp.8_0:
	.long	1073764352              @ 0x40005800
.Lcpi_end18:
	.size	__arm_cp.8_0, .Lcpi_end18-__arm_cp.8_0
__arm_cp.8_1:
	.long	268435457               @ 0x10000001
.Lcpi_end19:
	.size	__arm_cp.8_1, .Lcpi_end19-__arm_cp.8_1
.Lfunc_end8:
	.size	I2C_EERPOM_ReadByte16, .Lfunc_end8-I2C_EERPOM_ReadByte16
	.cfi_endproc
	.cantunwind
	.fnend
                                        @ -- End function
	.section	.text.I2C_EERPOM_WriteByte16,"ax",%progbits
	.hidden	I2C_EERPOM_WriteByte16  @ -- Begin function I2C_EERPOM_WriteByte16
	.globl	I2C_EERPOM_WriteByte16
	.p2align	2
	.type	I2C_EERPOM_WriteByte16,%function
	.code	16                      @ @I2C_EERPOM_WriteByte16
	.thumb_func
I2C_EERPOM_WriteByte16:
.Lfunc_begin9:
	.loc	4 488 0 is_stmt 1       @ ../Driver/i2c_eeprom.c:488:0
	.fnstart
	.cfi_startproc
@ %bb.0:
	.save	{r4, r5, r6, r7, r8, r9, r10, lr}
	push.w	{r4, r5, r6, r7, r8, r9, r10, lr}
	.cfi_def_cfa_offset 32
	.cfi_offset lr, -4
	.cfi_offset r10, -8
	.cfi_offset r9, -12
	.cfi_offset r8, -16
	.cfi_offset r7, -20
	.cfi_offset r6, -24
	.cfi_offset r5, -28
	.cfi_offset r4, -32
	@DEBUG_VALUE: I2C_EERPOM_WriteByte16:slave_address <- $r0
	@DEBUG_VALUE: I2C_EERPOM_WriteByte16:data_address <- $r1
	@DEBUG_VALUE: I2C_EERPOM_WriteByte16:data <- $r2
	ldr	r4, __arm_cp.9_0
	mov	r10, r1
	mov	r5, r0
.Ltmp290:
	@DEBUG_VALUE: I2C_EERPOM_WriteByte16:data <- $r8
	@DEBUG_VALUE: I2C_EERPOM_WriteByte16:data_address <- $r10
	@DEBUG_VALUE: I2C_EERPOM_WriteByte16:slave_address <- $r5
	.loc	4 495 2 prologue_end    @ ../Driver/i2c_eeprom.c:495:2
	movs	r1, #1
	mov	r8, r2
.Ltmp291:
	mov	r0, r4
	bl	I2C_GenerateSTART
.Ltmp292:
	@DEBUG_VALUE: I2C_EERPOM_WriteByte16:timeout <- 12288
	@DEBUG_VALUE: I2C_EERPOM_WriteByte16:ret_data <- 0
	.loc	4 0 2 is_stmt 0         @ ../Driver/i2c_eeprom.c:0:2
	ldr	r6, __arm_cp.9_1
	.loc	4 494 7 is_stmt 1       @ ../Driver/i2c_eeprom.c:494:7
	lsr.w	r9, r10, #8
	mvn	r7, #12288
.Ltmp293:
.LBB9_1:                                @ =>This Inner Loop Header: Depth=1
	@DEBUG_VALUE: I2C_EERPOM_WriteByte16:slave_address <- $r5
	@DEBUG_VALUE: I2C_EERPOM_WriteByte16:data_address <- $r10
	@DEBUG_VALUE: I2C_EERPOM_WriteByte16:timeout <- undef
	.loc	4 498 10                @ ../Driver/i2c_eeprom.c:498:10
	mov	r0, r4
	mov	r1, r6
	bl	I2C_GetFlagStatus
	.loc	4 498 2 is_stmt 0       @ ../Driver/i2c_eeprom.c:498:2
	cbnz	r0, .LBB9_4
.Ltmp294:
@ %bb.2:                                @   in Loop: Header=BB9_1 Depth=1
	@DEBUG_VALUE: I2C_EERPOM_WriteByte16:slave_address <- $r5
	@DEBUG_VALUE: I2C_EERPOM_WriteByte16:data_address <- $r10
	@DEBUG_VALUE: I2C_EERPOM_WriteByte16:timeout <- [DW_OP_constu 1, DW_OP_minus, DW_OP_stack_value] undef
	.loc	4 500 14 is_stmt 1      @ ../Driver/i2c_eeprom.c:500:14
	adds	r7, #1
.Ltmp295:
	.loc	4 500 6 is_stmt 0       @ ../Driver/i2c_eeprom.c:500:6
	bne	.LBB9_1
.Ltmp296:
@ %bb.3:
	@DEBUG_VALUE: I2C_EERPOM_WriteByte16:slave_address <- $r5
	@DEBUG_VALUE: I2C_EERPOM_WriteByte16:data_address <- $r10
	.loc	4 0 6                   @ ../Driver/i2c_eeprom.c:0:6
	mvn	r0, #4
.Ltmp297:
	.loc	4 501 15 is_stmt 1      @ ../Driver/i2c_eeprom.c:501:15
	adds	r0, #4
	b	.LBB9_19
.Ltmp298:
.LBB9_4:
	@DEBUG_VALUE: I2C_EERPOM_WriteByte16:slave_address <- $r5
	@DEBUG_VALUE: I2C_EERPOM_WriteByte16:data_address <- $r10
	.loc	4 504 2                 @ ../Driver/i2c_eeprom.c:504:2
	mov	r0, r4
	mov	r1, r5
	movs	r2, #0
	bl	I2C_Send7bitAddress
	mvn	r7, #12288
.Ltmp299:
	@DEBUG_VALUE: I2C_EERPOM_WriteByte16:timeout <- 12288
	.loc	4 0 2 is_stmt 0         @ ../Driver/i2c_eeprom.c:0:2
	adds	r5, r6, #1
.Ltmp300:
.LBB9_5:                                @ =>This Inner Loop Header: Depth=1
	@DEBUG_VALUE: I2C_EERPOM_WriteByte16:data_address <- $r10
	@DEBUG_VALUE: I2C_EERPOM_WriteByte16:timeout <- undef
	.loc	4 507 10 is_stmt 1      @ ../Driver/i2c_eeprom.c:507:10
	mov	r0, r4
	mov	r1, r5
	bl	I2C_GetFlagStatus
	.loc	4 507 2 is_stmt 0       @ ../Driver/i2c_eeprom.c:507:2
	cbnz	r0, .LBB9_8
.Ltmp301:
@ %bb.6:                                @   in Loop: Header=BB9_5 Depth=1
	@DEBUG_VALUE: I2C_EERPOM_WriteByte16:data_address <- $r10
	@DEBUG_VALUE: I2C_EERPOM_WriteByte16:timeout <- [DW_OP_constu 1, DW_OP_minus, DW_OP_stack_value] undef
	.loc	4 509 14 is_stmt 1      @ ../Driver/i2c_eeprom.c:509:14
	adds	r7, #1
.Ltmp302:
	.loc	4 509 6 is_stmt 0       @ ../Driver/i2c_eeprom.c:509:6
	bne	.LBB9_5
.Ltmp303:
@ %bb.7:
	@DEBUG_VALUE: I2C_EERPOM_WriteByte16:data_address <- $r10
	.loc	4 0 6                   @ ../Driver/i2c_eeprom.c:0:6
	mvn	r0, #4
.Ltmp304:
	.loc	4 510 15 is_stmt 1      @ ../Driver/i2c_eeprom.c:510:15
	adds	r0, #3
	b	.LBB9_19
.Ltmp305:
.LBB9_8:
	@DEBUG_VALUE: I2C_EERPOM_WriteByte16:data_address <- $r10
	.loc	4 513 8                 @ ../Driver/i2c_eeprom.c:513:8
	ldrh	r0, [r4, #24]
	mvn	r7, #12288
.Ltmp306:
	@DEBUG_VALUE: I2C_EERPOM_WriteByte16:timeout <- 12288
	.loc	4 0 8 is_stmt 0         @ ../Driver/i2c_eeprom.c:0:8
	add.w	r5, r6, #127
.Ltmp307:
.LBB9_9:                                @ =>This Inner Loop Header: Depth=1
	@DEBUG_VALUE: I2C_EERPOM_WriteByte16:data_address <- $r10
	@DEBUG_VALUE: I2C_EERPOM_WriteByte16:timeout <- undef
	.loc	4 516 10 is_stmt 1      @ ../Driver/i2c_eeprom.c:516:10
	mov	r0, r4
	mov	r1, r5
	bl	I2C_GetFlagStatus
	.loc	4 516 2 is_stmt 0       @ ../Driver/i2c_eeprom.c:516:2
	cbnz	r0, .LBB9_12
.Ltmp308:
@ %bb.10:                               @   in Loop: Header=BB9_9 Depth=1
	@DEBUG_VALUE: I2C_EERPOM_WriteByte16:data_address <- $r10
	@DEBUG_VALUE: I2C_EERPOM_WriteByte16:timeout <- [DW_OP_constu 1, DW_OP_minus, DW_OP_stack_value] undef
	.loc	4 518 14 is_stmt 1      @ ../Driver/i2c_eeprom.c:518:14
	adds	r7, #1
.Ltmp309:
	.loc	4 518 6 is_stmt 0       @ ../Driver/i2c_eeprom.c:518:6
	bne	.LBB9_9
.Ltmp310:
@ %bb.11:
	@DEBUG_VALUE: I2C_EERPOM_WriteByte16:data_address <- $r10
	.loc	4 0 6                   @ ../Driver/i2c_eeprom.c:0:6
	mvn	r0, #4
.Ltmp311:
	.loc	4 519 15 is_stmt 1      @ ../Driver/i2c_eeprom.c:519:15
	adds	r0, #2
	b	.LBB9_19
.Ltmp312:
.LBB9_12:
	@DEBUG_VALUE: I2C_EERPOM_WriteByte16:data_address <- $r10
	.loc	4 522 2                 @ ../Driver/i2c_eeprom.c:522:2
	mov	r0, r4
	mov	r1, r9
	bl	I2C_SendData
	mvn	r7, #12288
.Ltmp313:
	@DEBUG_VALUE: I2C_EERPOM_WriteByte16:timeout <- 12288
.LBB9_13:                               @ =>This Inner Loop Header: Depth=1
	@DEBUG_VALUE: I2C_EERPOM_WriteByte16:data_address <- $r10
	@DEBUG_VALUE: I2C_EERPOM_WriteByte16:timeout <- undef
	.loc	4 525 10                @ ../Driver/i2c_eeprom.c:525:10
	mov	r0, r4
	mov	r1, r5
	bl	I2C_GetFlagStatus
	.loc	4 525 2 is_stmt 0       @ ../Driver/i2c_eeprom.c:525:2
	cbnz	r0, .LBB9_15
.Ltmp314:
@ %bb.14:                               @   in Loop: Header=BB9_13 Depth=1
	@DEBUG_VALUE: I2C_EERPOM_WriteByte16:data_address <- $r10
	@DEBUG_VALUE: I2C_EERPOM_WriteByte16:timeout <- [DW_OP_constu 1, DW_OP_minus, DW_OP_stack_value] undef
	.loc	4 527 14 is_stmt 1      @ ../Driver/i2c_eeprom.c:527:14
	adds	r7, #1
.Ltmp315:
	.loc	4 527 6 is_stmt 0       @ ../Driver/i2c_eeprom.c:527:6
	bne	.LBB9_13
	b	.LBB9_18
.Ltmp316:
.LBB9_15:
	@DEBUG_VALUE: I2C_EERPOM_WriteByte16:data_address <- $r10
	.loc	4 531 2 is_stmt 1       @ ../Driver/i2c_eeprom.c:531:2
	uxtb.w	r1, r10
	mov	r0, r4
	bl	I2C_SendData
	mvn	r7, #12288
.Ltmp317:
	@DEBUG_VALUE: I2C_EERPOM_WriteByte16:timeout <- 12288
.LBB9_16:                               @ =>This Inner Loop Header: Depth=1
	@DEBUG_VALUE: I2C_EERPOM_WriteByte16:data_address <- $r10
	@DEBUG_VALUE: I2C_EERPOM_WriteByte16:timeout <- undef
	.loc	4 534 10                @ ../Driver/i2c_eeprom.c:534:10
	mov	r0, r4
	mov	r1, r5
	bl	I2C_GetFlagStatus
	.loc	4 534 2 is_stmt 0       @ ../Driver/i2c_eeprom.c:534:2
	cbnz	r0, .LBB9_21
.Ltmp318:
@ %bb.17:                               @   in Loop: Header=BB9_16 Depth=1
	@DEBUG_VALUE: I2C_EERPOM_WriteByte16:data_address <- $r10
	@DEBUG_VALUE: I2C_EERPOM_WriteByte16:timeout <- [DW_OP_constu 1, DW_OP_minus, DW_OP_stack_value] undef
	.loc	4 536 14 is_stmt 1      @ ../Driver/i2c_eeprom.c:536:14
	adds	r7, #1
.Ltmp319:
	.loc	4 536 6 is_stmt 0       @ ../Driver/i2c_eeprom.c:536:6
	bne	.LBB9_16
.Ltmp320:
.LBB9_18:
	@DEBUG_VALUE: I2C_EERPOM_WriteByte16:data_address <- $r10
	.loc	4 0 6                   @ ../Driver/i2c_eeprom.c:0:6
	mvn	r0, #4
	adds	r0, #1
.Ltmp321:
.LBB9_19:
	@DEBUG_VALUE: I2C_EERPOM_WriteByte16:data_address <- $r10
	bl	I2C_EEPROM_timeout
.Ltmp322:
.LBB9_20:
	@DEBUG_VALUE: I2C_EERPOM_WriteByte16:data_address <- $r10
	.loc	4 552 1 is_stmt 1       @ ../Driver/i2c_eeprom.c:552:1
	sxth	r0, r0
	pop.w	{r4, r5, r6, r7, r8, r9, r10, pc}
.Ltmp323:
.LBB9_21:
	@DEBUG_VALUE: I2C_EERPOM_WriteByte16:data_address <- $r10
	.loc	4 540 2                 @ ../Driver/i2c_eeprom.c:540:2
	mov	r0, r4
	mov	r1, r8
	bl	I2C_SendData
	mvn	r7, #12288
.Ltmp324:
	@DEBUG_VALUE: I2C_EERPOM_WriteByte16:timeout <- 12288
	.loc	4 0 2 is_stmt 0         @ ../Driver/i2c_eeprom.c:0:2
	adds	r6, #3
.Ltmp325:
.LBB9_22:                               @ =>This Inner Loop Header: Depth=1
	@DEBUG_VALUE: I2C_EERPOM_WriteByte16:data_address <- $r10
	@DEBUG_VALUE: I2C_EERPOM_WriteByte16:timeout <- undef
	.loc	4 543 11 is_stmt 1      @ ../Driver/i2c_eeprom.c:543:11
	mov	r0, r4
	mov	r1, r5
	bl	I2C_GetFlagStatus
	.loc	4 543 50 is_stmt 0      @ ../Driver/i2c_eeprom.c:543:50
	cbz	r0, .LBB9_24
.Ltmp326:
@ %bb.23:                               @   in Loop: Header=BB9_22 Depth=1
	@DEBUG_VALUE: I2C_EERPOM_WriteByte16:data_address <- $r10
	.loc	4 543 55                @ ../Driver/i2c_eeprom.c:543:55
	mov	r0, r4
	mov	r1, r6
	bl	I2C_GetFlagStatus
	.loc	4 543 2                 @ ../Driver/i2c_eeprom.c:543:2
	cbnz	r0, .LBB9_26
.Ltmp327:
.LBB9_24:                               @   in Loop: Header=BB9_22 Depth=1
	@DEBUG_VALUE: I2C_EERPOM_WriteByte16:data_address <- $r10
	@DEBUG_VALUE: I2C_EERPOM_WriteByte16:timeout <- [DW_OP_constu 1, DW_OP_minus, DW_OP_stack_value] undef
	.loc	4 545 14 is_stmt 1      @ ../Driver/i2c_eeprom.c:545:14
	adds	r7, #1
.Ltmp328:
	.loc	4 545 6 is_stmt 0       @ ../Driver/i2c_eeprom.c:545:6
	bne	.LBB9_22
.Ltmp329:
@ %bb.25:
	@DEBUG_VALUE: I2C_EERPOM_WriteByte16:data_address <- $r10
	.loc	4 546 15 is_stmt 1      @ ../Driver/i2c_eeprom.c:546:15
	mvn	r0, #4
	bl	I2C_EEPROM_timeout
	movw	r0, #65531
	b	.LBB9_20
.Ltmp330:
.LBB9_26:
	@DEBUG_VALUE: I2C_EERPOM_WriteByte16:data_address <- $r10
	.loc	4 549 2                 @ ../Driver/i2c_eeprom.c:549:2
	mov	r0, r4
	movs	r1, #1
	bl	I2C_GenerateSTOP
	movs	r0, #0
	@DEBUG_VALUE: I2C_EERPOM_WriteByte16:ret_data <- 0
	b	.LBB9_20
.Ltmp331:
	.p2align	2
@ %bb.27:
	.loc	4 0 2 is_stmt 0         @ ../Driver/i2c_eeprom.c:0:2
__arm_cp.9_0:
	.long	1073764352              @ 0x40005800
.Lcpi_end20:
	.size	__arm_cp.9_0, .Lcpi_end20-__arm_cp.9_0
__arm_cp.9_1:
	.long	268435457               @ 0x10000001
.Lcpi_end21:
	.size	__arm_cp.9_1, .Lcpi_end21-__arm_cp.9_1
.Lfunc_end9:
	.size	I2C_EERPOM_WriteByte16, .Lfunc_end9-I2C_EERPOM_WriteByte16
	.cfi_endproc
	.cantunwind
	.fnend
                                        @ -- End function
	.section	.text.I2C_EERPOM_ReadBytes16,"ax",%progbits
	.hidden	I2C_EERPOM_ReadBytes16  @ -- Begin function I2C_EERPOM_ReadBytes16
	.globl	I2C_EERPOM_ReadBytes16
	.p2align	2
	.type	I2C_EERPOM_ReadBytes16,%function
	.code	16                      @ @I2C_EERPOM_ReadBytes16
	.thumb_func
I2C_EERPOM_ReadBytes16:
.Lfunc_begin10:
	.loc	4 556 0 is_stmt 1       @ ../Driver/i2c_eeprom.c:556:0
	.fnstart
	.cfi_startproc
@ %bb.0:
	.save	{r4, r5, r6, r7, r8, r9, r10, r11, lr}
	.pad	#12
	push.w	{r1, r2, r3, r4, r5, r6, r7, r8, r9, r10, r11, lr}
	.cfi_def_cfa_offset 48
	.cfi_offset lr, -4
	.cfi_offset r11, -8
	.cfi_offset r10, -12
	.cfi_offset r9, -16
	.cfi_offset r8, -20
	.cfi_offset r7, -24
	.cfi_offset r6, -28
	.cfi_offset r5, -32
	.cfi_offset r4, -36
	@DEBUG_VALUE: I2C_EERPOM_ReadBytes16:slave_address <- $r0
	@DEBUG_VALUE: I2C_EERPOM_ReadBytes16:data_address <- $r1
	@DEBUG_VALUE: I2C_EERPOM_ReadBytes16:cnt <- $r2
	movw	r8, #65528
.Ltmp332:
	@DEBUG_VALUE: I2C_EERPOM_ReadBytes16:timeout <- 12288
	@DEBUG_VALUE: I2C_EERPOM_ReadBytes16:ret_data <- 0
	.loc	4 561 5 prologue_end    @ ../Driver/i2c_eeprom.c:561:5
	cmp	r2, #0
	beq	.LBB10_23
.Ltmp333:
@ %bb.1:
	@DEBUG_VALUE: I2C_EERPOM_ReadBytes16:cnt <- $r2
	@DEBUG_VALUE: I2C_EERPOM_ReadBytes16:data_address <- $r1
	@DEBUG_VALUE: I2C_EERPOM_ReadBytes16:slave_address <- $r0
	.loc	4 0 5 is_stmt 0         @ ../Driver/i2c_eeprom.c:0:5
	ldr	r5, __arm_cp.10_0
	mov	r11, r1
.Ltmp334:
	@DEBUG_VALUE: I2C_EERPOM_ReadBytes16:data_address <- $r11
	@DEBUG_VALUE: I2C_EERPOM_ReadBytes16:data_address <- $r11
	mov	r7, r0
.Ltmp335:
	@DEBUG_VALUE: I2C_EERPOM_ReadBytes16:slave_address <- $r7
	@DEBUG_VALUE: I2C_EERPOM_ReadBytes16:slave_address <- $r7
	@DEBUG_VALUE: I2C_EERPOM_ReadBytes16:slave_address <- $r7
	.loc	4 565 2 is_stmt 1       @ ../Driver/i2c_eeprom.c:565:2
	movs	r1, #1
	mov	r9, r2
.Ltmp336:
	@DEBUG_VALUE: I2C_EERPOM_ReadBytes16:cnt <- $r9
	@DEBUG_VALUE: I2C_EERPOM_ReadBytes16:cnt <- $r9
	mov	r0, r5
	bl	I2C_GenerateSTART
	ldr	r6, __arm_cp.10_1
	@DEBUG_VALUE: I2C_EERPOM_ReadBytes16:timeout <- 12288
	.loc	4 563 7                 @ ../Driver/i2c_eeprom.c:563:7
	lsr.w	r10, r11, #8
	mvn	r4, #12288
.Ltmp337:
.LBB10_2:                               @ =>This Inner Loop Header: Depth=1
	@DEBUG_VALUE: I2C_EERPOM_ReadBytes16:cnt <- $r9
	@DEBUG_VALUE: I2C_EERPOM_ReadBytes16:slave_address <- $r7
	@DEBUG_VALUE: I2C_EERPOM_ReadBytes16:data_address <- $r11
	@DEBUG_VALUE: I2C_EERPOM_ReadBytes16:timeout <- undef
	.loc	4 568 10                @ ../Driver/i2c_eeprom.c:568:10
	mov	r0, r5
	mov	r1, r6
	bl	I2C_GetFlagStatus
	.loc	4 568 2 is_stmt 0       @ ../Driver/i2c_eeprom.c:568:2
	cbnz	r0, .LBB10_5
.Ltmp338:
@ %bb.3:                                @   in Loop: Header=BB10_2 Depth=1
	@DEBUG_VALUE: I2C_EERPOM_ReadBytes16:cnt <- $r9
	@DEBUG_VALUE: I2C_EERPOM_ReadBytes16:slave_address <- $r7
	@DEBUG_VALUE: I2C_EERPOM_ReadBytes16:data_address <- $r11
	@DEBUG_VALUE: I2C_EERPOM_ReadBytes16:timeout <- [DW_OP_constu 1, DW_OP_minus, DW_OP_stack_value] undef
	.loc	4 570 14 is_stmt 1      @ ../Driver/i2c_eeprom.c:570:14
	adds	r4, #1
.Ltmp339:
	.loc	4 570 6 is_stmt 0       @ ../Driver/i2c_eeprom.c:570:6
	bne	.LBB10_2
.Ltmp340:
@ %bb.4:
	@DEBUG_VALUE: I2C_EERPOM_ReadBytes16:cnt <- $r9
	@DEBUG_VALUE: I2C_EERPOM_ReadBytes16:slave_address <- $r7
	@DEBUG_VALUE: I2C_EERPOM_ReadBytes16:data_address <- $r11
	.loc	4 571 15 is_stmt 1      @ ../Driver/i2c_eeprom.c:571:15
	add.w	r8, r8, #7
	b	.LBB10_22
.Ltmp341:
.LBB10_5:
	@DEBUG_VALUE: I2C_EERPOM_ReadBytes16:cnt <- $r9
	@DEBUG_VALUE: I2C_EERPOM_ReadBytes16:slave_address <- $r7
	@DEBUG_VALUE: I2C_EERPOM_ReadBytes16:data_address <- $r11
	.loc	4 580 3                 @ ../Driver/i2c_eeprom.c:580:3
	mov	r0, r5
.Ltmp342:
	.loc	4 574 5                 @ ../Driver/i2c_eeprom.c:574:5
	cmp.w	r9, #1
.Ltmp343:
	.loc	4 580 3                 @ ../Driver/i2c_eeprom.c:580:3
	ite	ne
	movne	r1, #1
.Ltmp344:
	.loc	4 576 3                 @ ../Driver/i2c_eeprom.c:576:3
	moveq	r1, #0
.Ltmp345:
	.loc	4 0 0 is_stmt 0         @ ../Driver/i2c_eeprom.c:0:0
	bl	I2C_AcknowledgeConfig
.Ltmp346:
	.loc	4 583 2 is_stmt 1       @ ../Driver/i2c_eeprom.c:583:2
	mov	r0, r5
	mov	r1, r7
	movs	r2, #0
	str	r7, [sp, #8]            @ 4-byte Spill
.Ltmp347:
	@DEBUG_VALUE: I2C_EERPOM_ReadBytes16:slave_address <- [DW_OP_plus_uconst 8] [$sp+0]
	bl	I2C_Send7bitAddress
	mvn	r4, #12288
.Ltmp348:
	@DEBUG_VALUE: I2C_EERPOM_ReadBytes16:timeout <- 12288
	.loc	4 0 2 is_stmt 0         @ ../Driver/i2c_eeprom.c:0:2
	adds	r7, r6, #1
.Ltmp349:
.LBB10_6:                               @ =>This Inner Loop Header: Depth=1
	@DEBUG_VALUE: I2C_EERPOM_ReadBytes16:slave_address <- [DW_OP_plus_uconst 8] [$sp+0]
	@DEBUG_VALUE: I2C_EERPOM_ReadBytes16:cnt <- $r9
	@DEBUG_VALUE: I2C_EERPOM_ReadBytes16:data_address <- $r11
	@DEBUG_VALUE: I2C_EERPOM_ReadBytes16:timeout <- undef
	.loc	4 586 10 is_stmt 1      @ ../Driver/i2c_eeprom.c:586:10
	mov	r0, r5
	mov	r1, r7
	bl	I2C_GetFlagStatus
	.loc	4 586 2 is_stmt 0       @ ../Driver/i2c_eeprom.c:586:2
	cbnz	r0, .LBB10_9
.Ltmp350:
@ %bb.7:                                @   in Loop: Header=BB10_6 Depth=1
	@DEBUG_VALUE: I2C_EERPOM_ReadBytes16:slave_address <- [DW_OP_plus_uconst 8] [$sp+0]
	@DEBUG_VALUE: I2C_EERPOM_ReadBytes16:cnt <- $r9
	@DEBUG_VALUE: I2C_EERPOM_ReadBytes16:data_address <- $r11
	@DEBUG_VALUE: I2C_EERPOM_ReadBytes16:timeout <- [DW_OP_constu 1, DW_OP_minus, DW_OP_stack_value] undef
	.loc	4 588 13 is_stmt 1      @ ../Driver/i2c_eeprom.c:588:13
	adds	r4, #1
.Ltmp351:
	.loc	4 588 6 is_stmt 0       @ ../Driver/i2c_eeprom.c:588:6
	bne	.LBB10_6
.Ltmp352:
@ %bb.8:
	@DEBUG_VALUE: I2C_EERPOM_ReadBytes16:slave_address <- [DW_OP_plus_uconst 8] [$sp+0]
	@DEBUG_VALUE: I2C_EERPOM_ReadBytes16:cnt <- $r9
	@DEBUG_VALUE: I2C_EERPOM_ReadBytes16:data_address <- $r11
	.loc	4 589 15 is_stmt 1      @ ../Driver/i2c_eeprom.c:589:15
	add.w	r8, r8, #6
	b	.LBB10_22
.Ltmp353:
.LBB10_9:
	@DEBUG_VALUE: I2C_EERPOM_ReadBytes16:slave_address <- [DW_OP_plus_uconst 8] [$sp+0]
	@DEBUG_VALUE: I2C_EERPOM_ReadBytes16:cnt <- $r9
	@DEBUG_VALUE: I2C_EERPOM_ReadBytes16:data_address <- $r11
	.loc	4 592 8                 @ ../Driver/i2c_eeprom.c:592:8
	ldrh	r0, [r5, #24]
	mov	r0, r6
	mvn	r6, #12288
.Ltmp354:
	@DEBUG_VALUE: I2C_EERPOM_ReadBytes16:timeout <- 12288
	.loc	4 0 8 is_stmt 0         @ ../Driver/i2c_eeprom.c:0:8
	add.w	r4, r0, #127
.Ltmp355:
.LBB10_10:                              @ =>This Inner Loop Header: Depth=1
	@DEBUG_VALUE: I2C_EERPOM_ReadBytes16:slave_address <- [DW_OP_plus_uconst 8] [$sp+0]
	@DEBUG_VALUE: I2C_EERPOM_ReadBytes16:cnt <- $r9
	@DEBUG_VALUE: I2C_EERPOM_ReadBytes16:data_address <- $r11
	@DEBUG_VALUE: I2C_EERPOM_ReadBytes16:timeout <- undef
	.loc	4 595 10 is_stmt 1      @ ../Driver/i2c_eeprom.c:595:10
	mov	r0, r5
	mov	r1, r4
	bl	I2C_GetFlagStatus
	.loc	4 595 2 is_stmt 0       @ ../Driver/i2c_eeprom.c:595:2
	cbnz	r0, .LBB10_13
.Ltmp356:
@ %bb.11:                               @   in Loop: Header=BB10_10 Depth=1
	@DEBUG_VALUE: I2C_EERPOM_ReadBytes16:slave_address <- [DW_OP_plus_uconst 8] [$sp+0]
	@DEBUG_VALUE: I2C_EERPOM_ReadBytes16:cnt <- $r9
	@DEBUG_VALUE: I2C_EERPOM_ReadBytes16:data_address <- $r11
	@DEBUG_VALUE: I2C_EERPOM_ReadBytes16:timeout <- [DW_OP_constu 1, DW_OP_minus, DW_OP_stack_value] undef
	.loc	4 597 14 is_stmt 1      @ ../Driver/i2c_eeprom.c:597:14
	adds	r6, #1
.Ltmp357:
	.loc	4 597 6 is_stmt 0       @ ../Driver/i2c_eeprom.c:597:6
	bne	.LBB10_10
.Ltmp358:
@ %bb.12:
	@DEBUG_VALUE: I2C_EERPOM_ReadBytes16:slave_address <- [DW_OP_plus_uconst 8] [$sp+0]
	@DEBUG_VALUE: I2C_EERPOM_ReadBytes16:cnt <- $r9
	@DEBUG_VALUE: I2C_EERPOM_ReadBytes16:data_address <- $r11
	.loc	4 598 15 is_stmt 1      @ ../Driver/i2c_eeprom.c:598:15
	add.w	r8, r8, #5
	b	.LBB10_22
.Ltmp359:
.LBB10_13:
	@DEBUG_VALUE: I2C_EERPOM_ReadBytes16:slave_address <- [DW_OP_plus_uconst 8] [$sp+0]
	@DEBUG_VALUE: I2C_EERPOM_ReadBytes16:cnt <- $r9
	@DEBUG_VALUE: I2C_EERPOM_ReadBytes16:data_address <- $r11
	.loc	4 601 2                 @ ../Driver/i2c_eeprom.c:601:2
	mov	r0, r5
	mov	r1, r10
	str.w	r9, [sp, #4]            @ 4-byte Spill
.Ltmp360:
	@DEBUG_VALUE: I2C_EERPOM_ReadBytes16:cnt <- [DW_OP_plus_uconst 4] [$sp+0]
	bl	I2C_SendData
	ldr	r0, __arm_cp.10_1
	mvn	r9, #12288
.Ltmp361:
	@DEBUG_VALUE: I2C_EERPOM_ReadBytes16:timeout <- 12288
	.loc	4 0 2 is_stmt 0         @ ../Driver/i2c_eeprom.c:0:2
	add.w	r10, r0, #3
.Ltmp362:
.LBB10_14:                              @ =>This Inner Loop Header: Depth=1
	@DEBUG_VALUE: I2C_EERPOM_ReadBytes16:cnt <- [DW_OP_plus_uconst 4] [$sp+0]
	@DEBUG_VALUE: I2C_EERPOM_ReadBytes16:slave_address <- [DW_OP_plus_uconst 8] [$sp+0]
	@DEBUG_VALUE: I2C_EERPOM_ReadBytes16:data_address <- $r11
	@DEBUG_VALUE: I2C_EERPOM_ReadBytes16:timeout <- undef
	.loc	4 604 11 is_stmt 1      @ ../Driver/i2c_eeprom.c:604:11
	mov	r0, r5
	mov	r1, r4
	bl	I2C_GetFlagStatus
	.loc	4 604 50 is_stmt 0      @ ../Driver/i2c_eeprom.c:604:50
	cbz	r0, .LBB10_16
.Ltmp363:
@ %bb.15:                               @   in Loop: Header=BB10_14 Depth=1
	@DEBUG_VALUE: I2C_EERPOM_ReadBytes16:cnt <- [DW_OP_plus_uconst 4] [$sp+0]
	@DEBUG_VALUE: I2C_EERPOM_ReadBytes16:slave_address <- [DW_OP_plus_uconst 8] [$sp+0]
	@DEBUG_VALUE: I2C_EERPOM_ReadBytes16:data_address <- $r11
	.loc	4 604 55                @ ../Driver/i2c_eeprom.c:604:55
	mov	r0, r5
	mov	r1, r10
	bl	I2C_GetFlagStatus
	.loc	4 604 2                 @ ../Driver/i2c_eeprom.c:604:2
	cbnz	r0, .LBB10_17
.Ltmp364:
.LBB10_16:                              @   in Loop: Header=BB10_14 Depth=1
	@DEBUG_VALUE: I2C_EERPOM_ReadBytes16:cnt <- [DW_OP_plus_uconst 4] [$sp+0]
	@DEBUG_VALUE: I2C_EERPOM_ReadBytes16:slave_address <- [DW_OP_plus_uconst 8] [$sp+0]
	@DEBUG_VALUE: I2C_EERPOM_ReadBytes16:data_address <- $r11
	@DEBUG_VALUE: I2C_EERPOM_ReadBytes16:timeout <- [DW_OP_constu 1, DW_OP_minus, DW_OP_stack_value] undef
	.loc	4 606 14 is_stmt 1      @ ../Driver/i2c_eeprom.c:606:14
	adds.w	r9, r9, #1
.Ltmp365:
	.loc	4 606 6 is_stmt 0       @ ../Driver/i2c_eeprom.c:606:6
	bne	.LBB10_14
	b	.LBB10_21
.Ltmp366:
.LBB10_17:
	@DEBUG_VALUE: I2C_EERPOM_ReadBytes16:cnt <- [DW_OP_plus_uconst 4] [$sp+0]
	@DEBUG_VALUE: I2C_EERPOM_ReadBytes16:slave_address <- [DW_OP_plus_uconst 8] [$sp+0]
	@DEBUG_VALUE: I2C_EERPOM_ReadBytes16:data_address <- $r11
	.loc	4 610 2 is_stmt 1       @ ../Driver/i2c_eeprom.c:610:2
	uxtb.w	r1, r11
	mov	r0, r5
	bl	I2C_SendData
	ldr.w	r9, [sp, #4]            @ 4-byte Reload
	mvn	r6, #12288
.Ltmp367:
	@DEBUG_VALUE: I2C_EERPOM_ReadBytes16:timeout <- 12288
.LBB10_18:                              @ =>This Inner Loop Header: Depth=1
	@DEBUG_VALUE: I2C_EERPOM_ReadBytes16:cnt <- [DW_OP_plus_uconst 4] [$sp+0]
	@DEBUG_VALUE: I2C_EERPOM_ReadBytes16:slave_address <- [DW_OP_plus_uconst 8] [$sp+0]
	@DEBUG_VALUE: I2C_EERPOM_ReadBytes16:data_address <- $r11
	@DEBUG_VALUE: I2C_EERPOM_ReadBytes16:timeout <- undef
	.loc	4 613 11                @ ../Driver/i2c_eeprom.c:613:11
	mov	r0, r5
	mov	r1, r4
	bl	I2C_GetFlagStatus
	.loc	4 613 50 is_stmt 0      @ ../Driver/i2c_eeprom.c:613:50
	cbz	r0, .LBB10_20
.Ltmp368:
@ %bb.19:                               @   in Loop: Header=BB10_18 Depth=1
	@DEBUG_VALUE: I2C_EERPOM_ReadBytes16:cnt <- [DW_OP_plus_uconst 4] [$sp+0]
	@DEBUG_VALUE: I2C_EERPOM_ReadBytes16:slave_address <- [DW_OP_plus_uconst 8] [$sp+0]
	@DEBUG_VALUE: I2C_EERPOM_ReadBytes16:data_address <- $r11
	.loc	4 613 55                @ ../Driver/i2c_eeprom.c:613:55
	mov	r0, r5
	mov	r1, r10
	bl	I2C_GetFlagStatus
	.loc	4 613 2                 @ ../Driver/i2c_eeprom.c:613:2
	cbnz	r0, .LBB10_24
.Ltmp369:
.LBB10_20:                              @   in Loop: Header=BB10_18 Depth=1
	@DEBUG_VALUE: I2C_EERPOM_ReadBytes16:cnt <- [DW_OP_plus_uconst 4] [$sp+0]
	@DEBUG_VALUE: I2C_EERPOM_ReadBytes16:slave_address <- [DW_OP_plus_uconst 8] [$sp+0]
	@DEBUG_VALUE: I2C_EERPOM_ReadBytes16:data_address <- $r11
	@DEBUG_VALUE: I2C_EERPOM_ReadBytes16:timeout <- [DW_OP_constu 1, DW_OP_minus, DW_OP_stack_value] undef
	.loc	4 615 14 is_stmt 1      @ ../Driver/i2c_eeprom.c:615:14
	adds	r6, #1
.Ltmp370:
	.loc	4 615 6 is_stmt 0       @ ../Driver/i2c_eeprom.c:615:6
	bne	.LBB10_18
.Ltmp371:
.LBB10_21:
	@DEBUG_VALUE: I2C_EERPOM_ReadBytes16:cnt <- [DW_OP_plus_uconst 4] [$sp+0]
	@DEBUG_VALUE: I2C_EERPOM_ReadBytes16:slave_address <- [DW_OP_plus_uconst 8] [$sp+0]
	@DEBUG_VALUE: I2C_EERPOM_ReadBytes16:data_address <- $r11
	.loc	4 0 0                   @ ../Driver/i2c_eeprom.c:0:0
	add.w	r8, r8, #4
.Ltmp372:
.LBB10_22:
	@DEBUG_VALUE: I2C_EERPOM_ReadBytes16:data_address <- $r11
	sxth.w	r0, r8
	bl	I2C_EEPROM_timeout
.Ltmp373:
.LBB10_23:
	.loc	4 662 1 is_stmt 1       @ ../Driver/i2c_eeprom.c:662:1
	sxth.w	r0, r8
	add	sp, #12
	pop.w	{r4, r5, r6, r7, r8, r9, r10, r11, pc}
.LBB10_24:
.Ltmp374:
	@DEBUG_VALUE: I2C_EERPOM_ReadBytes16:cnt <- [DW_OP_plus_uconst 4] [$sp+0]
	@DEBUG_VALUE: I2C_EERPOM_ReadBytes16:slave_address <- [DW_OP_plus_uconst 8] [$sp+0]
	@DEBUG_VALUE: I2C_EERPOM_ReadBytes16:data_address <- $r11
	.loc	4 619 2                 @ ../Driver/i2c_eeprom.c:619:2
	mov	r0, r5
	movs	r1, #1
	bl	I2C_GenerateSTART
	ldr	r6, __arm_cp.10_1
	mvn	r4, #12288
.Ltmp375:
	@DEBUG_VALUE: I2C_EERPOM_ReadBytes16:timeout <- 12288
.LBB10_25:                              @ =>This Inner Loop Header: Depth=1
	@DEBUG_VALUE: I2C_EERPOM_ReadBytes16:cnt <- [DW_OP_plus_uconst 4] [$sp+0]
	@DEBUG_VALUE: I2C_EERPOM_ReadBytes16:slave_address <- [DW_OP_plus_uconst 8] [$sp+0]
	@DEBUG_VALUE: I2C_EERPOM_ReadBytes16:data_address <- $r11
	@DEBUG_VALUE: I2C_EERPOM_ReadBytes16:timeout <- undef
	.loc	4 622 10                @ ../Driver/i2c_eeprom.c:622:10
	mov	r0, r5
	mov	r1, r6
	bl	I2C_GetFlagStatus
	.loc	4 622 2 is_stmt 0       @ ../Driver/i2c_eeprom.c:622:2
	cbnz	r0, .LBB10_28
.Ltmp376:
@ %bb.26:                               @   in Loop: Header=BB10_25 Depth=1
	@DEBUG_VALUE: I2C_EERPOM_ReadBytes16:cnt <- [DW_OP_plus_uconst 4] [$sp+0]
	@DEBUG_VALUE: I2C_EERPOM_ReadBytes16:slave_address <- [DW_OP_plus_uconst 8] [$sp+0]
	@DEBUG_VALUE: I2C_EERPOM_ReadBytes16:data_address <- $r11
	@DEBUG_VALUE: I2C_EERPOM_ReadBytes16:timeout <- [DW_OP_constu 1, DW_OP_minus, DW_OP_stack_value] undef
	.loc	4 624 14 is_stmt 1      @ ../Driver/i2c_eeprom.c:624:14
	adds	r4, #1
.Ltmp377:
	.loc	4 624 6 is_stmt 0       @ ../Driver/i2c_eeprom.c:624:6
	bne	.LBB10_25
.Ltmp378:
@ %bb.27:
	@DEBUG_VALUE: I2C_EERPOM_ReadBytes16:cnt <- [DW_OP_plus_uconst 4] [$sp+0]
	@DEBUG_VALUE: I2C_EERPOM_ReadBytes16:slave_address <- [DW_OP_plus_uconst 8] [$sp+0]
	@DEBUG_VALUE: I2C_EERPOM_ReadBytes16:data_address <- $r11
	.loc	4 625 15 is_stmt 1      @ ../Driver/i2c_eeprom.c:625:15
	add.w	r8, r8, #3
	b	.LBB10_22
.Ltmp379:
.LBB10_28:
	@DEBUG_VALUE: I2C_EERPOM_ReadBytes16:cnt <- [DW_OP_plus_uconst 4] [$sp+0]
	@DEBUG_VALUE: I2C_EERPOM_ReadBytes16:slave_address <- [DW_OP_plus_uconst 8] [$sp+0]
	@DEBUG_VALUE: I2C_EERPOM_ReadBytes16:data_address <- $r11
	.loc	4 628 2                 @ ../Driver/i2c_eeprom.c:628:2
	ldr	r1, [sp, #8]            @ 4-byte Reload
	mov	r0, r5
	movs	r2, #1
	bl	I2C_Send7bitAddress
	mvn	r4, #12288
.Ltmp380:
	@DEBUG_VALUE: I2C_EERPOM_ReadBytes16:timeout <- 12288
.LBB10_29:                              @ =>This Inner Loop Header: Depth=1
	@DEBUG_VALUE: I2C_EERPOM_ReadBytes16:cnt <- [DW_OP_plus_uconst 4] [$sp+0]
	@DEBUG_VALUE: I2C_EERPOM_ReadBytes16:slave_address <- [DW_OP_plus_uconst 8] [$sp+0]
	@DEBUG_VALUE: I2C_EERPOM_ReadBytes16:data_address <- $r11
	@DEBUG_VALUE: I2C_EERPOM_ReadBytes16:timeout <- undef
	.loc	4 631 10                @ ../Driver/i2c_eeprom.c:631:10
	mov	r0, r5
	mov	r1, r7
	bl	I2C_GetFlagStatus
	.loc	4 631 2 is_stmt 0       @ ../Driver/i2c_eeprom.c:631:2
	cbnz	r0, .LBB10_32
.Ltmp381:
@ %bb.30:                               @   in Loop: Header=BB10_29 Depth=1
	@DEBUG_VALUE: I2C_EERPOM_ReadBytes16:cnt <- [DW_OP_plus_uconst 4] [$sp+0]
	@DEBUG_VALUE: I2C_EERPOM_ReadBytes16:slave_address <- [DW_OP_plus_uconst 8] [$sp+0]
	@DEBUG_VALUE: I2C_EERPOM_ReadBytes16:data_address <- $r11
	@DEBUG_VALUE: I2C_EERPOM_ReadBytes16:timeout <- [DW_OP_constu 1, DW_OP_minus, DW_OP_stack_value] undef
	.loc	4 633 14 is_stmt 1      @ ../Driver/i2c_eeprom.c:633:14
	adds	r4, #1
.Ltmp382:
	.loc	4 633 6 is_stmt 0       @ ../Driver/i2c_eeprom.c:633:6
	bne	.LBB10_29
.Ltmp383:
@ %bb.31:
	@DEBUG_VALUE: I2C_EERPOM_ReadBytes16:cnt <- [DW_OP_plus_uconst 4] [$sp+0]
	@DEBUG_VALUE: I2C_EERPOM_ReadBytes16:slave_address <- [DW_OP_plus_uconst 8] [$sp+0]
	@DEBUG_VALUE: I2C_EERPOM_ReadBytes16:data_address <- $r11
	.loc	4 634 15 is_stmt 1      @ ../Driver/i2c_eeprom.c:634:15
	add.w	r8, r8, #2
	b	.LBB10_22
.Ltmp384:
.LBB10_32:
	@DEBUG_VALUE: I2C_EERPOM_ReadBytes16:cnt <- [DW_OP_plus_uconst 4] [$sp+0]
	@DEBUG_VALUE: I2C_EERPOM_ReadBytes16:slave_address <- [DW_OP_plus_uconst 8] [$sp+0]
	@DEBUG_VALUE: I2C_EERPOM_ReadBytes16:data_address <- $r11
	.loc	4 0 15 is_stmt 0        @ ../Driver/i2c_eeprom.c:0:15
	ldr.w	r10, __arm_cp.10_2
	.loc	4 637 8 is_stmt 1       @ ../Driver/i2c_eeprom.c:637:8
	ldrh	r0, [r5, #24]
	movs	r7, #0
.Ltmp385:
	@DEBUG_VALUE: I2C_EERPOM_ReadBytes16:n <- 0
	.loc	4 0 8 is_stmt 0         @ ../Driver/i2c_eeprom.c:0:8
	add.w	r4, r6, #63
	b	.LBB10_39
.Ltmp386:
.LBB10_33:                              @   in Loop: Header=BB10_39 Depth=1
	@DEBUG_VALUE: I2C_EERPOM_ReadBytes16:cnt <- [DW_OP_plus_uconst 4] [$sp+0]
	@DEBUG_VALUE: I2C_EERPOM_ReadBytes16:slave_address <- [DW_OP_plus_uconst 8] [$sp+0]
	@DEBUG_VALUE: I2C_EERPOM_ReadBytes16:n <- $r7
	@DEBUG_VALUE: I2C_EERPOM_ReadBytes16:data_address <- $r11
	mov	r0, r9
.Ltmp387:
	.loc	4 642 9 is_stmt 1       @ ../Driver/i2c_eeprom.c:642:9
	add.w	r9, r7, #1
.Ltmp388:
	.loc	4 642 6 is_stmt 0       @ ../Driver/i2c_eeprom.c:642:6
	cmp	r9, r0
	blo	.LBB10_35
.Ltmp389:
@ %bb.34:                               @   in Loop: Header=BB10_39 Depth=1
	@DEBUG_VALUE: I2C_EERPOM_ReadBytes16:cnt <- [DW_OP_plus_uconst 4] [$sp+0]
	@DEBUG_VALUE: I2C_EERPOM_ReadBytes16:slave_address <- [DW_OP_plus_uconst 8] [$sp+0]
	@DEBUG_VALUE: I2C_EERPOM_ReadBytes16:n <- $r7
	@DEBUG_VALUE: I2C_EERPOM_ReadBytes16:data_address <- $r11
	.loc	4 644 4 is_stmt 1       @ ../Driver/i2c_eeprom.c:644:4
	mov	r0, r5
	movs	r1, #0
	bl	I2C_AcknowledgeConfig
	.loc	4 645 4                 @ ../Driver/i2c_eeprom.c:645:4
	mov	r0, r5
	movs	r1, #1
	bl	I2C_GenerateSTOP
.Ltmp390:
.LBB10_35:                              @   in Loop: Header=BB10_39 Depth=1
	@DEBUG_VALUE: I2C_EERPOM_ReadBytes16:cnt <- [DW_OP_plus_uconst 4] [$sp+0]
	@DEBUG_VALUE: I2C_EERPOM_ReadBytes16:slave_address <- [DW_OP_plus_uconst 8] [$sp+0]
	@DEBUG_VALUE: I2C_EERPOM_ReadBytes16:n <- $r7
	@DEBUG_VALUE: I2C_EERPOM_ReadBytes16:data_address <- $r11
	.loc	4 0 4 is_stmt 0         @ ../Driver/i2c_eeprom.c:0:4
	mvn	r6, #12288
.Ltmp391:
.LBB10_36:                              @   Parent Loop BB10_39 Depth=1
                                        @ =>  This Inner Loop Header: Depth=2
	@DEBUG_VALUE: I2C_EERPOM_ReadBytes16:cnt <- [DW_OP_plus_uconst 4] [$sp+0]
	@DEBUG_VALUE: I2C_EERPOM_ReadBytes16:slave_address <- [DW_OP_plus_uconst 8] [$sp+0]
	@DEBUG_VALUE: I2C_EERPOM_ReadBytes16:n <- $r7
	@DEBUG_VALUE: I2C_EERPOM_ReadBytes16:data_address <- $r11
	@DEBUG_VALUE: I2C_EERPOM_ReadBytes16:timeout <- undef
	.loc	4 650 11 is_stmt 1      @ ../Driver/i2c_eeprom.c:650:11
	mov	r0, r5
	mov	r1, r4
	bl	I2C_GetFlagStatus
	.loc	4 650 3 is_stmt 0       @ ../Driver/i2c_eeprom.c:650:3
	cbnz	r0, .LBB10_38
.Ltmp392:
@ %bb.37:                               @   in Loop: Header=BB10_36 Depth=2
	@DEBUG_VALUE: I2C_EERPOM_ReadBytes16:cnt <- [DW_OP_plus_uconst 4] [$sp+0]
	@DEBUG_VALUE: I2C_EERPOM_ReadBytes16:slave_address <- [DW_OP_plus_uconst 8] [$sp+0]
	@DEBUG_VALUE: I2C_EERPOM_ReadBytes16:n <- $r7
	@DEBUG_VALUE: I2C_EERPOM_ReadBytes16:data_address <- $r11
	@DEBUG_VALUE: I2C_EERPOM_ReadBytes16:timeout <- [DW_OP_constu 1, DW_OP_minus, DW_OP_stack_value] undef
	.loc	4 652 15 is_stmt 1      @ ../Driver/i2c_eeprom.c:652:15
	adds	r6, #1
.Ltmp393:
	.loc	4 652 7 is_stmt 0       @ ../Driver/i2c_eeprom.c:652:7
	bne	.LBB10_36
	b	.LBB10_41
.Ltmp394:
.LBB10_38:                              @   in Loop: Header=BB10_39 Depth=1
	@DEBUG_VALUE: I2C_EERPOM_ReadBytes16:cnt <- [DW_OP_plus_uconst 4] [$sp+0]
	@DEBUG_VALUE: I2C_EERPOM_ReadBytes16:slave_address <- [DW_OP_plus_uconst 8] [$sp+0]
	@DEBUG_VALUE: I2C_EERPOM_ReadBytes16:n <- $r7
	@DEBUG_VALUE: I2C_EERPOM_ReadBytes16:data_address <- $r11
	.loc	4 656 22 is_stmt 1      @ ../Driver/i2c_eeprom.c:656:22
	mov	r0, r5
	bl	I2C_ReceiveData
	.loc	4 656 20 is_stmt 0      @ ../Driver/i2c_eeprom.c:656:20
	strb.w	r0, [r10, r7]
.Ltmp395:
	.loc	4 0 0                   @ ../Driver/i2c_eeprom.c:0:0
	mov	r7, r9
.Ltmp396:
	ldr.w	r9, [sp, #4]            @ 4-byte Reload
.Ltmp397:
.LBB10_39:                              @ =>This Loop Header: Depth=1
                                        @     Child Loop BB10_36 Depth 2
	@DEBUG_VALUE: I2C_EERPOM_ReadBytes16:cnt <- [DW_OP_plus_uconst 4] [$sp+0]
	@DEBUG_VALUE: I2C_EERPOM_ReadBytes16:slave_address <- [DW_OP_plus_uconst 8] [$sp+0]
	@DEBUG_VALUE: I2C_EERPOM_ReadBytes16:data_address <- $r11
	@DEBUG_VALUE: I2C_EERPOM_ReadBytes16:n <- $r7
	.loc	4 639 2 is_stmt 1       @ ../Driver/i2c_eeprom.c:639:2
	cmp	r7, r9
	blo	.LBB10_33
.Ltmp398:
@ %bb.40:
	@DEBUG_VALUE: I2C_EERPOM_ReadBytes16:cnt <- [DW_OP_plus_uconst 4] [$sp+0]
	@DEBUG_VALUE: I2C_EERPOM_ReadBytes16:slave_address <- [DW_OP_plus_uconst 8] [$sp+0]
	@DEBUG_VALUE: I2C_EERPOM_ReadBytes16:n <- $r7
	@DEBUG_VALUE: I2C_EERPOM_ReadBytes16:data_address <- $r11
	.loc	4 659 2                 @ ../Driver/i2c_eeprom.c:659:2
	mov	r0, r5
	movs	r1, #1
	bl	I2C_AcknowledgeConfig
	mov.w	r8, #0
	@DEBUG_VALUE: I2C_EERPOM_ReadBytes16:ret_data <- 0
	b	.LBB10_23
.Ltmp399:
.LBB10_41:
	@DEBUG_VALUE: I2C_EERPOM_ReadBytes16:cnt <- [DW_OP_plus_uconst 4] [$sp+0]
	@DEBUG_VALUE: I2C_EERPOM_ReadBytes16:slave_address <- [DW_OP_plus_uconst 8] [$sp+0]
	@DEBUG_VALUE: I2C_EERPOM_ReadBytes16:n <- $r7
	@DEBUG_VALUE: I2C_EERPOM_ReadBytes16:data_address <- $r11
	.loc	4 653 16                @ ../Driver/i2c_eeprom.c:653:16
	add.w	r8, r8, #1
	b	.LBB10_22
.Ltmp400:
	.p2align	2
@ %bb.42:
	.loc	4 0 16 is_stmt 0        @ ../Driver/i2c_eeprom.c:0:16
__arm_cp.10_0:
	.long	1073764352              @ 0x40005800
.Lcpi_end22:
	.size	__arm_cp.10_0, .Lcpi_end22-__arm_cp.10_0
__arm_cp.10_1:
	.long	268435457               @ 0x10000001
.Lcpi_end23:
	.size	__arm_cp.10_1, .Lcpi_end23-__arm_cp.10_1
__arm_cp.10_2:
	.long	aEepromBuffer
.Lcpi_end24:
	.size	__arm_cp.10_2, .Lcpi_end24-__arm_cp.10_2
.Lfunc_end10:
	.size	I2C_EERPOM_ReadBytes16, .Lfunc_end10-I2C_EERPOM_ReadBytes16
	.cfi_endproc
	.cantunwind
	.fnend
                                        @ -- End function
	.section	.text.I2C_EERPOM_WriteBytes16,"ax",%progbits
	.hidden	I2C_EERPOM_WriteBytes16 @ -- Begin function I2C_EERPOM_WriteBytes16
	.globl	I2C_EERPOM_WriteBytes16
	.p2align	2
	.type	I2C_EERPOM_WriteBytes16,%function
	.code	16                      @ @I2C_EERPOM_WriteBytes16
	.thumb_func
I2C_EERPOM_WriteBytes16:
.Lfunc_begin11:
	.loc	4 666 0 is_stmt 1       @ ../Driver/i2c_eeprom.c:666:0
	.fnstart
	.cfi_startproc
@ %bb.0:
	.save	{r4, r5, r6, r7, r8, r9, r10, lr}
	push.w	{r4, r5, r6, r7, r8, r9, r10, lr}
	.cfi_def_cfa_offset 32
	.cfi_offset lr, -4
	.cfi_offset r10, -8
	.cfi_offset r9, -12
	.cfi_offset r8, -16
	.cfi_offset r7, -20
	.cfi_offset r6, -24
	.cfi_offset r5, -28
	.cfi_offset r4, -32
	@DEBUG_VALUE: I2C_EERPOM_WriteBytes16:slave_address <- $r0
	@DEBUG_VALUE: I2C_EERPOM_WriteBytes16:data_address <- $r1
	@DEBUG_VALUE: I2C_EERPOM_WriteBytes16:cnt <- $r2
	ldr	r5, __arm_cp.11_0
	mov	r10, r1
	mov	r7, r0
.Ltmp401:
	@DEBUG_VALUE: I2C_EERPOM_WriteBytes16:cnt <- $r8
	@DEBUG_VALUE: I2C_EERPOM_WriteBytes16:data_address <- $r10
	@DEBUG_VALUE: I2C_EERPOM_WriteBytes16:slave_address <- $r7
	.loc	4 673 2 prologue_end    @ ../Driver/i2c_eeprom.c:673:2
	movs	r1, #1
	mov	r8, r2
.Ltmp402:
	mov	r0, r5
	bl	I2C_GenerateSTART
.Ltmp403:
	@DEBUG_VALUE: I2C_EERPOM_WriteBytes16:timeout <- 12288
	@DEBUG_VALUE: I2C_EERPOM_WriteBytes16:ret_data <- 0
	.loc	4 0 2 is_stmt 0         @ ../Driver/i2c_eeprom.c:0:2
	ldr	r6, __arm_cp.11_1
	.loc	4 672 7 is_stmt 1       @ ../Driver/i2c_eeprom.c:672:7
	lsr.w	r9, r10, #8
	mvn	r4, #12288
.Ltmp404:
.LBB11_1:                               @ =>This Inner Loop Header: Depth=1
	@DEBUG_VALUE: I2C_EERPOM_WriteBytes16:slave_address <- $r7
	@DEBUG_VALUE: I2C_EERPOM_WriteBytes16:data_address <- $r10
	@DEBUG_VALUE: I2C_EERPOM_WriteBytes16:timeout <- undef
	.loc	4 676 10                @ ../Driver/i2c_eeprom.c:676:10
	mov	r0, r5
	mov	r1, r6
	bl	I2C_GetFlagStatus
	.loc	4 676 2 is_stmt 0       @ ../Driver/i2c_eeprom.c:676:2
	cbnz	r0, .LBB11_4
.Ltmp405:
@ %bb.2:                                @   in Loop: Header=BB11_1 Depth=1
	@DEBUG_VALUE: I2C_EERPOM_WriteBytes16:slave_address <- $r7
	@DEBUG_VALUE: I2C_EERPOM_WriteBytes16:data_address <- $r10
	@DEBUG_VALUE: I2C_EERPOM_WriteBytes16:timeout <- [DW_OP_constu 1, DW_OP_minus, DW_OP_stack_value] undef
	.loc	4 678 14 is_stmt 1      @ ../Driver/i2c_eeprom.c:678:14
	adds	r4, #1
.Ltmp406:
	.loc	4 678 6 is_stmt 0       @ ../Driver/i2c_eeprom.c:678:6
	bne	.LBB11_1
.Ltmp407:
@ %bb.3:
	@DEBUG_VALUE: I2C_EERPOM_WriteBytes16:slave_address <- $r7
	@DEBUG_VALUE: I2C_EERPOM_WriteBytes16:data_address <- $r10
	.loc	4 0 6                   @ ../Driver/i2c_eeprom.c:0:6
	mvn	r0, #4
.Ltmp408:
	.loc	4 679 15 is_stmt 1      @ ../Driver/i2c_eeprom.c:679:15
	adds	r0, #4
	b	.LBB11_19
.Ltmp409:
.LBB11_4:
	@DEBUG_VALUE: I2C_EERPOM_WriteBytes16:slave_address <- $r7
	@DEBUG_VALUE: I2C_EERPOM_WriteBytes16:data_address <- $r10
	.loc	4 682 2                 @ ../Driver/i2c_eeprom.c:682:2
	mov	r0, r5
	mov	r1, r7
	movs	r2, #0
	bl	I2C_Send7bitAddress
	mvn	r4, #12288
.Ltmp410:
	@DEBUG_VALUE: I2C_EERPOM_WriteBytes16:timeout <- 12288
	.loc	4 0 2 is_stmt 0         @ ../Driver/i2c_eeprom.c:0:2
	adds	r7, r6, #1
.Ltmp411:
.LBB11_5:                               @ =>This Inner Loop Header: Depth=1
	@DEBUG_VALUE: I2C_EERPOM_WriteBytes16:data_address <- $r10
	@DEBUG_VALUE: I2C_EERPOM_WriteBytes16:timeout <- undef
	.loc	4 685 10 is_stmt 1      @ ../Driver/i2c_eeprom.c:685:10
	mov	r0, r5
	mov	r1, r7
	bl	I2C_GetFlagStatus
	.loc	4 685 2 is_stmt 0       @ ../Driver/i2c_eeprom.c:685:2
	cbnz	r0, .LBB11_8
.Ltmp412:
@ %bb.6:                                @   in Loop: Header=BB11_5 Depth=1
	@DEBUG_VALUE: I2C_EERPOM_WriteBytes16:data_address <- $r10
	@DEBUG_VALUE: I2C_EERPOM_WriteBytes16:timeout <- [DW_OP_constu 1, DW_OP_minus, DW_OP_stack_value] undef
	.loc	4 687 14 is_stmt 1      @ ../Driver/i2c_eeprom.c:687:14
	adds	r4, #1
.Ltmp413:
	.loc	4 687 6 is_stmt 0       @ ../Driver/i2c_eeprom.c:687:6
	bne	.LBB11_5
.Ltmp414:
@ %bb.7:
	@DEBUG_VALUE: I2C_EERPOM_WriteBytes16:data_address <- $r10
	.loc	4 0 6                   @ ../Driver/i2c_eeprom.c:0:6
	mvn	r0, #4
.Ltmp415:
	.loc	4 688 15 is_stmt 1      @ ../Driver/i2c_eeprom.c:688:15
	adds	r0, #3
	b	.LBB11_19
.Ltmp416:
.LBB11_8:
	@DEBUG_VALUE: I2C_EERPOM_WriteBytes16:data_address <- $r10
	.loc	4 691 8                 @ ../Driver/i2c_eeprom.c:691:8
	ldrh	r0, [r5, #24]
	mvn	r4, #12288
.Ltmp417:
	@DEBUG_VALUE: I2C_EERPOM_WriteBytes16:timeout <- 12288
	.loc	4 0 8 is_stmt 0         @ ../Driver/i2c_eeprom.c:0:8
	add.w	r7, r6, #127
.Ltmp418:
.LBB11_9:                               @ =>This Inner Loop Header: Depth=1
	@DEBUG_VALUE: I2C_EERPOM_WriteBytes16:data_address <- $r10
	@DEBUG_VALUE: I2C_EERPOM_WriteBytes16:timeout <- undef
	.loc	4 694 10 is_stmt 1      @ ../Driver/i2c_eeprom.c:694:10
	mov	r0, r5
	mov	r1, r7
	bl	I2C_GetFlagStatus
	.loc	4 694 2 is_stmt 0       @ ../Driver/i2c_eeprom.c:694:2
	cbnz	r0, .LBB11_12
.Ltmp419:
@ %bb.10:                               @   in Loop: Header=BB11_9 Depth=1
	@DEBUG_VALUE: I2C_EERPOM_WriteBytes16:data_address <- $r10
	@DEBUG_VALUE: I2C_EERPOM_WriteBytes16:timeout <- [DW_OP_constu 1, DW_OP_minus, DW_OP_stack_value] undef
	.loc	4 696 14 is_stmt 1      @ ../Driver/i2c_eeprom.c:696:14
	adds	r4, #1
.Ltmp420:
	.loc	4 696 6 is_stmt 0       @ ../Driver/i2c_eeprom.c:696:6
	bne	.LBB11_9
.Ltmp421:
@ %bb.11:
	@DEBUG_VALUE: I2C_EERPOM_WriteBytes16:data_address <- $r10
	.loc	4 0 6                   @ ../Driver/i2c_eeprom.c:0:6
	mvn	r0, #4
.Ltmp422:
	.loc	4 697 15 is_stmt 1      @ ../Driver/i2c_eeprom.c:697:15
	adds	r0, #2
	b	.LBB11_19
.Ltmp423:
.LBB11_12:
	@DEBUG_VALUE: I2C_EERPOM_WriteBytes16:data_address <- $r10
	.loc	4 700 2                 @ ../Driver/i2c_eeprom.c:700:2
	mov	r0, r5
	mov	r1, r9
	bl	I2C_SendData
	mvn	r4, #12288
.Ltmp424:
	@DEBUG_VALUE: I2C_EERPOM_WriteBytes16:timeout <- 12288
.LBB11_13:                              @ =>This Inner Loop Header: Depth=1
	@DEBUG_VALUE: I2C_EERPOM_WriteBytes16:data_address <- $r10
	@DEBUG_VALUE: I2C_EERPOM_WriteBytes16:timeout <- undef
	.loc	4 703 10                @ ../Driver/i2c_eeprom.c:703:10
	mov	r0, r5
	mov	r1, r7
	bl	I2C_GetFlagStatus
	.loc	4 703 2 is_stmt 0       @ ../Driver/i2c_eeprom.c:703:2
	cbnz	r0, .LBB11_15
.Ltmp425:
@ %bb.14:                               @   in Loop: Header=BB11_13 Depth=1
	@DEBUG_VALUE: I2C_EERPOM_WriteBytes16:data_address <- $r10
	@DEBUG_VALUE: I2C_EERPOM_WriteBytes16:timeout <- [DW_OP_constu 1, DW_OP_minus, DW_OP_stack_value] undef
	.loc	4 705 14 is_stmt 1      @ ../Driver/i2c_eeprom.c:705:14
	adds	r4, #1
.Ltmp426:
	.loc	4 705 6 is_stmt 0       @ ../Driver/i2c_eeprom.c:705:6
	bne	.LBB11_13
	b	.LBB11_18
.Ltmp427:
.LBB11_15:
	@DEBUG_VALUE: I2C_EERPOM_WriteBytes16:data_address <- $r10
	.loc	4 709 2 is_stmt 1       @ ../Driver/i2c_eeprom.c:709:2
	uxtb.w	r1, r10
	mov	r0, r5
	bl	I2C_SendData
	mvn	r4, #12288
.Ltmp428:
	@DEBUG_VALUE: I2C_EERPOM_WriteBytes16:timeout <- 12288
.LBB11_16:                              @ =>This Inner Loop Header: Depth=1
	@DEBUG_VALUE: I2C_EERPOM_WriteBytes16:data_address <- $r10
	@DEBUG_VALUE: I2C_EERPOM_WriteBytes16:timeout <- undef
	.loc	4 712 10                @ ../Driver/i2c_eeprom.c:712:10
	mov	r0, r5
	mov	r1, r7
	bl	I2C_GetFlagStatus
	.loc	4 712 2 is_stmt 0       @ ../Driver/i2c_eeprom.c:712:2
	cbnz	r0, .LBB11_21
.Ltmp429:
@ %bb.17:                               @   in Loop: Header=BB11_16 Depth=1
	@DEBUG_VALUE: I2C_EERPOM_WriteBytes16:data_address <- $r10
	@DEBUG_VALUE: I2C_EERPOM_WriteBytes16:timeout <- [DW_OP_constu 1, DW_OP_minus, DW_OP_stack_value] undef
	.loc	4 714 14 is_stmt 1      @ ../Driver/i2c_eeprom.c:714:14
	adds	r4, #1
.Ltmp430:
	.loc	4 714 6 is_stmt 0       @ ../Driver/i2c_eeprom.c:714:6
	bne	.LBB11_16
.Ltmp431:
.LBB11_18:
	@DEBUG_VALUE: I2C_EERPOM_WriteBytes16:data_address <- $r10
	.loc	4 0 6                   @ ../Driver/i2c_eeprom.c:0:6
	mvn	r0, #4
	adds	r0, #1
.Ltmp432:
.LBB11_19:
	@DEBUG_VALUE: I2C_EERPOM_WriteBytes16:data_address <- $r10
	bl	I2C_EEPROM_timeout
.Ltmp433:
.LBB11_20:
	.loc	4 733 1 is_stmt 1       @ ../Driver/i2c_eeprom.c:733:1
	sxth	r0, r0
	pop.w	{r4, r5, r6, r7, r8, r9, r10, pc}
.LBB11_21:
.Ltmp434:
	@DEBUG_VALUE: I2C_EERPOM_WriteBytes16:data_address <- $r10
	.loc	4 0 1 is_stmt 0         @ ../Driver/i2c_eeprom.c:0:1
	ldr.w	r10, __arm_cp.11_2
.Ltmp435:
	mov.w	r9, #0
	adds	r4, r6, #3
	b	.LBB11_27
.LBB11_22:                              @   in Loop: Header=BB11_27 Depth=1
.Ltmp436:
	@DEBUG_VALUE: I2C_EERPOM_WriteBytes16:n <- $r9
	.loc	4 720 22 is_stmt 1      @ ../Driver/i2c_eeprom.c:720:22
	ldrb.w	r1, [r10, r9]
	.loc	4 720 3 is_stmt 0       @ ../Driver/i2c_eeprom.c:720:3
	mov	r0, r5
	bl	I2C_SendData
	mvn	r6, #12288
.Ltmp437:
	@DEBUG_VALUE: I2C_EERPOM_WriteBytes16:timeout <- 12288
.LBB11_23:                              @   Parent Loop BB11_27 Depth=1
                                        @ =>  This Inner Loop Header: Depth=2
	@DEBUG_VALUE: I2C_EERPOM_WriteBytes16:n <- $r9
	@DEBUG_VALUE: I2C_EERPOM_WriteBytes16:timeout <- undef
	.loc	4 723 12 is_stmt 1      @ ../Driver/i2c_eeprom.c:723:12
	mov	r0, r5
	mov	r1, r7
	bl	I2C_GetFlagStatus
	.loc	4 723 51 is_stmt 0      @ ../Driver/i2c_eeprom.c:723:51
	cbz	r0, .LBB11_25
.Ltmp438:
@ %bb.24:                               @   in Loop: Header=BB11_23 Depth=2
	@DEBUG_VALUE: I2C_EERPOM_WriteBytes16:n <- $r9
	.loc	4 723 56                @ ../Driver/i2c_eeprom.c:723:56
	mov	r0, r5
	mov	r1, r4
	bl	I2C_GetFlagStatus
	.loc	4 723 3                 @ ../Driver/i2c_eeprom.c:723:3
	cbnz	r0, .LBB11_26
.Ltmp439:
.LBB11_25:                              @   in Loop: Header=BB11_23 Depth=2
	@DEBUG_VALUE: I2C_EERPOM_WriteBytes16:n <- $r9
	@DEBUG_VALUE: I2C_EERPOM_WriteBytes16:timeout <- [DW_OP_constu 1, DW_OP_minus, DW_OP_stack_value] undef
	.loc	4 725 15 is_stmt 1      @ ../Driver/i2c_eeprom.c:725:15
	adds	r6, #1
.Ltmp440:
	.loc	4 725 7 is_stmt 0       @ ../Driver/i2c_eeprom.c:725:7
	bne	.LBB11_23
	b	.LBB11_29
.Ltmp441:
.LBB11_26:                              @   in Loop: Header=BB11_27 Depth=1
	@DEBUG_VALUE: I2C_EERPOM_WriteBytes16:n <- $r9
	.loc	4 718 23 is_stmt 1      @ ../Driver/i2c_eeprom.c:718:23
	add.w	r9, r9, #1
.Ltmp442:
.LBB11_27:                              @ =>This Loop Header: Depth=1
                                        @     Child Loop BB11_23 Depth 2
	@DEBUG_VALUE: I2C_EERPOM_WriteBytes16:n <- $r9
	.loc	4 718 2 is_stmt 0       @ ../Driver/i2c_eeprom.c:718:2
	cmp	r9, r8
	blo	.LBB11_22
.Ltmp443:
@ %bb.28:
	@DEBUG_VALUE: I2C_EERPOM_WriteBytes16:n <- $r9
	.loc	4 730 2 is_stmt 1       @ ../Driver/i2c_eeprom.c:730:2
	mov	r0, r5
	movs	r1, #1
	bl	I2C_GenerateSTOP
	movs	r0, #0
	@DEBUG_VALUE: I2C_EERPOM_WriteBytes16:ret_data <- 0
	b	.LBB11_20
.Ltmp444:
.LBB11_29:
	@DEBUG_VALUE: I2C_EERPOM_WriteBytes16:n <- $r9
	.loc	4 726 16                @ ../Driver/i2c_eeprom.c:726:16
	mvn	r0, #4
	bl	I2C_EEPROM_timeout
	movw	r0, #65531
	b	.LBB11_20
.Ltmp445:
	.p2align	2
@ %bb.30:
	.loc	4 0 16 is_stmt 0        @ ../Driver/i2c_eeprom.c:0:16
__arm_cp.11_0:
	.long	1073764352              @ 0x40005800
.Lcpi_end25:
	.size	__arm_cp.11_0, .Lcpi_end25-__arm_cp.11_0
__arm_cp.11_1:
	.long	268435457               @ 0x10000001
.Lcpi_end26:
	.size	__arm_cp.11_1, .Lcpi_end26-__arm_cp.11_1
__arm_cp.11_2:
	.long	aEepromBuffer
.Lcpi_end27:
	.size	__arm_cp.11_2, .Lcpi_end27-__arm_cp.11_2
.Lfunc_end11:
	.size	I2C_EERPOM_WriteBytes16, .Lfunc_end11-I2C_EERPOM_WriteBytes16
	.cfi_endproc
	.cantunwind
	.fnend
                                        @ -- End function
	.section	.text.I2C_EERPOM_Delay,"ax",%progbits
	.hidden	I2C_EERPOM_Delay        @ -- Begin function I2C_EERPOM_Delay
	.globl	I2C_EERPOM_Delay
	.p2align	1
	.type	I2C_EERPOM_Delay,%function
	.code	16                      @ @I2C_EERPOM_Delay
	.thumb_func
I2C_EERPOM_Delay:
.Lfunc_begin12:
	.loc	4 739 0 is_stmt 1       @ ../Driver/i2c_eeprom.c:739:0
	.fnstart
	.cfi_startproc
@ %bb.0:
	.pad	#4
	sub	sp, #4
	.cfi_def_cfa_offset 4
	str	r0, [sp]
.LBB12_1:                               @ =>This Inner Loop Header: Depth=1
.Ltmp446:
	.loc	4 740 15 prologue_end   @ ../Driver/i2c_eeprom.c:740:15
	ldr	r0, [sp]
	subs	r1, r0, #1
	.loc	4 740 3 is_stmt 0       @ ../Driver/i2c_eeprom.c:740:3
	cmp	r0, #0
	.loc	4 740 15                @ ../Driver/i2c_eeprom.c:740:15
	str	r1, [sp]
	.loc	4 740 3                 @ ../Driver/i2c_eeprom.c:740:3
	bne	.LBB12_1
@ %bb.2:
	.loc	4 743 1 is_stmt 1       @ ../Driver/i2c_eeprom.c:743:1
	add	sp, #4
	bx	lr
.Ltmp447:
.Lfunc_end12:
	.size	I2C_EERPOM_Delay, .Lfunc_end12-I2C_EERPOM_Delay
	.cfi_endproc
	.cantunwind
	.fnend
                                        @ -- End function
	.hidden	I2C2DEV                 @ @I2C2DEV
	.type	I2C2DEV,%object
	.section	.data.I2C2DEV,"aw",%progbits
	.globl	I2C2DEV
	.p2align	2
I2C2DEV:
	.long	1073880064
	.short	16                      @ 0x10
	.zero	2
	.long	128                     @ 0x80
	.byte	4                       @ 0x4
	.zero	3
	.long	1073880064
	.short	32                      @ 0x20
	.zero	2
	.long	128                     @ 0x80
	.byte	5                       @ 0x5
	.zero	3
	.size	I2C2DEV, 32

	.hidden	aEepromBuffer           @ @aEepromBuffer
	.type	aEepromBuffer,%object
	.section	.bss.aEepromBuffer,"aw",%nobits
	.globl	aEepromBuffer
aEepromBuffer:
	.zero	512
	.size	aEepromBuffer, 512

	.hidden	p_i2c_ee_buffer         @ @p_i2c_ee_buffer
	.type	p_i2c_ee_buffer,%object
	.section	.bss.p_i2c_ee_buffer,"aw",%nobits
	.globl	p_i2c_ee_buffer
	.p2align	2
p_i2c_ee_buffer:
	.long	0
	.size	p_i2c_ee_buffer, 4

	.file	6 "F:\\SkyDrive\\OtvoreniProjekti\\HotelSaplast\\fw\\KontrolerHotela\\HCBL020318\\Project" "../Libraries/STM32F4xx_StdPeriph_Driver/inc\\stm32f4xx_i2c.h"
	.section	".note.GNU-stack","",%progbits
	.eabi_attribute	30, 4	@ Tag_ABI_optimization_goals
	.ARM_attribute	16, 1	@ Tag_AV_eba