	.text
	.syntax unified
	.eabi_attribute	67, "2.09"	@ Tag_conformance
	.cpu	cortex-m4
	.eabi_attribute	6, 13	@ Tag_CPU_arch
	.eabi_attribute	7, 77	@ Tag_CPU_arch_profile
	.eabi_attribute	8, 0	@ Tag_ARM_ISA_use
	.eabi_attribute	9, 2	@ Tag_THUMB_ISA_use
	.fpu	fpv4-sp-d16
	.eabi_attribute	27, 1	@ Tag_ABI_HardFP_use
	.eabi_attribute	36, 1	@ Tag_FP_HP_extension
	.eabi_attribute	34, 1	@ Tag_CPU_unaligned_access
	.eabi_attribute	17, 1	@ Tag_ABI_PCS_GOT_use
	.eabi_attribute	20, 2	@ Tag_ABI_FP_denormal
	.eabi_attribute	21, 0	@ Tag_ABI_FP_exceptions
	.eabi_attribute	23, 1	@ Tag_ABI_FP_number_model
	.eabi_attribute	24, 1	@ Tag_ABI_align_needed
	.eabi_attribute	25, 1	@ Tag_ABI_align_preserved
	.eabi_attribute	28, 1	@ Tag_ABI_VFP_args
	.eabi_attribute	38, 1	@ Tag_ABI_FP_16bit_format
	.eabi_attribute	18, 2	@ Tag_ABI_PCS_wchar_t
	.eabi_attribute	26, 1	@ Tag_ABI_enum_size
	.eabi_attribute	14, 0	@ Tag_ABI_PCS_R9_use
	.file	"sdio_sd.c"
	.file	1 "C:\\Keil\\ARM\\ARMCLANG\\Bin\\..\\include" "stdint.h"
	.file	2 "F:\\SkyDrive\\OtvoreniProjekti\\HotelSaplast\\fw\\KontrolerHotela\\HCBL020318\\Project" "../Driver/sdio_sd.c"
	.file	3 "F:\\SkyDrive\\OtvoreniProjekti\\HotelSaplast\\fw\\KontrolerHotela\\HCBL020318\\Project" "../Driver/sdio_sd.h"
	.file	4 "F:\\SkyDrive\\OtvoreniProjekti\\HotelSaplast\\fw\\KontrolerHotela\\HCBL020318\\Project" "../Libraries/STM32F4xx_StdPeriph_Driver/inc\\stm32f4xx_sdio.h"
	.file	5 "F:\\SkyDrive\\OtvoreniProjekti\\HotelSaplast\\fw\\KontrolerHotela\\HCBL020318\\Project" "../Libraries/STM32F4xx_StdPeriph_Driver/inc\\stm32f4xx_gpio.h"
	.file	6 "F:\\SkyDrive\\OtvoreniProjekti\\HotelSaplast\\fw\\KontrolerHotela\\HCBL020318\\Project" "../Libraries/CMSIS/Device/ST/STM32F4xx/Include\\stm32f4xx.h"
	.section	.text.SD_LowLevel_DeInit,"ax",%progbits
	.hidden	SD_LowLevel_DeInit      @ -- Begin function SD_LowLevel_DeInit
	.globl	SD_LowLevel_DeInit
	.p2align	2
	.type	SD_LowLevel_DeInit,%function
	.code	16                      @ @SD_LowLevel_DeInit
	.thumb_func
SD_LowLevel_DeInit:
.Lfunc_begin0:
	.loc	2 379 0                 @ ../Driver/sdio_sd.c:379:0
	.fnstart
	.cfi_sections .debug_frame
	.cfi_startproc
@ %bb.0:
	.save	{r4, r5, r6, r7, lr}
	.pad	#12
	push	{r1, r2, r3, r4, r5, r6, r7, lr}
	.cfi_def_cfa_offset 32
	.cfi_offset lr, -4
	.cfi_offset r7, -8
	.cfi_offset r6, -12
	.cfi_offset r5, -16
	.cfi_offset r4, -20
.Ltmp0:
	.loc	2 383 3 prologue_end    @ ../Driver/sdio_sd.c:383:3
	movs	r0, #0
	movs	r6, #0
	bl	SDIO_ClockCmd
	.loc	2 386 3                 @ ../Driver/sdio_sd.c:386:3
	movs	r0, #0
	bl	SDIO_SetPowerState
	.loc	2 389 3                 @ ../Driver/sdio_sd.c:389:3
	bl	SDIO_DeInit
	.loc	2 392 3                 @ ../Driver/sdio_sd.c:392:3
	mov.w	r0, #2048
	movs	r1, #0
	bl	RCC_APB2PeriphClockCmd
	ldr	r4, __arm_cp.0_0
	.loc	2 394 3                 @ ../Driver/sdio_sd.c:394:3
	ldr	r7, __arm_cp.0_1
	movs	r1, #8
	movs	r2, #0
	mov	r0, r4
	blx	r7
	.loc	2 395 3                 @ ../Driver/sdio_sd.c:395:3
	mov	r0, r4
	movs	r1, #9
	movs	r2, #0
	blx	r7
	.loc	2 396 3                 @ ../Driver/sdio_sd.c:396:3
	mov	r0, r4
	movs	r1, #10
	movs	r2, #0
	blx	r7
	.loc	2 397 3                 @ ../Driver/sdio_sd.c:397:3
	mov	r0, r4
	movs	r1, #11
	movs	r2, #0
	blx	r7
	.loc	2 398 3                 @ ../Driver/sdio_sd.c:398:3
	mov	r0, r4
	movs	r1, #12
	movs	r2, #0
	blx	r7
	.loc	2 399 3                 @ ../Driver/sdio_sd.c:399:3
	add.w	r5, r4, #1024
	movs	r1, #2
	movs	r2, #0
	mov	r0, r5
	blx	r7
	.loc	2 404 32                @ ../Driver/sdio_sd.c:404:32
	strb.w	r6, [sp, #11]
	.loc	2 403 32                @ ../Driver/sdio_sd.c:403:32
	strb.w	r6, [sp, #8]
	mov.w	r0, #3840
	add	r6, sp, #4
	.loc	2 405 3                 @ ../Driver/sdio_sd.c:405:3
	ldr	r7, __arm_cp.0_2
	.loc	2 402 31                @ ../Driver/sdio_sd.c:402:31
	str	r0, [sp, #4]
.Ltmp1:
	@DEBUG_VALUE: SD_LowLevel_DeInit:GPIO_InitStructure <- [DW_OP_plus_uconst 4, DW_OP_deref] $sp
	.loc	2 405 3                 @ ../Driver/sdio_sd.c:405:3
	mov	r0, r4
	mov	r1, r6
	blx	r7
	movs	r0, #4
	.loc	2 409 3                 @ ../Driver/sdio_sd.c:409:3
	mov	r1, r6
	.loc	2 408 31                @ ../Driver/sdio_sd.c:408:31
	str	r0, [sp, #4]
	.loc	2 409 3                 @ ../Driver/sdio_sd.c:409:3
	mov	r0, r5
	blx	r7
	mov.w	r0, #4096
	.loc	2 413 3                 @ ../Driver/sdio_sd.c:413:3
	mov	r1, r6
	.loc	2 412 31                @ ../Driver/sdio_sd.c:412:31
	str	r0, [sp, #4]
	.loc	2 413 3                 @ ../Driver/sdio_sd.c:413:3
	mov	r0, r4
	blx	r7
	.loc	2 414 1                 @ ../Driver/sdio_sd.c:414:1
	pop	{r1, r2, r3, r4, r5, r6, r7, pc}
.Ltmp2:
	.p2align	2
@ %bb.1:
	.loc	2 0 1 is_stmt 0         @ ../Driver/sdio_sd.c:0:1
__arm_cp.0_0:
	.long	1073874944              @ 0x40020800
.Lcpi_end0:
	.size	__arm_cp.0_0, .Lcpi_end0-__arm_cp.0_0
__arm_cp.0_1:
	.long	GPIO_PinAFConfig
.Lcpi_end1:
	.size	__arm_cp.0_1, .Lcpi_end1-__arm_cp.0_1
__arm_cp.0_2:
	.long	GPIO_Init
.Lcpi_end2:
	.size	__arm_cp.0_2, .Lcpi_end2-__arm_cp.0_2
.Lfunc_end0:
	.size	SD_LowLevel_DeInit, .Lfunc_end0-SD_LowLevel_DeInit
	.cfi_endproc
	.cantunwind
	.fnend
                                        @ -- End function
	.section	.text.SD_LowLevel_Init,"ax",%progbits
	.hidden	SD_LowLevel_Init        @ -- Begin function SD_LowLevel_Init
	.globl	SD_LowLevel_Init
	.p2align	2
	.type	SD_LowLevel_Init,%function
	.code	16                      @ @SD_LowLevel_Init
	.thumb_func
SD_LowLevel_Init:
.Lfunc_begin1:
	.loc	2 423 0 is_stmt 1       @ ../Driver/sdio_sd.c:423:0
	.fnstart
	.cfi_startproc
@ %bb.0:
	.save	{r4, r5, r6, r7, lr}
	.pad	#12
	push	{r1, r2, r3, r4, r5, r6, r7, lr}
	.cfi_def_cfa_offset 32
	.cfi_offset lr, -4
	.cfi_offset r7, -8
	.cfi_offset r6, -12
	.cfi_offset r5, -16
	.cfi_offset r4, -20
.Ltmp3:
	.loc	2 427 3 prologue_end    @ ../Driver/sdio_sd.c:427:3
	movs	r0, #12
	movs	r1, #1
	bl	RCC_AHB1PeriphClockCmd
	ldr	r4, __arm_cp.1_0
	.loc	2 429 3                 @ ../Driver/sdio_sd.c:429:3
	ldr	r6, __arm_cp.1_1
	movs	r1, #8
	movs	r2, #12
	mov	r0, r4
	blx	r6
	.loc	2 430 3                 @ ../Driver/sdio_sd.c:430:3
	mov	r0, r4
	movs	r1, #9
	movs	r2, #12
	blx	r6
	.loc	2 431 3                 @ ../Driver/sdio_sd.c:431:3
	mov	r0, r4
	movs	r1, #10
	movs	r2, #12
	blx	r6
	.loc	2 432 3                 @ ../Driver/sdio_sd.c:432:3
	mov	r0, r4
	movs	r1, #11
	movs	r2, #12
	blx	r6
	.loc	2 433 3                 @ ../Driver/sdio_sd.c:433:3
	mov	r0, r4
	movs	r1, #12
	movs	r2, #12
	blx	r6
	.loc	2 434 3                 @ ../Driver/sdio_sd.c:434:3
	add.w	r5, r4, #1024
	movs	r1, #2
	movs	r2, #12
	mov	r0, r5
	blx	r6
	mov.w	r0, #3840
	add	r6, sp, #4
	.loc	2 442 3                 @ ../Driver/sdio_sd.c:442:3
	ldr	r7, __arm_cp.1_3
	.loc	2 437 31                @ ../Driver/sdio_sd.c:437:31
	str	r0, [sp, #4]
	ldr	r0, __arm_cp.1_2
	.loc	2 442 3                 @ ../Driver/sdio_sd.c:442:3
	mov	r1, r6
	.loc	2 439 32                @ ../Driver/sdio_sd.c:439:32
	str	r0, [sp, #8]
.Ltmp4:
	@DEBUG_VALUE: SD_LowLevel_Init:GPIO_InitStructure <- [DW_OP_plus_uconst 4, DW_OP_deref] $sp
	.loc	2 442 3                 @ ../Driver/sdio_sd.c:442:3
	mov	r0, r4
	blx	r7
	movs	r0, #4
	.loc	2 446 3                 @ ../Driver/sdio_sd.c:446:3
	mov	r1, r6
	.loc	2 445 31                @ ../Driver/sdio_sd.c:445:31
	str	r0, [sp, #4]
	.loc	2 446 3                 @ ../Driver/sdio_sd.c:446:3
	mov	r0, r5
	blx	r7
	movs	r0, #0
	.loc	2 451 3                 @ ../Driver/sdio_sd.c:451:3
	mov	r1, r6
	.loc	2 450 32                @ ../Driver/sdio_sd.c:450:32
	strb.w	r0, [sp, #11]
	mov.w	r0, #4096
	.loc	2 449 31                @ ../Driver/sdio_sd.c:449:31
	str	r0, [sp, #4]
	.loc	2 451 3                 @ ../Driver/sdio_sd.c:451:3
	mov	r0, r4
	blx	r7
	.loc	2 461 3                 @ ../Driver/sdio_sd.c:461:3
	mov.w	r0, #2048
	movs	r1, #1
	bl	RCC_APB2PeriphClockCmd
	.loc	2 464 3                 @ ../Driver/sdio_sd.c:464:3
	mov.w	r0, #4194304
	movs	r1, #1
	bl	RCC_AHB1PeriphClockCmd
	.loc	2 465 1                 @ ../Driver/sdio_sd.c:465:1
	pop	{r1, r2, r3, r4, r5, r6, r7, pc}
.Ltmp5:
	.p2align	2
@ %bb.1:
	.loc	2 0 1 is_stmt 0         @ ../Driver/sdio_sd.c:0:1
__arm_cp.1_0:
	.long	1073874944              @ 0x40020800
.Lcpi_end3:
	.size	__arm_cp.1_0, .Lcpi_end3-__arm_cp.1_0
__arm_cp.1_1:
	.long	GPIO_PinAFConfig
.Lcpi_end4:
	.size	__arm_cp.1_1, .Lcpi_end4-__arm_cp.1_1
__arm_cp.1_2:
	.long	16777730                @ 0x1000202
.Lcpi_end5:
	.size	__arm_cp.1_2, .Lcpi_end5-__arm_cp.1_2
__arm_cp.1_3:
	.long	GPIO_Init
.Lcpi_end6:
	.size	__arm_cp.1_3, .Lcpi_end6-__arm_cp.1_3
.Lfunc_end1:
	.size	SD_LowLevel_Init, .Lfunc_end1-SD_LowLevel_Init
	.cfi_endproc
	.cantunwind
	.fnend
                                        @ -- End function
	.section	.text.SD_LowLevel_DMA_TxConfig,"ax",%progbits
	.hidden	SD_LowLevel_DMA_TxConfig @ -- Begin function SD_LowLevel_DMA_TxConfig
	.globl	SD_LowLevel_DMA_TxConfig
	.p2align	2
	.type	SD_LowLevel_DMA_TxConfig,%function
	.code	16                      @ @SD_LowLevel_DMA_TxConfig
	.thumb_func
SD_LowLevel_DMA_TxConfig:
.Lfunc_begin2:
	.loc	2 474 0 is_stmt 1       @ ../Driver/sdio_sd.c:474:0
	.fnstart
	.cfi_startproc
@ %bb.0:
	.save	{r4, r5, r6, lr}
	push	{r4, r5, r6, lr}
	.cfi_def_cfa_offset 16
	.cfi_offset lr, -4
	.cfi_offset r6, -8
	.cfi_offset r5, -12
	.cfi_offset r4, -16
	.pad	#64
	sub	sp, #64
	.cfi_def_cfa_offset 80
	@DEBUG_VALUE: SD_LowLevel_DMA_TxConfig:BufferSRC <- $r0
	ldr	r4, __arm_cp.2_0
	mov	r5, r0
	@DEBUG_VALUE: SD_LowLevel_DMA_TxConfig:BufferSize <- undef
.Ltmp6:
	@DEBUG_VALUE: SD_LowLevel_DMA_TxConfig:BufferSRC <- $r5
	.loc	2 477 3 prologue_end    @ ../Driver/sdio_sd.c:477:3
	mov.w	r1, #524288000
	mov	r0, r4
	bl	DMA_ClearFlag
	.loc	2 480 3                 @ ../Driver/sdio_sd.c:480:3
	mov	r0, r4
	movs	r1, #0
	movs	r6, #0
	bl	DMA_Cmd
	.loc	2 483 3                 @ ../Driver/sdio_sd.c:483:3
	mov	r0, r4
	bl	DMA_DeInit
	mov.w	r0, #2097152
	add	r1, sp, #4
	.loc	2 499 43                @ ../Driver/sdio_sd.c:499:43
	str	r0, [sp, #60]
	mov.w	r0, #8388608
	.loc	2 498 39                @ ../Driver/sdio_sd.c:498:39
	str	r0, [sp, #56]
	movs	r0, #3
	.loc	2 497 41                @ ../Driver/sdio_sd.c:497:41
	str	r0, [sp, #52]
	movs	r0, #4
	.loc	2 496 36                @ ../Driver/sdio_sd.c:496:36
	str	r0, [sp, #48]
	mov.w	r0, #196608
	.loc	2 494 32                @ ../Driver/sdio_sd.c:494:32
	strd	r6, r0, [sp, #40]
	mov.w	r0, #16384
	.loc	2 493 42                @ ../Driver/sdio_sd.c:493:42
	str	r0, [sp, #36]
	mov.w	r0, #4096
	.loc	2 492 46                @ ../Driver/sdio_sd.c:492:46
	str	r0, [sp, #32]
	mov.w	r0, #1024
	.loc	2 490 41                @ ../Driver/sdio_sd.c:490:41
	strd	r6, r0, [sp, #24]
	movs	r0, #1
	.loc	2 489 38                @ ../Driver/sdio_sd.c:489:38
	str	r0, [sp, #20]
	movs	r0, #64
	.loc	2 487 43                @ ../Driver/sdio_sd.c:487:43
	strd	r5, r0, [sp, #12]
	ldr	r0, __arm_cp.2_1
	.loc	2 486 46                @ ../Driver/sdio_sd.c:486:46
	str	r0, [sp, #8]
	mov.w	r0, #134217728
	.loc	2 485 35                @ ../Driver/sdio_sd.c:485:35
	str	r0, [sp, #4]
.Ltmp7:
	@DEBUG_VALUE: SD_LowLevel_DMA_TxConfig:SDDMA_InitStructure <- [DW_OP_plus_uconst 4, DW_OP_deref] $sp
	.loc	2 500 3                 @ ../Driver/sdio_sd.c:500:3
	mov	r0, r4
	bl	DMA_Init
	.loc	2 501 3                 @ ../Driver/sdio_sd.c:501:3
	mov	r0, r4
	movs	r1, #16
	movs	r2, #1
	bl	DMA_ITConfig
	.loc	2 502 3                 @ ../Driver/sdio_sd.c:502:3
	mov	r0, r4
	movs	r1, #32
	bl	DMA_FlowControllerConfig
	.loc	2 505 3                 @ ../Driver/sdio_sd.c:505:3
	mov	r0, r4
	movs	r1, #1
	bl	DMA_Cmd
	.loc	2 507 1                 @ ../Driver/sdio_sd.c:507:1
	add	sp, #64
.Ltmp8:
	pop	{r4, r5, r6, pc}
.Ltmp9:
	.p2align	2
@ %bb.1:
	.loc	2 0 1 is_stmt 0         @ ../Driver/sdio_sd.c:0:1
__arm_cp.2_0:
	.long	1073898584              @ 0x40026458
.Lcpi_end7:
	.size	__arm_cp.2_0, .Lcpi_end7-__arm_cp.2_0
__arm_cp.2_1:
	.long	1073818752              @ 0x40012c80
.Lcpi_end8:
	.size	__arm_cp.2_1, .Lcpi_end8-__arm_cp.2_1
.Lfunc_end2:
	.size	SD_LowLevel_DMA_TxConfig, .Lfunc_end2-SD_LowLevel_DMA_TxConfig
	.cfi_endproc
	.cantunwind
	.fnend
                                        @ -- End function
	.section	.text.SD_LowLevel_DMA_RxConfig,"ax",%progbits
	.hidden	SD_LowLevel_DMA_RxConfig @ -- Begin function SD_LowLevel_DMA_RxConfig
	.globl	SD_LowLevel_DMA_RxConfig
	.p2align	2
	.type	SD_LowLevel_DMA_RxConfig,%function
	.code	16                      @ @SD_LowLevel_DMA_RxConfig
	.thumb_func
SD_LowLevel_DMA_RxConfig:
.Lfunc_begin3:
	.loc	2 516 0 is_stmt 1       @ ../Driver/sdio_sd.c:516:0
	.fnstart
	.cfi_startproc
@ %bb.0:
	.save	{r4, r5, r6, lr}
	push	{r4, r5, r6, lr}
	.cfi_def_cfa_offset 16
	.cfi_offset lr, -4
	.cfi_offset r6, -8
	.cfi_offset r5, -12
	.cfi_offset r4, -16
	.pad	#64
	sub	sp, #64
	.cfi_def_cfa_offset 80
	@DEBUG_VALUE: SD_LowLevel_DMA_RxConfig:BufferDST <- $r0
	ldr	r4, __arm_cp.3_0
	mov	r5, r0
	@DEBUG_VALUE: SD_LowLevel_DMA_RxConfig:BufferSize <- undef
.Ltmp10:
	@DEBUG_VALUE: SD_LowLevel_DMA_RxConfig:BufferDST <- $r5
	.loc	2 519 3 prologue_end    @ ../Driver/sdio_sd.c:519:3
	mov.w	r1, #524288000
	mov	r0, r4
	bl	DMA_ClearFlag
	.loc	2 522 3                 @ ../Driver/sdio_sd.c:522:3
	mov	r0, r4
	movs	r1, #0
	movs	r6, #0
	bl	DMA_Cmd
	.loc	2 525 3                 @ ../Driver/sdio_sd.c:525:3
	mov	r0, r4
	bl	DMA_DeInit
	mov.w	r0, #2097152
	add	r1, sp, #4
	.loc	2 541 43                @ ../Driver/sdio_sd.c:541:43
	str	r0, [sp, #60]
	mov.w	r0, #8388608
	.loc	2 540 39                @ ../Driver/sdio_sd.c:540:39
	str	r0, [sp, #56]
	movs	r0, #3
	.loc	2 539 41                @ ../Driver/sdio_sd.c:539:41
	str	r0, [sp, #52]
	movs	r0, #4
	.loc	2 538 36                @ ../Driver/sdio_sd.c:538:36
	str	r0, [sp, #48]
	mov.w	r0, #196608
	.loc	2 536 32                @ ../Driver/sdio_sd.c:536:32
	strd	r6, r0, [sp, #40]
	mov.w	r0, #16384
	.loc	2 535 42                @ ../Driver/sdio_sd.c:535:42
	str	r0, [sp, #36]
	mov.w	r0, #4096
	.loc	2 534 46                @ ../Driver/sdio_sd.c:534:46
	str	r0, [sp, #32]
	mov.w	r0, #1024
	.loc	2 532 41                @ ../Driver/sdio_sd.c:532:41
	strd	r6, r0, [sp, #24]
	movs	r0, #1
	.loc	2 531 38                @ ../Driver/sdio_sd.c:531:38
	str	r0, [sp, #20]
	ldr	r0, __arm_cp.3_1
	.loc	2 529 43                @ ../Driver/sdio_sd.c:529:43
	strd	r5, r6, [sp, #12]
	.loc	2 528 46                @ ../Driver/sdio_sd.c:528:46
	str	r0, [sp, #8]
	mov.w	r0, #134217728
	.loc	2 527 35                @ ../Driver/sdio_sd.c:527:35
	str	r0, [sp, #4]
.Ltmp11:
	@DEBUG_VALUE: SD_LowLevel_DMA_RxConfig:SDDMA_InitStructure <- [DW_OP_plus_uconst 4, DW_OP_deref] $sp
	.loc	2 542 3                 @ ../Driver/sdio_sd.c:542:3
	mov	r0, r4
	bl	DMA_Init
	.loc	2 543 3                 @ ../Driver/sdio_sd.c:543:3
	mov	r0, r4
	movs	r1, #16
	movs	r2, #1
	bl	DMA_ITConfig
	.loc	2 544 3                 @ ../Driver/sdio_sd.c:544:3
	mov	r0, r4
	movs	r1, #32
	bl	DMA_FlowControllerConfig
	.loc	2 547 3                 @ ../Driver/sdio_sd.c:547:3
	mov	r0, r4
	movs	r1, #1
	bl	DMA_Cmd
	.loc	2 548 1                 @ ../Driver/sdio_sd.c:548:1
	add	sp, #64
.Ltmp12:
	pop	{r4, r5, r6, pc}
.Ltmp13:
	.p2align	2
@ %bb.1:
	.loc	2 0 1 is_stmt 0         @ ../Driver/sdio_sd.c:0:1
__arm_cp.3_0:
	.long	1073898584              @ 0x40026458
.Lcpi_end9:
	.size	__arm_cp.3_0, .Lcpi_end9-__arm_cp.3_0
__arm_cp.3_1:
	.long	1073818752              @ 0x40012c80
.Lcpi_end10:
	.size	__arm_cp.3_1, .Lcpi_end10-__arm_cp.3_1
.Lfunc_end3:
	.size	SD_LowLevel_DMA_RxConfig, .Lfunc_end3-SD_LowLevel_DMA_RxConfig
	.cfi_endproc
	.cantunwind
	.fnend
                                        @ -- End function
	.section	.text.SD_DeInit,"ax",%progbits
	.hidden	SD_DeInit               @ -- Begin function SD_DeInit
	.globl	SD_DeInit
	.p2align	1
	.type	SD_DeInit,%function
	.code	16                      @ @SD_DeInit
	.thumb_func
SD_DeInit:
.Lfunc_begin4:
	.loc	2 556 0 is_stmt 1       @ ../Driver/sdio_sd.c:556:0
	.fnstart
	.cfi_startproc
@ %bb.0:
	.loc	2 557 3 prologue_end    @ ../Driver/sdio_sd.c:557:3
	b	SD_LowLevel_DeInit
.Ltmp14:
.Lfunc_end4:
	.size	SD_DeInit, .Lfunc_end4-SD_DeInit
	.cfi_endproc
	.cantunwind
	.fnend
                                        @ -- End function
	.section	.text.SD_Init,"ax",%progbits
	.hidden	SD_Init                 @ -- Begin function SD_Init
	.globl	SD_Init
	.p2align	2
	.type	SD_Init,%function
	.code	16                      @ @SD_Init
	.thumb_func
SD_Init:
.Lfunc_begin5:
	.loc	2 567 0                 @ ../Driver/sdio_sd.c:567:0
	.fnstart
	.cfi_startproc
@ %bb.0:
	.save	{r4, lr}
	.pad	#8
	push	{r2, r3, r4, lr}
	.cfi_def_cfa_offset 16
	.cfi_offset lr, -4
	.cfi_offset r4, -8
	movs	r0, #0
.Ltmp15:
	.loc	2 568 17 prologue_end   @ ../Driver/sdio_sd.c:568:17
	strb.w	r0, [sp, #7]
	.loc	2 571 3                 @ ../Driver/sdio_sd.c:571:3
	bl	SD_LowLevel_Init
	.loc	2 573 3                 @ ../Driver/sdio_sd.c:573:3
	bl	SDIO_DeInit
	.loc	2 575 17                @ ../Driver/sdio_sd.c:575:17
	bl	SD_PowerON
	.loc	2 575 15 is_stmt 0      @ ../Driver/sdio_sd.c:575:15
	strb.w	r0, [sp, #7]
.Ltmp16:
	.loc	2 577 7 is_stmt 1       @ ../Driver/sdio_sd.c:577:7
	ldrb.w	r0, [sp, #7]
.Ltmp17:
	.loc	2 577 7 is_stmt 0       @ ../Driver/sdio_sd.c:577:7
	cbnz	r0, .LBB5_6
@ %bb.1:
	.loc	2 583 17 is_stmt 1      @ ../Driver/sdio_sd.c:583:17
	bl	SD_InitializeCards
	.loc	2 583 15 is_stmt 0      @ ../Driver/sdio_sd.c:583:15
	strb.w	r0, [sp, #7]
.Ltmp18:
	.loc	2 585 7 is_stmt 1       @ ../Driver/sdio_sd.c:585:7
	ldrb.w	r0, [sp, #7]
.Ltmp19:
	.loc	2 585 7 is_stmt 0       @ ../Driver/sdio_sd.c:585:7
	cbnz	r0, .LBB5_6
@ %bb.2:
	.loc	2 595 37 is_stmt 1      @ ../Driver/sdio_sd.c:595:37
	ldr	r0, __arm_cp.5_0
	movs	r1, #21
	add.w	r4, r0, #76
	mov	r0, r4
	bl	__aeabi_memclr4
	.loc	2 600 3                 @ ../Driver/sdio_sd.c:600:3
	mov	r0, r4
	bl	SDIO_Init
	.loc	2 603 17                @ ../Driver/sdio_sd.c:603:17
	ldr	r4, __arm_cp.5_1
	mov	r0, r4
	bl	SD_GetCardInfo
	movs	r0, #0
	.loc	2 603 15 is_stmt 0      @ ../Driver/sdio_sd.c:603:15
	strb.w	r0, [sp, #7]
.Ltmp20:
	.loc	2 605 7 is_stmt 1       @ ../Driver/sdio_sd.c:605:7
	ldrb.w	r0, [sp, #7]
.Ltmp21:
	.loc	2 605 7 is_stmt 0       @ ../Driver/sdio_sd.c:605:7
	cbnz	r0, .LBB5_4
@ %bb.3:
.Ltmp22:
	.loc	2 608 60 is_stmt 1      @ ../Driver/sdio_sd.c:608:60
	ldrh.w	r0, [r4, #84]
	.loc	2 608 19 is_stmt 0      @ ../Driver/sdio_sd.c:608:19
	movs	r1, #0
	.loc	2 608 37                @ ../Driver/sdio_sd.c:608:37
	lsls	r0, r0, #16
	.loc	2 608 19                @ ../Driver/sdio_sd.c:608:19
	bl	SD_SelectDeselect
	.loc	2 608 17                @ ../Driver/sdio_sd.c:608:17
	strb.w	r0, [sp, #7]
.Ltmp23:
.LBB5_4:
	.loc	2 611 7 is_stmt 1       @ ../Driver/sdio_sd.c:611:7
	ldrb.w	r0, [sp, #7]
.Ltmp24:
	.loc	2 611 7 is_stmt 0       @ ../Driver/sdio_sd.c:611:7
	cbnz	r0, .LBB5_6
@ %bb.5:
.Ltmp25:
	.loc	2 613 19 is_stmt 1      @ ../Driver/sdio_sd.c:613:19
	mov.w	r0, #2048
	bl	SD_EnableWideBusOperation
	.loc	2 613 17 is_stmt 0      @ ../Driver/sdio_sd.c:613:17
	strb.w	r0, [sp, #7]
.Ltmp26:
.LBB5_6:
	.loc	2 0 0                   @ ../Driver/sdio_sd.c:0:0
	ldrb.w	r0, [sp, #7]
	.loc	2 617 1 is_stmt 1       @ ../Driver/sdio_sd.c:617:1
	add	sp, #8
	pop	{r4, pc}
.Ltmp27:
	.p2align	2
@ %bb.7:
	.loc	2 0 1 is_stmt 0         @ ../Driver/sdio_sd.c:0:1
__arm_cp.5_0:
	.long	.L_MergedGlobals
.Lcpi_end11:
	.size	__arm_cp.5_0, .Lcpi_end11-__arm_cp.5_0
__arm_cp.5_1:
	.long	SDCardInfo
.Lcpi_end12:
	.size	__arm_cp.5_1, .Lcpi_end12-__arm_cp.5_1
.Lfunc_end5:
	.size	SD_Init, .Lfunc_end5-SD_Init
	.cfi_endproc
	.cantunwind
	.fnend
                                        @ -- End function
	.section	.text.SD_PowerON,"ax",%progbits
	.hidden	SD_PowerON              @ -- Begin function SD_PowerON
	.globl	SD_PowerON
	.p2align	2
	.type	SD_PowerON,%function
	.code	16                      @ @SD_PowerON
	.thumb_func
SD_PowerON:
.Lfunc_begin6:
	.loc	2 697 0 is_stmt 1       @ ../Driver/sdio_sd.c:697:0
	.fnstart
	.cfi_startproc
@ %bb.0:
	.save	{r4, r5, r6, r7, r8, r9, r10, r11, lr}
	.pad	#4
	push.w	{r3, r4, r5, r6, r7, r8, r9, r10, r11, lr}
	.cfi_def_cfa_offset 40
	.cfi_offset lr, -4
	.cfi_offset r11, -8
	.cfi_offset r10, -12
	.cfi_offset r9, -16
	.cfi_offset r8, -20
	.cfi_offset r7, -24
	.cfi_offset r6, -28
	.cfi_offset r5, -32
	.cfi_offset r4, -36
.Ltmp28:
	@DEBUG_VALUE: SD_PowerON:response <- 0
	@DEBUG_VALUE: SD_PowerON:count <- 0
	@DEBUG_VALUE: SD_PowerON:validvoltage <- 0
	@DEBUG_VALUE: SD_PowerON:SDType <- 0
	.loc	2 707 36 prologue_end   @ ../Driver/sdio_sd.c:707:36
	ldr.w	r8, __arm_cp.6_0
	movs	r0, #118
	movs	r5, #0
	.loc	2 709 39                @ ../Driver/sdio_sd.c:709:39
	movs	r1, #20
	.loc	2 707 36                @ ../Driver/sdio_sd.c:707:36
	add.w	r4, r8, #76
	strb.w	r0, [r8, #96]
	.loc	2 698 17                @ ../Driver/sdio_sd.c:698:17
	strb.w	r5, [sp, #3]
	.loc	2 709 39                @ ../Driver/sdio_sd.c:709:39
	mov	r0, r4
	bl	__aeabi_memclr4
	.loc	2 713 3                 @ ../Driver/sdio_sd.c:713:3
	mov	r0, r4
	bl	SDIO_Init
	.loc	2 716 3                 @ ../Driver/sdio_sd.c:716:3
	movs	r0, #3
	bl	SDIO_SetPowerState
	.loc	2 719 3                 @ ../Driver/sdio_sd.c:719:3
	movs	r0, #1
	bl	SDIO_ClockCmd
	.loc	2 724 39                @ ../Driver/sdio_sd.c:724:39
	mov	r0, r8
	mov.w	r1, #1024
	str	r5, [r0, #56]!
	strd	r5, r5, [r0, #4]
	strd	r5, r1, [r0, #12]
	.loc	2 728 3                 @ ../Driver/sdio_sd.c:728:3
	bl	SDIO_SendCommand
	mvn	r4, #65536
.Ltmp29:
	@DEBUG_VALUE: CmdError:timeout <- 65536
	@DEBUG_VALUE: CmdError:errorstatus <- 0
.LBB6_1:                                @ =>This Inner Loop Header: Depth=1
	@DEBUG_VALUE: CmdError:timeout <- undef
	.loc	2 2229 19               @ ../Driver/sdio_sd.c:2229:19
	adds	r4, #1
	.loc	2 2229 24 is_stmt 0     @ ../Driver/sdio_sd.c:2229:24
	beq	.LBB6_4
@ %bb.2:                                @   in Loop: Header=BB6_1 Depth=1
	.loc	2 2229 28               @ ../Driver/sdio_sd.c:2229:28
	movs	r0, #128
	bl	SDIO_GetFlagStatus
.Ltmp30:
	@DEBUG_VALUE: CmdError:timeout <- [DW_OP_constu 1, DW_OP_minus, DW_OP_stack_value] undef
	.loc	2 2229 3                @ ../Driver/sdio_sd.c:2229:3
	cmp	r0, #0
	beq	.LBB6_1
@ %bb.3:
	.loc	2 2241 3 is_stmt 1      @ ../Driver/sdio_sd.c:2241:3
	movw	r0, #1535
	bl	SDIO_ClearFlag
	movs	r0, #0
	b	.LBB6_5
.Ltmp31:
.LBB6_4:
	.loc	2 0 3 is_stmt 0         @ ../Driver/sdio_sd.c:0:3
	movs	r0, #3
.LBB6_5:
	.loc	2 730 15 is_stmt 1      @ ../Driver/sdio_sd.c:730:15
	strb.w	r0, [sp, #3]
.Ltmp32:
	.loc	2 732 7                 @ ../Driver/sdio_sd.c:732:7
	ldrb.w	r0, [sp, #3]
.Ltmp33:
	.loc	2 732 7 is_stmt 0       @ ../Driver/sdio_sd.c:732:7
	cmp	r0, #0
	bne	.LBB6_19
@ %bb.6:
	.loc	2 0 7                   @ ../Driver/sdio_sd.c:0:7
	mov.w	r1, #426
	.loc	2 744 39 is_stmt 1      @ ../Driver/sdio_sd.c:744:39
	mov	r0, r8
	movs	r2, #0
	movs	r3, #64
	movs	r7, #8
	str	r1, [r0, #56]!
	mov.w	r1, #1024
	.loc	2 745 39                @ ../Driver/sdio_sd.c:745:39
	strd	r7, r3, [r0, #4]
	.loc	2 747 35                @ ../Driver/sdio_sd.c:747:35
	strd	r2, r1, [r0, #12]
	.loc	2 749 3                 @ ../Driver/sdio_sd.c:749:3
	bl	SDIO_SendCommand
	ldr	r2, __arm_cp.6_1
	ldr	r4, __arm_cp.6_2
.Ltmp34:
	@DEBUG_VALUE: CmdResp7Error:timeout <- 65536
	@DEBUG_VALUE: CmdResp7Error:errorstatus <- 0
.LBB6_7:                                @ =>This Inner Loop Header: Depth=1
	.loc	2 0 0 is_stmt 0         @ ../Driver/sdio_sd.c:0:0
	ldr	r0, [r4]
.Ltmp35:
	@DEBUG_VALUE: CmdResp7Error:status <- $r0
	@DEBUG_VALUE: CmdResp7Error:timeout <- undef
	mov	r1, r2
.Ltmp36:
	@DEBUG_VALUE: CmdResp7Error:timeout <- [DW_OP_constu 1, DW_OP_minus, DW_OP_stack_value] undef
	.loc	2 2259 3 is_stmt 1      @ ../Driver/sdio_sd.c:2259:3
	cbz	r2, .LBB6_9
.Ltmp37:
@ %bb.8:                                @   in Loop: Header=BB6_7 Depth=1
	@DEBUG_VALUE: CmdResp7Error:status <- $r0
	.loc	2 0 0 is_stmt 0         @ ../Driver/sdio_sd.c:0:0
	adds	r2, r1, #1
	ands	r3, r0, #69
	.loc	2 2259 3                @ ../Driver/sdio_sd.c:2259:3
	beq	.LBB6_7
.Ltmp38:
.LBB6_9:
	@DEBUG_VALUE: CmdResp7Error:status <- $r0
	.loc	2 2265 22 is_stmt 1     @ ../Driver/sdio_sd.c:2265:22
	cbz	r1, .LBB6_14
.Ltmp39:
@ %bb.10:
	@DEBUG_VALUE: CmdResp7Error:status <- $r0
	.loc	2 0 0 is_stmt 0         @ ../Driver/sdio_sd.c:0:0
	ands	r1, r0, #4
	.loc	2 2265 22               @ ../Driver/sdio_sd.c:2265:22
	bne	.LBB6_14
.Ltmp40:
@ %bb.11:
	@DEBUG_VALUE: CmdResp7Error:status <- $r0
	.loc	2 2273 7 is_stmt 1      @ ../Driver/sdio_sd.c:2273:7
	lsls	r0, r0, #25
.Ltmp41:
	bpl	.LBB6_13
@ %bb.12:
	@DEBUG_VALUE: CmdResp7Error:errorstatus <- 0
.Ltmp42:
	.loc	2 2277 5                @ ../Driver/sdio_sd.c:2277:5
	movs	r0, #64
	bl	SDIO_ClearFlag
.Ltmp43:
.LBB6_13:
	.loc	2 0 5 is_stmt 0         @ ../Driver/sdio_sd.c:0:5
	movs	r0, #0
	b	.LBB6_15
.LBB6_14:
.Ltmp44:
	@DEBUG_VALUE: CmdResp7Error:status <- $r0
	@DEBUG_VALUE: CmdResp7Error:errorstatus <- 3
	.loc	2 2269 5 is_stmt 1      @ ../Driver/sdio_sd.c:2269:5
	movs	r0, #4
.Ltmp45:
	bl	SDIO_ClearFlag
	movs	r0, #3
.Ltmp46:
.LBB6_15:
	.loc	2 751 15                @ ../Driver/sdio_sd.c:751:15
	strb.w	r0, [sp, #3]
	ldr	r1, __arm_cp.6_3
.Ltmp47:
	.loc	2 753 7                 @ ../Driver/sdio_sd.c:753:7
	ldrb.w	r0, [sp, #3]
.Ltmp48:
	.loc	2 753 7 is_stmt 0       @ ../Driver/sdio_sd.c:753:7
	cbz	r0, .LBB6_17
@ %bb.16:
	.loc	2 0 7                   @ ../Driver/sdio_sd.c:0:7
	mov	r10, r1
	movs	r1, #0
.Ltmp49:
	.loc	2 761 41 is_stmt 1      @ ../Driver/sdio_sd.c:761:41
	mov	r0, r8
	mov.w	r2, #1024
	movs	r3, #64
	movs	r7, #55
	str	r1, [r0, #56]!
	.loc	2 762 41                @ ../Driver/sdio_sd.c:762:41
	strd	r7, r3, [r0, #4]
	.loc	2 764 37                @ ../Driver/sdio_sd.c:764:37
	strd	r1, r2, [r0, #12]
	.loc	2 766 5                 @ ../Driver/sdio_sd.c:766:5
	bl	SDIO_SendCommand
	.loc	2 767 19                @ ../Driver/sdio_sd.c:767:19
	movs	r0, #55
	bl	CmdResp1Error
	.loc	2 767 17 is_stmt 0      @ ../Driver/sdio_sd.c:767:17
	strb.w	r0, [sp, #3]
	b	.LBB6_18
.Ltmp50:
.LBB6_17:
	.loc	2 0 17                  @ ../Driver/sdio_sd.c:0:17
	movs	r0, #1
	add.w	r1, r1, #1073741824
.Ltmp51:
	.loc	2 755 14 is_stmt 1      @ ../Driver/sdio_sd.c:755:14
	strb.w	r0, [r8, #4]
.Ltmp52:
	@DEBUG_VALUE: SD_PowerON:SDType <- 1073741824
	.loc	2 0 14 is_stmt 0        @ ../Driver/sdio_sd.c:0:14
	mov	r10, r1
.Ltmp53:
.LBB6_18:
	movs	r7, #0
	.loc	2 770 39 is_stmt 1      @ ../Driver/sdio_sd.c:770:39
	mov	r0, r8
	mov.w	r6, #1024
	movs	r5, #64
	mov.w	r9, #55
	str	r7, [r0, #56]!
	.loc	2 771 39                @ ../Driver/sdio_sd.c:771:39
	strd	r9, r5, [r0, #4]
	.loc	2 773 35                @ ../Driver/sdio_sd.c:773:35
	strd	r7, r6, [r0, #12]
	.loc	2 775 3                 @ ../Driver/sdio_sd.c:775:3
	bl	SDIO_SendCommand
	.loc	2 776 17                @ ../Driver/sdio_sd.c:776:17
	movs	r0, #55
	bl	CmdResp1Error
	.loc	2 776 15 is_stmt 0      @ ../Driver/sdio_sd.c:776:15
	strb.w	r0, [sp, #3]
.Ltmp54:
	.loc	2 781 7 is_stmt 1       @ ../Driver/sdio_sd.c:781:7
	ldrb.w	r0, [sp, #3]
.Ltmp55:
	.loc	2 781 7 is_stmt 0       @ ../Driver/sdio_sd.c:781:7
	cbz	r0, .LBB6_20
.LBB6_19:
	.loc	2 0 0                   @ ../Driver/sdio_sd.c:0:0
	ldrb.w	r0, [sp, #3]
	.loc	2 833 1 is_stmt 1       @ ../Driver/sdio_sd.c:833:1
	add	sp, #4
	pop.w	{r4, r5, r6, r7, r8, r9, r10, r11, pc}
.LBB6_20:
	.loc	2 0 1 is_stmt 0         @ ../Driver/sdio_sd.c:0:1
	movs	r1, #0
	mov.w	r11, #0
	movs	r0, #0
	b	.LBB6_28
.LBB6_21:                               @   in Loop: Header=BB6_28 Depth=1
.Ltmp56:
	@DEBUG_VALUE: SD_PowerON:count <- $r11
	.loc	2 802 43 is_stmt 1      @ ../Driver/sdio_sd.c:802:43
	mov	r0, r8
	.loc	2 803 43                @ ../Driver/sdio_sd.c:803:43
	movs	r1, #41
	.loc	2 802 43                @ ../Driver/sdio_sd.c:802:43
	str	r10, [r0, #56]!
	.loc	2 803 43                @ ../Driver/sdio_sd.c:803:43
	adds	r2, r0, #4
	stm	r2!, {r1, r5, r7}
	.loc	2 806 39                @ ../Driver/sdio_sd.c:806:39
	str	r6, [r0, #16]
	.loc	2 807 7                 @ ../Driver/sdio_sd.c:807:7
	bl	SDIO_SendCommand
.Ltmp57:
	@DEBUG_VALUE: CmdResp3Error:errorstatus <- 0
.LBB6_22:                               @   Parent Loop BB6_28 Depth=1
                                        @ =>  This Inner Loop Header: Depth=2
	@DEBUG_VALUE: SD_PowerON:count <- $r11
	.loc	2 0 0 is_stmt 0         @ ../Driver/sdio_sd.c:0:0
	ldr	r0, [r4]
.Ltmp58:
	@DEBUG_VALUE: CmdResp3Error:status <- $r0
	.loc	2 2441 3 is_stmt 1      @ ../Driver/sdio_sd.c:2441:3
	tst.w	r0, #69
	beq	.LBB6_22
.Ltmp59:
@ %bb.23:                               @   in Loop: Header=BB6_28 Depth=1
	@DEBUG_VALUE: SD_PowerON:count <- $r11
	@DEBUG_VALUE: CmdResp3Error:status <- $r0
	.loc	2 2446 7                @ ../Driver/sdio_sd.c:2446:7
	lsls	r0, r0, #29
.Ltmp60:
	bmi	.LBB6_25
.Ltmp61:
@ %bb.24:                               @   in Loop: Header=BB6_28 Depth=1
	@DEBUG_VALUE: SD_PowerON:count <- $r11
	.loc	2 2453 3                @ ../Driver/sdio_sd.c:2453:3
	movw	r0, #1535
	bl	SDIO_ClearFlag
	movs	r0, #0
	b	.LBB6_26
.Ltmp62:
.LBB6_25:                               @   in Loop: Header=BB6_28 Depth=1
	@DEBUG_VALUE: SD_PowerON:count <- $r11
	@DEBUG_VALUE: CmdResp3Error:errorstatus <- 3
	.loc	2 2449 5                @ ../Driver/sdio_sd.c:2449:5
	movs	r0, #4
	bl	SDIO_ClearFlag
	movs	r0, #3
.Ltmp63:
.LBB6_26:                               @   in Loop: Header=BB6_28 Depth=1
	@DEBUG_VALUE: SD_PowerON:count <- $r11
	.loc	2 809 19                @ ../Driver/sdio_sd.c:809:19
	strb.w	r0, [sp, #3]
.Ltmp64:
	.loc	2 810 11                @ ../Driver/sdio_sd.c:810:11
	ldrb.w	r0, [sp, #3]
.Ltmp65:
	.loc	2 810 11 is_stmt 0      @ ../Driver/sdio_sd.c:810:11
	cmp	r0, #0
	bne	.LBB6_19
.Ltmp66:
@ %bb.27:                               @   in Loop: Header=BB6_28 Depth=1
	@DEBUG_VALUE: SD_PowerON:count <- $r11
	.loc	2 815 18 is_stmt 1      @ ../Driver/sdio_sd.c:815:18
	movs	r0, #0
	bl	SDIO_GetResponse
.Ltmp67:
	@DEBUG_VALUE: SD_PowerON:response <- $r0
	.loc	2 785 5                 @ ../Driver/sdio_sd.c:785:5
	and	r1, r0, #1073741824
.Ltmp68:
	.loc	2 817 12                @ ../Driver/sdio_sd.c:817:12
	add.w	r11, r11, #1
.Ltmp69:
	@DEBUG_VALUE: SD_PowerON:count <- $r11
	.loc	2 816 23                @ ../Driver/sdio_sd.c:816:23
	lsrs	r0, r0, #31
.Ltmp70:
	@DEBUG_VALUE: SD_PowerON:validvoltage <- $r0
.LBB6_28:                               @ =>This Loop Header: Depth=1
                                        @     Child Loop BB6_22 Depth 2
	@DEBUG_VALUE: SD_PowerON:response <- $r1
	@DEBUG_VALUE: SD_PowerON:count <- $r11
	@DEBUG_VALUE: SD_PowerON:validvoltage <- $r0
	.loc	2 785 5                 @ ../Driver/sdio_sd.c:785:5
	movw	r2, #65534
	cmp	r11, r2
	bhi	.LBB6_31
.Ltmp71:
@ %bb.29:                               @   in Loop: Header=BB6_28 Depth=1
	@DEBUG_VALUE: SD_PowerON:response <- $r1
	@DEBUG_VALUE: SD_PowerON:validvoltage <- $r0
	@DEBUG_VALUE: SD_PowerON:count <- $r11
	cbnz	r0, .LBB6_31
.Ltmp72:
@ %bb.30:                               @   in Loop: Header=BB6_28 Depth=1
	@DEBUG_VALUE: SD_PowerON:response <- $r1
	@DEBUG_VALUE: SD_PowerON:validvoltage <- $r0
	@DEBUG_VALUE: SD_PowerON:count <- $r11
	.loc	2 789 43                @ ../Driver/sdio_sd.c:789:43
	mov	r0, r8
.Ltmp73:
	str	r7, [r0, #56]!
	.loc	2 790 43                @ ../Driver/sdio_sd.c:790:43
	strd	r9, r5, [r0, #4]
	.loc	2 792 39                @ ../Driver/sdio_sd.c:792:39
	strd	r7, r6, [r0, #12]
	.loc	2 794 7                 @ ../Driver/sdio_sd.c:794:7
	bl	SDIO_SendCommand
.Ltmp74:
	.loc	2 796 21                @ ../Driver/sdio_sd.c:796:21
	movs	r0, #55
	bl	CmdResp1Error
	.loc	2 796 19 is_stmt 0      @ ../Driver/sdio_sd.c:796:19
	strb.w	r0, [sp, #3]
.Ltmp75:
	.loc	2 798 11 is_stmt 1      @ ../Driver/sdio_sd.c:798:11
	ldrb.w	r0, [sp, #3]
.Ltmp76:
	.loc	2 798 11 is_stmt 0      @ ../Driver/sdio_sd.c:798:11
	cmp	r0, #0
	beq	.LBB6_21
	b	.LBB6_19
.Ltmp77:
.LBB6_31:
	@DEBUG_VALUE: SD_PowerON:response <- $r1
	@DEBUG_VALUE: SD_PowerON:validvoltage <- $r0
	@DEBUG_VALUE: SD_PowerON:count <- $r11
	.loc	2 0 11                  @ ../Driver/sdio_sd.c:0:11
	movw	r0, #65535
.Ltmp78:
	.loc	2 819 9 is_stmt 1       @ ../Driver/sdio_sd.c:819:9
	cmp	r11, r0
	blo	.LBB6_33
.Ltmp79:
@ %bb.32:
	@DEBUG_VALUE: SD_PowerON:response <- $r1
	@DEBUG_VALUE: SD_PowerON:count <- $r11
	.loc	2 0 9 is_stmt 0         @ ../Driver/sdio_sd.c:0:9
	movs	r0, #27
.Ltmp80:
	.loc	2 821 19 is_stmt 1      @ ../Driver/sdio_sd.c:821:19
	strb.w	r0, [sp, #3]
	b	.LBB6_19
.Ltmp81:
.LBB6_33:
	@DEBUG_VALUE: SD_PowerON:response <- $r1
	@DEBUG_VALUE: SD_PowerON:count <- $r11
	.loc	2 825 9                 @ ../Driver/sdio_sd.c:825:9
	cmp	r1, #0
	beq	.LBB6_19
.Ltmp82:
@ %bb.34:
	@DEBUG_VALUE: SD_PowerON:response <- $r1
	@DEBUG_VALUE: SD_PowerON:count <- $r11
	.loc	2 0 9 is_stmt 0         @ ../Driver/sdio_sd.c:0:9
	movs	r0, #0
.Ltmp83:
	.loc	2 827 16 is_stmt 1      @ ../Driver/sdio_sd.c:827:16
	strb.w	r0, [r8, #4]
	b	.LBB6_19
.Ltmp84:
	.p2align	2
@ %bb.35:
	.loc	2 0 16 is_stmt 0        @ ../Driver/sdio_sd.c:0:16
__arm_cp.6_0:
	.long	.L_MergedGlobals
.Lcpi_end13:
	.size	__arm_cp.6_0, .Lcpi_end13-__arm_cp.6_0
__arm_cp.6_1:
	.long	4294901760              @ 0xffff0000
.Lcpi_end14:
	.size	__arm_cp.6_1, .Lcpi_end14-__arm_cp.6_1
__arm_cp.6_2:
	.long	1073818676              @ 0x40012c34
.Lcpi_end15:
	.size	__arm_cp.6_2, .Lcpi_end15-__arm_cp.6_2
__arm_cp.6_3:
	.long	2148532224              @ 0x80100000
.Lcpi_end16:
	.size	__arm_cp.6_3, .Lcpi_end16-__arm_cp.6_3
.Lfunc_end6:
	.size	SD_PowerON, .Lfunc_end6-SD_PowerON
	.cfi_endproc
	.cantunwind
	.fnend
                                        @ -- End function
	.section	.text.SD_InitializeCards,"ax",%progbits
	.hidden	SD_InitializeCards      @ -- Begin function SD_InitializeCards
	.globl	SD_InitializeCards
	.p2align	2
	.type	SD_InitializeCards,%function
	.code	16                      @ @SD_InitializeCards
	.thumb_func
SD_InitializeCards:
.Lfunc_begin7:
	.loc	2 857 0 is_stmt 1       @ ../Driver/sdio_sd.c:857:0
	.fnstart
	.cfi_startproc
@ %bb.0:
	.save	{r4, r5, r6, r7, r8, lr}
	push.w	{r4, r5, r6, r7, r8, lr}
	.cfi_def_cfa_offset 24
	.cfi_offset lr, -4
	.cfi_offset r8, -8
	.cfi_offset r7, -12
	.cfi_offset r6, -16
	.cfi_offset r5, -20
	.cfi_offset r4, -24
.Ltmp85:
	@DEBUG_VALUE: SD_InitializeCards:errorstatus <- 0
	@DEBUG_VALUE: SD_InitializeCards:rca <- 1
	.loc	2 861 7 prologue_end    @ ../Driver/sdio_sd.c:861:7
	bl	SDIO_GetPowerState
.Ltmp86:
	.loc	2 861 7 is_stmt 0       @ ../Driver/sdio_sd.c:861:7
	cmp	r0, #0
	beq	.LBB7_12
@ %bb.1:
.Ltmp87:
	.loc	2 870 41 is_stmt 1      @ ../Driver/sdio_sd.c:870:41
	ldr	r5, __arm_cp.7_0
	movs	r7, #0
	mov.w	r6, #1024
	movs	r1, #192
	movs	r2, #2
	mov	r0, r5
	str	r7, [r0, #56]!
	.loc	2 871 41                @ ../Driver/sdio_sd.c:871:41
	strd	r2, r1, [r0, #4]
	.loc	2 873 37                @ ../Driver/sdio_sd.c:873:37
	strd	r7, r6, [r0, #12]
	.loc	2 875 5                 @ ../Driver/sdio_sd.c:875:5
	bl	SDIO_SendCommand
	.loc	2 877 19                @ ../Driver/sdio_sd.c:877:19
	bl	CmdResp2Error
	mov	r4, r0
.Ltmp88:
	@DEBUG_VALUE: SD_InitializeCards:errorstatus <- $r4
	.loc	2 879 9                 @ ../Driver/sdio_sd.c:879:9
	cmp	r0, #0
	bne	.LBB7_21
.Ltmp89:
@ %bb.2:
	@DEBUG_VALUE: SD_InitializeCards:errorstatus <- $r4
	.loc	2 884 18                @ ../Driver/sdio_sd.c:884:18
	ldr.w	r8, __arm_cp.7_1
	movs	r0, #0
	blx	r8
	.loc	2 884 16 is_stmt 0      @ ../Driver/sdio_sd.c:884:16
	str	r0, [r5, #24]
	.loc	2 885 18 is_stmt 1      @ ../Driver/sdio_sd.c:885:18
	movs	r0, #4
	blx	r8
	.loc	2 885 16 is_stmt 0      @ ../Driver/sdio_sd.c:885:16
	str	r0, [r5, #28]
	.loc	2 886 18 is_stmt 1      @ ../Driver/sdio_sd.c:886:18
	movs	r0, #8
	blx	r8
	.loc	2 886 16 is_stmt 0      @ ../Driver/sdio_sd.c:886:16
	str	r0, [r5, #32]
	.loc	2 887 18 is_stmt 1      @ ../Driver/sdio_sd.c:887:18
	movs	r0, #12
	blx	r8
.Ltmp90:
	.loc	2 894 41                @ ../Driver/sdio_sd.c:894:41
	mov	r1, r5
	movs	r2, #64
	movs	r3, #3
	str	r7, [r1, #56]!
	.loc	2 895 41                @ ../Driver/sdio_sd.c:895:41
	strd	r3, r2, [r1, #4]
	.loc	2 897 37                @ ../Driver/sdio_sd.c:897:37
	strd	r7, r6, [r1, #12]
.Ltmp91:
	.loc	2 887 16                @ ../Driver/sdio_sd.c:887:16
	str	r0, [r1, #-20]
.Ltmp92:
	.loc	2 899 5                 @ ../Driver/sdio_sd.c:899:5
	mov	r0, r1
	bl	SDIO_SendCommand
.Ltmp93:
	@DEBUG_VALUE: CmdResp6Error:errorstatus <- 0
	@DEBUG_VALUE: CmdResp6Error:cmd <- 3
	.loc	2 0 5 is_stmt 0         @ ../Driver/sdio_sd.c:0:5
	ldr	r1, __arm_cp.7_2
.Ltmp94:
.LBB7_3:                                @ =>This Inner Loop Header: Depth=1
	@DEBUG_VALUE: SD_InitializeCards:errorstatus <- $r4
	@DEBUG_VALUE: CmdResp6Error:status <- [DW_OP_deref] $r1
	ldr	r0, [r1]
.Ltmp95:
	@DEBUG_VALUE: CmdResp6Error:status <- $r0
	.loc	2 2508 3 is_stmt 1      @ ../Driver/sdio_sd.c:2508:3
	tst.w	r0, #69
	beq	.LBB7_3
.Ltmp96:
@ %bb.4:
	@DEBUG_VALUE: CmdResp6Error:status <- $r0
	@DEBUG_VALUE: SD_InitializeCards:errorstatus <- $r4
	.loc	2 2513 7                @ ../Driver/sdio_sd.c:2513:7
	lsls	r1, r0, #29
	bmi	.LBB7_13
.Ltmp97:
@ %bb.5:
	@DEBUG_VALUE: CmdResp6Error:status <- $r0
	@DEBUG_VALUE: SD_InitializeCards:errorstatus <- $r4
	.loc	2 2519 12               @ ../Driver/sdio_sd.c:2519:12
	lsls	r0, r0, #31
.Ltmp98:
	bne	.LBB7_14
.Ltmp99:
@ %bb.6:
	@DEBUG_VALUE: SD_InitializeCards:errorstatus <- $r4
	.loc	2 2527 7                @ ../Driver/sdio_sd.c:2527:7
	bl	SDIO_GetCommandResponse
.Ltmp100:
	.loc	2 2527 7 is_stmt 0      @ ../Driver/sdio_sd.c:2527:7
	cmp	r0, #3
	bne	.LBB7_15
.Ltmp101:
@ %bb.7:
	@DEBUG_VALUE: SD_InitializeCards:errorstatus <- $r4
	.loc	2 2534 3 is_stmt 1      @ ../Driver/sdio_sd.c:2534:3
	movw	r0, #1535
	bl	SDIO_ClearFlag
	.loc	2 2537 17               @ ../Driver/sdio_sd.c:2537:17
	movs	r0, #0
	bl	SDIO_GetResponse
.Ltmp102:
	@DEBUG_VALUE: CmdResp6Error:response_r1 <- $r0
	.loc	2 2539 7                @ ../Driver/sdio_sd.c:2539:7
	tst.w	r0, #57344
	beq	.LBB7_16
.Ltmp103:
@ %bb.8:
	@DEBUG_VALUE: CmdResp6Error:response_r1 <- $r0
	@DEBUG_VALUE: SD_InitializeCards:errorstatus <- $r4
	.loc	2 2545 7                @ ../Driver/sdio_sd.c:2545:7
	lsls	r1, r0, #18
	bmi	.LBB7_19
.Ltmp104:
@ %bb.9:
	@DEBUG_VALUE: CmdResp6Error:response_r1 <- $r0
	@DEBUG_VALUE: SD_InitializeCards:errorstatus <- $r4
	.loc	2 2550 7                @ ../Driver/sdio_sd.c:2550:7
	lsls	r1, r0, #17
	bmi	.LBB7_15
.Ltmp105:
@ %bb.10:
	@DEBUG_VALUE: CmdResp6Error:response_r1 <- $r0
	@DEBUG_VALUE: SD_InitializeCards:errorstatus <- $r4
	.loc	2 0 7 is_stmt 0         @ ../Driver/sdio_sd.c:0:7
	lsls	r0, r0, #16
.Ltmp106:
	bmi	.LBB7_20
.Ltmp107:
@ %bb.11:
	@DEBUG_VALUE: SD_InitializeCards:errorstatus <- $r4
	movs	r1, #1
	b	.LBB7_17
.Ltmp108:
.LBB7_12:
	movs	r4, #37
	b	.LBB7_21
.LBB7_13:
.Ltmp109:
	@DEBUG_VALUE: CmdResp6Error:status <- $r0
	@DEBUG_VALUE: SD_InitializeCards:errorstatus <- $r4
	@DEBUG_VALUE: CmdResp6Error:errorstatus <- 3
	.loc	2 2516 5 is_stmt 1      @ ../Driver/sdio_sd.c:2516:5
	movs	r0, #4
.Ltmp110:
	bl	SDIO_ClearFlag
	movs	r4, #3
.Ltmp111:
	.loc	2 0 5 is_stmt 0         @ ../Driver/sdio_sd.c:0:5
	b	.LBB7_21
.Ltmp112:
.LBB7_14:
	@DEBUG_VALUE: SD_InitializeCards:errorstatus <- $r4
	@DEBUG_VALUE: CmdResp6Error:errorstatus <- 1
	.loc	2 2522 5 is_stmt 1      @ ../Driver/sdio_sd.c:2522:5
	movs	r0, #1
	movs	r4, #1
.Ltmp113:
	bl	SDIO_ClearFlag
	b	.LBB7_21
.Ltmp114:
.LBB7_15:
	@DEBUG_VALUE: SD_InitializeCards:errorstatus <- $r4
	.loc	2 0 5 is_stmt 0         @ ../Driver/sdio_sd.c:0:5
	movs	r4, #16
.Ltmp115:
	b	.LBB7_21
.LBB7_16:
.Ltmp116:
	@DEBUG_VALUE: CmdResp6Error:response_r1 <- $r0
	@DEBUG_VALUE: SD_InitializeCards:errorstatus <- $r4
	.loc	2 2541 37 is_stmt 1     @ ../Driver/sdio_sd.c:2541:37
	lsrs	r1, r0, #16
.Ltmp117:
.LBB7_17:
	@DEBUG_VALUE: SD_InitializeCards:errorstatus <- $r4
	@DEBUG_VALUE: SD_InitializeCards:errorstatus <- 0
	.loc	2 914 58                @ ../Driver/sdio_sd.c:914:58
	lsls	r2, r1, #16
	.loc	2 914 41 is_stmt 0      @ ../Driver/sdio_sd.c:914:41
	mov	r0, r5
	movs	r3, #0
	movs	r7, #192
	movs	r6, #9
	str	r2, [r0, #56]!
	mov.w	r2, #1024
	.loc	2 915 41 is_stmt 1      @ ../Driver/sdio_sd.c:915:41
	strd	r6, r7, [r0, #4]
	.loc	2 917 37                @ ../Driver/sdio_sd.c:917:37
	strd	r3, r2, [r0, #12]
	.loc	2 911 9                 @ ../Driver/sdio_sd.c:911:9
	str	r1, [r0, #-36]
	.loc	2 919 5                 @ ../Driver/sdio_sd.c:919:5
	bl	SDIO_SendCommand
	.loc	2 921 19                @ ../Driver/sdio_sd.c:921:19
	bl	CmdResp2Error
	mov	r4, r0
.Ltmp118:
	@DEBUG_VALUE: SD_InitializeCards:errorstatus <- $r4
	.loc	2 923 9                 @ ../Driver/sdio_sd.c:923:9
	cbnz	r0, .LBB7_21
.Ltmp119:
@ %bb.18:
	@DEBUG_VALUE: SD_InitializeCards:errorstatus <- $r4
	.loc	2 928 18                @ ../Driver/sdio_sd.c:928:18
	movs	r0, #0
	movs	r4, #0
.Ltmp120:
	blx	r8
	.loc	2 928 16 is_stmt 0      @ ../Driver/sdio_sd.c:928:16
	str	r0, [r5, #40]
	.loc	2 929 18 is_stmt 1      @ ../Driver/sdio_sd.c:929:18
	movs	r0, #4
	blx	r8
	.loc	2 929 16 is_stmt 0      @ ../Driver/sdio_sd.c:929:16
	str	r0, [r5, #44]
	.loc	2 930 18 is_stmt 1      @ ../Driver/sdio_sd.c:930:18
	movs	r0, #8
	blx	r8
	.loc	2 930 16 is_stmt 0      @ ../Driver/sdio_sd.c:930:16
	str	r0, [r5, #48]
	.loc	2 931 18 is_stmt 1      @ ../Driver/sdio_sd.c:931:18
	movs	r0, #12
	blx	r8
	.loc	2 931 16 is_stmt 0      @ ../Driver/sdio_sd.c:931:16
	str	r0, [r5, #52]
.Ltmp121:
	@DEBUG_VALUE: SD_InitializeCards:errorstatus <- 0
	.loc	2 0 16                  @ ../Driver/sdio_sd.c:0:16
	b	.LBB7_21
.Ltmp122:
.LBB7_19:
	@DEBUG_VALUE: CmdResp6Error:response_r1 <- $r0
	@DEBUG_VALUE: SD_InitializeCards:errorstatus <- $r4
	movs	r4, #19
.Ltmp123:
	b	.LBB7_21
.Ltmp124:
.LBB7_20:
	@DEBUG_VALUE: SD_InitializeCards:errorstatus <- $r4
	movs	r4, #15
.Ltmp125:
.LBB7_21:
	.loc	2 937 1 is_stmt 1       @ ../Driver/sdio_sd.c:937:1
	mov	r0, r4
	pop.w	{r4, r5, r6, r7, r8, pc}
.Ltmp126:
	.p2align	2
@ %bb.22:
	.loc	2 0 1 is_stmt 0         @ ../Driver/sdio_sd.c:0:1
__arm_cp.7_0:
	.long	.L_MergedGlobals
.Lcpi_end17:
	.size	__arm_cp.7_0, .Lcpi_end17-__arm_cp.7_0
__arm_cp.7_1:
	.long	SDIO_GetResponse
.Lcpi_end18:
	.size	__arm_cp.7_1, .Lcpi_end18-__arm_cp.7_1
__arm_cp.7_2:
	.long	1073818676              @ 0x40012c34
.Lcpi_end19:
	.size	__arm_cp.7_2, .Lcpi_end19-__arm_cp.7_2
.Lfunc_end7:
	.size	SD_InitializeCards, .Lfunc_end7-SD_InitializeCards
	.cfi_endproc
	.cantunwind
	.fnend
                                        @ -- End function
	.section	.text.SD_GetCardInfo,"ax",%progbits
	.hidden	SD_GetCardInfo          @ -- Begin function SD_GetCardInfo
	.globl	SD_GetCardInfo
	.p2align	2
	.type	SD_GetCardInfo,%function
	.code	16                      @ @SD_GetCardInfo
	.thumb_func
SD_GetCardInfo:
.Lfunc_begin8:
	.loc	2 946 0 is_stmt 1       @ ../Driver/sdio_sd.c:946:0
	.fnstart
	.cfi_startproc
@ %bb.0:
	.save	{r4, r5, r6, lr}
	push	{r4, r5, r6, lr}
	.cfi_def_cfa_offset 16
	.cfi_offset lr, -4
	.cfi_offset r6, -8
	.cfi_offset r5, -12
	.cfi_offset r4, -16
	@DEBUG_VALUE: SD_GetCardInfo:cardinfo <- $r0
	@DEBUG_VALUE: SD_GetCardInfo:cardinfo <- $r0
.Ltmp127:
	@DEBUG_VALUE: SD_GetCardInfo:errorstatus <- 0
	@DEBUG_VALUE: SD_GetCardInfo:tmp <- 0
	.loc	2 950 33 prologue_end   @ ../Driver/sdio_sd.c:950:33
	ldr.w	r12, __arm_cp.8_0
	movs	r1, #2
	ldrb.w	lr, [r12, #4]
	.loc	2 950 24 is_stmt 0      @ ../Driver/sdio_sd.c:950:24
	cmp.w	lr, #0
	it	ne
	movne	r1, #1
	.loc	2 950 22                @ ../Driver/sdio_sd.c:950:22
	strb.w	r1, [r0, #86]
	.loc	2 951 29 is_stmt 1      @ ../Driver/sdio_sd.c:951:29
	ldr.w	r1, [r12, #20]
.Ltmp128:
	.loc	2 988 52                @ ../Driver/sdio_sd.c:988:52
	cmp.w	lr, #0
.Ltmp129:
	.loc	2 951 17                @ ../Driver/sdio_sd.c:951:17
	strh.w	r1, [r0, #84]
	.loc	2 954 20                @ ../Driver/sdio_sd.c:954:20
	ldr.w	r1, [r12, #40]
.Ltmp130:
	@DEBUG_VALUE: SD_GetCardInfo:tmp <- undef
	.loc	2 955 45                @ ../Driver/sdio_sd.c:955:45
	lsr.w	r3, r1, #30
	.loc	2 955 30 is_stmt 0      @ ../Driver/sdio_sd.c:955:30
	strb	r3, [r0]
	.loc	2 956 37 is_stmt 1      @ ../Driver/sdio_sd.c:956:37
	ubfx	r3, r1, #26, #4
	.loc	2 956 35 is_stmt 0      @ ../Driver/sdio_sd.c:956:35
	strb	r3, [r0, #1]
	.loc	2 957 32 is_stmt 1      @ ../Driver/sdio_sd.c:957:32
	ubfx	r3, r1, #24, #2
	.loc	2 957 30 is_stmt 0      @ ../Driver/sdio_sd.c:957:30
	strb	r3, [r0, #2]
	.loc	2 960 45 is_stmt 1      @ ../Driver/sdio_sd.c:960:45
	lsr.w	r3, r1, #16
	@DEBUG_VALUE: SD_GetCardInfo:tmp <- undef
	.loc	2 961 25                @ ../Driver/sdio_sd.c:961:25
	strb	r3, [r0, #3]
	.loc	2 964 45                @ ../Driver/sdio_sd.c:964:45
	lsr.w	r3, r1, #8
	@DEBUG_VALUE: SD_GetCardInfo:tmp <- undef
	.loc	2 965 25                @ ../Driver/sdio_sd.c:965:25
	strb	r3, [r0, #4]
	@DEBUG_VALUE: SD_GetCardInfo:tmp <- undef
	.loc	2 969 34                @ ../Driver/sdio_sd.c:969:34
	strb	r1, [r0, #5]
	mvn	r1, #15
	.loc	2 972 20                @ ../Driver/sdio_sd.c:972:20
	ldr.w	r3, [r12, #44]
.Ltmp131:
	@DEBUG_VALUE: SD_GetCardInfo:tmp <- $r3
	.loc	2 972 45 is_stmt 0      @ ../Driver/sdio_sd.c:972:45
	and.w	r1, r1, r3, lsr #20
.Ltmp132:
	@DEBUG_VALUE: SD_GetCardInfo:tmp <- undef
	.loc	2 973 36 is_stmt 1      @ ../Driver/sdio_sd.c:973:36
	strh	r1, [r0, #6]
	@DEBUG_VALUE: SD_GetCardInfo:tmp <- undef
	.loc	2 977 36                @ ../Driver/sdio_sd.c:977:36
	ldrh	r1, [r0, #6]
	ubfx	r2, r3, #20, #4
	orr.w	r1, r1, r2
	strh	r1, [r0, #6]
	.loc	2 978 33                @ ../Driver/sdio_sd.c:978:33
	ubfx	r1, r3, #16, #4
	.loc	2 978 31 is_stmt 0      @ ../Driver/sdio_sd.c:978:31
	strb	r1, [r0, #8]
	.loc	2 982 36 is_stmt 1      @ ../Driver/sdio_sd.c:982:36
	ubfx	r1, r3, #15, #1
	.loc	2 982 34 is_stmt 0      @ ../Driver/sdio_sd.c:982:34
	strb	r1, [r0, #9]
	.loc	2 983 38 is_stmt 1      @ ../Driver/sdio_sd.c:983:38
	ubfx	r1, r3, #14, #1
	.loc	2 983 36 is_stmt 0      @ ../Driver/sdio_sd.c:983:36
	strb	r1, [r0, #10]
	.loc	2 984 38 is_stmt 1      @ ../Driver/sdio_sd.c:984:38
	ubfx	r1, r3, #13, #1
	.loc	2 984 36 is_stmt 0      @ ../Driver/sdio_sd.c:984:36
	strb	r1, [r0, #11]
	.loc	2 985 30 is_stmt 1      @ ../Driver/sdio_sd.c:985:30
	ubfx	r1, r3, #12, #1
	.loc	2 985 28 is_stmt 0      @ ../Driver/sdio_sd.c:985:28
	strb	r1, [r0, #12]
	mov.w	r1, #0
	.loc	2 986 30 is_stmt 1      @ ../Driver/sdio_sd.c:986:30
	strb	r1, [r0, #13]
.Ltmp133:
	.loc	2 988 52                @ ../Driver/sdio_sd.c:988:52
	beq	.LBB8_2
@ %bb.1:
	@DEBUG_VALUE: SD_GetCardInfo:cardinfo <- $r0
	.loc	2 0 52 is_stmt 0        @ ../Driver/sdio_sd.c:0:52
	mov.w	r1, #3072
.Ltmp134:
	.loc	2 994 42 is_stmt 1      @ ../Driver/sdio_sd.c:994:42
	uxtb	r2, r3
	movs	r4, #1
	.loc	2 990 48                @ ../Driver/sdio_sd.c:990:48
	and.w	r1, r1, r3, lsl #2
	.loc	2 990 33 is_stmt 0      @ ../Driver/sdio_sd.c:990:33
	str	r1, [r0, #16]
	.loc	2 994 33 is_stmt 1      @ ../Driver/sdio_sd.c:994:33
	ldr	r1, [r0, #16]
	orr.w	r1, r1, r2, lsl #2
	str	r1, [r0, #16]
	.loc	2 997 22                @ ../Driver/sdio_sd.c:997:22
	ldr.w	r2, [r12, #48]
.Ltmp135:
	@DEBUG_VALUE: SD_GetCardInfo:tmp <- [DW_OP_constu 16, DW_OP_shr, DW_OP_stack_value] $r2
	@DEBUG_VALUE: SD_GetCardInfo:tmp <- [DW_OP_constu 8, DW_OP_shr, DW_OP_stack_value] $r2
	@DEBUG_VALUE: SD_GetCardInfo:tmp <- undef
	.loc	2 998 33                @ ../Driver/sdio_sd.c:998:33
	ldr	r1, [r0, #16]
	orr.w	r1, r1, r2, lsr #30
	str	r1, [r0, #16]
	.loc	2 1000 43               @ ../Driver/sdio_sd.c:1000:43
	ubfx	r1, r2, #27, #3
	.loc	2 1000 41 is_stmt 0     @ ../Driver/sdio_sd.c:1000:41
	strb	r1, [r0, #20]
	.loc	2 1001 43 is_stmt 1     @ ../Driver/sdio_sd.c:1001:43
	ubfx	r1, r2, #24, #3
	.loc	2 1001 41 is_stmt 0     @ ../Driver/sdio_sd.c:1001:41
	strb	r1, [r0, #21]
	.loc	2 1005 43 is_stmt 1     @ ../Driver/sdio_sd.c:1005:43
	ubfx	r1, r2, #21, #3
	.loc	2 1005 41 is_stmt 0     @ ../Driver/sdio_sd.c:1005:41
	strb	r1, [r0, #22]
	.loc	2 1006 43 is_stmt 1     @ ../Driver/sdio_sd.c:1006:43
	ubfx	r1, r2, #18, #3
	.loc	2 1006 41 is_stmt 0     @ ../Driver/sdio_sd.c:1006:41
	strb	r1, [r0, #23]
	movs	r1, #6
	.loc	2 1007 38 is_stmt 1     @ ../Driver/sdio_sd.c:1007:38
	and.w	r1, r1, r2, lsr #15
	.loc	2 1007 36 is_stmt 0     @ ../Driver/sdio_sd.c:1007:36
	strb	r1, [r0, #24]
	.loc	2 1010 36 is_stmt 1     @ ../Driver/sdio_sd.c:1010:36
	ldrb	r1, [r0, #24]
	ubfx	r3, r2, #15, #1
	orrs	r1, r3
	strb	r1, [r0, #24]
	.loc	2 1012 48               @ ../Driver/sdio_sd.c:1012:48
	ldr.w	lr, [r0, #16]
	.loc	2 1013 55               @ ../Driver/sdio_sd.c:1013:55
	ldrb	r1, [r0, #24]
	.loc	2 1014 54               @ ../Driver/sdio_sd.c:1014:54
	ldrb	r3, [r0, #8]
	.loc	2 1014 33 is_stmt 0     @ ../Driver/sdio_sd.c:1014:33
	lsl.w	r3, r4, r3
	movs	r4, #4
	.loc	2 1013 34 is_stmt 1     @ ../Driver/sdio_sd.c:1013:34
	lsl.w	r5, r4, r1
	.loc	2 1012 59               @ ../Driver/sdio_sd.c:1012:59
	add.w	r4, lr, #1
	.loc	2 1013 28               @ ../Driver/sdio_sd.c:1013:28
	umull	r1, lr, r5, r4
	.loc	2 1013 31 is_stmt 0     @ ../Driver/sdio_sd.c:1013:31
	asrs	r5, r5, #31
	.loc	2 1015 28 is_stmt 1     @ ../Driver/sdio_sd.c:1015:28
	umull	r1, r6, r1, r3
	.loc	2 1013 28               @ ../Driver/sdio_sd.c:1013:28
	mla	r5, r5, r4, lr
	.loc	2 1015 28               @ ../Driver/sdio_sd.c:1015:28
	mla	r6, r5, r3, r6
	strd	r1, r6, [r0, #72]
	b	.LBB8_3
.Ltmp136:
.LBB8_2:
	@DEBUG_VALUE: SD_GetCardInfo:cardinfo <- $r0
	.loc	2 0 28 is_stmt 0        @ ../Driver/sdio_sd.c:0:28
	mov.w	r2, #4128768
.Ltmp137:
	.loc	2 1021 48 is_stmt 1     @ ../Driver/sdio_sd.c:1021:48
	and.w	r2, r2, r3, lsl #16
	mvn	r3, #255
	.loc	2 1021 33 is_stmt 0     @ ../Driver/sdio_sd.c:1021:33
	str	r2, [r0, #16]
	.loc	2 1024 22 is_stmt 1     @ ../Driver/sdio_sd.c:1024:22
	ldr.w	r2, [r12, #48]
	.loc	2 1026 33               @ ../Driver/sdio_sd.c:1026:33
	ldr	r6, [r0, #16]
	.loc	2 1024 47               @ ../Driver/sdio_sd.c:1024:47
	and.w	r3, r3, r2, lsr #16
	@DEBUG_VALUE: SD_GetCardInfo:tmp <- undef
	.loc	2 1026 33               @ ../Driver/sdio_sd.c:1026:33
	orrs	r3, r6
	str	r3, [r0, #16]
	.loc	2 1031 33               @ ../Driver/sdio_sd.c:1031:33
	ldr	r3, [r0, #16]
	@DEBUG_VALUE: SD_GetCardInfo:tmp <- undef
	.loc	2 1031 36 is_stmt 0     @ ../Driver/sdio_sd.c:1031:36
	ubfx	r6, r2, #16, #8
	.loc	2 1031 33               @ ../Driver/sdio_sd.c:1031:33
	orrs	r3, r6
	mov.w	r6, #524288
	str	r3, [r0, #16]
	.loc	2 1036 48 is_stmt 1     @ ../Driver/sdio_sd.c:1036:48
	ldr	r3, [r0, #16]
	.loc	2 1036 70 is_stmt 0     @ ../Driver/sdio_sd.c:1036:70
	add.w	r3, r6, r3, lsl #19
	.loc	2 1036 28               @ ../Driver/sdio_sd.c:1036:28
	strd	r3, r1, [r0, #72]
	mov.w	r3, #512
.Ltmp138:
.LBB8_3:
	@DEBUG_VALUE: SD_GetCardInfo:cardinfo <- $r0
	@DEBUG_VALUE: SD_GetCardInfo:tmp <- $r2
	@DEBUG_VALUE: SD_GetCardInfo:tmp <- [DW_OP_constu 8, DW_OP_shr, DW_OP_constu 255, DW_OP_and, DW_OP_stack_value] $r2
	.loc	2 1041 34 is_stmt 1     @ ../Driver/sdio_sd.c:1041:34
	ubfx	r1, r2, #14, #1
	.loc	2 1041 32 is_stmt 0     @ ../Driver/sdio_sd.c:1041:32
	strb	r1, [r0, #25]
	movs	r1, #126
	.loc	2 1042 33 is_stmt 1     @ ../Driver/sdio_sd.c:1042:33
	and.w	r1, r1, r2, lsr #7
	.loc	2 1042 31 is_stmt 0     @ ../Driver/sdio_sd.c:1042:31
	strb	r1, [r0, #26]
	.loc	2 1046 31 is_stmt 1     @ ../Driver/sdio_sd.c:1046:31
	ldrb	r1, [r0, #26]
	ubfx	r6, r2, #7, #1
	orrs	r1, r6
	strb	r1, [r0, #26]
	.loc	2 1047 38               @ ../Driver/sdio_sd.c:1047:38
	and	r1, r2, #127
.Ltmp139:
	.loc	2 1037 29               @ ../Driver/sdio_sd.c:1037:29
	str	r3, [r0, #80]
.Ltmp140:
	.loc	2 1047 36               @ ../Driver/sdio_sd.c:1047:36
	strb	r1, [r0, #27]
	.loc	2 1050 20               @ ../Driver/sdio_sd.c:1050:20
	ldr.w	r2, [r12, #52]
.Ltmp141:
	@DEBUG_VALUE: SD_GetCardInfo:tmp <- [DW_OP_constu 24, DW_OP_shr, DW_OP_stack_value] $r2
	@DEBUG_VALUE: SD_GetCardInfo:tmp <- $r2
	.loc	2 1051 53               @ ../Driver/sdio_sd.c:1051:53
	lsrs	r1, r2, #31
	.loc	2 1051 38 is_stmt 0     @ ../Driver/sdio_sd.c:1051:38
	strb	r1, [r0, #28]
	.loc	2 1052 33 is_stmt 1     @ ../Driver/sdio_sd.c:1052:33
	ubfx	r1, r2, #29, #2
	.loc	2 1052 31 is_stmt 0     @ ../Driver/sdio_sd.c:1052:31
	strb	r1, [r0, #29]
	.loc	2 1053 34 is_stmt 1     @ ../Driver/sdio_sd.c:1053:34
	ubfx	r1, r2, #26, #3
	.loc	2 1053 32 is_stmt 0     @ ../Driver/sdio_sd.c:1053:32
	strb	r1, [r0, #30]
	movs	r1, #12
	.loc	2 1054 36 is_stmt 1     @ ../Driver/sdio_sd.c:1054:36
	and.w	r1, r1, r2, lsr #22
	.loc	2 1054 34 is_stmt 0     @ ../Driver/sdio_sd.c:1054:34
	strb	r1, [r0, #31]
.Ltmp142:
	@DEBUG_VALUE: SD_GetCardInfo:tmp <- undef
	.loc	2 1058 34 is_stmt 1     @ ../Driver/sdio_sd.c:1058:34
	ldrb	r1, [r0, #31]
	ubfx	r3, r2, #22, #2
	orrs	r1, r3
	strb	r1, [r0, #31]
	.loc	2 1059 42               @ ../Driver/sdio_sd.c:1059:42
	ubfx	r1, r2, #21, #1
	.loc	2 1059 40 is_stmt 0     @ ../Driver/sdio_sd.c:1059:40
	strb.w	r1, [r0, #32]
	movs	r1, #0
	.loc	2 1060 30 is_stmt 1     @ ../Driver/sdio_sd.c:1060:30
	strb.w	r1, [r0, #33]
	.loc	2 1061 42               @ ../Driver/sdio_sd.c:1061:42
	ubfx	r1, r2, #16, #1
	.loc	2 1061 40 is_stmt 0     @ ../Driver/sdio_sd.c:1061:40
	strb.w	r1, [r0, #34]
	@DEBUG_VALUE: SD_GetCardInfo:tmp <- undef
	.loc	2 1065 39 is_stmt 1     @ ../Driver/sdio_sd.c:1065:39
	ubfx	r1, r2, #15, #1
	.loc	2 1065 37 is_stmt 0     @ ../Driver/sdio_sd.c:1065:37
	strb.w	r1, [r0, #35]
	.loc	2 1066 31 is_stmt 1     @ ../Driver/sdio_sd.c:1066:31
	ubfx	r1, r2, #14, #1
	.loc	2 1066 29 is_stmt 0     @ ../Driver/sdio_sd.c:1066:29
	strb.w	r1, [r0, #36]
	.loc	2 1067 36 is_stmt 1     @ ../Driver/sdio_sd.c:1067:36
	ubfx	r1, r2, #13, #1
	.loc	2 1067 34 is_stmt 0     @ ../Driver/sdio_sd.c:1067:34
	strb.w	r1, [r0, #37]
	.loc	2 1068 36 is_stmt 1     @ ../Driver/sdio_sd.c:1068:36
	ubfx	r1, r2, #12, #1
	.loc	2 1068 34 is_stmt 0     @ ../Driver/sdio_sd.c:1068:34
	strb.w	r1, [r0, #38]
	.loc	2 1069 33 is_stmt 1     @ ../Driver/sdio_sd.c:1069:33
	ubfx	r1, r2, #10, #2
	.loc	2 1069 31 is_stmt 0     @ ../Driver/sdio_sd.c:1069:31
	strb.w	r1, [r0, #39]
	.loc	2 1070 26 is_stmt 1     @ ../Driver/sdio_sd.c:1070:26
	ubfx	r1, r2, #8, #2
	.loc	2 1070 24 is_stmt 0     @ ../Driver/sdio_sd.c:1070:24
	strb.w	r1, [r0, #40]
	.loc	2 1074 30 is_stmt 1     @ ../Driver/sdio_sd.c:1074:30
	uxtb	r1, r2
	movs	r2, #1
	lsrs	r1, r1, #1
	.loc	2 1074 28 is_stmt 0     @ ../Driver/sdio_sd.c:1074:28
	strb.w	r1, [r0, #41]
	.loc	2 1075 30 is_stmt 1     @ ../Driver/sdio_sd.c:1075:30
	strb.w	r2, [r0, #42]
	.loc	2 1079 20               @ ../Driver/sdio_sd.c:1079:20
	ldr.w	r1, [r12, #24]
.Ltmp143:
	@DEBUG_VALUE: SD_GetCardInfo:tmp <- $r1
	.loc	2 1079 45 is_stmt 0     @ ../Driver/sdio_sd.c:1079:45
	lsrs	r3, r1, #24
.Ltmp144:
	@DEBUG_VALUE: SD_GetCardInfo:tmp <- undef
	.loc	2 1088 32 is_stmt 1     @ ../Driver/sdio_sd.c:1088:32
	uxth	r6, r1
	.loc	2 1080 35               @ ../Driver/sdio_sd.c:1080:35
	strb.w	r3, [r0, #44]
	mvn	r3, #255
	.loc	2 1083 45               @ ../Driver/sdio_sd.c:1083:45
	and.w	r3, r3, r1, lsr #8
	@DEBUG_VALUE: SD_GetCardInfo:tmp <- undef
	.loc	2 1092 36               @ ../Driver/sdio_sd.c:1092:36
	lsls	r1, r1, #24
	.loc	2 1084 32               @ ../Driver/sdio_sd.c:1084:32
	strh	r3, [r0, #46]
	@DEBUG_VALUE: SD_GetCardInfo:tmp <- undef
	.loc	2 1088 32               @ ../Driver/sdio_sd.c:1088:32
	ldrh	r3, [r0, #46]
	orr.w	r3, r3, r6, lsr #8
	strh	r3, [r0, #46]
	.loc	2 1092 30               @ ../Driver/sdio_sd.c:1092:30
	str	r1, [r0, #48]
	mov.w	r3, #16711680
	.loc	2 1095 20               @ ../Driver/sdio_sd.c:1095:20
	ldr.w	r1, [r12, #28]
.Ltmp145:
	@DEBUG_VALUE: SD_GetCardInfo:tmp <- [DW_OP_constu 16, DW_OP_shr, DW_OP_stack_value] $r1
	.loc	2 1096 30               @ ../Driver/sdio_sd.c:1096:30
	ldr	r6, [r0, #48]
	.loc	2 1095 45               @ ../Driver/sdio_sd.c:1095:45
	and.w	r3, r3, r1, lsr #8
.Ltmp146:
	@DEBUG_VALUE: SD_GetCardInfo:tmp <- undef
	.loc	2 1096 30               @ ../Driver/sdio_sd.c:1096:30
	orrs	r3, r6
	str	r3, [r0, #48]
	mov.w	r3, #65280
	@DEBUG_VALUE: SD_GetCardInfo:tmp <- undef
	.loc	2 1100 30               @ ../Driver/sdio_sd.c:1100:30
	ldr	r6, [r0, #48]
	.loc	2 1100 37 is_stmt 0     @ ../Driver/sdio_sd.c:1100:37
	and.w	r3, r3, r1, lsr #8
	.loc	2 1100 30               @ ../Driver/sdio_sd.c:1100:30
	orrs	r3, r6
	str	r3, [r0, #48]
	.loc	2 1104 30 is_stmt 1     @ ../Driver/sdio_sd.c:1104:30
	ldr	r3, [r0, #48]
	.loc	2 1104 33 is_stmt 0     @ ../Driver/sdio_sd.c:1104:33
	ubfx	r6, r1, #8, #8
	.loc	2 1104 30               @ ../Driver/sdio_sd.c:1104:30
	orrs	r3, r6
	str	r3, [r0, #48]
	@DEBUG_VALUE: SD_GetCardInfo:tmp <- undef
	.loc	2 1108 30 is_stmt 1     @ ../Driver/sdio_sd.c:1108:30
	strb.w	r1, [r0, #52]
	.loc	2 1111 20               @ ../Driver/sdio_sd.c:1111:20
	ldr.w	r1, [r12, #32]
.Ltmp147:
	@DEBUG_VALUE: SD_GetCardInfo:tmp <- [DW_OP_constu 8, DW_OP_shr, DW_OP_stack_value] $r1
	@DEBUG_VALUE: SD_GetCardInfo:tmp <- $r1
	.loc	2 1111 45 is_stmt 0     @ ../Driver/sdio_sd.c:1111:45
	lsrs	r3, r1, #24
.Ltmp148:
	@DEBUG_VALUE: SD_GetCardInfo:tmp <- undef
	.loc	2 1120 34 is_stmt 1     @ ../Driver/sdio_sd.c:1120:34
	and	r6, r1, #65280
	.loc	2 1112 28               @ ../Driver/sdio_sd.c:1112:28
	strb.w	r3, [r0, #53]
	mov.w	r3, #-16777216
	.loc	2 1115 45               @ ../Driver/sdio_sd.c:1115:45
	and.w	r3, r3, r1, lsl #8
	@DEBUG_VALUE: SD_GetCardInfo:tmp <- undef
	.loc	2 1124 34               @ ../Driver/sdio_sd.c:1124:34
	uxtb	r1, r1
	.loc	2 1116 27               @ ../Driver/sdio_sd.c:1116:27
	str	r3, [r0, #56]
	.loc	2 1120 27               @ ../Driver/sdio_sd.c:1120:27
	ldr	r3, [r0, #56]
	orr.w	r3, r3, r6, lsl #8
	str	r3, [r0, #56]
	.loc	2 1124 27               @ ../Driver/sdio_sd.c:1124:27
	ldr	r3, [r0, #56]
	orr.w	r1, r3, r1, lsl #8
	str	r1, [r0, #56]
	.loc	2 1127 20               @ ../Driver/sdio_sd.c:1127:20
	ldr.w	r1, [r12, #36]
.Ltmp149:
	@DEBUG_VALUE: SD_GetCardInfo:tmp <- [DW_OP_constu 16, DW_OP_shr, DW_OP_stack_value] $r1
	@DEBUG_VALUE: SD_GetCardInfo:tmp <- undef
	.loc	2 1128 27               @ ../Driver/sdio_sd.c:1128:27
	ldr	r3, [r0, #56]
	orr.w	r3, r3, r1, lsr #24
	str	r3, [r0, #56]
	.loc	2 1132 30               @ ../Driver/sdio_sd.c:1132:30
	ldrb.w	r3, [r0, #60]
	ubfx	r6, r1, #20, #4
	orrs	r3, r6
	strb.w	r3, [r0, #60]
	mov.w	r3, #3840
	@DEBUG_VALUE: SD_GetCardInfo:tmp <- undef
	.loc	2 1133 35               @ ../Driver/sdio_sd.c:1133:35
	and.w	r3, r3, r1, lsr #8
	.loc	2 1133 33 is_stmt 0     @ ../Driver/sdio_sd.c:1133:33
	strh	r3, [r0, #62]
	.loc	2 1137 33 is_stmt 1     @ ../Driver/sdio_sd.c:1137:33
	ldrh	r3, [r0, #62]
	ubfx	r6, r1, #8, #8
	.loc	2 1141 30               @ ../Driver/sdio_sd.c:1141:30
	uxtb	r1, r1
	lsrs	r1, r1, #1
	.loc	2 1137 33               @ ../Driver/sdio_sd.c:1137:33
	orrs	r3, r6
	strh	r3, [r0, #62]
	.loc	2 1141 28               @ ../Driver/sdio_sd.c:1141:28
	strb.w	r1, [r0, #64]
	.loc	2 1142 30               @ ../Driver/sdio_sd.c:1142:30
	strb.w	r2, [r0, #65]
	.loc	2 1144 3                @ ../Driver/sdio_sd.c:1144:3
	movs	r0, #0
	pop	{r4, r5, r6, pc}
.Ltmp150:
	.p2align	2
@ %bb.4:
	.loc	2 0 3 is_stmt 0         @ ../Driver/sdio_sd.c:0:3
__arm_cp.8_0:
	.long	.L_MergedGlobals
.Lcpi_end20:
	.size	__arm_cp.8_0, .Lcpi_end20-__arm_cp.8_0
.Lfunc_end8:
	.size	SD_GetCardInfo, .Lfunc_end8-SD_GetCardInfo
	.cfi_endproc
	.cantunwind
	.fnend
                                        @ -- End function
	.section	.text.SD_SelectDeselect,"ax",%progbits
	.hidden	SD_SelectDeselect       @ -- Begin function SD_SelectDeselect
	.globl	SD_SelectDeselect
	.p2align	2
	.type	SD_SelectDeselect,%function
	.code	16                      @ @SD_SelectDeselect
	.thumb_func
SD_SelectDeselect:
.Lfunc_begin9:
	.loc	2 1302 0 is_stmt 1      @ ../Driver/sdio_sd.c:1302:0
	.fnstart
	.cfi_startproc
@ %bb.0:
	.save	{r7, lr}
	push	{r7, lr}
	.cfi_def_cfa_offset 8
	.cfi_offset lr, -4
	.cfi_offset r7, -8
.Ltmp151:
	@DEBUG_VALUE: SD_SelectDeselect:errorstatus <- 0
	@DEBUG_VALUE: SD_SelectDeselect:addr <- [DW_OP_LLVM_fragment 32 32] undef
	.loc	2 1306 39 prologue_end  @ ../Driver/sdio_sd.c:1306:39
	ldr	r1, __arm_cp.9_0
	@DEBUG_VALUE: SD_SelectDeselect:addr <- [DW_OP_LLVM_fragment 0 32] $r0
	movs	r3, #64
	mov.w	r12, #1024
	movs	r2, #0
	str	r0, [r1, #56]!
	movs	r0, #7
.Ltmp152:
	.loc	2 1307 39               @ ../Driver/sdio_sd.c:1307:39
	strd	r0, r3, [r1, #4]
	.loc	2 1311 3                @ ../Driver/sdio_sd.c:1311:3
	mov	r0, r1
	.loc	2 1309 35               @ ../Driver/sdio_sd.c:1309:35
	strd	r2, r12, [r1, #12]
	.loc	2 1311 3                @ ../Driver/sdio_sd.c:1311:3
	bl	SDIO_SendCommand
	.loc	2 1313 17               @ ../Driver/sdio_sd.c:1313:17
	movs	r0, #7
	pop.w	{r7, lr}
	b	CmdResp1Error
.Ltmp153:
	.p2align	2
@ %bb.1:
	.loc	2 0 17 is_stmt 0        @ ../Driver/sdio_sd.c:0:17
__arm_cp.9_0:
	.long	.L_MergedGlobals
.Lcpi_end21:
	.size	__arm_cp.9_0, .Lcpi_end21-__arm_cp.9_0
.Lfunc_end9:
	.size	SD_SelectDeselect, .Lfunc_end9-SD_SelectDeselect
	.cfi_endproc
	.cantunwind
	.fnend
                                        @ -- End function
	.section	.text.SD_EnableWideBusOperation,"ax",%progbits
	.hidden	SD_EnableWideBusOperation @ -- Begin function SD_EnableWideBusOperation
	.globl	SD_EnableWideBusOperation
	.p2align	2
	.type	SD_EnableWideBusOperation,%function
	.code	16                      @ @SD_EnableWideBusOperation
	.thumb_func
SD_EnableWideBusOperation:
.Lfunc_begin10:
	.loc	2 1243 0 is_stmt 1      @ ../Driver/sdio_sd.c:1243:0
	.fnstart
	.cfi_startproc
@ %bb.0:
	.save	{r4, lr}
	push	{r4, lr}
	.cfi_def_cfa_offset 8
	.cfi_offset lr, -4
	.cfi_offset r4, -8
	@DEBUG_VALUE: SD_EnableWideBusOperation:WideMode <- $r0
	@DEBUG_VALUE: SD_EnableWideBusOperation:WideMode <- $r0
.Ltmp154:
	@DEBUG_VALUE: SD_EnableWideBusOperation:errorstatus <- 0
	.loc	2 1254 9 prologue_end   @ ../Driver/sdio_sd.c:1254:9
	cmp.w	r0, #4096
	beq	.LBB10_4
.Ltmp155:
@ %bb.1:
	@DEBUG_VALUE: SD_EnableWideBusOperation:WideMode <- $r0
	cmp.w	r0, #2048
	bne	.LBB10_5
.Ltmp156:
@ %bb.2:
	@DEBUG_VALUE: SD_EnableWideBusOperation:WideMode <- $r0
	.loc	2 1261 21               @ ../Driver/sdio_sd.c:1261:21
	movs	r0, #1
.Ltmp157:
	bl	SDEnWideBus
	mov	r4, r0
.Ltmp158:
	@DEBUG_VALUE: SD_EnableWideBusOperation:errorstatus <- $r4
	.loc	2 1263 11               @ ../Driver/sdio_sd.c:1263:11
	cbnz	r0, .LBB10_7
.Ltmp159:
@ %bb.3:
	@DEBUG_VALUE: SD_EnableWideBusOperation:errorstatus <- $r4
	.loc	2 1266 42               @ ../Driver/sdio_sd.c:1266:42
	ldr	r0, __arm_cp.10_0
	movs	r4, #0
.Ltmp160:
	.loc	2 0 42 is_stmt 0        @ ../Driver/sdio_sd.c:0:42
	mov.w	r1, #2048
	.loc	2 1267 43 is_stmt 1     @ ../Driver/sdio_sd.c:1267:43
	str	r4, [r0, #76]!
	.loc	2 1268 45               @ ../Driver/sdio_sd.c:1268:45
	strd	r4, r4, [r0, #4]
	.loc	2 1270 41               @ ../Driver/sdio_sd.c:1270:41
	strd	r1, r4, [r0, #12]
	.loc	2 1266 42               @ ../Driver/sdio_sd.c:1266:42
	strb	r4, [r0, #20]
	.loc	2 1272 9                @ ../Driver/sdio_sd.c:1272:9
	bl	SDIO_Init
	b	.LBB10_7
.Ltmp161:
.LBB10_4:
	@DEBUG_VALUE: SD_EnableWideBusOperation:WideMode <- $r0
	.loc	2 0 9 is_stmt 0         @ ../Driver/sdio_sd.c:0:9
	movs	r4, #39
	b	.LBB10_7
.Ltmp162:
.LBB10_5:
	@DEBUG_VALUE: SD_EnableWideBusOperation:WideMode <- $r0
	.loc	2 1277 21 is_stmt 1     @ ../Driver/sdio_sd.c:1277:21
	movs	r0, #0
.Ltmp163:
	bl	SDEnWideBus
	mov	r4, r0
.Ltmp164:
	@DEBUG_VALUE: SD_EnableWideBusOperation:errorstatus <- $r4
	.loc	2 1279 11               @ ../Driver/sdio_sd.c:1279:11
	cbnz	r0, .LBB10_7
.Ltmp165:
@ %bb.6:
	@DEBUG_VALUE: SD_EnableWideBusOperation:errorstatus <- $r4
	.loc	2 1283 43               @ ../Driver/sdio_sd.c:1283:43
	ldr	r0, __arm_cp.10_0
	movs	r1, #21
	add.w	r4, r0, #76
.Ltmp166:
	mov	r0, r4
	bl	__aeabi_memclr4
	.loc	2 1288 9                @ ../Driver/sdio_sd.c:1288:9
	mov	r0, r4
	bl	SDIO_Init
	movs	r4, #0
.Ltmp167:
.LBB10_7:
	.loc	2 1294 1                @ ../Driver/sdio_sd.c:1294:1
	mov	r0, r4
	pop	{r4, pc}
.Ltmp168:
	.p2align	2
@ %bb.8:
	.loc	2 0 1 is_stmt 0         @ ../Driver/sdio_sd.c:0:1
__arm_cp.10_0:
	.long	.L_MergedGlobals
.Lcpi_end22:
	.size	__arm_cp.10_0, .Lcpi_end22-__arm_cp.10_0
.Lfunc_end10:
	.size	SD_EnableWideBusOperation, .Lfunc_end10-SD_EnableWideBusOperation
	.cfi_endproc
	.cantunwind
	.fnend
                                        @ -- End function
	.section	.text.SD_GetStatus,"ax",%progbits
	.hidden	SD_GetStatus            @ -- Begin function SD_GetStatus
	.globl	SD_GetStatus
	.p2align	1
	.type	SD_GetStatus,%function
	.code	16                      @ @SD_GetStatus
	.thumb_func
SD_GetStatus:
.Lfunc_begin11:
	.loc	2 628 0 is_stmt 1       @ ../Driver/sdio_sd.c:628:0
	.fnstart
	.cfi_startproc
@ %bb.0:
	.save	{r7, lr}
	push	{r7, lr}
	.cfi_def_cfa_offset 8
	.cfi_offset lr, -4
	.cfi_offset r7, -8
.Ltmp169:
	@DEBUG_VALUE: SD_GetStatus:cardstate <- 4
	.loc	2 631 15 prologue_end   @ ../Driver/sdio_sd.c:631:15
	bl	SD_GetState
.Ltmp170:
	@DEBUG_VALUE: SD_GetStatus:cardstate <- $r0
	.loc	2 0 15 is_stmt 0        @ ../Driver/sdio_sd.c:0:15
	movs	r1, #1
	.loc	2 633 7 is_stmt 1       @ ../Driver/sdio_sd.c:633:7
	cmp	r0, #255
	it	eq
	moveq	r1, #2
	subs	r0, #4
.Ltmp171:
	it	ne
	movne	r0, r1
	.loc	2 645 1                 @ ../Driver/sdio_sd.c:645:1
	pop	{r7, pc}
.Ltmp172:
.Lfunc_end11:
	.size	SD_GetStatus, .Lfunc_end11-SD_GetStatus
	.cfi_endproc
	.cantunwind
	.fnend
                                        @ -- End function
	.section	.text.SD_GetState,"ax",%progbits
	.hidden	SD_GetState             @ -- Begin function SD_GetState
	.globl	SD_GetState
	.p2align	1
	.type	SD_GetState,%function
	.code	16                      @ @SD_GetState
	.thumb_func
SD_GetState:
.Lfunc_begin12:
	.loc	2 653 0                 @ ../Driver/sdio_sd.c:653:0
	.fnstart
	.cfi_startproc
@ %bb.0:
	.save	{r7, lr}
	.pad	#8
	push	{r5, r6, r7, lr}
	.cfi_def_cfa_offset 16
	.cfi_offset lr, -4
	.cfi_offset r7, -8
	movs	r0, #0
.Ltmp173:
	@DEBUG_VALUE: SD_GetState:resp1 <- 0
	.loc	2 654 12 prologue_end   @ ../Driver/sdio_sd.c:654:12
	str	r0, [sp]
	movs	r0, #1
.Ltmp174:
	.loc	2 680 16                @ ../Driver/sdio_sd.c:680:16
	strb.w	r0, [sp, #7]
	.loc	2 687 10                @ ../Driver/sdio_sd.c:687:10
	ldrb.w	r0, [sp, #7]
.Ltmp175:
	.loc	2 656 6                 @ ../Driver/sdio_sd.c:656:6
	cmp	r0, #1
	bne	.LBB12_2
@ %bb.1:
.Ltmp176:
	@DEBUG_VALUE: SD_GetState:resp1 <- [DW_OP_deref] $sp
	.loc	2 0 6 is_stmt 0         @ ../Driver/sdio_sd.c:0:6
	mov	r0, sp
.Ltmp177:
	.loc	2 658 9 is_stmt 1       @ ../Driver/sdio_sd.c:658:9
	bl	SD_SendStatus
.Ltmp178:
	.loc	2 658 9 is_stmt 0       @ ../Driver/sdio_sd.c:658:9
	cbz	r0, .LBB12_3
.Ltmp179:
.LBB12_2:
	.loc	2 0 9                   @ ../Driver/sdio_sd.c:0:9
	movs	r0, #255
	b	.LBB12_4
.LBB12_3:
.Ltmp180:
	@DEBUG_VALUE: SD_GetState:resp1 <- [DW_OP_deref] $sp
	.loc	2 664 29 is_stmt 1      @ ../Driver/sdio_sd.c:664:29
	ldr	r0, [sp]
.Ltmp181:
	@DEBUG_VALUE: SD_GetState:resp1 <- $r0
	.loc	2 664 14 is_stmt 0      @ ../Driver/sdio_sd.c:664:14
	ubfx	r0, r0, #9, #4
.Ltmp182:
.LBB12_4:
	.loc	2 671 1 is_stmt 1       @ ../Driver/sdio_sd.c:671:1
	add	sp, #8
	pop	{r7, pc}
.Ltmp183:
.Lfunc_end12:
	.size	SD_GetState, .Lfunc_end12-SD_GetState
	.cfi_endproc
	.cantunwind
	.fnend
                                        @ -- End function
	.section	.text.SD_Detect,"ax",%progbits
	.hidden	SD_Detect               @ -- Begin function SD_Detect
	.globl	SD_Detect
	.p2align	1
	.type	SD_Detect,%function
	.code	16                      @ @SD_Detect
	.thumb_func
SD_Detect:
.Lfunc_begin13:
	.loc	2 679 0                 @ ../Driver/sdio_sd.c:679:0
	.fnstart
	.cfi_startproc
@ %bb.0:
	.pad	#4
	sub	sp, #4
	.cfi_def_cfa_offset 4
	movs	r0, #1
.Ltmp184:
	.loc	2 680 16 prologue_end   @ ../Driver/sdio_sd.c:680:16
	strb.w	r0, [sp, #3]
	.loc	2 687 10                @ ../Driver/sdio_sd.c:687:10
	ldrb.w	r0, [sp, #3]
	.loc	2 687 3 is_stmt 0       @ ../Driver/sdio_sd.c:687:3
	add	sp, #4
	bx	lr
.Ltmp185:
.Lfunc_end13:
	.size	SD_Detect, .Lfunc_end13-SD_Detect
	.cfi_endproc
	.cantunwind
	.fnend
                                        @ -- End function
	.section	.text.SD_SendStatus,"ax",%progbits
	.hidden	SD_SendStatus           @ -- Begin function SD_SendStatus
	.globl	SD_SendStatus
	.p2align	2
	.type	SD_SendStatus,%function
	.code	16                      @ @SD_SendStatus
	.thumb_func
SD_SendStatus:
.Lfunc_begin14:
	.loc	2 2012 0 is_stmt 1      @ ../Driver/sdio_sd.c:2012:0
	.fnstart
	.cfi_startproc
@ %bb.0:
	.save	{r4, r5, r7, lr}
	push	{r4, r5, r7, lr}
	.cfi_def_cfa_offset 16
	.cfi_offset lr, -4
	.cfi_offset r7, -8
	.cfi_offset r5, -12
	.cfi_offset r4, -16
	@DEBUG_VALUE: SD_SendStatus:pcardstatus <- $r0
.Ltmp186:
	@DEBUG_VALUE: SD_SendStatus:errorstatus <- 0
	.loc	2 2015 7 prologue_end   @ ../Driver/sdio_sd.c:2015:7
	cbz	r0, .LBB14_3
.Ltmp187:
@ %bb.1:
	@DEBUG_VALUE: SD_SendStatus:pcardstatus <- $r0
	.loc	2 0 7 is_stmt 0         @ ../Driver/sdio_sd.c:0:7
	mov	r4, r0
.Ltmp188:
	@DEBUG_VALUE: SD_SendStatus:pcardstatus <- $r4
	@DEBUG_VALUE: SD_SendStatus:pcardstatus <- $r4
	.loc	2 2021 52 is_stmt 1     @ ../Driver/sdio_sd.c:2021:52
	ldr	r0, __arm_cp.14_0
	movs	r2, #0
	movs	r3, #64
	movs	r5, #13
	ldr	r1, [r0, #20]
	.loc	2 2021 56 is_stmt 0     @ ../Driver/sdio_sd.c:2021:56
	lsls	r1, r1, #16
	.loc	2 2021 39               @ ../Driver/sdio_sd.c:2021:39
	str	r1, [r0, #56]!
	mov.w	r1, #1024
	.loc	2 2022 39 is_stmt 1     @ ../Driver/sdio_sd.c:2022:39
	strd	r5, r3, [r0, #4]
	.loc	2 2024 35               @ ../Driver/sdio_sd.c:2024:35
	strd	r2, r1, [r0, #12]
	.loc	2 2026 3                @ ../Driver/sdio_sd.c:2026:3
	bl	SDIO_SendCommand
	.loc	2 2028 17               @ ../Driver/sdio_sd.c:2028:17
	movs	r0, #13
	bl	CmdResp1Error
	mov	r5, r0
.Ltmp189:
	@DEBUG_VALUE: SD_SendStatus:errorstatus <- $r5
	.loc	2 2030 7                @ ../Driver/sdio_sd.c:2030:7
	cbnz	r0, .LBB14_4
.Ltmp190:
@ %bb.2:
	@DEBUG_VALUE: SD_SendStatus:errorstatus <- $r5
	@DEBUG_VALUE: SD_SendStatus:pcardstatus <- $r4
	.loc	2 2035 18               @ ../Driver/sdio_sd.c:2035:18
	movs	r0, #0
	movs	r5, #0
.Ltmp191:
	bl	SDIO_GetResponse
	.loc	2 2035 16 is_stmt 0     @ ../Driver/sdio_sd.c:2035:16
	str	r0, [r4]
	b	.LBB14_4
.Ltmp192:
.LBB14_3:
	@DEBUG_VALUE: SD_SendStatus:pcardstatus <- $r0
	.loc	2 0 16                  @ ../Driver/sdio_sd.c:0:16
	movs	r5, #38
.Ltmp193:
.LBB14_4:
	.loc	2 2038 1 is_stmt 1      @ ../Driver/sdio_sd.c:2038:1
	mov	r0, r5
	pop	{r4, r5, r7, pc}
.Ltmp194:
	.p2align	2
@ %bb.5:
	.loc	2 0 1 is_stmt 0         @ ../Driver/sdio_sd.c:0:1
__arm_cp.14_0:
	.long	.L_MergedGlobals
.Lcpi_end23:
	.size	__arm_cp.14_0, .Lcpi_end23-__arm_cp.14_0
.Lfunc_end14:
	.size	SD_SendStatus, .Lfunc_end14-SD_SendStatus
	.cfi_endproc
	.cantunwind
	.fnend
                                        @ -- End function
	.section	.text.CmdResp1Error,"ax",%progbits
	.p2align	2               @ -- Begin function CmdResp1Error
	.type	CmdResp1Error,%function
	.code	16                      @ @CmdResp1Error
	.thumb_func
CmdResp1Error:
.Lfunc_begin15:
	.loc	2 2289 0 is_stmt 1      @ ../Driver/sdio_sd.c:2289:0
	.fnstart
	.cfi_startproc
@ %bb.0:
	.save	{r4, lr}
	push	{r4, lr}
	.cfi_def_cfa_offset 8
	.cfi_offset lr, -4
	.cfi_offset r4, -8
	@DEBUG_VALUE: CmdResp1Error:cmd <- $r0
	ldr	r1, __arm_cp.15_0
	mov	r4, r0
.Ltmp195:
	@DEBUG_VALUE: CmdResp1Error:errorstatus <- 0
	@DEBUG_VALUE: CmdResp1Error:cmd <- $r4
.LBB15_1:                               @ =>This Inner Loop Header: Depth=1
	@DEBUG_VALUE: CmdResp1Error:cmd <- $r4
	@DEBUG_VALUE: CmdResp1Error:status <- [DW_OP_deref] $r1
	.loc	2 0 0 prologue_end      @ ../Driver/sdio_sd.c:0:0
	ldr	r0, [r1]
.Ltmp196:
	@DEBUG_VALUE: CmdResp1Error:status <- $r0
	.loc	2 2296 3                @ ../Driver/sdio_sd.c:2296:3
	tst.w	r0, #69
	beq	.LBB15_1
.Ltmp197:
@ %bb.2:
	@DEBUG_VALUE: CmdResp1Error:status <- $r0
	@DEBUG_VALUE: CmdResp1Error:cmd <- $r4
	.loc	2 2301 7                @ ../Driver/sdio_sd.c:2301:7
	lsls	r1, r0, #29
	bmi	.LBB15_25
.Ltmp198:
@ %bb.3:
	@DEBUG_VALUE: CmdResp1Error:status <- $r0
	@DEBUG_VALUE: CmdResp1Error:cmd <- $r4
	.loc	2 2307 12               @ ../Driver/sdio_sd.c:2307:12
	lsls	r0, r0, #31
.Ltmp199:
	bne	.LBB15_26
.Ltmp200:
@ %bb.4:
	@DEBUG_VALUE: CmdResp1Error:cmd <- $r4
	.loc	2 2315 7                @ ../Driver/sdio_sd.c:2315:7
	bl	SDIO_GetCommandResponse
.Ltmp201:
	.loc	2 2315 7 is_stmt 0      @ ../Driver/sdio_sd.c:2315:7
	cmp	r0, r4
	bne	.LBB15_27
.Ltmp202:
@ %bb.5:
	@DEBUG_VALUE: CmdResp1Error:cmd <- $r4
	.loc	2 2322 3 is_stmt 1      @ ../Driver/sdio_sd.c:2322:3
	movw	r0, #1535
	bl	SDIO_ClearFlag
	.loc	2 2325 17               @ ../Driver/sdio_sd.c:2325:17
	movs	r0, #0
	movs	r4, #0
.Ltmp203:
	bl	SDIO_GetResponse
.Ltmp204:
	@DEBUG_VALUE: CmdResp1Error:response_r1 <- $r0
	.loc	2 0 17 is_stmt 0        @ ../Driver/sdio_sd.c:0:17
	ldr	r1, __arm_cp.15_1
	.loc	2 2327 7 is_stmt 1      @ ../Driver/sdio_sd.c:2327:7
	tst	r0, r1
	beq	.LBB15_28
.Ltmp205:
@ %bb.6:
	@DEBUG_VALUE: CmdResp1Error:response_r1 <- $r0
	.loc	2 2332 7                @ ../Driver/sdio_sd.c:2332:7
	cmp	r0, #0
	blt	.LBB15_29
.Ltmp206:
@ %bb.7:
	@DEBUG_VALUE: CmdResp1Error:response_r1 <- $r0
	.loc	2 2337 7                @ ../Driver/sdio_sd.c:2337:7
	lsls	r1, r0, #1
	bmi	.LBB15_30
.Ltmp207:
@ %bb.8:
	@DEBUG_VALUE: CmdResp1Error:response_r1 <- $r0
	.loc	2 2342 7                @ ../Driver/sdio_sd.c:2342:7
	lsls	r1, r0, #2
	bmi	.LBB15_31
.Ltmp208:
@ %bb.9:
	@DEBUG_VALUE: CmdResp1Error:response_r1 <- $r0
	.loc	2 2347 7                @ ../Driver/sdio_sd.c:2347:7
	lsls	r1, r0, #3
	bmi	.LBB15_32
.Ltmp209:
@ %bb.10:
	@DEBUG_VALUE: CmdResp1Error:response_r1 <- $r0
	.loc	2 2352 7                @ ../Driver/sdio_sd.c:2352:7
	lsls	r1, r0, #4
	bmi	.LBB15_33
.Ltmp210:
@ %bb.11:
	@DEBUG_VALUE: CmdResp1Error:response_r1 <- $r0
	.loc	2 2357 7                @ ../Driver/sdio_sd.c:2357:7
	lsls	r1, r0, #5
	bmi	.LBB15_34
.Ltmp211:
@ %bb.12:
	@DEBUG_VALUE: CmdResp1Error:response_r1 <- $r0
	.loc	2 2362 7                @ ../Driver/sdio_sd.c:2362:7
	lsls	r1, r0, #7
	bmi	.LBB15_35
.Ltmp212:
@ %bb.13:
	@DEBUG_VALUE: CmdResp1Error:response_r1 <- $r0
	.loc	2 2367 7                @ ../Driver/sdio_sd.c:2367:7
	lsls	r1, r0, #8
	bmi	.LBB15_36
.Ltmp213:
@ %bb.14:
	@DEBUG_VALUE: CmdResp1Error:response_r1 <- $r0
	.loc	2 2372 7                @ ../Driver/sdio_sd.c:2372:7
	lsls	r1, r0, #9
	bmi	.LBB15_27
.Ltmp214:
@ %bb.15:
	@DEBUG_VALUE: CmdResp1Error:response_r1 <- $r0
	.loc	2 2377 7                @ ../Driver/sdio_sd.c:2377:7
	lsls	r1, r0, #10
	bmi	.LBB15_37
.Ltmp215:
@ %bb.16:
	@DEBUG_VALUE: CmdResp1Error:response_r1 <- $r0
	.loc	2 2382 7                @ ../Driver/sdio_sd.c:2382:7
	lsls	r1, r0, #11
	bmi	.LBB15_38
.Ltmp216:
@ %bb.17:
	@DEBUG_VALUE: CmdResp1Error:response_r1 <- $r0
	.loc	2 2387 7                @ ../Driver/sdio_sd.c:2387:7
	lsls	r1, r0, #12
	bmi	.LBB15_39
.Ltmp217:
@ %bb.18:
	@DEBUG_VALUE: CmdResp1Error:response_r1 <- $r0
	.loc	2 2392 7                @ ../Driver/sdio_sd.c:2392:7
	lsls	r1, r0, #13
	bmi	.LBB15_40
.Ltmp218:
@ %bb.19:
	@DEBUG_VALUE: CmdResp1Error:response_r1 <- $r0
	.loc	2 2397 7                @ ../Driver/sdio_sd.c:2397:7
	lsls	r1, r0, #14
	bmi	.LBB15_41
.Ltmp219:
@ %bb.20:
	@DEBUG_VALUE: CmdResp1Error:response_r1 <- $r0
	.loc	2 2402 7                @ ../Driver/sdio_sd.c:2402:7
	lsls	r1, r0, #15
	bmi	.LBB15_42
.Ltmp220:
@ %bb.21:
	@DEBUG_VALUE: CmdResp1Error:response_r1 <- $r0
	.loc	2 2407 7                @ ../Driver/sdio_sd.c:2407:7
	lsls	r1, r0, #16
	bmi	.LBB15_43
.Ltmp221:
@ %bb.22:
	@DEBUG_VALUE: CmdResp1Error:response_r1 <- $r0
	.loc	2 2412 7                @ ../Driver/sdio_sd.c:2412:7
	lsls	r1, r0, #17
	bmi	.LBB15_44
.Ltmp222:
@ %bb.23:
	@DEBUG_VALUE: CmdResp1Error:response_r1 <- $r0
	.loc	2 2417 7                @ ../Driver/sdio_sd.c:2417:7
	lsls	r1, r0, #18
	bmi	.LBB15_45
.Ltmp223:
@ %bb.24:
	@DEBUG_VALUE: CmdResp1Error:response_r1 <- $r0
	.loc	2 2422 19               @ ../Driver/sdio_sd.c:2422:19
	lsls	r0, r0, #28
.Ltmp224:
	.loc	2 0 19 is_stmt 0        @ ../Driver/sdio_sd.c:0:19
	movs	r1, #26
.Ltmp225:
	.loc	2 2422 7                @ ../Driver/sdio_sd.c:2422:7
	and.w	r0, r1, r0, asr #31
	pop	{r4, pc}
.LBB15_25:
.Ltmp226:
	@DEBUG_VALUE: CmdResp1Error:status <- $r0
	@DEBUG_VALUE: CmdResp1Error:cmd <- $r4
	@DEBUG_VALUE: CmdResp1Error:errorstatus <- 3
	.loc	2 2304 5 is_stmt 1      @ ../Driver/sdio_sd.c:2304:5
	movs	r0, #4
.Ltmp227:
	bl	SDIO_ClearFlag
	movs	r4, #3
.Ltmp228:
	.loc	2 0 5 is_stmt 0         @ ../Driver/sdio_sd.c:0:5
	b	.LBB15_28
.Ltmp229:
.LBB15_26:
	@DEBUG_VALUE: CmdResp1Error:cmd <- $r4
	@DEBUG_VALUE: CmdResp1Error:errorstatus <- 1
	.loc	2 2310 5 is_stmt 1      @ ../Driver/sdio_sd.c:2310:5
	movs	r0, #1
	movs	r4, #1
.Ltmp230:
	bl	SDIO_ClearFlag
	b	.LBB15_28
.Ltmp231:
.LBB15_27:
	.loc	2 0 5 is_stmt 0         @ ../Driver/sdio_sd.c:0:5
	movs	r4, #16
.LBB15_28:
	.loc	2 2427 1 is_stmt 1      @ ../Driver/sdio_sd.c:2427:1
	mov	r0, r4
	pop	{r4, pc}
.Ltmp232:
.LBB15_29:
	@DEBUG_VALUE: CmdResp1Error:response_r1 <- $r0
	.loc	2 0 1 is_stmt 0         @ ../Driver/sdio_sd.c:0:1
	movs	r4, #28
	b	.LBB15_28
.Ltmp233:
.LBB15_30:
	@DEBUG_VALUE: CmdResp1Error:response_r1 <- $r0
	movs	r4, #9
	b	.LBB15_28
.Ltmp234:
.LBB15_31:
	@DEBUG_VALUE: CmdResp1Error:response_r1 <- $r0
	movs	r4, #10
	b	.LBB15_28
.Ltmp235:
.LBB15_32:
	@DEBUG_VALUE: CmdResp1Error:response_r1 <- $r0
	movs	r4, #11
	b	.LBB15_28
.Ltmp236:
.LBB15_33:
	@DEBUG_VALUE: CmdResp1Error:response_r1 <- $r0
	movs	r4, #12
	b	.LBB15_28
.Ltmp237:
.LBB15_34:
	@DEBUG_VALUE: CmdResp1Error:response_r1 <- $r0
	movs	r4, #13
	b	.LBB15_28
.Ltmp238:
.LBB15_35:
	@DEBUG_VALUE: CmdResp1Error:response_r1 <- $r0
	movs	r4, #14
	b	.LBB15_28
.Ltmp239:
.LBB15_36:
	@DEBUG_VALUE: CmdResp1Error:response_r1 <- $r0
	movs	r4, #15
	b	.LBB15_28
.Ltmp240:
.LBB15_37:
	@DEBUG_VALUE: CmdResp1Error:response_r1 <- $r0
	movs	r4, #17
	b	.LBB15_28
.Ltmp241:
.LBB15_38:
	@DEBUG_VALUE: CmdResp1Error:response_r1 <- $r0
	movs	r4, #18
	b	.LBB15_28
.Ltmp242:
.LBB15_39:
	@DEBUG_VALUE: CmdResp1Error:response_r1 <- $r0
	movs	r4, #19
	b	.LBB15_28
.Ltmp243:
.LBB15_40:
	@DEBUG_VALUE: CmdResp1Error:response_r1 <- $r0
	movs	r4, #20
	b	.LBB15_28
.Ltmp244:
.LBB15_41:
	@DEBUG_VALUE: CmdResp1Error:response_r1 <- $r0
	movs	r4, #21
	b	.LBB15_28
.Ltmp245:
.LBB15_42:
	@DEBUG_VALUE: CmdResp1Error:response_r1 <- $r0
	movs	r4, #22
	b	.LBB15_28
.Ltmp246:
.LBB15_43:
	@DEBUG_VALUE: CmdResp1Error:response_r1 <- $r0
	movs	r4, #23
	b	.LBB15_28
.Ltmp247:
.LBB15_44:
	@DEBUG_VALUE: CmdResp1Error:response_r1 <- $r0
	movs	r4, #24
	b	.LBB15_28
.Ltmp248:
.LBB15_45:
	@DEBUG_VALUE: CmdResp1Error:response_r1 <- $r0
	movs	r4, #25
	b	.LBB15_28
.Ltmp249:
	.p2align	2
@ %bb.46:
__arm_cp.15_0:
	.long	1073818676              @ 0x40012c34
.Lcpi_end24:
	.size	__arm_cp.15_0, .Lcpi_end24-__arm_cp.15_0
__arm_cp.15_1:
	.long	4261404680              @ 0xfdffe008
.Lcpi_end25:
	.size	__arm_cp.15_1, .Lcpi_end25-__arm_cp.15_1
.Lfunc_end15:
	.size	CmdResp1Error, .Lfunc_end15-CmdResp1Error
	.cfi_endproc
	.cantunwind
	.fnend
                                        @ -- End function
	.section	.text.SD_PowerOFF,"ax",%progbits
	.hidden	SD_PowerOFF             @ -- Begin function SD_PowerOFF
	.globl	SD_PowerOFF
	.p2align	1
	.type	SD_PowerOFF,%function
	.code	16                      @ @SD_PowerOFF
	.thumb_func
SD_PowerOFF:
.Lfunc_begin16:
	.loc	2 841 0 is_stmt 1       @ ../Driver/sdio_sd.c:841:0
	.fnstart
	.cfi_startproc
@ %bb.0:
	.save	{r7, lr}
	push	{r7, lr}
	.cfi_def_cfa_offset 8
	.cfi_offset lr, -4
	.cfi_offset r7, -8
.Ltmp250:
	@DEBUG_VALUE: SD_PowerOFF:errorstatus <- 0
	.loc	2 845 3 prologue_end    @ ../Driver/sdio_sd.c:845:3
	movs	r0, #0
	bl	SDIO_SetPowerState
	.loc	2 847 3                 @ ../Driver/sdio_sd.c:847:3
	movs	r0, #0
	pop	{r7, pc}
.Ltmp251:
.Lfunc_end16:
	.size	SD_PowerOFF, .Lfunc_end16-SD_PowerOFF
	.cfi_endproc
	.cantunwind
	.fnend
                                        @ -- End function
	.section	.text.CmdResp2Error,"ax",%progbits
	.p2align	2               @ -- Begin function CmdResp2Error
	.type	CmdResp2Error,%function
	.code	16                      @ @CmdResp2Error
	.thumb_func
CmdResp2Error:
.Lfunc_begin17:
	.loc	2 2463 0                @ ../Driver/sdio_sd.c:2463:0
	.fnstart
	.cfi_startproc
@ %bb.0:
	@DEBUG_VALUE: CmdResp2Error:errorstatus <- 0
	ldr	r1, __arm_cp.17_0
.LBB17_1:                               @ =>This Inner Loop Header: Depth=1
.Ltmp252:
	@DEBUG_VALUE: CmdResp2Error:status <- [DW_OP_deref] $r1
	.loc	2 0 0 prologue_end      @ ../Driver/sdio_sd.c:0:0
	ldr	r0, [r1]
.Ltmp253:
	@DEBUG_VALUE: CmdResp2Error:status <- $r0
	.loc	2 2469 3                @ ../Driver/sdio_sd.c:2469:3
	tst.w	r0, #69
	beq	.LBB17_1
.Ltmp254:
@ %bb.2:
	@DEBUG_VALUE: CmdResp2Error:status <- $r0
	.save	{r4, lr}
	push	{r4, lr}
	.cfi_def_cfa_offset 8
	.cfi_offset lr, -4
	.cfi_offset r4, -8
	.loc	2 2474 7                @ ../Driver/sdio_sd.c:2474:7
	lsls	r1, r0, #29
	bmi	.LBB17_5
.Ltmp255:
@ %bb.3:
	@DEBUG_VALUE: CmdResp2Error:status <- $r0
	.loc	2 2480 12               @ ../Driver/sdio_sd.c:2480:12
	lsls	r0, r0, #31
.Ltmp256:
	bne	.LBB17_6
.Ltmp257:
@ %bb.4:
	.loc	2 2488 3                @ ../Driver/sdio_sd.c:2488:3
	movw	r0, #1535
	bl	SDIO_ClearFlag
	movs	r4, #0
	b	.LBB17_7
.LBB17_5:
.Ltmp258:
	@DEBUG_VALUE: CmdResp2Error:status <- $r0
	@DEBUG_VALUE: CmdResp2Error:errorstatus <- 3
	.loc	2 2477 5                @ ../Driver/sdio_sd.c:2477:5
	movs	r0, #4
.Ltmp259:
	bl	SDIO_ClearFlag
	movs	r4, #3
	b	.LBB17_7
.Ltmp260:
.LBB17_6:
	@DEBUG_VALUE: CmdResp2Error:errorstatus <- 1
	.loc	2 2483 5                @ ../Driver/sdio_sd.c:2483:5
	movs	r0, #1
	movs	r4, #1
	bl	SDIO_ClearFlag
.Ltmp261:
.LBB17_7:
	.loc	2 2491 1                @ ../Driver/sdio_sd.c:2491:1
	mov	r0, r4
	pop	{r4, pc}
.Ltmp262:
	.p2align	2
@ %bb.8:
	.loc	2 0 1 is_stmt 0         @ ../Driver/sdio_sd.c:0:1
__arm_cp.17_0:
	.long	1073818676              @ 0x40012c34
.Lcpi_end26:
	.size	__arm_cp.17_0, .Lcpi_end26-__arm_cp.17_0
.Lfunc_end17:
	.size	CmdResp2Error, .Lfunc_end17-CmdResp2Error
	.cfi_endproc
	.cantunwind
	.fnend
                                        @ -- End function
	.section	.text.SD_GetCardStatus,"ax",%progbits
	.hidden	SD_GetCardStatus        @ -- Begin function SD_GetCardStatus
	.globl	SD_GetCardStatus
	.p2align	2
	.type	SD_GetCardStatus,%function
	.code	16                      @ @SD_GetCardStatus
	.thumb_func
SD_GetCardStatus:
.Lfunc_begin18:
	.loc	2 1158 0 is_stmt 1      @ ../Driver/sdio_sd.c:1158:0
	.fnstart
	.cfi_startproc
@ %bb.0:
	.save	{r4, r5, r7, lr}
	push	{r4, r5, r7, lr}
	.cfi_def_cfa_offset 16
	.cfi_offset lr, -4
	.cfi_offset r7, -8
	.cfi_offset r5, -12
	.cfi_offset r4, -16
	@DEBUG_VALUE: SD_GetCardStatus:cardstatus <- $r0
.Ltmp263:
	.loc	2 1162 17 prologue_end  @ ../Driver/sdio_sd.c:1162:17
	ldr	r5, __arm_cp.18_0
	mov	r4, r0
.Ltmp264:
	@DEBUG_VALUE: SD_GetCardStatus:tmp <- 0
	@DEBUG_VALUE: SD_GetCardStatus:errorstatus <- 0
	@DEBUG_VALUE: SD_GetCardStatus:cardstatus <- $r4
	mov	r0, r5
	bl	SD_SendSDStatus
.Ltmp265:
	@DEBUG_VALUE: SD_GetCardStatus:errorstatus <- $r0
	.loc	2 1164 7                @ ../Driver/sdio_sd.c:1164:7
	cbz	r0, .LBB18_2
.Ltmp266:
@ %bb.1:
	@DEBUG_VALUE: SD_GetCardStatus:errorstatus <- $r0
	@DEBUG_VALUE: SD_GetCardStatus:cardstatus <- $r4
	.loc	2 1230 1                @ ../Driver/sdio_sd.c:1230:1
	pop	{r4, r5, r7, pc}
.Ltmp267:
.LBB18_2:
	@DEBUG_VALUE: SD_GetCardStatus:errorstatus <- $r0
	@DEBUG_VALUE: SD_GetCardStatus:cardstatus <- $r4
	.loc	2 1170 20               @ ../Driver/sdio_sd.c:1170:20
	ldrb	r1, [r5]
	.loc	2 1170 44 is_stmt 0     @ ../Driver/sdio_sd.c:1170:44
	lsrs	r1, r1, #6
.Ltmp268:
	@DEBUG_VALUE: SD_GetCardStatus:tmp <- $r1
	.loc	2 1171 29 is_stmt 1     @ ../Driver/sdio_sd.c:1171:29
	strb	r1, [r4]
	.loc	2 1174 20               @ ../Driver/sdio_sd.c:1174:20
	ldrb	r1, [r5]
.Ltmp269:
	.loc	2 1174 44 is_stmt 0     @ ../Driver/sdio_sd.c:1174:44
	ubfx	r1, r1, #5, #1
.Ltmp270:
	@DEBUG_VALUE: SD_GetCardStatus:tmp <- $r1
	.loc	2 1175 28 is_stmt 1     @ ../Driver/sdio_sd.c:1175:28
	strb	r1, [r4, #1]
.Ltmp271:
	@DEBUG_VALUE: SD_GetCardStatus:tmp <- undef
	.loc	2 1179 30               @ ../Driver/sdio_sd.c:1179:30
	ldrb	r1, [r5, #2]
	.loc	2 1179 34 is_stmt 0     @ ../Driver/sdio_sd.c:1179:34
	lsls	r1, r1, #8
	.loc	2 1179 28               @ ../Driver/sdio_sd.c:1179:28
	strh	r1, [r4, #2]
	.loc	2 1182 20 is_stmt 1     @ ../Driver/sdio_sd.c:1182:20
	ldrb	r1, [r5, #3]
	@DEBUG_VALUE: SD_GetCardStatus:tmp <- undef
	.loc	2 1183 28               @ ../Driver/sdio_sd.c:1183:28
	ldrh	r2, [r4, #2]
	orrs	r1, r2
	strh	r1, [r4, #2]
	@DEBUG_VALUE: SD_GetCardStatus:tmp <- undef
	.loc	2 1187 40               @ ../Driver/sdio_sd.c:1187:40
	ldrb	r1, [r5, #4]
	.loc	2 1187 44 is_stmt 0     @ ../Driver/sdio_sd.c:1187:44
	lsls	r1, r1, #24
	.loc	2 1187 38               @ ../Driver/sdio_sd.c:1187:38
	str	r1, [r4, #4]
	.loc	2 1190 19 is_stmt 1     @ ../Driver/sdio_sd.c:1190:19
	ldrb	r1, [r5, #5]
	@DEBUG_VALUE: SD_GetCardStatus:tmp <- undef
	.loc	2 1191 38               @ ../Driver/sdio_sd.c:1191:38
	ldr	r2, [r4, #4]
	orr.w	r1, r2, r1, lsl #16
	str	r1, [r4, #4]
	.loc	2 1194 19               @ ../Driver/sdio_sd.c:1194:19
	ldrb	r1, [r5, #6]
	@DEBUG_VALUE: SD_GetCardStatus:tmp <- undef
	.loc	2 1195 38               @ ../Driver/sdio_sd.c:1195:38
	ldr	r2, [r4, #4]
	orr.w	r1, r2, r1, lsl #8
	str	r1, [r4, #4]
	.loc	2 1198 19               @ ../Driver/sdio_sd.c:1198:19
	ldrb	r1, [r5, #7]
	@DEBUG_VALUE: SD_GetCardStatus:tmp <- undef
	.loc	2 1199 38               @ ../Driver/sdio_sd.c:1199:38
	ldr	r2, [r4, #4]
	orrs	r1, r2
	str	r1, [r4, #4]
	.loc	2 1202 20               @ ../Driver/sdio_sd.c:1202:20
	ldrb	r1, [r5, #8]
.Ltmp272:
	@DEBUG_VALUE: SD_GetCardStatus:tmp <- $r1
	.loc	2 1203 27               @ ../Driver/sdio_sd.c:1203:27
	strb	r1, [r4, #8]
	.loc	2 1206 20               @ ../Driver/sdio_sd.c:1206:20
	ldrb	r1, [r5, #9]
.Ltmp273:
	@DEBUG_VALUE: SD_GetCardStatus:tmp <- $r1
	.loc	2 1207 32               @ ../Driver/sdio_sd.c:1207:32
	strb	r1, [r4, #9]
	.loc	2 1210 20               @ ../Driver/sdio_sd.c:1210:20
	ldrb	r1, [r5, #10]
.Ltmp274:
	.loc	2 1210 45 is_stmt 0     @ ../Driver/sdio_sd.c:1210:45
	lsrs	r1, r1, #4
.Ltmp275:
	@DEBUG_VALUE: SD_GetCardStatus:tmp <- $r1
	.loc	2 1211 23 is_stmt 1     @ ../Driver/sdio_sd.c:1211:23
	strb	r1, [r4, #10]
.Ltmp276:
	@DEBUG_VALUE: SD_GetCardStatus:tmp <- undef
	.loc	2 1215 28               @ ../Driver/sdio_sd.c:1215:28
	ldrb	r1, [r5, #11]
	.loc	2 1215 32 is_stmt 0     @ ../Driver/sdio_sd.c:1215:32
	lsls	r1, r1, #8
	.loc	2 1215 26               @ ../Driver/sdio_sd.c:1215:26
	strh	r1, [r4, #12]
	.loc	2 1218 19 is_stmt 1     @ ../Driver/sdio_sd.c:1218:19
	ldrb	r1, [r5, #12]
	@DEBUG_VALUE: SD_GetCardStatus:tmp <- undef
	.loc	2 1219 26               @ ../Driver/sdio_sd.c:1219:26
	ldrh	r2, [r4, #12]
	orrs	r1, r2
	strh	r1, [r4, #12]
	.loc	2 1222 20               @ ../Driver/sdio_sd.c:1222:20
	ldrb	r1, [r5, #13]
	.loc	2 1222 45 is_stmt 0     @ ../Driver/sdio_sd.c:1222:45
	lsrs	r2, r1, #2
.Ltmp277:
	@DEBUG_VALUE: SD_GetCardStatus:tmp <- $r2
	.loc	2 1226 37 is_stmt 1     @ ../Driver/sdio_sd.c:1226:37
	and	r1, r1, #3
.Ltmp278:
	@DEBUG_VALUE: SD_GetCardStatus:tmp <- $r1
	.loc	2 1223 29               @ ../Driver/sdio_sd.c:1223:29
	strb	r2, [r4, #14]
	.loc	2 1227 28               @ ../Driver/sdio_sd.c:1227:28
	strb	r1, [r4, #15]
	.loc	2 1230 1                @ ../Driver/sdio_sd.c:1230:1
	pop	{r4, r5, r7, pc}
.Ltmp279:
	.p2align	2
@ %bb.3:
	.loc	2 0 1 is_stmt 0         @ ../Driver/sdio_sd.c:0:1
__arm_cp.18_0:
	.long	SDSTATUS_Tab
.Lcpi_end27:
	.size	__arm_cp.18_0, .Lcpi_end27-__arm_cp.18_0
.Lfunc_end18:
	.size	SD_GetCardStatus, .Lfunc_end18-SD_GetCardStatus
	.cfi_endproc
	.cantunwind
	.fnend
                                        @ -- End function
	.section	.text.SD_SendSDStatus,"ax",%progbits
	.hidden	SD_SendSDStatus         @ -- Begin function SD_SendSDStatus
	.globl	SD_SendSDStatus
	.p2align	2
	.type	SD_SendSDStatus,%function
	.code	16                      @ @SD_SendSDStatus
	.thumb_func
SD_SendSDStatus:
.Lfunc_begin19:
	.loc	2 2047 0 is_stmt 1      @ ../Driver/sdio_sd.c:2047:0
	.fnstart
	.cfi_startproc
@ %bb.0:
	.save	{r4, r5, r6, r7, r8, r9, lr}
	.pad	#4
	push.w	{r3, r4, r5, r6, r7, r8, r9, lr}
	.cfi_def_cfa_offset 32
	.cfi_offset lr, -4
	.cfi_offset r9, -8
	.cfi_offset r8, -12
	.cfi_offset r7, -16
	.cfi_offset r6, -20
	.cfi_offset r5, -24
	.cfi_offset r4, -28
	@DEBUG_VALUE: SD_SendSDStatus:psdstatus <- $r0
	mov	r9, r0
.Ltmp280:
	@DEBUG_VALUE: SD_SendSDStatus:count <- 0
	@DEBUG_VALUE: SD_SendSDStatus:errorstatus <- 0
	@DEBUG_VALUE: SD_SendSDStatus:psdstatus <- $r9
	.loc	2 2051 7 prologue_end   @ ../Driver/sdio_sd.c:2051:7
	movs	r0, #0
	movs	r6, #0
	bl	SDIO_GetResponse
.Ltmp281:
	.loc	2 2051 7 is_stmt 0      @ ../Driver/sdio_sd.c:2051:7
	lsls	r0, r0, #6
	bmi	.LBB19_13
.Ltmp282:
@ %bb.1:
	@DEBUG_VALUE: SD_SendSDStatus:psdstatus <- $r9
	.loc	2 2058 39 is_stmt 1     @ ../Driver/sdio_sd.c:2058:39
	ldr	r5, __arm_cp.19_0
	movs	r7, #64
	mov.w	r4, #1024
	movs	r1, #16
	mov	r0, r5
	str	r7, [r0, #56]!
	.loc	2 2059 39               @ ../Driver/sdio_sd.c:2059:39
	strd	r1, r7, [r0, #4]
	.loc	2 2061 35               @ ../Driver/sdio_sd.c:2061:35
	strd	r6, r4, [r0, #12]
	.loc	2 2063 3                @ ../Driver/sdio_sd.c:2063:3
	bl	SDIO_SendCommand
	.loc	2 2065 17               @ ../Driver/sdio_sd.c:2065:17
	movs	r0, #16
	bl	CmdResp1Error
	mov	r6, r0
.Ltmp283:
	@DEBUG_VALUE: SD_SendSDStatus:errorstatus <- $r6
	.loc	2 2067 7                @ ../Driver/sdio_sd.c:2067:7
	cmp	r0, #0
	bne	.LBB19_14
.Ltmp284:
@ %bb.2:
	@DEBUG_VALUE: SD_SendSDStatus:errorstatus <- $r6
	@DEBUG_VALUE: SD_SendSDStatus:psdstatus <- $r9
	.loc	2 2073 52               @ ../Driver/sdio_sd.c:2073:52
	ldr	r0, [r5, #20]
	mov.w	r8, #0
	.loc	2 2073 56 is_stmt 0     @ ../Driver/sdio_sd.c:2073:56
	lsls	r1, r0, #16
	.loc	2 2073 39               @ ../Driver/sdio_sd.c:2073:39
	mov	r0, r5
	str	r1, [r0, #56]!
	movs	r1, #55
	.loc	2 2074 39 is_stmt 1     @ ../Driver/sdio_sd.c:2074:39
	adds	r2, r0, #4
	stm.w	r2, {r1, r7, r8}
	.loc	2 2077 35               @ ../Driver/sdio_sd.c:2077:35
	str	r4, [r0, #16]
	.loc	2 2078 3                @ ../Driver/sdio_sd.c:2078:3
	bl	SDIO_SendCommand
	.loc	2 2079 17               @ ../Driver/sdio_sd.c:2079:17
	movs	r0, #55
	bl	CmdResp1Error
	mov	r6, r0
.Ltmp285:
	@DEBUG_VALUE: SD_SendSDStatus:errorstatus <- $r6
	.loc	2 2081 7                @ ../Driver/sdio_sd.c:2081:7
	cmp	r0, #0
	bne	.LBB19_14
.Ltmp286:
@ %bb.3:
	@DEBUG_VALUE: SD_SendSDStatus:errorstatus <- $r6
	@DEBUG_VALUE: SD_SendSDStatus:psdstatus <- $r9
	.loc	2 0 7 is_stmt 0         @ ../Driver/sdio_sd.c:0:7
	movs	r0, #1
	movs	r1, #2
	movs	r2, #96
	movs	r4, #64
	.loc	2 2087 42 is_stmt 1     @ ../Driver/sdio_sd.c:2087:42
	strd	r4, r2, [r5, #104]
	.loc	2 2089 43               @ ../Driver/sdio_sd.c:2089:43
	strd	r1, r8, [r5, #112]
	.loc	2 2091 36               @ ../Driver/sdio_sd.c:2091:36
	str	r0, [r5, #120]
	mov.w	r1, #-1
	.loc	2 2086 43               @ ../Driver/sdio_sd.c:2086:43
	mov	r0, r5
	str	r1, [r0, #100]!
	.loc	2 2092 3                @ ../Driver/sdio_sd.c:2092:3
	bl	SDIO_DataConfig
	.loc	2 2095 39               @ ../Driver/sdio_sd.c:2095:39
	str	r8, [r5, #56]!
	mov.w	r0, #1024
	movs	r1, #13
	.loc	2 2096 39               @ ../Driver/sdio_sd.c:2096:39
	adds	r2, r5, #4
	stm.w	r2, {r1, r4, r8}
	.loc	2 2099 35               @ ../Driver/sdio_sd.c:2099:35
	str	r0, [r5, #16]
	.loc	2 2100 3                @ ../Driver/sdio_sd.c:2100:3
	mov	r0, r5
	bl	SDIO_SendCommand
	.loc	2 2101 17               @ ../Driver/sdio_sd.c:2101:17
	movs	r0, #13
	bl	CmdResp1Error
	mov	r6, r0
.Ltmp287:
	@DEBUG_VALUE: SD_SendSDStatus:errorstatus <- $r6
	.loc	2 2103 7                @ ../Driver/sdio_sd.c:2103:7
	cbnz	r0, .LBB19_14
.Ltmp288:
@ %bb.4:
	@DEBUG_VALUE: SD_SendSDStatus:errorstatus <- $r6
	@DEBUG_VALUE: SD_SendSDStatus:psdstatus <- $r9
	.loc	2 0 7 is_stmt 0         @ ../Driver/sdio_sd.c:0:7
	ldr	r5, __arm_cp.19_1
	movw	r6, #1578
.Ltmp289:
	@DEBUG_VALUE: SD_SendSDStatus:psdstatus <- $r9
	b	.LBB19_10
.Ltmp290:
.LBB19_5:                               @   in Loop: Header=BB19_10 Depth=1
	@DEBUG_VALUE: SD_SendSDStatus:psdstatus <- $r9
	.loc	2 2110 9 is_stmt 1      @ ../Driver/sdio_sd.c:2110:9
	mov.w	r0, #32768
	bl	SDIO_GetFlagStatus
.Ltmp291:
	.loc	2 2110 9 is_stmt 0      @ ../Driver/sdio_sd.c:2110:9
	cbz	r0, .LBB19_10
.Ltmp292:
@ %bb.6:                                @   in Loop: Header=BB19_10 Depth=1
	@DEBUG_VALUE: SD_SendSDStatus:psdstatus <- $r9
	.loc	2 0 9                   @ ../Driver/sdio_sd.c:0:9
	movs	r4, #0
	b	.LBB19_8
.Ltmp293:
.LBB19_7:                               @   in Loop: Header=BB19_8 Depth=2
	@DEBUG_VALUE: SD_SendSDStatus:count <- $r4
	@DEBUG_VALUE: SD_SendSDStatus:psdstatus <- $r9
	.loc	2 2114 32 is_stmt 1     @ ../Driver/sdio_sd.c:2114:32
	bl	SDIO_ReadData
	.loc	2 2114 30 is_stmt 0     @ ../Driver/sdio_sd.c:2114:30
	str.w	r0, [r9, r4, lsl #2]
.Ltmp294:
	.loc	2 2112 39 is_stmt 1     @ ../Driver/sdio_sd.c:2112:39
	adds	r4, #1
.Ltmp295:
	@DEBUG_VALUE: SD_SendSDStatus:count <- $r4
.LBB19_8:                               @   Parent Loop BB19_10 Depth=1
                                        @ =>  This Inner Loop Header: Depth=2
	@DEBUG_VALUE: SD_SendSDStatus:psdstatus <- $r9
	@DEBUG_VALUE: SD_SendSDStatus:count <- $r4
	.loc	2 2112 7 is_stmt 0      @ ../Driver/sdio_sd.c:2112:7
	cmp	r4, #8
	bne	.LBB19_7
.Ltmp296:
@ %bb.9:                                @   in Loop: Header=BB19_10 Depth=1
	@DEBUG_VALUE: SD_SendSDStatus:count <- $r4
	@DEBUG_VALUE: SD_SendSDStatus:psdstatus <- $r9
	.loc	2 2116 17 is_stmt 1     @ ../Driver/sdio_sd.c:2116:17
	add.w	r9, r9, #32
.Ltmp297:
	@DEBUG_VALUE: SD_SendSDStatus:psdstatus <- $r9
	@DEBUG_VALUE: SD_SendSDStatus:psdstatus <- $r9
.LBB19_10:                              @ =>This Loop Header: Depth=1
                                        @     Child Loop BB19_8 Depth 2
	@DEBUG_VALUE: SD_SendSDStatus:psdstatus <- $r9
	.loc	2 2108 18               @ ../Driver/sdio_sd.c:2108:18
	ldr	r0, [r5]
	.loc	2 2108 3 is_stmt 0      @ ../Driver/sdio_sd.c:2108:3
	tst	r0, r6
	beq	.LBB19_5
.Ltmp298:
@ %bb.11:
	@DEBUG_VALUE: SD_SendSDStatus:psdstatus <- $r9
	.loc	2 2120 7 is_stmt 1      @ ../Driver/sdio_sd.c:2120:7
	movs	r0, #8
	bl	SDIO_GetFlagStatus
.Ltmp299:
	.loc	2 2120 7 is_stmt 0      @ ../Driver/sdio_sd.c:2120:7
	cbz	r0, .LBB19_15
.Ltmp300:
@ %bb.12:
	@DEBUG_VALUE: SD_SendSDStatus:psdstatus <- $r9
	.loc	2 2122 5 is_stmt 1      @ ../Driver/sdio_sd.c:2122:5
	movs	r0, #8
	bl	SDIO_ClearFlag
	movs	r6, #4
.Ltmp301:
	@DEBUG_VALUE: SD_SendSDStatus:errorstatus <- 4
	.loc	2 0 5 is_stmt 0         @ ../Driver/sdio_sd.c:0:5
	b	.LBB19_14
.Ltmp302:
.LBB19_13:
	@DEBUG_VALUE: SD_SendSDStatus:psdstatus <- $r9
	movs	r6, #14
.Ltmp303:
.LBB19_14:
	.loc	2 2156 1 is_stmt 1      @ ../Driver/sdio_sd.c:2156:1
	mov	r0, r6
	add	sp, #4
	pop.w	{r4, r5, r6, r7, r8, r9, pc}
.LBB19_15:
.Ltmp304:
	@DEBUG_VALUE: SD_SendSDStatus:psdstatus <- $r9
	.loc	2 2126 12               @ ../Driver/sdio_sd.c:2126:12
	movs	r0, #2
	bl	SDIO_GetFlagStatus
.Ltmp305:
	.loc	2 2126 12 is_stmt 0     @ ../Driver/sdio_sd.c:2126:12
	cbz	r0, .LBB19_17
.Ltmp306:
@ %bb.16:
	@DEBUG_VALUE: SD_SendSDStatus:psdstatus <- $r9
	.loc	2 2128 5 is_stmt 1      @ ../Driver/sdio_sd.c:2128:5
	movs	r0, #2
	movs	r6, #2
	bl	SDIO_ClearFlag
.Ltmp307:
	@DEBUG_VALUE: SD_SendSDStatus:errorstatus <- 2
	.loc	2 0 5 is_stmt 0         @ ../Driver/sdio_sd.c:0:5
	b	.LBB19_14
.Ltmp308:
.LBB19_17:
	@DEBUG_VALUE: SD_SendSDStatus:psdstatus <- $r9
	.loc	2 2132 12 is_stmt 1     @ ../Driver/sdio_sd.c:2132:12
	movs	r0, #32
	bl	SDIO_GetFlagStatus
.Ltmp309:
	.loc	2 2132 12 is_stmt 0     @ ../Driver/sdio_sd.c:2132:12
	cbz	r0, .LBB19_19
.Ltmp310:
@ %bb.18:
	@DEBUG_VALUE: SD_SendSDStatus:psdstatus <- $r9
	.loc	2 2134 5 is_stmt 1      @ ../Driver/sdio_sd.c:2134:5
	movs	r0, #32
	bl	SDIO_ClearFlag
	movs	r6, #6
.Ltmp311:
	@DEBUG_VALUE: SD_SendSDStatus:errorstatus <- 6
	.loc	2 0 5 is_stmt 0         @ ../Driver/sdio_sd.c:0:5
	b	.LBB19_14
.Ltmp312:
.LBB19_19:
	@DEBUG_VALUE: SD_SendSDStatus:psdstatus <- $r9
	.loc	2 2138 12 is_stmt 1     @ ../Driver/sdio_sd.c:2138:12
	mov.w	r0, #512
	bl	SDIO_GetFlagStatus
.Ltmp313:
	.loc	2 2138 12 is_stmt 0     @ ../Driver/sdio_sd.c:2138:12
	cbz	r0, .LBB19_21
.Ltmp314:
@ %bb.20:
	@DEBUG_VALUE: SD_SendSDStatus:psdstatus <- $r9
	.loc	2 2140 5 is_stmt 1      @ ../Driver/sdio_sd.c:2140:5
	mov.w	r0, #512
	bl	SDIO_ClearFlag
	movs	r6, #7
.Ltmp315:
	@DEBUG_VALUE: SD_SendSDStatus:errorstatus <- 7
	.loc	2 0 5 is_stmt 0         @ ../Driver/sdio_sd.c:0:5
	b	.LBB19_14
.Ltmp316:
.LBB19_21:
	@DEBUG_VALUE: SD_SendSDStatus:psdstatus <- $r9
	movs	r4, #0
	b	.LBB19_23
.Ltmp317:
.LBB19_22:                              @   in Loop: Header=BB19_23 Depth=1
	.loc	2 2148 18 is_stmt 1     @ ../Driver/sdio_sd.c:2148:18
	bl	SDIO_ReadData
	.loc	2 2148 16 is_stmt 0     @ ../Driver/sdio_sd.c:2148:16
	str.w	r0, [r9, r4, lsl #2]
.Ltmp318:
	@DEBUG_VALUE: SD_SendSDStatus:count <- [DW_OP_constu 1, DW_OP_minus, DW_OP_stack_value] undef
	@DEBUG_VALUE: SD_SendSDStatus:psdstatus <- [DW_OP_plus_uconst 4, DW_OP_stack_value] undef
	.loc	2 0 16                  @ ../Driver/sdio_sd.c:0:16
	mov	r4, r5
.Ltmp319:
.LBB19_23:                              @ =>This Inner Loop Header: Depth=1
	@DEBUG_VALUE: SD_SendSDStatus:psdstatus <- $r9
	@DEBUG_VALUE: SD_SendSDStatus:psdstatus <- undef
	@DEBUG_VALUE: SD_SendSDStatus:count <- undef
	.loc	2 2146 11 is_stmt 1     @ ../Driver/sdio_sd.c:2146:11
	mov.w	r0, #2097152
	bl	SDIO_GetFlagStatus
	.loc	2 2146 3 is_stmt 0      @ ../Driver/sdio_sd.c:2146:3
	adds	r5, r4, #1
	it	ne
	cmpne	r0, #0
	bne	.LBB19_22
@ %bb.24:
	.loc	2 2153 3 is_stmt 1      @ ../Driver/sdio_sd.c:2153:3
	movw	r0, #1535
	bl	SDIO_ClearFlag
	movs	r6, #0
	b	.LBB19_14
.Ltmp320:
	.p2align	2
@ %bb.25:
	.loc	2 0 3 is_stmt 0         @ ../Driver/sdio_sd.c:0:3
__arm_cp.19_0:
	.long	.L_MergedGlobals
.Lcpi_end28:
	.size	__arm_cp.19_0, .Lcpi_end28-__arm_cp.19_0
__arm_cp.19_1:
	.long	1073818676              @ 0x40012c34
.Lcpi_end29:
	.size	__arm_cp.19_1, .Lcpi_end29-__arm_cp.19_1
.Lfunc_end19:
	.size	SD_SendSDStatus, .Lfunc_end19-SD_SendSDStatus
	.cfi_endproc
	.cantunwind
	.fnend
                                        @ -- End function
	.section	.text.SDEnWideBus,"ax",%progbits
	.p2align	2               @ -- Begin function SDEnWideBus
	.type	SDEnWideBus,%function
	.code	16                      @ @SDEnWideBus
	.thumb_func
SDEnWideBus:
.Lfunc_begin20:
	.loc	2 2570 0 is_stmt 1      @ ../Driver/sdio_sd.c:2570:0
	.fnstart
	.cfi_startproc
@ %bb.0:
	.save	{r4, r5, r6, r7, r8, r9, lr}
	.pad	#12
	push.w	{r1, r2, r3, r4, r5, r6, r7, r8, r9, lr}
	.cfi_def_cfa_offset 40
	.cfi_offset lr, -4
	.cfi_offset r9, -8
	.cfi_offset r8, -12
	.cfi_offset r7, -16
	.cfi_offset r6, -20
	.cfi_offset r5, -24
	.cfi_offset r4, -28
	@DEBUG_VALUE: SDEnWideBus:NewState <- $r0
	mov	r9, r0
.Ltmp321:
	@DEBUG_VALUE: SDEnWideBus:errorstatus <- 0
	@DEBUG_VALUE: SDEnWideBus:NewState <- $r9
	.loc	2 2575 7 prologue_end   @ ../Driver/sdio_sd.c:2575:7
	movs	r0, #0
	movs	r6, #0
	bl	SDIO_GetResponse
.Ltmp322:
	.loc	2 2575 7 is_stmt 0      @ ../Driver/sdio_sd.c:2575:7
	lsls	r0, r0, #6
	bmi	.LBB20_10
.Ltmp323:
@ %bb.1:
	@DEBUG_VALUE: SDEnWideBus:NewState <- $r9
	@DEBUG_VALUE: FindSCR:rca <- undef
	@DEBUG_VALUE: FindSCR:pscr <- undef
	@DEBUG_VALUE: FindSCR:index <- 0
	@DEBUG_VALUE: FindSCR:errorstatus <- 0
	.loc	2 2850 39 is_stmt 1     @ ../Driver/sdio_sd.c:2850:39
	ldr	r4, __arm_cp.20_0
	movs	r1, #8
	mov.w	r7, #1024
	movs	r5, #64
	mov	r0, r4
	str	r1, [r0, #56]!
	movs	r1, #16
.Ltmp324:
	@DEBUG_VALUE: FindSCR:tempscr <- 0
	.loc	2 2851 39               @ ../Driver/sdio_sd.c:2851:39
	adds	r2, r0, #4
	stm	r2!, {r1, r5, r6, r7}
	.loc	2 2846 12               @ ../Driver/sdio_sd.c:2846:12
	strd	r6, r6, [sp]
	.loc	2 2855 3                @ ../Driver/sdio_sd.c:2855:3
	bl	SDIO_SendCommand
	.loc	2 2857 17               @ ../Driver/sdio_sd.c:2857:17
	movs	r0, #16
	bl	CmdResp1Error
	mov	r6, r0
.Ltmp325:
	@DEBUG_VALUE: FindSCR:errorstatus <- $r6
	.loc	2 2859 7                @ ../Driver/sdio_sd.c:2859:7
	cmp	r0, #0
	bne	.LBB20_11
.Ltmp326:
@ %bb.2:
	@DEBUG_VALUE: FindSCR:errorstatus <- $r6
	@DEBUG_VALUE: SDEnWideBus:NewState <- $r9
	.loc	2 2865 52               @ ../Driver/sdio_sd.c:2865:52
	ldr	r0, [r4, #20]
	mov.w	r8, #0
	.loc	2 2865 56 is_stmt 0     @ ../Driver/sdio_sd.c:2865:56
	lsls	r1, r0, #16
	.loc	2 2865 39               @ ../Driver/sdio_sd.c:2865:39
	mov	r0, r4
	str	r1, [r0, #56]!
	movs	r1, #55
	.loc	2 2866 39 is_stmt 1     @ ../Driver/sdio_sd.c:2866:39
	adds	r2, r0, #4
	stm.w	r2, {r1, r5, r8}
	.loc	2 2869 35               @ ../Driver/sdio_sd.c:2869:35
	str	r7, [r0, #16]
	.loc	2 2870 3                @ ../Driver/sdio_sd.c:2870:3
	bl	SDIO_SendCommand
	.loc	2 2872 17               @ ../Driver/sdio_sd.c:2872:17
	movs	r0, #55
	bl	CmdResp1Error
	mov	r6, r0
.Ltmp327:
	@DEBUG_VALUE: FindSCR:errorstatus <- $r6
	.loc	2 2874 7                @ ../Driver/sdio_sd.c:2874:7
	cbnz	r0, .LBB20_11
.Ltmp328:
@ %bb.3:
	@DEBUG_VALUE: FindSCR:errorstatus <- $r6
	@DEBUG_VALUE: SDEnWideBus:NewState <- $r9
	.loc	2 0 7 is_stmt 0         @ ../Driver/sdio_sd.c:0:7
	movs	r0, #1
	movs	r1, #2
	movs	r2, #48
	movs	r3, #8
	.loc	2 2879 42 is_stmt 1     @ ../Driver/sdio_sd.c:2879:42
	strd	r3, r2, [r4, #104]
	.loc	2 2881 43               @ ../Driver/sdio_sd.c:2881:43
	strd	r1, r8, [r4, #112]
	.loc	2 2883 36               @ ../Driver/sdio_sd.c:2883:36
	str	r0, [r4, #120]
	mov.w	r1, #-1
	.loc	2 2878 43               @ ../Driver/sdio_sd.c:2878:43
	mov	r0, r4
	str	r1, [r0, #100]!
	.loc	2 2884 3                @ ../Driver/sdio_sd.c:2884:3
	bl	SDIO_DataConfig
	.loc	2 2888 39               @ ../Driver/sdio_sd.c:2888:39
	mov	r0, r4
	mov.w	r1, #1024
	movs	r2, #64
	movs	r3, #51
	str	r8, [r0, #56]!
	.loc	2 2889 39               @ ../Driver/sdio_sd.c:2889:39
	strd	r3, r2, [r0, #4]
	.loc	2 2891 35               @ ../Driver/sdio_sd.c:2891:35
	strd	r8, r1, [r0, #12]
	.loc	2 2893 3                @ ../Driver/sdio_sd.c:2893:3
	bl	SDIO_SendCommand
	.loc	2 2895 17               @ ../Driver/sdio_sd.c:2895:17
	movs	r0, #51
	bl	CmdResp1Error
	mov	r6, r0
.Ltmp329:
	@DEBUG_VALUE: FindSCR:errorstatus <- $r6
	.loc	2 2897 7                @ ../Driver/sdio_sd.c:2897:7
	cbnz	r0, .LBB20_11
.Ltmp330:
@ %bb.4:
	@DEBUG_VALUE: FindSCR:errorstatus <- $r6
	@DEBUG_VALUE: SDEnWideBus:NewState <- $r9
	.loc	2 0 7 is_stmt 0         @ ../Driver/sdio_sd.c:0:7
	ldr	r7, __arm_cp.20_1
	movs	r6, #0
.Ltmp331:
	movw	r5, #1578
	mov	r8, sp
.Ltmp332:
	@DEBUG_VALUE: FindSCR:index <- $r6
	b	.LBB20_7
.Ltmp333:
.LBB20_5:                               @   in Loop: Header=BB20_7 Depth=1
	@DEBUG_VALUE: FindSCR:index <- $r6
	@DEBUG_VALUE: SDEnWideBus:NewState <- $r9
	.loc	2 2904 9 is_stmt 1      @ ../Driver/sdio_sd.c:2904:9
	mov.w	r0, #2097152
	bl	SDIO_GetFlagStatus
.Ltmp334:
	.loc	2 2904 9 is_stmt 0      @ ../Driver/sdio_sd.c:2904:9
	cbz	r0, .LBB20_7
.Ltmp335:
@ %bb.6:                                @   in Loop: Header=BB20_7 Depth=1
	@DEBUG_VALUE: FindSCR:index <- $r6
	@DEBUG_VALUE: SDEnWideBus:NewState <- $r9
	.loc	2 2906 28 is_stmt 1     @ ../Driver/sdio_sd.c:2906:28
	bl	SDIO_ReadData
	.loc	2 2906 26 is_stmt 0     @ ../Driver/sdio_sd.c:2906:26
	str.w	r0, [r8, r6, lsl #2]
	.loc	2 2907 12 is_stmt 1     @ ../Driver/sdio_sd.c:2907:12
	adds	r6, #1
.Ltmp336:
	@DEBUG_VALUE: FindSCR:index <- $r6
	@DEBUG_VALUE: FindSCR:index <- $r6
.LBB20_7:                               @ =>This Inner Loop Header: Depth=1
	@DEBUG_VALUE: FindSCR:index <- $r6
	@DEBUG_VALUE: SDEnWideBus:NewState <- $r9
	.loc	2 2902 18               @ ../Driver/sdio_sd.c:2902:18
	ldr	r0, [r7]
	.loc	2 2902 3 is_stmt 0      @ ../Driver/sdio_sd.c:2902:3
	tst	r0, r5
	beq	.LBB20_5
.Ltmp337:
@ %bb.8:
	@DEBUG_VALUE: FindSCR:index <- $r6
	@DEBUG_VALUE: SDEnWideBus:NewState <- $r9
	.loc	2 2911 7 is_stmt 1      @ ../Driver/sdio_sd.c:2911:7
	movs	r0, #8
	bl	SDIO_GetFlagStatus
.Ltmp338:
	.loc	2 2911 7 is_stmt 0      @ ../Driver/sdio_sd.c:2911:7
	cbz	r0, .LBB20_12
.Ltmp339:
@ %bb.9:
	@DEBUG_VALUE: FindSCR:index <- $r6
	@DEBUG_VALUE: SDEnWideBus:NewState <- $r9
	.loc	2 2913 5 is_stmt 1      @ ../Driver/sdio_sd.c:2913:5
	movs	r0, #8
	bl	SDIO_ClearFlag
	movs	r6, #4
.Ltmp340:
	@DEBUG_VALUE: FindSCR:errorstatus <- 4
	.loc	2 0 5 is_stmt 0         @ ../Driver/sdio_sd.c:0:5
	b	.LBB20_11
.Ltmp341:
.LBB20_10:
	@DEBUG_VALUE: SDEnWideBus:NewState <- $r9
	movs	r6, #14
.Ltmp342:
.LBB20_11:
	@DEBUG_VALUE: SDEnWideBus:NewState <- $r9
	.loc	2 2676 1 is_stmt 1      @ ../Driver/sdio_sd.c:2676:1
	mov	r0, r6
	add	sp, #12
	pop.w	{r4, r5, r6, r7, r8, r9, pc}
.Ltmp343:
.LBB20_12:
	@DEBUG_VALUE: FindSCR:index <- $r6
	@DEBUG_VALUE: SDEnWideBus:NewState <- $r9
	.loc	2 2917 12               @ ../Driver/sdio_sd.c:2917:12
	movs	r0, #2
	bl	SDIO_GetFlagStatus
.Ltmp344:
	.loc	2 2917 12 is_stmt 0     @ ../Driver/sdio_sd.c:2917:12
	cbz	r0, .LBB20_14
.Ltmp345:
@ %bb.13:
	@DEBUG_VALUE: FindSCR:index <- $r6
	@DEBUG_VALUE: SDEnWideBus:NewState <- $r9
	.loc	2 2919 5 is_stmt 1      @ ../Driver/sdio_sd.c:2919:5
	movs	r0, #2
	movs	r6, #2
.Ltmp346:
	bl	SDIO_ClearFlag
.Ltmp347:
	@DEBUG_VALUE: FindSCR:errorstatus <- 2
	.loc	2 0 5 is_stmt 0         @ ../Driver/sdio_sd.c:0:5
	b	.LBB20_11
.Ltmp348:
.LBB20_14:
	@DEBUG_VALUE: FindSCR:index <- $r6
	@DEBUG_VALUE: SDEnWideBus:NewState <- $r9
	.loc	2 2923 12 is_stmt 1     @ ../Driver/sdio_sd.c:2923:12
	movs	r0, #32
	bl	SDIO_GetFlagStatus
.Ltmp349:
	.loc	2 2923 12 is_stmt 0     @ ../Driver/sdio_sd.c:2923:12
	cbz	r0, .LBB20_16
.Ltmp350:
@ %bb.15:
	@DEBUG_VALUE: FindSCR:index <- $r6
	@DEBUG_VALUE: SDEnWideBus:NewState <- $r9
	.loc	2 2925 5 is_stmt 1      @ ../Driver/sdio_sd.c:2925:5
	movs	r0, #32
	bl	SDIO_ClearFlag
	movs	r6, #6
.Ltmp351:
	@DEBUG_VALUE: FindSCR:errorstatus <- 6
	.loc	2 0 5 is_stmt 0         @ ../Driver/sdio_sd.c:0:5
	b	.LBB20_11
.Ltmp352:
.LBB20_16:
	@DEBUG_VALUE: FindSCR:index <- $r6
	@DEBUG_VALUE: SDEnWideBus:NewState <- $r9
	.loc	2 2929 12 is_stmt 1     @ ../Driver/sdio_sd.c:2929:12
	mov.w	r0, #512
	bl	SDIO_GetFlagStatus
.Ltmp353:
	.loc	2 2929 12 is_stmt 0     @ ../Driver/sdio_sd.c:2929:12
	cbz	r0, .LBB20_18
.Ltmp354:
@ %bb.17:
	@DEBUG_VALUE: FindSCR:index <- $r6
	@DEBUG_VALUE: SDEnWideBus:NewState <- $r9
	.loc	2 2931 5 is_stmt 1      @ ../Driver/sdio_sd.c:2931:5
	mov.w	r0, #512
	bl	SDIO_ClearFlag
	movs	r6, #7
.Ltmp355:
	@DEBUG_VALUE: FindSCR:errorstatus <- 7
	.loc	2 0 5 is_stmt 0         @ ../Driver/sdio_sd.c:0:5
	b	.LBB20_11
.Ltmp356:
.LBB20_18:
	@DEBUG_VALUE: FindSCR:index <- $r6
	@DEBUG_VALUE: SDEnWideBus:NewState <- $r9
	.loc	2 2937 3 is_stmt 1      @ ../Driver/sdio_sd.c:2937:3
	movw	r0, #1535
	bl	SDIO_ClearFlag
	.loc	2 2939 19               @ ../Driver/sdio_sd.c:2939:19
	ldr	r0, [sp]
.Ltmp357:
	.loc	2 2590 7                @ ../Driver/sdio_sd.c:2590:7
	cmp.w	r9, #1
.Ltmp358:
	.loc	2 2939 127              @ ../Driver/sdio_sd.c:2939:127
	rev	r0, r0
.Ltmp359:
	@DEBUG_VALUE: SDEnWideBus:errorstatus <- 0
	.loc	2 2590 7                @ ../Driver/sdio_sd.c:2590:7
	bne	.LBB20_22
.Ltmp360:
@ %bb.19:
	@DEBUG_VALUE: SDEnWideBus:NewState <- $r9
	.loc	2 2593 9                @ ../Driver/sdio_sd.c:2593:9
	lsls	r0, r0, #13
	bpl	.LBB20_23
.Ltmp361:
@ %bb.20:
	@DEBUG_VALUE: SDEnWideBus:NewState <- $r9
	.loc	2 2596 56               @ ../Driver/sdio_sd.c:2596:56
	ldr	r0, [r4, #20]
	mov.w	r8, #1024
	movs	r7, #0
	movs	r5, #64
	.loc	2 2596 60 is_stmt 0     @ ../Driver/sdio_sd.c:2596:60
	lsls	r1, r0, #16
	.loc	2 2596 43               @ ../Driver/sdio_sd.c:2596:43
	mov	r0, r4
	str	r1, [r0, #56]!
	movs	r1, #55
	.loc	2 2597 43 is_stmt 1     @ ../Driver/sdio_sd.c:2597:43
	adds	r2, r0, #4
	stm.w	r2, {r1, r5, r7, r8}
	.loc	2 2601 7                @ ../Driver/sdio_sd.c:2601:7
	bl	SDIO_SendCommand
	.loc	2 2603 21               @ ../Driver/sdio_sd.c:2603:21
	movs	r0, #55
	bl	CmdResp1Error
	mov	r6, r0
.Ltmp362:
	@DEBUG_VALUE: SDEnWideBus:errorstatus <- $r6
	.loc	2 2605 11               @ ../Driver/sdio_sd.c:2605:11
	cmp	r0, #0
	bne	.LBB20_11
.Ltmp363:
@ %bb.21:
	@DEBUG_VALUE: SDEnWideBus:errorstatus <- $r6
	@DEBUG_VALUE: SDEnWideBus:NewState <- $r9
	.loc	2 0 11 is_stmt 0        @ ../Driver/sdio_sd.c:0:11
	movs	r0, #2
	.loc	2 2611 43 is_stmt 1     @ ../Driver/sdio_sd.c:2611:43
	str	r0, [r4, #56]!
	b	.LBB20_26
.Ltmp364:
.LBB20_22:
	@DEBUG_VALUE: SDEnWideBus:NewState <- $r9
	.loc	2 2635 9                @ ../Driver/sdio_sd.c:2635:9
	lsls	r0, r0, #15
	bmi	.LBB20_24
.Ltmp365:
.LBB20_23:
	@DEBUG_VALUE: SDEnWideBus:NewState <- $r9
	.loc	2 0 9 is_stmt 0         @ ../Driver/sdio_sd.c:0:9
	movs	r6, #37
	b	.LBB20_11
.Ltmp366:
.LBB20_24:
	@DEBUG_VALUE: SDEnWideBus:NewState <- $r9
	.loc	2 2638 56 is_stmt 1     @ ../Driver/sdio_sd.c:2638:56
	ldr	r0, [r4, #20]
	mov.w	r8, #1024
	movs	r7, #0
	movs	r5, #64
	.loc	2 2638 60 is_stmt 0     @ ../Driver/sdio_sd.c:2638:60
	lsls	r1, r0, #16
	.loc	2 2638 43               @ ../Driver/sdio_sd.c:2638:43
	mov	r0, r4
	str	r1, [r0, #56]!
	movs	r1, #55
	.loc	2 2639 43 is_stmt 1     @ ../Driver/sdio_sd.c:2639:43
	adds	r2, r0, #4
	stm.w	r2, {r1, r5, r7, r8}
	.loc	2 2643 7                @ ../Driver/sdio_sd.c:2643:7
	bl	SDIO_SendCommand
	.loc	2 2646 21               @ ../Driver/sdio_sd.c:2646:21
	movs	r0, #55
	bl	CmdResp1Error
	mov	r6, r0
.Ltmp367:
	@DEBUG_VALUE: SDEnWideBus:errorstatus <- $r6
	.loc	2 2648 11               @ ../Driver/sdio_sd.c:2648:11
	cmp	r0, #0
	bne	.LBB20_11
.Ltmp368:
@ %bb.25:
	@DEBUG_VALUE: SDEnWideBus:errorstatus <- $r6
	@DEBUG_VALUE: SDEnWideBus:NewState <- $r9
	.loc	2 2654 43               @ ../Driver/sdio_sd.c:2654:43
	str	r7, [r4, #56]!
.Ltmp369:
.LBB20_26:
	@DEBUG_VALUE: SDEnWideBus:errorstatus <- $r6
	@DEBUG_VALUE: SDEnWideBus:NewState <- $r9
	.loc	2 0 43 is_stmt 0        @ ../Driver/sdio_sd.c:0:43
	movs	r0, #6
	adds	r1, r4, #4
	stm.w	r1, {r0, r5, r7, r8}
	mov	r0, r4
	bl	SDIO_SendCommand
	movs	r0, #6
	pop.w	{r1, r2, r3, r4, r5, r6, r7, r8, r9, lr}
.Ltmp370:
	b	CmdResp1Error
.Ltmp371:
	.p2align	2
@ %bb.27:
__arm_cp.20_0:
	.long	.L_MergedGlobals
.Lcpi_end30:
	.size	__arm_cp.20_0, .Lcpi_end30-__arm_cp.20_0
__arm_cp.20_1:
	.long	1073818676              @ 0x40012c34
.Lcpi_end31:
	.size	__arm_cp.20_1, .Lcpi_end31-__arm_cp.20_1
.Lfunc_end20:
	.size	SDEnWideBus, .Lfunc_end20-SDEnWideBus
	.cfi_endproc
	.cantunwind
	.fnend
                                        @ -- End function
	.section	.text.SD_ReadBlock,"ax",%progbits
	.hidden	SD_ReadBlock            @ -- Begin function SD_ReadBlock
	.globl	SD_ReadBlock
	.p2align	2
	.type	SD_ReadBlock,%function
	.code	16                      @ @SD_ReadBlock
	.thumb_func
SD_ReadBlock:
.Lfunc_begin21:
	.loc	2 1333 0 is_stmt 1      @ ../Driver/sdio_sd.c:1333:0
	.fnstart
	.cfi_startproc
@ %bb.0:
	.save	{r4, r5, r6, r7, r8, r9, r10, r11, lr}
	.pad	#4
	push.w	{r3, r4, r5, r6, r7, r8, r9, r10, r11, lr}
	.cfi_def_cfa_offset 40
	.cfi_offset lr, -4
	.cfi_offset r11, -8
	.cfi_offset r10, -12
	.cfi_offset r9, -16
	.cfi_offset r8, -20
	.cfi_offset r7, -24
	.cfi_offset r6, -28
	.cfi_offset r5, -32
	.cfi_offset r4, -36
	@DEBUG_VALUE: SD_ReadBlock:readbuff <- $r0
	mov	r9, r0
.Ltmp372:
	@DEBUG_VALUE: SD_ReadBlock:count <- 0
	@DEBUG_VALUE: SD_ReadBlock:errorstatus <- 0
	@DEBUG_VALUE: SD_ReadBlock:BlockSize <- undef
	@DEBUG_VALUE: SD_ReadBlock:readbuff <- $r9
	.loc	2 1339 17 prologue_end  @ ../Driver/sdio_sd.c:1339:17
	ldr	r5, __arm_cp.21_0
	ldr	r0, __arm_cp.21_1
	movs	r4, #0
	str	r3, [sp]                @ 4-byte Spill
	ldr.w	r8, [sp, #40]
	@DEBUG_VALUE: SD_ReadBlock:ReadAddr <- undef
	mov	r11, r2
	mov.w	r2, #1024
	mov.w	r10, #64
	movs	r1, #16
	strb	r4, [r5]
	.loc	2 1340 15               @ ../Driver/sdio_sd.c:1340:15
	str	r4, [r5, #12]
	.loc	2 1341 17               @ ../Driver/sdio_sd.c:1341:17
	str	r4, [r5, #8]
	.loc	2 1343 15               @ ../Driver/sdio_sd.c:1343:15
	str	r4, [r0]
	.loc	2 1353 39               @ ../Driver/sdio_sd.c:1353:39
	mov	r0, r5
.Ltmp373:
	.loc	2 1346 7                @ ../Driver/sdio_sd.c:1346:7
	ldrb	r6, [r5, #4]
.Ltmp374:
	.loc	2 1353 41               @ ../Driver/sdio_sd.c:1353:41
	cmp	r6, #0
	it	eq
	moveq.w	r8, #512
	.loc	2 1353 39 is_stmt 0     @ ../Driver/sdio_sd.c:1353:39
	str	r8, [r0, #56]!
	.loc	2 1354 39 is_stmt 1     @ ../Driver/sdio_sd.c:1354:39
	strd	r1, r10, [r0, #4]
	.loc	2 1356 35               @ ../Driver/sdio_sd.c:1356:35
	strd	r4, r2, [r0, #12]
	.loc	2 1358 3                @ ../Driver/sdio_sd.c:1358:3
	bl	SDIO_SendCommand
	.loc	2 1360 17               @ ../Driver/sdio_sd.c:1360:17
	movs	r0, #16
	bl	CmdResp1Error
	mov	r7, r0
.Ltmp375:
	@DEBUG_VALUE: SD_ReadBlock:ReadAddr <- [DW_OP_LLVM_fragment 0 32] $r11
	@DEBUG_VALUE: SD_ReadBlock:ReadAddr <- [DW_OP_LLVM_fragment 32 32] [$sp+0]
	@DEBUG_VALUE: SD_ReadBlock:errorstatus <- $r7
	.loc	2 1362 7                @ ../Driver/sdio_sd.c:1362:7
	cmp	r0, #0
	bne	.LBB21_21
.Ltmp376:
@ %bb.1:
	@DEBUG_VALUE: SD_ReadBlock:errorstatus <- $r7
	@DEBUG_VALUE: SD_ReadBlock:ReadAddr <- [DW_OP_LLVM_fragment 32 32] [$sp+0]
	@DEBUG_VALUE: SD_ReadBlock:readbuff <- $r9
	.loc	2 0 7 is_stmt 0         @ ../Driver/sdio_sd.c:0:7
	movs	r2, #144
	movs	r0, #1
	movs	r1, #2
	.loc	2 1368 42 is_stmt 1     @ ../Driver/sdio_sd.c:1368:42
	strd	r8, r2, [r5, #104]
	.loc	2 1370 43               @ ../Driver/sdio_sd.c:1370:43
	strd	r1, r4, [r5, #112]
	.loc	2 1372 36               @ ../Driver/sdio_sd.c:1372:36
	str	r0, [r5, #120]
	mov.w	r1, #-1
	.loc	2 1367 43               @ ../Driver/sdio_sd.c:1367:43
	mov	r0, r5
	str	r1, [r0, #100]!
	.loc	2 1373 3                @ ../Driver/sdio_sd.c:1373:3
	bl	SDIO_DataConfig
	.loc	2 1346 7                @ ../Driver/sdio_sd.c:1346:7
	lsr.w	r0, r11, #9
	cmp	r6, #0
	ldr	r1, [sp]                @ 4-byte Reload
	it	eq
	orreq.w	r11, r0, r1, lsl #23
	.loc	2 1376 39               @ ../Driver/sdio_sd.c:1376:39
	str	r11, [r5, #56]!
	movs	r0, #17
	.loc	2 1377 39               @ ../Driver/sdio_sd.c:1377:39
	strd	r0, r10, [r5, #4]
	.loc	2 1380 35               @ ../Driver/sdio_sd.c:1380:35
	mov.w	r0, #1024
	.loc	2 1379 35               @ ../Driver/sdio_sd.c:1379:35
	str	r4, [r5, #12]
	.loc	2 1380 35               @ ../Driver/sdio_sd.c:1380:35
	str	r0, [r5, #16]
	.loc	2 1381 3                @ ../Driver/sdio_sd.c:1381:3
	mov	r0, r5
	bl	SDIO_SendCommand
	.loc	2 1383 17               @ ../Driver/sdio_sd.c:1383:17
	movs	r0, #17
	bl	CmdResp1Error
	mov	r7, r0
.Ltmp377:
	@DEBUG_VALUE: SD_ReadBlock:errorstatus <- $r7
	.loc	2 1385 7                @ ../Driver/sdio_sd.c:1385:7
	cmp	r0, #0
	bne	.LBB21_21
.Ltmp378:
@ %bb.2:
	@DEBUG_VALUE: SD_ReadBlock:errorstatus <- $r7
	@DEBUG_VALUE: SD_ReadBlock:ReadAddr <- [DW_OP_LLVM_fragment 32 32] [$sp+0]
	@DEBUG_VALUE: SD_ReadBlock:readbuff <- $r9
	@DEBUG_VALUE: SD_ReadBlock:tempbuff <- $r9
	.loc	2 0 7 is_stmt 0         @ ../Driver/sdio_sd.c:0:7
	ldr	r6, __arm_cp.21_1
	@DEBUG_VALUE: SD_ReadBlock:tempbuff <- $r9
	movw	r4, #1578
	b	.LBB21_8
.Ltmp379:
.LBB21_3:                               @   in Loop: Header=BB21_8 Depth=1
	@DEBUG_VALUE: SD_ReadBlock:tempbuff <- $r9
	@DEBUG_VALUE: SD_ReadBlock:errorstatus <- $r7
	@DEBUG_VALUE: SD_ReadBlock:ReadAddr <- [DW_OP_LLVM_fragment 32 32] [$sp+0]
	@DEBUG_VALUE: SD_ReadBlock:readbuff <- $r9
	.loc	2 1395 9 is_stmt 1      @ ../Driver/sdio_sd.c:1395:9
	mov.w	r0, #32768
	bl	SDIO_GetFlagStatus
.Ltmp380:
	.loc	2 1395 9 is_stmt 0      @ ../Driver/sdio_sd.c:1395:9
	cbz	r0, .LBB21_8
.Ltmp381:
@ %bb.4:                                @   in Loop: Header=BB21_8 Depth=1
	@DEBUG_VALUE: SD_ReadBlock:tempbuff <- $r9
	@DEBUG_VALUE: SD_ReadBlock:errorstatus <- $r7
	@DEBUG_VALUE: SD_ReadBlock:ReadAddr <- [DW_OP_LLVM_fragment 32 32] [$sp+0]
	@DEBUG_VALUE: SD_ReadBlock:readbuff <- $r9
	.loc	2 0 9                   @ ../Driver/sdio_sd.c:0:9
	movs	r5, #0
	b	.LBB21_6
.Ltmp382:
.LBB21_5:                               @   in Loop: Header=BB21_6 Depth=2
	@DEBUG_VALUE: SD_ReadBlock:count <- $r5
	@DEBUG_VALUE: SD_ReadBlock:tempbuff <- $r9
	@DEBUG_VALUE: SD_ReadBlock:errorstatus <- $r7
	@DEBUG_VALUE: SD_ReadBlock:ReadAddr <- [DW_OP_LLVM_fragment 32 32] [$sp+0]
	@DEBUG_VALUE: SD_ReadBlock:readbuff <- $r9
	.loc	2 1399 31 is_stmt 1     @ ../Driver/sdio_sd.c:1399:31
	bl	SDIO_ReadData
	.loc	2 1399 29 is_stmt 0     @ ../Driver/sdio_sd.c:1399:29
	str.w	r0, [r9, r5, lsl #2]
.Ltmp383:
	.loc	2 1397 39 is_stmt 1     @ ../Driver/sdio_sd.c:1397:39
	adds	r5, #1
.Ltmp384:
	@DEBUG_VALUE: SD_ReadBlock:count <- $r5
.LBB21_6:                               @   Parent Loop BB21_8 Depth=1
                                        @ =>  This Inner Loop Header: Depth=2
	@DEBUG_VALUE: SD_ReadBlock:tempbuff <- $r9
	@DEBUG_VALUE: SD_ReadBlock:errorstatus <- $r7
	@DEBUG_VALUE: SD_ReadBlock:ReadAddr <- [DW_OP_LLVM_fragment 32 32] [$sp+0]
	@DEBUG_VALUE: SD_ReadBlock:readbuff <- $r9
	@DEBUG_VALUE: SD_ReadBlock:count <- $r5
	.loc	2 1397 7 is_stmt 0      @ ../Driver/sdio_sd.c:1397:7
	cmp	r5, #8
	bne	.LBB21_5
.Ltmp385:
@ %bb.7:                                @   in Loop: Header=BB21_8 Depth=1
	@DEBUG_VALUE: SD_ReadBlock:count <- $r5
	@DEBUG_VALUE: SD_ReadBlock:tempbuff <- $r9
	@DEBUG_VALUE: SD_ReadBlock:errorstatus <- $r7
	@DEBUG_VALUE: SD_ReadBlock:ReadAddr <- [DW_OP_LLVM_fragment 32 32] [$sp+0]
	@DEBUG_VALUE: SD_ReadBlock:readbuff <- $r9
	.loc	2 1401 16 is_stmt 1     @ ../Driver/sdio_sd.c:1401:16
	add.w	r9, r9, #32
.Ltmp386:
	@DEBUG_VALUE: SD_ReadBlock:tempbuff <- $r9
	@DEBUG_VALUE: SD_ReadBlock:tempbuff <- $r9
.LBB21_8:                               @ =>This Loop Header: Depth=1
                                        @     Child Loop BB21_6 Depth 2
	@DEBUG_VALUE: SD_ReadBlock:tempbuff <- $r9
	@DEBUG_VALUE: SD_ReadBlock:errorstatus <- $r7
	@DEBUG_VALUE: SD_ReadBlock:ReadAddr <- [DW_OP_LLVM_fragment 32 32] [$sp+0]
	@DEBUG_VALUE: SD_ReadBlock:readbuff <- $r9
	.loc	2 1393 18               @ ../Driver/sdio_sd.c:1393:18
	ldr	r0, [r6, #8]
	.loc	2 1393 3 is_stmt 0      @ ../Driver/sdio_sd.c:1393:3
	tst	r0, r4
	beq	.LBB21_3
.Ltmp387:
@ %bb.9:
	@DEBUG_VALUE: SD_ReadBlock:tempbuff <- $r9
	@DEBUG_VALUE: SD_ReadBlock:errorstatus <- $r7
	@DEBUG_VALUE: SD_ReadBlock:ReadAddr <- [DW_OP_LLVM_fragment 32 32] [$sp+0]
	@DEBUG_VALUE: SD_ReadBlock:readbuff <- $r9
	.loc	2 1405 7 is_stmt 1      @ ../Driver/sdio_sd.c:1405:7
	movs	r0, #8
	bl	SDIO_GetFlagStatus
.Ltmp388:
	.loc	2 1405 7 is_stmt 0      @ ../Driver/sdio_sd.c:1405:7
	cbz	r0, .LBB21_11
.Ltmp389:
@ %bb.10:
	@DEBUG_VALUE: SD_ReadBlock:tempbuff <- $r9
	@DEBUG_VALUE: SD_ReadBlock:errorstatus <- $r7
	@DEBUG_VALUE: SD_ReadBlock:ReadAddr <- [DW_OP_LLVM_fragment 32 32] [$sp+0]
	@DEBUG_VALUE: SD_ReadBlock:readbuff <- $r9
	.loc	2 1407 5 is_stmt 1      @ ../Driver/sdio_sd.c:1407:5
	movs	r0, #8
	bl	SDIO_ClearFlag
	movs	r7, #4
.Ltmp390:
	@DEBUG_VALUE: SD_ReadBlock:errorstatus <- 4
	.loc	2 0 5 is_stmt 0         @ ../Driver/sdio_sd.c:0:5
	b	.LBB21_21
.Ltmp391:
.LBB21_11:
	@DEBUG_VALUE: SD_ReadBlock:tempbuff <- $r9
	@DEBUG_VALUE: SD_ReadBlock:errorstatus <- $r7
	@DEBUG_VALUE: SD_ReadBlock:ReadAddr <- [DW_OP_LLVM_fragment 32 32] [$sp+0]
	@DEBUG_VALUE: SD_ReadBlock:readbuff <- $r9
	.loc	2 1411 12 is_stmt 1     @ ../Driver/sdio_sd.c:1411:12
	movs	r0, #2
	bl	SDIO_GetFlagStatus
.Ltmp392:
	.loc	2 1411 12 is_stmt 0     @ ../Driver/sdio_sd.c:1411:12
	cbz	r0, .LBB21_13
.Ltmp393:
@ %bb.12:
	@DEBUG_VALUE: SD_ReadBlock:tempbuff <- $r9
	@DEBUG_VALUE: SD_ReadBlock:errorstatus <- $r7
	@DEBUG_VALUE: SD_ReadBlock:ReadAddr <- [DW_OP_LLVM_fragment 32 32] [$sp+0]
	@DEBUG_VALUE: SD_ReadBlock:readbuff <- $r9
	.loc	2 1413 5 is_stmt 1      @ ../Driver/sdio_sd.c:1413:5
	movs	r0, #2
	movs	r7, #2
.Ltmp394:
	bl	SDIO_ClearFlag
.Ltmp395:
	@DEBUG_VALUE: SD_ReadBlock:errorstatus <- 2
	.loc	2 0 5 is_stmt 0         @ ../Driver/sdio_sd.c:0:5
	b	.LBB21_21
.Ltmp396:
.LBB21_13:
	@DEBUG_VALUE: SD_ReadBlock:tempbuff <- $r9
	@DEBUG_VALUE: SD_ReadBlock:errorstatus <- $r7
	@DEBUG_VALUE: SD_ReadBlock:ReadAddr <- [DW_OP_LLVM_fragment 32 32] [$sp+0]
	@DEBUG_VALUE: SD_ReadBlock:readbuff <- $r9
	.loc	2 1417 12 is_stmt 1     @ ../Driver/sdio_sd.c:1417:12
	movs	r0, #32
	bl	SDIO_GetFlagStatus
.Ltmp397:
	.loc	2 1417 12 is_stmt 0     @ ../Driver/sdio_sd.c:1417:12
	cbz	r0, .LBB21_15
.Ltmp398:
@ %bb.14:
	@DEBUG_VALUE: SD_ReadBlock:tempbuff <- $r9
	@DEBUG_VALUE: SD_ReadBlock:errorstatus <- $r7
	@DEBUG_VALUE: SD_ReadBlock:ReadAddr <- [DW_OP_LLVM_fragment 32 32] [$sp+0]
	@DEBUG_VALUE: SD_ReadBlock:readbuff <- $r9
	.loc	2 1419 5 is_stmt 1      @ ../Driver/sdio_sd.c:1419:5
	movs	r0, #32
	bl	SDIO_ClearFlag
	movs	r7, #6
.Ltmp399:
	@DEBUG_VALUE: SD_ReadBlock:errorstatus <- 6
	.loc	2 0 5 is_stmt 0         @ ../Driver/sdio_sd.c:0:5
	b	.LBB21_21
.Ltmp400:
.LBB21_15:
	@DEBUG_VALUE: SD_ReadBlock:tempbuff <- $r9
	@DEBUG_VALUE: SD_ReadBlock:errorstatus <- $r7
	@DEBUG_VALUE: SD_ReadBlock:ReadAddr <- [DW_OP_LLVM_fragment 32 32] [$sp+0]
	@DEBUG_VALUE: SD_ReadBlock:readbuff <- $r9
	.loc	2 1423 12 is_stmt 1     @ ../Driver/sdio_sd.c:1423:12
	mov.w	r0, #512
	bl	SDIO_GetFlagStatus
.Ltmp401:
	.loc	2 1423 12 is_stmt 0     @ ../Driver/sdio_sd.c:1423:12
	cbz	r0, .LBB21_17
.Ltmp402:
@ %bb.16:
	@DEBUG_VALUE: SD_ReadBlock:tempbuff <- $r9
	@DEBUG_VALUE: SD_ReadBlock:errorstatus <- $r7
	@DEBUG_VALUE: SD_ReadBlock:ReadAddr <- [DW_OP_LLVM_fragment 32 32] [$sp+0]
	@DEBUG_VALUE: SD_ReadBlock:readbuff <- $r9
	.loc	2 1425 5 is_stmt 1      @ ../Driver/sdio_sd.c:1425:5
	mov.w	r0, #512
	bl	SDIO_ClearFlag
	movs	r7, #7
.Ltmp403:
	@DEBUG_VALUE: SD_ReadBlock:errorstatus <- 7
	.loc	2 0 5 is_stmt 0         @ ../Driver/sdio_sd.c:0:5
	b	.LBB21_21
.Ltmp404:
.LBB21_17:
	@DEBUG_VALUE: SD_ReadBlock:tempbuff <- $r9
	@DEBUG_VALUE: SD_ReadBlock:errorstatus <- $r7
	@DEBUG_VALUE: SD_ReadBlock:ReadAddr <- [DW_OP_LLVM_fragment 32 32] [$sp+0]
	@DEBUG_VALUE: SD_ReadBlock:readbuff <- $r9
	movs	r4, #0
	b	.LBB21_19
.Ltmp405:
.LBB21_18:                              @   in Loop: Header=BB21_19 Depth=1
	@DEBUG_VALUE: SD_ReadBlock:errorstatus <- $r7
	@DEBUG_VALUE: SD_ReadBlock:ReadAddr <- [DW_OP_LLVM_fragment 32 32] [$sp+0]
	@DEBUG_VALUE: SD_ReadBlock:readbuff <- $r9
	.loc	2 1432 17 is_stmt 1     @ ../Driver/sdio_sd.c:1432:17
	bl	SDIO_ReadData
	.loc	2 1432 15 is_stmt 0     @ ../Driver/sdio_sd.c:1432:15
	str.w	r0, [r9, r4, lsl #2]
.Ltmp406:
	@DEBUG_VALUE: SD_ReadBlock:count <- [DW_OP_constu 1, DW_OP_minus, DW_OP_stack_value] undef
	@DEBUG_VALUE: SD_ReadBlock:tempbuff <- [DW_OP_plus_uconst 4, DW_OP_stack_value] undef
	.loc	2 0 0                   @ ../Driver/sdio_sd.c:0:0
	mov	r4, r5
.Ltmp407:
.LBB21_19:                              @ =>This Inner Loop Header: Depth=1
	@DEBUG_VALUE: SD_ReadBlock:tempbuff <- $r9
	@DEBUG_VALUE: SD_ReadBlock:errorstatus <- $r7
	@DEBUG_VALUE: SD_ReadBlock:ReadAddr <- [DW_OP_LLVM_fragment 32 32] [$sp+0]
	@DEBUG_VALUE: SD_ReadBlock:readbuff <- $r9
	@DEBUG_VALUE: SD_ReadBlock:count <- undef
	@DEBUG_VALUE: SD_ReadBlock:tempbuff <- undef
	.loc	2 1430 11 is_stmt 1     @ ../Driver/sdio_sd.c:1430:11
	mov.w	r0, #2097152
	bl	SDIO_GetFlagStatus
	.loc	2 1430 3 is_stmt 0      @ ../Driver/sdio_sd.c:1430:3
	adds	r5, r4, #1
	it	ne
	cmpne	r0, #0
	bne	.LBB21_18
.Ltmp408:
@ %bb.20:
	@DEBUG_VALUE: SD_ReadBlock:errorstatus <- $r7
	@DEBUG_VALUE: SD_ReadBlock:ReadAddr <- [DW_OP_LLVM_fragment 32 32] [$sp+0]
	@DEBUG_VALUE: SD_ReadBlock:readbuff <- $r9
	.loc	2 1438 3 is_stmt 1      @ ../Driver/sdio_sd.c:1438:3
	movw	r0, #1535
	bl	SDIO_ClearFlag
	movs	r7, #0
.Ltmp409:
.LBB21_21:
	@DEBUG_VALUE: SD_ReadBlock:ReadAddr <- [DW_OP_LLVM_fragment 32 32] [$sp+0]
	@DEBUG_VALUE: SD_ReadBlock:readbuff <- $r9
	.loc	2 1447 1                @ ../Driver/sdio_sd.c:1447:1
	mov	r0, r7
	add	sp, #4
.Ltmp410:
	pop.w	{r4, r5, r6, r7, r8, r9, r10, r11, pc}
.Ltmp411:
	.p2align	2
@ %bb.22:
	.loc	2 0 1 is_stmt 0         @ ../Driver/sdio_sd.c:0:1
__arm_cp.21_0:
	.long	.L_MergedGlobals
.Lcpi_end32:
	.size	__arm_cp.21_0, .Lcpi_end32-__arm_cp.21_0
__arm_cp.21_1:
	.long	1073818668              @ 0x40012c2c
.Lcpi_end33:
	.size	__arm_cp.21_1, .Lcpi_end33-__arm_cp.21_1
.Lfunc_end21:
	.size	SD_ReadBlock, .Lfunc_end21-SD_ReadBlock
	.cfi_endproc
	.cantunwind
	.fnend
                                        @ -- End function
	.section	.text.SD_ReadMultiBlocks,"ax",%progbits
	.hidden	SD_ReadMultiBlocks      @ -- Begin function SD_ReadMultiBlocks
	.globl	SD_ReadMultiBlocks
	.p2align	2
	.type	SD_ReadMultiBlocks,%function
	.code	16                      @ @SD_ReadMultiBlocks
	.thumb_func
SD_ReadMultiBlocks:
.Lfunc_begin22:
	.loc	2 1465 0 is_stmt 1      @ ../Driver/sdio_sd.c:1465:0
	.fnstart
	.cfi_startproc
@ %bb.0:
	.save	{r4, r5, r6, r7, r8, r9, r10, r11, lr}
	.pad	#4
	push.w	{r3, r4, r5, r6, r7, r8, r9, r10, r11, lr}
	.cfi_def_cfa_offset 40
	.cfi_offset lr, -4
	.cfi_offset r11, -8
	.cfi_offset r10, -12
	.cfi_offset r9, -16
	.cfi_offset r8, -20
	.cfi_offset r7, -24
	.cfi_offset r6, -28
	.cfi_offset r5, -32
	.cfi_offset r4, -36
	@DEBUG_VALUE: SD_ReadMultiBlocks:readbuff <- $r0
	str	r0, [sp]                @ 4-byte Spill
.Ltmp412:
	@DEBUG_VALUE: SD_ReadMultiBlocks:errorstatus <- 0
	@DEBUG_VALUE: SD_ReadMultiBlocks:BlockSize <- undef
	@DEBUG_VALUE: SD_ReadMultiBlocks:NumberOfBlocks <- [DW_OP_plus_uconst 44] [$sp+0]
	@DEBUG_VALUE: SD_ReadMultiBlocks:readbuff <- [$sp+0]
	.loc	2 1467 17 prologue_end  @ ../Driver/sdio_sd.c:1467:17
	ldr	r5, __arm_cp.22_0
	ldr	r0, __arm_cp.22_1
	movs	r4, #0
	mov.w	r8, #1
	ldr.w	r9, [sp, #40]
	@DEBUG_VALUE: SD_ReadMultiBlocks:ReadAddr <- undef
	mov	r6, r2
	mov.w	r2, #1024
	mov.w	r11, #64
	movs	r1, #16
	mov	r10, r3
	strb	r4, [r5]
	.loc	2 1468 15               @ ../Driver/sdio_sd.c:1468:15
	str	r4, [r5, #12]
	.loc	2 1469 17               @ ../Driver/sdio_sd.c:1469:17
	str.w	r8, [r5, #8]
	.loc	2 1471 15               @ ../Driver/sdio_sd.c:1471:15
	str	r4, [r0]
	.loc	2 1480 39               @ ../Driver/sdio_sd.c:1480:39
	mov	r0, r5
.Ltmp413:
	.loc	2 1473 7                @ ../Driver/sdio_sd.c:1473:7
	ldrb	r7, [r5, #4]
.Ltmp414:
	.loc	2 1480 41               @ ../Driver/sdio_sd.c:1480:41
	cmp	r7, #0
	it	eq
	moveq.w	r9, #512
	.loc	2 1480 39 is_stmt 0     @ ../Driver/sdio_sd.c:1480:39
	str	r9, [r0, #56]!
	.loc	2 1481 39 is_stmt 1     @ ../Driver/sdio_sd.c:1481:39
	strd	r1, r11, [r0, #4]
	.loc	2 1483 35               @ ../Driver/sdio_sd.c:1483:35
	strd	r4, r2, [r0, #12]
	.loc	2 1485 3                @ ../Driver/sdio_sd.c:1485:3
	bl	SDIO_SendCommand
	.loc	2 1487 17               @ ../Driver/sdio_sd.c:1487:17
	movs	r0, #16
	bl	CmdResp1Error
.Ltmp415:
	@DEBUG_VALUE: SD_ReadMultiBlocks:ReadAddr <- [DW_OP_LLVM_fragment 0 32] $r6
	@DEBUG_VALUE: SD_ReadMultiBlocks:ReadAddr <- [DW_OP_LLVM_fragment 32 32] $r10
	@DEBUG_VALUE: SD_ReadMultiBlocks:errorstatus <- $r0
	.loc	2 1489 7                @ ../Driver/sdio_sd.c:1489:7
	cbnz	r0, .LBB22_3
.Ltmp416:
@ %bb.1:
	@DEBUG_VALUE: SD_ReadMultiBlocks:errorstatus <- $r0
	@DEBUG_VALUE: SD_ReadMultiBlocks:ReadAddr <- [DW_OP_LLVM_fragment 32 32] $r10
	@DEBUG_VALUE: SD_ReadMultiBlocks:readbuff <- [$sp+0]
	@DEBUG_VALUE: SD_ReadMultiBlocks:NumberOfBlocks <- [DW_OP_plus_uconst 44] [$sp+0]
	.loc	2 0 7 is_stmt 0         @ ../Driver/sdio_sd.c:0:7
	ldr	r0, [sp, #44]
.Ltmp417:
	movs	r2, #144
	movs	r1, #2
	.loc	2 1495 59 is_stmt 1     @ ../Driver/sdio_sd.c:1495:59
	mul	r0, r9, r0
	.loc	2 1495 42 is_stmt 0     @ ../Driver/sdio_sd.c:1495:42
	strd	r0, r2, [r5, #104]
	.loc	2 1497 43 is_stmt 1     @ ../Driver/sdio_sd.c:1497:43
	add.w	r0, r5, #112
	stm.w	r0, {r1, r4, r8}
	mov.w	r1, #-1
	.loc	2 1494 43               @ ../Driver/sdio_sd.c:1494:43
	mov	r0, r5
	str	r1, [r0, #100]!
	.loc	2 1500 3                @ ../Driver/sdio_sd.c:1500:3
	bl	SDIO_DataConfig
	.loc	2 1473 7                @ ../Driver/sdio_sd.c:1473:7
	lsrs	r0, r6, #9
	cmp	r7, #0
	it	eq
	orreq.w	r6, r0, r10, lsl #23
	.loc	2 1503 39               @ ../Driver/sdio_sd.c:1503:39
	str	r6, [r5, #56]!
	movs	r0, #18
	.loc	2 1504 39               @ ../Driver/sdio_sd.c:1504:39
	strd	r0, r11, [r5, #4]
	.loc	2 1507 35               @ ../Driver/sdio_sd.c:1507:35
	mov.w	r0, #1024
	.loc	2 1506 35               @ ../Driver/sdio_sd.c:1506:35
	str	r4, [r5, #12]
	.loc	2 1507 35               @ ../Driver/sdio_sd.c:1507:35
	str	r0, [r5, #16]
	.loc	2 1508 3                @ ../Driver/sdio_sd.c:1508:3
	mov	r0, r5
	bl	SDIO_SendCommand
	.loc	2 1510 17               @ ../Driver/sdio_sd.c:1510:17
	movs	r0, #18
	bl	CmdResp1Error
.Ltmp418:
	@DEBUG_VALUE: SD_ReadMultiBlocks:errorstatus <- $r0
	.loc	2 1512 7                @ ../Driver/sdio_sd.c:1512:7
	cbnz	r0, .LBB22_3
.Ltmp419:
@ %bb.2:
	@DEBUG_VALUE: SD_ReadMultiBlocks:errorstatus <- $r0
	@DEBUG_VALUE: SD_ReadMultiBlocks:ReadAddr <- [DW_OP_LLVM_fragment 32 32] $r10
	@DEBUG_VALUE: SD_ReadMultiBlocks:readbuff <- [$sp+0]
	@DEBUG_VALUE: SD_ReadMultiBlocks:NumberOfBlocks <- [DW_OP_plus_uconst 44] [$sp+0]
	.loc	2 1517 3                @ ../Driver/sdio_sd.c:1517:3
	movw	r0, #810
.Ltmp420:
	movs	r1, #1
	bl	SDIO_ITConfig
	.loc	2 1518 3                @ ../Driver/sdio_sd.c:1518:3
	movs	r0, #1
	bl	SDIO_DMACmd
	.loc	2 1519 3                @ ../Driver/sdio_sd.c:1519:3
	ldr	r0, [sp]                @ 4-byte Reload
	bl	SD_LowLevel_DMA_RxConfig
	movs	r0, #0
.Ltmp421:
.LBB22_3:
	@DEBUG_VALUE: SD_ReadMultiBlocks:ReadAddr <- [DW_OP_LLVM_fragment 32 32] $r10
	@DEBUG_VALUE: SD_ReadMultiBlocks:readbuff <- [$sp+0]
	@DEBUG_VALUE: SD_ReadMultiBlocks:NumberOfBlocks <- [DW_OP_plus_uconst 44] [$sp+0]
	.loc	2 1522 1                @ ../Driver/sdio_sd.c:1522:1
	add	sp, #4
.Ltmp422:
	pop.w	{r4, r5, r6, r7, r8, r9, r10, r11, pc}
.Ltmp423:
	.p2align	2
@ %bb.4:
	.loc	2 0 1 is_stmt 0         @ ../Driver/sdio_sd.c:0:1
__arm_cp.22_0:
	.long	.L_MergedGlobals
.Lcpi_end34:
	.size	__arm_cp.22_0, .Lcpi_end34-__arm_cp.22_0
__arm_cp.22_1:
	.long	1073818668              @ 0x40012c2c
.Lcpi_end35:
	.size	__arm_cp.22_1, .Lcpi_end35-__arm_cp.22_1
.Lfunc_end22:
	.size	SD_ReadMultiBlocks, .Lfunc_end22-SD_ReadMultiBlocks
	.cfi_endproc
	.cantunwind
	.fnend
                                        @ -- End function
	.section	.text.SD_WaitReadOperation,"ax",%progbits
	.hidden	SD_WaitReadOperation    @ -- Begin function SD_WaitReadOperation
	.globl	SD_WaitReadOperation
	.p2align	2
	.type	SD_WaitReadOperation,%function
	.code	16                      @ @SD_WaitReadOperation
	.thumb_func
SD_WaitReadOperation:
.Lfunc_begin23:
	.loc	2 1533 0 is_stmt 1      @ ../Driver/sdio_sd.c:1533:0
	.fnstart
	.cfi_startproc
@ %bb.0:
	.save	{r4, r5, r6, lr}
	push	{r4, r5, r6, lr}
	.cfi_def_cfa_offset 16
	.cfi_offset lr, -4
	.cfi_offset r6, -8
	.cfi_offset r5, -12
	.cfi_offset r4, -16
	ldr	r5, __arm_cp.23_0
	movs	r0, #1
.Ltmp424:
	@DEBUG_VALUE: SD_WaitReadOperation:timeout <- -1
	@DEBUG_VALUE: SD_WaitReadOperation:errorstatus <- 0
.LBB23_1:                               @ =>This Inner Loop Header: Depth=1
	@DEBUG_VALUE: SD_WaitReadOperation:timeout <- undef
	.loc	2 1539 11 prologue_end  @ ../Driver/sdio_sd.c:1539:11
	ldr	r1, [r5, #16]
	.loc	2 1539 37 is_stmt 0     @ ../Driver/sdio_sd.c:1539:37
	cbnz	r1, .LBB23_5
@ %bb.2:                                @   in Loop: Header=BB23_1 Depth=1
	.loc	2 1539 41               @ ../Driver/sdio_sd.c:1539:41
	ldr	r1, [r5, #12]
	.loc	2 1539 59               @ ../Driver/sdio_sd.c:1539:59
	cbnz	r1, .LBB23_5
@ %bb.3:                                @   in Loop: Header=BB23_1 Depth=1
.Ltmp425:
	@DEBUG_VALUE: SD_WaitReadOperation:timeout <- [DW_OP_constu 1, DW_OP_minus, DW_OP_stack_value] undef
	.loc	2 1539 63               @ ../Driver/sdio_sd.c:1539:63
	ldrb	r1, [r5]
	.loc	2 1539 87               @ ../Driver/sdio_sd.c:1539:87
	cbz	r0, .LBB23_5
@ %bb.4:                                @   in Loop: Header=BB23_1 Depth=1
	adds	r0, #1
	cmp	r1, #0
	beq	.LBB23_1
.LBB23_5:
	.loc	2 0 87                  @ ../Driver/sdio_sd.c:0:87
	ldr	r0, __arm_cp.23_1
	movs	r6, #0
	.loc	2 1544 20 is_stmt 1     @ ../Driver/sdio_sd.c:1544:20
	str	r6, [r5, #16]
.Ltmp426:
	@DEBUG_VALUE: SD_WaitReadOperation:timeout <- -1
.LBB23_6:                               @ =>This Inner Loop Header: Depth=1
	@DEBUG_VALUE: SD_WaitReadOperation:timeout <- undef
	@DEBUG_VALUE: SD_WaitReadOperation:timeout <- [DW_OP_constu 1, DW_OP_minus, DW_OP_stack_value] undef
	.loc	2 1548 3                @ ../Driver/sdio_sd.c:1548:3
	subs	r6, #1
	.loc	2 1548 17 is_stmt 0     @ ../Driver/sdio_sd.c:1548:17
	ldr	r1, [r0]
	.loc	2 0 0                   @ ../Driver/sdio_sd.c:0:0
	it	ne
	andsne	r1, r1, #8192
	bne	.LBB23_6
@ %bb.7:
.Ltmp427:
	@DEBUG_VALUE: SD_WaitReadOperation:timeout <- undef
	.loc	2 1553 7 is_stmt 1      @ ../Driver/sdio_sd.c:1553:7
	ldr	r0, [r5, #8]
.Ltmp428:
	.loc	2 1553 7 is_stmt 0      @ ../Driver/sdio_sd.c:1553:7
	cmp	r0, #1
	bne	.LBB23_9
@ %bb.8:
.Ltmp429:
	.loc	2 1555 19 is_stmt 1     @ ../Driver/sdio_sd.c:1555:19
	bl	SD_StopTransfer
	mov	r4, r0
.Ltmp430:
	@DEBUG_VALUE: SD_WaitReadOperation:errorstatus <- undef
	.loc	2 0 19 is_stmt 0        @ ../Driver/sdio_sd.c:0:19
	b	.LBB23_10
.Ltmp431:
.LBB23_9:
	movs	r4, #0
.LBB23_10:
.Ltmp432:
	@DEBUG_VALUE: SD_WaitReadOperation:errorstatus <- $r4
	.loc	2 1564 3 is_stmt 1      @ ../Driver/sdio_sd.c:1564:3
	movw	r0, #1535
	bl	SDIO_ClearFlag
.Ltmp433:
	.loc	2 1558 22               @ ../Driver/sdio_sd.c:1558:22
	mov	r0, r4
	cmp	r4, #0
	it	eq
	moveq	r0, #4
	cmp	r6, #0
	it	ne
	movne	r0, r4
.Ltmp434:
	@DEBUG_VALUE: SD_WaitReadOperation:errorstatus <- $r0
	.loc	2 1566 7                @ ../Driver/sdio_sd.c:1566:7
	ldrb	r1, [r5]
.Ltmp435:
	.loc	2 1566 7 is_stmt 0      @ ../Driver/sdio_sd.c:1566:7
	cmp	r1, #0
	.loc	2 1574 1 is_stmt 1      @ ../Driver/sdio_sd.c:1574:1
	it	eq
	popeq	{r4, r5, r6, pc}
.Ltmp436:
	.loc	2 1568 12               @ ../Driver/sdio_sd.c:1568:12
	ldrb	r0, [r5]
.Ltmp437:
	.loc	2 1574 1                @ ../Driver/sdio_sd.c:1574:1
	pop	{r4, r5, r6, pc}
.Ltmp438:
	.p2align	2
@ %bb.11:
	.loc	2 0 1 is_stmt 0         @ ../Driver/sdio_sd.c:0:1
__arm_cp.23_0:
	.long	.L_MergedGlobals
.Lcpi_end36:
	.size	__arm_cp.23_0, .Lcpi_end36-__arm_cp.23_0
__arm_cp.23_1:
	.long	1073818676              @ 0x40012c34
.Lcpi_end37:
	.size	__arm_cp.23_1, .Lcpi_end37-__arm_cp.23_1
.Lfunc_end23:
	.size	SD_WaitReadOperation, .Lfunc_end23-SD_WaitReadOperation
	.cfi_endproc
	.cantunwind
	.fnend
                                        @ -- End function
	.section	.text.SD_StopTransfer,"ax",%progbits
	.hidden	SD_StopTransfer         @ -- Begin function SD_StopTransfer
	.globl	SD_StopTransfer
	.p2align	2
	.type	SD_StopTransfer,%function
	.code	16                      @ @SD_StopTransfer
	.thumb_func
SD_StopTransfer:
.Lfunc_begin24:
	.loc	2 1893 0 is_stmt 1      @ ../Driver/sdio_sd.c:1893:0
	.fnstart
	.cfi_startproc
@ %bb.0:
	.save	{r7, lr}
	push	{r7, lr}
	.cfi_def_cfa_offset 8
	.cfi_offset lr, -4
	.cfi_offset r7, -8
.Ltmp439:
	@DEBUG_VALUE: SD_StopTransfer:errorstatus <- 0
	.loc	2 1897 39 prologue_end  @ ../Driver/sdio_sd.c:1897:39
	ldr	r0, __arm_cp.24_0
	movs	r1, #0
	mov.w	r12, #1024
	movs	r3, #64
	movs	r2, #12
	str	r1, [r0, #56]!
	.loc	2 1898 39               @ ../Driver/sdio_sd.c:1898:39
	strd	r2, r3, [r0, #4]
	.loc	2 1900 35               @ ../Driver/sdio_sd.c:1900:35
	strd	r1, r12, [r0, #12]
	.loc	2 1902 3                @ ../Driver/sdio_sd.c:1902:3
	bl	SDIO_SendCommand
	.loc	2 1904 17               @ ../Driver/sdio_sd.c:1904:17
	movs	r0, #12
	pop.w	{r7, lr}
	b	CmdResp1Error
.Ltmp440:
	.p2align	2
@ %bb.1:
	.loc	2 0 17 is_stmt 0        @ ../Driver/sdio_sd.c:0:17
__arm_cp.24_0:
	.long	.L_MergedGlobals
.Lcpi_end38:
	.size	__arm_cp.24_0, .Lcpi_end38-__arm_cp.24_0
.Lfunc_end24:
	.size	SD_StopTransfer, .Lfunc_end24-SD_StopTransfer
	.cfi_endproc
	.cantunwind
	.fnend
                                        @ -- End function
	.section	.text.SD_WriteBlock,"ax",%progbits
	.hidden	SD_WriteBlock           @ -- Begin function SD_WriteBlock
	.globl	SD_WriteBlock
	.p2align	2
	.type	SD_WriteBlock,%function
	.code	16                      @ @SD_WriteBlock
	.thumb_func
SD_WriteBlock:
.Lfunc_begin25:
	.loc	2 1591 0 is_stmt 1      @ ../Driver/sdio_sd.c:1591:0
	.fnstart
	.cfi_startproc
@ %bb.0:
	.save	{r4, r5, r6, r7, r8, r9, r10, r11, lr}
	.pad	#4
	push.w	{r3, r4, r5, r6, r7, r8, r9, r10, r11, lr}
	.cfi_def_cfa_offset 40
	.cfi_offset lr, -4
	.cfi_offset r11, -8
	.cfi_offset r10, -12
	.cfi_offset r9, -16
	.cfi_offset r8, -20
	.cfi_offset r7, -24
	.cfi_offset r6, -28
	.cfi_offset r5, -32
	.cfi_offset r4, -36
	@DEBUG_VALUE: SD_WriteBlock:writebuff <- $r0
.Ltmp441:
	@DEBUG_VALUE: SD_WriteBlock:tempbuff <- $r0
	mov	r10, r0
.Ltmp442:
	@DEBUG_VALUE: SD_WriteBlock:restwords <- 0
	@DEBUG_VALUE: SD_WriteBlock:count <- 0
	@DEBUG_VALUE: SD_WriteBlock:bytestransferred <- 0
	@DEBUG_VALUE: SD_WriteBlock:errorstatus <- 0
	@DEBUG_VALUE: SD_WriteBlock:BlockSize <- undef
	@DEBUG_VALUE: SD_WriteBlock:tempbuff <- $r10
	@DEBUG_VALUE: SD_WriteBlock:writebuff <- $r10
	.loc	2 1599 17 prologue_end  @ ../Driver/sdio_sd.c:1599:17
	ldr	r5, __arm_cp.25_0
	ldr	r0, __arm_cp.25_1
	movs	r4, #0
	str	r3, [sp]                @ 4-byte Spill
	ldr	r6, [sp, #40]
	@DEBUG_VALUE: SD_WriteBlock:WriteAddr <- undef
	mov	r9, r2
	mov.w	r2, #1024
	mov.w	r11, #64
	movs	r1, #16
	strb	r4, [r5]
	.loc	2 1600 15               @ ../Driver/sdio_sd.c:1600:15
	str	r4, [r5, #12]
	.loc	2 1601 17               @ ../Driver/sdio_sd.c:1601:17
	str	r4, [r5, #8]
	.loc	2 1603 15               @ ../Driver/sdio_sd.c:1603:15
	str	r4, [r0]
	.loc	2 1613 39               @ ../Driver/sdio_sd.c:1613:39
	mov	r0, r5
.Ltmp443:
	.loc	2 1606 7                @ ../Driver/sdio_sd.c:1606:7
	ldrb.w	r8, [r5, #4]
.Ltmp444:
	.loc	2 1613 41               @ ../Driver/sdio_sd.c:1613:41
	cmp.w	r8, #0
	it	eq
	moveq.w	r6, #512
	.loc	2 1613 39 is_stmt 0     @ ../Driver/sdio_sd.c:1613:39
	str	r6, [r0, #56]!
	.loc	2 1614 39 is_stmt 1     @ ../Driver/sdio_sd.c:1614:39
	strd	r1, r11, [r0, #4]
	.loc	2 1616 35               @ ../Driver/sdio_sd.c:1616:35
	strd	r4, r2, [r0, #12]
	.loc	2 1618 3                @ ../Driver/sdio_sd.c:1618:3
	bl	SDIO_SendCommand
	.loc	2 1620 17               @ ../Driver/sdio_sd.c:1620:17
	movs	r0, #16
	bl	CmdResp1Error
	mov	r7, r0
.Ltmp445:
	@DEBUG_VALUE: SD_WriteBlock:WriteAddr <- [DW_OP_LLVM_fragment 0 32] $r9
	@DEBUG_VALUE: SD_WriteBlock:WriteAddr <- [DW_OP_LLVM_fragment 32 32] [$sp+0]
	@DEBUG_VALUE: SD_WriteBlock:errorstatus <- $r7
	.loc	2 1622 7                @ ../Driver/sdio_sd.c:1622:7
	cmp	r0, #0
	bne	.LBB25_24
.Ltmp446:
@ %bb.1:
	@DEBUG_VALUE: SD_WriteBlock:errorstatus <- $r7
	@DEBUG_VALUE: SD_WriteBlock:WriteAddr <- [DW_OP_LLVM_fragment 32 32] [$sp+0]
	@DEBUG_VALUE: SD_WriteBlock:writebuff <- $r10
	@DEBUG_VALUE: SD_WriteBlock:tempbuff <- $r10
	.loc	2 1606 7                @ ../Driver/sdio_sd.c:1606:7
	lsr.w	r0, r9, #9
	cmp.w	r8, #0
	ldr	r1, [sp]                @ 4-byte Reload
	it	eq
	orreq.w	r9, r0, r1, lsl #23
	.loc	2 1628 39               @ ../Driver/sdio_sd.c:1628:39
	mov	r0, r5
	movs	r1, #24
	str	r9, [r0, #56]!
	.loc	2 1629 39               @ ../Driver/sdio_sd.c:1629:39
	strd	r1, r11, [r0, #4]
	.loc	2 1632 35               @ ../Driver/sdio_sd.c:1632:35
	mov.w	r1, #1024
	.loc	2 1631 35               @ ../Driver/sdio_sd.c:1631:35
	str	r4, [r0, #12]
	.loc	2 1632 35               @ ../Driver/sdio_sd.c:1632:35
	str	r1, [r0, #16]
	.loc	2 1633 3                @ ../Driver/sdio_sd.c:1633:3
	bl	SDIO_SendCommand
	.loc	2 1635 17               @ ../Driver/sdio_sd.c:1635:17
	movs	r0, #24
	bl	CmdResp1Error
	mov	r7, r0
.Ltmp447:
	@DEBUG_VALUE: SD_WriteBlock:errorstatus <- $r7
	.loc	2 1637 7                @ ../Driver/sdio_sd.c:1637:7
	cmp	r0, #0
	bne	.LBB25_24
.Ltmp448:
@ %bb.2:
	@DEBUG_VALUE: SD_WriteBlock:errorstatus <- $r7
	@DEBUG_VALUE: SD_WriteBlock:WriteAddr <- [DW_OP_LLVM_fragment 32 32] [$sp+0]
	@DEBUG_VALUE: SD_WriteBlock:writebuff <- $r10
	@DEBUG_VALUE: SD_WriteBlock:tempbuff <- $r10
	.loc	2 0 7 is_stmt 0         @ ../Driver/sdio_sd.c:0:7
	mov.w	r0, #-1
	movs	r7, #0
.Ltmp449:
	movs	r1, #144
	.loc	2 1642 43 is_stmt 1     @ ../Driver/sdio_sd.c:1642:43
	str	r0, [r5, #100]!
	movs	r0, #1
	.loc	2 1643 42               @ ../Driver/sdio_sd.c:1643:42
	strd	r6, r1, [r5, #4]
	.loc	2 1645 43               @ ../Driver/sdio_sd.c:1645:43
	strd	r7, r7, [r5, #12]
	.loc	2 1647 36               @ ../Driver/sdio_sd.c:1647:36
	str	r0, [r5, #20]
	.loc	2 1648 3                @ ../Driver/sdio_sd.c:1648:3
	mov	r0, r5
	bl	SDIO_DataConfig
	ldr	r6, __arm_cp.25_1
	@DEBUG_VALUE: SD_WriteBlock:tempbuff <- $r10
.Ltmp450:
	@DEBUG_VALUE: SD_WriteBlock:bytestransferred <- $r7
	@DEBUG_VALUE: SD_WriteBlock:bytestransferred <- [DW_OP_plus_uconst 32, DW_OP_stack_value] $r7
	.loc	2 0 3 is_stmt 0         @ ../Driver/sdio_sd.c:0:3
	movw	r5, #1562
	b	.LBB25_14
.Ltmp451:
.LBB25_3:                               @   in Loop: Header=BB25_14 Depth=1
	@DEBUG_VALUE: SD_WriteBlock:bytestransferred <- $r7
	@DEBUG_VALUE: SD_WriteBlock:WriteAddr <- [DW_OP_LLVM_fragment 32 32] [$sp+0]
	@DEBUG_VALUE: SD_WriteBlock:writebuff <- $r10
	@DEBUG_VALUE: SD_WriteBlock:tempbuff <- $r10
	.loc	2 1654 9 is_stmt 1      @ ../Driver/sdio_sd.c:1654:9
	mov.w	r0, #16384
	bl	SDIO_GetFlagStatus
.Ltmp452:
	.loc	2 1654 9 is_stmt 0      @ ../Driver/sdio_sd.c:1654:9
	cbz	r0, .LBB25_14
.Ltmp453:
@ %bb.4:                                @   in Loop: Header=BB25_14 Depth=1
	@DEBUG_VALUE: SD_WriteBlock:bytestransferred <- $r7
	@DEBUG_VALUE: SD_WriteBlock:WriteAddr <- [DW_OP_LLVM_fragment 32 32] [$sp+0]
	@DEBUG_VALUE: SD_WriteBlock:writebuff <- $r10
	@DEBUG_VALUE: SD_WriteBlock:tempbuff <- $r10
	.loc	2 1656 16 is_stmt 1     @ ../Driver/sdio_sd.c:1656:16
	rsb.w	r4, r7, #512
.Ltmp454:
	.loc	2 1656 11 is_stmt 0     @ ../Driver/sdio_sd.c:1656:11
	cmp	r4, #32
	bhs	.LBB25_9
.Ltmp455:
@ %bb.5:                                @   in Loop: Header=BB25_14 Depth=1
	@DEBUG_VALUE: SD_WriteBlock:bytestransferred <- $r7
	@DEBUG_VALUE: SD_WriteBlock:WriteAddr <- [DW_OP_LLVM_fragment 32 32] [$sp+0]
	@DEBUG_VALUE: SD_WriteBlock:writebuff <- $r10
	@DEBUG_VALUE: SD_WriteBlock:tempbuff <- $r10
	@DEBUG_VALUE: SD_WriteBlock:count <- 0
	.loc	2 1659 14 is_stmt 1     @ ../Driver/sdio_sd.c:1659:14
	lsrs	r6, r4, #2
	b	.LBB25_7
.Ltmp456:
.LBB25_6:                               @   in Loop: Header=BB25_7 Depth=2
	@DEBUG_VALUE: SD_WriteBlock:WriteAddr <- [DW_OP_LLVM_fragment 32 32] [$sp+0]
	@DEBUG_VALUE: SD_WriteBlock:writebuff <- $r10
	@DEBUG_VALUE: SD_WriteBlock:tempbuff <- $r10
	.loc	2 1661 26               @ ../Driver/sdio_sd.c:1661:26
	ldr	r0, [r10], #4
.Ltmp457:
	.loc	2 1661 11 is_stmt 0     @ ../Driver/sdio_sd.c:1661:11
	bl	SDIO_WriteData
.Ltmp458:
	@DEBUG_VALUE: SD_WriteBlock:bytestransferred <- [DW_OP_plus_uconst 4, DW_OP_stack_value] undef
	@DEBUG_VALUE: SD_WriteBlock:count <- [DW_OP_plus_uconst 1, DW_OP_stack_value] undef
	@DEBUG_VALUE: SD_WriteBlock:tempbuff <- $r10
	.loc	2 1659 9 is_stmt 1      @ ../Driver/sdio_sd.c:1659:9
	subs	r6, #1
.Ltmp459:
.LBB25_7:                               @   Parent Loop BB25_14 Depth=1
                                        @ =>  This Inner Loop Header: Depth=2
	@DEBUG_VALUE: SD_WriteBlock:bytestransferred <- $r7
	@DEBUG_VALUE: SD_WriteBlock:WriteAddr <- [DW_OP_LLVM_fragment 32 32] [$sp+0]
	@DEBUG_VALUE: SD_WriteBlock:writebuff <- $r10
	@DEBUG_VALUE: SD_WriteBlock:tempbuff <- $r10
	@DEBUG_VALUE: SD_WriteBlock:tempbuff <- $r10
	@DEBUG_VALUE: SD_WriteBlock:bytestransferred <- undef
	@DEBUG_VALUE: SD_WriteBlock:count <- undef
	.loc	2 1659 9 is_stmt 0      @ ../Driver/sdio_sd.c:1659:9
	cmp	r6, #0
	bne	.LBB25_6
.Ltmp460:
@ %bb.8:                                @   in Loop: Header=BB25_14 Depth=1
	@DEBUG_VALUE: SD_WriteBlock:WriteAddr <- [DW_OP_LLVM_fragment 32 32] [$sp+0]
	@DEBUG_VALUE: SD_WriteBlock:writebuff <- $r10
	@DEBUG_VALUE: SD_WriteBlock:tempbuff <- $r10
	.loc	2 0 9                   @ ../Driver/sdio_sd.c:0:9
	ldr	r6, __arm_cp.25_1
	b	.LBB25_13
.Ltmp461:
.LBB25_9:                               @   in Loop: Header=BB25_14 Depth=1
	@DEBUG_VALUE: SD_WriteBlock:bytestransferred <- $r7
	@DEBUG_VALUE: SD_WriteBlock:WriteAddr <- [DW_OP_LLVM_fragment 32 32] [$sp+0]
	@DEBUG_VALUE: SD_WriteBlock:writebuff <- $r10
	@DEBUG_VALUE: SD_WriteBlock:tempbuff <- $r10
	movs	r4, #0
	b	.LBB25_11
.Ltmp462:
.LBB25_10:                              @   in Loop: Header=BB25_11 Depth=2
	@DEBUG_VALUE: SD_WriteBlock:count <- $r4
	@DEBUG_VALUE: SD_WriteBlock:bytestransferred <- $r7
	@DEBUG_VALUE: SD_WriteBlock:WriteAddr <- [DW_OP_LLVM_fragment 32 32] [$sp+0]
	@DEBUG_VALUE: SD_WriteBlock:writebuff <- $r10
	@DEBUG_VALUE: SD_WriteBlock:tempbuff <- $r10
	.loc	2 1668 26 is_stmt 1     @ ../Driver/sdio_sd.c:1668:26
	ldr.w	r0, [r10, r4, lsl #2]
	.loc	2 1668 11 is_stmt 0     @ ../Driver/sdio_sd.c:1668:11
	bl	SDIO_WriteData
.Ltmp463:
	.loc	2 1666 41 is_stmt 1     @ ../Driver/sdio_sd.c:1666:41
	adds	r4, #1
.Ltmp464:
	@DEBUG_VALUE: SD_WriteBlock:count <- $r4
.LBB25_11:                              @   Parent Loop BB25_14 Depth=1
                                        @ =>  This Inner Loop Header: Depth=2
	@DEBUG_VALUE: SD_WriteBlock:bytestransferred <- $r7
	@DEBUG_VALUE: SD_WriteBlock:WriteAddr <- [DW_OP_LLVM_fragment 32 32] [$sp+0]
	@DEBUG_VALUE: SD_WriteBlock:writebuff <- $r10
	@DEBUG_VALUE: SD_WriteBlock:tempbuff <- $r10
	@DEBUG_VALUE: SD_WriteBlock:count <- $r4
	.loc	2 1666 9 is_stmt 0      @ ../Driver/sdio_sd.c:1666:9
	cmp	r4, #8
	bne	.LBB25_10
.Ltmp465:
@ %bb.12:                               @   in Loop: Header=BB25_14 Depth=1
	@DEBUG_VALUE: SD_WriteBlock:count <- $r4
	@DEBUG_VALUE: SD_WriteBlock:bytestransferred <- $r7
	@DEBUG_VALUE: SD_WriteBlock:WriteAddr <- [DW_OP_LLVM_fragment 32 32] [$sp+0]
	@DEBUG_VALUE: SD_WriteBlock:writebuff <- $r10
	@DEBUG_VALUE: SD_WriteBlock:tempbuff <- $r10
	.loc	2 1670 18 is_stmt 1     @ ../Driver/sdio_sd.c:1670:18
	add.w	r10, r10, #32
.Ltmp466:
	@DEBUG_VALUE: SD_WriteBlock:tempbuff <- $r10
	.loc	2 0 18 is_stmt 0        @ ../Driver/sdio_sd.c:0:18
	movs	r4, #32
.Ltmp467:
.LBB25_13:                              @   in Loop: Header=BB25_14 Depth=1
	@DEBUG_VALUE: SD_WriteBlock:WriteAddr <- [DW_OP_LLVM_fragment 32 32] [$sp+0]
	@DEBUG_VALUE: SD_WriteBlock:tempbuff <- $r10
	add	r7, r4
.Ltmp468:
	@DEBUG_VALUE: SD_WriteBlock:tempbuff <- $r10
	@DEBUG_VALUE: SD_WriteBlock:bytestransferred <- $r7
	@DEBUG_VALUE: SD_WriteBlock:bytestransferred <- [DW_OP_plus_uconst 32, DW_OP_stack_value] $r7
.LBB25_14:                              @ =>This Loop Header: Depth=1
                                        @     Child Loop BB25_11 Depth 2
                                        @     Child Loop BB25_7 Depth 2
	@DEBUG_VALUE: SD_WriteBlock:bytestransferred <- $r7
	@DEBUG_VALUE: SD_WriteBlock:WriteAddr <- [DW_OP_LLVM_fragment 32 32] [$sp+0]
	@DEBUG_VALUE: SD_WriteBlock:writebuff <- $r10
	@DEBUG_VALUE: SD_WriteBlock:tempbuff <- $r10
	.loc	2 1652 18 is_stmt 1     @ ../Driver/sdio_sd.c:1652:18
	ldr	r0, [r6, #8]
	.loc	2 1652 3 is_stmt 0      @ ../Driver/sdio_sd.c:1652:3
	tst	r0, r5
	beq	.LBB25_3
.Ltmp469:
@ %bb.15:
	@DEBUG_VALUE: SD_WriteBlock:bytestransferred <- $r7
	@DEBUG_VALUE: SD_WriteBlock:WriteAddr <- [DW_OP_LLVM_fragment 32 32] [$sp+0]
	@DEBUG_VALUE: SD_WriteBlock:writebuff <- $r10
	@DEBUG_VALUE: SD_WriteBlock:tempbuff <- $r10
	.loc	2 1675 7 is_stmt 1      @ ../Driver/sdio_sd.c:1675:7
	movs	r0, #8
	bl	SDIO_GetFlagStatus
.Ltmp470:
	.loc	2 1675 7 is_stmt 0      @ ../Driver/sdio_sd.c:1675:7
	cbz	r0, .LBB25_17
.Ltmp471:
@ %bb.16:
	@DEBUG_VALUE: SD_WriteBlock:bytestransferred <- $r7
	@DEBUG_VALUE: SD_WriteBlock:WriteAddr <- [DW_OP_LLVM_fragment 32 32] [$sp+0]
	@DEBUG_VALUE: SD_WriteBlock:writebuff <- $r10
	@DEBUG_VALUE: SD_WriteBlock:tempbuff <- $r10
	.loc	2 1677 5 is_stmt 1      @ ../Driver/sdio_sd.c:1677:5
	movs	r0, #8
	bl	SDIO_ClearFlag
	movs	r7, #4
.Ltmp472:
	@DEBUG_VALUE: SD_WriteBlock:errorstatus <- 4
	.loc	2 0 5 is_stmt 0         @ ../Driver/sdio_sd.c:0:5
	b	.LBB25_24
.Ltmp473:
.LBB25_17:
	@DEBUG_VALUE: SD_WriteBlock:bytestransferred <- $r7
	@DEBUG_VALUE: SD_WriteBlock:WriteAddr <- [DW_OP_LLVM_fragment 32 32] [$sp+0]
	@DEBUG_VALUE: SD_WriteBlock:writebuff <- $r10
	@DEBUG_VALUE: SD_WriteBlock:tempbuff <- $r10
	.loc	2 1681 12 is_stmt 1     @ ../Driver/sdio_sd.c:1681:12
	movs	r0, #2
	bl	SDIO_GetFlagStatus
.Ltmp474:
	.loc	2 1681 12 is_stmt 0     @ ../Driver/sdio_sd.c:1681:12
	cbz	r0, .LBB25_19
.Ltmp475:
@ %bb.18:
	@DEBUG_VALUE: SD_WriteBlock:bytestransferred <- $r7
	@DEBUG_VALUE: SD_WriteBlock:WriteAddr <- [DW_OP_LLVM_fragment 32 32] [$sp+0]
	@DEBUG_VALUE: SD_WriteBlock:writebuff <- $r10
	@DEBUG_VALUE: SD_WriteBlock:tempbuff <- $r10
	.loc	2 1683 5 is_stmt 1      @ ../Driver/sdio_sd.c:1683:5
	movs	r0, #2
	movs	r7, #2
.Ltmp476:
	bl	SDIO_ClearFlag
.Ltmp477:
	@DEBUG_VALUE: SD_WriteBlock:errorstatus <- 2
	.loc	2 0 5 is_stmt 0         @ ../Driver/sdio_sd.c:0:5
	b	.LBB25_24
.Ltmp478:
.LBB25_19:
	@DEBUG_VALUE: SD_WriteBlock:bytestransferred <- $r7
	@DEBUG_VALUE: SD_WriteBlock:WriteAddr <- [DW_OP_LLVM_fragment 32 32] [$sp+0]
	@DEBUG_VALUE: SD_WriteBlock:writebuff <- $r10
	@DEBUG_VALUE: SD_WriteBlock:tempbuff <- $r10
	.loc	2 1687 12 is_stmt 1     @ ../Driver/sdio_sd.c:1687:12
	movs	r0, #16
	bl	SDIO_GetFlagStatus
.Ltmp479:
	.loc	2 1687 12 is_stmt 0     @ ../Driver/sdio_sd.c:1687:12
	cbz	r0, .LBB25_21
.Ltmp480:
@ %bb.20:
	@DEBUG_VALUE: SD_WriteBlock:bytestransferred <- $r7
	@DEBUG_VALUE: SD_WriteBlock:WriteAddr <- [DW_OP_LLVM_fragment 32 32] [$sp+0]
	@DEBUG_VALUE: SD_WriteBlock:writebuff <- $r10
	@DEBUG_VALUE: SD_WriteBlock:tempbuff <- $r10
	.loc	2 1689 5 is_stmt 1      @ ../Driver/sdio_sd.c:1689:5
	movs	r0, #16
	bl	SDIO_ClearFlag
	movs	r7, #5
.Ltmp481:
	@DEBUG_VALUE: SD_WriteBlock:errorstatus <- 5
	.loc	2 0 5 is_stmt 0         @ ../Driver/sdio_sd.c:0:5
	b	.LBB25_24
.Ltmp482:
.LBB25_21:
	@DEBUG_VALUE: SD_WriteBlock:bytestransferred <- $r7
	@DEBUG_VALUE: SD_WriteBlock:WriteAddr <- [DW_OP_LLVM_fragment 32 32] [$sp+0]
	@DEBUG_VALUE: SD_WriteBlock:writebuff <- $r10
	@DEBUG_VALUE: SD_WriteBlock:tempbuff <- $r10
	.loc	2 1693 12 is_stmt 1     @ ../Driver/sdio_sd.c:1693:12
	mov.w	r0, #512
	bl	SDIO_GetFlagStatus
.Ltmp483:
	.loc	2 1693 12 is_stmt 0     @ ../Driver/sdio_sd.c:1693:12
	cbz	r0, .LBB25_23
.Ltmp484:
@ %bb.22:
	@DEBUG_VALUE: SD_WriteBlock:bytestransferred <- $r7
	@DEBUG_VALUE: SD_WriteBlock:WriteAddr <- [DW_OP_LLVM_fragment 32 32] [$sp+0]
	@DEBUG_VALUE: SD_WriteBlock:writebuff <- $r10
	@DEBUG_VALUE: SD_WriteBlock:tempbuff <- $r10
	.loc	2 1695 5 is_stmt 1      @ ../Driver/sdio_sd.c:1695:5
	mov.w	r0, #512
	bl	SDIO_ClearFlag
	movs	r7, #7
.Ltmp485:
	@DEBUG_VALUE: SD_WriteBlock:errorstatus <- 7
	.loc	2 0 5 is_stmt 0         @ ../Driver/sdio_sd.c:0:5
	b	.LBB25_24
.Ltmp486:
.LBB25_23:
	@DEBUG_VALUE: SD_WriteBlock:bytestransferred <- $r7
	@DEBUG_VALUE: SD_WriteBlock:WriteAddr <- [DW_OP_LLVM_fragment 32 32] [$sp+0]
	@DEBUG_VALUE: SD_WriteBlock:writebuff <- $r10
	@DEBUG_VALUE: SD_WriteBlock:tempbuff <- $r10
	movs	r7, #0
.Ltmp487:
.LBB25_24:
	@DEBUG_VALUE: SD_WriteBlock:WriteAddr <- [DW_OP_LLVM_fragment 32 32] [$sp+0]
	@DEBUG_VALUE: SD_WriteBlock:writebuff <- $r10
	@DEBUG_VALUE: SD_WriteBlock:tempbuff <- $r10
	.loc	2 1706 1 is_stmt 1      @ ../Driver/sdio_sd.c:1706:1
	mov	r0, r7
	add	sp, #4
.Ltmp488:
	pop.w	{r4, r5, r6, r7, r8, r9, r10, r11, pc}
.Ltmp489:
	.p2align	2
@ %bb.25:
	.loc	2 0 1 is_stmt 0         @ ../Driver/sdio_sd.c:0:1
__arm_cp.25_0:
	.long	.L_MergedGlobals
.Lcpi_end39:
	.size	__arm_cp.25_0, .Lcpi_end39-__arm_cp.25_0
__arm_cp.25_1:
	.long	1073818668              @ 0x40012c2c
.Lcpi_end40:
	.size	__arm_cp.25_1, .Lcpi_end40-__arm_cp.25_1
.Lfunc_end25:
	.size	SD_WriteBlock, .Lfunc_end25-SD_WriteBlock
	.cfi_endproc
	.cantunwind
	.fnend
                                        @ -- End function
	.section	.text.SD_WriteMultiBlocks,"ax",%progbits
	.hidden	SD_WriteMultiBlocks     @ -- Begin function SD_WriteMultiBlocks
	.globl	SD_WriteMultiBlocks
	.p2align	2
	.type	SD_WriteMultiBlocks,%function
	.code	16                      @ @SD_WriteMultiBlocks
	.thumb_func
SD_WriteMultiBlocks:
.Lfunc_begin26:
	.loc	2 1724 0 is_stmt 1      @ ../Driver/sdio_sd.c:1724:0
	.fnstart
	.cfi_startproc
@ %bb.0:
	.save	{r4, r5, r6, r7, r8, r9, r10, r11, lr}
	.pad	#4
	push.w	{r3, r4, r5, r6, r7, r8, r9, r10, r11, lr}
	.cfi_def_cfa_offset 40
	.cfi_offset lr, -4
	.cfi_offset r11, -8
	.cfi_offset r10, -12
	.cfi_offset r9, -16
	.cfi_offset r8, -20
	.cfi_offset r7, -24
	.cfi_offset r6, -28
	.cfi_offset r5, -32
	.cfi_offset r4, -36
	@DEBUG_VALUE: SD_WriteMultiBlocks:writebuff <- $r0
.Ltmp490:
	.loc	2 1727 17 prologue_end  @ ../Driver/sdio_sd.c:1727:17
	ldr	r5, __arm_cp.26_0
	str	r0, [sp]                @ 4-byte Spill
.Ltmp491:
	@DEBUG_VALUE: SD_WriteMultiBlocks:errorstatus <- 0
	@DEBUG_VALUE: SD_WriteMultiBlocks:BlockSize <- undef
	@DEBUG_VALUE: SD_WriteMultiBlocks:NumberOfBlocks <- [DW_OP_plus_uconst 44] [$sp+0]
	@DEBUG_VALUE: SD_WriteMultiBlocks:writebuff <- [$sp+0]
	.loc	2 0 17 is_stmt 0        @ ../Driver/sdio_sd.c:0:17
	movs	r4, #0
	movs	r0, #1
	ldr.w	r10, [sp, #40]
	@DEBUG_VALUE: SD_WriteMultiBlocks:WriteAddr <- undef
	mov.w	r9, #1024
	mov.w	r11, #64
	movs	r1, #16
	mov	r7, r3
	mov	r6, r2
	.loc	2 1727 17               @ ../Driver/sdio_sd.c:1727:17
	strb	r4, [r5]
	.loc	2 1728 15 is_stmt 1     @ ../Driver/sdio_sd.c:1728:15
	str	r4, [r5, #12]
	.loc	2 1729 17               @ ../Driver/sdio_sd.c:1729:17
	str	r0, [r5, #8]
	ldr	r0, __arm_cp.26_1
	.loc	2 1731 15               @ ../Driver/sdio_sd.c:1731:15
	str	r4, [r0]
	.loc	2 1740 39               @ ../Driver/sdio_sd.c:1740:39
	mov	r0, r5
.Ltmp492:
	.loc	2 1733 7                @ ../Driver/sdio_sd.c:1733:7
	ldrb.w	r8, [r5, #4]
.Ltmp493:
	.loc	2 1740 41               @ ../Driver/sdio_sd.c:1740:41
	cmp.w	r8, #0
	it	eq
	moveq.w	r10, #512
	.loc	2 1740 39 is_stmt 0     @ ../Driver/sdio_sd.c:1740:39
	str	r10, [r0, #56]!
	.loc	2 1741 39 is_stmt 1     @ ../Driver/sdio_sd.c:1741:39
	strd	r1, r11, [r0, #4]
	.loc	2 1743 35               @ ../Driver/sdio_sd.c:1743:35
	strd	r4, r9, [r0, #12]
	.loc	2 1745 3                @ ../Driver/sdio_sd.c:1745:3
	bl	SDIO_SendCommand
.Ltmp494:
	@DEBUG_VALUE: SD_WriteMultiBlocks:WriteAddr <- [DW_OP_LLVM_fragment 0 32] $r6
	.loc	2 1733 7                @ ../Driver/sdio_sd.c:1733:7
	lsrs	r0, r6, #9
.Ltmp495:
	@DEBUG_VALUE: SD_WriteMultiBlocks:WriteAddr <- [DW_OP_LLVM_fragment 32 32] $r7
	cmp.w	r8, #0
	it	eq
	orreq.w	r6, r0, r7, lsl #23
	.loc	2 1747 17               @ ../Driver/sdio_sd.c:1747:17
	movs	r0, #16
	bl	CmdResp1Error
	mov	r7, r0
.Ltmp496:
	@DEBUG_VALUE: SD_WriteMultiBlocks:errorstatus <- $r7
	.loc	2 1749 7                @ ../Driver/sdio_sd.c:1749:7
	cmp	r0, #0
	bne	.LBB26_5
.Ltmp497:
@ %bb.1:
	@DEBUG_VALUE: SD_WriteMultiBlocks:errorstatus <- $r7
	@DEBUG_VALUE: SD_WriteMultiBlocks:writebuff <- [$sp+0]
	@DEBUG_VALUE: SD_WriteMultiBlocks:NumberOfBlocks <- [DW_OP_plus_uconst 44] [$sp+0]
	.loc	2 1755 53               @ ../Driver/sdio_sd.c:1755:53
	ldr	r0, [r5, #20]
	.loc	2 1755 57 is_stmt 0     @ ../Driver/sdio_sd.c:1755:57
	lsls	r1, r0, #16
	.loc	2 1755 39               @ ../Driver/sdio_sd.c:1755:39
	mov	r0, r5
	str	r1, [r0, #56]!
	movs	r1, #55
	.loc	2 1756 39 is_stmt 1     @ ../Driver/sdio_sd.c:1756:39
	strd	r1, r11, [r0, #4]
	.loc	2 1758 35               @ ../Driver/sdio_sd.c:1758:35
	strd	r4, r9, [r0, #12]
	.loc	2 1760 3                @ ../Driver/sdio_sd.c:1760:3
	bl	SDIO_SendCommand
	.loc	2 1763 17               @ ../Driver/sdio_sd.c:1763:17
	movs	r0, #55
	bl	CmdResp1Error
	mov	r7, r0
.Ltmp498:
	@DEBUG_VALUE: SD_WriteMultiBlocks:errorstatus <- $r7
	.loc	2 1765 7                @ ../Driver/sdio_sd.c:1765:7
	cmp	r0, #0
	bne	.LBB26_5
.Ltmp499:
@ %bb.2:
	@DEBUG_VALUE: SD_WriteMultiBlocks:errorstatus <- $r7
	@DEBUG_VALUE: SD_WriteMultiBlocks:writebuff <- [$sp+0]
	@DEBUG_VALUE: SD_WriteMultiBlocks:NumberOfBlocks <- [DW_OP_plus_uconst 44] [$sp+0]
	.loc	2 0 7 is_stmt 0         @ ../Driver/sdio_sd.c:0:7
	ldr.w	r8, [sp, #44]
	.loc	2 1770 39 is_stmt 1     @ ../Driver/sdio_sd.c:1770:39
	mov	r0, r5
	mov.w	r11, #1024
	movs	r4, #0
	mov.w	r9, #64
	movs	r1, #23
	str	r8, [r0, #56]!
	.loc	2 1771 39               @ ../Driver/sdio_sd.c:1771:39
	strd	r1, r9, [r0, #4]
	.loc	2 1773 35               @ ../Driver/sdio_sd.c:1773:35
	strd	r4, r11, [r0, #12]
	.loc	2 1775 3                @ ../Driver/sdio_sd.c:1775:3
	bl	SDIO_SendCommand
	.loc	2 1777 17               @ ../Driver/sdio_sd.c:1777:17
	movs	r0, #23
	bl	CmdResp1Error
	mov	r7, r0
.Ltmp500:
	@DEBUG_VALUE: SD_WriteMultiBlocks:errorstatus <- $r7
	.loc	2 1779 7                @ ../Driver/sdio_sd.c:1779:7
	cbnz	r0, .LBB26_5
.Ltmp501:
@ %bb.3:
	@DEBUG_VALUE: SD_WriteMultiBlocks:errorstatus <- $r7
	@DEBUG_VALUE: SD_WriteMultiBlocks:writebuff <- [$sp+0]
	@DEBUG_VALUE: SD_WriteMultiBlocks:NumberOfBlocks <- [DW_OP_plus_uconst 44] [$sp+0]
	.loc	2 1786 39               @ ../Driver/sdio_sd.c:1786:39
	mov	r0, r5
	movs	r1, #25
	str	r6, [r0, #56]!
	.loc	2 1787 39               @ ../Driver/sdio_sd.c:1787:39
	strd	r1, r9, [r0, #4]
	.loc	2 1789 35               @ ../Driver/sdio_sd.c:1789:35
	strd	r4, r11, [r0, #12]
	.loc	2 1791 3                @ ../Driver/sdio_sd.c:1791:3
	bl	SDIO_SendCommand
	.loc	2 1793 17               @ ../Driver/sdio_sd.c:1793:17
	movs	r0, #25
	bl	CmdResp1Error
	mov	r7, r0
.Ltmp502:
	@DEBUG_VALUE: SD_WriteMultiBlocks:errorstatus <- $r7
	.loc	2 1795 7                @ ../Driver/sdio_sd.c:1795:7
	cbnz	r0, .LBB26_5
.Ltmp503:
@ %bb.4:
	@DEBUG_VALUE: SD_WriteMultiBlocks:errorstatus <- $r7
	@DEBUG_VALUE: SD_WriteMultiBlocks:writebuff <- [$sp+0]
	@DEBUG_VALUE: SD_WriteMultiBlocks:NumberOfBlocks <- [DW_OP_plus_uconst 44] [$sp+0]
	.loc	2 0 7 is_stmt 0         @ ../Driver/sdio_sd.c:0:7
	mov.w	r0, #-1
	movs	r7, #0
.Ltmp504:
	movs	r1, #144
	.loc	2 1801 59 is_stmt 1     @ ../Driver/sdio_sd.c:1801:59
	mul	r2, r10, r8
	.loc	2 1800 43               @ ../Driver/sdio_sd.c:1800:43
	str	r0, [r5, #100]!
	movs	r0, #1
	.loc	2 1801 42               @ ../Driver/sdio_sd.c:1801:42
	strd	r2, r1, [r5, #4]
	.loc	2 1803 43               @ ../Driver/sdio_sd.c:1803:43
	strd	r7, r7, [r5, #12]
	.loc	2 1805 36               @ ../Driver/sdio_sd.c:1805:36
	str	r0, [r5, #20]
	.loc	2 1806 3                @ ../Driver/sdio_sd.c:1806:3
	mov	r0, r5
	bl	SDIO_DataConfig
	.loc	2 1808 3                @ ../Driver/sdio_sd.c:1808:3
	movw	r0, #810
	movs	r1, #1
	bl	SDIO_ITConfig
	.loc	2 1809 3                @ ../Driver/sdio_sd.c:1809:3
	movs	r0, #1
	bl	SDIO_DMACmd
	.loc	2 1810 3                @ ../Driver/sdio_sd.c:1810:3
	ldr	r0, [sp]                @ 4-byte Reload
	bl	SD_LowLevel_DMA_TxConfig
.Ltmp505:
.LBB26_5:
	@DEBUG_VALUE: SD_WriteMultiBlocks:writebuff <- [$sp+0]
	@DEBUG_VALUE: SD_WriteMultiBlocks:NumberOfBlocks <- [DW_OP_plus_uconst 44] [$sp+0]
	.loc	2 1813 1                @ ../Driver/sdio_sd.c:1813:1
	mov	r0, r7
	add	sp, #4
.Ltmp506:
	pop.w	{r4, r5, r6, r7, r8, r9, r10, r11, pc}
.Ltmp507:
	.p2align	2
@ %bb.6:
	.loc	2 0 1 is_stmt 0         @ ../Driver/sdio_sd.c:0:1
__arm_cp.26_0:
	.long	.L_MergedGlobals
.Lcpi_end41:
	.size	__arm_cp.26_0, .Lcpi_end41-__arm_cp.26_0
__arm_cp.26_1:
	.long	1073818668              @ 0x40012c2c
.Lcpi_end42:
	.size	__arm_cp.26_1, .Lcpi_end42-__arm_cp.26_1
.Lfunc_end26:
	.size	SD_WriteMultiBlocks, .Lfunc_end26-SD_WriteMultiBlocks
	.cfi_endproc
	.cantunwind
	.fnend
                                        @ -- End function
	.section	.text.SD_WaitWriteOperation,"ax",%progbits
	.hidden	SD_WaitWriteOperation   @ -- Begin function SD_WaitWriteOperation
	.globl	SD_WaitWriteOperation
	.p2align	2
	.type	SD_WaitWriteOperation,%function
	.code	16                      @ @SD_WaitWriteOperation
	.thumb_func
SD_WaitWriteOperation:
.Lfunc_begin27:
	.loc	2 1824 0 is_stmt 1      @ ../Driver/sdio_sd.c:1824:0
	.fnstart
	.cfi_startproc
@ %bb.0:
	.save	{r4, r5, r6, lr}
	push	{r4, r5, r6, lr}
	.cfi_def_cfa_offset 16
	.cfi_offset lr, -4
	.cfi_offset r6, -8
	.cfi_offset r5, -12
	.cfi_offset r4, -16
	ldr	r5, __arm_cp.27_0
	movs	r0, #1
.Ltmp508:
	@DEBUG_VALUE: SD_WaitWriteOperation:timeout <- -1
	@DEBUG_VALUE: SD_WaitWriteOperation:errorstatus <- 0
.LBB27_1:                               @ =>This Inner Loop Header: Depth=1
	@DEBUG_VALUE: SD_WaitWriteOperation:timeout <- undef
	.loc	2 1830 11 prologue_end  @ ../Driver/sdio_sd.c:1830:11
	ldr	r1, [r5, #16]
	.loc	2 1830 37 is_stmt 0     @ ../Driver/sdio_sd.c:1830:37
	cbnz	r1, .LBB27_5
@ %bb.2:                                @   in Loop: Header=BB27_1 Depth=1
	.loc	2 1830 41               @ ../Driver/sdio_sd.c:1830:41
	ldr	r1, [r5, #12]
	.loc	2 1830 59               @ ../Driver/sdio_sd.c:1830:59
	cbnz	r1, .LBB27_5
@ %bb.3:                                @   in Loop: Header=BB27_1 Depth=1
.Ltmp509:
	@DEBUG_VALUE: SD_WaitWriteOperation:timeout <- [DW_OP_constu 1, DW_OP_minus, DW_OP_stack_value] undef
	.loc	2 1830 63               @ ../Driver/sdio_sd.c:1830:63
	ldrb	r1, [r5]
	.loc	2 1830 87               @ ../Driver/sdio_sd.c:1830:87
	cbz	r0, .LBB27_5
@ %bb.4:                                @   in Loop: Header=BB27_1 Depth=1
	adds	r0, #1
	cmp	r1, #0
	beq	.LBB27_1
.LBB27_5:
	.loc	2 0 87                  @ ../Driver/sdio_sd.c:0:87
	ldr	r0, __arm_cp.27_1
	movs	r6, #0
	.loc	2 1835 20 is_stmt 1     @ ../Driver/sdio_sd.c:1835:20
	str	r6, [r5, #16]
.Ltmp510:
	@DEBUG_VALUE: SD_WaitWriteOperation:timeout <- -1
.LBB27_6:                               @ =>This Inner Loop Header: Depth=1
	@DEBUG_VALUE: SD_WaitWriteOperation:timeout <- undef
	@DEBUG_VALUE: SD_WaitWriteOperation:timeout <- [DW_OP_constu 1, DW_OP_minus, DW_OP_stack_value] undef
	.loc	2 1839 3                @ ../Driver/sdio_sd.c:1839:3
	subs	r6, #1
	.loc	2 1839 17 is_stmt 0     @ ../Driver/sdio_sd.c:1839:17
	ldr	r1, [r0]
	.loc	2 0 0                   @ ../Driver/sdio_sd.c:0:0
	it	ne
	andsne	r1, r1, #4096
	bne	.LBB27_6
@ %bb.7:
.Ltmp511:
	@DEBUG_VALUE: SD_WaitWriteOperation:timeout <- undef
	.loc	2 1844 7 is_stmt 1      @ ../Driver/sdio_sd.c:1844:7
	ldr	r0, [r5, #8]
.Ltmp512:
	.loc	2 1844 7 is_stmt 0      @ ../Driver/sdio_sd.c:1844:7
	cmp	r0, #1
	bne	.LBB27_9
@ %bb.8:
.Ltmp513:
	.loc	2 1846 19 is_stmt 1     @ ../Driver/sdio_sd.c:1846:19
	bl	SD_StopTransfer
	mov	r4, r0
.Ltmp514:
	@DEBUG_VALUE: SD_WaitWriteOperation:errorstatus <- undef
	.loc	2 0 19 is_stmt 0        @ ../Driver/sdio_sd.c:0:19
	b	.LBB27_10
.Ltmp515:
.LBB27_9:
	movs	r4, #0
.LBB27_10:
.Ltmp516:
	@DEBUG_VALUE: SD_WaitWriteOperation:errorstatus <- $r4
	.loc	2 1855 3 is_stmt 1      @ ../Driver/sdio_sd.c:1855:3
	movw	r0, #1535
	bl	SDIO_ClearFlag
.Ltmp517:
	.loc	2 1849 22               @ ../Driver/sdio_sd.c:1849:22
	mov	r0, r4
	cmp	r4, #0
	it	eq
	moveq	r0, #4
	cmp	r6, #0
	it	ne
	movne	r0, r4
.Ltmp518:
	@DEBUG_VALUE: SD_WaitWriteOperation:errorstatus <- $r0
	.loc	2 1857 7                @ ../Driver/sdio_sd.c:1857:7
	ldrb	r1, [r5]
.Ltmp519:
	.loc	2 1857 7 is_stmt 0      @ ../Driver/sdio_sd.c:1857:7
	cmp	r1, #0
	.loc	2 1865 1 is_stmt 1      @ ../Driver/sdio_sd.c:1865:1
	it	eq
	popeq	{r4, r5, r6, pc}
.Ltmp520:
	.loc	2 1859 12               @ ../Driver/sdio_sd.c:1859:12
	ldrb	r0, [r5]
.Ltmp521:
	.loc	2 1865 1                @ ../Driver/sdio_sd.c:1865:1
	pop	{r4, r5, r6, pc}
.Ltmp522:
	.p2align	2
@ %bb.11:
	.loc	2 0 1 is_stmt 0         @ ../Driver/sdio_sd.c:0:1
__arm_cp.27_0:
	.long	.L_MergedGlobals
.Lcpi_end43:
	.size	__arm_cp.27_0, .Lcpi_end43-__arm_cp.27_0
__arm_cp.27_1:
	.long	1073818676              @ 0x40012c34
.Lcpi_end44:
	.size	__arm_cp.27_1, .Lcpi_end44-__arm_cp.27_1
.Lfunc_end27:
	.size	SD_WaitWriteOperation, .Lfunc_end27-SD_WaitWriteOperation
	.cfi_endproc
	.cantunwind
	.fnend
                                        @ -- End function
	.section	.text.SD_GetTransferState,"ax",%progbits
	.hidden	SD_GetTransferState     @ -- Begin function SD_GetTransferState
	.globl	SD_GetTransferState
	.p2align	2
	.type	SD_GetTransferState,%function
	.code	16                      @ @SD_GetTransferState
	.thumb_func
SD_GetTransferState:
.Lfunc_begin28:
	.loc	2 1876 0 is_stmt 1      @ ../Driver/sdio_sd.c:1876:0
	.fnstart
	.cfi_startproc
@ %bb.0:
	ldr	r0, __arm_cp.28_0
.Ltmp523:
	.loc	2 1877 13 prologue_end  @ ../Driver/sdio_sd.c:1877:13
	ldr	r0, [r0]
	.loc	2 1877 17 is_stmt 0     @ ../Driver/sdio_sd.c:1877:17
	ands	r0, r0, #12288
	it	ne
	movne	r0, #1
.Ltmp524:
	.loc	2 1885 1 is_stmt 1      @ ../Driver/sdio_sd.c:1885:1
	bx	lr
.Ltmp525:
	.p2align	2
@ %bb.1:
	.loc	2 0 1 is_stmt 0         @ ../Driver/sdio_sd.c:0:1
__arm_cp.28_0:
	.long	1073818676              @ 0x40012c34
.Lcpi_end45:
	.size	__arm_cp.28_0, .Lcpi_end45-__arm_cp.28_0
.Lfunc_end28:
	.size	SD_GetTransferState, .Lfunc_end28-SD_GetTransferState
	.cfi_endproc
	.cantunwind
	.fnend
                                        @ -- End function
	.section	.text.SD_Erase,"ax",%progbits
	.hidden	SD_Erase                @ -- Begin function SD_Erase
	.globl	SD_Erase
	.p2align	2
	.type	SD_Erase,%function
	.code	16                      @ @SD_Erase
	.thumb_func
SD_Erase:
.Lfunc_begin29:
	.loc	2 1916 0 is_stmt 1      @ ../Driver/sdio_sd.c:1916:0
	.fnstart
	.cfi_startproc
@ %bb.0:
	.save	{r4, r5, r6, r7, r8, r9, r10, lr}
	.pad	#8
	push.w	{r2, r3, r4, r5, r6, r7, r8, r9, r10, lr}
	.cfi_def_cfa_offset 40
	.cfi_offset lr, -4
	.cfi_offset r10, -8
	.cfi_offset r9, -12
	.cfi_offset r8, -16
	.cfi_offset r7, -20
	.cfi_offset r6, -24
	.cfi_offset r5, -28
	.cfi_offset r4, -32
	mov	r7, r0
	movs	r0, #0
.Ltmp526:
	@DEBUG_VALUE: SD_Erase:delay <- 0
	@DEBUG_VALUE: SD_Erase:errorstatus <- 0
	.loc	2 1923 9 prologue_end   @ ../Driver/sdio_sd.c:1923:9
	ldr	r4, __arm_cp.29_0
.Ltmp527:
	.loc	2 1919 17               @ ../Driver/sdio_sd.c:1919:17
	str	r0, [sp, #4]
.Ltmp528:
	@DEBUG_VALUE: SD_Erase:cardstate <- 0
	@DEBUG_VALUE: SD_Erase:cardstate <- [DW_OP_plus_uconst 3, DW_OP_deref] $sp
	.loc	2 1920 11               @ ../Driver/sdio_sd.c:1920:11
	strb.w	r0, [sp, #3]
	.loc	2 1923 7                @ ../Driver/sdio_sd.c:1923:7
	ldrb.w	r0, [r4, #47]
	lsls	r0, r0, #30
	@DEBUG_VALUE: SD_Erase:startaddr <- [DW_OP_LLVM_fragment 0 32] $r7
	bmi	.LBB29_2
.Ltmp529:
@ %bb.1:
	@DEBUG_VALUE: SD_Erase:startaddr <- [DW_OP_LLVM_fragment 0 32] $r7
	@DEBUG_VALUE: SD_Erase:cardstate <- [DW_OP_plus_uconst 3, DW_OP_deref] $sp
	.loc	2 0 7 is_stmt 0         @ ../Driver/sdio_sd.c:0:7
	movs	r0, #37
	b	.LBB29_10
.Ltmp530:
.LBB29_2:
	@DEBUG_VALUE: SD_Erase:startaddr <- [DW_OP_LLVM_fragment 0 32] $r7
	@DEBUG_VALUE: SD_Erase:cardstate <- [DW_OP_plus_uconst 3, DW_OP_deref] $sp
	ldr	r0, __arm_cp.29_1
	mov	r6, r1
.Ltmp531:
	@DEBUG_VALUE: SD_Erase:startaddr <- [DW_OP_LLVM_fragment 32 32] $r6
	movs	r1, #2
	mov	r8, r3
	@DEBUG_VALUE: SD_Erase:endaddr <- [DW_OP_LLVM_fragment 32 32] $r8
	mov	r5, r2
	@DEBUG_VALUE: SD_Erase:endaddr <- [DW_OP_LLVM_fragment 0 32] $r5
	mov.w	r10, #0
	.loc	2 1929 31 is_stmt 1     @ ../Driver/sdio_sd.c:1929:31
	ldr	r0, [r0]
	.loc	2 1929 45 is_stmt 0     @ ../Driver/sdio_sd.c:1929:45
	uxtab	r0, r1, r0
	ldr	r1, __arm_cp.29_2
	.loc	2 1929 21               @ ../Driver/sdio_sd.c:1929:21
	udiv	r0, r1, r0
	.loc	2 1929 12               @ ../Driver/sdio_sd.c:1929:12
	str	r0, [sp, #4]
.Ltmp532:
	.loc	2 1931 7 is_stmt 1      @ ../Driver/sdio_sd.c:1931:7
	movs	r0, #0
	bl	SDIO_GetResponse
.Ltmp533:
	.loc	2 1931 7 is_stmt 0      @ ../Driver/sdio_sd.c:1931:7
	lsls	r0, r0, #6
	bmi	.LBB29_9
.Ltmp534:
@ %bb.3:
	@DEBUG_VALUE: SD_Erase:endaddr <- [DW_OP_LLVM_fragment 0 32] $r5
	@DEBUG_VALUE: SD_Erase:startaddr <- [DW_OP_LLVM_fragment 32 32] $r6
	@DEBUG_VALUE: SD_Erase:cardstate <- [DW_OP_plus_uconst 3, DW_OP_deref] $sp
	.loc	2 1937 7 is_stmt 1      @ ../Driver/sdio_sd.c:1937:7
	ldrb.w	r9, [r4, #4]
.Ltmp535:
	.loc	2 1937 7 is_stmt 0      @ ../Driver/sdio_sd.c:1937:7
	lsrs	r0, r7, #9
	movs	r1, #32
	cmp.w	r9, #0
	it	eq
	orreq.w	r7, r0, r6, lsl #23
.Ltmp536:
	@DEBUG_VALUE: SD_Erase:startaddr <- undef
	@DEBUG_VALUE: SD_Erase:endaddr <- undef
	.loc	2 1947 41 is_stmt 1     @ ../Driver/sdio_sd.c:1947:41
	mov	r0, r4
	mov.w	r6, #1024
	str	r7, [r0, #56]!
	movs	r7, #64
	.loc	2 1948 41               @ ../Driver/sdio_sd.c:1948:41
	adds	r2, r0, #4
	stm.w	r2, {r1, r7, r10}
	.loc	2 1951 37               @ ../Driver/sdio_sd.c:1951:37
	str	r6, [r0, #16]
	.loc	2 1952 5                @ ../Driver/sdio_sd.c:1952:5
	bl	SDIO_SendCommand
	.loc	2 1954 19               @ ../Driver/sdio_sd.c:1954:19
	movs	r0, #32
	bl	CmdResp1Error
.Ltmp537:
	@DEBUG_VALUE: SD_Erase:errorstatus <- $r0
	.loc	2 1955 9                @ ../Driver/sdio_sd.c:1955:9
	cbnz	r0, .LBB29_10
.Ltmp538:
@ %bb.4:
	@DEBUG_VALUE: SD_Erase:errorstatus <- $r0
	@DEBUG_VALUE: SD_Erase:cardstate <- [DW_OP_plus_uconst 3, DW_OP_deref] $sp
	.loc	2 1937 7                @ ../Driver/sdio_sd.c:1937:7
	lsrs	r0, r5, #9
.Ltmp539:
	cmp.w	r9, #0
	it	eq
	orreq.w	r5, r0, r8, lsl #23
	movs	r1, #33
.Ltmp540:
	.loc	2 1961 41               @ ../Driver/sdio_sd.c:1961:41
	mov	r0, r4
	str	r5, [r0, #56]!
	movs	r5, #0
	.loc	2 1962 41               @ ../Driver/sdio_sd.c:1962:41
	strd	r1, r7, [r0, #4]
	.loc	2 1964 37               @ ../Driver/sdio_sd.c:1964:37
	strd	r5, r6, [r0, #12]
	.loc	2 1966 5                @ ../Driver/sdio_sd.c:1966:5
	bl	SDIO_SendCommand
	.loc	2 1968 19               @ ../Driver/sdio_sd.c:1968:19
	movs	r0, #33
	bl	CmdResp1Error
.Ltmp541:
	@DEBUG_VALUE: SD_Erase:errorstatus <- $r0
	.loc	2 1969 9                @ ../Driver/sdio_sd.c:1969:9
	cbnz	r0, .LBB29_10
.Ltmp542:
@ %bb.5:
	@DEBUG_VALUE: SD_Erase:errorstatus <- $r0
	@DEBUG_VALUE: SD_Erase:cardstate <- [DW_OP_plus_uconst 3, DW_OP_deref] $sp
	.loc	2 1976 39               @ ../Driver/sdio_sd.c:1976:39
	str	r5, [r4, #56]!
	mov.w	r0, #1024
.Ltmp543:
	.loc	2 0 39 is_stmt 0        @ ../Driver/sdio_sd.c:0:39
	movs	r1, #64
	movs	r2, #38
	.loc	2 1977 39 is_stmt 1     @ ../Driver/sdio_sd.c:1977:39
	strd	r2, r1, [r4, #4]
	.loc	2 1979 35               @ ../Driver/sdio_sd.c:1979:35
	strd	r5, r0, [r4, #12]
	.loc	2 1981 3                @ ../Driver/sdio_sd.c:1981:3
	mov	r0, r4
	bl	SDIO_SendCommand
	.loc	2 1983 17               @ ../Driver/sdio_sd.c:1983:17
	movs	r0, #38
	bl	CmdResp1Error
.Ltmp544:
	@DEBUG_VALUE: SD_Erase:errorstatus <- $r0
	.loc	2 1985 7                @ ../Driver/sdio_sd.c:1985:7
	cbnz	r0, .LBB29_10
.Ltmp545:
@ %bb.6:
	@DEBUG_VALUE: SD_Erase:errorstatus <- $r0
	@DEBUG_VALUE: SD_Erase:cardstate <- [DW_OP_plus_uconst 3, DW_OP_deref] $sp
	.loc	2 0 7 is_stmt 0         @ ../Driver/sdio_sd.c:0:7
	mov.w	r0, #-1
.Ltmp546:
.LBB29_7:                               @ =>This Inner Loop Header: Depth=1
	@DEBUG_VALUE: SD_Erase:cardstate <- [DW_OP_plus_uconst 3, DW_OP_deref] $sp
	@DEBUG_VALUE: SD_Erase:delay <- undef
	@DEBUG_VALUE: SD_Erase:delay <- [DW_OP_plus_uconst 1, DW_OP_stack_value] undef
	.loc	2 1990 27 is_stmt 1     @ ../Driver/sdio_sd.c:1990:27
	ldr	r1, [sp, #4]
	.loc	2 1990 25 is_stmt 0     @ ../Driver/sdio_sd.c:1990:25
	adds	r0, #1
.Ltmp547:
	.loc	2 1990 3                @ ../Driver/sdio_sd.c:1990:3
	cmp	r0, r1
	blo	.LBB29_7
.Ltmp548:
@ %bb.8:
	@DEBUG_VALUE: SD_Erase:cardstate <- [DW_OP_plus_uconst 3, DW_OP_deref] $sp
	@DEBUG_VALUE: SD_Erase:cardstate <- [DW_OP_plus_uconst 3, DW_OP_deref] $sp
	.loc	2 0 3                   @ ../Driver/sdio_sd.c:0:3
	add.w	r4, sp, #3
	.loc	2 1994 17 is_stmt 1     @ ../Driver/sdio_sd.c:1994:17
	mov	r0, r4
	bl	IsCardProgramming
	movs	r5, #1
.Ltmp549:
	@DEBUG_VALUE: SD_Erase:delay <- -1
	@DEBUG_VALUE: SD_Erase:errorstatus <- undef
	.loc	2 0 17 is_stmt 0        @ ../Driver/sdio_sd.c:0:17
	b	.LBB29_12
.Ltmp550:
.LBB29_9:
	@DEBUG_VALUE: SD_Erase:endaddr <- [DW_OP_LLVM_fragment 0 32] $r5
	@DEBUG_VALUE: SD_Erase:startaddr <- [DW_OP_LLVM_fragment 32 32] $r6
	@DEBUG_VALUE: SD_Erase:cardstate <- [DW_OP_plus_uconst 3, DW_OP_deref] $sp
	movs	r0, #14
.Ltmp551:
.LBB29_10:
	@DEBUG_VALUE: SD_Erase:cardstate <- [DW_OP_plus_uconst 3, DW_OP_deref] $sp
	.loc	2 2003 1 is_stmt 1      @ ../Driver/sdio_sd.c:2003:1
	uxtb	r0, r0
	add	sp, #8
.Ltmp552:
	pop.w	{r4, r5, r6, r7, r8, r9, r10, pc}
.LBB29_11:                              @   in Loop: Header=BB29_12 Depth=1
.Ltmp553:
	@DEBUG_VALUE: SD_Erase:cardstate <- [DW_OP_plus_uconst 3, DW_OP_deref] $sp
	.loc	2 1998 19               @ ../Driver/sdio_sd.c:1998:19
	mov	r0, r4
	bl	IsCardProgramming
.Ltmp554:
	@DEBUG_VALUE: SD_Erase:delay <- [DW_OP_constu 1, DW_OP_minus, DW_OP_stack_value] undef
	.loc	2 1996 3                @ ../Driver/sdio_sd.c:1996:3
	adds	r5, #1
	@DEBUG_VALUE: SD_Erase:errorstatus <- undef
.Ltmp555:
.LBB29_12:                              @ =>This Inner Loop Header: Depth=1
	@DEBUG_VALUE: SD_Erase:cardstate <- [DW_OP_plus_uconst 3, DW_OP_deref] $sp
	@DEBUG_VALUE: SD_Erase:errorstatus <- $r0
	@DEBUG_VALUE: SD_Erase:delay <- undef
	.loc	2 1996 22 is_stmt 0     @ ../Driver/sdio_sd.c:1996:22
	cmp	r0, #0
	bne	.LBB29_10
.Ltmp556:
@ %bb.13:                               @   in Loop: Header=BB29_12 Depth=1
	@DEBUG_VALUE: SD_Erase:errorstatus <- $r0
	@DEBUG_VALUE: SD_Erase:cardstate <- [DW_OP_plus_uconst 3, DW_OP_deref] $sp
	cmp	r5, #0
	beq	.LBB29_10
.Ltmp557:
@ %bb.14:                               @   in Loop: Header=BB29_12 Depth=1
	@DEBUG_VALUE: SD_Erase:errorstatus <- $r0
	@DEBUG_VALUE: SD_Erase:cardstate <- [DW_OP_plus_uconst 3, DW_OP_deref] $sp
	.loc	2 1996 76               @ ../Driver/sdio_sd.c:1996:76
	ldrb.w	r0, [sp, #3]
.Ltmp558:
	@DEBUG_VALUE: SD_Erase:cardstate <- undef
	.loc	2 1996 87               @ ../Driver/sdio_sd.c:1996:87
	orr	r0, r0, #1
	.loc	2 1996 3                @ ../Driver/sdio_sd.c:1996:3
	cmp	r0, #7
	beq	.LBB29_11
.Ltmp559:
@ %bb.15:
	.loc	2 0 3                   @ ../Driver/sdio_sd.c:0:3
	movs	r0, #0
	b	.LBB29_10
	.p2align	2
@ %bb.16:
__arm_cp.29_0:
	.long	.L_MergedGlobals
.Lcpi_end46:
	.size	__arm_cp.29_0, .Lcpi_end46-__arm_cp.29_0
__arm_cp.29_1:
	.long	1073818628              @ 0x40012c04
.Lcpi_end47:
	.size	__arm_cp.29_1, .Lcpi_end47-__arm_cp.29_1
__arm_cp.29_2:
	.long	120000                  @ 0x1d4c0
.Lcpi_end48:
	.size	__arm_cp.29_2, .Lcpi_end48-__arm_cp.29_2
.Lfunc_end29:
	.size	SD_Erase, .Lfunc_end29-SD_Erase
	.cfi_endproc
	.cantunwind
	.fnend
                                        @ -- End function
	.section	.text.IsCardProgramming,"ax",%progbits
	.p2align	2               @ -- Begin function IsCardProgramming
	.type	IsCardProgramming,%function
	.code	16                      @ @IsCardProgramming
	.thumb_func
IsCardProgramming:
.Lfunc_begin30:
	.loc	2 2684 0 is_stmt 1      @ ../Driver/sdio_sd.c:2684:0
	.fnstart
	.cfi_startproc
@ %bb.0:
	.save	{r4, r5, r7, lr}
	.pad	#8
	push	{r2, r3, r4, r5, r7, lr}
	.cfi_def_cfa_offset 24
	.cfi_offset lr, -4
	.cfi_offset r7, -8
	.cfi_offset r5, -12
	.cfi_offset r4, -16
	@DEBUG_VALUE: IsCardProgramming:pstatus <- $r0
	mov	r5, r0
	movs	r1, #0
.Ltmp560:
	@DEBUG_VALUE: IsCardProgramming:errorstatus <- 0
	@DEBUG_VALUE: IsCardProgramming:pstatus <- $r5
	.loc	2 2688 52 prologue_end  @ ../Driver/sdio_sd.c:2688:52
	ldr	r0, __arm_cp.30_0
	movs	r3, #64
	movs	r4, #13
	.loc	2 2686 17               @ ../Driver/sdio_sd.c:2686:17
	str	r1, [sp, #4]
	.loc	2 2688 52               @ ../Driver/sdio_sd.c:2688:52
	ldr	r2, [r0, #20]
	.loc	2 2688 56 is_stmt 0     @ ../Driver/sdio_sd.c:2688:56
	lsls	r2, r2, #16
	.loc	2 2688 39               @ ../Driver/sdio_sd.c:2688:39
	str	r2, [r0, #56]!
	mov.w	r2, #1024
	.loc	2 2689 39 is_stmt 1     @ ../Driver/sdio_sd.c:2689:39
	strd	r4, r3, [r0, #4]
	.loc	2 2691 35               @ ../Driver/sdio_sd.c:2691:35
	strd	r1, r2, [r0, #12]
	.loc	2 2686 29               @ ../Driver/sdio_sd.c:2686:29
	str	r1, [sp]
	.loc	2 2693 3                @ ../Driver/sdio_sd.c:2693:3
	bl	SDIO_SendCommand
	ldr	r0, __arm_cp.30_1
.Ltmp561:
.LBB30_1:                               @ =>This Inner Loop Header: Depth=1
	@DEBUG_VALUE: IsCardProgramming:pstatus <- $r5
	.loc	2 0 0 is_stmt 0         @ ../Driver/sdio_sd.c:0:0
	ldr	r1, [r0]
	str	r1, [sp]
	.loc	2 2696 12 is_stmt 1     @ ../Driver/sdio_sd.c:2696:12
	ldr	r1, [sp]
	.loc	2 2696 3 is_stmt 0      @ ../Driver/sdio_sd.c:2696:3
	tst.w	r1, #69
	beq	.LBB30_1
.Ltmp562:
@ %bb.2:
	@DEBUG_VALUE: IsCardProgramming:pstatus <- $r5
	.loc	2 2701 7 is_stmt 1      @ ../Driver/sdio_sd.c:2701:7
	ldr	r0, [sp]
.Ltmp563:
	.loc	2 2701 7 is_stmt 0      @ ../Driver/sdio_sd.c:2701:7
	lsls	r0, r0, #29
	bmi	.LBB30_25
.Ltmp564:
@ %bb.3:
	@DEBUG_VALUE: IsCardProgramming:pstatus <- $r5
	.loc	2 2707 12 is_stmt 1     @ ../Driver/sdio_sd.c:2707:12
	ldr	r0, [sp]
.Ltmp565:
	.loc	2 2707 12 is_stmt 0     @ ../Driver/sdio_sd.c:2707:12
	lsls	r0, r0, #31
	bne	.LBB30_26
.Ltmp566:
@ %bb.4:
	@DEBUG_VALUE: IsCardProgramming:pstatus <- $r5
	.loc	2 2714 22 is_stmt 1     @ ../Driver/sdio_sd.c:2714:22
	bl	SDIO_GetCommandResponse
	.loc	2 2714 10 is_stmt 0     @ ../Driver/sdio_sd.c:2714:10
	str	r0, [sp]
.Ltmp567:
	.loc	2 2717 7 is_stmt 1      @ ../Driver/sdio_sd.c:2717:7
	ldr	r0, [sp]
.Ltmp568:
	.loc	2 2717 7 is_stmt 0      @ ../Driver/sdio_sd.c:2717:7
	cmp	r0, #13
	bne	.LBB30_27
.Ltmp569:
@ %bb.5:
	@DEBUG_VALUE: IsCardProgramming:pstatus <- $r5
	.loc	2 2724 3 is_stmt 1      @ ../Driver/sdio_sd.c:2724:3
	movw	r0, #1535
	bl	SDIO_ClearFlag
	.loc	2 2728 12               @ ../Driver/sdio_sd.c:2728:12
	movs	r0, #0
	movs	r4, #0
	bl	SDIO_GetResponse
	.loc	2 2728 10 is_stmt 0     @ ../Driver/sdio_sd.c:2728:10
	str	r0, [sp, #4]
	.loc	2 2731 26 is_stmt 1     @ ../Driver/sdio_sd.c:2731:26
	ldr	r0, [sp, #4]
	.loc	2 2731 14 is_stmt 0     @ ../Driver/sdio_sd.c:2731:14
	ubfx	r0, r0, #9, #4
	.loc	2 2731 12               @ ../Driver/sdio_sd.c:2731:12
	strb	r0, [r5]
	ldr	r0, __arm_cp.30_2
.Ltmp570:
	.loc	2 2733 8 is_stmt 1      @ ../Driver/sdio_sd.c:2733:8
	ldr	r1, [sp, #4]
.Ltmp571:
	.loc	2 2733 7 is_stmt 0      @ ../Driver/sdio_sd.c:2733:7
	tst	r1, r0
	beq	.LBB30_28
.Ltmp572:
@ %bb.6:
	@DEBUG_VALUE: IsCardProgramming:pstatus <- $r5
	.loc	2 2738 7 is_stmt 1      @ ../Driver/sdio_sd.c:2738:7
	ldr	r0, [sp, #4]
.Ltmp573:
	.loc	2 2738 7 is_stmt 0      @ ../Driver/sdio_sd.c:2738:7
	cmp	r0, #0
	blt	.LBB30_29
.Ltmp574:
@ %bb.7:
	@DEBUG_VALUE: IsCardProgramming:pstatus <- $r5
	.loc	2 2743 7 is_stmt 1      @ ../Driver/sdio_sd.c:2743:7
	ldr	r0, [sp, #4]
.Ltmp575:
	.loc	2 2743 7 is_stmt 0      @ ../Driver/sdio_sd.c:2743:7
	lsls	r0, r0, #1
	bmi	.LBB30_30
.Ltmp576:
@ %bb.8:
	@DEBUG_VALUE: IsCardProgramming:pstatus <- $r5
	.loc	2 2748 7 is_stmt 1      @ ../Driver/sdio_sd.c:2748:7
	ldr	r0, [sp, #4]
.Ltmp577:
	.loc	2 2748 7 is_stmt 0      @ ../Driver/sdio_sd.c:2748:7
	lsls	r0, r0, #2
	bmi	.LBB30_31
.Ltmp578:
@ %bb.9:
	@DEBUG_VALUE: IsCardProgramming:pstatus <- $r5
	.loc	2 2753 7 is_stmt 1      @ ../Driver/sdio_sd.c:2753:7
	ldr	r0, [sp, #4]
.Ltmp579:
	.loc	2 2753 7 is_stmt 0      @ ../Driver/sdio_sd.c:2753:7
	lsls	r0, r0, #3
	bmi	.LBB30_32
.Ltmp580:
@ %bb.10:
	@DEBUG_VALUE: IsCardProgramming:pstatus <- $r5
	.loc	2 2758 7 is_stmt 1      @ ../Driver/sdio_sd.c:2758:7
	ldr	r0, [sp, #4]
.Ltmp581:
	.loc	2 2758 7 is_stmt 0      @ ../Driver/sdio_sd.c:2758:7
	lsls	r0, r0, #4
	bmi	.LBB30_33
.Ltmp582:
@ %bb.11:
	@DEBUG_VALUE: IsCardProgramming:pstatus <- $r5
	.loc	2 2763 7 is_stmt 1      @ ../Driver/sdio_sd.c:2763:7
	ldr	r0, [sp, #4]
.Ltmp583:
	.loc	2 2763 7 is_stmt 0      @ ../Driver/sdio_sd.c:2763:7
	lsls	r0, r0, #5
	bmi	.LBB30_34
.Ltmp584:
@ %bb.12:
	@DEBUG_VALUE: IsCardProgramming:pstatus <- $r5
	.loc	2 2768 7 is_stmt 1      @ ../Driver/sdio_sd.c:2768:7
	ldr	r0, [sp, #4]
.Ltmp585:
	.loc	2 2768 7 is_stmt 0      @ ../Driver/sdio_sd.c:2768:7
	lsls	r0, r0, #7
	bmi	.LBB30_35
.Ltmp586:
@ %bb.13:
	@DEBUG_VALUE: IsCardProgramming:pstatus <- $r5
	.loc	2 2773 7 is_stmt 1      @ ../Driver/sdio_sd.c:2773:7
	ldr	r0, [sp, #4]
.Ltmp587:
	.loc	2 2773 7 is_stmt 0      @ ../Driver/sdio_sd.c:2773:7
	lsls	r0, r0, #8
	bmi	.LBB30_36
.Ltmp588:
@ %bb.14:
	@DEBUG_VALUE: IsCardProgramming:pstatus <- $r5
	.loc	2 2778 7 is_stmt 1      @ ../Driver/sdio_sd.c:2778:7
	ldr	r0, [sp, #4]
.Ltmp589:
	.loc	2 2778 7 is_stmt 0      @ ../Driver/sdio_sd.c:2778:7
	lsls	r0, r0, #9
	bmi	.LBB30_27
.Ltmp590:
@ %bb.15:
	@DEBUG_VALUE: IsCardProgramming:pstatus <- $r5
	.loc	2 2783 7 is_stmt 1      @ ../Driver/sdio_sd.c:2783:7
	ldr	r0, [sp, #4]
.Ltmp591:
	.loc	2 2783 7 is_stmt 0      @ ../Driver/sdio_sd.c:2783:7
	lsls	r0, r0, #10
	bmi	.LBB30_37
.Ltmp592:
@ %bb.16:
	@DEBUG_VALUE: IsCardProgramming:pstatus <- $r5
	.loc	2 2788 7 is_stmt 1      @ ../Driver/sdio_sd.c:2788:7
	ldr	r0, [sp, #4]
.Ltmp593:
	.loc	2 2788 7 is_stmt 0      @ ../Driver/sdio_sd.c:2788:7
	lsls	r0, r0, #11
	bmi	.LBB30_38
.Ltmp594:
@ %bb.17:
	@DEBUG_VALUE: IsCardProgramming:pstatus <- $r5
	.loc	2 2793 7 is_stmt 1      @ ../Driver/sdio_sd.c:2793:7
	ldr	r0, [sp, #4]
.Ltmp595:
	.loc	2 2793 7 is_stmt 0      @ ../Driver/sdio_sd.c:2793:7
	lsls	r0, r0, #12
	bmi	.LBB30_39
.Ltmp596:
@ %bb.18:
	@DEBUG_VALUE: IsCardProgramming:pstatus <- $r5
	.loc	2 2798 7 is_stmt 1      @ ../Driver/sdio_sd.c:2798:7
	ldr	r0, [sp, #4]
.Ltmp597:
	.loc	2 2798 7 is_stmt 0      @ ../Driver/sdio_sd.c:2798:7
	lsls	r0, r0, #13
	bmi	.LBB30_40
.Ltmp598:
@ %bb.19:
	@DEBUG_VALUE: IsCardProgramming:pstatus <- $r5
	.loc	2 2803 7 is_stmt 1      @ ../Driver/sdio_sd.c:2803:7
	ldr	r0, [sp, #4]
.Ltmp599:
	.loc	2 2803 7 is_stmt 0      @ ../Driver/sdio_sd.c:2803:7
	lsls	r0, r0, #14
	bmi	.LBB30_41
.Ltmp600:
@ %bb.20:
	@DEBUG_VALUE: IsCardProgramming:pstatus <- $r5
	.loc	2 2808 7 is_stmt 1      @ ../Driver/sdio_sd.c:2808:7
	ldr	r0, [sp, #4]
.Ltmp601:
	.loc	2 2808 7 is_stmt 0      @ ../Driver/sdio_sd.c:2808:7
	lsls	r0, r0, #15
	bmi	.LBB30_42
.Ltmp602:
@ %bb.21:
	@DEBUG_VALUE: IsCardProgramming:pstatus <- $r5
	.loc	2 2813 7 is_stmt 1      @ ../Driver/sdio_sd.c:2813:7
	ldr	r0, [sp, #4]
.Ltmp603:
	.loc	2 2813 7 is_stmt 0      @ ../Driver/sdio_sd.c:2813:7
	lsls	r0, r0, #16
	bmi	.LBB30_43
.Ltmp604:
@ %bb.22:
	@DEBUG_VALUE: IsCardProgramming:pstatus <- $r5
	.loc	2 2818 7 is_stmt 1      @ ../Driver/sdio_sd.c:2818:7
	ldr	r0, [sp, #4]
.Ltmp605:
	.loc	2 2818 7 is_stmt 0      @ ../Driver/sdio_sd.c:2818:7
	lsls	r0, r0, #17
	bmi	.LBB30_44
.Ltmp606:
@ %bb.23:
	@DEBUG_VALUE: IsCardProgramming:pstatus <- $r5
	.loc	2 2823 7 is_stmt 1      @ ../Driver/sdio_sd.c:2823:7
	ldr	r0, [sp, #4]
.Ltmp607:
	.loc	2 2823 7 is_stmt 0      @ ../Driver/sdio_sd.c:2823:7
	lsls	r0, r0, #18
	bmi	.LBB30_45
.Ltmp608:
@ %bb.24:
	@DEBUG_VALUE: IsCardProgramming:pstatus <- $r5
	.loc	2 2828 7 is_stmt 1      @ ../Driver/sdio_sd.c:2828:7
	ldr	r0, [sp, #4]
	movs	r1, #26
	.loc	2 2828 14 is_stmt 0     @ ../Driver/sdio_sd.c:2828:14
	lsls	r0, r0, #28
.Ltmp609:
	.loc	2 2828 7                @ ../Driver/sdio_sd.c:2828:7
	and.w	r4, r1, r0, asr #31
	b	.LBB30_28
.Ltmp610:
.LBB30_25:
	@DEBUG_VALUE: IsCardProgramming:pstatus <- $r5
	@DEBUG_VALUE: IsCardProgramming:errorstatus <- 3
	.loc	2 2704 5 is_stmt 1      @ ../Driver/sdio_sd.c:2704:5
	movs	r0, #4
	bl	SDIO_ClearFlag
	movs	r4, #3
	b	.LBB30_28
.Ltmp611:
.LBB30_26:
	@DEBUG_VALUE: IsCardProgramming:pstatus <- $r5
	@DEBUG_VALUE: IsCardProgramming:errorstatus <- 1
	.loc	2 2710 5                @ ../Driver/sdio_sd.c:2710:5
	movs	r0, #1
	movs	r4, #1
	bl	SDIO_ClearFlag
	b	.LBB30_28
.Ltmp612:
.LBB30_27:
	@DEBUG_VALUE: IsCardProgramming:pstatus <- $r5
	.loc	2 0 5 is_stmt 0         @ ../Driver/sdio_sd.c:0:5
	movs	r4, #16
.Ltmp613:
.LBB30_28:
	@DEBUG_VALUE: IsCardProgramming:pstatus <- $r5
	.loc	2 2834 1 is_stmt 1      @ ../Driver/sdio_sd.c:2834:1
	mov	r0, r4
	add	sp, #8
	pop	{r4, r5, r7, pc}
.Ltmp614:
.LBB30_29:
	@DEBUG_VALUE: IsCardProgramming:pstatus <- $r5
	.loc	2 0 1 is_stmt 0         @ ../Driver/sdio_sd.c:0:1
	movs	r4, #28
	b	.LBB30_28
.Ltmp615:
.LBB30_30:
	@DEBUG_VALUE: IsCardProgramming:pstatus <- $r5
	movs	r4, #9
	b	.LBB30_28
.Ltmp616:
.LBB30_31:
	@DEBUG_VALUE: IsCardProgramming:pstatus <- $r5
	movs	r4, #10
	b	.LBB30_28
.Ltmp617:
.LBB30_32:
	@DEBUG_VALUE: IsCardProgramming:pstatus <- $r5
	movs	r4, #11
	b	.LBB30_28
.Ltmp618:
.LBB30_33:
	@DEBUG_VALUE: IsCardProgramming:pstatus <- $r5
	movs	r4, #12
	b	.LBB30_28
.Ltmp619:
.LBB30_34:
	@DEBUG_VALUE: IsCardProgramming:pstatus <- $r5
	movs	r4, #13
	b	.LBB30_28
.Ltmp620:
.LBB30_35:
	@DEBUG_VALUE: IsCardProgramming:pstatus <- $r5
	movs	r4, #14
	b	.LBB30_28
.Ltmp621:
.LBB30_36:
	@DEBUG_VALUE: IsCardProgramming:pstatus <- $r5
	movs	r4, #15
	b	.LBB30_28
.Ltmp622:
.LBB30_37:
	@DEBUG_VALUE: IsCardProgramming:pstatus <- $r5
	movs	r4, #17
	b	.LBB30_28
.Ltmp623:
.LBB30_38:
	@DEBUG_VALUE: IsCardProgramming:pstatus <- $r5
	movs	r4, #18
	b	.LBB30_28
.Ltmp624:
.LBB30_39:
	@DEBUG_VALUE: IsCardProgramming:pstatus <- $r5
	movs	r4, #19
	b	.LBB30_28
.Ltmp625:
.LBB30_40:
	@DEBUG_VALUE: IsCardProgramming:pstatus <- $r5
	movs	r4, #20
	b	.LBB30_28
.Ltmp626:
.LBB30_41:
	@DEBUG_VALUE: IsCardProgramming:pstatus <- $r5
	movs	r4, #21
	b	.LBB30_28
.Ltmp627:
.LBB30_42:
	@DEBUG_VALUE: IsCardProgramming:pstatus <- $r5
	movs	r4, #22
	b	.LBB30_28
.Ltmp628:
.LBB30_43:
	@DEBUG_VALUE: IsCardProgramming:pstatus <- $r5
	movs	r4, #23
	b	.LBB30_28
.Ltmp629:
.LBB30_44:
	@DEBUG_VALUE: IsCardProgramming:pstatus <- $r5
	movs	r4, #24
	b	.LBB30_28
.Ltmp630:
.LBB30_45:
	@DEBUG_VALUE: IsCardProgramming:pstatus <- $r5
	movs	r4, #25
	b	.LBB30_28
.Ltmp631:
	.p2align	2
@ %bb.46:
__arm_cp.30_0:
	.long	.L_MergedGlobals
.Lcpi_end49:
	.size	__arm_cp.30_0, .Lcpi_end49-__arm_cp.30_0
__arm_cp.30_1:
	.long	1073818676              @ 0x40012c34
.Lcpi_end50:
	.size	__arm_cp.30_1, .Lcpi_end50-__arm_cp.30_1
__arm_cp.30_2:
	.long	4261404680              @ 0xfdffe008
.Lcpi_end51:
	.size	__arm_cp.30_2, .Lcpi_end51-__arm_cp.30_2
.Lfunc_end30:
	.size	IsCardProgramming, .Lfunc_end30-IsCardProgramming
	.cfi_endproc
	.cantunwind
	.fnend
                                        @ -- End function
	.section	.text.SD_ProcessIRQSrc,"ax",%progbits
	.hidden	SD_ProcessIRQSrc        @ -- Begin function SD_ProcessIRQSrc
	.globl	SD_ProcessIRQSrc
	.p2align	2
	.type	SD_ProcessIRQSrc,%function
	.code	16                      @ @SD_ProcessIRQSrc
	.thumb_func
SD_ProcessIRQSrc:
.Lfunc_begin31:
	.loc	2 2164 0 is_stmt 1      @ ../Driver/sdio_sd.c:2164:0
	.fnstart
	.cfi_startproc
@ %bb.0:
	.save	{r4, lr}
	push	{r4, lr}
	.cfi_def_cfa_offset 8
	.cfi_offset lr, -4
	.cfi_offset r4, -8
.Ltmp632:
	.loc	2 2165 7 prologue_end   @ ../Driver/sdio_sd.c:2165:7
	mov.w	r0, #256
	bl	SDIO_GetITStatus
.Ltmp633:
	.loc	2 2165 7 is_stmt 0      @ ../Driver/sdio_sd.c:2165:7
	cbz	r0, .LBB31_2
@ %bb.1:
.Ltmp634:
	.loc	2 2167 19 is_stmt 1     @ ../Driver/sdio_sd.c:2167:19
	ldr	r4, __arm_cp.31_0
	movs	r0, #0
	strb	r0, [r4]
	.loc	2 2168 5                @ ../Driver/sdio_sd.c:2168:5
	mov.w	r0, #256
	bl	SDIO_ClearITPendingBit
	movs	r0, #1
	.loc	2 2169 17               @ ../Driver/sdio_sd.c:2169:17
	str	r0, [r4, #12]
	b	.LBB31_13
.Ltmp635:
.LBB31_2:
	.loc	2 2171 12               @ ../Driver/sdio_sd.c:2171:12
	movs	r0, #2
	movs	r4, #2
	bl	SDIO_GetITStatus
.Ltmp636:
	.loc	2 2171 12 is_stmt 0     @ ../Driver/sdio_sd.c:2171:12
	cbz	r0, .LBB31_4
@ %bb.3:
.Ltmp637:
	.loc	2 2173 5 is_stmt 1      @ ../Driver/sdio_sd.c:2173:5
	movs	r0, #2
	bl	SDIO_ClearITPendingBit
	.loc	2 2174 19               @ ../Driver/sdio_sd.c:2174:19
	ldr	r0, __arm_cp.31_0
	strb	r4, [r0]
	b	.LBB31_13
.Ltmp638:
.LBB31_4:
	.loc	2 2176 12               @ ../Driver/sdio_sd.c:2176:12
	movs	r0, #8
	bl	SDIO_GetITStatus
.Ltmp639:
	.loc	2 2176 12 is_stmt 0     @ ../Driver/sdio_sd.c:2176:12
	cbz	r0, .LBB31_6
@ %bb.5:
.Ltmp640:
	.loc	2 2178 5 is_stmt 1      @ ../Driver/sdio_sd.c:2178:5
	movs	r0, #8
	bl	SDIO_ClearITPendingBit
	.loc	2 2179 19               @ ../Driver/sdio_sd.c:2179:19
	ldr	r0, __arm_cp.31_0
	movs	r1, #4
	b	.LBB31_12
.Ltmp641:
.LBB31_6:
	.loc	2 2181 12               @ ../Driver/sdio_sd.c:2181:12
	movs	r0, #32
	bl	SDIO_GetITStatus
.Ltmp642:
	.loc	2 2181 12 is_stmt 0     @ ../Driver/sdio_sd.c:2181:12
	cbz	r0, .LBB31_8
@ %bb.7:
.Ltmp643:
	.loc	2 2183 5 is_stmt 1      @ ../Driver/sdio_sd.c:2183:5
	movs	r0, #32
	bl	SDIO_ClearITPendingBit
	.loc	2 2184 19               @ ../Driver/sdio_sd.c:2184:19
	ldr	r0, __arm_cp.31_0
	movs	r1, #6
	b	.LBB31_12
.Ltmp644:
.LBB31_8:
	.loc	2 2186 12               @ ../Driver/sdio_sd.c:2186:12
	movs	r0, #16
	bl	SDIO_GetITStatus
.Ltmp645:
	.loc	2 2186 12 is_stmt 0     @ ../Driver/sdio_sd.c:2186:12
	cbz	r0, .LBB31_10
@ %bb.9:
.Ltmp646:
	.loc	2 2188 5 is_stmt 1      @ ../Driver/sdio_sd.c:2188:5
	movs	r0, #16
	bl	SDIO_ClearITPendingBit
	.loc	2 2189 19               @ ../Driver/sdio_sd.c:2189:19
	ldr	r0, __arm_cp.31_0
	movs	r1, #5
	b	.LBB31_12
.Ltmp647:
.LBB31_10:
	.loc	2 2191 12               @ ../Driver/sdio_sd.c:2191:12
	mov.w	r0, #512
	bl	SDIO_GetITStatus
.Ltmp648:
	.loc	2 2191 12 is_stmt 0     @ ../Driver/sdio_sd.c:2191:12
	cbz	r0, .LBB31_13
@ %bb.11:
.Ltmp649:
	.loc	2 2193 5 is_stmt 1      @ ../Driver/sdio_sd.c:2193:5
	mov.w	r0, #512
	bl	SDIO_ClearITPendingBit
	.loc	2 2194 19               @ ../Driver/sdio_sd.c:2194:19
	ldr	r0, __arm_cp.31_0
	movs	r1, #7
.Ltmp650:
.LBB31_12:
	.loc	2 0 0 is_stmt 0         @ ../Driver/sdio_sd.c:0:0
	strb	r1, [r0]
.Ltmp651:
.LBB31_13:
	.loc	2 2197 3 is_stmt 1      @ ../Driver/sdio_sd.c:2197:3
	movw	r0, #49978
	movs	r1, #0
	bl	SDIO_ITConfig
	.loc	2 2200 10               @ ../Driver/sdio_sd.c:2200:10
	ldr	r0, __arm_cp.31_0
	ldrb	r0, [r0]
	.loc	2 2200 3 is_stmt 0      @ ../Driver/sdio_sd.c:2200:3
	pop	{r4, pc}
.Ltmp652:
	.p2align	2
@ %bb.14:
	.loc	2 0 3                   @ ../Driver/sdio_sd.c:0:3
__arm_cp.31_0:
	.long	.L_MergedGlobals
.Lcpi_end52:
	.size	__arm_cp.31_0, .Lcpi_end52-__arm_cp.31_0
.Lfunc_end31:
	.size	SD_ProcessIRQSrc, .Lfunc_end31-SD_ProcessIRQSrc
	.cfi_endproc
	.cantunwind
	.fnend
                                        @ -- End function
	.section	.text.SD_ProcessDMAIRQ,"ax",%progbits
	.hidden	SD_ProcessDMAIRQ        @ -- Begin function SD_ProcessDMAIRQ
	.globl	SD_ProcessDMAIRQ
	.p2align	2
	.type	SD_ProcessDMAIRQ,%function
	.code	16                      @ @SD_ProcessDMAIRQ
	.thumb_func
SD_ProcessDMAIRQ:
.Lfunc_begin32:
	.loc	2 2209 0 is_stmt 1      @ ../Driver/sdio_sd.c:2209:0
	.fnstart
	.cfi_startproc
@ %bb.0:
	ldr	r0, __arm_cp.32_0
.Ltmp653:
	.loc	2 2210 12 prologue_end  @ ../Driver/sdio_sd.c:2210:12
	ldr	r1, [r0]
.Ltmp654:
	.loc	2 2210 6 is_stmt 0      @ ../Driver/sdio_sd.c:2210:6
	tst.w	r1, #402653184
	.loc	2 2215 1 is_stmt 1      @ ../Driver/sdio_sd.c:2215:1
	it	eq
	bxeq	lr
.Ltmp655:
	.loc	2 2212 22               @ ../Driver/sdio_sd.c:2212:22
	ldr	r1, __arm_cp.32_1
	movs	r2, #1
	.loc	2 2213 5                @ ../Driver/sdio_sd.c:2213:5
	adds	r0, #88
	.loc	2 2212 22               @ ../Driver/sdio_sd.c:2212:22
	str	r2, [r1, #16]
	.loc	2 2213 5                @ ../Driver/sdio_sd.c:2213:5
	mov.w	r1, #406847488
	b	DMA_ClearFlag
.Ltmp656:
	.p2align	2
@ %bb.1:
	.loc	2 0 5 is_stmt 0         @ ../Driver/sdio_sd.c:0:5
__arm_cp.32_0:
	.long	1073898496              @ 0x40026400
.Lcpi_end53:
	.size	__arm_cp.32_0, .Lcpi_end53-__arm_cp.32_0
__arm_cp.32_1:
	.long	.L_MergedGlobals
.Lcpi_end54:
	.size	__arm_cp.32_1, .Lcpi_end54-__arm_cp.32_1
.Lfunc_end32:
	.size	SD_ProcessDMAIRQ, .Lfunc_end32-SD_ProcessDMAIRQ
	.cfi_endproc
	.cantunwind
	.fnend
                                        @ -- End function
	.section	.text.convert_from_bytes_to_power_of_two,"ax",%progbits
	.hidden	convert_from_bytes_to_power_of_two @ -- Begin function convert_from_bytes_to_power_of_two
	.globl	convert_from_bytes_to_power_of_two
	.p2align	1
	.type	convert_from_bytes_to_power_of_two,%function
	.code	16                      @ @convert_from_bytes_to_power_of_two
	.thumb_func
convert_from_bytes_to_power_of_two:
.Lfunc_begin33:
	.loc	2 2952 0 is_stmt 1      @ ../Driver/sdio_sd.c:2952:0
	.fnstart
	.cfi_startproc
@ %bb.0:
	@DEBUG_VALUE: convert_from_bytes_to_power_of_two:NumberOfBytes <- $r0
	movs	r1, #0
.Ltmp657:
	@DEBUG_VALUE: convert_from_bytes_to_power_of_two:count <- 0
.LBB33_1:                               @ =>This Inner Loop Header: Depth=1
	@DEBUG_VALUE: convert_from_bytes_to_power_of_two:NumberOfBytes <- $r0
	@DEBUG_VALUE: convert_from_bytes_to_power_of_two:NumberOfBytes <- $r0
	@DEBUG_VALUE: convert_from_bytes_to_power_of_two:count <- $r1
	.loc	2 2955 3 prologue_end   @ ../Driver/sdio_sd.c:2955:3
	cmp	r0, #1
	.loc	2 2960 3                @ ../Driver/sdio_sd.c:2960:3
	itt	eq
	uxtbeq	r0, r1
.Ltmp658:
	bxeq	lr
.Ltmp659:
	.loc	2 2958 10               @ ../Driver/sdio_sd.c:2958:10
	adds	r1, #1
.Ltmp660:
	@DEBUG_VALUE: convert_from_bytes_to_power_of_two:count <- $r1
	.loc	2 2957 19               @ ../Driver/sdio_sd.c:2957:19
	lsrs	r0, r0, #1
.Ltmp661:
	@DEBUG_VALUE: convert_from_bytes_to_power_of_two:NumberOfBytes <- $r0
	.loc	2 0 19 is_stmt 0        @ ../Driver/sdio_sd.c:0:19
	b	.LBB33_1
.Ltmp662:
.Lfunc_end33:
	.size	convert_from_bytes_to_power_of_two, .Lfunc_end33-convert_from_bytes_to_power_of_two
	.cfi_endproc
	.cantunwind
	.fnend
                                        @ -- End function
	.hidden	SDCardInfo              @ @SDCardInfo
	.type	SDCardInfo,%object
	.section	.bss.SDCardInfo,"aw",%nobits
	.globl	SDCardInfo
	.p2align	3
SDCardInfo:
	.zero	88
	.size	SDCardInfo, 88

	.type	SDSTATUS_Tab,%object    @ @SDSTATUS_Tab
	.section	.bss.SDSTATUS_Tab,"aw",%nobits
SDSTATUS_Tab:
	.zero	16
	.size	SDSTATUS_Tab, 16

	.type	.L_MergedGlobals,%object @ @_MergedGlobals
	.section	.bss..L_MergedGlobals,"aw",%nobits
	.p2align	2
.L_MergedGlobals:
	.zero	124
	.size	.L_MergedGlobals, 124

	.file	7 "F:\\SkyDrive\\OtvoreniProjekti\\HotelSaplast\\fw\\KontrolerHotela\\HCBL020318\\Project" "../Libraries/STM32F4xx_StdPeriph_Driver/inc\\stm32f4xx_dma.h"
	.section	".note.GNU-stack","",%progbits
	.eabi_attribute	30, 4	@ Tag_ABI_optimization_goals
	.ARM_attribute	16, 1	@ Tag_AV_eba