	.text
	.syntax unified
	.eabi_attribute	67, "2.09"	@ Tag_conformance
	.cpu	cortex-m4
	.eabi_attribute	6, 13	@ Tag_CPU_arch
	.eabi_attribute	7, 77	@ Tag_CPU_arch_profile
	.eabi_attribute	8, 0	@ Tag_ARM_ISA_use
	.eabi_attribute	9, 2	@ Tag_THUMB_ISA_use
	.fpu	fpv4-sp-d16
	.eabi_attribute	27, 1	@ Tag_ABI_HardFP_use
	.eabi_attribute	36, 1	@ Tag_FP_HP_extension
	.eabi_attribute	34, 1	@ Tag_CPU_unaligned_access
	.eabi_attribute	17, 1	@ Tag_ABI_PCS_GOT_use
	.eabi_attribute	20, 2	@ Tag_ABI_FP_denormal
	.eabi_attribute	21, 0	@ Tag_ABI_FP_exceptions
	.eabi_attribute	23, 1	@ Tag_ABI_FP_number_model
	.eabi_attribute	24, 1	@ Tag_ABI_align_needed
	.eabi_attribute	25, 1	@ Tag_ABI_align_preserved
	.eabi_attribute	28, 1	@ Tag_ABI_VFP_args
	.eabi_attribute	38, 1	@ Tag_ABI_FP_16bit_format
	.eabi_attribute	18, 2	@ Tag_ABI_PCS_wchar_t
	.eabi_attribute	26, 1	@ Tag_ABI_enum_size
	.eabi_attribute	14, 0	@ Tag_ABI_PCS_R9_use
	.file	"stm32f4xx_fmc.c"
	.file	1 "C:\\Keil\\ARM\\ARMCLANG\\Bin\\..\\include" "stdint.h"
	.file	2 "F:\\SkyDrive\\OtvoreniProjekti\\HotelSaplast\\fw\\KontrolerHotela\\HCBL020318\\Project" "../Libraries/STM32F4xx_StdPeriph_Driver/inc\\stm32f4xx_fmc.h"
	.file	3 "F:\\SkyDrive\\OtvoreniProjekti\\HotelSaplast\\fw\\KontrolerHotela\\HCBL020318\\Project" "../Libraries/STM32F4xx_StdPeriph_Driver/src/stm32f4xx_fmc.c"
	.file	4 "F:\\SkyDrive\\OtvoreniProjekti\\HotelSaplast\\fw\\KontrolerHotela\\HCBL020318\\Project" "../Libraries/CMSIS/Device/ST/STM32F4xx/Include\\stm32f4xx.h"
	.section	.text.FMC_NORSRAMDeInit,"ax",%progbits
	.hidden	FMC_NORSRAMDeInit       @ -- Begin function FMC_NORSRAMDeInit
	.globl	FMC_NORSRAMDeInit
	.p2align	2
	.type	FMC_NORSRAMDeInit,%function
	.code	16                      @ @FMC_NORSRAMDeInit
	.thumb_func
FMC_NORSRAMDeInit:
.Lfunc_begin0:
	.loc	3 137 0                 @ ../Libraries/STM32F4xx_StdPeriph_Driver/src/stm32f4xx_fmc.c:137:0
	.fnstart
	.cfi_sections .debug_frame
	.cfi_startproc
@ %bb.0:
	@DEBUG_VALUE: FMC_NORSRAMDeInit:FMC_Bank <- $r0
	movw	r1, #12498
	@DEBUG_VALUE: FMC_NORSRAMDeInit:FMC_Bank <- $r0
.Ltmp0:
	.loc	3 142 6 prologue_end    @ ../Libraries/STM32F4xx_StdPeriph_Driver/src/stm32f4xx_fmc.c:142:6
	cmp	r0, #0
	mov.w	r2, #-1610612736
	it	eq
	movweq	r1, #12507
.Ltmp1:
	.loc	3 0 0 is_stmt 0         @ ../Libraries/STM32F4xx_StdPeriph_Driver/src/stm32f4xx_fmc.c:0:0
	str.w	r1, [r2, r0, lsl #2]
	mvn	r2, #-268435456
	ldr	r1, __arm_cp.0_0
.Ltmp2:
	.loc	3 151 33 is_stmt 1      @ ../Libraries/STM32F4xx_StdPeriph_Driver/src/stm32f4xx_fmc.c:151:33
	str.w	r2, [r1, r0, lsl #2]
	ldr	r1, __arm_cp.0_1
	.loc	3 152 30                @ ../Libraries/STM32F4xx_StdPeriph_Driver/src/stm32f4xx_fmc.c:152:30
	str.w	r2, [r1, r0, lsl #2]
	.loc	3 153 1                 @ ../Libraries/STM32F4xx_StdPeriph_Driver/src/stm32f4xx_fmc.c:153:1
	bx	lr
.Ltmp3:
	.p2align	2
@ %bb.1:
	.loc	3 0 1 is_stmt 0         @ ../Libraries/STM32F4xx_StdPeriph_Driver/src/stm32f4xx_fmc.c:0:1
__arm_cp.0_0:
	.long	2684354564              @ 0xa0000004
.Lcpi_end0:
	.size	__arm_cp.0_0, .Lcpi_end0-__arm_cp.0_0
__arm_cp.0_1:
	.long	2684354820              @ 0xa0000104
.Lcpi_end1:
	.size	__arm_cp.0_1, .Lcpi_end1-__arm_cp.0_1
.Lfunc_end0:
	.size	FMC_NORSRAMDeInit, .Lfunc_end0-FMC_NORSRAMDeInit
	.cfi_endproc
	.cantunwind
	.fnend
                                        @ -- End function
	.section	.text.FMC_NORSRAMInit,"ax",%progbits
	.hidden	FMC_NORSRAMInit         @ -- Begin function FMC_NORSRAMInit
	.globl	FMC_NORSRAMInit
	.p2align	2
	.type	FMC_NORSRAMInit,%function
	.code	16                      @ @FMC_NORSRAMInit
	.thumb_func
FMC_NORSRAMInit:
.Lfunc_begin1:
	.loc	3 164 0 is_stmt 1       @ ../Libraries/STM32F4xx_StdPeriph_Driver/src/stm32f4xx_fmc.c:164:0
	.fnstart
	.cfi_startproc
@ %bb.0:
	.save	{r4, r5, r6, r7, r8, r9, lr}
	push.w	{r4, r5, r6, r7, r8, r9, lr}
	.cfi_def_cfa_offset 28
	.cfi_offset lr, -4
	.cfi_offset r9, -8
	.cfi_offset r8, -12
	.cfi_offset r7, -16
	.cfi_offset r6, -20
	.cfi_offset r5, -24
	.cfi_offset r4, -28
	@DEBUG_VALUE: FMC_NORSRAMInit:FMC_NORSRAMInitStruct <- $r0
	@DEBUG_VALUE: FMC_NORSRAMInit:FMC_NORSRAMInitStruct <- $r0
.Ltmp4:
	@DEBUG_VALUE: FMC_NORSRAMInit:tmpr <- 0
	@DEBUG_VALUE: FMC_NORSRAMInit:tmpbcr <- 0
	.loc	3 191 51 prologue_end   @ ../Libraries/STM32F4xx_StdPeriph_Driver/src/stm32f4xx_fmc.c:191:51
	ldrd	lr, r3, [r0]
	.loc	3 205 47                @ ../Libraries/STM32F4xx_StdPeriph_Driver/src/stm32f4xx_fmc.c:205:47
	add.w	r7, r0, #16
	mov.w	r12, #-1610612736
	.loc	3 203 47                @ ../Libraries/STM32F4xx_StdPeriph_Driver/src/stm32f4xx_fmc.c:203:47
	ldrd	r8, r9, [r0, #8]
	ldr	r2, __arm_cp.1_0
	.loc	3 205 47                @ ../Libraries/STM32F4xx_StdPeriph_Driver/src/stm32f4xx_fmc.c:205:47
	ldm	r7, {r4, r5, r6, r7}
	.loc	3 191 12                @ ../Libraries/STM32F4xx_StdPeriph_Driver/src/stm32f4xx_fmc.c:191:12
	ldr.w	r1, [r12, lr, lsl #2]
.Ltmp5:
	@DEBUG_VALUE: FMC_NORSRAMInit:tmpbcr <- $r1
	.loc	3 195 10                @ ../Libraries/STM32F4xx_StdPeriph_Driver/src/stm32f4xx_fmc.c:195:10
	ands	r1, r2
.Ltmp6:
	@DEBUG_VALUE: FMC_NORSRAMInit:tmpbcr <- $r1
	.loc	3 202 66                @ ../Libraries/STM32F4xx_StdPeriph_Driver/src/stm32f4xx_fmc.c:202:66
	orrs	r1, r3
.Ltmp7:
	.loc	3 203 62                @ ../Libraries/STM32F4xx_StdPeriph_Driver/src/stm32f4xx_fmc.c:203:62
	orr.w	r1, r1, r8
	.loc	3 204 67                @ ../Libraries/STM32F4xx_StdPeriph_Driver/src/stm32f4xx_fmc.c:204:67
	orr.w	r1, r1, r9
	.loc	3 205 67                @ ../Libraries/STM32F4xx_StdPeriph_Driver/src/stm32f4xx_fmc.c:205:67
	orrs	r1, r4
	.loc	3 206 70                @ ../Libraries/STM32F4xx_StdPeriph_Driver/src/stm32f4xx_fmc.c:206:70
	orrs	r1, r5
	.loc	3 207 60                @ ../Libraries/STM32F4xx_StdPeriph_Driver/src/stm32f4xx_fmc.c:207:60
	orrs	r1, r6
	.loc	3 208 68                @ ../Libraries/STM32F4xx_StdPeriph_Driver/src/stm32f4xx_fmc.c:208:68
	orrs	r1, r7
	.loc	3 209 47                @ ../Libraries/STM32F4xx_StdPeriph_Driver/src/stm32f4xx_fmc.c:209:47
	add.w	r7, r0, #32
	ldm	r7, {r2, r3, r4, r5, r6, r7}
	.loc	3 209 66 is_stmt 0      @ ../Libraries/STM32F4xx_StdPeriph_Driver/src/stm32f4xx_fmc.c:209:66
	orrs	r1, r2
	.loc	3 210 62 is_stmt 1      @ ../Libraries/STM32F4xx_StdPeriph_Driver/src/stm32f4xx_fmc.c:210:62
	orrs	r1, r3
	.loc	3 211 64                @ ../Libraries/STM32F4xx_StdPeriph_Driver/src/stm32f4xx_fmc.c:211:64
	orrs	r1, r4
	.loc	3 212 68                @ ../Libraries/STM32F4xx_StdPeriph_Driver/src/stm32f4xx_fmc.c:212:68
	orrs	r1, r5
	.loc	3 213 62                @ ../Libraries/STM32F4xx_StdPeriph_Driver/src/stm32f4xx_fmc.c:213:62
	orrs	r1, r6
	.loc	3 202 10                @ ../Libraries/STM32F4xx_StdPeriph_Driver/src/stm32f4xx_fmc.c:202:10
	orrs	r1, r7
.Ltmp8:
	@DEBUG_VALUE: FMC_NORSRAMInit:tmpbcr <- $r1
	.loc	3 216 52                @ ../Libraries/STM32F4xx_StdPeriph_Driver/src/stm32f4xx_fmc.c:216:52
	str.w	r1, [r12, lr, lsl #2]
.Ltmp9:
	.loc	3 218 29                @ ../Libraries/STM32F4xx_StdPeriph_Driver/src/stm32f4xx_fmc.c:218:29
	ldr	r1, [r0, #8]
.Ltmp10:
	.loc	3 218 6 is_stmt 0       @ ../Libraries/STM32F4xx_StdPeriph_Driver/src/stm32f4xx_fmc.c:218:6
	cmp	r1, #8
	bne	.LBB1_2
.Ltmp11:
@ %bb.1:
	@DEBUG_VALUE: FMC_NORSRAMInit:FMC_NORSRAMInitStruct <- $r0
	.loc	3 220 44 is_stmt 1      @ ../Libraries/STM32F4xx_StdPeriph_Driver/src/stm32f4xx_fmc.c:220:44
	ldr	r1, [r0]
	.loc	3 220 54 is_stmt 0      @ ../Libraries/STM32F4xx_StdPeriph_Driver/src/stm32f4xx_fmc.c:220:54
	ldr.w	r2, [r12, r1, lsl #2]
	orr	r2, r2, #64
	str.w	r2, [r12, r1, lsl #2]
.Ltmp12:
.LBB1_2:
	@DEBUG_VALUE: FMC_NORSRAMInit:FMC_NORSRAMInitStruct <- $r0
	.loc	3 224 30 is_stmt 1      @ ../Libraries/STM32F4xx_StdPeriph_Driver/src/stm32f4xx_fmc.c:224:30
	ldr	r2, [r0, #52]
	ldr	r1, __arm_cp.1_1
	.loc	3 224 74 is_stmt 0      @ ../Libraries/STM32F4xx_StdPeriph_Driver/src/stm32f4xx_fmc.c:224:74
	cmp.w	r2, #1048576
	mov	lr, r1
	bne	.LBB1_5
.Ltmp13:
@ %bb.3:
	@DEBUG_VALUE: FMC_NORSRAMInit:FMC_NORSRAMInitStruct <- $r0
	.loc	3 224 101               @ ../Libraries/STM32F4xx_StdPeriph_Driver/src/stm32f4xx_fmc.c:224:101
	ldr	r2, [r0]
.Ltmp14:
	.loc	3 224 6                 @ ../Libraries/STM32F4xx_StdPeriph_Driver/src/stm32f4xx_fmc.c:224:6
	cbz	r2, .LBB1_5
.Ltmp15:
@ %bb.4:
	@DEBUG_VALUE: FMC_NORSRAMInit:FMC_NORSRAMInitStruct <- $r0
	.loc	3 0 6                   @ ../Libraries/STM32F4xx_StdPeriph_Driver/src/stm32f4xx_fmc.c:0:6
	mov.w	r3, #-1610612736
.Ltmp16:
	.loc	3 226 24 is_stmt 1      @ ../Libraries/STM32F4xx_StdPeriph_Driver/src/stm32f4xx_fmc.c:226:24
	ldr	r2, [r1]
	ldr	r4, __arm_cp.1_2
	mov	r1, lr
	.loc	3 228 42                @ ../Libraries/STM32F4xx_StdPeriph_Driver/src/stm32f4xx_fmc.c:228:42
	ldr	r7, [r3]
	.loc	3 226 63                @ ../Libraries/STM32F4xx_StdPeriph_Driver/src/stm32f4xx_fmc.c:226:63
	bic	r2, r2, #15728640
.Ltmp17:
	@DEBUG_VALUE: FMC_NORSRAMInit:tmpr <- $r2
	.loc	3 228 42                @ ../Libraries/STM32F4xx_StdPeriph_Driver/src/stm32f4xx_fmc.c:228:42
	orr	r7, r7, #1048576
	str	r7, [r3]
	.loc	3 229 42                @ ../Libraries/STM32F4xx_StdPeriph_Driver/src/stm32f4xx_fmc.c:229:42
	ldr	r7, [r3]
	orr	r7, r7, #256
	str	r7, [r3]
	.loc	3 230 89                @ ../Libraries/STM32F4xx_StdPeriph_Driver/src/stm32f4xx_fmc.c:230:89
	ldr	r3, [r0, #56]
	.loc	3 230 116 is_stmt 0     @ ../Libraries/STM32F4xx_StdPeriph_Driver/src/stm32f4xx_fmc.c:230:116
	ldr	r3, [r3, #16]
	.loc	3 230 136               @ ../Libraries/STM32F4xx_StdPeriph_Driver/src/stm32f4xx_fmc.c:230:136
	add.w	r3, r4, r3, lsl #20
	.loc	3 230 61                @ ../Libraries/STM32F4xx_StdPeriph_Driver/src/stm32f4xx_fmc.c:230:61
	orrs	r2, r3
.Ltmp18:
	.loc	3 230 43                @ ../Libraries/STM32F4xx_StdPeriph_Driver/src/stm32f4xx_fmc.c:230:43
	str.w	r2, [lr]
.Ltmp19:
.LBB1_5:
	@DEBUG_VALUE: FMC_NORSRAMInit:FMC_NORSRAMInitStruct <- $r0
	.loc	3 235 46 is_stmt 1      @ ../Libraries/STM32F4xx_StdPeriph_Driver/src/stm32f4xx_fmc.c:235:46
	ldr	r3, [r0, #56]
	.loc	3 234 42                @ ../Libraries/STM32F4xx_StdPeriph_Driver/src/stm32f4xx_fmc.c:234:42
	ldr.w	r12, [r0]
	.loc	3 235 73                @ ../Libraries/STM32F4xx_StdPeriph_Driver/src/stm32f4xx_fmc.c:235:73
	ldrd	r7, r6, [r3]
	.loc	3 237 74                @ ../Libraries/STM32F4xx_StdPeriph_Driver/src/stm32f4xx_fmc.c:237:74
	ldrd	r5, r4, [r3, #8]
	.loc	3 239 75                @ ../Libraries/STM32F4xx_StdPeriph_Driver/src/stm32f4xx_fmc.c:239:75
	adds	r3, #16
	ldm	r3, {r1, r2, r3}
	.loc	3 235 94                @ ../Libraries/STM32F4xx_StdPeriph_Driver/src/stm32f4xx_fmc.c:235:94
	orr.w	r7, r7, r6, lsl #4
	.loc	3 236 100               @ ../Libraries/STM32F4xx_StdPeriph_Driver/src/stm32f4xx_fmc.c:236:100
	orr.w	r7, r7, r5, lsl #8
	.loc	3 237 98                @ ../Libraries/STM32F4xx_StdPeriph_Driver/src/stm32f4xx_fmc.c:237:98
	orr.w	r7, r7, r4, lsl #16
	.loc	3 238 107               @ ../Libraries/STM32F4xx_StdPeriph_Driver/src/stm32f4xx_fmc.c:238:107
	orr.w	r1, r7, r1, lsl #20
	.loc	3 239 99                @ ../Libraries/STM32F4xx_StdPeriph_Driver/src/stm32f4xx_fmc.c:239:99
	orr.w	r1, r1, r2, lsl #24
	.loc	3 240 99                @ ../Libraries/STM32F4xx_StdPeriph_Driver/src/stm32f4xx_fmc.c:240:99
	orrs	r1, r3
	.loc	3 234 54                @ ../Libraries/STM32F4xx_StdPeriph_Driver/src/stm32f4xx_fmc.c:234:54
	str.w	r1, [lr, r12, lsl #2]
.Ltmp20:
	.loc	3 244 29                @ ../Libraries/STM32F4xx_StdPeriph_Driver/src/stm32f4xx_fmc.c:244:29
	ldr	r1, [r0, #40]
.Ltmp21:
	.loc	3 244 6 is_stmt 0       @ ../Libraries/STM32F4xx_StdPeriph_Driver/src/stm32f4xx_fmc.c:244:6
	cmp.w	r1, #16384
	bne	.LBB1_7
.Ltmp22:
@ %bb.6:
	@DEBUG_VALUE: FMC_NORSRAMInit:FMC_NORSRAMInitStruct <- $r0
	.loc	3 254 49 is_stmt 1      @ ../Libraries/STM32F4xx_StdPeriph_Driver/src/stm32f4xx_fmc.c:254:49
	ldr	r1, [r0, #60]
	.loc	3 254 72 is_stmt 0      @ ../Libraries/STM32F4xx_StdPeriph_Driver/src/stm32f4xx_fmc.c:254:72
	ldm.w	r1, {r2, r3, r7}
	.loc	3 257 74 is_stmt 1      @ ../Libraries/STM32F4xx_StdPeriph_Driver/src/stm32f4xx_fmc.c:257:74
	ldrd	r6, r5, [r1, #16]
	.loc	3 259 72                @ ../Libraries/STM32F4xx_StdPeriph_Driver/src/stm32f4xx_fmc.c:259:72
	ldr	r1, [r1, #24]
	.loc	3 254 93                @ ../Libraries/STM32F4xx_StdPeriph_Driver/src/stm32f4xx_fmc.c:254:93
	orr.w	r2, r2, r3, lsl #4
	.loc	3 255 99                @ ../Libraries/STM32F4xx_StdPeriph_Driver/src/stm32f4xx_fmc.c:255:99
	orr.w	r2, r2, r7, lsl #8
	.loc	3 256 97                @ ../Libraries/STM32F4xx_StdPeriph_Driver/src/stm32f4xx_fmc.c:256:97
	orr.w	r2, r2, r6, lsl #20
	.loc	3 257 98                @ ../Libraries/STM32F4xx_StdPeriph_Driver/src/stm32f4xx_fmc.c:257:98
	orr.w	r2, r2, r5, lsl #24
	.loc	3 258 98                @ ../Libraries/STM32F4xx_StdPeriph_Driver/src/stm32f4xx_fmc.c:258:98
	orrs	r2, r1
	b	.LBB1_8
.Ltmp23:
.LBB1_7:
	@DEBUG_VALUE: FMC_NORSRAMInit:FMC_NORSRAMInitStruct <- $r0
	.loc	3 0 98 is_stmt 0        @ ../Libraries/STM32F4xx_StdPeriph_Driver/src/stm32f4xx_fmc.c:0:98
	mvn	r2, #-268435456
.Ltmp24:
.LBB1_8:
	@DEBUG_VALUE: FMC_NORSRAMInit:FMC_NORSRAMInitStruct <- $r0
	ldr	r0, [r0]
.Ltmp25:
	add.w	r0, lr, r0, lsl #2
	str.w	r2, [r0, #256]
.Ltmp26:
	.loc	3 266 1 is_stmt 1       @ ../Libraries/STM32F4xx_StdPeriph_Driver/src/stm32f4xx_fmc.c:266:1
	pop.w	{r4, r5, r6, r7, r8, r9, pc}
.Ltmp27:
	.p2align	2
@ %bb.9:
	.loc	3 0 1 is_stmt 0         @ ../Libraries/STM32F4xx_StdPeriph_Driver/src/stm32f4xx_fmc.c:0:1
__arm_cp.1_0:
	.long	4293329024              @ 0xffe70080
.Lcpi_end2:
	.size	__arm_cp.1_0, .Lcpi_end2-__arm_cp.1_0
__arm_cp.1_1:
	.long	2684354564              @ 0xa0000004
.Lcpi_end3:
	.size	__arm_cp.1_1, .Lcpi_end3-__arm_cp.1_1
__arm_cp.1_2:
	.long	4293918720              @ 0xfff00000
.Lcpi_end4:
	.size	__arm_cp.1_2, .Lcpi_end4-__arm_cp.1_2
.Lfunc_end1:
	.size	FMC_NORSRAMInit, .Lfunc_end1-FMC_NORSRAMInit
	.cfi_endproc
	.cantunwind
	.fnend
                                        @ -- End function
	.section	.text.FMC_NORSRAMStructInit,"ax",%progbits
	.hidden	FMC_NORSRAMStructInit   @ -- Begin function FMC_NORSRAMStructInit
	.globl	FMC_NORSRAMStructInit
	.p2align	2
	.type	FMC_NORSRAMStructInit,%function
	.code	16                      @ @FMC_NORSRAMStructInit
	.thumb_func
FMC_NORSRAMStructInit:
.Lfunc_begin2:
	.loc	3 275 0 is_stmt 1       @ ../Libraries/STM32F4xx_StdPeriph_Driver/src/stm32f4xx_fmc.c:275:0
	.fnstart
	.cfi_startproc
@ %bb.0:
	@DEBUG_VALUE: FMC_NORSRAMStructInit:FMC_NORSRAMInitStruct <- $r0
	movs	r1, #0
	movs	r3, #2
	@DEBUG_VALUE: FMC_NORSRAMStructInit:FMC_NORSRAMInitStruct <- $r0
	movs	r2, #16
	mov.w	r12, #8192
.Ltmp28:
	.loc	3 277 35 prologue_end   @ ../Libraries/STM32F4xx_StdPeriph_Driver/src/stm32f4xx_fmc.c:277:35
	strd	r1, r3, [r0]
	.loc	3 279 41                @ ../Libraries/STM32F4xx_StdPeriph_Driver/src/stm32f4xx_fmc.c:279:41
	strd	r1, r2, [r0, #8]
	.loc	3 292 52                @ ../Libraries/STM32F4xx_StdPeriph_Driver/src/stm32f4xx_fmc.c:292:52
	ldr	r2, __arm_cp.2_0
	mov.w	r3, #4096
	.loc	3 283 49                @ ../Libraries/STM32F4xx_StdPeriph_Driver/src/stm32f4xx_fmc.c:283:49
	strd	r1, r1, [r0, #16]
	strd	r1, r1, [r0, #24]
	.loc	3 286 45                @ ../Libraries/STM32F4xx_StdPeriph_Driver/src/stm32f4xx_fmc.c:286:45
	strd	r3, r12, [r0, #32]
	.loc	3 288 43                @ ../Libraries/STM32F4xx_StdPeriph_Driver/src/stm32f4xx_fmc.c:288:43
	strd	r1, r1, [r0, #40]
	.loc	3 289 41                @ ../Libraries/STM32F4xx_StdPeriph_Driver/src/stm32f4xx_fmc.c:289:41
	strd	r1, r1, [r0, #48]
	.loc	3 292 52                @ ../Libraries/STM32F4xx_StdPeriph_Driver/src/stm32f4xx_fmc.c:292:52
	strd	r2, r2, [r0, #56]
	.loc	3 294 1                 @ ../Libraries/STM32F4xx_StdPeriph_Driver/src/stm32f4xx_fmc.c:294:1
	bx	lr
.Ltmp29:
	.p2align	2
@ %bb.1:
	.loc	3 0 1 is_stmt 0         @ ../Libraries/STM32F4xx_StdPeriph_Driver/src/stm32f4xx_fmc.c:0:1
__arm_cp.2_0:
	.long	FMC_DefaultTimingStruct
.Lcpi_end5:
	.size	__arm_cp.2_0, .Lcpi_end5-__arm_cp.2_0
.Lfunc_end2:
	.size	FMC_NORSRAMStructInit, .Lfunc_end2-FMC_NORSRAMStructInit
	.cfi_endproc
	.cantunwind
	.fnend
                                        @ -- End function
	.section	.text.FMC_NORSRAMCmd,"ax",%progbits
	.hidden	FMC_NORSRAMCmd          @ -- Begin function FMC_NORSRAMCmd
	.globl	FMC_NORSRAMCmd
	.p2align	2
	.type	FMC_NORSRAMCmd,%function
	.code	16                      @ @FMC_NORSRAMCmd
	.thumb_func
FMC_NORSRAMCmd:
.Lfunc_begin3:
	.loc	3 308 0 is_stmt 1       @ ../Libraries/STM32F4xx_StdPeriph_Driver/src/stm32f4xx_fmc.c:308:0
	.fnstart
	.cfi_startproc
@ %bb.0:
	.save	{r4, r5, r7, lr}
	push	{r4, r5, r7, lr}
	.cfi_def_cfa_offset 16
	.cfi_offset lr, -4
	.cfi_offset r7, -8
	.cfi_offset r5, -12
	.cfi_offset r4, -16
	@DEBUG_VALUE: FMC_NORSRAMCmd:FMC_Bank <- $r0
	@DEBUG_VALUE: FMC_NORSRAMCmd:NewState <- $r1
	mov.w	r2, #-1610612736
	@DEBUG_VALUE: FMC_NORSRAMCmd:NewState <- $r1
	@DEBUG_VALUE: FMC_NORSRAMCmd:FMC_Bank <- $r0
	ldr	r5, __arm_cp.3_0
.Ltmp30:
	.loc	3 312 7 prologue_end    @ ../Libraries/STM32F4xx_StdPeriph_Driver/src/stm32f4xx_fmc.c:312:7
	cmp	r1, #0
.Ltmp31:
	.loc	3 0 0 is_stmt 0         @ ../Libraries/STM32F4xx_StdPeriph_Driver/src/stm32f4xx_fmc.c:0:0
	ldr.w	r3, [r2, r0, lsl #2]
.Ltmp32:
	.loc	3 312 7                 @ ../Libraries/STM32F4xx_StdPeriph_Driver/src/stm32f4xx_fmc.c:312:7
	orr	r4, r3, #1
	it	eq
	andeq.w	r4, r3, r5
.Ltmp33:
	.loc	3 0 0                   @ ../Libraries/STM32F4xx_StdPeriph_Driver/src/stm32f4xx_fmc.c:0:0
	str.w	r4, [r2, r0, lsl #2]
.Ltmp34:
	.loc	3 322 1 is_stmt 1       @ ../Libraries/STM32F4xx_StdPeriph_Driver/src/stm32f4xx_fmc.c:322:1
	pop	{r4, r5, r7, pc}
.Ltmp35:
	.p2align	2
@ %bb.1:
	.loc	3 0 1 is_stmt 0         @ ../Libraries/STM32F4xx_StdPeriph_Driver/src/stm32f4xx_fmc.c:0:1
__arm_cp.3_0:
	.long	1048574                 @ 0xffffe
.Lcpi_end6:
	.size	__arm_cp.3_0, .Lcpi_end6-__arm_cp.3_0
.Lfunc_end3:
	.size	FMC_NORSRAMCmd, .Lfunc_end3-FMC_NORSRAMCmd
	.cfi_endproc
	.cantunwind
	.fnend
                                        @ -- End function
	.section	.text.FMC_NANDDeInit,"ax",%progbits
	.hidden	FMC_NANDDeInit          @ -- Begin function FMC_NANDDeInit
	.globl	FMC_NANDDeInit
	.p2align	2
	.type	FMC_NANDDeInit,%function
	.code	16                      @ @FMC_NANDDeInit
	.thumb_func
FMC_NANDDeInit:
.Lfunc_begin4:
	.loc	3 381 0 is_stmt 1       @ ../Libraries/STM32F4xx_StdPeriph_Driver/src/stm32f4xx_fmc.c:381:0
	.fnstart
	.cfi_startproc
@ %bb.0:
	@DEBUG_VALUE: FMC_NANDDeInit:FMC_Bank <- $r0
	ldr	r2, __arm_cp.4_0
	@DEBUG_VALUE: FMC_NANDDeInit:FMC_Bank <- $r0
.Ltmp36:
	.loc	3 385 6 prologue_end    @ ../Libraries/STM32F4xx_StdPeriph_Driver/src/stm32f4xx_fmc.c:385:6
	cmp	r0, #16
	bne	.LBB4_2
.Ltmp37:
@ %bb.1:
	@DEBUG_VALUE: FMC_NANDDeInit:FMC_Bank <- $r0
	.loc	3 0 6 is_stmt 0         @ ../Libraries/STM32F4xx_StdPeriph_Driver/src/stm32f4xx_fmc.c:0:6
	movs	r1, #24
.Ltmp38:
	.loc	3 388 21 is_stmt 1      @ ../Libraries/STM32F4xx_StdPeriph_Driver/src/stm32f4xx_fmc.c:388:21
	mov	r0, r2
.Ltmp39:
	str	r1, [r0], #12
	add.w	r1, r2, #8
	adds	r2, #4
	b	.LBB4_3
.Ltmp40:
.LBB4_2:
	@DEBUG_VALUE: FMC_NANDDeInit:FMC_Bank <- $r0
	.loc	3 0 21 is_stmt 0        @ ../Libraries/STM32F4xx_StdPeriph_Driver/src/stm32f4xx_fmc.c:0:21
	movs	r0, #24
.Ltmp41:
	add.w	r1, r2, #40
.Ltmp42:
	.loc	3 397 21 is_stmt 1      @ ../Libraries/STM32F4xx_StdPeriph_Driver/src/stm32f4xx_fmc.c:397:21
	str	r0, [r2, #32]
	add.w	r0, r2, #44
	adds	r2, #36
.Ltmp43:
.LBB4_3:
	.loc	3 0 21 is_stmt 0        @ ../Libraries/STM32F4xx_StdPeriph_Driver/src/stm32f4xx_fmc.c:0:21
	movs	r3, #64
	str	r3, [r2]
	mov.w	r2, #-50529028
	str	r2, [r1]
	str	r2, [r0]
.Ltmp44:
	.loc	3 402 1 is_stmt 1       @ ../Libraries/STM32F4xx_StdPeriph_Driver/src/stm32f4xx_fmc.c:402:1
	bx	lr
.Ltmp45:
	.p2align	2
@ %bb.4:
	.loc	3 0 1 is_stmt 0         @ ../Libraries/STM32F4xx_StdPeriph_Driver/src/stm32f4xx_fmc.c:0:1
__arm_cp.4_0:
	.long	2684354656              @ 0xa0000060
.Lcpi_end7:
	.size	__arm_cp.4_0, .Lcpi_end7-__arm_cp.4_0
.Lfunc_end4:
	.size	FMC_NANDDeInit, .Lfunc_end4-FMC_NANDDeInit
	.cfi_endproc
	.cantunwind
	.fnend
                                        @ -- End function
	.section	.text.FMC_NANDInit,"ax",%progbits
	.hidden	FMC_NANDInit            @ -- Begin function FMC_NANDInit
	.globl	FMC_NANDInit
	.p2align	2
	.type	FMC_NANDInit,%function
	.code	16                      @ @FMC_NANDInit
	.thumb_func
FMC_NANDInit:
.Lfunc_begin5:
	.loc	3 412 0 is_stmt 1       @ ../Libraries/STM32F4xx_StdPeriph_Driver/src/stm32f4xx_fmc.c:412:0
	.fnstart
	.cfi_startproc
@ %bb.0:
	.save	{r4, r5, r6, r7, r8, lr}
	push.w	{r4, r5, r6, r7, r8, lr}
	.cfi_def_cfa_offset 24
	.cfi_offset lr, -4
	.cfi_offset r8, -8
	.cfi_offset r7, -12
	.cfi_offset r6, -16
	.cfi_offset r5, -20
	.cfi_offset r4, -24
	@DEBUG_VALUE: FMC_NANDInit:FMC_NANDInitStruct <- $r0
	@DEBUG_VALUE: FMC_NANDInit:FMC_NANDInitStruct <- $r0
.Ltmp46:
	@DEBUG_VALUE: FMC_NANDInit:tmppcr <- 0
	@DEBUG_VALUE: FMC_NANDInit:tmppmem <- 0
	@DEBUG_VALUE: FMC_NANDInit:tmppatt <- 0
	ldr	r1, __arm_cp.5_0
.Ltmp47:
	.loc	3 432 26 prologue_end   @ ../Libraries/STM32F4xx_StdPeriph_Driver/src/stm32f4xx_fmc.c:432:26
	ldrd	r2, lr, [r0]
.Ltmp48:
	.loc	3 453 43                @ ../Libraries/STM32F4xx_StdPeriph_Driver/src/stm32f4xx_fmc.c:453:43
	add.w	r7, r0, #16
	.loc	3 451 43                @ ../Libraries/STM32F4xx_StdPeriph_Driver/src/stm32f4xx_fmc.c:451:43
	ldrd	r12, r4, [r0, #8]
	ldr	r3, __arm_cp.5_1
	.loc	3 453 43                @ ../Libraries/STM32F4xx_StdPeriph_Driver/src/stm32f4xx_fmc.c:453:43
	ldm	r7, {r5, r6, r7}
	mov	r8, r1
.Ltmp49:
	.loc	3 0 0 is_stmt 0         @ ../Libraries/STM32F4xx_StdPeriph_Driver/src/stm32f4xx_fmc.c:0:0
	adds	r1, #32
	cmp	r2, #16
	itt	eq
	moveq	r1, #96
	movteq	r1, #40960
.Ltmp50:
	.loc	3 457 6 is_stmt 1       @ ../Libraries/STM32F4xx_StdPeriph_Driver/src/stm32f4xx_fmc.c:457:6
	cmp	r2, #16
.Ltmp51:
	.loc	3 0 0 is_stmt 0         @ ../Libraries/STM32F4xx_StdPeriph_Driver/src/stm32f4xx_fmc.c:0:0
	ldr	r1, [r1]
.Ltmp52:
	@DEBUG_VALUE: FMC_NANDInit:tmppcr <- $r1
	.loc	3 444 10 is_stmt 1      @ ../Libraries/STM32F4xx_StdPeriph_Driver/src/stm32f4xx_fmc.c:444:10
	and.w	r1, r1, r3
.Ltmp53:
	@DEBUG_VALUE: FMC_NANDInit:tmppcr <- $r1
	.loc	3 451 63                @ ../Libraries/STM32F4xx_StdPeriph_Driver/src/stm32f4xx_fmc.c:451:63
	orr.w	r1, r1, lr
.Ltmp54:
	.loc	3 452 51                @ ../Libraries/STM32F4xx_StdPeriph_Driver/src/stm32f4xx_fmc.c:452:51
	orr.w	r1, r1, r12
	.loc	3 453 59                @ ../Libraries/STM32F4xx_StdPeriph_Driver/src/stm32f4xx_fmc.c:453:59
	orr.w	r1, r1, r4
	mov	r4, r8
	.loc	3 454 68                @ ../Libraries/STM32F4xx_StdPeriph_Driver/src/stm32f4xx_fmc.c:454:68
	orr.w	r1, r1, r5
	orr.w	r1, r1, r6, lsl #9
	.loc	3 449 10                @ ../Libraries/STM32F4xx_StdPeriph_Driver/src/stm32f4xx_fmc.c:449:10
	orr.w	r3, r1, r7, lsl #13
.Ltmp55:
	.loc	3 465 26                @ ../Libraries/STM32F4xx_StdPeriph_Driver/src/stm32f4xx_fmc.c:465:26
	ite	ne
	ldrne.w	r1, [r8, #40]
.Ltmp56:
	@DEBUG_VALUE: FMC_NANDInit:tmppmem <- $r1
	.loc	3 460 26                @ ../Libraries/STM32F4xx_StdPeriph_Driver/src/stm32f4xx_fmc.c:460:26
	ldreq.w	r1, [r8, #8]
.Ltmp57:
	@DEBUG_VALUE: FMC_NANDInit:tmppmem <- $r1
	.loc	3 478 6                 @ ../Libraries/STM32F4xx_StdPeriph_Driver/src/stm32f4xx_fmc.c:478:6
	cmp	r2, #16
	.loc	3 473 44                @ ../Libraries/STM32F4xx_StdPeriph_Driver/src/stm32f4xx_fmc.c:473:44
	ldr	r1, [r0, #28]
.Ltmp58:
	.loc	3 0 0 is_stmt 0         @ ../Libraries/STM32F4xx_StdPeriph_Driver/src/stm32f4xx_fmc.c:0:0
	orr	r3, r3, #8
.Ltmp59:
	@DEBUG_VALUE: FMC_NANDInit:tmppmem <- 0
	@DEBUG_VALUE: FMC_NANDInit:tmppcr <- $r3
	.loc	3 473 73                @ ../Libraries/STM32F4xx_StdPeriph_Driver/src/stm32f4xx_fmc.c:473:73
	ldrd	r7, r6, [r1]
	.loc	3 475 74 is_stmt 1      @ ../Libraries/STM32F4xx_StdPeriph_Driver/src/stm32f4xx_fmc.c:475:74
	ldrd	r5, r1, [r1, #8]
	.loc	3 473 87                @ ../Libraries/STM32F4xx_StdPeriph_Driver/src/stm32f4xx_fmc.c:473:87
	orr.w	r7, r7, r6, lsl #8
	.loc	3 474 98                @ ../Libraries/STM32F4xx_StdPeriph_Driver/src/stm32f4xx_fmc.c:474:98
	orr.w	r7, r7, r5, lsl #16
	.loc	3 475 98                @ ../Libraries/STM32F4xx_StdPeriph_Driver/src/stm32f4xx_fmc.c:475:98
	orr.w	r12, r7, r1, lsl #24
.Ltmp60:
	@DEBUG_VALUE: FMC_NANDInit:tmppmem <- $r12
	.loc	3 486 26                @ ../Libraries/STM32F4xx_StdPeriph_Driver/src/stm32f4xx_fmc.c:486:26
	ite	ne
	ldrne	r1, [r4, #44]
.Ltmp61:
	@DEBUG_VALUE: FMC_NANDInit:tmppatt <- $r1
	.loc	3 481 26                @ ../Libraries/STM32F4xx_StdPeriph_Driver/src/stm32f4xx_fmc.c:481:26
	ldreq	r1, [r4, #12]
.Ltmp62:
	@DEBUG_VALUE: FMC_NANDInit:tmppatt <- $r1
	@DEBUG_VALUE: FMC_NANDInit:tmppatt <- 0
	.loc	3 494 44                @ ../Libraries/STM32F4xx_StdPeriph_Driver/src/stm32f4xx_fmc.c:494:44
	ldr	r0, [r0, #32]
.Ltmp63:
	.loc	3 499 6                 @ ../Libraries/STM32F4xx_StdPeriph_Driver/src/stm32f4xx_fmc.c:499:6
	cmp	r2, #16
	.loc	3 494 76                @ ../Libraries/STM32F4xx_StdPeriph_Driver/src/stm32f4xx_fmc.c:494:76
	ldrd	r1, r7, [r0]
	.loc	3 496 76                @ ../Libraries/STM32F4xx_StdPeriph_Driver/src/stm32f4xx_fmc.c:496:76
	ldrd	r6, r0, [r0, #8]
	.loc	3 494 90                @ ../Libraries/STM32F4xx_StdPeriph_Driver/src/stm32f4xx_fmc.c:494:90
	orr.w	r1, r1, r7, lsl #8
	.loc	3 495 100               @ ../Libraries/STM32F4xx_StdPeriph_Driver/src/stm32f4xx_fmc.c:495:100
	orr.w	r1, r1, r6, lsl #16
	.loc	3 496 100               @ ../Libraries/STM32F4xx_StdPeriph_Driver/src/stm32f4xx_fmc.c:496:100
	orr.w	r0, r1, r0, lsl #24
.Ltmp64:
	@DEBUG_VALUE: FMC_NANDInit:tmppatt <- $r0
	.loc	3 499 6                 @ ../Libraries/STM32F4xx_StdPeriph_Driver/src/stm32f4xx_fmc.c:499:6
	bne	.LBB5_2
.Ltmp65:
@ %bb.1:
	@DEBUG_VALUE: FMC_NANDInit:tmppatt <- $r0
	@DEBUG_VALUE: FMC_NANDInit:tmppmem <- $r12
	@DEBUG_VALUE: FMC_NANDInit:tmppcr <- $r3
	.loc	3 502 21                @ ../Libraries/STM32F4xx_StdPeriph_Driver/src/stm32f4xx_fmc.c:502:21
	mov	r2, r4
	add.w	r1, r4, #8
	str	r3, [r2], #12
	b	.LBB5_3
.Ltmp66:
.LBB5_2:
	@DEBUG_VALUE: FMC_NANDInit:tmppatt <- $r0
	@DEBUG_VALUE: FMC_NANDInit:tmppmem <- $r12
	@DEBUG_VALUE: FMC_NANDInit:tmppcr <- $r3
	.loc	3 0 21 is_stmt 0        @ ../Libraries/STM32F4xx_StdPeriph_Driver/src/stm32f4xx_fmc.c:0:21
	add.w	r2, r4, #44
	add.w	r1, r4, #40
.Ltmp67:
	.loc	3 509 21 is_stmt 1      @ ../Libraries/STM32F4xx_StdPeriph_Driver/src/stm32f4xx_fmc.c:509:21
	str	r3, [r4, #32]
.Ltmp68:
.LBB5_3:
	@DEBUG_VALUE: FMC_NANDInit:tmppatt <- $r0
	@DEBUG_VALUE: FMC_NANDInit:tmppmem <- $r12
	@DEBUG_VALUE: FMC_NANDInit:tmppcr <- $r3
	.loc	3 0 0 is_stmt 0         @ ../Libraries/STM32F4xx_StdPeriph_Driver/src/stm32f4xx_fmc.c:0:0
	str.w	r12, [r1]
	str	r0, [r2]
.Ltmp69:
	.loc	3 513 1 is_stmt 1       @ ../Libraries/STM32F4xx_StdPeriph_Driver/src/stm32f4xx_fmc.c:513:1
	pop.w	{r4, r5, r6, r7, r8, pc}
.Ltmp70:
	.p2align	2
@ %bb.4:
	.loc	3 0 1 is_stmt 0         @ ../Libraries/STM32F4xx_StdPeriph_Driver/src/stm32f4xx_fmc.c:0:1
__arm_cp.5_0:
	.long	2684354656              @ 0xa0000060
.Lcpi_end8:
	.size	__arm_cp.5_0, .Lcpi_end8-__arm_cp.5_0
__arm_cp.5_1:
	.long	4293919105              @ 0xfff00181
.Lcpi_end9:
	.size	__arm_cp.5_1, .Lcpi_end9-__arm_cp.5_1
.Lfunc_end5:
	.size	FMC_NANDInit, .Lfunc_end5-FMC_NANDInit
	.cfi_endproc
	.cantunwind
	.fnend
                                        @ -- End function
	.section	.text.FMC_NANDStructInit,"ax",%progbits
	.hidden	FMC_NANDStructInit      @ -- Begin function FMC_NANDStructInit
	.globl	FMC_NANDStructInit
	.p2align	1
	.type	FMC_NANDStructInit,%function
	.code	16                      @ @FMC_NANDStructInit
	.thumb_func
FMC_NANDStructInit:
.Lfunc_begin6:
	.loc	3 523 0 is_stmt 1       @ ../Libraries/STM32F4xx_StdPeriph_Driver/src/stm32f4xx_fmc.c:523:0
	.fnstart
	.cfi_startproc
@ %bb.0:
	@DEBUG_VALUE: FMC_NANDStructInit:FMC_NANDInitStruct <- $r0
	movs	r1, #0
	movs	r2, #16
	@DEBUG_VALUE: FMC_NANDStructInit:FMC_NANDInitStruct <- $r0
.Ltmp71:
	.loc	3 525 32 prologue_end   @ ../Libraries/STM32F4xx_StdPeriph_Driver/src/stm32f4xx_fmc.c:525:32
	strd	r2, r1, [r0]
	.loc	3 527 43                @ ../Libraries/STM32F4xx_StdPeriph_Driver/src/stm32f4xx_fmc.c:527:43
	strd	r2, r1, [r0, #8]
	.loc	3 529 39                @ ../Libraries/STM32F4xx_StdPeriph_Driver/src/stm32f4xx_fmc.c:529:39
	strd	r1, r1, [r0, #16]
	str	r1, [r0, #24]
	movs	r2, #252
	.loc	3 532 23                @ ../Libraries/STM32F4xx_StdPeriph_Driver/src/stm32f4xx_fmc.c:532:23
	ldr	r1, [r0, #28]
	.loc	3 532 66 is_stmt 0      @ ../Libraries/STM32F4xx_StdPeriph_Driver/src/stm32f4xx_fmc.c:532:66
	strd	r2, r2, [r1]
	.loc	3 534 70 is_stmt 1      @ ../Libraries/STM32F4xx_StdPeriph_Driver/src/stm32f4xx_fmc.c:534:70
	strd	r2, r2, [r1, #8]
	.loc	3 536 23                @ ../Libraries/STM32F4xx_StdPeriph_Driver/src/stm32f4xx_fmc.c:536:23
	ldr	r0, [r0, #32]
.Ltmp72:
	.loc	3 536 69 is_stmt 0      @ ../Libraries/STM32F4xx_StdPeriph_Driver/src/stm32f4xx_fmc.c:536:69
	strd	r2, r2, [r0]
	.loc	3 538 73 is_stmt 1      @ ../Libraries/STM32F4xx_StdPeriph_Driver/src/stm32f4xx_fmc.c:538:73
	strd	r2, r2, [r0, #8]
	.loc	3 540 1                 @ ../Libraries/STM32F4xx_StdPeriph_Driver/src/stm32f4xx_fmc.c:540:1
	bx	lr
.Ltmp73:
.Lfunc_end6:
	.size	FMC_NANDStructInit, .Lfunc_end6-FMC_NANDStructInit
	.cfi_endproc
	.cantunwind
	.fnend
                                        @ -- End function
	.section	.text.FMC_NANDCmd,"ax",%progbits
	.hidden	FMC_NANDCmd             @ -- Begin function FMC_NANDCmd
	.globl	FMC_NANDCmd
	.p2align	2
	.type	FMC_NANDCmd,%function
	.code	16                      @ @FMC_NANDCmd
	.thumb_func
FMC_NANDCmd:
.Lfunc_begin7:
	.loc	3 552 0                 @ ../Libraries/STM32F4xx_StdPeriph_Driver/src/stm32f4xx_fmc.c:552:0
	.fnstart
	.cfi_startproc
@ %bb.0:
	@DEBUG_VALUE: FMC_NANDCmd:FMC_Bank <- $r0
	@DEBUG_VALUE: FMC_NANDCmd:FMC_Bank <- $r0
	@DEBUG_VALUE: FMC_NANDCmd:NewState <- $r1
	@DEBUG_VALUE: FMC_NANDCmd:NewState <- $r1
	.loc	3 556 7 prologue_end    @ ../Libraries/STM32F4xx_StdPeriph_Driver/src/stm32f4xx_fmc.c:556:7
	cbz	r1, .LBB7_3
.Ltmp74:
@ %bb.1:
	@DEBUG_VALUE: FMC_NANDCmd:NewState <- $r1
	@DEBUG_VALUE: FMC_NANDCmd:FMC_Bank <- $r0
	.loc	3 0 7 is_stmt 0         @ ../Libraries/STM32F4xx_StdPeriph_Driver/src/stm32f4xx_fmc.c:0:7
	ldr	r1, __arm_cp.7_0
.Ltmp75:
	.loc	3 559 8 is_stmt 1       @ ../Libraries/STM32F4xx_StdPeriph_Driver/src/stm32f4xx_fmc.c:559:8
	cmp	r0, #16
	bne	.LBB7_5
.Ltmp76:
@ %bb.2:
	@DEBUG_VALUE: FMC_NANDCmd:FMC_Bank <- $r0
	.loc	3 561 23                @ ../Libraries/STM32F4xx_StdPeriph_Driver/src/stm32f4xx_fmc.c:561:23
	ldr	r0, [r1]
.Ltmp77:
	orr	r0, r0, #4
	str	r0, [r1]
.Ltmp78:
	.loc	3 580 1                 @ ../Libraries/STM32F4xx_StdPeriph_Driver/src/stm32f4xx_fmc.c:580:1
	bx	lr
.LBB7_3:
.Ltmp79:
	@DEBUG_VALUE: FMC_NANDCmd:NewState <- $r1
	@DEBUG_VALUE: FMC_NANDCmd:FMC_Bank <- $r0
	.loc	3 0 1 is_stmt 0         @ ../Libraries/STM32F4xx_StdPeriph_Driver/src/stm32f4xx_fmc.c:0:1
	ldr	r2, __arm_cp.7_1
	ldr	r1, __arm_cp.7_0
.Ltmp80:
	.loc	3 571 8 is_stmt 1       @ ../Libraries/STM32F4xx_StdPeriph_Driver/src/stm32f4xx_fmc.c:571:8
	cmp	r0, #16
	bne	.LBB7_6
.Ltmp81:
@ %bb.4:
	@DEBUG_VALUE: FMC_NANDCmd:FMC_Bank <- $r0
	.loc	3 573 23                @ ../Libraries/STM32F4xx_StdPeriph_Driver/src/stm32f4xx_fmc.c:573:23
	ldr	r0, [r1]
.Ltmp82:
	ands	r0, r2
	str	r0, [r1]
.Ltmp83:
	.loc	3 580 1                 @ ../Libraries/STM32F4xx_StdPeriph_Driver/src/stm32f4xx_fmc.c:580:1
	bx	lr
.LBB7_5:
.Ltmp84:
	@DEBUG_VALUE: FMC_NANDCmd:FMC_Bank <- $r0
	.loc	3 565 23                @ ../Libraries/STM32F4xx_StdPeriph_Driver/src/stm32f4xx_fmc.c:565:23
	ldr	r0, [r1, #32]
.Ltmp85:
	orr	r0, r0, #4
	b	.LBB7_7
.Ltmp86:
.LBB7_6:
	@DEBUG_VALUE: FMC_NANDCmd:FMC_Bank <- $r0
	.loc	3 577 23                @ ../Libraries/STM32F4xx_StdPeriph_Driver/src/stm32f4xx_fmc.c:577:23
	ldr	r0, [r1, #32]
.Ltmp87:
	ands	r0, r2
.Ltmp88:
.LBB7_7:
	.loc	3 0 0 is_stmt 0         @ ../Libraries/STM32F4xx_StdPeriph_Driver/src/stm32f4xx_fmc.c:0:0
	str	r0, [r1, #32]
.Ltmp89:
	.loc	3 580 1 is_stmt 1       @ ../Libraries/STM32F4xx_StdPeriph_Driver/src/stm32f4xx_fmc.c:580:1
	bx	lr
.Ltmp90:
	.p2align	2
@ %bb.8:
	.loc	3 0 1 is_stmt 0         @ ../Libraries/STM32F4xx_StdPeriph_Driver/src/stm32f4xx_fmc.c:0:1
__arm_cp.7_0:
	.long	2684354656              @ 0xa0000060
.Lcpi_end10:
	.size	__arm_cp.7_0, .Lcpi_end10-__arm_cp.7_0
__arm_cp.7_1:
	.long	1048571                 @ 0xffffb
.Lcpi_end11:
	.size	__arm_cp.7_1, .Lcpi_end11-__arm_cp.7_1
.Lfunc_end7:
	.size	FMC_NANDCmd, .Lfunc_end7-FMC_NANDCmd
	.cfi_endproc
	.cantunwind
	.fnend
                                        @ -- End function
	.section	.text.FMC_NANDECCCmd,"ax",%progbits
	.hidden	FMC_NANDECCCmd          @ -- Begin function FMC_NANDECCCmd
	.globl	FMC_NANDECCCmd
	.p2align	2
	.type	FMC_NANDECCCmd,%function
	.code	16                      @ @FMC_NANDECCCmd
	.thumb_func
FMC_NANDECCCmd:
.Lfunc_begin8:
	.loc	3 592 0 is_stmt 1       @ ../Libraries/STM32F4xx_StdPeriph_Driver/src/stm32f4xx_fmc.c:592:0
	.fnstart
	.cfi_startproc
@ %bb.0:
	@DEBUG_VALUE: FMC_NANDECCCmd:FMC_Bank <- $r0
	@DEBUG_VALUE: FMC_NANDECCCmd:FMC_Bank <- $r0
	@DEBUG_VALUE: FMC_NANDECCCmd:NewState <- $r1
	@DEBUG_VALUE: FMC_NANDECCCmd:NewState <- $r1
	.loc	3 596 7 prologue_end    @ ../Libraries/STM32F4xx_StdPeriph_Driver/src/stm32f4xx_fmc.c:596:7
	cbz	r1, .LBB8_3
.Ltmp91:
@ %bb.1:
	@DEBUG_VALUE: FMC_NANDECCCmd:NewState <- $r1
	@DEBUG_VALUE: FMC_NANDECCCmd:FMC_Bank <- $r0
	.loc	3 0 7 is_stmt 0         @ ../Libraries/STM32F4xx_StdPeriph_Driver/src/stm32f4xx_fmc.c:0:7
	ldr	r1, __arm_cp.8_0
.Ltmp92:
	.loc	3 599 8 is_stmt 1       @ ../Libraries/STM32F4xx_StdPeriph_Driver/src/stm32f4xx_fmc.c:599:8
	cmp	r0, #16
	bne	.LBB8_5
.Ltmp93:
@ %bb.2:
	@DEBUG_VALUE: FMC_NANDECCCmd:FMC_Bank <- $r0
	.loc	3 601 23                @ ../Libraries/STM32F4xx_StdPeriph_Driver/src/stm32f4xx_fmc.c:601:23
	ldr	r0, [r1]
.Ltmp94:
	orr	r0, r0, #64
	str	r0, [r1]
.Ltmp95:
	.loc	3 620 1                 @ ../Libraries/STM32F4xx_StdPeriph_Driver/src/stm32f4xx_fmc.c:620:1
	bx	lr
.LBB8_3:
.Ltmp96:
	@DEBUG_VALUE: FMC_NANDECCCmd:NewState <- $r1
	@DEBUG_VALUE: FMC_NANDECCCmd:FMC_Bank <- $r0
	.loc	3 0 1 is_stmt 0         @ ../Libraries/STM32F4xx_StdPeriph_Driver/src/stm32f4xx_fmc.c:0:1
	ldr	r2, __arm_cp.8_1
	ldr	r1, __arm_cp.8_0
.Ltmp97:
	.loc	3 611 8 is_stmt 1       @ ../Libraries/STM32F4xx_StdPeriph_Driver/src/stm32f4xx_fmc.c:611:8
	cmp	r0, #16
	bne	.LBB8_6
.Ltmp98:
@ %bb.4:
	@DEBUG_VALUE: FMC_NANDECCCmd:FMC_Bank <- $r0
	.loc	3 613 23                @ ../Libraries/STM32F4xx_StdPeriph_Driver/src/stm32f4xx_fmc.c:613:23
	ldr	r0, [r1]
.Ltmp99:
	ands	r0, r2
	str	r0, [r1]
.Ltmp100:
	.loc	3 620 1                 @ ../Libraries/STM32F4xx_StdPeriph_Driver/src/stm32f4xx_fmc.c:620:1
	bx	lr
.LBB8_5:
.Ltmp101:
	@DEBUG_VALUE: FMC_NANDECCCmd:FMC_Bank <- $r0
	.loc	3 605 23                @ ../Libraries/STM32F4xx_StdPeriph_Driver/src/stm32f4xx_fmc.c:605:23
	ldr	r0, [r1, #32]
.Ltmp102:
	orr	r0, r0, #64
	b	.LBB8_7
.Ltmp103:
.LBB8_6:
	@DEBUG_VALUE: FMC_NANDECCCmd:FMC_Bank <- $r0
	.loc	3 617 23                @ ../Libraries/STM32F4xx_StdPeriph_Driver/src/stm32f4xx_fmc.c:617:23
	ldr	r0, [r1, #32]
.Ltmp104:
	ands	r0, r2
.Ltmp105:
.LBB8_7:
	.loc	3 0 0 is_stmt 0         @ ../Libraries/STM32F4xx_StdPeriph_Driver/src/stm32f4xx_fmc.c:0:0
	str	r0, [r1, #32]
.Ltmp106:
	.loc	3 620 1 is_stmt 1       @ ../Libraries/STM32F4xx_StdPeriph_Driver/src/stm32f4xx_fmc.c:620:1
	bx	lr
.Ltmp107:
	.p2align	2
@ %bb.8:
	.loc	3 0 1 is_stmt 0         @ ../Libraries/STM32F4xx_StdPeriph_Driver/src/stm32f4xx_fmc.c:0:1
__arm_cp.8_0:
	.long	2684354656              @ 0xa0000060
.Lcpi_end12:
	.size	__arm_cp.8_0, .Lcpi_end12-__arm_cp.8_0
__arm_cp.8_1:
	.long	1048511                 @ 0xfffbf
.Lcpi_end13:
	.size	__arm_cp.8_1, .Lcpi_end13-__arm_cp.8_1
.Lfunc_end8:
	.size	FMC_NANDECCCmd, .Lfunc_end8-FMC_NANDECCCmd
	.cfi_endproc
	.cantunwind
	.fnend
                                        @ -- End function
	.section	.text.FMC_GetECC,"ax",%progbits
	.hidden	FMC_GetECC              @ -- Begin function FMC_GetECC
	.globl	FMC_GetECC
	.p2align	2
	.type	FMC_GetECC,%function
	.code	16                      @ @FMC_GetECC
	.thumb_func
FMC_GetECC:
.Lfunc_begin9:
	.loc	3 631 0 is_stmt 1       @ ../Libraries/STM32F4xx_StdPeriph_Driver/src/stm32f4xx_fmc.c:631:0
	.fnstart
	.cfi_startproc
@ %bb.0:
	@DEBUG_VALUE: FMC_GetECC:FMC_Bank <- $r0
	ldr	r1, __arm_cp.9_0
.Ltmp108:
	@DEBUG_VALUE: FMC_GetECC:eccval <- 0
	@DEBUG_VALUE: FMC_GetECC:FMC_Bank <- $r0
	.loc	3 0 0 prologue_end      @ ../Libraries/STM32F4xx_StdPeriph_Driver/src/stm32f4xx_fmc.c:0:0
	cmp	r0, #16
	add.w	r1, r1, #32
	itt	eq
	moveq	r1, #116
	movteq	r1, #40960
	ldr	r0, [r1]
.Ltmp109:
	@DEBUG_VALUE: FMC_GetECC:eccval <- $r0
	.loc	3 645 3                 @ ../Libraries/STM32F4xx_StdPeriph_Driver/src/stm32f4xx_fmc.c:645:3
	bx	lr
.Ltmp110:
	.p2align	2
@ %bb.1:
	.loc	3 0 3 is_stmt 0         @ ../Libraries/STM32F4xx_StdPeriph_Driver/src/stm32f4xx_fmc.c:0:3
__arm_cp.9_0:
	.long	2684354676              @ 0xa0000074
.Lcpi_end14:
	.size	__arm_cp.9_0, .Lcpi_end14-__arm_cp.9_0
.Lfunc_end9:
	.size	FMC_GetECC, .Lfunc_end9-FMC_GetECC
	.cfi_endproc
	.cantunwind
	.fnend
                                        @ -- End function
	.section	.text.FMC_PCCARDDeInit,"ax",%progbits
	.hidden	FMC_PCCARDDeInit        @ -- Begin function FMC_PCCARDDeInit
	.globl	FMC_PCCARDDeInit
	.p2align	2
	.type	FMC_PCCARDDeInit,%function
	.code	16                      @ @FMC_PCCARDDeInit
	.thumb_func
FMC_PCCARDDeInit:
.Lfunc_begin10:
	.loc	3 695 0 is_stmt 1       @ ../Libraries/STM32F4xx_StdPeriph_Driver/src/stm32f4xx_fmc.c:695:0
	.fnstart
	.cfi_startproc
@ %bb.0:
	ldr	r0, __arm_cp.10_0
	movs	r1, #24
.Ltmp111:
	.loc	3 697 19 prologue_end   @ ../Libraries/STM32F4xx_StdPeriph_Driver/src/stm32f4xx_fmc.c:697:19
	str	r1, [r0]
	movs	r1, #0
	.loc	3 698 18                @ ../Libraries/STM32F4xx_StdPeriph_Driver/src/stm32f4xx_fmc.c:698:18
	str	r1, [r0, #4]
	mov.w	r1, #-50529028
	.loc	3 699 20                @ ../Libraries/STM32F4xx_StdPeriph_Driver/src/stm32f4xx_fmc.c:699:20
	str	r1, [r0, #8]
	.loc	3 700 20                @ ../Libraries/STM32F4xx_StdPeriph_Driver/src/stm32f4xx_fmc.c:700:20
	str	r1, [r0, #12]
	.loc	3 701 19                @ ../Libraries/STM32F4xx_StdPeriph_Driver/src/stm32f4xx_fmc.c:701:19
	str	r1, [r0, #16]
	.loc	3 702 1                 @ ../Libraries/STM32F4xx_StdPeriph_Driver/src/stm32f4xx_fmc.c:702:1
	bx	lr
.Ltmp112:
	.p2align	2
@ %bb.1:
	.loc	3 0 1 is_stmt 0         @ ../Libraries/STM32F4xx_StdPeriph_Driver/src/stm32f4xx_fmc.c:0:1
__arm_cp.10_0:
	.long	2684354720              @ 0xa00000a0
.Lcpi_end15:
	.size	__arm_cp.10_0, .Lcpi_end15-__arm_cp.10_0
.Lfunc_end10:
	.size	FMC_PCCARDDeInit, .Lfunc_end10-FMC_PCCARDDeInit
	.cfi_endproc
	.cantunwind
	.fnend
                                        @ -- End function
	.section	.text.FMC_PCCARDInit,"ax",%progbits
	.hidden	FMC_PCCARDInit          @ -- Begin function FMC_PCCARDInit
	.globl	FMC_PCCARDInit
	.p2align	2
	.type	FMC_PCCARDInit,%function
	.code	16                      @ @FMC_PCCARDInit
	.thumb_func
FMC_PCCARDInit:
.Lfunc_begin11:
	.loc	3 712 0 is_stmt 1       @ ../Libraries/STM32F4xx_StdPeriph_Driver/src/stm32f4xx_fmc.c:712:0
	.fnstart
	.cfi_startproc
@ %bb.0:
	.save	{r4, r5, r7, lr}
	push	{r4, r5, r7, lr}
	.cfi_def_cfa_offset 16
	.cfi_offset lr, -4
	.cfi_offset r7, -8
	.cfi_offset r5, -12
	.cfi_offset r4, -16
	@DEBUG_VALUE: FMC_PCCARDInit:FMC_PCCARDInitStruct <- $r0
	ldr	r5, __arm_cp.11_0
.Ltmp113:
	@DEBUG_VALUE: FMC_PCCARDInit:tmppio <- 0
	@DEBUG_VALUE: FMC_PCCARDInit:tmppatt <- 0
	@DEBUG_VALUE: FMC_PCCARDInit:tmpmem <- 0
	@DEBUG_VALUE: FMC_PCCARDInit:tmppcr <- 0
	@DEBUG_VALUE: FMC_PCCARDInit:FMC_PCCARDInitStruct <- $r0
	ldr	r3, __arm_cp.11_1
.Ltmp114:
	.loc	3 736 23 prologue_end   @ ../Libraries/STM32F4xx_StdPeriph_Driver/src/stm32f4xx_fmc.c:736:23
	ldr	r2, [r5]
.Ltmp115:
	@DEBUG_VALUE: FMC_PCCARDInit:tmppcr <- $r2
	.loc	3 739 10                @ ../Libraries/STM32F4xx_StdPeriph_Driver/src/stm32f4xx_fmc.c:739:10
	ands	r2, r3
.Ltmp116:
	@DEBUG_VALUE: FMC_PCCARDInit:tmppcr <- $r2
	.loc	3 743 45                @ ../Libraries/STM32F4xx_StdPeriph_Driver/src/stm32f4xx_fmc.c:743:45
	ldrd	r3, r1, [r0]
	.loc	3 746 46                @ ../Libraries/STM32F4xx_StdPeriph_Driver/src/stm32f4xx_fmc.c:746:46
	ldr	r4, [r0, #8]
	.loc	3 745 70                @ ../Libraries/STM32F4xx_StdPeriph_Driver/src/stm32f4xx_fmc.c:745:70
	orrs	r2, r3
.Ltmp117:
	orr.w	r1, r2, r1, lsl #9
	.loc	3 743 10                @ ../Libraries/STM32F4xx_StdPeriph_Driver/src/stm32f4xx_fmc.c:743:10
	orr.w	r1, r1, r4, lsl #13
	orr	r1, r1, #16
.Ltmp118:
	@DEBUG_VALUE: FMC_PCCARDInit:tmppcr <- $r1
	.loc	3 748 19                @ ../Libraries/STM32F4xx_StdPeriph_Driver/src/stm32f4xx_fmc.c:748:19
	str	r1, [r5]
	.loc	3 751 23                @ ../Libraries/STM32F4xx_StdPeriph_Driver/src/stm32f4xx_fmc.c:751:23
	ldr	r1, [r5, #8]
.Ltmp119:
	.loc	3 758 45                @ ../Libraries/STM32F4xx_StdPeriph_Driver/src/stm32f4xx_fmc.c:758:45
	ldr	r1, [r0, #12]
	.loc	3 758 74 is_stmt 0      @ ../Libraries/STM32F4xx_StdPeriph_Driver/src/stm32f4xx_fmc.c:758:74
	ldm.w	r1, {r2, r3, r4}
	.loc	3 761 75 is_stmt 1      @ ../Libraries/STM32F4xx_StdPeriph_Driver/src/stm32f4xx_fmc.c:761:75
	ldr	r1, [r1, #12]
	.loc	3 758 88                @ ../Libraries/STM32F4xx_StdPeriph_Driver/src/stm32f4xx_fmc.c:758:88
	orr.w	r2, r2, r3, lsl #8
	.loc	3 759 99                @ ../Libraries/STM32F4xx_StdPeriph_Driver/src/stm32f4xx_fmc.c:759:99
	orr.w	r2, r2, r4, lsl #16
	.loc	3 760 99                @ ../Libraries/STM32F4xx_StdPeriph_Driver/src/stm32f4xx_fmc.c:760:99
	orr.w	r1, r2, r1, lsl #24
.Ltmp120:
	@DEBUG_VALUE: FMC_PCCARDInit:tmpmem <- $r1
	.loc	3 763 20                @ ../Libraries/STM32F4xx_StdPeriph_Driver/src/stm32f4xx_fmc.c:763:20
	str	r1, [r5, #8]
	.loc	3 766 24                @ ../Libraries/STM32F4xx_StdPeriph_Driver/src/stm32f4xx_fmc.c:766:24
	ldr	r1, [r5, #12]
.Ltmp121:
	.loc	3 773 46                @ ../Libraries/STM32F4xx_StdPeriph_Driver/src/stm32f4xx_fmc.c:773:46
	ldr	r1, [r0, #16]
	.loc	3 773 78 is_stmt 0      @ ../Libraries/STM32F4xx_StdPeriph_Driver/src/stm32f4xx_fmc.c:773:78
	ldm.w	r1, {r2, r3, r4}
	.loc	3 776 79 is_stmt 1      @ ../Libraries/STM32F4xx_StdPeriph_Driver/src/stm32f4xx_fmc.c:776:79
	ldr	r1, [r1, #12]
	.loc	3 773 92                @ ../Libraries/STM32F4xx_StdPeriph_Driver/src/stm32f4xx_fmc.c:773:92
	orr.w	r2, r2, r3, lsl #8
	.loc	3 774 103               @ ../Libraries/STM32F4xx_StdPeriph_Driver/src/stm32f4xx_fmc.c:774:103
	orr.w	r2, r2, r4, lsl #16
	.loc	3 775 103               @ ../Libraries/STM32F4xx_StdPeriph_Driver/src/stm32f4xx_fmc.c:775:103
	orr.w	r1, r2, r1, lsl #24
.Ltmp122:
	@DEBUG_VALUE: FMC_PCCARDInit:tmppatt <- $r1
	.loc	3 778 20                @ ../Libraries/STM32F4xx_StdPeriph_Driver/src/stm32f4xx_fmc.c:778:20
	str	r1, [r5, #12]
	.loc	3 781 23                @ ../Libraries/STM32F4xx_StdPeriph_Driver/src/stm32f4xx_fmc.c:781:23
	ldr	r1, [r5, #16]
.Ltmp123:
	.loc	3 788 45                @ ../Libraries/STM32F4xx_StdPeriph_Driver/src/stm32f4xx_fmc.c:788:45
	ldr	r0, [r0, #20]
.Ltmp124:
	.loc	3 788 70 is_stmt 0      @ ../Libraries/STM32F4xx_StdPeriph_Driver/src/stm32f4xx_fmc.c:788:70
	ldm.w	r0, {r1, r2, r3}
	.loc	3 791 71 is_stmt 1      @ ../Libraries/STM32F4xx_StdPeriph_Driver/src/stm32f4xx_fmc.c:791:71
	ldr	r0, [r0, #12]
	.loc	3 788 84                @ ../Libraries/STM32F4xx_StdPeriph_Driver/src/stm32f4xx_fmc.c:788:84
	orr.w	r1, r1, r2, lsl #8
	.loc	3 789 95                @ ../Libraries/STM32F4xx_StdPeriph_Driver/src/stm32f4xx_fmc.c:789:95
	orr.w	r1, r1, r3, lsl #16
	.loc	3 790 95                @ ../Libraries/STM32F4xx_StdPeriph_Driver/src/stm32f4xx_fmc.c:790:95
	orr.w	r0, r1, r0, lsl #24
.Ltmp125:
	@DEBUG_VALUE: FMC_PCCARDInit:tmppio <- $r0
	.loc	3 793 19                @ ../Libraries/STM32F4xx_StdPeriph_Driver/src/stm32f4xx_fmc.c:793:19
	str	r0, [r5, #16]
	.loc	3 794 1                 @ ../Libraries/STM32F4xx_StdPeriph_Driver/src/stm32f4xx_fmc.c:794:1
	pop	{r4, r5, r7, pc}
.Ltmp126:
	.p2align	2
@ %bb.1:
	.loc	3 0 1 is_stmt 0         @ ../Libraries/STM32F4xx_StdPeriph_Driver/src/stm32f4xx_fmc.c:0:1
__arm_cp.11_0:
	.long	2684354720              @ 0xa00000a0
.Lcpi_end16:
	.size	__arm_cp.11_0, .Lcpi_end16-__arm_cp.11_0
__arm_cp.11_1:
	.long	4294836685              @ 0xfffe01cd
.Lcpi_end17:
	.size	__arm_cp.11_1, .Lcpi_end17-__arm_cp.11_1
.Lfunc_end11:
	.size	FMC_PCCARDInit, .Lfunc_end11-FMC_PCCARDInit
	.cfi_endproc
	.cantunwind
	.fnend
                                        @ -- End function
	.section	.text.FMC_PCCARDStructInit,"ax",%progbits
	.hidden	FMC_PCCARDStructInit    @ -- Begin function FMC_PCCARDStructInit
	.globl	FMC_PCCARDStructInit
	.p2align	1
	.type	FMC_PCCARDStructInit,%function
	.code	16                      @ @FMC_PCCARDStructInit
	.thumb_func
FMC_PCCARDStructInit:
.Lfunc_begin12:
	.loc	3 803 0 is_stmt 1       @ ../Libraries/STM32F4xx_StdPeriph_Driver/src/stm32f4xx_fmc.c:803:0
	.fnstart
	.cfi_startproc
@ %bb.0:
	@DEBUG_VALUE: FMC_PCCARDStructInit:FMC_PCCARDInitStruct <- $r0
	movs	r1, #0
	@DEBUG_VALUE: FMC_PCCARDStructInit:FMC_PCCARDInitStruct <- $r0
	movs	r2, #252
.Ltmp127:
	.loc	3 805 41 prologue_end   @ ../Libraries/STM32F4xx_StdPeriph_Driver/src/stm32f4xx_fmc.c:805:41
	strd	r1, r1, [r0]
	.loc	3 807 42                @ ../Libraries/STM32F4xx_StdPeriph_Driver/src/stm32f4xx_fmc.c:807:42
	str	r1, [r0, #8]
	.loc	3 808 25                @ ../Libraries/STM32F4xx_StdPeriph_Driver/src/stm32f4xx_fmc.c:808:25
	ldr	r1, [r0, #12]
	.loc	3 808 68 is_stmt 0      @ ../Libraries/STM32F4xx_StdPeriph_Driver/src/stm32f4xx_fmc.c:808:68
	strd	r2, r2, [r1]
	.loc	3 810 72 is_stmt 1      @ ../Libraries/STM32F4xx_StdPeriph_Driver/src/stm32f4xx_fmc.c:810:72
	strd	r2, r2, [r1, #8]
	.loc	3 812 25                @ ../Libraries/STM32F4xx_StdPeriph_Driver/src/stm32f4xx_fmc.c:812:25
	ldr	r1, [r0, #16]
	.loc	3 812 71 is_stmt 0      @ ../Libraries/STM32F4xx_StdPeriph_Driver/src/stm32f4xx_fmc.c:812:71
	strd	r2, r2, [r1]
	.loc	3 814 75 is_stmt 1      @ ../Libraries/STM32F4xx_StdPeriph_Driver/src/stm32f4xx_fmc.c:814:75
	strd	r2, r2, [r1, #8]
	.loc	3 816 25                @ ../Libraries/STM32F4xx_StdPeriph_Driver/src/stm32f4xx_fmc.c:816:25
	ldr	r0, [r0, #20]
.Ltmp128:
	.loc	3 816 64 is_stmt 0      @ ../Libraries/STM32F4xx_StdPeriph_Driver/src/stm32f4xx_fmc.c:816:64
	strd	r2, r2, [r0]
	.loc	3 818 68 is_stmt 1      @ ../Libraries/STM32F4xx_StdPeriph_Driver/src/stm32f4xx_fmc.c:818:68
	strd	r2, r2, [r0, #8]
	.loc	3 820 1                 @ ../Libraries/STM32F4xx_StdPeriph_Driver/src/stm32f4xx_fmc.c:820:1
	bx	lr
.Ltmp129:
.Lfunc_end12:
	.size	FMC_PCCARDStructInit, .Lfunc_end12-FMC_PCCARDStructInit
	.cfi_endproc
	.cantunwind
	.fnend
                                        @ -- End function
	.section	.text.FMC_PCCARDCmd,"ax",%progbits
	.hidden	FMC_PCCARDCmd           @ -- Begin function FMC_PCCARDCmd
	.globl	FMC_PCCARDCmd
	.p2align	2
	.type	FMC_PCCARDCmd,%function
	.code	16                      @ @FMC_PCCARDCmd
	.thumb_func
FMC_PCCARDCmd:
.Lfunc_begin13:
	.loc	3 829 0                 @ ../Libraries/STM32F4xx_StdPeriph_Driver/src/stm32f4xx_fmc.c:829:0
	.fnstart
	.cfi_startproc
@ %bb.0:
	.save	{r4, lr}
	push	{r4, lr}
	.cfi_def_cfa_offset 8
	.cfi_offset lr, -4
	.cfi_offset r4, -8
	@DEBUG_VALUE: FMC_PCCARDCmd:NewState <- $r0
	ldr	r1, __arm_cp.13_0
	@DEBUG_VALUE: FMC_PCCARDCmd:NewState <- $r0
	ldr	r4, __arm_cp.13_1
.Ltmp130:
	.loc	3 832 7 prologue_end    @ ../Libraries/STM32F4xx_StdPeriph_Driver/src/stm32f4xx_fmc.c:832:7
	cmp	r0, #0
.Ltmp131:
	.loc	3 0 0 is_stmt 0         @ ../Libraries/STM32F4xx_StdPeriph_Driver/src/stm32f4xx_fmc.c:0:0
	ldr	r2, [r1]
.Ltmp132:
	.loc	3 832 7                 @ ../Libraries/STM32F4xx_StdPeriph_Driver/src/stm32f4xx_fmc.c:832:7
	orr	r3, r2, #4
	it	eq
	andeq.w	r3, r2, r4
.Ltmp133:
	.loc	3 0 0                   @ ../Libraries/STM32F4xx_StdPeriph_Driver/src/stm32f4xx_fmc.c:0:0
	str	r3, [r1]
.Ltmp134:
	.loc	3 842 1 is_stmt 1       @ ../Libraries/STM32F4xx_StdPeriph_Driver/src/stm32f4xx_fmc.c:842:1
	pop	{r4, pc}
.Ltmp135:
	.p2align	2
@ %bb.1:
	.loc	3 0 1 is_stmt 0         @ ../Libraries/STM32F4xx_StdPeriph_Driver/src/stm32f4xx_fmc.c:0:1
__arm_cp.13_0:
	.long	2684354720              @ 0xa00000a0
.Lcpi_end18:
	.size	__arm_cp.13_0, .Lcpi_end18-__arm_cp.13_0
__arm_cp.13_1:
	.long	1048571                 @ 0xffffb
.Lcpi_end19:
	.size	__arm_cp.13_1, .Lcpi_end19-__arm_cp.13_1
.Lfunc_end13:
	.size	FMC_PCCARDCmd, .Lfunc_end13-FMC_PCCARDCmd
	.cfi_endproc
	.cantunwind
	.fnend
                                        @ -- End function
	.section	.text.FMC_SDRAMDeInit,"ax",%progbits
	.hidden	FMC_SDRAMDeInit         @ -- Begin function FMC_SDRAMDeInit
	.globl	FMC_SDRAMDeInit
	.p2align	2
	.type	FMC_SDRAMDeInit,%function
	.code	16                      @ @FMC_SDRAMDeInit
	.thumb_func
FMC_SDRAMDeInit:
.Lfunc_begin14:
	.loc	3 901 0 is_stmt 1       @ ../Libraries/STM32F4xx_StdPeriph_Driver/src/stm32f4xx_fmc.c:901:0
	.fnstart
	.cfi_startproc
@ %bb.0:
	@DEBUG_VALUE: FMC_SDRAMDeInit:FMC_Bank <- $r0
	ldr	r1, __arm_cp.14_0
	mov.w	r2, #720
	@DEBUG_VALUE: FMC_SDRAMDeInit:FMC_Bank <- $r0
.Ltmp136:
	.loc	3 905 31 prologue_end   @ ../Libraries/STM32F4xx_StdPeriph_Driver/src/stm32f4xx_fmc.c:905:31
	str.w	r2, [r1, r0, lsl #2]
	.loc	3 905 3 is_stmt 0       @ ../Libraries/STM32F4xx_StdPeriph_Driver/src/stm32f4xx_fmc.c:905:3
	add.w	r0, r1, r0, lsl #2
.Ltmp137:
	.loc	3 0 3                   @ ../Libraries/STM32F4xx_StdPeriph_Driver/src/stm32f4xx_fmc.c:0:3
	mvn	r2, #-268435456
	.loc	3 906 31 is_stmt 1      @ ../Libraries/STM32F4xx_StdPeriph_Driver/src/stm32f4xx_fmc.c:906:31
	str	r2, [r0, #8]
	movs	r0, #0
	.loc	3 907 22                @ ../Libraries/STM32F4xx_StdPeriph_Driver/src/stm32f4xx_fmc.c:907:22
	str	r0, [r1, #16]
	.loc	3 908 22                @ ../Libraries/STM32F4xx_StdPeriph_Driver/src/stm32f4xx_fmc.c:908:22
	str	r0, [r1, #20]
	.loc	3 909 21                @ ../Libraries/STM32F4xx_StdPeriph_Driver/src/stm32f4xx_fmc.c:909:21
	str	r0, [r1, #24]
	.loc	3 910 1                 @ ../Libraries/STM32F4xx_StdPeriph_Driver/src/stm32f4xx_fmc.c:910:1
	bx	lr
.Ltmp138:
	.p2align	2
@ %bb.1:
	.loc	3 0 1 is_stmt 0         @ ../Libraries/STM32F4xx_StdPeriph_Driver/src/stm32f4xx_fmc.c:0:1
__arm_cp.14_0:
	.long	2684354880              @ 0xa0000140
.Lcpi_end20:
	.size	__arm_cp.14_0, .Lcpi_end20-__arm_cp.14_0
.Lfunc_end14:
	.size	FMC_SDRAMDeInit, .Lfunc_end14-FMC_SDRAMDeInit
	.cfi_endproc
	.cantunwind
	.fnend
                                        @ -- End function
	.section	.text.FMC_SDRAMInit,"ax",%progbits
	.hidden	FMC_SDRAMInit           @ -- Begin function FMC_SDRAMInit
	.globl	FMC_SDRAMInit
	.p2align	2
	.type	FMC_SDRAMInit,%function
	.code	16                      @ @FMC_SDRAMInit
	.thumb_func
FMC_SDRAMInit:
.Lfunc_begin15:
	.loc	3 921 0 is_stmt 1       @ ../Libraries/STM32F4xx_StdPeriph_Driver/src/stm32f4xx_fmc.c:921:0
	.fnstart
	.cfi_startproc
@ %bb.0:
	.save	{r4, r5, r6, r7, r8, r9, r10, lr}
	push.w	{r4, r5, r6, r7, r8, r9, r10, lr}
	.cfi_def_cfa_offset 32
	.cfi_offset lr, -4
	.cfi_offset r10, -8
	.cfi_offset r9, -12
	.cfi_offset r8, -16
	.cfi_offset r7, -20
	.cfi_offset r6, -24
	.cfi_offset r5, -28
	.cfi_offset r4, -32
	@DEBUG_VALUE: FMC_SDRAMInit:FMC_SDRAMInitStruct <- $r0
	@DEBUG_VALUE: FMC_SDRAMInit:FMC_SDRAMInitStruct <- $r0
.Ltmp139:
	@DEBUG_VALUE: FMC_SDRAMInit:tmpr1 <- 0
	@DEBUG_VALUE: FMC_SDRAMInit:tmpr2 <- 0
	@DEBUG_VALUE: FMC_SDRAMInit:tmpr3 <- 0
	@DEBUG_VALUE: FMC_SDRAMInit:tmpr4 <- 0
	.loc	3 949 50 prologue_end   @ ../Libraries/STM32F4xx_StdPeriph_Driver/src/stm32f4xx_fmc.c:949:50
	ldrd	r4, r2, [r0]
	ldr	r1, __arm_cp.15_0
	.loc	3 958 45                @ ../Libraries/STM32F4xx_StdPeriph_Driver/src/stm32f4xx_fmc.c:958:45
	ldrd	lr, r9, [r0, #8]
	.loc	3 960 45                @ ../Libraries/STM32F4xx_StdPeriph_Driver/src/stm32f4xx_fmc.c:960:45
	ldrd	r10, r7, [r0, #16]
	.loc	3 962 45                @ ../Libraries/STM32F4xx_StdPeriph_Driver/src/stm32f4xx_fmc.c:962:45
	ldrd	r8, r3, [r0, #24]
	movw	r12, #32767
	.loc	3 949 11                @ ../Libraries/STM32F4xx_StdPeriph_Driver/src/stm32f4xx_fmc.c:949:11
	ldr.w	r5, [r1, r4, lsl #2]
.Ltmp140:
	@DEBUG_VALUE: FMC_SDRAMInit:tmpr1 <- $r5
	.loc	3 964 45                @ ../Libraries/STM32F4xx_StdPeriph_Driver/src/stm32f4xx_fmc.c:964:45
	ldr	r6, [r0, #32]
	.loc	3 967 6                 @ ../Libraries/STM32F4xx_StdPeriph_Driver/src/stm32f4xx_fmc.c:967:6
	cmp	r4, #0
	.loc	3 957 66                @ ../Libraries/STM32F4xx_StdPeriph_Driver/src/stm32f4xx_fmc.c:957:66
	orr.w	r3, r3, r6
	.loc	3 952 9                 @ ../Libraries/STM32F4xx_StdPeriph_Driver/src/stm32f4xx_fmc.c:952:9
	bic.w	r5, r5, r12
.Ltmp141:
	@DEBUG_VALUE: FMC_SDRAMInit:tmpr1 <- $r5
	.loc	3 958 63                @ ../Libraries/STM32F4xx_StdPeriph_Driver/src/stm32f4xx_fmc.c:958:63
	orr.w	r2, r2, r3
	.loc	3 959 67                @ ../Libraries/STM32F4xx_StdPeriph_Driver/src/stm32f4xx_fmc.c:959:67
	orr.w	r2, r2, r5
	.loc	3 960 68                @ ../Libraries/STM32F4xx_StdPeriph_Driver/src/stm32f4xx_fmc.c:960:68
	orr.w	r2, r2, lr
	.loc	3 961 60                @ ../Libraries/STM32F4xx_StdPeriph_Driver/src/stm32f4xx_fmc.c:961:60
	orr.w	r2, r2, r9
	.loc	3 962 65                @ ../Libraries/STM32F4xx_StdPeriph_Driver/src/stm32f4xx_fmc.c:962:65
	orr.w	r2, r2, r10
	.loc	3 963 63                @ ../Libraries/STM32F4xx_StdPeriph_Driver/src/stm32f4xx_fmc.c:963:63
	orr.w	r2, r2, r7
	.loc	3 964 59                @ ../Libraries/STM32F4xx_StdPeriph_Driver/src/stm32f4xx_fmc.c:964:59
	orr.w	r7, r2, r8
	.loc	3 965 45                @ ../Libraries/STM32F4xx_StdPeriph_Driver/src/stm32f4xx_fmc.c:965:45
	ldr	r2, [r0, #36]
	.loc	3 957 9                 @ ../Libraries/STM32F4xx_StdPeriph_Driver/src/stm32f4xx_fmc.c:957:9
	orr.w	lr, r7, r2
.Ltmp142:
	@DEBUG_VALUE: FMC_SDRAMInit:tmpr1 <- $lr
	.loc	3 967 6                 @ ../Libraries/STM32F4xx_StdPeriph_Driver/src/stm32f4xx_fmc.c:967:6
	beq	.LBB15_2
.Ltmp143:
@ %bb.1:
	@DEBUG_VALUE: FMC_SDRAMInit:tmpr1 <- $lr
	@DEBUG_VALUE: FMC_SDRAMInit:FMC_SDRAMInitStruct <- $r0
	.loc	3 982 59                @ ../Libraries/STM32F4xx_StdPeriph_Driver/src/stm32f4xx_fmc.c:982:59
	orrs	r2, r3
	.loc	3 974 13                @ ../Libraries/STM32F4xx_StdPeriph_Driver/src/stm32f4xx_fmc.c:974:13
	ldr	r3, [r1]
.Ltmp144:
	@DEBUG_VALUE: FMC_SDRAMInit:tmpr3 <- $r3
	.loc	3 977 11                @ ../Libraries/STM32F4xx_StdPeriph_Driver/src/stm32f4xx_fmc.c:977:11
	bic.w	r3, r3, r12
.Ltmp145:
	@DEBUG_VALUE: FMC_SDRAMInit:tmpr3 <- $r3
	.loc	3 981 11                @ ../Libraries/STM32F4xx_StdPeriph_Driver/src/stm32f4xx_fmc.c:981:11
	orrs	r2, r3
.Ltmp146:
	@DEBUG_VALUE: FMC_SDRAMInit:tmpr3 <- $r2
	.loc	3 985 40                @ ../Libraries/STM32F4xx_StdPeriph_Driver/src/stm32f4xx_fmc.c:985:40
	str	r2, [r1]
	.loc	3 986 44                @ ../Libraries/STM32F4xx_StdPeriph_Driver/src/stm32f4xx_fmc.c:986:44
	ldr	r2, [r0]
.Ltmp147:
	.loc	3 986 54 is_stmt 0      @ ../Libraries/STM32F4xx_StdPeriph_Driver/src/stm32f4xx_fmc.c:986:54
	str.w	lr, [r1, r2, lsl #2]
	b	.LBB15_3
.Ltmp148:
.LBB15_2:
	@DEBUG_VALUE: FMC_SDRAMInit:tmpr1 <- $lr
	@DEBUG_VALUE: FMC_SDRAMInit:FMC_SDRAMInitStruct <- $r0
	.loc	3 969 54 is_stmt 1      @ ../Libraries/STM32F4xx_StdPeriph_Driver/src/stm32f4xx_fmc.c:969:54
	str.w	lr, [r1]
.Ltmp149:
.LBB15_3:
	@DEBUG_VALUE: FMC_SDRAMInit:tmpr1 <- $lr
	@DEBUG_VALUE: FMC_SDRAMInit:FMC_SDRAMInitStruct <- $r0
	.loc	3 989 27                @ ../Libraries/STM32F4xx_StdPeriph_Driver/src/stm32f4xx_fmc.c:989:27
	ldr	r2, [r0]
	.loc	3 0 0 is_stmt 0         @ ../Libraries/STM32F4xx_StdPeriph_Driver/src/stm32f4xx_fmc.c:0:0
	add.w	r12, r1, #8
	mvn	r4, #255
	ldr.w	r8, [r12, r2, lsl #2]
.Ltmp150:
	@DEBUG_VALUE: FMC_SDRAMInit:tmpr2 <- $r8
	ldr	r3, [r0, #40]
.Ltmp151:
	.loc	3 989 6                 @ ../Libraries/STM32F4xx_StdPeriph_Driver/src/stm32f4xx_fmc.c:989:6
	cmp	r2, #0
.Ltmp152:
	.loc	3 0 0                   @ ../Libraries/STM32F4xx_StdPeriph_Driver/src/stm32f4xx_fmc.c:0:0
	ldrd	r7, r6, [r3]
	ldr	r5, [r3, #8]
	add.w	r5, r4, r5, lsl #8
	mvn	r4, #15
	sub.w	r7, r7, #1
	add.w	r6, r4, r6, lsl #4
	and	r4, r8, #-268435456
.Ltmp153:
	@DEBUG_VALUE: FMC_SDRAMInit:tmpr2 <- $r4
	orr.w	r7, r7, r6
	orr.w	lr, r7, r5
.Ltmp154:
	.loc	3 989 6                 @ ../Libraries/STM32F4xx_StdPeriph_Driver/src/stm32f4xx_fmc.c:989:6
	beq	.LBB15_5
.Ltmp155:
@ %bb.4:
	@DEBUG_VALUE: FMC_SDRAMInit:tmpr2 <- $r4
	@DEBUG_VALUE: FMC_SDRAMInit:FMC_SDRAMInitStruct <- $r0
	.loc	3 1032 73 is_stmt 1     @ ../Libraries/STM32F4xx_StdPeriph_Driver/src/stm32f4xx_fmc.c:1032:73
	ldrd	r2, r7, [r3, #12]
	.loc	3 1033 74               @ ../Libraries/STM32F4xx_StdPeriph_Driver/src/stm32f4xx_fmc.c:1033:74
	ldr	r3, [r3, #20]
	ldr	r5, __arm_cp.15_1
	.loc	3 1025 13               @ ../Libraries/STM32F4xx_StdPeriph_Driver/src/stm32f4xx_fmc.c:1025:13
	ldr	r6, [r1, #8]!
.Ltmp156:
	@DEBUG_VALUE: FMC_SDRAMInit:tmpr4 <- $r6
	.loc	3 1033 90               @ ../Libraries/STM32F4xx_StdPeriph_Driver/src/stm32f4xx_fmc.c:1033:90
	add.w	r3, r5, r3, lsl #20
	ldr	r5, __arm_cp.15_2
	.loc	3 1028 11               @ ../Libraries/STM32F4xx_StdPeriph_Driver/src/stm32f4xx_fmc.c:1028:11
	and	r6, r6, #-268435456
.Ltmp157:
	@DEBUG_VALUE: FMC_SDRAMInit:tmpr4 <- $r6
	.loc	3 1032 95               @ ../Libraries/STM32F4xx_StdPeriph_Driver/src/stm32f4xx_fmc.c:1032:95
	add.w	r2, r5, r2, lsl #12
	.loc	3 1032 102 is_stmt 0    @ ../Libraries/STM32F4xx_StdPeriph_Driver/src/stm32f4xx_fmc.c:1032:102
	orrs	r2, r6
	.loc	3 1032 11               @ ../Libraries/STM32F4xx_StdPeriph_Driver/src/stm32f4xx_fmc.c:1032:11
	orrs	r2, r3
.Ltmp158:
	@DEBUG_VALUE: FMC_SDRAMInit:tmpr4 <- $r2
	.loc	3 0 11                  @ ../Libraries/STM32F4xx_StdPeriph_Driver/src/stm32f4xx_fmc.c:0:11
	ldr	r3, __arm_cp.15_3
	.loc	3 1035 48 is_stmt 1     @ ../Libraries/STM32F4xx_StdPeriph_Driver/src/stm32f4xx_fmc.c:1035:48
	str	r2, [r1]
	.loc	3 1021 104              @ ../Libraries/STM32F4xx_StdPeriph_Driver/src/stm32f4xx_fmc.c:1021:104
	orr.w	r2, lr, r4
.Ltmp159:
	.loc	3 1022 100              @ ../Libraries/STM32F4xx_StdPeriph_Driver/src/stm32f4xx_fmc.c:1022:100
	add.w	r3, r3, r7, lsl #16
	.loc	3 1036 52               @ ../Libraries/STM32F4xx_StdPeriph_Driver/src/stm32f4xx_fmc.c:1036:52
	ldr	r0, [r0]
.Ltmp160:
	.loc	3 1019 11               @ ../Libraries/STM32F4xx_StdPeriph_Driver/src/stm32f4xx_fmc.c:1019:11
	orrs	r2, r3
.Ltmp161:
	@DEBUG_VALUE: FMC_SDRAMInit:tmpr2 <- $r2
	.loc	3 1036 62               @ ../Libraries/STM32F4xx_StdPeriph_Driver/src/stm32f4xx_fmc.c:1036:62
	str.w	r2, [r1, r0, lsl #2]
.Ltmp162:
	.loc	3 1039 1                @ ../Libraries/STM32F4xx_StdPeriph_Driver/src/stm32f4xx_fmc.c:1039:1
	pop.w	{r4, r5, r6, r7, r8, r9, r10, pc}
.Ltmp163:
.LBB15_5:
	@DEBUG_VALUE: FMC_SDRAMInit:tmpr2 <- $r4
	@DEBUG_VALUE: FMC_SDRAMInit:FMC_SDRAMInitStruct <- $r0
	.loc	3 1002 74               @ ../Libraries/STM32F4xx_StdPeriph_Driver/src/stm32f4xx_fmc.c:1002:74
	ldrd	r1, r7, [r3, #12]
	.loc	3 1001 104              @ ../Libraries/STM32F4xx_StdPeriph_Driver/src/stm32f4xx_fmc.c:1001:104
	orr.w	r0, lr, r4
.Ltmp164:
	.loc	3 0 104 is_stmt 0       @ ../Libraries/STM32F4xx_StdPeriph_Driver/src/stm32f4xx_fmc.c:0:104
	ldr	r4, __arm_cp.15_2
.Ltmp165:
	.loc	3 1004 74 is_stmt 1     @ ../Libraries/STM32F4xx_StdPeriph_Driver/src/stm32f4xx_fmc.c:1004:74
	ldrd	r6, r3, [r3, #20]
	.loc	3 1002 96               @ ../Libraries/STM32F4xx_StdPeriph_Driver/src/stm32f4xx_fmc.c:1002:96
	add.w	r1, r4, r1, lsl #12
	.loc	3 1002 103 is_stmt 0    @ ../Libraries/STM32F4xx_StdPeriph_Driver/src/stm32f4xx_fmc.c:1002:103
	orrs	r0, r1
	ldr	r1, __arm_cp.15_3
	.loc	3 1003 100 is_stmt 1    @ ../Libraries/STM32F4xx_StdPeriph_Driver/src/stm32f4xx_fmc.c:1003:100
	add.w	r1, r1, r7, lsl #16
	.loc	3 1003 107 is_stmt 0    @ ../Libraries/STM32F4xx_StdPeriph_Driver/src/stm32f4xx_fmc.c:1003:107
	orrs	r0, r1
	ldr	r1, __arm_cp.15_1
	.loc	3 1004 90 is_stmt 1     @ ../Libraries/STM32F4xx_StdPeriph_Driver/src/stm32f4xx_fmc.c:1004:90
	add.w	r1, r1, r6, lsl #20
	.loc	3 1004 97 is_stmt 0     @ ../Libraries/STM32F4xx_StdPeriph_Driver/src/stm32f4xx_fmc.c:1004:97
	orrs	r0, r1
	.loc	3 1005 91 is_stmt 1     @ ../Libraries/STM32F4xx_StdPeriph_Driver/src/stm32f4xx_fmc.c:1005:91
	subs	r1, r3, #1
	.loc	3 999 11                @ ../Libraries/STM32F4xx_StdPeriph_Driver/src/stm32f4xx_fmc.c:999:11
	orr.w	r0, r0, r1, lsl #24
.Ltmp166:
	@DEBUG_VALUE: FMC_SDRAMInit:tmpr2 <- $r0
	.loc	3 1007 62               @ ../Libraries/STM32F4xx_StdPeriph_Driver/src/stm32f4xx_fmc.c:1007:62
	str.w	r0, [r12, r2, lsl #2]
.Ltmp167:
	.loc	3 1039 1                @ ../Libraries/STM32F4xx_StdPeriph_Driver/src/stm32f4xx_fmc.c:1039:1
	pop.w	{r4, r5, r6, r7, r8, r9, r10, pc}
.Ltmp168:
	.p2align	2
@ %bb.6:
	.loc	3 0 1 is_stmt 0         @ ../Libraries/STM32F4xx_StdPeriph_Driver/src/stm32f4xx_fmc.c:0:1
__arm_cp.15_0:
	.long	2684354880              @ 0xa0000140
.Lcpi_end21:
	.size	__arm_cp.15_0, .Lcpi_end21-__arm_cp.15_0
__arm_cp.15_1:
	.long	4293918720              @ 0xfff00000
.Lcpi_end22:
	.size	__arm_cp.15_1, .Lcpi_end22-__arm_cp.15_1
__arm_cp.15_2:
	.long	4294963200              @ 0xfffff000
.Lcpi_end23:
	.size	__arm_cp.15_2, .Lcpi_end23-__arm_cp.15_2
__arm_cp.15_3:
	.long	4294901760              @ 0xffff0000
.Lcpi_end24:
	.size	__arm_cp.15_3, .Lcpi_end24-__arm_cp.15_3
.Lfunc_end15:
	.size	FMC_SDRAMInit, .Lfunc_end15-FMC_SDRAMInit
	.cfi_endproc
	.cantunwind
	.fnend
                                        @ -- End function
	.section	.text.FMC_SDRAMStructInit,"ax",%progbits
	.hidden	FMC_SDRAMStructInit     @ -- Begin function FMC_SDRAMStructInit
	.globl	FMC_SDRAMStructInit
	.p2align	1
	.type	FMC_SDRAMStructInit,%function
	.code	16                      @ @FMC_SDRAMStructInit
	.thumb_func
FMC_SDRAMStructInit:
.Lfunc_begin16:
	.loc	3 1048 0 is_stmt 1      @ ../Libraries/STM32F4xx_StdPeriph_Driver/src/stm32f4xx_fmc.c:1048:0
	.fnstart
	.cfi_startproc
@ %bb.0:
	.save	{r7, lr}
	push	{r7, lr}
	.cfi_def_cfa_offset 8
	.cfi_offset lr, -4
	.cfi_offset r7, -8
	@DEBUG_VALUE: FMC_SDRAMStructInit:FMC_SDRAMInitStruct <- $r0
	movs	r1, #0
	@DEBUG_VALUE: FMC_SDRAMStructInit:FMC_SDRAMInitStruct <- $r0
	mov.w	r12, #512
	mov.w	lr, #128
	movs	r2, #64
	movs	r3, #16
.Ltmp169:
	.loc	3 1058 38 prologue_end  @ ../Libraries/STM32F4xx_StdPeriph_Driver/src/stm32f4xx_fmc.c:1058:38
	strd	r1, r1, [r0, #32]
	.loc	3 1050 33               @ ../Libraries/STM32F4xx_StdPeriph_Driver/src/stm32f4xx_fmc.c:1050:33
	strd	r1, r1, [r0]
	.loc	3 1052 42               @ ../Libraries/STM32F4xx_StdPeriph_Driver/src/stm32f4xx_fmc.c:1052:42
	strd	r1, r3, [r0, #8]
	.loc	3 1054 47               @ ../Libraries/STM32F4xx_StdPeriph_Driver/src/stm32f4xx_fmc.c:1054:47
	strd	r2, lr, [r0, #16]
	.loc	3 1056 44               @ ../Libraries/STM32F4xx_StdPeriph_Driver/src/stm32f4xx_fmc.c:1056:44
	strd	r12, r1, [r0, #24]
	.loc	3 1061 24               @ ../Libraries/STM32F4xx_StdPeriph_Driver/src/stm32f4xx_fmc.c:1061:24
	ldr	r0, [r0, #40]
.Ltmp170:
	.loc	3 1061 69 is_stmt 0     @ ../Libraries/STM32F4xx_StdPeriph_Driver/src/stm32f4xx_fmc.c:1061:69
	strd	r3, r3, [r0]
	.loc	3 1063 67 is_stmt 1     @ ../Libraries/STM32F4xx_StdPeriph_Driver/src/stm32f4xx_fmc.c:1063:67
	strd	r3, r3, [r0, #8]
	.loc	3 1065 69               @ ../Libraries/STM32F4xx_StdPeriph_Driver/src/stm32f4xx_fmc.c:1065:69
	strd	r3, r3, [r0, #16]
	.loc	3 1067 60               @ ../Libraries/STM32F4xx_StdPeriph_Driver/src/stm32f4xx_fmc.c:1067:60
	str	r3, [r0, #24]
	.loc	3 1069 1                @ ../Libraries/STM32F4xx_StdPeriph_Driver/src/stm32f4xx_fmc.c:1069:1
	pop	{r7, pc}
.Ltmp171:
.Lfunc_end16:
	.size	FMC_SDRAMStructInit, .Lfunc_end16-FMC_SDRAMStructInit
	.cfi_endproc
	.cantunwind
	.fnend
                                        @ -- End function
	.section	.text.FMC_SDRAMCmdConfig,"ax",%progbits
	.hidden	FMC_SDRAMCmdConfig      @ -- Begin function FMC_SDRAMCmdConfig
	.globl	FMC_SDRAMCmdConfig
	.p2align	2
	.type	FMC_SDRAMCmdConfig,%function
	.code	16                      @ @FMC_SDRAMCmdConfig
	.thumb_func
FMC_SDRAMCmdConfig:
.Lfunc_begin17:
	.loc	3 1078 0                @ ../Libraries/STM32F4xx_StdPeriph_Driver/src/stm32f4xx_fmc.c:1078:0
	.fnstart
	.cfi_startproc
@ %bb.0:
	@DEBUG_VALUE: FMC_SDRAMCmdConfig:FMC_SDRAMCommandStruct <- $r0
	@DEBUG_VALUE: FMC_SDRAMCmdConfig:FMC_SDRAMCommandStruct <- $r0
	@DEBUG_VALUE: FMC_SDRAMCmdConfig:tmpr <- 0
	.loc	3 1087 47 prologue_end  @ ../Libraries/STM32F4xx_StdPeriph_Driver/src/stm32f4xx_fmc.c:1087:47
	ldrd	r12, r2, [r0]
	.loc	3 1089 49               @ ../Libraries/STM32F4xx_StdPeriph_Driver/src/stm32f4xx_fmc.c:1089:49
	ldrd	r3, r0, [r0, #8]
.Ltmp172:
	.loc	3 0 49 is_stmt 0        @ ../Libraries/STM32F4xx_StdPeriph_Driver/src/stm32f4xx_fmc.c:0:49
	mvn	r1, #31
	.loc	3 1089 74               @ ../Libraries/STM32F4xx_StdPeriph_Driver/src/stm32f4xx_fmc.c:1089:74
	add.w	r1, r1, r3, lsl #5
	.loc	3 1087 63 is_stmt 1     @ ../Libraries/STM32F4xx_StdPeriph_Driver/src/stm32f4xx_fmc.c:1087:63
	orr.w	r2, r2, r12
	.loc	3 1088 65               @ ../Libraries/STM32F4xx_StdPeriph_Driver/src/stm32f4xx_fmc.c:1088:65
	orrs	r1, r2
	.loc	3 1089 79               @ ../Libraries/STM32F4xx_StdPeriph_Driver/src/stm32f4xx_fmc.c:1089:79
	orr.w	r0, r1, r0, lsl #9
.Ltmp173:
	@DEBUG_VALUE: FMC_SDRAMCmdConfig:tmpr <- $r0
	.loc	3 0 79 is_stmt 0        @ ../Libraries/STM32F4xx_StdPeriph_Driver/src/stm32f4xx_fmc.c:0:79
	ldr	r1, __arm_cp.17_0
	.loc	3 1092 22 is_stmt 1     @ ../Libraries/STM32F4xx_StdPeriph_Driver/src/stm32f4xx_fmc.c:1092:22
	str	r0, [r1]
	.loc	3 1094 1                @ ../Libraries/STM32F4xx_StdPeriph_Driver/src/stm32f4xx_fmc.c:1094:1
	bx	lr
.Ltmp174:
	.p2align	2
@ %bb.1:
	.loc	3 0 1 is_stmt 0         @ ../Libraries/STM32F4xx_StdPeriph_Driver/src/stm32f4xx_fmc.c:0:1
__arm_cp.17_0:
	.long	2684354896              @ 0xa0000150
.Lcpi_end25:
	.size	__arm_cp.17_0, .Lcpi_end25-__arm_cp.17_0
.Lfunc_end17:
	.size	FMC_SDRAMCmdConfig, .Lfunc_end17-FMC_SDRAMCmdConfig
	.cfi_endproc
	.cantunwind
	.fnend
                                        @ -- End function
	.section	.text.FMC_GetModeStatus,"ax",%progbits
	.hidden	FMC_GetModeStatus       @ -- Begin function FMC_GetModeStatus
	.globl	FMC_GetModeStatus
	.p2align	2
	.type	FMC_GetModeStatus,%function
	.code	16                      @ @FMC_GetModeStatus
	.thumb_func
FMC_GetModeStatus:
.Lfunc_begin18:
	.loc	3 1104 0 is_stmt 1      @ ../Libraries/STM32F4xx_StdPeriph_Driver/src/stm32f4xx_fmc.c:1104:0
	.fnstart
	.cfi_startproc
@ %bb.0:
	@DEBUG_VALUE: FMC_GetModeStatus:SDRAM_Bank <- $r0
	ldr	r1, __arm_cp.18_0
.Ltmp175:
	@DEBUG_VALUE: FMC_GetModeStatus:tmpreg <- 0
	@DEBUG_VALUE: FMC_GetModeStatus:SDRAM_Bank <- $r0
	.loc	3 1111 6 prologue_end   @ ../Libraries/STM32F4xx_StdPeriph_Driver/src/stm32f4xx_fmc.c:1111:6
	cmp	r0, #0
.Ltmp176:
	.loc	3 0 0 is_stmt 0         @ ../Libraries/STM32F4xx_StdPeriph_Driver/src/stm32f4xx_fmc.c:0:0
	ldr	r1, [r1]
.Ltmp177:
	.loc	3 1111 6                @ ../Libraries/STM32F4xx_StdPeriph_Driver/src/stm32f4xx_fmc.c:1111:6
	it	ne
	lsrne	r1, r1, #2
.Ltmp178:
	.loc	3 0 0                   @ ../Libraries/STM32F4xx_StdPeriph_Driver/src/stm32f4xx_fmc.c:0:0
	and	r0, r1, #6
.Ltmp179:
	@DEBUG_VALUE: FMC_GetModeStatus:tmpreg <- $r0
	.loc	3 1121 3 is_stmt 1      @ ../Libraries/STM32F4xx_StdPeriph_Driver/src/stm32f4xx_fmc.c:1121:3
	bx	lr
.Ltmp180:
	.p2align	2
@ %bb.1:
	.loc	3 0 3 is_stmt 0         @ ../Libraries/STM32F4xx_StdPeriph_Driver/src/stm32f4xx_fmc.c:0:3
__arm_cp.18_0:
	.long	2684354904              @ 0xa0000158
.Lcpi_end26:
	.size	__arm_cp.18_0, .Lcpi_end26-__arm_cp.18_0
.Lfunc_end18:
	.size	FMC_GetModeStatus, .Lfunc_end18-FMC_GetModeStatus
	.cfi_endproc
	.cantunwind
	.fnend
                                        @ -- End function
	.section	.text.FMC_SetRefreshCount,"ax",%progbits
	.hidden	FMC_SetRefreshCount     @ -- Begin function FMC_SetRefreshCount
	.globl	FMC_SetRefreshCount
	.p2align	2
	.type	FMC_SetRefreshCount,%function
	.code	16                      @ @FMC_SetRefreshCount
	.thumb_func
FMC_SetRefreshCount:
.Lfunc_begin19:
	.loc	3 1130 0 is_stmt 1      @ ../Libraries/STM32F4xx_StdPeriph_Driver/src/stm32f4xx_fmc.c:1130:0
	.fnstart
	.cfi_startproc
@ %bb.0:
	@DEBUG_VALUE: FMC_SetRefreshCount:FMC_Count <- $r0
	ldr	r1, __arm_cp.19_0
	@DEBUG_VALUE: FMC_SetRefreshCount:FMC_Count <- $r0
.Ltmp181:
	.loc	3 1134 22 prologue_end  @ ../Libraries/STM32F4xx_StdPeriph_Driver/src/stm32f4xx_fmc.c:1134:22
	ldr	r2, [r1]
	orr.w	r0, r2, r0, lsl #1
.Ltmp182:
	str	r0, [r1]
	.loc	3 1136 1                @ ../Libraries/STM32F4xx_StdPeriph_Driver/src/stm32f4xx_fmc.c:1136:1
	bx	lr
.Ltmp183:
	.p2align	2
@ %bb.1:
	.loc	3 0 1 is_stmt 0         @ ../Libraries/STM32F4xx_StdPeriph_Driver/src/stm32f4xx_fmc.c:0:1
__arm_cp.19_0:
	.long	2684354900              @ 0xa0000154
.Lcpi_end27:
	.size	__arm_cp.19_0, .Lcpi_end27-__arm_cp.19_0
.Lfunc_end19:
	.size	FMC_SetRefreshCount, .Lfunc_end19-FMC_SetRefreshCount
	.cfi_endproc
	.cantunwind
	.fnend
                                        @ -- End function
	.section	.text.FMC_SetAutoRefresh_Number,"ax",%progbits
	.hidden	FMC_SetAutoRefresh_Number @ -- Begin function FMC_SetAutoRefresh_Number
	.globl	FMC_SetAutoRefresh_Number
	.p2align	2
	.type	FMC_SetAutoRefresh_Number,%function
	.code	16                      @ @FMC_SetAutoRefresh_Number
	.thumb_func
FMC_SetAutoRefresh_Number:
.Lfunc_begin20:
	.loc	3 1144 0 is_stmt 1      @ ../Libraries/STM32F4xx_StdPeriph_Driver/src/stm32f4xx_fmc.c:1144:0
	.fnstart
	.cfi_startproc
@ %bb.0:
	@DEBUG_VALUE: FMC_SetAutoRefresh_Number:FMC_Number <- $r0
	ldr	r1, __arm_cp.20_0
	@DEBUG_VALUE: FMC_SetAutoRefresh_Number:FMC_Number <- $r0
.Ltmp184:
	.loc	3 1148 22 prologue_end  @ ../Libraries/STM32F4xx_StdPeriph_Driver/src/stm32f4xx_fmc.c:1148:22
	ldr	r2, [r1]
	orr.w	r0, r2, r0, lsl #5
.Ltmp185:
	str	r0, [r1]
	.loc	3 1149 1                @ ../Libraries/STM32F4xx_StdPeriph_Driver/src/stm32f4xx_fmc.c:1149:1
	bx	lr
.Ltmp186:
	.p2align	2
@ %bb.1:
	.loc	3 0 1 is_stmt 0         @ ../Libraries/STM32F4xx_StdPeriph_Driver/src/stm32f4xx_fmc.c:0:1
__arm_cp.20_0:
	.long	2684354896              @ 0xa0000150
.Lcpi_end28:
	.size	__arm_cp.20_0, .Lcpi_end28-__arm_cp.20_0
.Lfunc_end20:
	.size	FMC_SetAutoRefresh_Number, .Lfunc_end20-FMC_SetAutoRefresh_Number
	.cfi_endproc
	.cantunwind
	.fnend
                                        @ -- End function
	.section	.text.FMC_SDRAMWriteProtectionConfig,"ax",%progbits
	.hidden	FMC_SDRAMWriteProtectionConfig @ -- Begin function FMC_SDRAMWriteProtectionConfig
	.globl	FMC_SDRAMWriteProtectionConfig
	.p2align	2
	.type	FMC_SDRAMWriteProtectionConfig,%function
	.code	16                      @ @FMC_SDRAMWriteProtectionConfig
	.thumb_func
FMC_SDRAMWriteProtectionConfig:
.Lfunc_begin21:
	.loc	3 1160 0 is_stmt 1      @ ../Libraries/STM32F4xx_StdPeriph_Driver/src/stm32f4xx_fmc.c:1160:0
	.fnstart
	.cfi_startproc
@ %bb.0:
	.save	{r4, lr}
	push	{r4, lr}
	.cfi_def_cfa_offset 8
	.cfi_offset lr, -4
	.cfi_offset r4, -8
	@DEBUG_VALUE: FMC_SDRAMWriteProtectionConfig:SDRAM_Bank <- $r0
	@DEBUG_VALUE: FMC_SDRAMWriteProtectionConfig:NewState <- $r1
	ldr	r4, __arm_cp.21_0
	@DEBUG_VALUE: FMC_SDRAMWriteProtectionConfig:NewState <- $r1
	@DEBUG_VALUE: FMC_SDRAMWriteProtectionConfig:SDRAM_Bank <- $r0
	movw	r12, #32255
.Ltmp187:
	.loc	3 1165 7 prologue_end   @ ../Libraries/STM32F4xx_StdPeriph_Driver/src/stm32f4xx_fmc.c:1165:7
	cmp	r1, #0
.Ltmp188:
	.loc	3 0 0 is_stmt 0         @ ../Libraries/STM32F4xx_StdPeriph_Driver/src/stm32f4xx_fmc.c:0:0
	ldr.w	r3, [r4, r0, lsl #2]
.Ltmp189:
	.loc	3 1165 7                @ ../Libraries/STM32F4xx_StdPeriph_Driver/src/stm32f4xx_fmc.c:1165:7
	orr	r2, r3, #512
	it	eq
	andeq.w	r2, r3, r12
.Ltmp190:
	.loc	3 0 0                   @ ../Libraries/STM32F4xx_StdPeriph_Driver/src/stm32f4xx_fmc.c:0:0
	str.w	r2, [r4, r0, lsl #2]
.Ltmp191:
	.loc	3 1174 1 is_stmt 1      @ ../Libraries/STM32F4xx_StdPeriph_Driver/src/stm32f4xx_fmc.c:1174:1
	pop	{r4, pc}
.Ltmp192:
	.p2align	2
@ %bb.1:
	.loc	3 0 1 is_stmt 0         @ ../Libraries/STM32F4xx_StdPeriph_Driver/src/stm32f4xx_fmc.c:0:1
__arm_cp.21_0:
	.long	2684354880              @ 0xa0000140
.Lcpi_end29:
	.size	__arm_cp.21_0, .Lcpi_end29-__arm_cp.21_0
.Lfunc_end21:
	.size	FMC_SDRAMWriteProtectionConfig, .Lfunc_end21-FMC_SDRAMWriteProtectionConfig
	.cfi_endproc
	.cantunwind
	.fnend
                                        @ -- End function
	.section	.text.FMC_ITConfig,"ax",%progbits
	.hidden	FMC_ITConfig            @ -- Begin function FMC_ITConfig
	.globl	FMC_ITConfig
	.p2align	2
	.type	FMC_ITConfig,%function
	.code	16                      @ @FMC_ITConfig
	.thumb_func
FMC_ITConfig:
.Lfunc_begin22:
	.loc	3 1212 0 is_stmt 1      @ ../Libraries/STM32F4xx_StdPeriph_Driver/src/stm32f4xx_fmc.c:1212:0
	.fnstart
	.cfi_startproc
@ %bb.0:
	@DEBUG_VALUE: FMC_ITConfig:FMC_Bank <- $r0
	@DEBUG_VALUE: FMC_ITConfig:FMC_Bank <- $r0
	@DEBUG_VALUE: FMC_ITConfig:FMC_IT <- $r1
	@DEBUG_VALUE: FMC_ITConfig:FMC_IT <- $r1
	@DEBUG_VALUE: FMC_ITConfig:NewState <- $r2
	@DEBUG_VALUE: FMC_ITConfig:NewState <- $r2
	.loc	3 1217 7 prologue_end   @ ../Libraries/STM32F4xx_StdPeriph_Driver/src/stm32f4xx_fmc.c:1217:7
	cbz	r2, .LBB22_3
.Ltmp193:
@ %bb.1:
	@DEBUG_VALUE: FMC_ITConfig:NewState <- $r2
	@DEBUG_VALUE: FMC_ITConfig:FMC_IT <- $r1
	@DEBUG_VALUE: FMC_ITConfig:FMC_Bank <- $r0
	.loc	3 1220 8                @ ../Libraries/STM32F4xx_StdPeriph_Driver/src/stm32f4xx_fmc.c:1220:8
	cmp	r0, #16
	bne	.LBB22_5
.Ltmp194:
@ %bb.2:
	@DEBUG_VALUE: FMC_ITConfig:NewState <- $r2
	@DEBUG_VALUE: FMC_ITConfig:FMC_IT <- $r1
	@DEBUG_VALUE: FMC_ITConfig:FMC_Bank <- $r0
	.loc	3 0 8 is_stmt 0         @ ../Libraries/STM32F4xx_StdPeriph_Driver/src/stm32f4xx_fmc.c:0:8
	ldr	r0, __arm_cp.22_0
.Ltmp195:
	.loc	3 1222 22 is_stmt 1     @ ../Libraries/STM32F4xx_StdPeriph_Driver/src/stm32f4xx_fmc.c:1222:22
	ldr	r2, [r0]
.Ltmp196:
	orrs	r1, r2
.Ltmp197:
	str	r1, [r0]
.Ltmp198:
	.loc	3 1266 1                @ ../Libraries/STM32F4xx_StdPeriph_Driver/src/stm32f4xx_fmc.c:1266:1
	bx	lr
.LBB22_3:
.Ltmp199:
	@DEBUG_VALUE: FMC_ITConfig:NewState <- $r2
	@DEBUG_VALUE: FMC_ITConfig:FMC_IT <- $r1
	@DEBUG_VALUE: FMC_ITConfig:FMC_Bank <- $r0
	.loc	3 1244 8                @ ../Libraries/STM32F4xx_StdPeriph_Driver/src/stm32f4xx_fmc.c:1244:8
	cmp	r0, #16
	bne	.LBB22_8
.Ltmp200:
@ %bb.4:
	@DEBUG_VALUE: FMC_ITConfig:NewState <- $r2
	@DEBUG_VALUE: FMC_ITConfig:FMC_IT <- $r1
	@DEBUG_VALUE: FMC_ITConfig:FMC_Bank <- $r0
	.loc	3 0 8 is_stmt 0         @ ../Libraries/STM32F4xx_StdPeriph_Driver/src/stm32f4xx_fmc.c:0:8
	ldr	r0, __arm_cp.22_0
.Ltmp201:
	.loc	3 1247 22 is_stmt 1     @ ../Libraries/STM32F4xx_StdPeriph_Driver/src/stm32f4xx_fmc.c:1247:22
	ldr	r2, [r0]
.Ltmp202:
	bic.w	r1, r2, r1
.Ltmp203:
	str	r1, [r0]
.Ltmp204:
	.loc	3 1266 1                @ ../Libraries/STM32F4xx_StdPeriph_Driver/src/stm32f4xx_fmc.c:1266:1
	bx	lr
.LBB22_5:
.Ltmp205:
	@DEBUG_VALUE: FMC_ITConfig:NewState <- $r2
	@DEBUG_VALUE: FMC_ITConfig:FMC_IT <- $r1
	@DEBUG_VALUE: FMC_ITConfig:FMC_Bank <- $r0
	.loc	3 1225 14               @ ../Libraries/STM32F4xx_StdPeriph_Driver/src/stm32f4xx_fmc.c:1225:14
	cmp.w	r0, #4096
	beq	.LBB22_10
.Ltmp206:
@ %bb.6:
	@DEBUG_VALUE: FMC_ITConfig:NewState <- $r2
	@DEBUG_VALUE: FMC_ITConfig:FMC_IT <- $r1
	@DEBUG_VALUE: FMC_ITConfig:FMC_Bank <- $r0
	cmp.w	r0, #256
	bne	.LBB22_11
.Ltmp207:
@ %bb.7:
	@DEBUG_VALUE: FMC_ITConfig:NewState <- $r2
	@DEBUG_VALUE: FMC_ITConfig:FMC_IT <- $r1
	@DEBUG_VALUE: FMC_ITConfig:FMC_Bank <- $r0
	.loc	3 0 14 is_stmt 0        @ ../Libraries/STM32F4xx_StdPeriph_Driver/src/stm32f4xx_fmc.c:0:14
	ldr	r0, __arm_cp.22_0
.Ltmp208:
	.loc	3 1227 22 is_stmt 1     @ ../Libraries/STM32F4xx_StdPeriph_Driver/src/stm32f4xx_fmc.c:1227:22
	ldr	r2, [r0, #32]
.Ltmp209:
	orrs	r1, r2
.Ltmp210:
	str	r1, [r0, #32]
.Ltmp211:
	.loc	3 1266 1                @ ../Libraries/STM32F4xx_StdPeriph_Driver/src/stm32f4xx_fmc.c:1266:1
	bx	lr
.LBB22_8:
.Ltmp212:
	@DEBUG_VALUE: FMC_ITConfig:NewState <- $r2
	@DEBUG_VALUE: FMC_ITConfig:FMC_IT <- $r1
	@DEBUG_VALUE: FMC_ITConfig:FMC_Bank <- $r0
	.loc	3 1250 14               @ ../Libraries/STM32F4xx_StdPeriph_Driver/src/stm32f4xx_fmc.c:1250:14
	cmp.w	r0, #256
	bne	.LBB22_12
.Ltmp213:
@ %bb.9:
	@DEBUG_VALUE: FMC_ITConfig:NewState <- $r2
	@DEBUG_VALUE: FMC_ITConfig:FMC_IT <- $r1
	@DEBUG_VALUE: FMC_ITConfig:FMC_Bank <- $r0
	.loc	3 0 14 is_stmt 0        @ ../Libraries/STM32F4xx_StdPeriph_Driver/src/stm32f4xx_fmc.c:0:14
	ldr	r0, __arm_cp.22_0
.Ltmp214:
	.loc	3 1252 22 is_stmt 1     @ ../Libraries/STM32F4xx_StdPeriph_Driver/src/stm32f4xx_fmc.c:1252:22
	ldr	r2, [r0, #32]
.Ltmp215:
	bic.w	r1, r2, r1
.Ltmp216:
	str	r1, [r0, #32]
.Ltmp217:
	.loc	3 1266 1                @ ../Libraries/STM32F4xx_StdPeriph_Driver/src/stm32f4xx_fmc.c:1266:1
	bx	lr
.LBB22_10:
.Ltmp218:
	@DEBUG_VALUE: FMC_ITConfig:NewState <- $r2
	@DEBUG_VALUE: FMC_ITConfig:FMC_IT <- $r1
	@DEBUG_VALUE: FMC_ITConfig:FMC_Bank <- $r0
	.loc	3 0 1 is_stmt 0         @ ../Libraries/STM32F4xx_StdPeriph_Driver/src/stm32f4xx_fmc.c:0:1
	ldr	r0, __arm_cp.22_0
.Ltmp219:
	.loc	3 1232 22 is_stmt 1     @ ../Libraries/STM32F4xx_StdPeriph_Driver/src/stm32f4xx_fmc.c:1232:22
	ldr	r2, [r0, #64]
.Ltmp220:
	orrs	r1, r2
.Ltmp221:
	str	r1, [r0, #64]
.Ltmp222:
	.loc	3 1266 1                @ ../Libraries/STM32F4xx_StdPeriph_Driver/src/stm32f4xx_fmc.c:1266:1
	bx	lr
.LBB22_11:
.Ltmp223:
	@DEBUG_VALUE: FMC_ITConfig:NewState <- $r2
	@DEBUG_VALUE: FMC_ITConfig:FMC_IT <- $r1
	@DEBUG_VALUE: FMC_ITConfig:FMC_Bank <- $r0
	.loc	3 0 1 is_stmt 0         @ ../Libraries/STM32F4xx_StdPeriph_Driver/src/stm32f4xx_fmc.c:0:1
	ldr	r0, __arm_cp.22_0
.Ltmp224:
	.loc	3 1238 26 is_stmt 1     @ ../Libraries/STM32F4xx_StdPeriph_Driver/src/stm32f4xx_fmc.c:1238:26
	ldr.w	r2, [r0, #240]
.Ltmp225:
	orrs	r1, r2
.Ltmp226:
	.loc	3 0 26 is_stmt 0        @ ../Libraries/STM32F4xx_StdPeriph_Driver/src/stm32f4xx_fmc.c:0:26
	b	.LBB22_15
.Ltmp227:
.LBB22_12:
	@DEBUG_VALUE: FMC_ITConfig:NewState <- $r2
	@DEBUG_VALUE: FMC_ITConfig:FMC_IT <- $r1
	@DEBUG_VALUE: FMC_ITConfig:FMC_Bank <- $r0
	mvns	r1, r1
.Ltmp228:
	.loc	3 1255 13 is_stmt 1     @ ../Libraries/STM32F4xx_StdPeriph_Driver/src/stm32f4xx_fmc.c:1255:13
	cmp.w	r0, #4096
	bne	.LBB22_14
.Ltmp229:
@ %bb.13:
	@DEBUG_VALUE: FMC_ITConfig:NewState <- $r2
	@DEBUG_VALUE: FMC_ITConfig:FMC_Bank <- $r0
	.loc	3 0 13 is_stmt 0        @ ../Libraries/STM32F4xx_StdPeriph_Driver/src/stm32f4xx_fmc.c:0:13
	ldr	r0, __arm_cp.22_0
.Ltmp230:
	.loc	3 1257 22 is_stmt 1     @ ../Libraries/STM32F4xx_StdPeriph_Driver/src/stm32f4xx_fmc.c:1257:22
	ldr	r2, [r0, #64]
.Ltmp231:
	ands	r1, r2
	str	r1, [r0, #64]
.Ltmp232:
	.loc	3 1266 1                @ ../Libraries/STM32F4xx_StdPeriph_Driver/src/stm32f4xx_fmc.c:1266:1
	bx	lr
.LBB22_14:
.Ltmp233:
	@DEBUG_VALUE: FMC_ITConfig:NewState <- $r2
	@DEBUG_VALUE: FMC_ITConfig:FMC_Bank <- $r0
	.loc	3 0 1 is_stmt 0         @ ../Libraries/STM32F4xx_StdPeriph_Driver/src/stm32f4xx_fmc.c:0:1
	ldr	r0, __arm_cp.22_0
.Ltmp234:
	.loc	3 1263 26 is_stmt 1     @ ../Libraries/STM32F4xx_StdPeriph_Driver/src/stm32f4xx_fmc.c:1263:26
	ldr.w	r2, [r0, #240]
.Ltmp235:
	ands	r1, r2
.Ltmp236:
.LBB22_15:
	.loc	3 0 0 is_stmt 0         @ ../Libraries/STM32F4xx_StdPeriph_Driver/src/stm32f4xx_fmc.c:0:0
	str.w	r1, [r0, #240]
.Ltmp237:
	.loc	3 1266 1 is_stmt 1      @ ../Libraries/STM32F4xx_StdPeriph_Driver/src/stm32f4xx_fmc.c:1266:1
	bx	lr
.Ltmp238:
	.p2align	2
@ %bb.16:
	.loc	3 0 1 is_stmt 0         @ ../Libraries/STM32F4xx_StdPeriph_Driver/src/stm32f4xx_fmc.c:0:1
__arm_cp.22_0:
	.long	2684354660              @ 0xa0000064
.Lcpi_end30:
	.size	__arm_cp.22_0, .Lcpi_end30-__arm_cp.22_0
.Lfunc_end22:
	.size	FMC_ITConfig, .Lfunc_end22-FMC_ITConfig
	.cfi_endproc
	.cantunwind
	.fnend
                                        @ -- End function
	.section	.text.FMC_GetFlagStatus,"ax",%progbits
	.hidden	FMC_GetFlagStatus       @ -- Begin function FMC_GetFlagStatus
	.globl	FMC_GetFlagStatus
	.p2align	2
	.type	FMC_GetFlagStatus,%function
	.code	16                      @ @FMC_GetFlagStatus
	.thumb_func
FMC_GetFlagStatus:
.Lfunc_begin23:
	.loc	3 1289 0 is_stmt 1      @ ../Libraries/STM32F4xx_StdPeriph_Driver/src/stm32f4xx_fmc.c:1289:0
	.fnstart
	.cfi_startproc
@ %bb.0:
	@DEBUG_VALUE: FMC_GetFlagStatus:FMC_Bank <- $r0
	@DEBUG_VALUE: FMC_GetFlagStatus:FMC_FLAG <- $r1
	ldr	r2, __arm_cp.23_0
.Ltmp239:
	@DEBUG_VALUE: FMC_GetFlagStatus:tmpsr <- 0
	@DEBUG_VALUE: FMC_GetFlagStatus:bitstatus <- 0
	@DEBUG_VALUE: FMC_GetFlagStatus:FMC_FLAG <- $r1
	@DEBUG_VALUE: FMC_GetFlagStatus:FMC_Bank <- $r0
	.loc	3 1297 6 prologue_end   @ ../Libraries/STM32F4xx_StdPeriph_Driver/src/stm32f4xx_fmc.c:1297:6
	cmp	r0, #16
	beq	.LBB23_4
.Ltmp240:
@ %bb.1:
	@DEBUG_VALUE: FMC_GetFlagStatus:FMC_FLAG <- $r1
	@DEBUG_VALUE: FMC_GetFlagStatus:FMC_Bank <- $r0
	cmp.w	r0, #256
	beq	.LBB23_3
.Ltmp241:
@ %bb.2:
	@DEBUG_VALUE: FMC_GetFlagStatus:FMC_FLAG <- $r1
	@DEBUG_VALUE: FMC_GetFlagStatus:FMC_Bank <- $r0
	cmp.w	r0, #4096
	ite	eq
	addeq	r2, #64
	addne	r2, #244
	b	.LBB23_4
.Ltmp242:
.LBB23_3:
	@DEBUG_VALUE: FMC_GetFlagStatus:FMC_FLAG <- $r1
	@DEBUG_VALUE: FMC_GetFlagStatus:FMC_Bank <- $r0
	.loc	3 0 6 is_stmt 0         @ ../Libraries/STM32F4xx_StdPeriph_Driver/src/stm32f4xx_fmc.c:0:6
	adds	r2, #32
.Ltmp243:
.LBB23_4:
	@DEBUG_VALUE: FMC_GetFlagStatus:FMC_FLAG <- $r1
	@DEBUG_VALUE: FMC_GetFlagStatus:FMC_Bank <- $r0
	ldr	r0, [r2]
.Ltmp244:
	@DEBUG_VALUE: FMC_GetFlagStatus:tmpsr <- $r0
	.loc	3 1315 14 is_stmt 1     @ ../Libraries/STM32F4xx_StdPeriph_Driver/src/stm32f4xx_fmc.c:1315:14
	ands	r0, r1
.Ltmp245:
	.loc	3 1315 26 is_stmt 0     @ ../Libraries/STM32F4xx_StdPeriph_Driver/src/stm32f4xx_fmc.c:1315:26
	subs	r0, r0, r1
	clz	r0, r0
	lsrs	r0, r0, #5
.Ltmp246:
	@DEBUG_VALUE: FMC_GetFlagStatus:bitstatus <- undef
	.loc	3 1324 3 is_stmt 1      @ ../Libraries/STM32F4xx_StdPeriph_Driver/src/stm32f4xx_fmc.c:1324:3
	bx	lr
.Ltmp247:
	.p2align	2
@ %bb.5:
	.loc	3 0 3 is_stmt 0         @ ../Libraries/STM32F4xx_StdPeriph_Driver/src/stm32f4xx_fmc.c:0:3
__arm_cp.23_0:
	.long	2684354660              @ 0xa0000064
.Lcpi_end31:
	.size	__arm_cp.23_0, .Lcpi_end31-__arm_cp.23_0
.Lfunc_end23:
	.size	FMC_GetFlagStatus, .Lfunc_end23-FMC_GetFlagStatus
	.cfi_endproc
	.cantunwind
	.fnend
                                        @ -- End function
	.section	.text.FMC_ClearFlag,"ax",%progbits
	.hidden	FMC_ClearFlag           @ -- Begin function FMC_ClearFlag
	.globl	FMC_ClearFlag
	.p2align	2
	.type	FMC_ClearFlag,%function
	.code	16                      @ @FMC_ClearFlag
	.thumb_func
FMC_ClearFlag:
.Lfunc_begin24:
	.loc	3 1345 0 is_stmt 1      @ ../Libraries/STM32F4xx_StdPeriph_Driver/src/stm32f4xx_fmc.c:1345:0
	.fnstart
	.cfi_startproc
@ %bb.0:
	@DEBUG_VALUE: FMC_ClearFlag:FMC_Bank <- $r0
	@DEBUG_VALUE: FMC_ClearFlag:FMC_FLAG <- $r1
	ldr	r2, __arm_cp.24_0
	@DEBUG_VALUE: FMC_ClearFlag:FMC_FLAG <- $r1
	@DEBUG_VALUE: FMC_ClearFlag:FMC_Bank <- $r0
.Ltmp248:
	.loc	3 1350 6 prologue_end   @ ../Libraries/STM32F4xx_StdPeriph_Driver/src/stm32f4xx_fmc.c:1350:6
	cmp	r0, #16
	beq	.LBB24_4
.Ltmp249:
@ %bb.1:
	@DEBUG_VALUE: FMC_ClearFlag:FMC_FLAG <- $r1
	@DEBUG_VALUE: FMC_ClearFlag:FMC_Bank <- $r0
	cmp.w	r0, #256
	bne	.LBB24_3
.Ltmp250:
@ %bb.2:
	@DEBUG_VALUE: FMC_ClearFlag:FMC_FLAG <- $r1
	@DEBUG_VALUE: FMC_ClearFlag:FMC_Bank <- $r0
	.loc	3 0 6 is_stmt 0         @ ../Libraries/STM32F4xx_StdPeriph_Driver/src/stm32f4xx_fmc.c:0:6
	adds	r2, #32
	b	.LBB24_4
.Ltmp251:
.LBB24_3:
	@DEBUG_VALUE: FMC_ClearFlag:FMC_FLAG <- $r1
	@DEBUG_VALUE: FMC_ClearFlag:FMC_Bank <- $r0
	add.w	r3, r2, #240
	cmp.w	r0, #4096
	it	eq
	addeq.w	r3, r2, #64
	mov	r2, r3
.Ltmp252:
.LBB24_4:
	@DEBUG_VALUE: FMC_ClearFlag:FMC_FLAG <- $r1
	@DEBUG_VALUE: FMC_ClearFlag:FMC_Bank <- $r0
	ldr	r0, [r2]
.Ltmp253:
	bics	r0, r1
	str	r0, [r2]
.Ltmp254:
	.loc	3 1368 1 is_stmt 1      @ ../Libraries/STM32F4xx_StdPeriph_Driver/src/stm32f4xx_fmc.c:1368:1
	bx	lr
.Ltmp255:
	.p2align	2
@ %bb.5:
	.loc	3 0 1 is_stmt 0         @ ../Libraries/STM32F4xx_StdPeriph_Driver/src/stm32f4xx_fmc.c:0:1
__arm_cp.24_0:
	.long	2684354660              @ 0xa0000064
.Lcpi_end32:
	.size	__arm_cp.24_0, .Lcpi_end32-__arm_cp.24_0
.Lfunc_end24:
	.size	FMC_ClearFlag, .Lfunc_end24-FMC_ClearFlag
	.cfi_endproc
	.cantunwind
	.fnend
                                        @ -- End function
	.section	.text.FMC_GetITStatus,"ax",%progbits
	.hidden	FMC_GetITStatus         @ -- Begin function FMC_GetITStatus
	.globl	FMC_GetITStatus
	.p2align	2
	.type	FMC_GetITStatus,%function
	.code	16                      @ @FMC_GetITStatus
	.thumb_func
FMC_GetITStatus:
.Lfunc_begin25:
	.loc	3 1388 0 is_stmt 1      @ ../Libraries/STM32F4xx_StdPeriph_Driver/src/stm32f4xx_fmc.c:1388:0
	.fnstart
	.cfi_startproc
@ %bb.0:
	.save	{r4, lr}
	push	{r4, lr}
	.cfi_def_cfa_offset 8
	.cfi_offset lr, -4
	.cfi_offset r4, -8
	@DEBUG_VALUE: FMC_GetITStatus:FMC_Bank <- $r0
	@DEBUG_VALUE: FMC_GetITStatus:FMC_IT <- $r1
	ldr	r4, __arm_cp.25_0
.Ltmp256:
	@DEBUG_VALUE: FMC_GetITStatus:itenable <- 0
	@DEBUG_VALUE: FMC_GetITStatus:itstatus <- 0
	@DEBUG_VALUE: FMC_GetITStatus:tmpsr2 <- 0
	@DEBUG_VALUE: FMC_GetITStatus:tmpsr <- 0
	@DEBUG_VALUE: FMC_GetITStatus:bitstatus <- 0
	@DEBUG_VALUE: FMC_GetITStatus:FMC_IT <- $r1
	@DEBUG_VALUE: FMC_GetITStatus:FMC_Bank <- $r0
	.loc	3 1399 6 prologue_end   @ ../Libraries/STM32F4xx_StdPeriph_Driver/src/stm32f4xx_fmc.c:1399:6
	cmp	r0, #16
	beq	.LBB25_5
.Ltmp257:
@ %bb.1:
	@DEBUG_VALUE: FMC_GetITStatus:FMC_IT <- $r1
	@DEBUG_VALUE: FMC_GetITStatus:FMC_Bank <- $r0
	cmp.w	r0, #4096
	beq	.LBB25_4
.Ltmp258:
@ %bb.2:
	@DEBUG_VALUE: FMC_GetITStatus:FMC_IT <- $r1
	@DEBUG_VALUE: FMC_GetITStatus:FMC_Bank <- $r0
	cmp.w	r0, #256
	bne	.LBB25_8
.Ltmp259:
@ %bb.3:
	@DEBUG_VALUE: FMC_GetITStatus:FMC_IT <- $r1
	@DEBUG_VALUE: FMC_GetITStatus:FMC_Bank <- $r0
	.loc	3 0 6 is_stmt 0         @ ../Libraries/STM32F4xx_StdPeriph_Driver/src/stm32f4xx_fmc.c:0:6
	adds	r4, #32
	b	.LBB25_5
.Ltmp260:
.LBB25_4:
	@DEBUG_VALUE: FMC_GetITStatus:FMC_IT <- $r1
	@DEBUG_VALUE: FMC_GetITStatus:FMC_Bank <- $r0
	adds	r4, #64
.Ltmp261:
.LBB25_5:
	@DEBUG_VALUE: FMC_GetITStatus:FMC_IT <- $r1
	@DEBUG_VALUE: FMC_GetITStatus:FMC_Bank <- $r0
	ldr	r3, [r4]
.Ltmp262:
	.loc	3 1419 20 is_stmt 1     @ ../Libraries/STM32F4xx_StdPeriph_Driver/src/stm32f4xx_fmc.c:1419:20
	and.w	r2, r3, r1
.Ltmp263:
.LBB25_6:
	@DEBUG_VALUE: FMC_GetITStatus:FMC_IT <- $r1
	@DEBUG_VALUE: FMC_GetITStatus:FMC_Bank <- $r0
	.loc	3 1428 22               @ ../Libraries/STM32F4xx_StdPeriph_Driver/src/stm32f4xx_fmc.c:1428:22
	and.w	r0, r3, r1, lsr #3
.Ltmp264:
	@DEBUG_VALUE: FMC_GetITStatus:itstatus <- $r0
.LBB25_7:
	@DEBUG_VALUE: FMC_GetITStatus:FMC_IT <- $r1
	@DEBUG_VALUE: FMC_GetITStatus:itstatus <- $r0
	.loc	3 1431 17               @ ../Libraries/STM32F4xx_StdPeriph_Driver/src/stm32f4xx_fmc.c:1431:17
	cmp	r0, #0
	it	ne
	movne	r0, #1
.Ltmp265:
	.loc	3 1431 51 is_stmt 0     @ ../Libraries/STM32F4xx_StdPeriph_Driver/src/stm32f4xx_fmc.c:1431:51
	cmp	r2, #0
	it	ne
	movne	r2, #1
	.loc	3 1431 38               @ ../Libraries/STM32F4xx_StdPeriph_Driver/src/stm32f4xx_fmc.c:1431:38
	ands	r0, r2
.Ltmp266:
	@DEBUG_VALUE: FMC_GetITStatus:bitstatus <- undef
	.loc	3 1439 3 is_stmt 1      @ ../Libraries/STM32F4xx_StdPeriph_Driver/src/stm32f4xx_fmc.c:1439:3
	pop	{r4, pc}
.LBB25_8:
	@DEBUG_VALUE: FMC_GetITStatus:FMC_IT <- $r1
.Ltmp267:
	@DEBUG_VALUE: FMC_GetITStatus:FMC_Bank <- $r0
	.loc	3 1414 26               @ ../Libraries/STM32F4xx_StdPeriph_Driver/src/stm32f4xx_fmc.c:1414:26
	ldr.w	r3, [r4, #240]
.Ltmp268:
	@DEBUG_VALUE: FMC_GetITStatus:tmpsr <- $r3
	.loc	3 1415 27               @ ../Libraries/STM32F4xx_StdPeriph_Driver/src/stm32f4xx_fmc.c:1415:27
	ldr.w	r4, [r4, #244]
.Ltmp269:
	@DEBUG_VALUE: FMC_GetITStatus:tmpsr2 <- $r4
	.loc	3 1422 36               @ ../Libraries/STM32F4xx_StdPeriph_Driver/src/stm32f4xx_fmc.c:1422:36
	cmp	r0, #2
.Ltmp270:
	.loc	3 1419 20               @ ../Libraries/STM32F4xx_StdPeriph_Driver/src/stm32f4xx_fmc.c:1419:20
	and.w	r2, r3, r1
.Ltmp271:
	@DEBUG_VALUE: FMC_GetITStatus:itenable <- $r2
	.loc	3 1422 36               @ ../Libraries/STM32F4xx_StdPeriph_Driver/src/stm32f4xx_fmc.c:1422:36
	bhs	.LBB25_6
.Ltmp272:
@ %bb.9:
	@DEBUG_VALUE: FMC_GetITStatus:itenable <- $r2
	@DEBUG_VALUE: FMC_GetITStatus:tmpsr2 <- $r4
	@DEBUG_VALUE: FMC_GetITStatus:tmpsr <- $r3
	@DEBUG_VALUE: FMC_GetITStatus:FMC_IT <- $r1
	@DEBUG_VALUE: FMC_GetITStatus:FMC_Bank <- $r0
	.loc	3 0 36 is_stmt 0        @ ../Libraries/STM32F4xx_StdPeriph_Driver/src/stm32f4xx_fmc.c:0:36
	and	r0, r4, #1
.Ltmp273:
	b	.LBB25_7
.Ltmp274:
	.p2align	2
@ %bb.10:
__arm_cp.25_0:
	.long	2684354660              @ 0xa0000064
.Lcpi_end33:
	.size	__arm_cp.25_0, .Lcpi_end33-__arm_cp.25_0
.Lfunc_end25:
	.size	FMC_GetITStatus, .Lfunc_end25-FMC_GetITStatus
	.cfi_endproc
	.cantunwind
	.fnend
                                        @ -- End function
	.section	.text.FMC_ClearITPendingBit,"ax",%progbits
	.hidden	FMC_ClearITPendingBit   @ -- Begin function FMC_ClearITPendingBit
	.globl	FMC_ClearITPendingBit
	.p2align	2
	.type	FMC_ClearITPendingBit,%function
	.code	16                      @ @FMC_ClearITPendingBit
	.thumb_func
FMC_ClearITPendingBit:
.Lfunc_begin26:
	.loc	3 1460 0 is_stmt 1      @ ../Libraries/STM32F4xx_StdPeriph_Driver/src/stm32f4xx_fmc.c:1460:0
	.fnstart
	.cfi_startproc
@ %bb.0:
	@DEBUG_VALUE: FMC_ClearITPendingBit:FMC_Bank <- $r0
	@DEBUG_VALUE: FMC_ClearITPendingBit:FMC_Bank <- $r0
	@DEBUG_VALUE: FMC_ClearITPendingBit:FMC_IT <- $r1
	@DEBUG_VALUE: FMC_ClearITPendingBit:FMC_IT <- $r1
	.loc	3 1465 6 prologue_end   @ ../Libraries/STM32F4xx_StdPeriph_Driver/src/stm32f4xx_fmc.c:1465:6
	cmp.w	r0, #4096
	beq	.LBB26_4
.Ltmp275:
@ %bb.1:
	@DEBUG_VALUE: FMC_ClearITPendingBit:FMC_IT <- $r1
	@DEBUG_VALUE: FMC_ClearITPendingBit:FMC_Bank <- $r0
	cmp.w	r0, #256
	beq	.LBB26_5
.Ltmp276:
@ %bb.2:
	@DEBUG_VALUE: FMC_ClearITPendingBit:FMC_IT <- $r1
	@DEBUG_VALUE: FMC_ClearITPendingBit:FMC_Bank <- $r0
	cmp	r0, #16
	bne	.LBB26_6
.Ltmp277:
@ %bb.3:
	@DEBUG_VALUE: FMC_ClearITPendingBit:FMC_IT <- $r1
	@DEBUG_VALUE: FMC_ClearITPendingBit:FMC_Bank <- $r0
	.loc	3 0 6 is_stmt 0         @ ../Libraries/STM32F4xx_StdPeriph_Driver/src/stm32f4xx_fmc.c:0:6
	ldr	r0, __arm_cp.26_0
.Ltmp278:
	.loc	3 1467 20 is_stmt 1     @ ../Libraries/STM32F4xx_StdPeriph_Driver/src/stm32f4xx_fmc.c:1467:20
	ldr	r2, [r0]
	bic.w	r1, r2, r1, lsr #3
.Ltmp279:
	str	r1, [r0]
.Ltmp280:
	.loc	3 1482 1                @ ../Libraries/STM32F4xx_StdPeriph_Driver/src/stm32f4xx_fmc.c:1482:1
	bx	lr
.LBB26_4:
.Ltmp281:
	@DEBUG_VALUE: FMC_ClearITPendingBit:FMC_IT <- $r1
	@DEBUG_VALUE: FMC_ClearITPendingBit:FMC_Bank <- $r0
	.loc	3 0 1 is_stmt 0         @ ../Libraries/STM32F4xx_StdPeriph_Driver/src/stm32f4xx_fmc.c:0:1
	ldr	r0, __arm_cp.26_0
.Ltmp282:
	.loc	3 1475 20 is_stmt 1     @ ../Libraries/STM32F4xx_StdPeriph_Driver/src/stm32f4xx_fmc.c:1475:20
	ldr	r2, [r0, #64]
	bic.w	r1, r2, r1, lsr #3
.Ltmp283:
	str	r1, [r0, #64]
.Ltmp284:
	.loc	3 1482 1                @ ../Libraries/STM32F4xx_StdPeriph_Driver/src/stm32f4xx_fmc.c:1482:1
	bx	lr
.LBB26_5:
.Ltmp285:
	@DEBUG_VALUE: FMC_ClearITPendingBit:FMC_IT <- $r1
	@DEBUG_VALUE: FMC_ClearITPendingBit:FMC_Bank <- $r0
	.loc	3 0 1 is_stmt 0         @ ../Libraries/STM32F4xx_StdPeriph_Driver/src/stm32f4xx_fmc.c:0:1
	ldr	r0, __arm_cp.26_0
.Ltmp286:
	.loc	3 1471 20 is_stmt 1     @ ../Libraries/STM32F4xx_StdPeriph_Driver/src/stm32f4xx_fmc.c:1471:20
	ldr	r2, [r0, #32]
	bic.w	r1, r2, r1, lsr #3
.Ltmp287:
	str	r1, [r0, #32]
.Ltmp288:
	.loc	3 1482 1                @ ../Libraries/STM32F4xx_StdPeriph_Driver/src/stm32f4xx_fmc.c:1482:1
	bx	lr
.LBB26_6:
.Ltmp289:
	@DEBUG_VALUE: FMC_ClearITPendingBit:FMC_IT <- $r1
	@DEBUG_VALUE: FMC_ClearITPendingBit:FMC_Bank <- $r0
	.loc	3 0 1 is_stmt 0         @ ../Libraries/STM32F4xx_StdPeriph_Driver/src/stm32f4xx_fmc.c:0:1
	ldr	r0, __arm_cp.26_0
.Ltmp290:
	.loc	3 1480 24 is_stmt 1     @ ../Libraries/STM32F4xx_StdPeriph_Driver/src/stm32f4xx_fmc.c:1480:24
	ldr.w	r1, [r0, #240]
.Ltmp291:
	orr	r1, r1, #1
	str.w	r1, [r0, #240]
.Ltmp292:
	.loc	3 1482 1                @ ../Libraries/STM32F4xx_StdPeriph_Driver/src/stm32f4xx_fmc.c:1482:1
	bx	lr
.Ltmp293:
	.p2align	2
@ %bb.7:
	.loc	3 0 1 is_stmt 0         @ ../Libraries/STM32F4xx_StdPeriph_Driver/src/stm32f4xx_fmc.c:0:1
__arm_cp.26_0:
	.long	2684354660              @ 0xa0000064
.Lcpi_end34:
	.size	__arm_cp.26_0, .Lcpi_end34-__arm_cp.26_0
.Lfunc_end26:
	.size	FMC_ClearITPendingBit, .Lfunc_end26-FMC_ClearITPendingBit
	.cfi_endproc
	.cantunwind
	.fnend
                                        @ -- End function
	.hidden	FMC_DefaultTimingStruct @ @FMC_DefaultTimingStruct
	.type	FMC_DefaultTimingStruct,%object
	.section	.rodata.FMC_DefaultTimingStruct,"a",%progbits
	.globl	FMC_DefaultTimingStruct
	.p2align	2
FMC_DefaultTimingStruct:
	.long	15                      @ 0xf
	.long	15                      @ 0xf
	.long	255                     @ 0xff
	.long	15                      @ 0xf
	.long	15                      @ 0xf
	.long	15                      @ 0xf
	.long	0                       @ 0x0
	.size	FMC_DefaultTimingStruct, 28

	.section	".note.GNU-stack","",%progbits
	.eabi_attribute	30, 4	@ Tag_ABI_optimization_goals
	.ARM_attribute	16, 1	@ Tag_AV_eba