	.text
	.syntax unified
	.eabi_attribute	67, "2.09"	@ Tag_conformance
	.cpu	cortex-m4
	.eabi_attribute	6, 13	@ Tag_CPU_arch
	.eabi_attribute	7, 77	@ Tag_CPU_arch_profile
	.eabi_attribute	8, 0	@ Tag_ARM_ISA_use
	.eabi_attribute	9, 2	@ Tag_THUMB_ISA_use
	.fpu	fpv4-sp-d16
	.eabi_attribute	27, 1	@ Tag_ABI_HardFP_use
	.eabi_attribute	36, 1	@ Tag_FP_HP_extension
	.eabi_attribute	34, 1	@ Tag_CPU_unaligned_access
	.eabi_attribute	17, 1	@ Tag_ABI_PCS_GOT_use
	.eabi_attribute	20, 2	@ Tag_ABI_FP_denormal
	.eabi_attribute	21, 0	@ Tag_ABI_FP_exceptions
	.eabi_attribute	23, 1	@ Tag_ABI_FP_number_model
	.eabi_attribute	24, 1	@ Tag_ABI_align_needed
	.eabi_attribute	25, 1	@ Tag_ABI_align_preserved
	.eabi_attribute	28, 1	@ Tag_ABI_VFP_args
	.eabi_attribute	38, 1	@ Tag_ABI_FP_16bit_format
	.eabi_attribute	18, 2	@ Tag_ABI_PCS_wchar_t
	.eabi_attribute	26, 1	@ Tag_ABI_enum_size
	.eabi_attribute	14, 0	@ Tag_ABI_PCS_R9_use
	.file	"stm32f4xx_pwr.c"
	.file	1 "F:\\SkyDrive\\OtvoreniProjekti\\HotelSaplast\\fw\\KontrolerHotela\\HCBL020318\\Project" "../Libraries/CMSIS/Device/ST/STM32F4xx/Include\\stm32f4xx.h"
	.file	2 "C:\\Keil\\ARM\\ARMCLANG\\Bin\\..\\include" "stdint.h"
	.file	3 "C:/Keil\\ARM\\CMSIS\\Include" "core_cm4.h"
	.section	.text.PWR_DeInit,"ax",%progbits
	.hidden	PWR_DeInit              @ -- Begin function PWR_DeInit
	.globl	PWR_DeInit
	.p2align	1
	.type	PWR_DeInit,%function
	.code	16                      @ @PWR_DeInit
	.thumb_func
PWR_DeInit:
.Lfunc_begin0:
	.file	4 "F:\\SkyDrive\\OtvoreniProjekti\\HotelSaplast\\fw\\KontrolerHotela\\HCBL020318\\Project" "../Libraries/STM32F4xx_StdPeriph_Driver/src/stm32f4xx_pwr.c"
	.loc	4 165 0                 @ ../Libraries/STM32F4xx_StdPeriph_Driver/src/stm32f4xx_pwr.c:165:0
	.fnstart
	.cfi_sections .debug_frame
	.cfi_startproc
@ %bb.0:
	.save	{r7, lr}
	push	{r7, lr}
	.cfi_def_cfa_offset 8
	.cfi_offset lr, -4
	.cfi_offset r7, -8
.Ltmp0:
	.loc	4 166 3 prologue_end    @ ../Libraries/STM32F4xx_StdPeriph_Driver/src/stm32f4xx_pwr.c:166:3
	mov.w	r0, #268435456
	movs	r1, #1
	bl	RCC_APB1PeriphResetCmd
	.loc	4 167 3                 @ ../Libraries/STM32F4xx_StdPeriph_Driver/src/stm32f4xx_pwr.c:167:3
	mov.w	r0, #268435456
	movs	r1, #0
	pop.w	{r7, lr}
	b	RCC_APB1PeriphResetCmd
.Ltmp1:
.Lfunc_end0:
	.size	PWR_DeInit, .Lfunc_end0-PWR_DeInit
	.cfi_endproc
	.cantunwind
	.fnend
                                        @ -- End function
	.section	.text.PWR_BackupAccessCmd,"ax",%progbits
	.hidden	PWR_BackupAccessCmd     @ -- Begin function PWR_BackupAccessCmd
	.globl	PWR_BackupAccessCmd
	.p2align	2
	.type	PWR_BackupAccessCmd,%function
	.code	16                      @ @PWR_BackupAccessCmd
	.thumb_func
PWR_BackupAccessCmd:
.Lfunc_begin1:
	.loc	4 180 0                 @ ../Libraries/STM32F4xx_StdPeriph_Driver/src/stm32f4xx_pwr.c:180:0
	.fnstart
	.cfi_startproc
@ %bb.0:
	@DEBUG_VALUE: PWR_BackupAccessCmd:NewState <- $r0
	ldr	r1, __arm_cp.1_0
	@DEBUG_VALUE: PWR_BackupAccessCmd:NewState <- $r0
.Ltmp2:
	.loc	4 184 32 prologue_end   @ ../Libraries/STM32F4xx_StdPeriph_Driver/src/stm32f4xx_pwr.c:184:32
	str	r0, [r1]
	.loc	4 185 1                 @ ../Libraries/STM32F4xx_StdPeriph_Driver/src/stm32f4xx_pwr.c:185:1
	bx	lr
.Ltmp3:
	.p2align	2
@ %bb.1:
	.loc	4 0 1 is_stmt 0         @ ../Libraries/STM32F4xx_StdPeriph_Driver/src/stm32f4xx_pwr.c:0:1
__arm_cp.1_0:
	.long	1108213792              @ 0x420e0020
.Lcpi_end0:
	.size	__arm_cp.1_0, .Lcpi_end0-__arm_cp.1_0
.Lfunc_end1:
	.size	PWR_BackupAccessCmd, .Lfunc_end1-PWR_BackupAccessCmd
	.cfi_endproc
	.cantunwind
	.fnend
                                        @ -- End function
	.section	.text.PWR_PVDLevelConfig,"ax",%progbits
	.hidden	PWR_PVDLevelConfig      @ -- Begin function PWR_PVDLevelConfig
	.globl	PWR_PVDLevelConfig
	.p2align	2
	.type	PWR_PVDLevelConfig,%function
	.code	16                      @ @PWR_PVDLevelConfig
	.thumb_func
PWR_PVDLevelConfig:
.Lfunc_begin2:
	.loc	4 228 0 is_stmt 1       @ ../Libraries/STM32F4xx_StdPeriph_Driver/src/stm32f4xx_pwr.c:228:0
	.fnstart
	.cfi_startproc
@ %bb.0:
	@DEBUG_VALUE: PWR_PVDLevelConfig:PWR_PVDLevel <- $r0
	ldr	r1, __arm_cp.2_0
.Ltmp4:
	@DEBUG_VALUE: PWR_PVDLevelConfig:tmpreg <- 0
	@DEBUG_VALUE: PWR_PVDLevelConfig:PWR_PVDLevel <- $r0
	.loc	4 234 17 prologue_end   @ ../Libraries/STM32F4xx_StdPeriph_Driver/src/stm32f4xx_pwr.c:234:17
	ldr	r2, [r1]
.Ltmp5:
	@DEBUG_VALUE: PWR_PVDLevelConfig:tmpreg <- $r2
	.loc	4 237 10                @ ../Libraries/STM32F4xx_StdPeriph_Driver/src/stm32f4xx_pwr.c:237:10
	bic	r2, r2, #224
.Ltmp6:
	@DEBUG_VALUE: PWR_PVDLevelConfig:tmpreg <- $r2
	.loc	4 240 10                @ ../Libraries/STM32F4xx_StdPeriph_Driver/src/stm32f4xx_pwr.c:240:10
	orrs	r0, r2
.Ltmp7:
	@DEBUG_VALUE: PWR_PVDLevelConfig:tmpreg <- $r0
	.loc	4 243 11                @ ../Libraries/STM32F4xx_StdPeriph_Driver/src/stm32f4xx_pwr.c:243:11
	str	r0, [r1]
	.loc	4 244 1                 @ ../Libraries/STM32F4xx_StdPeriph_Driver/src/stm32f4xx_pwr.c:244:1
	bx	lr
.Ltmp8:
	.p2align	2
@ %bb.1:
	.loc	4 0 1 is_stmt 0         @ ../Libraries/STM32F4xx_StdPeriph_Driver/src/stm32f4xx_pwr.c:0:1
__arm_cp.2_0:
	.long	1073770496              @ 0x40007000
.Lcpi_end1:
	.size	__arm_cp.2_0, .Lcpi_end1-__arm_cp.2_0
.Lfunc_end2:
	.size	PWR_PVDLevelConfig, .Lfunc_end2-PWR_PVDLevelConfig
	.cfi_endproc
	.cantunwind
	.fnend
                                        @ -- End function
	.section	.text.PWR_PVDCmd,"ax",%progbits
	.hidden	PWR_PVDCmd              @ -- Begin function PWR_PVDCmd
	.globl	PWR_PVDCmd
	.p2align	2
	.type	PWR_PVDCmd,%function
	.code	16                      @ @PWR_PVDCmd
	.thumb_func
PWR_PVDCmd:
.Lfunc_begin3:
	.loc	4 253 0 is_stmt 1       @ ../Libraries/STM32F4xx_StdPeriph_Driver/src/stm32f4xx_pwr.c:253:0
	.fnstart
	.cfi_startproc
@ %bb.0:
	@DEBUG_VALUE: PWR_PVDCmd:NewState <- $r0
	ldr	r1, __arm_cp.3_0
	@DEBUG_VALUE: PWR_PVDCmd:NewState <- $r0
.Ltmp9:
	.loc	4 257 33 prologue_end   @ ../Libraries/STM32F4xx_StdPeriph_Driver/src/stm32f4xx_pwr.c:257:33
	str	r0, [r1]
	.loc	4 258 1                 @ ../Libraries/STM32F4xx_StdPeriph_Driver/src/stm32f4xx_pwr.c:258:1
	bx	lr
.Ltmp10:
	.p2align	2
@ %bb.1:
	.loc	4 0 1 is_stmt 0         @ ../Libraries/STM32F4xx_StdPeriph_Driver/src/stm32f4xx_pwr.c:0:1
__arm_cp.3_0:
	.long	1108213776              @ 0x420e0010
.Lcpi_end2:
	.size	__arm_cp.3_0, .Lcpi_end2-__arm_cp.3_0
.Lfunc_end3:
	.size	PWR_PVDCmd, .Lfunc_end3-PWR_PVDCmd
	.cfi_endproc
	.cantunwind
	.fnend
                                        @ -- End function
	.section	.text.PWR_WakeUpPinCmd,"ax",%progbits
	.hidden	PWR_WakeUpPinCmd        @ -- Begin function PWR_WakeUpPinCmd
	.globl	PWR_WakeUpPinCmd
	.p2align	2
	.type	PWR_WakeUpPinCmd,%function
	.code	16                      @ @PWR_WakeUpPinCmd
	.thumb_func
PWR_WakeUpPinCmd:
.Lfunc_begin4:
	.loc	4 287 0 is_stmt 1       @ ../Libraries/STM32F4xx_StdPeriph_Driver/src/stm32f4xx_pwr.c:287:0
	.fnstart
	.cfi_startproc
@ %bb.0:
	@DEBUG_VALUE: PWR_WakeUpPinCmd:NewState <- $r0
	ldr	r1, __arm_cp.4_0
	@DEBUG_VALUE: PWR_WakeUpPinCmd:NewState <- $r0
.Ltmp11:
	.loc	4 291 34 prologue_end   @ ../Libraries/STM32F4xx_StdPeriph_Driver/src/stm32f4xx_pwr.c:291:34
	str	r0, [r1]
	.loc	4 292 1                 @ ../Libraries/STM32F4xx_StdPeriph_Driver/src/stm32f4xx_pwr.c:292:1
	bx	lr
.Ltmp12:
	.p2align	2
@ %bb.1:
	.loc	4 0 1 is_stmt 0         @ ../Libraries/STM32F4xx_StdPeriph_Driver/src/stm32f4xx_pwr.c:0:1
__arm_cp.4_0:
	.long	1108213920              @ 0x420e00a0
.Lcpi_end3:
	.size	__arm_cp.4_0, .Lcpi_end3-__arm_cp.4_0
.Lfunc_end4:
	.size	PWR_WakeUpPinCmd, .Lfunc_end4-PWR_WakeUpPinCmd
	.cfi_endproc
	.cantunwind
	.fnend
                                        @ -- End function
	.section	.text.PWR_BackupRegulatorCmd,"ax",%progbits
	.hidden	PWR_BackupRegulatorCmd  @ -- Begin function PWR_BackupRegulatorCmd
	.globl	PWR_BackupRegulatorCmd
	.p2align	2
	.type	PWR_BackupRegulatorCmd,%function
	.code	16                      @ @PWR_BackupRegulatorCmd
	.thumb_func
PWR_BackupRegulatorCmd:
.Lfunc_begin5:
	.loc	4 412 0 is_stmt 1       @ ../Libraries/STM32F4xx_StdPeriph_Driver/src/stm32f4xx_pwr.c:412:0
	.fnstart
	.cfi_startproc
@ %bb.0:
	@DEBUG_VALUE: PWR_BackupRegulatorCmd:NewState <- $r0
	ldr	r1, __arm_cp.5_0
	@DEBUG_VALUE: PWR_BackupRegulatorCmd:NewState <- $r0
.Ltmp13:
	.loc	4 416 33 prologue_end   @ ../Libraries/STM32F4xx_StdPeriph_Driver/src/stm32f4xx_pwr.c:416:33
	str	r0, [r1]
	.loc	4 417 1                 @ ../Libraries/STM32F4xx_StdPeriph_Driver/src/stm32f4xx_pwr.c:417:1
	bx	lr
.Ltmp14:
	.p2align	2
@ %bb.1:
	.loc	4 0 1 is_stmt 0         @ ../Libraries/STM32F4xx_StdPeriph_Driver/src/stm32f4xx_pwr.c:0:1
__arm_cp.5_0:
	.long	1108213924              @ 0x420e00a4
.Lcpi_end4:
	.size	__arm_cp.5_0, .Lcpi_end4-__arm_cp.5_0
.Lfunc_end5:
	.size	PWR_BackupRegulatorCmd, .Lfunc_end5-PWR_BackupRegulatorCmd
	.cfi_endproc
	.cantunwind
	.fnend
                                        @ -- End function
	.section	.text.PWR_MainRegulatorModeConfig,"ax",%progbits
	.hidden	PWR_MainRegulatorModeConfig @ -- Begin function PWR_MainRegulatorModeConfig
	.globl	PWR_MainRegulatorModeConfig
	.p2align	2
	.type	PWR_MainRegulatorModeConfig,%function
	.code	16                      @ @PWR_MainRegulatorModeConfig
	.thumb_func
PWR_MainRegulatorModeConfig:
.Lfunc_begin6:
	.loc	4 434 0 is_stmt 1       @ ../Libraries/STM32F4xx_StdPeriph_Driver/src/stm32f4xx_pwr.c:434:0
	.fnstart
	.cfi_startproc
@ %bb.0:
	@DEBUG_VALUE: PWR_MainRegulatorModeConfig:PWR_Regulator_Voltage <- $r0
	ldr	r1, __arm_cp.6_0
.Ltmp15:
	@DEBUG_VALUE: PWR_MainRegulatorModeConfig:tmpreg <- 0
	@DEBUG_VALUE: PWR_MainRegulatorModeConfig:PWR_Regulator_Voltage <- $r0
	.loc	4 440 17 prologue_end   @ ../Libraries/STM32F4xx_StdPeriph_Driver/src/stm32f4xx_pwr.c:440:17
	ldr	r2, [r1]
.Ltmp16:
	@DEBUG_VALUE: PWR_MainRegulatorModeConfig:tmpreg <- $r2
	.loc	4 443 10                @ ../Libraries/STM32F4xx_StdPeriph_Driver/src/stm32f4xx_pwr.c:443:10
	bic	r2, r2, #49152
.Ltmp17:
	@DEBUG_VALUE: PWR_MainRegulatorModeConfig:tmpreg <- $r2
	.loc	4 446 10                @ ../Libraries/STM32F4xx_StdPeriph_Driver/src/stm32f4xx_pwr.c:446:10
	orrs	r0, r2
.Ltmp18:
	@DEBUG_VALUE: PWR_MainRegulatorModeConfig:tmpreg <- $r0
	.loc	4 449 11                @ ../Libraries/STM32F4xx_StdPeriph_Driver/src/stm32f4xx_pwr.c:449:11
	str	r0, [r1]
	.loc	4 450 1                 @ ../Libraries/STM32F4xx_StdPeriph_Driver/src/stm32f4xx_pwr.c:450:1
	bx	lr
.Ltmp19:
	.p2align	2
@ %bb.1:
	.loc	4 0 1 is_stmt 0         @ ../Libraries/STM32F4xx_StdPeriph_Driver/src/stm32f4xx_pwr.c:0:1
__arm_cp.6_0:
	.long	1073770496              @ 0x40007000
.Lcpi_end5:
	.size	__arm_cp.6_0, .Lcpi_end5-__arm_cp.6_0
.Lfunc_end6:
	.size	PWR_MainRegulatorModeConfig, .Lfunc_end6-PWR_MainRegulatorModeConfig
	.cfi_endproc
	.cantunwind
	.fnend
                                        @ -- End function
	.section	.text.PWR_OverDriveCmd,"ax",%progbits
	.hidden	PWR_OverDriveCmd        @ -- Begin function PWR_OverDriveCmd
	.globl	PWR_OverDriveCmd
	.p2align	2
	.type	PWR_OverDriveCmd,%function
	.code	16                      @ @PWR_OverDriveCmd
	.thumb_func
PWR_OverDriveCmd:
.Lfunc_begin7:
	.loc	4 469 0 is_stmt 1       @ ../Libraries/STM32F4xx_StdPeriph_Driver/src/stm32f4xx_pwr.c:469:0
	.fnstart
	.cfi_startproc
@ %bb.0:
	@DEBUG_VALUE: PWR_OverDriveCmd:NewState <- $r0
	ldr	r1, __arm_cp.7_0
	@DEBUG_VALUE: PWR_OverDriveCmd:NewState <- $r0
.Ltmp20:
	.loc	4 474 33 prologue_end   @ ../Libraries/STM32F4xx_StdPeriph_Driver/src/stm32f4xx_pwr.c:474:33
	str	r0, [r1]
	.loc	4 475 1                 @ ../Libraries/STM32F4xx_StdPeriph_Driver/src/stm32f4xx_pwr.c:475:1
	bx	lr
.Ltmp21:
	.p2align	2
@ %bb.1:
	.loc	4 0 1 is_stmt 0         @ ../Libraries/STM32F4xx_StdPeriph_Driver/src/stm32f4xx_pwr.c:0:1
__arm_cp.7_0:
	.long	1108213824              @ 0x420e0040
.Lcpi_end6:
	.size	__arm_cp.7_0, .Lcpi_end6-__arm_cp.7_0
.Lfunc_end7:
	.size	PWR_OverDriveCmd, .Lfunc_end7-PWR_OverDriveCmd
	.cfi_endproc
	.cantunwind
	.fnend
                                        @ -- End function
	.section	.text.PWR_OverDriveSWCmd,"ax",%progbits
	.hidden	PWR_OverDriveSWCmd      @ -- Begin function PWR_OverDriveSWCmd
	.globl	PWR_OverDriveSWCmd
	.p2align	2
	.type	PWR_OverDriveSWCmd,%function
	.code	16                      @ @PWR_OverDriveSWCmd
	.thumb_func
PWR_OverDriveSWCmd:
.Lfunc_begin8:
	.loc	4 487 0 is_stmt 1       @ ../Libraries/STM32F4xx_StdPeriph_Driver/src/stm32f4xx_pwr.c:487:0
	.fnstart
	.cfi_startproc
@ %bb.0:
	@DEBUG_VALUE: PWR_OverDriveSWCmd:NewState <- $r0
	ldr	r1, __arm_cp.8_0
	@DEBUG_VALUE: PWR_OverDriveSWCmd:NewState <- $r0
.Ltmp22:
	.loc	4 492 35 prologue_end   @ ../Libraries/STM32F4xx_StdPeriph_Driver/src/stm32f4xx_pwr.c:492:35
	str	r0, [r1]
	.loc	4 493 1                 @ ../Libraries/STM32F4xx_StdPeriph_Driver/src/stm32f4xx_pwr.c:493:1
	bx	lr
.Ltmp23:
	.p2align	2
@ %bb.1:
	.loc	4 0 1 is_stmt 0         @ ../Libraries/STM32F4xx_StdPeriph_Driver/src/stm32f4xx_pwr.c:0:1
__arm_cp.8_0:
	.long	1108213828              @ 0x420e0044
.Lcpi_end7:
	.size	__arm_cp.8_0, .Lcpi_end7-__arm_cp.8_0
.Lfunc_end8:
	.size	PWR_OverDriveSWCmd, .Lfunc_end8-PWR_OverDriveSWCmd
	.cfi_endproc
	.cantunwind
	.fnend
                                        @ -- End function
	.section	.text.PWR_UnderDriveCmd,"ax",%progbits
	.hidden	PWR_UnderDriveCmd       @ -- Begin function PWR_UnderDriveCmd
	.globl	PWR_UnderDriveCmd
	.p2align	2
	.type	PWR_UnderDriveCmd,%function
	.code	16                      @ @PWR_UnderDriveCmd
	.thumb_func
PWR_UnderDriveCmd:
.Lfunc_begin9:
	.loc	4 514 0 is_stmt 1       @ ../Libraries/STM32F4xx_StdPeriph_Driver/src/stm32f4xx_pwr.c:514:0
	.fnstart
	.cfi_startproc
@ %bb.0:
	@DEBUG_VALUE: PWR_UnderDriveCmd:NewState <- $r0
	ldr	r1, __arm_cp.9_0
	@DEBUG_VALUE: PWR_UnderDriveCmd:NewState <- $r0
.Ltmp24:
	.loc	4 518 7 prologue_end    @ ../Libraries/STM32F4xx_StdPeriph_Driver/src/stm32f4xx_pwr.c:518:7
	cmp	r0, #0
.Ltmp25:
	.loc	4 0 0 is_stmt 0         @ ../Libraries/STM32F4xx_StdPeriph_Driver/src/stm32f4xx_pwr.c:0:0
	ldr	r2, [r1]
.Ltmp26:
	.loc	4 518 7                 @ ../Libraries/STM32F4xx_StdPeriph_Driver/src/stm32f4xx_pwr.c:518:7
	orr	r3, r2, #786432
	it	eq
	biceq	r3, r2, #786432
.Ltmp27:
	.loc	4 0 0                   @ ../Libraries/STM32F4xx_StdPeriph_Driver/src/stm32f4xx_pwr.c:0:0
	str	r3, [r1]
.Ltmp28:
	.loc	4 528 1 is_stmt 1       @ ../Libraries/STM32F4xx_StdPeriph_Driver/src/stm32f4xx_pwr.c:528:1
	bx	lr
.Ltmp29:
	.p2align	2
@ %bb.1:
	.loc	4 0 1 is_stmt 0         @ ../Libraries/STM32F4xx_StdPeriph_Driver/src/stm32f4xx_pwr.c:0:1
__arm_cp.9_0:
	.long	1073770496              @ 0x40007000
.Lcpi_end8:
	.size	__arm_cp.9_0, .Lcpi_end8-__arm_cp.9_0
.Lfunc_end9:
	.size	PWR_UnderDriveCmd, .Lfunc_end9-PWR_UnderDriveCmd
	.cfi_endproc
	.cantunwind
	.fnend
                                        @ -- End function
	.section	.text.PWR_MainRegulatorUnderDriveCmd,"ax",%progbits
	.hidden	PWR_MainRegulatorUnderDriveCmd @ -- Begin function PWR_MainRegulatorUnderDriveCmd
	.globl	PWR_MainRegulatorUnderDriveCmd
	.p2align	2
	.type	PWR_MainRegulatorUnderDriveCmd,%function
	.code	16                      @ @PWR_MainRegulatorUnderDriveCmd
	.thumb_func
PWR_MainRegulatorUnderDriveCmd:
.Lfunc_begin10:
	.loc	4 541 0 is_stmt 1       @ ../Libraries/STM32F4xx_StdPeriph_Driver/src/stm32f4xx_pwr.c:541:0
	.fnstart
	.cfi_startproc
@ %bb.0:
	@DEBUG_VALUE: PWR_MainRegulatorUnderDriveCmd:NewState <- $r0
	@DEBUG_VALUE: PWR_MainRegulatorUnderDriveCmd:NewState <- $r0
	ldr	r1, __arm_cp.10_0
.Ltmp30:
	.loc	4 545 16 prologue_end   @ ../Libraries/STM32F4xx_StdPeriph_Driver/src/stm32f4xx_pwr.c:545:16
	cmp	r0, #0
	it	ne
	movne	r0, #1
.Ltmp31:
	.loc	4 0 0 is_stmt 0         @ ../Libraries/STM32F4xx_StdPeriph_Driver/src/stm32f4xx_pwr.c:0:0
	str	r0, [r1]
.Ltmp32:
	.loc	4 553 1 is_stmt 1       @ ../Libraries/STM32F4xx_StdPeriph_Driver/src/stm32f4xx_pwr.c:553:1
	bx	lr
.Ltmp33:
	.p2align	2
@ %bb.1:
	.loc	4 0 1 is_stmt 0         @ ../Libraries/STM32F4xx_StdPeriph_Driver/src/stm32f4xx_pwr.c:0:1
__arm_cp.10_0:
	.long	1108213804              @ 0x420e002c
.Lcpi_end9:
	.size	__arm_cp.10_0, .Lcpi_end9-__arm_cp.10_0
.Lfunc_end10:
	.size	PWR_MainRegulatorUnderDriveCmd, .Lfunc_end10-PWR_MainRegulatorUnderDriveCmd
	.cfi_endproc
	.cantunwind
	.fnend
                                        @ -- End function
	.section	.text.PWR_LowRegulatorUnderDriveCmd,"ax",%progbits
	.hidden	PWR_LowRegulatorUnderDriveCmd @ -- Begin function PWR_LowRegulatorUnderDriveCmd
	.globl	PWR_LowRegulatorUnderDriveCmd
	.p2align	2
	.type	PWR_LowRegulatorUnderDriveCmd,%function
	.code	16                      @ @PWR_LowRegulatorUnderDriveCmd
	.thumb_func
PWR_LowRegulatorUnderDriveCmd:
.Lfunc_begin11:
	.loc	4 565 0 is_stmt 1       @ ../Libraries/STM32F4xx_StdPeriph_Driver/src/stm32f4xx_pwr.c:565:0
	.fnstart
	.cfi_startproc
@ %bb.0:
	@DEBUG_VALUE: PWR_LowRegulatorUnderDriveCmd:NewState <- $r0
	@DEBUG_VALUE: PWR_LowRegulatorUnderDriveCmd:NewState <- $r0
	ldr	r1, __arm_cp.11_0
.Ltmp34:
	.loc	4 569 16 prologue_end   @ ../Libraries/STM32F4xx_StdPeriph_Driver/src/stm32f4xx_pwr.c:569:16
	cmp	r0, #0
	it	ne
	movne	r0, #1
.Ltmp35:
	.loc	4 0 0 is_stmt 0         @ ../Libraries/STM32F4xx_StdPeriph_Driver/src/stm32f4xx_pwr.c:0:0
	str	r0, [r1]
.Ltmp36:
	.loc	4 577 1 is_stmt 1       @ ../Libraries/STM32F4xx_StdPeriph_Driver/src/stm32f4xx_pwr.c:577:1
	bx	lr
.Ltmp37:
	.p2align	2
@ %bb.1:
	.loc	4 0 1 is_stmt 0         @ ../Libraries/STM32F4xx_StdPeriph_Driver/src/stm32f4xx_pwr.c:0:1
__arm_cp.11_0:
	.long	1108213800              @ 0x420e0028
.Lcpi_end10:
	.size	__arm_cp.11_0, .Lcpi_end10-__arm_cp.11_0
.Lfunc_end11:
	.size	PWR_LowRegulatorUnderDriveCmd, .Lfunc_end11-PWR_LowRegulatorUnderDriveCmd
	.cfi_endproc
	.cantunwind
	.fnend
                                        @ -- End function
	.section	.text.PWR_FlashPowerDownCmd,"ax",%progbits
	.hidden	PWR_FlashPowerDownCmd   @ -- Begin function PWR_FlashPowerDownCmd
	.globl	PWR_FlashPowerDownCmd
	.p2align	2
	.type	PWR_FlashPowerDownCmd,%function
	.code	16                      @ @PWR_FlashPowerDownCmd
	.thumb_func
PWR_FlashPowerDownCmd:
.Lfunc_begin12:
	.loc	4 658 0 is_stmt 1       @ ../Libraries/STM32F4xx_StdPeriph_Driver/src/stm32f4xx_pwr.c:658:0
	.fnstart
	.cfi_startproc
@ %bb.0:
	@DEBUG_VALUE: PWR_FlashPowerDownCmd:NewState <- $r0
	ldr	r1, __arm_cp.12_0
	@DEBUG_VALUE: PWR_FlashPowerDownCmd:NewState <- $r0
.Ltmp38:
	.loc	4 662 33 prologue_end   @ ../Libraries/STM32F4xx_StdPeriph_Driver/src/stm32f4xx_pwr.c:662:33
	str	r0, [r1]
	.loc	4 663 1                 @ ../Libraries/STM32F4xx_StdPeriph_Driver/src/stm32f4xx_pwr.c:663:1
	bx	lr
.Ltmp39:
	.p2align	2
@ %bb.1:
	.loc	4 0 1 is_stmt 0         @ ../Libraries/STM32F4xx_StdPeriph_Driver/src/stm32f4xx_pwr.c:0:1
__arm_cp.12_0:
	.long	1108213796              @ 0x420e0024
.Lcpi_end11:
	.size	__arm_cp.12_0, .Lcpi_end11-__arm_cp.12_0
.Lfunc_end12:
	.size	PWR_FlashPowerDownCmd, .Lfunc_end12-PWR_FlashPowerDownCmd
	.cfi_endproc
	.cantunwind
	.fnend
                                        @ -- End function
	.section	.text.PWR_EnterSTOPMode,"ax",%progbits
	.hidden	PWR_EnterSTOPMode       @ -- Begin function PWR_EnterSTOPMode
	.globl	PWR_EnterSTOPMode
	.p2align	2
	.type	PWR_EnterSTOPMode,%function
	.code	16                      @ @PWR_EnterSTOPMode
	.thumb_func
PWR_EnterSTOPMode:
.Lfunc_begin13:
	.loc	4 804 0 is_stmt 1       @ ../Libraries/STM32F4xx_StdPeriph_Driver/src/stm32f4xx_pwr.c:804:0
	.fnstart
	.cfi_startproc
@ %bb.0:
	.save	{r4, lr}
	push	{r4, lr}
	.cfi_def_cfa_offset 8
	.cfi_offset lr, -4
	.cfi_offset r4, -8
	@DEBUG_VALUE: PWR_EnterSTOPMode:PWR_Regulator <- $r0
	@DEBUG_VALUE: PWR_EnterSTOPMode:PWR_STOPEntry <- $r1
	ldr	r4, __arm_cp.13_0
.Ltmp40:
	@DEBUG_VALUE: PWR_EnterSTOPMode:tmpreg <- 0
	@DEBUG_VALUE: PWR_EnterSTOPMode:PWR_STOPEntry <- $r1
	@DEBUG_VALUE: PWR_EnterSTOPMode:PWR_Regulator <- $r0
	movw	r2, #3075
.Ltmp41:
	.loc	4 826 6 prologue_end    @ ../Libraries/STM32F4xx_StdPeriph_Driver/src/stm32f4xx_pwr.c:826:6
	cmp	r1, #1
	.loc	4 812 17                @ ../Libraries/STM32F4xx_StdPeriph_Driver/src/stm32f4xx_pwr.c:812:17
	ldr	r3, [r4]
.Ltmp42:
	@DEBUG_VALUE: PWR_EnterSTOPMode:tmpreg <- $r3
	.loc	4 814 10                @ ../Libraries/STM32F4xx_StdPeriph_Driver/src/stm32f4xx_pwr.c:814:10
	bic.w	r2, r3, r2
.Ltmp43:
	@DEBUG_VALUE: PWR_EnterSTOPMode:tmpreg <- $r2
	.loc	4 817 10                @ ../Libraries/STM32F4xx_StdPeriph_Driver/src/stm32f4xx_pwr.c:817:10
	orr.w	r0, r0, r2
.Ltmp44:
	@DEBUG_VALUE: PWR_EnterSTOPMode:tmpreg <- $r0
	.loc	4 820 11                @ ../Libraries/STM32F4xx_StdPeriph_Driver/src/stm32f4xx_pwr.c:820:11
	str	r0, [r4]
	ldr	r0, __arm_cp.13_1
.Ltmp45:
	.loc	4 823 12                @ ../Libraries/STM32F4xx_StdPeriph_Driver/src/stm32f4xx_pwr.c:823:12
	ldr	r2, [r0]
	orr	r2, r2, #4
	str	r2, [r0]
	.loc	4 826 6                 @ ../Libraries/STM32F4xx_StdPeriph_Driver/src/stm32f4xx_pwr.c:826:6
	bne	.LBB13_2
.Ltmp46:
@ %bb.1:
	@DEBUG_VALUE: PWR_EnterSTOPMode:PWR_STOPEntry <- $r1
	.file	5 "C:/Keil\\ARM\\CMSIS\\Include" "core_cmInstr.h"
	.loc	5 302 3                 @ C:/Keil\ARM\CMSIS\Include\core_cmInstr.h:302:3
	@APP
	wfi
	@NO_APP
	b	.LBB13_3
.Ltmp47:
.LBB13_2:
	@DEBUG_VALUE: PWR_EnterSTOPMode:PWR_STOPEntry <- $r1
	.loc	5 313 3                 @ C:/Keil\ARM\CMSIS\Include\core_cmInstr.h:313:3
	@APP
	wfe
	@NO_APP
.Ltmp48:
.LBB13_3:
	@DEBUG_VALUE: PWR_EnterSTOPMode:PWR_STOPEntry <- $r1
	.loc	4 837 12                @ ../Libraries/STM32F4xx_StdPeriph_Driver/src/stm32f4xx_pwr.c:837:12
	ldr	r1, [r0]
.Ltmp49:
	bic	r1, r1, #4
	str	r1, [r0]
	.loc	4 838 1                 @ ../Libraries/STM32F4xx_StdPeriph_Driver/src/stm32f4xx_pwr.c:838:1
	pop	{r4, pc}
.Ltmp50:
	.p2align	2
@ %bb.4:
	.loc	4 0 1 is_stmt 0         @ ../Libraries/STM32F4xx_StdPeriph_Driver/src/stm32f4xx_pwr.c:0:1
__arm_cp.13_0:
	.long	1073770496              @ 0x40007000
.Lcpi_end12:
	.size	__arm_cp.13_0, .Lcpi_end12-__arm_cp.13_0
__arm_cp.13_1:
	.long	3758157072              @ 0xe000ed10
.Lcpi_end13:
	.size	__arm_cp.13_1, .Lcpi_end13-__arm_cp.13_1
.Lfunc_end13:
	.size	PWR_EnterSTOPMode, .Lfunc_end13-PWR_EnterSTOPMode
	.cfi_endproc
	.cantunwind
	.fnend
                                        @ -- End function
	.section	.text.PWR_EnterUnderDriveSTOPMode,"ax",%progbits
	.hidden	PWR_EnterUnderDriveSTOPMode @ -- Begin function PWR_EnterUnderDriveSTOPMode
	.globl	PWR_EnterUnderDriveSTOPMode
	.p2align	2
	.type	PWR_EnterUnderDriveSTOPMode,%function
	.code	16                      @ @PWR_EnterUnderDriveSTOPMode
	.thumb_func
PWR_EnterUnderDriveSTOPMode:
.Lfunc_begin14:
	.loc	4 868 0 is_stmt 1       @ ../Libraries/STM32F4xx_StdPeriph_Driver/src/stm32f4xx_pwr.c:868:0
	.fnstart
	.cfi_startproc
@ %bb.0:
	.save	{r4, lr}
	push	{r4, lr}
	.cfi_def_cfa_offset 8
	.cfi_offset lr, -4
	.cfi_offset r4, -8
	@DEBUG_VALUE: PWR_EnterUnderDriveSTOPMode:PWR_Regulator <- $r0
	@DEBUG_VALUE: PWR_EnterUnderDriveSTOPMode:PWR_STOPEntry <- $r1
	ldr	r4, __arm_cp.14_0
.Ltmp51:
	@DEBUG_VALUE: PWR_EnterUnderDriveSTOPMode:tmpreg <- 0
	@DEBUG_VALUE: PWR_EnterUnderDriveSTOPMode:PWR_STOPEntry <- $r1
	@DEBUG_VALUE: PWR_EnterUnderDriveSTOPMode:PWR_Regulator <- $r0
	movw	r2, #3075
.Ltmp52:
	.loc	4 890 6 prologue_end    @ ../Libraries/STM32F4xx_StdPeriph_Driver/src/stm32f4xx_pwr.c:890:6
	cmp	r1, #1
	.loc	4 876 17                @ ../Libraries/STM32F4xx_StdPeriph_Driver/src/stm32f4xx_pwr.c:876:17
	ldr	r3, [r4]
.Ltmp53:
	@DEBUG_VALUE: PWR_EnterUnderDriveSTOPMode:tmpreg <- $r3
	.loc	4 878 10                @ ../Libraries/STM32F4xx_StdPeriph_Driver/src/stm32f4xx_pwr.c:878:10
	bic.w	r2, r3, r2
.Ltmp54:
	@DEBUG_VALUE: PWR_EnterUnderDriveSTOPMode:tmpreg <- $r2
	.loc	4 881 10                @ ../Libraries/STM32F4xx_StdPeriph_Driver/src/stm32f4xx_pwr.c:881:10
	orr.w	r0, r0, r2
.Ltmp55:
	@DEBUG_VALUE: PWR_EnterUnderDriveSTOPMode:tmpreg <- $r0
	.loc	4 884 11                @ ../Libraries/STM32F4xx_StdPeriph_Driver/src/stm32f4xx_pwr.c:884:11
	str	r0, [r4]
	ldr	r0, __arm_cp.14_1
.Ltmp56:
	.loc	4 887 12                @ ../Libraries/STM32F4xx_StdPeriph_Driver/src/stm32f4xx_pwr.c:887:12
	ldr	r2, [r0]
	orr	r2, r2, #4
	str	r2, [r0]
	.loc	4 890 6                 @ ../Libraries/STM32F4xx_StdPeriph_Driver/src/stm32f4xx_pwr.c:890:6
	bne	.LBB14_2
.Ltmp57:
@ %bb.1:
	@DEBUG_VALUE: PWR_EnterUnderDriveSTOPMode:PWR_STOPEntry <- $r1
	.loc	5 302 3                 @ C:/Keil\ARM\CMSIS\Include\core_cmInstr.h:302:3
	@APP
	wfi
	@NO_APP
	b	.LBB14_3
.Ltmp58:
.LBB14_2:
	@DEBUG_VALUE: PWR_EnterUnderDriveSTOPMode:PWR_STOPEntry <- $r1
	.loc	5 313 3                 @ C:/Keil\ARM\CMSIS\Include\core_cmInstr.h:313:3
	@APP
	wfe
	@NO_APP
.Ltmp59:
.LBB14_3:
	@DEBUG_VALUE: PWR_EnterUnderDriveSTOPMode:PWR_STOPEntry <- $r1
	.loc	4 901 12                @ ../Libraries/STM32F4xx_StdPeriph_Driver/src/stm32f4xx_pwr.c:901:12
	ldr	r1, [r0]
.Ltmp60:
	bic	r1, r1, #4
	str	r1, [r0]
	.loc	4 902 1                 @ ../Libraries/STM32F4xx_StdPeriph_Driver/src/stm32f4xx_pwr.c:902:1
	pop	{r4, pc}
.Ltmp61:
	.p2align	2
@ %bb.4:
	.loc	4 0 1 is_stmt 0         @ ../Libraries/STM32F4xx_StdPeriph_Driver/src/stm32f4xx_pwr.c:0:1
__arm_cp.14_0:
	.long	1073770496              @ 0x40007000
.Lcpi_end14:
	.size	__arm_cp.14_0, .Lcpi_end14-__arm_cp.14_0
__arm_cp.14_1:
	.long	3758157072              @ 0xe000ed10
.Lcpi_end15:
	.size	__arm_cp.14_1, .Lcpi_end15-__arm_cp.14_1
.Lfunc_end14:
	.size	PWR_EnterUnderDriveSTOPMode, .Lfunc_end14-PWR_EnterUnderDriveSTOPMode
	.cfi_endproc
	.cantunwind
	.fnend
                                        @ -- End function
	.section	.text.PWR_EnterSTANDBYMode,"ax",%progbits
	.hidden	PWR_EnterSTANDBYMode    @ -- Begin function PWR_EnterSTANDBYMode
	.globl	PWR_EnterSTANDBYMode
	.p2align	2
	.type	PWR_EnterSTANDBYMode,%function
	.code	16                      @ @PWR_EnterSTANDBYMode
	.thumb_func
PWR_EnterSTANDBYMode:
.Lfunc_begin15:
	.loc	4 917 0 is_stmt 1       @ ../Libraries/STM32F4xx_StdPeriph_Driver/src/stm32f4xx_pwr.c:917:0
	.fnstart
	.cfi_startproc
@ %bb.0:
	ldr	r0, __arm_cp.15_0
.Ltmp62:
	.loc	4 919 11 prologue_end   @ ../Libraries/STM32F4xx_StdPeriph_Driver/src/stm32f4xx_pwr.c:919:11
	ldr	r1, [r0]
	orr	r1, r1, #2
	str	r1, [r0]
	ldr	r0, __arm_cp.15_1
	.loc	4 922 12                @ ../Libraries/STM32F4xx_StdPeriph_Driver/src/stm32f4xx_pwr.c:922:12
	ldr	r1, [r0]
	orr	r1, r1, #4
	str	r1, [r0]
.Ltmp63:
	.loc	5 302 3                 @ C:/Keil\ARM\CMSIS\Include\core_cmInstr.h:302:3
	@APP
	wfi
	@NO_APP
.Ltmp64:
	.loc	4 930 1                 @ ../Libraries/STM32F4xx_StdPeriph_Driver/src/stm32f4xx_pwr.c:930:1
	bx	lr
.Ltmp65:
	.p2align	2
@ %bb.1:
	.loc	4 0 1 is_stmt 0         @ ../Libraries/STM32F4xx_StdPeriph_Driver/src/stm32f4xx_pwr.c:0:1
__arm_cp.15_0:
	.long	1073770496              @ 0x40007000
.Lcpi_end16:
	.size	__arm_cp.15_0, .Lcpi_end16-__arm_cp.15_0
__arm_cp.15_1:
	.long	3758157072              @ 0xe000ed10
.Lcpi_end17:
	.size	__arm_cp.15_1, .Lcpi_end17-__arm_cp.15_1
.Lfunc_end15:
	.size	PWR_EnterSTANDBYMode, .Lfunc_end15-PWR_EnterSTANDBYMode
	.cfi_endproc
	.cantunwind
	.fnend
                                        @ -- End function
	.section	.text.PWR_GetFlagStatus,"ax",%progbits
	.hidden	PWR_GetFlagStatus       @ -- Begin function PWR_GetFlagStatus
	.globl	PWR_GetFlagStatus
	.p2align	2
	.type	PWR_GetFlagStatus,%function
	.code	16                      @ @PWR_GetFlagStatus
	.thumb_func
PWR_GetFlagStatus:
.Lfunc_begin16:
	.loc	4 977 0 is_stmt 1       @ ../Libraries/STM32F4xx_StdPeriph_Driver/src/stm32f4xx_pwr.c:977:0
	.fnstart
	.cfi_startproc
@ %bb.0:
	@DEBUG_VALUE: PWR_GetFlagStatus:PWR_FLAG <- $r0
	ldr	r1, __arm_cp.16_0
.Ltmp66:
	@DEBUG_VALUE: PWR_GetFlagStatus:bitstatus <- 0
	@DEBUG_VALUE: PWR_GetFlagStatus:PWR_FLAG <- $r0
	.loc	4 983 13 prologue_end   @ ../Libraries/STM32F4xx_StdPeriph_Driver/src/stm32f4xx_pwr.c:983:13
	ldr	r1, [r1]
	.loc	4 983 17 is_stmt 0      @ ../Libraries/STM32F4xx_StdPeriph_Driver/src/stm32f4xx_pwr.c:983:17
	ands	r0, r1
.Ltmp67:
	.loc	4 983 29                @ ../Libraries/STM32F4xx_StdPeriph_Driver/src/stm32f4xx_pwr.c:983:29
	it	ne
	movne	r0, #1
.Ltmp68:
	@DEBUG_VALUE: PWR_GetFlagStatus:bitstatus <- undef
	.loc	4 992 3 is_stmt 1       @ ../Libraries/STM32F4xx_StdPeriph_Driver/src/stm32f4xx_pwr.c:992:3
	bx	lr
.Ltmp69:
	.p2align	2
@ %bb.1:
	.loc	4 0 3 is_stmt 0         @ ../Libraries/STM32F4xx_StdPeriph_Driver/src/stm32f4xx_pwr.c:0:3
__arm_cp.16_0:
	.long	1073770500              @ 0x40007004
.Lcpi_end18:
	.size	__arm_cp.16_0, .Lcpi_end18-__arm_cp.16_0
.Lfunc_end16:
	.size	PWR_GetFlagStatus, .Lfunc_end16-PWR_GetFlagStatus
	.cfi_endproc
	.cantunwind
	.fnend
                                        @ -- End function
	.section	.text.PWR_ClearFlag,"ax",%progbits
	.hidden	PWR_ClearFlag           @ -- Begin function PWR_ClearFlag
	.globl	PWR_ClearFlag
	.p2align	2
	.type	PWR_ClearFlag,%function
	.code	16                      @ @PWR_ClearFlag
	.thumb_func
PWR_ClearFlag:
.Lfunc_begin17:
	.loc	4 1005 0 is_stmt 1      @ ../Libraries/STM32F4xx_StdPeriph_Driver/src/stm32f4xx_pwr.c:1005:0
	.fnstart
	.cfi_startproc
@ %bb.0:
	@DEBUG_VALUE: PWR_ClearFlag:PWR_FLAG <- $r0
	ldr	r1, __arm_cp.17_0
	@DEBUG_VALUE: PWR_ClearFlag:PWR_FLAG <- $r0
.Ltmp70:
	.loc	4 1010 7 prologue_end   @ ../Libraries/STM32F4xx_StdPeriph_Driver/src/stm32f4xx_pwr.c:1010:7
	cmp.w	r0, #786432
	bne	.LBB17_2
.Ltmp71:
@ %bb.1:
	@DEBUG_VALUE: PWR_ClearFlag:PWR_FLAG <- $r0
	.loc	4 1016 14               @ ../Libraries/STM32F4xx_StdPeriph_Driver/src/stm32f4xx_pwr.c:1016:14
	ldr	r0, [r1, #4]
.Ltmp72:
	orr	r0, r0, #786432
	str	r0, [r1, #4]
.Ltmp73:
	.loc	4 1023 1                @ ../Libraries/STM32F4xx_StdPeriph_Driver/src/stm32f4xx_pwr.c:1023:1
	bx	lr
.LBB17_2:
.Ltmp74:
	@DEBUG_VALUE: PWR_ClearFlag:PWR_FLAG <- $r0
	.loc	4 1012 13               @ ../Libraries/STM32F4xx_StdPeriph_Driver/src/stm32f4xx_pwr.c:1012:13
	ldr	r2, [r1]
	orr.w	r0, r2, r0, lsl #2
.Ltmp75:
	str	r0, [r1]
.Ltmp76:
	.loc	4 1023 1                @ ../Libraries/STM32F4xx_StdPeriph_Driver/src/stm32f4xx_pwr.c:1023:1
	bx	lr
.Ltmp77:
	.p2align	2
@ %bb.3:
	.loc	4 0 1 is_stmt 0         @ ../Libraries/STM32F4xx_StdPeriph_Driver/src/stm32f4xx_pwr.c:0:1
__arm_cp.17_0:
	.long	1073770496              @ 0x40007000
.Lcpi_end19:
	.size	__arm_cp.17_0, .Lcpi_end19-__arm_cp.17_0
.Lfunc_end17:
	.size	PWR_ClearFlag, .Lfunc_end17-PWR_ClearFlag
	.cfi_endproc
	.cantunwind
	.fnend
                                        @ -- End function
	.section	".note.GNU-stack","",%progbits
	.eabi_attribute	30, 4	@ Tag_ABI_optimization_goals
	.ARM_attribute	16, 1	@ Tag_AV_eba