	.text
	.syntax unified
	.eabi_attribute	67, "2.09"	@ Tag_conformance
	.cpu	cortex-m4
	.eabi_attribute	6, 13	@ Tag_CPU_arch
	.eabi_attribute	7, 77	@ Tag_CPU_arch_profile
	.eabi_attribute	8, 0	@ Tag_ARM_ISA_use
	.eabi_attribute	9, 2	@ Tag_THUMB_ISA_use
	.fpu	fpv4-sp-d16
	.eabi_attribute	27, 1	@ Tag_ABI_HardFP_use
	.eabi_attribute	36, 1	@ Tag_FP_HP_extension
	.eabi_attribute	34, 1	@ Tag_CPU_unaligned_access
	.eabi_attribute	17, 1	@ Tag_ABI_PCS_GOT_use
	.eabi_attribute	20, 2	@ Tag_ABI_FP_denormal
	.eabi_attribute	21, 0	@ Tag_ABI_FP_exceptions
	.eabi_attribute	23, 1	@ Tag_ABI_FP_number_model
	.eabi_attribute	24, 1	@ Tag_ABI_align_needed
	.eabi_attribute	25, 1	@ Tag_ABI_align_preserved
	.eabi_attribute	28, 1	@ Tag_ABI_VFP_args
	.eabi_attribute	38, 1	@ Tag_ABI_FP_16bit_format
	.eabi_attribute	18, 2	@ Tag_ABI_PCS_wchar_t
	.eabi_attribute	26, 1	@ Tag_ABI_enum_size
	.eabi_attribute	14, 0	@ Tag_ABI_PCS_R9_use
	.file	"stm32f429i_sdram.c"
	.file	1 "F:\\SkyDrive\\OtvoreniProjekti\\HotelSaplast\\fw\\KontrolerHotela\\HCBL020318\\Project" "../Libraries/CMSIS/Device/ST/STM32F4xx/Include\\stm32f4xx.h"
	.file	2 "F:\\SkyDrive\\OtvoreniProjekti\\HotelSaplast\\fw\\KontrolerHotela\\HCBL020318\\Project" "../Libraries/STM32F4xx_StdPeriph_Driver/inc\\stm32f4xx_gpio.h"
	.file	3 "C:\\Keil\\ARM\\ARMCLANG\\Bin\\..\\include" "stdint.h"
	.section	.text.SDRAM_Init,"ax",%progbits
	.hidden	SDRAM_Init              @ -- Begin function SDRAM_Init
	.globl	SDRAM_Init
	.p2align	1
	.type	SDRAM_Init,%function
	.code	16                      @ @SDRAM_Init
	.thumb_func
SDRAM_Init:
.Lfunc_begin0:
	.file	4 "F:\\SkyDrive\\OtvoreniProjekti\\HotelSaplast\\fw\\KontrolerHotela\\HCBL020318\\Project" "../Driver/stm32f429i_sdram.c"
	.loc	4 24 0                  @ ../Driver/stm32f429i_sdram.c:24:0
	.fnstart
	.cfi_sections .debug_frame
	.cfi_startproc
@ %bb.0:
	.save	{r4, lr}
	push	{r4, lr}
	.cfi_def_cfa_offset 8
	.cfi_offset lr, -4
	.cfi_offset r4, -8
	.pad	#72
	sub	sp, #72
	.cfi_def_cfa_offset 80
.Ltmp0:
	.loc	4 28 2 prologue_end     @ ../Driver/stm32f429i_sdram.c:28:2
	bl	SDRAM_GPIOConfig
	.loc	4 30 2                  @ ../Driver/stm32f429i_sdram.c:30:2
	movs	r0, #1
	movs	r1, #1
	movs	r4, #1
	bl	RCC_AHB3PeriphClockCmd
	movs	r0, #2
	movs	r1, #7
	.loc	4 51 43                 @ ../Driver/stm32f429i_sdram.c:51:43
	strd	r0, r0, [sp, #20]
	movs	r0, #4
	.loc	4 49 53                 @ ../Driver/stm32f429i_sdram.c:49:53
	str	r0, [sp, #16]
	.loc	4 45 51                 @ ../Driver/stm32f429i_sdram.c:45:51
	strd	r0, r1, [sp, #8]
	movs	r1, #8
	.loc	4 41 53                 @ ../Driver/stm32f429i_sdram.c:41:53
	strd	r0, r1, [sp]
	mov	r0, sp
	.loc	4 65 47                 @ ../Driver/stm32f429i_sdram.c:65:47
	str	r0, [sp, #68]
	mov.w	r0, #8192
	.loc	4 64 43                 @ ../Driver/stm32f429i_sdram.c:64:43
	str	r0, [sp, #64]
	mov.w	r0, #4096
	.loc	4 63 39                 @ ../Driver/stm32f429i_sdram.c:63:39
	str	r0, [sp, #60]
	mov.w	r0, #2048
	.loc	4 62 43                 @ ../Driver/stm32f429i_sdram.c:62:43
	str	r0, [sp, #56]
	movs	r0, #0
	.loc	4 61 45                 @ ../Driver/stm32f429i_sdram.c:61:45
	str	r0, [sp, #52]
	mov.w	r0, #384
	.loc	4 60 40                 @ ../Driver/stm32f429i_sdram.c:60:40
	str	r0, [sp, #48]
	movs	r0, #64
	.loc	4 59 48                 @ ../Driver/stm32f429i_sdram.c:59:48
	str	r0, [sp, #44]
	movs	r0, #16
	.loc	4 57 43                 @ ../Driver/stm32f429i_sdram.c:57:43
	strd	r1, r0, [sp, #36]
	add	r0, sp, #28
	.loc	4 55 34                 @ ../Driver/stm32f429i_sdram.c:55:34
	strd	r4, r4, [sp, #28]
.Ltmp1:
	@DEBUG_VALUE: SDRAM_Init:FMC_SDRAMInitStructure <- [DW_OP_plus_uconst 28, DW_OP_deref] $sp
	.loc	4 66 2                  @ ../Driver/stm32f429i_sdram.c:66:2
	bl	FMC_SDRAMInit
	.loc	4 68 2                  @ ../Driver/stm32f429i_sdram.c:68:2
	bl	SDRAM_InitSequence
	.loc	4 69 1                  @ ../Driver/stm32f429i_sdram.c:69:1
	add	sp, #72
.Ltmp2:
	pop	{r4, pc}
.Ltmp3:
.Lfunc_end0:
	.size	SDRAM_Init, .Lfunc_end0-SDRAM_Init
	.cfi_endproc
	.cantunwind
	.fnend
                                        @ -- End function
	.section	.text.SDRAM_GPIOConfig,"ax",%progbits
	.hidden	SDRAM_GPIOConfig        @ -- Begin function SDRAM_GPIOConfig
	.globl	SDRAM_GPIOConfig
	.p2align	2
	.type	SDRAM_GPIOConfig,%function
	.code	16                      @ @SDRAM_GPIOConfig
	.thumb_func
SDRAM_GPIOConfig:
.Lfunc_begin1:
	.loc	4 77 0                  @ ../Driver/stm32f429i_sdram.c:77:0
	.fnstart
	.cfi_startproc
@ %bb.0:
	.save	{r4, r5, r6, r7, r8, r9, lr}
	.pad	#12
	push.w	{r1, r2, r3, r4, r5, r6, r7, r8, r9, lr}
	.cfi_def_cfa_offset 40
	.cfi_offset lr, -4
	.cfi_offset r9, -8
	.cfi_offset r8, -12
	.cfi_offset r7, -16
	.cfi_offset r6, -20
	.cfi_offset r5, -24
	.cfi_offset r4, -28
.Ltmp4:
	.loc	4 98 2 prologue_end     @ ../Driver/stm32f429i_sdram.c:98:2
	movs	r0, #254
	movs	r1, #1
	movs	r4, #1
	bl	RCC_AHB1PeriphClockCmd
	ldr	r5, __arm_cp.1_0
	movw	r0, #770
	.loc	4 107 2                 @ ../Driver/stm32f429i_sdram.c:107:2
	ldr	r7, __arm_cp.1_1
	movs	r1, #7
	movs	r2, #12
	.loc	4 102 32                @ ../Driver/stm32f429i_sdram.c:102:32
	str	r0, [sp, #8]
	.loc	4 107 2                 @ ../Driver/stm32f429i_sdram.c:107:2
	add.w	r6, r5, #5120
	mov	r0, r6
	blx	r7
	.loc	4 108 2                 @ ../Driver/stm32f429i_sdram.c:108:2
	mov	r0, r6
	movs	r1, #6
	movs	r2, #12
	blx	r7
	movs	r0, #192
	add.w	r9, sp, #4
	.loc	4 110 2                 @ ../Driver/stm32f429i_sdram.c:110:2
	ldr.w	r8, __arm_cp.1_2
	.loc	4 109 30                @ ../Driver/stm32f429i_sdram.c:109:30
	str	r0, [sp, #4]
.Ltmp5:
	@DEBUG_VALUE: SDRAM_GPIOConfig:GPIO_InitStructure <- [DW_OP_plus_uconst 4, DW_OP_deref] $sp
	.loc	4 110 2                 @ ../Driver/stm32f429i_sdram.c:110:2
	mov	r0, r6
	mov	r1, r9
	blx	r8
	.loc	4 112 2                 @ ../Driver/stm32f429i_sdram.c:112:2
	mov	r0, r5
	movs	r1, #0
	movs	r2, #12
	blx	r7
	.loc	4 114 2                 @ ../Driver/stm32f429i_sdram.c:114:2
	mov	r0, r5
	mov	r1, r9
	.loc	4 113 30                @ ../Driver/stm32f429i_sdram.c:113:30
	str	r4, [sp, #4]
	.loc	4 114 2                 @ ../Driver/stm32f429i_sdram.c:114:2
	blx	r8
	.loc	4 116 2                 @ ../Driver/stm32f429i_sdram.c:116:2
	add.w	r6, r5, #1024
	movs	r1, #0
	movs	r2, #12
	mov	r0, r6
	blx	r7
	.loc	4 117 2                 @ ../Driver/stm32f429i_sdram.c:117:2
	mov	r0, r6
	movs	r1, #1
	movs	r2, #12
	blx	r7
	.loc	4 118 2                 @ ../Driver/stm32f429i_sdram.c:118:2
	mov	r0, r6
	movs	r1, #8
	movs	r2, #12
	blx	r7
	.loc	4 119 2                 @ ../Driver/stm32f429i_sdram.c:119:2
	mov	r0, r6
	movs	r1, #9
	movs	r2, #12
	blx	r7
	.loc	4 120 2                 @ ../Driver/stm32f429i_sdram.c:120:2
	mov	r0, r6
	movs	r1, #10
	movs	r2, #12
	blx	r7
	.loc	4 121 2                 @ ../Driver/stm32f429i_sdram.c:121:2
	mov	r0, r6
	movs	r1, #14
	movs	r2, #12
	blx	r7
	.loc	4 122 2                 @ ../Driver/stm32f429i_sdram.c:122:2
	mov	r0, r6
	movs	r1, #15
	movs	r2, #12
	blx	r7
	movw	r0, #50947
	.loc	4 125 2                 @ ../Driver/stm32f429i_sdram.c:125:2
	mov	r1, r9
	.loc	4 123 30                @ ../Driver/stm32f429i_sdram.c:123:30
	str	r0, [sp, #4]
	.loc	4 125 2                 @ ../Driver/stm32f429i_sdram.c:125:2
	mov	r0, r6
	blx	r8
	.loc	4 127 2                 @ ../Driver/stm32f429i_sdram.c:127:2
	add.w	r6, r5, #2048
	movs	r1, #0
	movs	r2, #12
	mov	r0, r6
	blx	r7
	.loc	4 128 2                 @ ../Driver/stm32f429i_sdram.c:128:2
	mov	r0, r6
	movs	r1, #1
	movs	r2, #12
	blx	r7
	.loc	4 129 2                 @ ../Driver/stm32f429i_sdram.c:129:2
	mov	r0, r6
	movs	r1, #7
	movs	r2, #12
	blx	r7
	.loc	4 130 2                 @ ../Driver/stm32f429i_sdram.c:130:2
	mov	r0, r6
	movs	r1, #8
	movs	r2, #12
	blx	r7
	.loc	4 131 2                 @ ../Driver/stm32f429i_sdram.c:131:2
	mov	r0, r6
	movs	r1, #9
	movs	r2, #12
	blx	r7
	.loc	4 132 2                 @ ../Driver/stm32f429i_sdram.c:132:2
	mov	r0, r6
	movs	r1, #10
	movs	r2, #12
	blx	r7
	.loc	4 133 2                 @ ../Driver/stm32f429i_sdram.c:133:2
	mov	r0, r6
	movs	r1, #11
	movs	r2, #12
	blx	r7
	.loc	4 134 2                 @ ../Driver/stm32f429i_sdram.c:134:2
	mov	r0, r6
	movs	r1, #12
	movs	r2, #12
	blx	r7
	.loc	4 135 2                 @ ../Driver/stm32f429i_sdram.c:135:2
	mov	r0, r6
	movs	r1, #13
	movs	r2, #12
	blx	r7
	.loc	4 136 2                 @ ../Driver/stm32f429i_sdram.c:136:2
	mov	r0, r6
	movs	r1, #14
	movs	r2, #12
	blx	r7
	.loc	4 137 2                 @ ../Driver/stm32f429i_sdram.c:137:2
	mov	r0, r6
	movs	r1, #15
	movs	r2, #12
	blx	r7
	movw	r0, #65411
	.loc	4 141 2                 @ ../Driver/stm32f429i_sdram.c:141:2
	mov	r1, r9
	.loc	4 138 30                @ ../Driver/stm32f429i_sdram.c:138:30
	str	r0, [sp, #4]
	.loc	4 141 2                 @ ../Driver/stm32f429i_sdram.c:141:2
	mov	r0, r6
	blx	r8
	.loc	4 143 2                 @ ../Driver/stm32f429i_sdram.c:143:2
	add.w	r6, r5, #3072
	movs	r1, #0
	movs	r2, #12
	mov	r0, r6
	blx	r7
	.loc	4 144 2                 @ ../Driver/stm32f429i_sdram.c:144:2
	mov	r0, r6
	movs	r1, #1
	movs	r2, #12
	blx	r7
	.loc	4 145 2                 @ ../Driver/stm32f429i_sdram.c:145:2
	mov	r0, r6
	movs	r1, #2
	movs	r2, #12
	blx	r7
	.loc	4 146 2                 @ ../Driver/stm32f429i_sdram.c:146:2
	mov	r0, r6
	movs	r1, #3
	movs	r2, #12
	blx	r7
	.loc	4 147 2                 @ ../Driver/stm32f429i_sdram.c:147:2
	mov	r0, r6
	movs	r1, #4
	movs	r2, #12
	blx	r7
	.loc	4 148 2                 @ ../Driver/stm32f429i_sdram.c:148:2
	mov	r0, r6
	movs	r1, #5
	movs	r2, #12
	blx	r7
	.loc	4 149 2                 @ ../Driver/stm32f429i_sdram.c:149:2
	mov	r0, r6
	movs	r1, #11
	movs	r2, #12
	blx	r7
	.loc	4 150 2                 @ ../Driver/stm32f429i_sdram.c:150:2
	mov	r0, r6
	movs	r1, #12
	movs	r2, #12
	blx	r7
	.loc	4 151 2                 @ ../Driver/stm32f429i_sdram.c:151:2
	mov	r0, r6
	movs	r1, #13
	movs	r2, #12
	blx	r7
	.loc	4 152 2                 @ ../Driver/stm32f429i_sdram.c:152:2
	mov	r0, r6
	movs	r1, #14
	movs	r2, #12
	blx	r7
	.loc	4 153 2                 @ ../Driver/stm32f429i_sdram.c:153:2
	mov	r0, r6
	movs	r1, #15
	movs	r2, #12
	blx	r7
	movw	r0, #63551
	.loc	4 157 2                 @ ../Driver/stm32f429i_sdram.c:157:2
	mov	r1, r9
	.loc	4 154 30                @ ../Driver/stm32f429i_sdram.c:154:30
	str	r0, [sp, #4]
	.loc	4 157 2                 @ ../Driver/stm32f429i_sdram.c:157:2
	mov	r0, r6
	blx	r8
	.loc	4 159 2                 @ ../Driver/stm32f429i_sdram.c:159:2
	add.w	r5, r5, #4096
	movs	r1, #0
	movs	r2, #12
	mov	r0, r5
	blx	r7
	.loc	4 160 2                 @ ../Driver/stm32f429i_sdram.c:160:2
	mov	r0, r5
	movs	r1, #1
	movs	r2, #12
	blx	r7
	.loc	4 161 2                 @ ../Driver/stm32f429i_sdram.c:161:2
	mov	r0, r5
	movs	r1, #2
	movs	r2, #12
	blx	r7
	.loc	4 162 2                 @ ../Driver/stm32f429i_sdram.c:162:2
	mov	r0, r5
	movs	r1, #4
	movs	r2, #12
	blx	r7
	.loc	4 163 2                 @ ../Driver/stm32f429i_sdram.c:163:2
	mov	r0, r5
	movs	r1, #5
	movs	r2, #12
	blx	r7
	.loc	4 164 2                 @ ../Driver/stm32f429i_sdram.c:164:2
	mov	r0, r5
	movs	r1, #8
	movs	r2, #12
	blx	r7
	.loc	4 165 2                 @ ../Driver/stm32f429i_sdram.c:165:2
	mov	r0, r5
	movs	r1, #15
	movs	r2, #12
	blx	r7
	movw	r0, #33079
	.loc	4 168 2                 @ ../Driver/stm32f429i_sdram.c:168:2
	mov	r1, r9
	.loc	4 166 30                @ ../Driver/stm32f429i_sdram.c:166:30
	str	r0, [sp, #4]
	.loc	4 168 2                 @ ../Driver/stm32f429i_sdram.c:168:2
	mov	r0, r5
	blx	r8
	.loc	4 170 1                 @ ../Driver/stm32f429i_sdram.c:170:1
	pop.w	{r1, r2, r3, r4, r5, r6, r7, r8, r9, pc}
.Ltmp6:
	.p2align	2
@ %bb.1:
	.loc	4 0 1 is_stmt 0         @ ../Driver/stm32f429i_sdram.c:0:1
__arm_cp.1_0:
	.long	1073874944              @ 0x40020800
.Lcpi_end0:
	.size	__arm_cp.1_0, .Lcpi_end0-__arm_cp.1_0
__arm_cp.1_1:
	.long	GPIO_PinAFConfig
.Lcpi_end1:
	.size	__arm_cp.1_1, .Lcpi_end1-__arm_cp.1_1
__arm_cp.1_2:
	.long	GPIO_Init
.Lcpi_end2:
	.size	__arm_cp.1_2, .Lcpi_end2-__arm_cp.1_2
.Lfunc_end1:
	.size	SDRAM_GPIOConfig, .Lfunc_end1-SDRAM_GPIOConfig
	.cfi_endproc
	.cantunwind
	.fnend
                                        @ -- End function
	.section	.text.SDRAM_InitSequence,"ax",%progbits
	.hidden	SDRAM_InitSequence      @ -- Begin function SDRAM_InitSequence
	.globl	SDRAM_InitSequence
	.p2align	2
	.type	SDRAM_InitSequence,%function
	.code	16                      @ @SDRAM_InitSequence
	.thumb_func
SDRAM_InitSequence:
.Lfunc_begin2:
	.loc	4 178 0 is_stmt 1       @ ../Driver/stm32f429i_sdram.c:178:0
	.fnstart
	.cfi_startproc
@ %bb.0:
	.save	{r7, lr}
	.pad	#24
	push	{r1, r2, r3, r4, r5, r6, r7, lr}
	.cfi_def_cfa_offset 32
	.cfi_offset lr, -4
	.cfi_offset r7, -8
	movs	r0, #0
	movs	r1, #8
.Ltmp7:
	@DEBUG_VALUE: SDRAM_InitSequence:tmpr <- 0
	.loc	4 187 56 prologue_end   @ ../Driver/stm32f429i_sdram.c:187:56
	str	r0, [sp, #12]
	movs	r0, #1
	.loc	4 186 51                @ ../Driver/stm32f429i_sdram.c:186:51
	str	r0, [sp, #8]
	.loc	4 184 45                @ ../Driver/stm32f429i_sdram.c:184:45
	strd	r0, r1, [sp]
.LBB2_1:                                @ =>This Inner Loop Header: Depth=1
	.loc	4 189 9                 @ ../Driver/stm32f429i_sdram.c:189:9
	movs	r0, #1
	movs	r1, #32
	bl	FMC_GetFlagStatus
	.loc	4 189 3 is_stmt 0       @ ../Driver/stm32f429i_sdram.c:189:3
	cmp	r0, #0
	bne	.LBB2_1
@ %bb.2:
.Ltmp8:
	@DEBUG_VALUE: SDRAM_InitSequence:FMC_SDRAMCommandStructure <- [DW_OP_deref] $sp
	.loc	4 0 3                   @ ../Driver/stm32f429i_sdram.c:0:3
	mov	r0, sp
	.loc	4 193 3 is_stmt 1       @ ../Driver/stm32f429i_sdram.c:193:3
	bl	FMC_SDRAMCmdConfig
	movs	r0, #10
	str	r0, [sp, #20]
	movs	r0, #0
.Ltmp9:
	.loc	4 333 17                @ ../Driver/stm32f429i_sdram.c:333:17
	str	r0, [sp, #16]
	ldr	r0, __arm_cp.2_0
.Ltmp10:
	.loc	4 334 25                @ ../Driver/stm32f429i_sdram.c:334:25
	ldr	r1, [sp, #20]
	.loc	4 334 23 is_stmt 0      @ ../Driver/stm32f429i_sdram.c:334:23
	muls	r0, r1, r0
	b	.LBB2_4
.Ltmp11:
.LBB2_3:                                @   in Loop: Header=BB2_4 Depth=1
	@DEBUG_VALUE: SDRAM_InitSequence:FMC_SDRAMCommandStructure <- [DW_OP_deref] $sp
	.loc	4 334 51                @ ../Driver/stm32f429i_sdram.c:334:51
	ldr	r0, [sp, #16]
	subs	r0, #1
.Ltmp12:
.LBB2_4:                                @ =>This Inner Loop Header: Depth=1
	@DEBUG_VALUE: SDRAM_InitSequence:FMC_SDRAMCommandStructure <- [DW_OP_deref] $sp
	.loc	4 0 0                   @ ../Driver/stm32f429i_sdram.c:0:0
	str	r0, [sp, #16]
.Ltmp13:
	.loc	4 334 34                @ ../Driver/stm32f429i_sdram.c:334:34
	ldr	r0, [sp, #16]
.Ltmp14:
	.loc	4 334 3                 @ ../Driver/stm32f429i_sdram.c:334:3
	cmp	r0, #0
	bne	.LBB2_3
.Ltmp15:
@ %bb.5:
	@DEBUG_VALUE: SDRAM_InitSequence:FMC_SDRAMCommandStructure <- [DW_OP_deref] $sp
	.loc	4 0 3                   @ ../Driver/stm32f429i_sdram.c:0:3
	movs	r0, #0
	.loc	4 204 56 is_stmt 1      @ ../Driver/stm32f429i_sdram.c:204:56
	str	r0, [sp, #12]
	movs	r0, #4
	.loc	4 203 51                @ ../Driver/stm32f429i_sdram.c:203:51
	str	r0, [sp, #8]
	movs	r0, #8
	.loc	4 202 47                @ ../Driver/stm32f429i_sdram.c:202:47
	str	r0, [sp, #4]
	movs	r0, #2
	.loc	4 201 45                @ ../Driver/stm32f429i_sdram.c:201:45
	str	r0, [sp]
.Ltmp16:
.LBB2_6:                                @ =>This Inner Loop Header: Depth=1
	@DEBUG_VALUE: SDRAM_InitSequence:FMC_SDRAMCommandStructure <- [DW_OP_deref] $sp
	.loc	4 206 9                 @ ../Driver/stm32f429i_sdram.c:206:9
	movs	r0, #1
	movs	r1, #32
	bl	FMC_GetFlagStatus
	.loc	4 206 3 is_stmt 0       @ ../Driver/stm32f429i_sdram.c:206:3
	cmp	r0, #0
	bne	.LBB2_6
.Ltmp17:
@ %bb.7:
	@DEBUG_VALUE: SDRAM_InitSequence:FMC_SDRAMCommandStructure <- [DW_OP_deref] $sp
	@DEBUG_VALUE: SDRAM_InitSequence:FMC_SDRAMCommandStructure <- [DW_OP_deref] $sp
	.loc	4 0 3                   @ ../Driver/stm32f429i_sdram.c:0:3
	mov	r0, sp
	.loc	4 210 3 is_stmt 1       @ ../Driver/stm32f429i_sdram.c:210:3
	bl	FMC_SDRAMCmdConfig
	movs	r0, #0
	.loc	4 217 56                @ ../Driver/stm32f429i_sdram.c:217:56
	str	r0, [sp, #12]
	movs	r0, #2
	.loc	4 216 51                @ ../Driver/stm32f429i_sdram.c:216:51
	str	r0, [sp, #8]
	movs	r0, #8
	.loc	4 215 47                @ ../Driver/stm32f429i_sdram.c:215:47
	str	r0, [sp, #4]
	movs	r0, #3
	.loc	4 214 45                @ ../Driver/stm32f429i_sdram.c:214:45
	str	r0, [sp]
.Ltmp18:
.LBB2_8:                                @ =>This Inner Loop Header: Depth=1
	@DEBUG_VALUE: SDRAM_InitSequence:FMC_SDRAMCommandStructure <- [DW_OP_deref] $sp
	.loc	4 219 9                 @ ../Driver/stm32f429i_sdram.c:219:9
	movs	r0, #1
	movs	r1, #32
	bl	FMC_GetFlagStatus
	.loc	4 219 3 is_stmt 0       @ ../Driver/stm32f429i_sdram.c:219:3
	cmp	r0, #0
	bne	.LBB2_8
.Ltmp19:
@ %bb.9:
	@DEBUG_VALUE: SDRAM_InitSequence:FMC_SDRAMCommandStructure <- [DW_OP_deref] $sp
	@DEBUG_VALUE: SDRAM_InitSequence:FMC_SDRAMCommandStructure <- [DW_OP_deref] $sp
	.loc	4 0 3                   @ ../Driver/stm32f429i_sdram.c:0:3
	mov	r0, sp
	.loc	4 223 3 is_stmt 1       @ ../Driver/stm32f429i_sdram.c:223:3
	bl	FMC_SDRAMCmdConfig
.Ltmp20:
.LBB2_10:                               @ =>This Inner Loop Header: Depth=1
	@DEBUG_VALUE: SDRAM_InitSequence:FMC_SDRAMCommandStructure <- [DW_OP_deref] $sp
	.loc	4 226 9                 @ ../Driver/stm32f429i_sdram.c:226:9
	movs	r0, #1
	movs	r1, #32
	bl	FMC_GetFlagStatus
	.loc	4 226 3 is_stmt 0       @ ../Driver/stm32f429i_sdram.c:226:3
	cmp	r0, #0
	bne	.LBB2_10
.Ltmp21:
@ %bb.11:
	@DEBUG_VALUE: SDRAM_InitSequence:FMC_SDRAMCommandStructure <- [DW_OP_deref] $sp
	@DEBUG_VALUE: SDRAM_InitSequence:FMC_SDRAMCommandStructure <- [DW_OP_deref] $sp
	.loc	4 0 3                   @ ../Driver/stm32f429i_sdram.c:0:3
	mov	r0, sp
	.loc	4 230 3 is_stmt 1       @ ../Driver/stm32f429i_sdram.c:230:3
	bl	FMC_SDRAMCmdConfig
	movw	r0, #561
	.loc	4 244 56                @ ../Driver/stm32f429i_sdram.c:244:56
	str	r0, [sp, #12]
	movs	r0, #1
	.loc	4 243 51                @ ../Driver/stm32f429i_sdram.c:243:51
	str	r0, [sp, #8]
	movs	r0, #8
	.loc	4 242 47                @ ../Driver/stm32f429i_sdram.c:242:47
	str	r0, [sp, #4]
	movs	r0, #4
.Ltmp22:
	@DEBUG_VALUE: SDRAM_InitSequence:tmpr <- 561
	.loc	4 241 45                @ ../Driver/stm32f429i_sdram.c:241:45
	str	r0, [sp]
.Ltmp23:
.LBB2_12:                               @ =>This Inner Loop Header: Depth=1
	@DEBUG_VALUE: SDRAM_InitSequence:FMC_SDRAMCommandStructure <- [DW_OP_deref] $sp
	.loc	4 246 9                 @ ../Driver/stm32f429i_sdram.c:246:9
	movs	r0, #1
	movs	r1, #32
	bl	FMC_GetFlagStatus
	.loc	4 246 3 is_stmt 0       @ ../Driver/stm32f429i_sdram.c:246:3
	cmp	r0, #0
	bne	.LBB2_12
.Ltmp24:
@ %bb.13:
	@DEBUG_VALUE: SDRAM_InitSequence:FMC_SDRAMCommandStructure <- [DW_OP_deref] $sp
	@DEBUG_VALUE: SDRAM_InitSequence:FMC_SDRAMCommandStructure <- [DW_OP_deref] $sp
	.loc	4 0 3                   @ ../Driver/stm32f429i_sdram.c:0:3
	mov	r0, sp
	.loc	4 250 3 is_stmt 1       @ ../Driver/stm32f429i_sdram.c:250:3
	bl	FMC_SDRAMCmdConfig
	.loc	4 257 3                 @ ../Driver/stm32f429i_sdram.c:257:3
	movs	r0, #33
	bl	FMC_SetRefreshCount
.Ltmp25:
.LBB2_14:                               @ =>This Inner Loop Header: Depth=1
	@DEBUG_VALUE: SDRAM_InitSequence:FMC_SDRAMCommandStructure <- [DW_OP_deref] $sp
	.loc	4 259 9                 @ ../Driver/stm32f429i_sdram.c:259:9
	movs	r0, #1
	movs	r1, #32
	bl	FMC_GetFlagStatus
	.loc	4 259 3 is_stmt 0       @ ../Driver/stm32f429i_sdram.c:259:3
	cmp	r0, #0
	bne	.LBB2_14
.Ltmp26:
@ %bb.15:
	@DEBUG_VALUE: SDRAM_InitSequence:FMC_SDRAMCommandStructure <- [DW_OP_deref] $sp
	.loc	4 262 1 is_stmt 1       @ ../Driver/stm32f429i_sdram.c:262:1
	add	sp, #24
.Ltmp27:
	pop	{r7, pc}
.Ltmp28:
	.p2align	2
@ %bb.16:
	.loc	4 0 1 is_stmt 0         @ ../Driver/stm32f429i_sdram.c:0:1
__arm_cp.2_0:
	.long	100000                  @ 0x186a0
.Lcpi_end3:
	.size	__arm_cp.2_0, .Lcpi_end3-__arm_cp.2_0
.Lfunc_end2:
	.size	SDRAM_InitSequence, .Lfunc_end2-SDRAM_InitSequence
	.cfi_endproc
	.cantunwind
	.fnend
                                        @ -- End function
	.section	.text.SDRAM_WriteBuffer,"ax",%progbits
	.hidden	SDRAM_WriteBuffer       @ -- Begin function SDRAM_WriteBuffer
	.globl	SDRAM_WriteBuffer
	.p2align	1
	.type	SDRAM_WriteBuffer,%function
	.code	16                      @ @SDRAM_WriteBuffer
	.thumb_func
SDRAM_WriteBuffer:
.Lfunc_begin3:
	.loc	4 274 0 is_stmt 1       @ ../Driver/stm32f429i_sdram.c:274:0
	.fnstart
	.cfi_startproc
@ %bb.0:
	.save	{r4, r5, r7, lr}
	.pad	#8
	push	{r2, r3, r4, r5, r7, lr}
	.cfi_def_cfa_offset 24
	.cfi_offset lr, -4
	.cfi_offset r7, -8
	.cfi_offset r5, -12
	.cfi_offset r4, -16
	@DEBUG_VALUE: SDRAM_WriteBuffer:pBuffer <- $r0
	@DEBUG_VALUE: SDRAM_WriteBuffer:uwWriteAddress <- $r1
	@DEBUG_VALUE: SDRAM_WriteBuffer:uwBufferSize <- $r2
	mov	r5, r0
.Ltmp29:
	@DEBUG_VALUE: SDRAM_WriteBuffer:uwBufferSize <- $r4
	@DEBUG_VALUE: SDRAM_WriteBuffer:uwWriteAddress <- $r1
	@DEBUG_VALUE: SDRAM_WriteBuffer:pBuffer <- $r5
	.loc	4 275 17 prologue_end   @ ../Driver/stm32f429i_sdram.c:275:17
	str	r1, [sp, #4]
	.loc	4 278 3                 @ ../Driver/stm32f429i_sdram.c:278:3
	movs	r0, #1
	movs	r1, #0
.Ltmp30:
	.loc	4 0 3 is_stmt 0         @ ../Driver/stm32f429i_sdram.c:0:3
	mov	r4, r2
.Ltmp31:
	.loc	4 278 3                 @ ../Driver/stm32f429i_sdram.c:278:3
	bl	FMC_SDRAMWriteProtectionConfig
.Ltmp32:
.LBB3_1:                                @ =>This Inner Loop Header: Depth=1
	@DEBUG_VALUE: SDRAM_WriteBuffer:pBuffer <- $r5
	.loc	4 281 9 is_stmt 1       @ ../Driver/stm32f429i_sdram.c:281:9
	movs	r0, #1
	movs	r1, #32
	bl	FMC_GetFlagStatus
	.loc	4 281 3 is_stmt 0       @ ../Driver/stm32f429i_sdram.c:281:3
	cmp	r0, #0
	bne	.LBB3_1
.Ltmp33:
@ %bb.2:
	@DEBUG_VALUE: SDRAM_WriteBuffer:pBuffer <- $r5
	.loc	4 0 3                   @ ../Driver/stm32f429i_sdram.c:0:3
	mov.w	r0, #-805306368
	b	.LBB3_4
.Ltmp34:
.LBB3_3:                                @   in Loop: Header=BB3_4 Depth=1
	@DEBUG_VALUE: SDRAM_WriteBuffer:pBuffer <- $r5
	@DEBUG_VALUE: SDRAM_WriteBuffer:uwBufferSize <- $r4
	@DEBUG_VALUE: SDRAM_WriteBuffer:pBuffer <- $r5
	.loc	4 289 55 is_stmt 1      @ ../Driver/stm32f429i_sdram.c:289:55
	ldm	r5!, {r1}
.Ltmp35:
	.loc	4 289 38 is_stmt 0      @ ../Driver/stm32f429i_sdram.c:289:38
	ldr	r2, [sp, #4]
.Ltmp36:
	.loc	4 286 41 is_stmt 1      @ ../Driver/stm32f429i_sdram.c:286:41
	subs	r4, #1
.Ltmp37:
	@DEBUG_VALUE: SDRAM_WriteBuffer:uwBufferSize <- $r4
	.loc	4 289 53                @ ../Driver/stm32f429i_sdram.c:289:53
	str	r1, [r2, r0]
	.loc	4 292 19                @ ../Driver/stm32f429i_sdram.c:292:19
	ldr	r1, [sp, #4]
	adds	r1, #4
	str	r1, [sp, #4]
.Ltmp38:
.LBB3_4:                                @ =>This Inner Loop Header: Depth=1
	@DEBUG_VALUE: SDRAM_WriteBuffer:pBuffer <- $r5
	@DEBUG_VALUE: SDRAM_WriteBuffer:pBuffer <- $r5
	@DEBUG_VALUE: SDRAM_WriteBuffer:uwBufferSize <- $r4
	.loc	4 286 3                 @ ../Driver/stm32f429i_sdram.c:286:3
	cmp	r4, #0
	bne	.LBB3_3
.Ltmp39:
@ %bb.5:
	@DEBUG_VALUE: SDRAM_WriteBuffer:pBuffer <- $r5
	@DEBUG_VALUE: SDRAM_WriteBuffer:uwBufferSize <- $r4
	.loc	4 295 1                 @ ../Driver/stm32f429i_sdram.c:295:1
	pop	{r2, r3, r4, r5, r7, pc}
.Ltmp40:
.Lfunc_end3:
	.size	SDRAM_WriteBuffer, .Lfunc_end3-SDRAM_WriteBuffer
	.cfi_endproc
	.cantunwind
	.fnend
                                        @ -- End function
	.section	.text.SDRAM_ReadBuffer,"ax",%progbits
	.hidden	SDRAM_ReadBuffer        @ -- Begin function SDRAM_ReadBuffer
	.globl	SDRAM_ReadBuffer
	.p2align	1
	.type	SDRAM_ReadBuffer,%function
	.code	16                      @ @SDRAM_ReadBuffer
	.thumb_func
SDRAM_ReadBuffer:
.Lfunc_begin4:
	.loc	4 306 0                 @ ../Driver/stm32f429i_sdram.c:306:0
	.fnstart
	.cfi_startproc
@ %bb.0:
	.save	{r4, r5, r7, lr}
	.pad	#8
	push	{r2, r3, r4, r5, r7, lr}
	.cfi_def_cfa_offset 24
	.cfi_offset lr, -4
	.cfi_offset r7, -8
	.cfi_offset r5, -12
	.cfi_offset r4, -16
	@DEBUG_VALUE: SDRAM_ReadBuffer:pBuffer <- $r0
	@DEBUG_VALUE: SDRAM_ReadBuffer:uwReadAddress <- $r1
	@DEBUG_VALUE: SDRAM_ReadBuffer:uwBufferSize <- $r2
	mov	r4, r2
	mov	r5, r0
.Ltmp41:
	@DEBUG_VALUE: SDRAM_ReadBuffer:uwBufferSize <- $r4
	@DEBUG_VALUE: SDRAM_ReadBuffer:uwReadAddress <- $r1
	@DEBUG_VALUE: SDRAM_ReadBuffer:pBuffer <- $r5
	.loc	4 307 17 prologue_end   @ ../Driver/stm32f429i_sdram.c:307:17
	str	r1, [sp, #4]
.Ltmp42:
.LBB4_1:                                @ =>This Inner Loop Header: Depth=1
	@DEBUG_VALUE: SDRAM_ReadBuffer:pBuffer <- $r5
	@DEBUG_VALUE: SDRAM_ReadBuffer:uwBufferSize <- $r4
	@DEBUG_VALUE: SDRAM_ReadBuffer:uwReadAddress <- $r1
	.loc	4 311 9                 @ ../Driver/stm32f429i_sdram.c:311:9
	movs	r0, #1
	movs	r1, #32
.Ltmp43:
	bl	FMC_GetFlagStatus
	.loc	4 311 3 is_stmt 0       @ ../Driver/stm32f429i_sdram.c:311:3
	cmp	r0, #0
	bne	.LBB4_1
.Ltmp44:
@ %bb.2:
	@DEBUG_VALUE: SDRAM_ReadBuffer:pBuffer <- $r5
	@DEBUG_VALUE: SDRAM_ReadBuffer:uwBufferSize <- $r4
	.loc	4 0 3                   @ ../Driver/stm32f429i_sdram.c:0:3
	mov.w	r0, #-805306368
	b	.LBB4_4
.Ltmp45:
.LBB4_3:                                @   in Loop: Header=BB4_4 Depth=1
	@DEBUG_VALUE: SDRAM_ReadBuffer:pBuffer <- $r5
	@DEBUG_VALUE: SDRAM_ReadBuffer:uwBufferSize <- $r4
	.loc	4 318 54 is_stmt 1      @ ../Driver/stm32f429i_sdram.c:318:54
	ldr	r1, [sp, #4]
.Ltmp46:
	.loc	4 316 43                @ ../Driver/stm32f429i_sdram.c:316:43
	subs	r4, #1
.Ltmp47:
	@DEBUG_VALUE: SDRAM_ReadBuffer:uwBufferSize <- $r4
	.loc	4 318 17                @ ../Driver/stm32f429i_sdram.c:318:17
	ldr	r1, [r1, r0]
	@DEBUG_VALUE: SDRAM_ReadBuffer:pBuffer <- $r5
	.loc	4 318 15 is_stmt 0      @ ../Driver/stm32f429i_sdram.c:318:15
	stm	r5!, {r1}
.Ltmp48:
	.loc	4 321 19 is_stmt 1      @ ../Driver/stm32f429i_sdram.c:321:19
	ldr	r1, [sp, #4]
	adds	r1, #4
	str	r1, [sp, #4]
.Ltmp49:
.LBB4_4:                                @ =>This Inner Loop Header: Depth=1
	@DEBUG_VALUE: SDRAM_ReadBuffer:pBuffer <- $r5
	@DEBUG_VALUE: SDRAM_ReadBuffer:uwBufferSize <- $r4
	@DEBUG_VALUE: SDRAM_ReadBuffer:pBuffer <- $r5
	@DEBUG_VALUE: SDRAM_ReadBuffer:uwBufferSize <- $r4
	.loc	4 316 3                 @ ../Driver/stm32f429i_sdram.c:316:3
	cmp	r4, #0
	bne	.LBB4_3
.Ltmp50:
@ %bb.5:
	@DEBUG_VALUE: SDRAM_ReadBuffer:pBuffer <- $r5
	@DEBUG_VALUE: SDRAM_ReadBuffer:uwBufferSize <- $r4
	.loc	4 323 1                 @ ../Driver/stm32f429i_sdram.c:323:1
	pop	{r2, r3, r4, r5, r7, pc}
.Ltmp51:
.Lfunc_end4:
	.size	SDRAM_ReadBuffer, .Lfunc_end4-SDRAM_ReadBuffer
	.cfi_endproc
	.cantunwind
	.fnend
                                        @ -- End function
	.file	5 "F:\\SkyDrive\\OtvoreniProjekti\\HotelSaplast\\fw\\KontrolerHotela\\HCBL020318\\Project" "../Libraries/STM32F4xx_StdPeriph_Driver/inc\\stm32f4xx_fmc.h"
	.section	".note.GNU-stack","",%progbits
	.eabi_attribute	30, 4	@ Tag_ABI_optimization_goals
	.ARM_attribute	16, 1	@ Tag_AV_eba