	.text
	.syntax unified
	.eabi_attribute	67, "2.09"	@ Tag_conformance
	.cpu	cortex-m4
	.eabi_attribute	6, 13	@ Tag_CPU_arch
	.eabi_attribute	7, 77	@ Tag_CPU_arch_profile
	.eabi_attribute	8, 0	@ Tag_ARM_ISA_use
	.eabi_attribute	9, 2	@ Tag_THUMB_ISA_use
	.fpu	fpv4-sp-d16
	.eabi_attribute	27, 1	@ Tag_ABI_HardFP_use
	.eabi_attribute	36, 1	@ Tag_FP_HP_extension
	.eabi_attribute	34, 1	@ Tag_CPU_unaligned_access
	.eabi_attribute	17, 1	@ Tag_ABI_PCS_GOT_use
	.eabi_attribute	20, 2	@ Tag_ABI_FP_denormal
	.eabi_attribute	21, 0	@ Tag_ABI_FP_exceptions
	.eabi_attribute	23, 1	@ Tag_ABI_FP_number_model
	.eabi_attribute	24, 1	@ Tag_ABI_align_needed
	.eabi_attribute	25, 1	@ Tag_ABI_align_preserved
	.eabi_attribute	28, 1	@ Tag_ABI_VFP_args
	.eabi_attribute	38, 1	@ Tag_ABI_FP_16bit_format
	.eabi_attribute	18, 2	@ Tag_ABI_PCS_wchar_t
	.eabi_attribute	26, 1	@ Tag_ABI_enum_size
	.eabi_attribute	14, 0	@ Tag_ABI_PCS_R9_use
	.file	"stm32f4xx_dma.c"
	.file	1 "F:\\SkyDrive\\OtvoreniProjekti\\HotelSaplast\\fw\\KontrolerHotela\\HCBL020318\\Project" "../Libraries/CMSIS/Device/ST/STM32F4xx/Include\\stm32f4xx.h"
	.file	2 "C:\\Keil\\ARM\\ARMCLANG\\Bin\\..\\include" "stdint.h"
	.section	.text.DMA_DeInit,"ax",%progbits
	.hidden	DMA_DeInit              @ -- Begin function DMA_DeInit
	.globl	DMA_DeInit
	.p2align	2
	.type	DMA_DeInit,%function
	.code	16                      @ @DMA_DeInit
	.thumb_func
DMA_DeInit:
.Lfunc_begin0:
	.file	3 "F:\\SkyDrive\\OtvoreniProjekti\\HotelSaplast\\fw\\KontrolerHotela\\HCBL020318\\Project" "../Libraries/STM32F4xx_StdPeriph_Driver/src/stm32f4xx_dma.c"
	.loc	3 197 0                 @ ../Libraries/STM32F4xx_StdPeriph_Driver/src/stm32f4xx_dma.c:197:0
	.fnstart
	.cfi_sections .debug_frame
	.cfi_startproc
@ %bb.0:
	@DEBUG_VALUE: DMA_DeInit:DMAy_Streamx <- $r0
	@DEBUG_VALUE: DMA_DeInit:DMAy_Streamx <- $r0
	.loc	3 202 20 prologue_end   @ ../Libraries/STM32F4xx_StdPeriph_Driver/src/stm32f4xx_dma.c:202:20
	ldr	r1, [r0]
	bic	r1, r1, #1
	str	r1, [r0]
	movs	r1, #0
	.loc	3 205 21                @ ../Libraries/STM32F4xx_StdPeriph_Driver/src/stm32f4xx_dma.c:205:21
	str	r1, [r0]
	.loc	3 208 22                @ ../Libraries/STM32F4xx_StdPeriph_Driver/src/stm32f4xx_dma.c:208:22
	str	r1, [r0, #4]
	.loc	3 211 22                @ ../Libraries/STM32F4xx_StdPeriph_Driver/src/stm32f4xx_dma.c:211:22
	str	r1, [r0, #8]
	.loc	3 214 22                @ ../Libraries/STM32F4xx_StdPeriph_Driver/src/stm32f4xx_dma.c:214:22
	str	r1, [r0, #12]
	.loc	3 217 22                @ ../Libraries/STM32F4xx_StdPeriph_Driver/src/stm32f4xx_dma.c:217:22
	str	r1, [r0, #16]
	movs	r1, #33
	.loc	3 220 21                @ ../Libraries/STM32F4xx_StdPeriph_Driver/src/stm32f4xx_dma.c:220:21
	str	r1, [r0, #20]
	ldr	r1, __arm_cp.0_0
	.loc	3 223 7                 @ ../Libraries/STM32F4xx_StdPeriph_Driver/src/stm32f4xx_dma.c:223:7
	cmp	r0, r1
	beq	.LBB0_16
.Ltmp0:
@ %bb.1:
	@DEBUG_VALUE: DMA_DeInit:DMAy_Streamx <- $r0
	.loc	3 0 7 is_stmt 0         @ ../Libraries/STM32F4xx_StdPeriph_Driver/src/stm32f4xx_dma.c:0:7
	ldr	r1, __arm_cp.0_1
	.loc	3 223 7                 @ ../Libraries/STM32F4xx_StdPeriph_Driver/src/stm32f4xx_dma.c:223:7
	cmp	r0, r1
	beq	.LBB0_17
.Ltmp1:
@ %bb.2:
	@DEBUG_VALUE: DMA_DeInit:DMAy_Streamx <- $r0
	.loc	3 0 7                   @ ../Libraries/STM32F4xx_StdPeriph_Driver/src/stm32f4xx_dma.c:0:7
	ldr	r1, __arm_cp.0_2
	.loc	3 223 7                 @ ../Libraries/STM32F4xx_StdPeriph_Driver/src/stm32f4xx_dma.c:223:7
	cmp	r0, r1
	beq	.LBB0_18
.Ltmp2:
@ %bb.3:
	@DEBUG_VALUE: DMA_DeInit:DMAy_Streamx <- $r0
	.loc	3 0 7                   @ ../Libraries/STM32F4xx_StdPeriph_Driver/src/stm32f4xx_dma.c:0:7
	ldr	r1, __arm_cp.0_3
	.loc	3 223 7                 @ ../Libraries/STM32F4xx_StdPeriph_Driver/src/stm32f4xx_dma.c:223:7
	cmp	r0, r1
	beq	.LBB0_19
.Ltmp3:
@ %bb.4:
	@DEBUG_VALUE: DMA_DeInit:DMAy_Streamx <- $r0
	.loc	3 0 7                   @ ../Libraries/STM32F4xx_StdPeriph_Driver/src/stm32f4xx_dma.c:0:7
	ldr	r1, __arm_cp.0_4
	.loc	3 223 7                 @ ../Libraries/STM32F4xx_StdPeriph_Driver/src/stm32f4xx_dma.c:223:7
	cmp	r0, r1
	beq	.LBB0_20
.Ltmp4:
@ %bb.5:
	@DEBUG_VALUE: DMA_DeInit:DMAy_Streamx <- $r0
	.loc	3 0 7                   @ ../Libraries/STM32F4xx_StdPeriph_Driver/src/stm32f4xx_dma.c:0:7
	ldr	r1, __arm_cp.0_5
	.loc	3 223 7                 @ ../Libraries/STM32F4xx_StdPeriph_Driver/src/stm32f4xx_dma.c:223:7
	cmp	r0, r1
	beq	.LBB0_21
.Ltmp5:
@ %bb.6:
	@DEBUG_VALUE: DMA_DeInit:DMAy_Streamx <- $r0
	.loc	3 0 7                   @ ../Libraries/STM32F4xx_StdPeriph_Driver/src/stm32f4xx_dma.c:0:7
	ldr	r1, __arm_cp.0_6
	.loc	3 223 7                 @ ../Libraries/STM32F4xx_StdPeriph_Driver/src/stm32f4xx_dma.c:223:7
	cmp	r0, r1
	beq	.LBB0_22
.Ltmp6:
@ %bb.7:
	@DEBUG_VALUE: DMA_DeInit:DMAy_Streamx <- $r0
	.loc	3 0 7                   @ ../Libraries/STM32F4xx_StdPeriph_Driver/src/stm32f4xx_dma.c:0:7
	ldr	r1, __arm_cp.0_7
	.loc	3 223 7                 @ ../Libraries/STM32F4xx_StdPeriph_Driver/src/stm32f4xx_dma.c:223:7
	cmp	r0, r1
	beq	.LBB0_23
.Ltmp7:
@ %bb.8:
	@DEBUG_VALUE: DMA_DeInit:DMAy_Streamx <- $r0
	.loc	3 0 7                   @ ../Libraries/STM32F4xx_StdPeriph_Driver/src/stm32f4xx_dma.c:0:7
	ldr	r1, __arm_cp.0_8
	.loc	3 223 7                 @ ../Libraries/STM32F4xx_StdPeriph_Driver/src/stm32f4xx_dma.c:223:7
	cmp	r0, r1
	beq	.LBB0_24
.Ltmp8:
@ %bb.9:
	@DEBUG_VALUE: DMA_DeInit:DMAy_Streamx <- $r0
	.loc	3 0 7                   @ ../Libraries/STM32F4xx_StdPeriph_Driver/src/stm32f4xx_dma.c:0:7
	ldr	r1, __arm_cp.0_9
	.loc	3 223 7                 @ ../Libraries/STM32F4xx_StdPeriph_Driver/src/stm32f4xx_dma.c:223:7
	cmp	r0, r1
	beq	.LBB0_25
.Ltmp9:
@ %bb.10:
	@DEBUG_VALUE: DMA_DeInit:DMAy_Streamx <- $r0
	.loc	3 0 7                   @ ../Libraries/STM32F4xx_StdPeriph_Driver/src/stm32f4xx_dma.c:0:7
	ldr	r1, __arm_cp.0_10
	.loc	3 223 7                 @ ../Libraries/STM32F4xx_StdPeriph_Driver/src/stm32f4xx_dma.c:223:7
	cmp	r0, r1
	beq	.LBB0_26
.Ltmp10:
@ %bb.11:
	@DEBUG_VALUE: DMA_DeInit:DMAy_Streamx <- $r0
	.loc	3 0 7                   @ ../Libraries/STM32F4xx_StdPeriph_Driver/src/stm32f4xx_dma.c:0:7
	ldr	r1, __arm_cp.0_11
	.loc	3 223 7                 @ ../Libraries/STM32F4xx_StdPeriph_Driver/src/stm32f4xx_dma.c:223:7
	cmp	r0, r1
	beq	.LBB0_27
.Ltmp11:
@ %bb.12:
	@DEBUG_VALUE: DMA_DeInit:DMAy_Streamx <- $r0
	.loc	3 0 7                   @ ../Libraries/STM32F4xx_StdPeriph_Driver/src/stm32f4xx_dma.c:0:7
	ldr	r1, __arm_cp.0_12
	.loc	3 223 7                 @ ../Libraries/STM32F4xx_StdPeriph_Driver/src/stm32f4xx_dma.c:223:7
	cmp	r0, r1
	beq	.LBB0_28
.Ltmp12:
@ %bb.13:
	@DEBUG_VALUE: DMA_DeInit:DMAy_Streamx <- $r0
	.loc	3 0 7                   @ ../Libraries/STM32F4xx_StdPeriph_Driver/src/stm32f4xx_dma.c:0:7
	ldr	r1, __arm_cp.0_13
	.loc	3 223 7                 @ ../Libraries/STM32F4xx_StdPeriph_Driver/src/stm32f4xx_dma.c:223:7
	cmp	r0, r1
	beq	.LBB0_29
.Ltmp13:
@ %bb.14:
	@DEBUG_VALUE: DMA_DeInit:DMAy_Streamx <- $r0
	.loc	3 0 7                   @ ../Libraries/STM32F4xx_StdPeriph_Driver/src/stm32f4xx_dma.c:0:7
	ldr	r1, __arm_cp.0_14
	.loc	3 223 7                 @ ../Libraries/STM32F4xx_StdPeriph_Driver/src/stm32f4xx_dma.c:223:7
	cmp	r0, r1
	beq	.LBB0_30
.Ltmp14:
@ %bb.15:
	@DEBUG_VALUE: DMA_DeInit:DMAy_Streamx <- $r0
	.loc	3 0 7                   @ ../Libraries/STM32F4xx_StdPeriph_Driver/src/stm32f4xx_dma.c:0:7
	ldr	r1, __arm_cp.0_15
	.loc	3 223 7                 @ ../Libraries/STM32F4xx_StdPeriph_Driver/src/stm32f4xx_dma.c:223:7
	cmp	r0, r1
	.loc	3 306 1 is_stmt 1       @ ../Libraries/STM32F4xx_StdPeriph_Driver/src/stm32f4xx_dma.c:306:1
	it	ne
	bxne	lr
	ldr	r0, __arm_cp.0_20
.Ltmp15:
	.loc	3 0 1 is_stmt 0         @ ../Libraries/STM32F4xx_StdPeriph_Driver/src/stm32f4xx_dma.c:0:1
	movs	r1, #61
	b	.LBB0_31
.LBB0_16:
.Ltmp16:
	@DEBUG_VALUE: DMA_DeInit:DMAy_Streamx <- $r0
	ldr	r0, __arm_cp.0_16
.Ltmp17:
	mov.w	r1, #792723456
	b	.LBB0_31
.LBB0_17:
.Ltmp18:
	@DEBUG_VALUE: DMA_DeInit:DMAy_Streamx <- $r0
	ldr	r0, __arm_cp.0_20
.Ltmp19:
	mov.w	r1, #3904
	b	.LBB0_31
.LBB0_18:
.Ltmp20:
	@DEBUG_VALUE: DMA_DeInit:DMAy_Streamx <- $r0
	ldr	r0, __arm_cp.0_20
.Ltmp21:
	mov.w	r1, #3997696
	b	.LBB0_31
.LBB0_19:
.Ltmp22:
	@DEBUG_VALUE: DMA_DeInit:DMAy_Streamx <- $r0
	ldr	r0, __arm_cp.0_20
.Ltmp23:
	mov.w	r1, #255852544
	b	.LBB0_31
.LBB0_20:
.Ltmp24:
	@DEBUG_VALUE: DMA_DeInit:DMAy_Streamx <- $r0
	ldr	r0, __arm_cp.0_20
.Ltmp25:
	ldr	r1, __arm_cp.0_19
.Ltmp26:
	.loc	3 246 17 is_stmt 1      @ ../Libraries/STM32F4xx_StdPeriph_Driver/src/stm32f4xx_dma.c:246:17
	str	r1, [r0, #4]
.Ltmp27:
	.loc	3 306 1                 @ ../Libraries/STM32F4xx_StdPeriph_Driver/src/stm32f4xx_dma.c:306:1
	bx	lr
.LBB0_21:
.Ltmp28:
	@DEBUG_VALUE: DMA_DeInit:DMAy_Streamx <- $r0
	.loc	3 0 1 is_stmt 0         @ ../Libraries/STM32F4xx_StdPeriph_Driver/src/stm32f4xx_dma.c:0:1
	ldr	r0, __arm_cp.0_20
.Ltmp29:
	ldr	r1, __arm_cp.0_18
.Ltmp30:
	.loc	3 251 17 is_stmt 1      @ ../Libraries/STM32F4xx_StdPeriph_Driver/src/stm32f4xx_dma.c:251:17
	str	r1, [r0, #4]
.Ltmp31:
	.loc	3 306 1                 @ ../Libraries/STM32F4xx_StdPeriph_Driver/src/stm32f4xx_dma.c:306:1
	bx	lr
.LBB0_22:
.Ltmp32:
	@DEBUG_VALUE: DMA_DeInit:DMAy_Streamx <- $r0
	.loc	3 0 1 is_stmt 0         @ ../Libraries/STM32F4xx_StdPeriph_Driver/src/stm32f4xx_dma.c:0:1
	ldr	r0, __arm_cp.0_20
.Ltmp33:
	ldr	r1, __arm_cp.0_17
.Ltmp34:
	.loc	3 256 17 is_stmt 1      @ ../Libraries/STM32F4xx_StdPeriph_Driver/src/stm32f4xx_dma.c:256:17
	str	r1, [r0, #4]
.Ltmp35:
	.loc	3 306 1                 @ ../Libraries/STM32F4xx_StdPeriph_Driver/src/stm32f4xx_dma.c:306:1
	bx	lr
.LBB0_23:
.Ltmp36:
	@DEBUG_VALUE: DMA_DeInit:DMAy_Streamx <- $r0
	.loc	3 0 1 is_stmt 0         @ ../Libraries/STM32F4xx_StdPeriph_Driver/src/stm32f4xx_dma.c:0:1
	ldr	r0, __arm_cp.0_20
.Ltmp37:
	mov.w	r1, #792723456
.Ltmp38:
	.loc	3 261 17 is_stmt 1      @ ../Libraries/STM32F4xx_StdPeriph_Driver/src/stm32f4xx_dma.c:261:17
	str	r1, [r0, #4]
.Ltmp39:
	.loc	3 306 1                 @ ../Libraries/STM32F4xx_StdPeriph_Driver/src/stm32f4xx_dma.c:306:1
	bx	lr
.LBB0_24:
.Ltmp40:
	@DEBUG_VALUE: DMA_DeInit:DMAy_Streamx <- $r0
	.loc	3 0 1 is_stmt 0         @ ../Libraries/STM32F4xx_StdPeriph_Driver/src/stm32f4xx_dma.c:0:1
	ldr	r0, __arm_cp.0_20
.Ltmp41:
	movs	r1, #61
.Ltmp42:
	.loc	3 266 17 is_stmt 1      @ ../Libraries/STM32F4xx_StdPeriph_Driver/src/stm32f4xx_dma.c:266:17
	str.w	r1, [r0, #1024]
.Ltmp43:
	.loc	3 306 1                 @ ../Libraries/STM32F4xx_StdPeriph_Driver/src/stm32f4xx_dma.c:306:1
	bx	lr
.LBB0_25:
.Ltmp44:
	@DEBUG_VALUE: DMA_DeInit:DMAy_Streamx <- $r0
	.loc	3 0 1 is_stmt 0         @ ../Libraries/STM32F4xx_StdPeriph_Driver/src/stm32f4xx_dma.c:0:1
	ldr	r0, __arm_cp.0_20
.Ltmp45:
	mov.w	r1, #3904
.Ltmp46:
	.loc	3 271 17 is_stmt 1      @ ../Libraries/STM32F4xx_StdPeriph_Driver/src/stm32f4xx_dma.c:271:17
	str.w	r1, [r0, #1024]
.Ltmp47:
	.loc	3 306 1                 @ ../Libraries/STM32F4xx_StdPeriph_Driver/src/stm32f4xx_dma.c:306:1
	bx	lr
.LBB0_26:
.Ltmp48:
	@DEBUG_VALUE: DMA_DeInit:DMAy_Streamx <- $r0
	.loc	3 0 1 is_stmt 0         @ ../Libraries/STM32F4xx_StdPeriph_Driver/src/stm32f4xx_dma.c:0:1
	ldr	r0, __arm_cp.0_20
.Ltmp49:
	mov.w	r1, #3997696
.Ltmp50:
	.loc	3 276 17 is_stmt 1      @ ../Libraries/STM32F4xx_StdPeriph_Driver/src/stm32f4xx_dma.c:276:17
	str.w	r1, [r0, #1024]
.Ltmp51:
	.loc	3 306 1                 @ ../Libraries/STM32F4xx_StdPeriph_Driver/src/stm32f4xx_dma.c:306:1
	bx	lr
.LBB0_27:
.Ltmp52:
	@DEBUG_VALUE: DMA_DeInit:DMAy_Streamx <- $r0
	.loc	3 0 1 is_stmt 0         @ ../Libraries/STM32F4xx_StdPeriph_Driver/src/stm32f4xx_dma.c:0:1
	ldr	r0, __arm_cp.0_20
.Ltmp53:
	mov.w	r1, #255852544
.Ltmp54:
	.loc	3 281 17 is_stmt 1      @ ../Libraries/STM32F4xx_StdPeriph_Driver/src/stm32f4xx_dma.c:281:17
	str.w	r1, [r0, #1024]
.Ltmp55:
	.loc	3 306 1                 @ ../Libraries/STM32F4xx_StdPeriph_Driver/src/stm32f4xx_dma.c:306:1
	bx	lr
.LBB0_28:
.Ltmp56:
	@DEBUG_VALUE: DMA_DeInit:DMAy_Streamx <- $r0
	.loc	3 0 1 is_stmt 0         @ ../Libraries/STM32F4xx_StdPeriph_Driver/src/stm32f4xx_dma.c:0:1
	ldr	r0, __arm_cp.0_16
.Ltmp57:
	ldr	r1, __arm_cp.0_19
	b	.LBB0_31
.LBB0_29:
.Ltmp58:
	@DEBUG_VALUE: DMA_DeInit:DMAy_Streamx <- $r0
	ldr	r0, __arm_cp.0_16
.Ltmp59:
	ldr	r1, __arm_cp.0_18
	b	.LBB0_31
.LBB0_30:
.Ltmp60:
	@DEBUG_VALUE: DMA_DeInit:DMAy_Streamx <- $r0
	ldr	r0, __arm_cp.0_16
.Ltmp61:
	ldr	r1, __arm_cp.0_17
.LBB0_31:
.Ltmp62:
	str	r1, [r0]
.Ltmp63:
	.loc	3 306 1                 @ ../Libraries/STM32F4xx_StdPeriph_Driver/src/stm32f4xx_dma.c:306:1
	bx	lr
.Ltmp64:
	.p2align	2
@ %bb.32:
	.loc	3 0 1                   @ ../Libraries/STM32F4xx_StdPeriph_Driver/src/stm32f4xx_dma.c:0:1
__arm_cp.0_0:
	.long	1073898680              @ 0x400264b8
.Lcpi_end0:
	.size	__arm_cp.0_0, .Lcpi_end0-__arm_cp.0_0
__arm_cp.0_1:
	.long	1073897512              @ 0x40026028
.Lcpi_end1:
	.size	__arm_cp.0_1, .Lcpi_end1-__arm_cp.0_1
__arm_cp.0_2:
	.long	1073897536              @ 0x40026040
.Lcpi_end2:
	.size	__arm_cp.0_2, .Lcpi_end2-__arm_cp.0_2
__arm_cp.0_3:
	.long	1073897560              @ 0x40026058
.Lcpi_end3:
	.size	__arm_cp.0_3, .Lcpi_end3-__arm_cp.0_3
__arm_cp.0_4:
	.long	1073897584              @ 0x40026070
.Lcpi_end4:
	.size	__arm_cp.0_4, .Lcpi_end4-__arm_cp.0_4
__arm_cp.0_5:
	.long	1073897608              @ 0x40026088
.Lcpi_end5:
	.size	__arm_cp.0_5, .Lcpi_end5-__arm_cp.0_5
__arm_cp.0_6:
	.long	1073897632              @ 0x400260a0
.Lcpi_end6:
	.size	__arm_cp.0_6, .Lcpi_end6-__arm_cp.0_6
__arm_cp.0_7:
	.long	1073897656              @ 0x400260b8
.Lcpi_end7:
	.size	__arm_cp.0_7, .Lcpi_end7-__arm_cp.0_7
__arm_cp.0_8:
	.long	1073898512              @ 0x40026410
.Lcpi_end8:
	.size	__arm_cp.0_8, .Lcpi_end8-__arm_cp.0_8
__arm_cp.0_9:
	.long	1073898536              @ 0x40026428
.Lcpi_end9:
	.size	__arm_cp.0_9, .Lcpi_end9-__arm_cp.0_9
__arm_cp.0_10:
	.long	1073898560              @ 0x40026440
.Lcpi_end10:
	.size	__arm_cp.0_10, .Lcpi_end10-__arm_cp.0_10
__arm_cp.0_11:
	.long	1073898584              @ 0x40026458
.Lcpi_end11:
	.size	__arm_cp.0_11, .Lcpi_end11-__arm_cp.0_11
__arm_cp.0_12:
	.long	1073898608              @ 0x40026470
.Lcpi_end12:
	.size	__arm_cp.0_12, .Lcpi_end12-__arm_cp.0_12
__arm_cp.0_13:
	.long	1073898632              @ 0x40026488
.Lcpi_end13:
	.size	__arm_cp.0_13, .Lcpi_end13-__arm_cp.0_13
__arm_cp.0_14:
	.long	1073898656              @ 0x400264a0
.Lcpi_end14:
	.size	__arm_cp.0_14, .Lcpi_end14-__arm_cp.0_14
__arm_cp.0_15:
	.long	1073897488              @ 0x40026010
.Lcpi_end15:
	.size	__arm_cp.0_15, .Lcpi_end15-__arm_cp.0_15
__arm_cp.0_16:
	.long	1073898508              @ 0x4002640c
.Lcpi_end16:
	.size	__arm_cp.0_16, .Lcpi_end16-__arm_cp.0_16
__arm_cp.0_17:
	.long	540868608               @ 0x203d0000
.Lcpi_end17:
	.size	__arm_cp.0_17, .Lcpi_end17-__arm_cp.0_17
__arm_cp.0_18:
	.long	536874816               @ 0x20000f40
.Lcpi_end18:
	.size	__arm_cp.0_18, .Lcpi_end18-__arm_cp.0_18
__arm_cp.0_19:
	.long	536870973               @ 0x2000003d
.Lcpi_end19:
	.size	__arm_cp.0_19, .Lcpi_end19-__arm_cp.0_19
__arm_cp.0_20:
	.long	1073897480              @ 0x40026008
.Lcpi_end20:
	.size	__arm_cp.0_20, .Lcpi_end20-__arm_cp.0_20
.Lfunc_end0:
	.size	DMA_DeInit, .Lfunc_end0-DMA_DeInit
	.cfi_endproc
	.cantunwind
	.fnend
                                        @ -- End function
	.section	.text.DMA_Init,"ax",%progbits
	.hidden	DMA_Init                @ -- Begin function DMA_Init
	.globl	DMA_Init
	.p2align	2
	.type	DMA_Init,%function
	.code	16                      @ @DMA_Init
	.thumb_func
DMA_Init:
.Lfunc_begin1:
	.loc	3 320 0 is_stmt 1       @ ../Libraries/STM32F4xx_StdPeriph_Driver/src/stm32f4xx_dma.c:320:0
	.fnstart
	.cfi_startproc
@ %bb.0:
	.save	{r4, lr}
	push	{r4, lr}
	.cfi_def_cfa_offset 8
	.cfi_offset lr, -4
	.cfi_offset r4, -8
	@DEBUG_VALUE: DMA_Init:DMAy_Streamx <- $r0
	@DEBUG_VALUE: DMA_Init:DMAy_Streamx <- $r0
	@DEBUG_VALUE: DMA_Init:DMA_InitStruct <- $r1
	@DEBUG_VALUE: DMA_Init:DMA_InitStruct <- $r1
.Ltmp65:
	@DEBUG_VALUE: DMA_Init:tmpreg <- 0
	.loc	3 341 26 prologue_end   @ ../Libraries/STM32F4xx_StdPeriph_Driver/src/stm32f4xx_dma.c:341:26
	ldr	r2, [r0]
.Ltmp66:
	@DEBUG_VALUE: DMA_Init:tmpreg <- $r2
	.loc	3 0 26 is_stmt 0        @ ../Libraries/STM32F4xx_StdPeriph_Driver/src/stm32f4xx_dma.c:0:26
	ldr	r3, __arm_cp.1_0
	.loc	3 344 10 is_stmt 1      @ ../Libraries/STM32F4xx_StdPeriph_Driver/src/stm32f4xx_dma.c:344:10
	and.w	r12, r2, r3
.Ltmp67:
	@DEBUG_VALUE: DMA_Init:tmpreg <- $r12
	.loc	3 360 29                @ ../Libraries/STM32F4xx_StdPeriph_Driver/src/stm32f4xx_dma.c:360:29
	ldr	r3, [r1]
	.loc	3 360 59 is_stmt 0      @ ../Libraries/STM32F4xx_StdPeriph_Driver/src/stm32f4xx_dma.c:360:59
	ldr	r2, [r1, #12]
	.loc	3 361 29 is_stmt 1      @ ../Libraries/STM32F4xx_StdPeriph_Driver/src/stm32f4xx_dma.c:361:29
	ldrd	lr, r4, [r1, #20]
	.loc	3 360 41                @ ../Libraries/STM32F4xx_StdPeriph_Driver/src/stm32f4xx_dma.c:360:41
	orr.w	r3, r3, r12
	.loc	3 360 67 is_stmt 0      @ ../Libraries/STM32F4xx_StdPeriph_Driver/src/stm32f4xx_dma.c:360:67
	orrs	r2, r3
	.loc	3 362 29 is_stmt 1      @ ../Libraries/STM32F4xx_StdPeriph_Driver/src/stm32f4xx_dma.c:362:29
	ldr	r3, [r1, #28]
	.loc	3 361 47                @ ../Libraries/STM32F4xx_StdPeriph_Driver/src/stm32f4xx_dma.c:361:47
	orr.w	r2, r2, lr
	.loc	3 361 79 is_stmt 0      @ ../Libraries/STM32F4xx_StdPeriph_Driver/src/stm32f4xx_dma.c:361:79
	orrs	r2, r4
	.loc	3 362 52 is_stmt 1      @ ../Libraries/STM32F4xx_StdPeriph_Driver/src/stm32f4xx_dma.c:362:52
	orrs	r2, r3
	.loc	3 362 70 is_stmt 0      @ ../Libraries/STM32F4xx_StdPeriph_Driver/src/stm32f4xx_dma.c:362:70
	ldr	r3, [r1, #32]
	.loc	3 362 89                @ ../Libraries/STM32F4xx_StdPeriph_Driver/src/stm32f4xx_dma.c:362:89
	orrs	r2, r3
	.loc	3 363 29 is_stmt 1      @ ../Libraries/STM32F4xx_StdPeriph_Driver/src/stm32f4xx_dma.c:363:29
	ldr	r3, [r1, #36]
	.loc	3 363 38 is_stmt 0      @ ../Libraries/STM32F4xx_StdPeriph_Driver/src/stm32f4xx_dma.c:363:38
	orrs	r2, r3
	.loc	3 363 56                @ ../Libraries/STM32F4xx_StdPeriph_Driver/src/stm32f4xx_dma.c:363:56
	ldr	r3, [r1, #40]
	.loc	3 363 69                @ ../Libraries/STM32F4xx_StdPeriph_Driver/src/stm32f4xx_dma.c:363:69
	orrs	r2, r3
	.loc	3 364 29 is_stmt 1      @ ../Libraries/STM32F4xx_StdPeriph_Driver/src/stm32f4xx_dma.c:364:29
	ldr	r3, [r1, #52]
	.loc	3 364 45 is_stmt 0      @ ../Libraries/STM32F4xx_StdPeriph_Driver/src/stm32f4xx_dma.c:364:45
	orrs	r2, r3
	.loc	3 364 63                @ ../Libraries/STM32F4xx_StdPeriph_Driver/src/stm32f4xx_dma.c:364:63
	ldr	r3, [r1, #56]
	.loc	3 360 10 is_stmt 1      @ ../Libraries/STM32F4xx_StdPeriph_Driver/src/stm32f4xx_dma.c:360:10
	orrs	r2, r3
.Ltmp68:
	@DEBUG_VALUE: DMA_Init:tmpreg <- $r2
	.loc	3 367 20                @ ../Libraries/STM32F4xx_StdPeriph_Driver/src/stm32f4xx_dma.c:367:20
	str	r2, [r0]
	.loc	3 371 26                @ ../Libraries/STM32F4xx_StdPeriph_Driver/src/stm32f4xx_dma.c:371:26
	ldr	r2, [r0, #20]
.Ltmp69:
	@DEBUG_VALUE: DMA_Init:tmpreg <- $r2
	.loc	3 379 29                @ ../Libraries/STM32F4xx_StdPeriph_Driver/src/stm32f4xx_dma.c:379:29
	ldrd	r3, r4, [r1, #44]
	.loc	3 374 10                @ ../Libraries/STM32F4xx_StdPeriph_Driver/src/stm32f4xx_dma.c:374:10
	bic	r2, r2, #7
.Ltmp70:
	@DEBUG_VALUE: DMA_Init:tmpreg <- $r2
	.loc	3 379 42                @ ../Libraries/STM32F4xx_StdPeriph_Driver/src/stm32f4xx_dma.c:379:42
	orrs	r2, r3
.Ltmp71:
	.loc	3 379 10 is_stmt 0      @ ../Libraries/STM32F4xx_StdPeriph_Driver/src/stm32f4xx_dma.c:379:10
	orrs	r2, r4
.Ltmp72:
	@DEBUG_VALUE: DMA_Init:tmpreg <- $r2
	.loc	3 382 21 is_stmt 1      @ ../Libraries/STM32F4xx_StdPeriph_Driver/src/stm32f4xx_dma.c:382:21
	str	r2, [r0, #20]
	.loc	3 386 40                @ ../Libraries/STM32F4xx_StdPeriph_Driver/src/stm32f4xx_dma.c:386:40
	ldr	r2, [r1, #16]
.Ltmp73:
	.loc	3 386 22 is_stmt 0      @ ../Libraries/STM32F4xx_StdPeriph_Driver/src/stm32f4xx_dma.c:386:22
	str	r2, [r0, #4]
	.loc	3 390 39 is_stmt 1      @ ../Libraries/STM32F4xx_StdPeriph_Driver/src/stm32f4xx_dma.c:390:39
	ldr	r2, [r1, #4]
	.loc	3 390 21 is_stmt 0      @ ../Libraries/STM32F4xx_StdPeriph_Driver/src/stm32f4xx_dma.c:390:21
	str	r2, [r0, #8]
	.loc	3 394 40 is_stmt 1      @ ../Libraries/STM32F4xx_StdPeriph_Driver/src/stm32f4xx_dma.c:394:40
	ldr	r1, [r1, #8]
.Ltmp74:
	.loc	3 394 22 is_stmt 0      @ ../Libraries/STM32F4xx_StdPeriph_Driver/src/stm32f4xx_dma.c:394:22
	str	r1, [r0, #12]
	.loc	3 395 1 is_stmt 1       @ ../Libraries/STM32F4xx_StdPeriph_Driver/src/stm32f4xx_dma.c:395:1
	pop	{r4, pc}
.Ltmp75:
	.p2align	2
@ %bb.1:
	.loc	3 0 1 is_stmt 0         @ ../Libraries/STM32F4xx_StdPeriph_Driver/src/stm32f4xx_dma.c:0:1
__arm_cp.1_0:
	.long	4028399679              @ 0xf01c803f
.Lcpi_end21:
	.size	__arm_cp.1_0, .Lcpi_end21-__arm_cp.1_0
.Lfunc_end1:
	.size	DMA_Init, .Lfunc_end1-DMA_Init
	.cfi_endproc
	.cantunwind
	.fnend
                                        @ -- End function
	.section	.text.DMA_StructInit,"ax",%progbits
	.hidden	DMA_StructInit          @ -- Begin function DMA_StructInit
	.globl	DMA_StructInit
	.p2align	1
	.type	DMA_StructInit,%function
	.code	16                      @ @DMA_StructInit
	.thumb_func
DMA_StructInit:
.Lfunc_begin2:
	.loc	3 404 0 is_stmt 1       @ ../Libraries/STM32F4xx_StdPeriph_Driver/src/stm32f4xx_dma.c:404:0
	.fnstart
	.cfi_startproc
@ %bb.0:
	.save	{r7, lr}
	push	{r7, lr}
	.cfi_def_cfa_offset 8
	.cfi_offset lr, -4
	.cfi_offset r7, -8
	@DEBUG_VALUE: DMA_StructInit:DMA_InitStruct <- $r0
	@DEBUG_VALUE: DMA_StructInit:DMA_InitStruct <- $r0
	@DEBUG_VALUE: DMA_StructInit:DMA_InitStruct <- $r0
.Ltmp76:
	.loc	3 410 42 prologue_end   @ ../Libraries/STM32F4xx_StdPeriph_Driver/src/stm32f4xx_dma.c:410:42
	movs	r1, #60
	bl	__aeabi_memclr4
.Ltmp77:
	.loc	3 450 1                 @ ../Libraries/STM32F4xx_StdPeriph_Driver/src/stm32f4xx_dma.c:450:1
	pop	{r7, pc}
.Ltmp78:
.Lfunc_end2:
	.size	DMA_StructInit, .Lfunc_end2-DMA_StructInit
	.cfi_endproc
	.cantunwind
	.fnend
                                        @ -- End function
	.section	.text.DMA_Cmd,"ax",%progbits
	.hidden	DMA_Cmd                 @ -- Begin function DMA_Cmd
	.globl	DMA_Cmd
	.p2align	1
	.type	DMA_Cmd,%function
	.code	16                      @ @DMA_Cmd
	.thumb_func
DMA_Cmd:
.Lfunc_begin3:
	.loc	3 479 0                 @ ../Libraries/STM32F4xx_StdPeriph_Driver/src/stm32f4xx_dma.c:479:0
	.fnstart
	.cfi_startproc
@ %bb.0:
	@DEBUG_VALUE: DMA_Cmd:DMAy_Streamx <- $r0
	@DEBUG_VALUE: DMA_Cmd:DMAy_Streamx <- $r0
	@DEBUG_VALUE: DMA_Cmd:NewState <- $r1
	@DEBUG_VALUE: DMA_Cmd:NewState <- $r1
	.loc	3 0 0 prologue_end      @ ../Libraries/STM32F4xx_StdPeriph_Driver/src/stm32f4xx_dma.c:0:0
	ldr	r2, [r0]
.Ltmp79:
	.loc	3 484 7                 @ ../Libraries/STM32F4xx_StdPeriph_Driver/src/stm32f4xx_dma.c:484:7
	cmp	r1, #0
	orr	r3, r2, #1
	it	eq
	biceq	r3, r2, #1
.Ltmp80:
	.loc	3 0 0 is_stmt 0         @ ../Libraries/STM32F4xx_StdPeriph_Driver/src/stm32f4xx_dma.c:0:0
	str	r3, [r0]
.Ltmp81:
	.loc	3 494 1 is_stmt 1       @ ../Libraries/STM32F4xx_StdPeriph_Driver/src/stm32f4xx_dma.c:494:1
	bx	lr
.Ltmp82:
.Lfunc_end3:
	.size	DMA_Cmd, .Lfunc_end3-DMA_Cmd
	.cfi_endproc
	.cantunwind
	.fnend
                                        @ -- End function
	.section	.text.DMA_PeriphIncOffsetSizeConfig,"ax",%progbits
	.hidden	DMA_PeriphIncOffsetSizeConfig @ -- Begin function DMA_PeriphIncOffsetSizeConfig
	.globl	DMA_PeriphIncOffsetSizeConfig
	.p2align	1
	.type	DMA_PeriphIncOffsetSizeConfig,%function
	.code	16                      @ @DMA_PeriphIncOffsetSizeConfig
	.thumb_func
DMA_PeriphIncOffsetSizeConfig:
.Lfunc_begin4:
	.loc	3 515 0                 @ ../Libraries/STM32F4xx_StdPeriph_Driver/src/stm32f4xx_dma.c:515:0
	.fnstart
	.cfi_startproc
@ %bb.0:
	@DEBUG_VALUE: DMA_PeriphIncOffsetSizeConfig:DMAy_Streamx <- $r0
	@DEBUG_VALUE: DMA_PeriphIncOffsetSizeConfig:DMAy_Streamx <- $r0
	@DEBUG_VALUE: DMA_PeriphIncOffsetSizeConfig:DMA_Pincos <- $r1
	@DEBUG_VALUE: DMA_PeriphIncOffsetSizeConfig:DMA_Pincos <- $r1
	.loc	3 0 0 prologue_end      @ ../Libraries/STM32F4xx_StdPeriph_Driver/src/stm32f4xx_dma.c:0:0
	ldr	r2, [r0]
.Ltmp83:
	.loc	3 521 6                 @ ../Libraries/STM32F4xx_StdPeriph_Driver/src/stm32f4xx_dma.c:521:6
	cmp	r1, #0
	orr	r3, r2, #32768
	it	eq
	biceq	r3, r2, #32768
.Ltmp84:
	.loc	3 0 0 is_stmt 0         @ ../Libraries/STM32F4xx_StdPeriph_Driver/src/stm32f4xx_dma.c:0:0
	str	r3, [r0]
.Ltmp85:
	.loc	3 531 1 is_stmt 1       @ ../Libraries/STM32F4xx_StdPeriph_Driver/src/stm32f4xx_dma.c:531:1
	bx	lr
.Ltmp86:
.Lfunc_end4:
	.size	DMA_PeriphIncOffsetSizeConfig, .Lfunc_end4-DMA_PeriphIncOffsetSizeConfig
	.cfi_endproc
	.cantunwind
	.fnend
                                        @ -- End function
	.section	.text.DMA_FlowControllerConfig,"ax",%progbits
	.hidden	DMA_FlowControllerConfig @ -- Begin function DMA_FlowControllerConfig
	.globl	DMA_FlowControllerConfig
	.p2align	1
	.type	DMA_FlowControllerConfig,%function
	.code	16                      @ @DMA_FlowControllerConfig
	.thumb_func
DMA_FlowControllerConfig:
.Lfunc_begin5:
	.loc	3 551 0                 @ ../Libraries/STM32F4xx_StdPeriph_Driver/src/stm32f4xx_dma.c:551:0
	.fnstart
	.cfi_startproc
@ %bb.0:
	@DEBUG_VALUE: DMA_FlowControllerConfig:DMAy_Streamx <- $r0
	@DEBUG_VALUE: DMA_FlowControllerConfig:DMAy_Streamx <- $r0
	@DEBUG_VALUE: DMA_FlowControllerConfig:DMA_FlowCtrl <- $r1
	@DEBUG_VALUE: DMA_FlowControllerConfig:DMA_FlowCtrl <- $r1
	.loc	3 0 0 prologue_end      @ ../Libraries/STM32F4xx_StdPeriph_Driver/src/stm32f4xx_dma.c:0:0
	ldr	r2, [r0]
.Ltmp87:
	.loc	3 557 6                 @ ../Libraries/STM32F4xx_StdPeriph_Driver/src/stm32f4xx_dma.c:557:6
	cmp	r1, #0
	orr	r3, r2, #32
	it	eq
	biceq	r3, r2, #32
.Ltmp88:
	.loc	3 0 0 is_stmt 0         @ ../Libraries/STM32F4xx_StdPeriph_Driver/src/stm32f4xx_dma.c:0:0
	str	r3, [r0]
.Ltmp89:
	.loc	3 567 1 is_stmt 1       @ ../Libraries/STM32F4xx_StdPeriph_Driver/src/stm32f4xx_dma.c:567:1
	bx	lr
.Ltmp90:
.Lfunc_end5:
	.size	DMA_FlowControllerConfig, .Lfunc_end5-DMA_FlowControllerConfig
	.cfi_endproc
	.cantunwind
	.fnend
                                        @ -- End function
	.section	.text.DMA_SetCurrDataCounter,"ax",%progbits
	.hidden	DMA_SetCurrDataCounter  @ -- Begin function DMA_SetCurrDataCounter
	.globl	DMA_SetCurrDataCounter
	.p2align	1
	.type	DMA_SetCurrDataCounter,%function
	.code	16                      @ @DMA_SetCurrDataCounter
	.thumb_func
DMA_SetCurrDataCounter:
.Lfunc_begin6:
	.loc	3 633 0                 @ ../Libraries/STM32F4xx_StdPeriph_Driver/src/stm32f4xx_dma.c:633:0
	.fnstart
	.cfi_startproc
@ %bb.0:
	@DEBUG_VALUE: DMA_SetCurrDataCounter:DMAy_Streamx <- $r0
	@DEBUG_VALUE: DMA_SetCurrDataCounter:DMAy_Streamx <- $r0
	@DEBUG_VALUE: DMA_SetCurrDataCounter:Counter <- $r1
	@DEBUG_VALUE: DMA_SetCurrDataCounter:Counter <- $r1
	.loc	3 638 22 prologue_end   @ ../Libraries/STM32F4xx_StdPeriph_Driver/src/stm32f4xx_dma.c:638:22
	str	r1, [r0, #4]
	.loc	3 639 1                 @ ../Libraries/STM32F4xx_StdPeriph_Driver/src/stm32f4xx_dma.c:639:1
	bx	lr
.Ltmp91:
.Lfunc_end6:
	.size	DMA_SetCurrDataCounter, .Lfunc_end6-DMA_SetCurrDataCounter
	.cfi_endproc
	.cantunwind
	.fnend
                                        @ -- End function
	.section	.text.DMA_GetCurrDataCounter,"ax",%progbits
	.hidden	DMA_GetCurrDataCounter  @ -- Begin function DMA_GetCurrDataCounter
	.globl	DMA_GetCurrDataCounter
	.p2align	1
	.type	DMA_GetCurrDataCounter,%function
	.code	16                      @ @DMA_GetCurrDataCounter
	.thumb_func
DMA_GetCurrDataCounter:
.Lfunc_begin7:
	.loc	3 648 0                 @ ../Libraries/STM32F4xx_StdPeriph_Driver/src/stm32f4xx_dma.c:648:0
	.fnstart
	.cfi_startproc
@ %bb.0:
	@DEBUG_VALUE: DMA_GetCurrDataCounter:DMAy_Streamx <- $r0
	@DEBUG_VALUE: DMA_GetCurrDataCounter:DMAy_Streamx <- $r0
	.loc	3 653 36 prologue_end   @ ../Libraries/STM32F4xx_StdPeriph_Driver/src/stm32f4xx_dma.c:653:36
	ldr	r0, [r0, #4]
.Ltmp92:
	.loc	3 653 3 is_stmt 0       @ ../Libraries/STM32F4xx_StdPeriph_Driver/src/stm32f4xx_dma.c:653:3
	uxth	r0, r0
	bx	lr
.Ltmp93:
.Lfunc_end7:
	.size	DMA_GetCurrDataCounter, .Lfunc_end7-DMA_GetCurrDataCounter
	.cfi_endproc
	.cantunwind
	.fnend
                                        @ -- End function
	.section	.text.DMA_DoubleBufferModeConfig,"ax",%progbits
	.hidden	DMA_DoubleBufferModeConfig @ -- Begin function DMA_DoubleBufferModeConfig
	.globl	DMA_DoubleBufferModeConfig
	.p2align	1
	.type	DMA_DoubleBufferModeConfig,%function
	.code	16                      @ @DMA_DoubleBufferModeConfig
	.thumb_func
DMA_DoubleBufferModeConfig:
.Lfunc_begin8:
	.loc	3 732 0 is_stmt 1       @ ../Libraries/STM32F4xx_StdPeriph_Driver/src/stm32f4xx_dma.c:732:0
	.fnstart
	.cfi_startproc
@ %bb.0:
	@DEBUG_VALUE: DMA_DoubleBufferModeConfig:DMAy_Streamx <- $r0
	@DEBUG_VALUE: DMA_DoubleBufferModeConfig:DMAy_Streamx <- $r0
	@DEBUG_VALUE: DMA_DoubleBufferModeConfig:Memory1BaseAddr <- $r1
	@DEBUG_VALUE: DMA_DoubleBufferModeConfig:Memory1BaseAddr <- $r1
	@DEBUG_VALUE: DMA_DoubleBufferModeConfig:DMA_CurrentMemory <- $r2
	@DEBUG_VALUE: DMA_DoubleBufferModeConfig:DMA_CurrentMemory <- $r2
	.loc	3 0 0 prologue_end      @ ../Libraries/STM32F4xx_StdPeriph_Driver/src/stm32f4xx_dma.c:0:0
	ldr.w	r12, [r0]
.Ltmp94:
	.loc	3 737 7                 @ ../Libraries/STM32F4xx_StdPeriph_Driver/src/stm32f4xx_dma.c:737:7
	cmp	r2, #0
	orr	r3, r12, #524288
	it	eq
	biceq	r3, r12, #524288
.Ltmp95:
	.loc	3 0 0 is_stmt 0         @ ../Libraries/STM32F4xx_StdPeriph_Driver/src/stm32f4xx_dma.c:0:0
	str	r3, [r0]
.Ltmp96:
	.loc	3 749 22 is_stmt 1      @ ../Libraries/STM32F4xx_StdPeriph_Driver/src/stm32f4xx_dma.c:749:22
	str	r1, [r0, #16]
	.loc	3 750 1                 @ ../Libraries/STM32F4xx_StdPeriph_Driver/src/stm32f4xx_dma.c:750:1
	bx	lr
.Ltmp97:
.Lfunc_end8:
	.size	DMA_DoubleBufferModeConfig, .Lfunc_end8-DMA_DoubleBufferModeConfig
	.cfi_endproc
	.cantunwind
	.fnend
                                        @ -- End function
	.section	.text.DMA_DoubleBufferModeCmd,"ax",%progbits
	.hidden	DMA_DoubleBufferModeCmd @ -- Begin function DMA_DoubleBufferModeCmd
	.globl	DMA_DoubleBufferModeCmd
	.p2align	1
	.type	DMA_DoubleBufferModeCmd,%function
	.code	16                      @ @DMA_DoubleBufferModeCmd
	.thumb_func
DMA_DoubleBufferModeCmd:
.Lfunc_begin9:
	.loc	3 762 0                 @ ../Libraries/STM32F4xx_StdPeriph_Driver/src/stm32f4xx_dma.c:762:0
	.fnstart
	.cfi_startproc
@ %bb.0:
	@DEBUG_VALUE: DMA_DoubleBufferModeCmd:DMAy_Streamx <- $r0
	@DEBUG_VALUE: DMA_DoubleBufferModeCmd:DMAy_Streamx <- $r0
	@DEBUG_VALUE: DMA_DoubleBufferModeCmd:NewState <- $r1
	@DEBUG_VALUE: DMA_DoubleBufferModeCmd:NewState <- $r1
	.loc	3 0 0 prologue_end      @ ../Libraries/STM32F4xx_StdPeriph_Driver/src/stm32f4xx_dma.c:0:0
	ldr	r2, [r0]
.Ltmp98:
	.loc	3 768 7                 @ ../Libraries/STM32F4xx_StdPeriph_Driver/src/stm32f4xx_dma.c:768:7
	cmp	r1, #0
	orr	r3, r2, #262144
	it	eq
	biceq	r3, r2, #262144
.Ltmp99:
	.loc	3 0 0 is_stmt 0         @ ../Libraries/STM32F4xx_StdPeriph_Driver/src/stm32f4xx_dma.c:0:0
	str	r3, [r0]
.Ltmp100:
	.loc	3 778 1 is_stmt 1       @ ../Libraries/STM32F4xx_StdPeriph_Driver/src/stm32f4xx_dma.c:778:1
	bx	lr
.Ltmp101:
.Lfunc_end9:
	.size	DMA_DoubleBufferModeCmd, .Lfunc_end9-DMA_DoubleBufferModeCmd
	.cfi_endproc
	.cantunwind
	.fnend
                                        @ -- End function
	.section	.text.DMA_MemoryTargetConfig,"ax",%progbits
	.hidden	DMA_MemoryTargetConfig  @ -- Begin function DMA_MemoryTargetConfig
	.globl	DMA_MemoryTargetConfig
	.p2align	1
	.type	DMA_MemoryTargetConfig,%function
	.code	16                      @ @DMA_MemoryTargetConfig
	.thumb_func
DMA_MemoryTargetConfig:
.Lfunc_begin10:
	.loc	3 804 0                 @ ../Libraries/STM32F4xx_StdPeriph_Driver/src/stm32f4xx_dma.c:804:0
	.fnstart
	.cfi_startproc
@ %bb.0:
	@DEBUG_VALUE: DMA_MemoryTargetConfig:DMAy_Streamx <- $r0
	@DEBUG_VALUE: DMA_MemoryTargetConfig:MemoryBaseAddr <- $r1
	@DEBUG_VALUE: DMA_MemoryTargetConfig:DMA_MemoryTarget <- $r2
	movs	r3, #16
	@DEBUG_VALUE: DMA_MemoryTargetConfig:DMA_MemoryTarget <- $r2
	@DEBUG_VALUE: DMA_MemoryTargetConfig:MemoryBaseAddr <- $r1
	@DEBUG_VALUE: DMA_MemoryTargetConfig:DMAy_Streamx <- $r0
.Ltmp102:
	.loc	3 810 7 prologue_end    @ ../Libraries/STM32F4xx_StdPeriph_Driver/src/stm32f4xx_dma.c:810:7
	cmp	r2, #0
	it	eq
	moveq	r3, #12
.Ltmp103:
	.loc	3 0 0 is_stmt 0         @ ../Libraries/STM32F4xx_StdPeriph_Driver/src/stm32f4xx_dma.c:0:0
	str	r1, [r0, r3]
.Ltmp104:
	.loc	3 820 1 is_stmt 1       @ ../Libraries/STM32F4xx_StdPeriph_Driver/src/stm32f4xx_dma.c:820:1
	bx	lr
.Ltmp105:
.Lfunc_end10:
	.size	DMA_MemoryTargetConfig, .Lfunc_end10-DMA_MemoryTargetConfig
	.cfi_endproc
	.cantunwind
	.fnend
                                        @ -- End function
	.section	.text.DMA_GetCurrentMemoryTarget,"ax",%progbits
	.hidden	DMA_GetCurrentMemoryTarget @ -- Begin function DMA_GetCurrentMemoryTarget
	.globl	DMA_GetCurrentMemoryTarget
	.p2align	1
	.type	DMA_GetCurrentMemoryTarget,%function
	.code	16                      @ @DMA_GetCurrentMemoryTarget
	.thumb_func
DMA_GetCurrentMemoryTarget:
.Lfunc_begin11:
	.loc	3 829 0                 @ ../Libraries/STM32F4xx_StdPeriph_Driver/src/stm32f4xx_dma.c:829:0
	.fnstart
	.cfi_startproc
@ %bb.0:
	@DEBUG_VALUE: DMA_GetCurrentMemoryTarget:DMAy_Streamx <- $r0
	@DEBUG_VALUE: DMA_GetCurrentMemoryTarget:DMAy_Streamx <- $r0
	@DEBUG_VALUE: DMA_GetCurrentMemoryTarget:tmp <- 0
	.loc	3 836 22 prologue_end   @ ../Libraries/STM32F4xx_StdPeriph_Driver/src/stm32f4xx_dma.c:836:22
	ldr	r0, [r0]
.Ltmp106:
	.loc	3 836 7 is_stmt 0       @ ../Libraries/STM32F4xx_StdPeriph_Driver/src/stm32f4xx_dma.c:836:7
	ubfx	r0, r0, #19, #1
.Ltmp107:
	@DEBUG_VALUE: DMA_GetCurrentMemoryTarget:tmp <- $r0
	.loc	3 846 3 is_stmt 1       @ ../Libraries/STM32F4xx_StdPeriph_Driver/src/stm32f4xx_dma.c:846:3
	bx	lr
.Ltmp108:
.Lfunc_end11:
	.size	DMA_GetCurrentMemoryTarget, .Lfunc_end11-DMA_GetCurrentMemoryTarget
	.cfi_endproc
	.cantunwind
	.fnend
                                        @ -- End function
	.section	.text.DMA_GetCmdStatus,"ax",%progbits
	.hidden	DMA_GetCmdStatus        @ -- Begin function DMA_GetCmdStatus
	.globl	DMA_GetCmdStatus
	.p2align	1
	.type	DMA_GetCmdStatus,%function
	.code	16                      @ @DMA_GetCmdStatus
	.thumb_func
DMA_GetCmdStatus:
.Lfunc_begin12:
	.loc	3 944 0                 @ ../Libraries/STM32F4xx_StdPeriph_Driver/src/stm32f4xx_dma.c:944:0
	.fnstart
	.cfi_startproc
@ %bb.0:
	@DEBUG_VALUE: DMA_GetCmdStatus:DMAy_Streamx <- $r0
	@DEBUG_VALUE: DMA_GetCmdStatus:DMAy_Streamx <- $r0
	@DEBUG_VALUE: DMA_GetCmdStatus:state <- 0
	.loc	3 950 22 prologue_end   @ ../Libraries/STM32F4xx_StdPeriph_Driver/src/stm32f4xx_dma.c:950:22
	ldr	r0, [r0]
.Ltmp109:
	@DEBUG_VALUE: DMA_GetCmdStatus:state <- undef
	.loc	3 961 3                 @ ../Libraries/STM32F4xx_StdPeriph_Driver/src/stm32f4xx_dma.c:961:3
	and	r0, r0, #1
	bx	lr
.Ltmp110:
.Lfunc_end12:
	.size	DMA_GetCmdStatus, .Lfunc_end12-DMA_GetCmdStatus
	.cfi_endproc
	.cantunwind
	.fnend
                                        @ -- End function
	.section	.text.DMA_GetFIFOStatus,"ax",%progbits
	.hidden	DMA_GetFIFOStatus       @ -- Begin function DMA_GetFIFOStatus
	.globl	DMA_GetFIFOStatus
	.p2align	1
	.type	DMA_GetFIFOStatus,%function
	.code	16                      @ @DMA_GetFIFOStatus
	.thumb_func
DMA_GetFIFOStatus:
.Lfunc_begin13:
	.loc	3 978 0                 @ ../Libraries/STM32F4xx_StdPeriph_Driver/src/stm32f4xx_dma.c:978:0
	.fnstart
	.cfi_startproc
@ %bb.0:
	@DEBUG_VALUE: DMA_GetFIFOStatus:DMAy_Streamx <- $r0
	@DEBUG_VALUE: DMA_GetFIFOStatus:DMAy_Streamx <- $r0
	@DEBUG_VALUE: DMA_GetFIFOStatus:tmpreg <- 0
	.loc	3 985 38 prologue_end   @ ../Libraries/STM32F4xx_StdPeriph_Driver/src/stm32f4xx_dma.c:985:38
	ldr	r0, [r0, #20]
.Ltmp111:
	.loc	3 985 42 is_stmt 0      @ ../Libraries/STM32F4xx_StdPeriph_Driver/src/stm32f4xx_dma.c:985:42
	and	r0, r0, #56
.Ltmp112:
	@DEBUG_VALUE: DMA_GetFIFOStatus:tmpreg <- $r0
	.loc	3 987 3 is_stmt 1       @ ../Libraries/STM32F4xx_StdPeriph_Driver/src/stm32f4xx_dma.c:987:3
	bx	lr
.Ltmp113:
.Lfunc_end13:
	.size	DMA_GetFIFOStatus, .Lfunc_end13-DMA_GetFIFOStatus
	.cfi_endproc
	.cantunwind
	.fnend
                                        @ -- End function
	.section	.text.DMA_GetFlagStatus,"ax",%progbits
	.hidden	DMA_GetFlagStatus       @ -- Begin function DMA_GetFlagStatus
	.globl	DMA_GetFlagStatus
	.p2align	2
	.type	DMA_GetFlagStatus,%function
	.code	16                      @ @DMA_GetFlagStatus
	.thumb_func
DMA_GetFlagStatus:
.Lfunc_begin14:
	.loc	3 1005 0                @ ../Libraries/STM32F4xx_StdPeriph_Driver/src/stm32f4xx_dma.c:1005:0
	.fnstart
	.cfi_startproc
@ %bb.0:
	@DEBUG_VALUE: DMA_GetFlagStatus:DMAy_Streamx <- $r0
	@DEBUG_VALUE: DMA_GetFlagStatus:DMA_FLAG <- $r1
	ldr	r2, __arm_cp.14_0
.Ltmp114:
	@DEBUG_VALUE: DMA_GetFlagStatus:tmpreg <- 0
	@DEBUG_VALUE: DMA_GetFlagStatus:bitstatus <- 0
	@DEBUG_VALUE: DMA_GetFlagStatus:DMA_FLAG <- $r1
	@DEBUG_VALUE: DMA_GetFlagStatus:DMAy_Streamx <- $r0
	.loc	3 1015 20 prologue_end  @ ../Libraries/STM32F4xx_StdPeriph_Driver/src/stm32f4xx_dma.c:1015:20
	add.w	r3, r2, #16
.Ltmp115:
	.loc	3 1015 7 is_stmt 0      @ ../Libraries/STM32F4xx_StdPeriph_Driver/src/stm32f4xx_dma.c:1015:7
	cmp	r0, r3
	it	lo
	sublo.w	r2, r2, #1024
.Ltmp116:
	@DEBUG_VALUE: DMA_GetFlagStatus:DMAy <- $r2
	.loc	3 0 7                   @ ../Libraries/STM32F4xx_StdPeriph_Driver/src/stm32f4xx_dma.c:0:7
	lsrs	r0, r1, #29
.Ltmp117:
	bfi	r2, r0, #2, #1
.Ltmp118:
	ldr	r0, [r2]
.Ltmp119:
	@DEBUG_VALUE: DMA_GetFlagStatus:tmpreg <- undef
	.loc	3 1039 10 is_stmt 1     @ ../Libraries/STM32F4xx_StdPeriph_Driver/src/stm32f4xx_dma.c:1039:10
	ands	r0, r1
	ldr	r1, __arm_cp.14_1
.Ltmp120:
	.loc	3 1042 15               @ ../Libraries/STM32F4xx_StdPeriph_Driver/src/stm32f4xx_dma.c:1042:15
	ands	r0, r1
	.loc	3 1042 27 is_stmt 0     @ ../Libraries/STM32F4xx_StdPeriph_Driver/src/stm32f4xx_dma.c:1042:27
	it	ne
	movne	r0, #1
.Ltmp121:
	@DEBUG_VALUE: DMA_GetFlagStatus:bitstatus <- undef
	.loc	3 1054 3 is_stmt 1      @ ../Libraries/STM32F4xx_StdPeriph_Driver/src/stm32f4xx_dma.c:1054:3
	bx	lr
.Ltmp122:
	.p2align	2
@ %bb.1:
	.loc	3 0 3 is_stmt 0         @ ../Libraries/STM32F4xx_StdPeriph_Driver/src/stm32f4xx_dma.c:0:3
__arm_cp.14_0:
	.long	1073898496              @ 0x40026400
.Lcpi_end22:
	.size	__arm_cp.14_0, .Lcpi_end22-__arm_cp.14_0
__arm_cp.14_1:
	.long	259854205               @ 0xf7d0f7d
.Lcpi_end23:
	.size	__arm_cp.14_1, .Lcpi_end23-__arm_cp.14_1
.Lfunc_end14:
	.size	DMA_GetFlagStatus, .Lfunc_end14-DMA_GetFlagStatus
	.cfi_endproc
	.cantunwind
	.fnend
                                        @ -- End function
	.section	.text.DMA_ClearFlag,"ax",%progbits
	.hidden	DMA_ClearFlag           @ -- Begin function DMA_ClearFlag
	.globl	DMA_ClearFlag
	.p2align	2
	.type	DMA_ClearFlag,%function
	.code	16                      @ @DMA_ClearFlag
	.thumb_func
DMA_ClearFlag:
.Lfunc_begin15:
	.loc	3 1072 0 is_stmt 1      @ ../Libraries/STM32F4xx_StdPeriph_Driver/src/stm32f4xx_dma.c:1072:0
	.fnstart
	.cfi_startproc
@ %bb.0:
	@DEBUG_VALUE: DMA_ClearFlag:DMAy_Streamx <- $r0
	@DEBUG_VALUE: DMA_ClearFlag:DMA_FLAG <- $r1
	ldr	r2, __arm_cp.15_0
	@DEBUG_VALUE: DMA_ClearFlag:DMA_FLAG <- $r1
	@DEBUG_VALUE: DMA_ClearFlag:DMAy_Streamx <- $r0
.Ltmp123:
	.loc	3 1080 20 prologue_end  @ ../Libraries/STM32F4xx_StdPeriph_Driver/src/stm32f4xx_dma.c:1080:20
	add.w	r3, r2, #16
.Ltmp124:
	.loc	3 1080 7 is_stmt 0      @ ../Libraries/STM32F4xx_StdPeriph_Driver/src/stm32f4xx_dma.c:1080:7
	cmp	r0, r3
	ldr	r0, __arm_cp.15_1
.Ltmp125:
	it	lo
	sublo.w	r2, r2, #1024
.Ltmp126:
	@DEBUG_VALUE: DMA_ClearFlag:DMAy <- $r2
	.loc	3 0 0                   @ ../Libraries/STM32F4xx_StdPeriph_Driver/src/stm32f4xx_dma.c:0:0
	ands	r0, r1
.Ltmp127:
	.loc	3 1092 7 is_stmt 1      @ ../Libraries/STM32F4xx_StdPeriph_Driver/src/stm32f4xx_dma.c:1092:7
	lsls	r1, r1, #2
.Ltmp128:
	.loc	3 1100 17               @ ../Libraries/STM32F4xx_StdPeriph_Driver/src/stm32f4xx_dma.c:1100:17
	ite	pl
	strpl	r0, [r2, #8]
.Ltmp129:
	.loc	3 1095 17               @ ../Libraries/STM32F4xx_StdPeriph_Driver/src/stm32f4xx_dma.c:1095:17
	strmi	r0, [r2, #12]
.Ltmp130:
	.loc	3 1102 1                @ ../Libraries/STM32F4xx_StdPeriph_Driver/src/stm32f4xx_dma.c:1102:1
	bx	lr
.Ltmp131:
	.p2align	2
@ %bb.1:
	.loc	3 0 1 is_stmt 0         @ ../Libraries/STM32F4xx_StdPeriph_Driver/src/stm32f4xx_dma.c:0:1
__arm_cp.15_0:
	.long	1073898496              @ 0x40026400
.Lcpi_end24:
	.size	__arm_cp.15_0, .Lcpi_end24-__arm_cp.15_0
__arm_cp.15_1:
	.long	259854205               @ 0xf7d0f7d
.Lcpi_end25:
	.size	__arm_cp.15_1, .Lcpi_end25-__arm_cp.15_1
.Lfunc_end15:
	.size	DMA_ClearFlag, .Lfunc_end15-DMA_ClearFlag
	.cfi_endproc
	.cantunwind
	.fnend
                                        @ -- End function
	.section	.text.DMA_ITConfig,"ax",%progbits
	.hidden	DMA_ITConfig            @ -- Begin function DMA_ITConfig
	.globl	DMA_ITConfig
	.p2align	1
	.type	DMA_ITConfig,%function
	.code	16                      @ @DMA_ITConfig
	.thumb_func
DMA_ITConfig:
.Lfunc_begin16:
	.loc	3 1119 0 is_stmt 1      @ ../Libraries/STM32F4xx_StdPeriph_Driver/src/stm32f4xx_dma.c:1119:0
	.fnstart
	.cfi_startproc
@ %bb.0:
	@DEBUG_VALUE: DMA_ITConfig:DMAy_Streamx <- $r0
	@DEBUG_VALUE: DMA_ITConfig:DMAy_Streamx <- $r0
	@DEBUG_VALUE: DMA_ITConfig:DMA_IT <- $r1
	@DEBUG_VALUE: DMA_ITConfig:DMA_IT <- $r1
	@DEBUG_VALUE: DMA_ITConfig:NewState <- $r2
	@DEBUG_VALUE: DMA_ITConfig:NewState <- $r2
	.loc	3 1126 7 prologue_end   @ ../Libraries/STM32F4xx_StdPeriph_Driver/src/stm32f4xx_dma.c:1126:7
	lsls	r3, r1, #24
	bpl	.LBB16_2
.Ltmp132:
@ %bb.1:
	@DEBUG_VALUE: DMA_ITConfig:NewState <- $r2
	@DEBUG_VALUE: DMA_ITConfig:DMA_IT <- $r1
	@DEBUG_VALUE: DMA_ITConfig:DMAy_Streamx <- $r0
	.loc	3 0 0 is_stmt 0         @ ../Libraries/STM32F4xx_StdPeriph_Driver/src/stm32f4xx_dma.c:0:0
	ldr.w	r12, [r0, #20]
.Ltmp133:
	.loc	3 1128 9 is_stmt 1      @ ../Libraries/STM32F4xx_StdPeriph_Driver/src/stm32f4xx_dma.c:1128:9
	cmp	r2, #0
	orr	r3, r12, #128
	it	eq
	biceq	r3, r12, #128
.Ltmp134:
	.loc	3 0 0 is_stmt 0         @ ../Libraries/STM32F4xx_StdPeriph_Driver/src/stm32f4xx_dma.c:0:0
	str	r3, [r0, #20]
.Ltmp135:
.LBB16_2:
	@DEBUG_VALUE: DMA_ITConfig:NewState <- $r2
	@DEBUG_VALUE: DMA_ITConfig:DMA_IT <- $r1
	@DEBUG_VALUE: DMA_ITConfig:DMAy_Streamx <- $r0
	.loc	3 1141 7 is_stmt 1      @ ../Libraries/STM32F4xx_StdPeriph_Driver/src/stm32f4xx_dma.c:1141:7
	cmp	r1, #128
	.loc	3 1154 1                @ ../Libraries/STM32F4xx_StdPeriph_Driver/src/stm32f4xx_dma.c:1154:1
	it	eq
	bxeq	lr
.Ltmp136:
	.loc	3 0 0 is_stmt 0         @ ../Libraries/STM32F4xx_StdPeriph_Driver/src/stm32f4xx_dma.c:0:0
	and	r1, r1, #30
.Ltmp137:
	.loc	3 1143 9 is_stmt 1      @ ../Libraries/STM32F4xx_StdPeriph_Driver/src/stm32f4xx_dma.c:1143:9
	cmp	r2, #0
.Ltmp138:
	.loc	3 1151 24               @ ../Libraries/STM32F4xx_StdPeriph_Driver/src/stm32f4xx_dma.c:1151:24
	ldr	r2, [r0]
.Ltmp139:
	ite	eq
	biceq.w	r1, r2, r1
.Ltmp140:
	.loc	3 1146 24               @ ../Libraries/STM32F4xx_StdPeriph_Driver/src/stm32f4xx_dma.c:1146:24
	orrne	r1, r2
.Ltmp141:
	.loc	3 0 0 is_stmt 0         @ ../Libraries/STM32F4xx_StdPeriph_Driver/src/stm32f4xx_dma.c:0:0
	str	r1, [r0]
.Ltmp142:
	.loc	3 1154 1 is_stmt 1      @ ../Libraries/STM32F4xx_StdPeriph_Driver/src/stm32f4xx_dma.c:1154:1
	bx	lr
.Ltmp143:
.Lfunc_end16:
	.size	DMA_ITConfig, .Lfunc_end16-DMA_ITConfig
	.cfi_endproc
	.cantunwind
	.fnend
                                        @ -- End function
	.section	.text.DMA_GetITStatus,"ax",%progbits
	.hidden	DMA_GetITStatus         @ -- Begin function DMA_GetITStatus
	.globl	DMA_GetITStatus
	.p2align	2
	.type	DMA_GetITStatus,%function
	.code	16                      @ @DMA_GetITStatus
	.thumb_func
DMA_GetITStatus:
.Lfunc_begin17:
	.loc	3 1171 0                @ ../Libraries/STM32F4xx_StdPeriph_Driver/src/stm32f4xx_dma.c:1171:0
	.fnstart
	.cfi_startproc
@ %bb.0:
	.save	{r4, r5, r7, lr}
	push	{r4, r5, r7, lr}
	.cfi_def_cfa_offset 16
	.cfi_offset lr, -4
	.cfi_offset r7, -8
	.cfi_offset r5, -12
	.cfi_offset r4, -16
	@DEBUG_VALUE: DMA_GetITStatus:DMAy_Streamx <- $r0
	@DEBUG_VALUE: DMA_GetITStatus:DMA_IT <- $r1
	ldr	r2, __arm_cp.17_0
.Ltmp144:
	@DEBUG_VALUE: DMA_GetITStatus:enablestatus <- 0
	@DEBUG_VALUE: DMA_GetITStatus:tmpreg <- 0
	@DEBUG_VALUE: DMA_GetITStatus:bitstatus <- 0
	@DEBUG_VALUE: DMA_GetITStatus:DMA_IT <- $r1
	@DEBUG_VALUE: DMA_GetITStatus:DMAy_Streamx <- $r0
	ldr	r5, __arm_cp.17_1
.Ltmp145:
	.loc	3 1181 20 prologue_end  @ ../Libraries/STM32F4xx_StdPeriph_Driver/src/stm32f4xx_dma.c:1181:20
	add.w	r3, r2, #16
.Ltmp146:
	.loc	3 1181 7 is_stmt 0      @ ../Libraries/STM32F4xx_StdPeriph_Driver/src/stm32f4xx_dma.c:1181:7
	cmp	r0, r3
	it	lo
	sublo.w	r2, r2, #1024
.Ltmp147:
	@DEBUG_VALUE: DMA_GetITStatus:DMAy <- $r2
	.loc	3 1193 7 is_stmt 1      @ ../Libraries/STM32F4xx_StdPeriph_Driver/src/stm32f4xx_dma.c:1193:7
	tst	r1, r5
	beq	.LBB17_2
.Ltmp148:
@ %bb.1:
	@DEBUG_VALUE: DMA_GetITStatus:DMAy <- $r2
	@DEBUG_VALUE: DMA_GetITStatus:DMA_IT <- $r1
	@DEBUG_VALUE: DMA_GetITStatus:DMAy_Streamx <- $r0
	.loc	3 0 7 is_stmt 0         @ ../Libraries/STM32F4xx_StdPeriph_Driver/src/stm32f4xx_dma.c:0:7
	movs	r3, #30
.Ltmp149:
	.loc	3 1199 45 is_stmt 1     @ ../Libraries/STM32F4xx_StdPeriph_Driver/src/stm32f4xx_dma.c:1199:45
	ldr	r0, [r0]
.Ltmp150:
	.loc	3 1196 40               @ ../Libraries/STM32F4xx_StdPeriph_Driver/src/stm32f4xx_dma.c:1196:40
	and.w	r3, r3, r1, lsr #11
.Ltmp151:
	@DEBUG_VALUE: DMA_GetITStatus:tmpreg <- $r3
	.loc	3 0 40 is_stmt 0        @ ../Libraries/STM32F4xx_StdPeriph_Driver/src/stm32f4xx_dma.c:0:40
	b	.LBB17_3
.Ltmp152:
.LBB17_2:
	@DEBUG_VALUE: DMA_GetITStatus:DMAy <- $r2
	@DEBUG_VALUE: DMA_GetITStatus:DMA_IT <- $r1
	@DEBUG_VALUE: DMA_GetITStatus:DMAy_Streamx <- $r0
	.loc	3 1204 45 is_stmt 1     @ ../Libraries/STM32F4xx_StdPeriph_Driver/src/stm32f4xx_dma.c:1204:45
	ldr	r3, [r0, #20]
	movs	r0, #128
.Ltmp153:
.LBB17_3:
	@DEBUG_VALUE: DMA_GetITStatus:DMAy <- $r2
	@DEBUG_VALUE: DMA_GetITStatus:DMA_IT <- $r1
	.loc	3 0 0 is_stmt 0         @ ../Libraries/STM32F4xx_StdPeriph_Driver/src/stm32f4xx_dma.c:0:0
	lsls	r4, r1, #2
	it	mi
	addmi	r2, #4
.Ltmp154:
	.loc	3 1220 10 is_stmt 1     @ ../Libraries/STM32F4xx_StdPeriph_Driver/src/stm32f4xx_dma.c:1220:10
	add.w	r5, r5, #4259905
.Ltmp155:
	.loc	3 0 0 is_stmt 0         @ ../Libraries/STM32F4xx_StdPeriph_Driver/src/stm32f4xx_dma.c:0:0
	ldr	r2, [r2]
.Ltmp156:
	@DEBUG_VALUE: DMA_GetITStatus:tmpreg <- undef
	.loc	3 1220 10               @ ../Libraries/STM32F4xx_StdPeriph_Driver/src/stm32f4xx_dma.c:1220:10
	ands	r1, r5
.Ltmp157:
	.loc	3 1223 16 is_stmt 1     @ ../Libraries/STM32F4xx_StdPeriph_Driver/src/stm32f4xx_dma.c:1223:16
	ands	r1, r2
	.loc	3 1223 26 is_stmt 0     @ ../Libraries/STM32F4xx_StdPeriph_Driver/src/stm32f4xx_dma.c:1223:26
	it	ne
	movne	r1, #1
.Ltmp158:
	.loc	3 0 0                   @ ../Libraries/STM32F4xx_StdPeriph_Driver/src/stm32f4xx_dma.c:0:0
	ands	r0, r3
.Ltmp159:
	@DEBUG_VALUE: DMA_GetITStatus:enablestatus <- $r0
	.loc	3 1223 63               @ ../Libraries/STM32F4xx_StdPeriph_Driver/src/stm32f4xx_dma.c:1223:63
	it	ne
	movne	r0, #1
.Ltmp160:
	.loc	3 1223 46               @ ../Libraries/STM32F4xx_StdPeriph_Driver/src/stm32f4xx_dma.c:1223:46
	ands	r0, r1
.Ltmp161:
	@DEBUG_VALUE: DMA_GetITStatus:bitstatus <- undef
	.loc	3 1235 3 is_stmt 1      @ ../Libraries/STM32F4xx_StdPeriph_Driver/src/stm32f4xx_dma.c:1235:3
	pop	{r4, r5, r7, pc}
.Ltmp162:
	.p2align	2
@ %bb.4:
	.loc	3 0 3 is_stmt 0         @ ../Libraries/STM32F4xx_StdPeriph_Driver/src/stm32f4xx_dma.c:0:3
__arm_cp.17_0:
	.long	1073898496              @ 0x40026400
.Lcpi_end26:
	.size	__arm_cp.17_0, .Lcpi_end26-__arm_cp.17_0
__arm_cp.17_1:
	.long	255594300               @ 0xf3c0f3c
.Lcpi_end27:
	.size	__arm_cp.17_1, .Lcpi_end27-__arm_cp.17_1
.Lfunc_end17:
	.size	DMA_GetITStatus, .Lfunc_end17-DMA_GetITStatus
	.cfi_endproc
	.cantunwind
	.fnend
                                        @ -- End function
	.section	.text.DMA_ClearITPendingBit,"ax",%progbits
	.hidden	DMA_ClearITPendingBit   @ -- Begin function DMA_ClearITPendingBit
	.globl	DMA_ClearITPendingBit
	.p2align	2
	.type	DMA_ClearITPendingBit,%function
	.code	16                      @ @DMA_ClearITPendingBit
	.thumb_func
DMA_ClearITPendingBit:
.Lfunc_begin18:
	.loc	3 1253 0 is_stmt 1      @ ../Libraries/STM32F4xx_StdPeriph_Driver/src/stm32f4xx_dma.c:1253:0
	.fnstart
	.cfi_startproc
@ %bb.0:
	@DEBUG_VALUE: DMA_ClearITPendingBit:DMAy_Streamx <- $r0
	@DEBUG_VALUE: DMA_ClearITPendingBit:DMA_IT <- $r1
	ldr	r2, __arm_cp.18_0
	@DEBUG_VALUE: DMA_ClearITPendingBit:DMA_IT <- $r1
	@DEBUG_VALUE: DMA_ClearITPendingBit:DMAy_Streamx <- $r0
.Ltmp163:
	.loc	3 1261 20 prologue_end  @ ../Libraries/STM32F4xx_StdPeriph_Driver/src/stm32f4xx_dma.c:1261:20
	add.w	r3, r2, #16
.Ltmp164:
	.loc	3 1261 7 is_stmt 0      @ ../Libraries/STM32F4xx_StdPeriph_Driver/src/stm32f4xx_dma.c:1261:7
	cmp	r0, r3
	ldr	r0, __arm_cp.18_1
.Ltmp165:
	it	lo
	sublo.w	r2, r2, #1024
.Ltmp166:
	@DEBUG_VALUE: DMA_ClearITPendingBit:DMAy <- $r2
	.loc	3 0 0                   @ ../Libraries/STM32F4xx_StdPeriph_Driver/src/stm32f4xx_dma.c:0:0
	ands	r0, r1
.Ltmp167:
	.loc	3 1273 7 is_stmt 1      @ ../Libraries/STM32F4xx_StdPeriph_Driver/src/stm32f4xx_dma.c:1273:7
	lsls	r1, r1, #2
.Ltmp168:
	.loc	3 1281 17               @ ../Libraries/STM32F4xx_StdPeriph_Driver/src/stm32f4xx_dma.c:1281:17
	ite	pl
	strpl	r0, [r2, #8]
.Ltmp169:
	.loc	3 1276 17               @ ../Libraries/STM32F4xx_StdPeriph_Driver/src/stm32f4xx_dma.c:1276:17
	strmi	r0, [r2, #12]
.Ltmp170:
	.loc	3 1283 1                @ ../Libraries/STM32F4xx_StdPeriph_Driver/src/stm32f4xx_dma.c:1283:1
	bx	lr
.Ltmp171:
	.p2align	2
@ %bb.1:
	.loc	3 0 1 is_stmt 0         @ ../Libraries/STM32F4xx_StdPeriph_Driver/src/stm32f4xx_dma.c:0:1
__arm_cp.18_0:
	.long	1073898496              @ 0x40026400
.Lcpi_end28:
	.size	__arm_cp.18_0, .Lcpi_end28-__arm_cp.18_0
__arm_cp.18_1:
	.long	259854205               @ 0xf7d0f7d
.Lcpi_end29:
	.size	__arm_cp.18_1, .Lcpi_end29-__arm_cp.18_1
.Lfunc_end18:
	.size	DMA_ClearITPendingBit, .Lfunc_end18-DMA_ClearITPendingBit
	.cfi_endproc
	.cantunwind
	.fnend
                                        @ -- End function
	.file	4 "F:\\SkyDrive\\OtvoreniProjekti\\HotelSaplast\\fw\\KontrolerHotela\\HCBL020318\\Project" "../Libraries/STM32F4xx_StdPeriph_Driver/inc\\stm32f4xx_dma.h"
	.section	".note.GNU-stack","",%progbits
	.eabi_attribute	30, 4	@ Tag_ABI_optimization_goals
	.ARM_attribute	16, 1	@ Tag_AV_eba