	.text
	.syntax unified
	.eabi_attribute	67, "2.09"	@ Tag_conformance
	.cpu	cortex-m7
	.eabi_attribute	6, 13	@ Tag_CPU_arch
	.eabi_attribute	7, 77	@ Tag_CPU_arch_profile
	.eabi_attribute	8, 0	@ Tag_ARM_ISA_use
	.eabi_attribute	9, 2	@ Tag_THUMB_ISA_use
	.fpu	fpv5-sp-d16
	.eabi_attribute	27, 1	@ Tag_ABI_HardFP_use
	.eabi_attribute	36, 1	@ Tag_FP_HP_extension
	.eabi_attribute	34, 1	@ Tag_CPU_unaligned_access
	.eabi_attribute	17, 1	@ Tag_ABI_PCS_GOT_use
	.eabi_attribute	20, 2	@ Tag_ABI_FP_denormal
	.eabi_attribute	21, 0	@ Tag_ABI_FP_exceptions
	.eabi_attribute	23, 1	@ Tag_ABI_FP_number_model
	.eabi_attribute	24, 1	@ Tag_ABI_align_needed
	.eabi_attribute	25, 1	@ Tag_ABI_align_preserved
	.eabi_attribute	28, 1	@ Tag_ABI_VFP_args
	.eabi_attribute	38, 1	@ Tag_ABI_FP_16bit_format
	.eabi_attribute	18, 2	@ Tag_ABI_PCS_wchar_t
	.eabi_attribute	26, 1	@ Tag_ABI_enum_size
	.eabi_attribute	14, 0	@ Tag_ABI_PCS_R9_use
	.file	"main.c"
	.file	1 "C:\\Keil\\ARM\\ARMCLANG\\Bin\\..\\include" "stdint.h"
	.file	2 "../Src" "main.c"
	.file	3 "../Drivers/CMSIS/Device/ST/STM32F7xx/Include" "stm32f746xx.h"
	.file	4 "../Drivers/STM32F7xx_HAL_Driver/Inc" "stm32f7xx_hal_crc.h"
	.file	5 "../Drivers/STM32F7xx_HAL_Driver/Inc" "stm32f7xx_hal_def.h"
	.file	6 "../Drivers/STM32F7xx_HAL_Driver/Inc" "stm32f7xx_hal_iwdg.h"
	.file	7 "../Drivers/STM32F7xx_HAL_Driver/Inc" "stm32f7xx_hal_flash_ex.h"
	.file	8 "../Drivers/STM32F7xx_HAL_Driver/Inc" "stm32f7xx_hal_gpio.h"
	.file	9 "C:/Keil/ARM/PACK/ARM/CMSIS/5.3.0/CMSIS/Include" "core_cm7.h"
	.section	.text.main,"ax",%progbits
	.hidden	main                    @ -- Begin function main
	.globl	main
	.p2align	2
	.type	main,%function
	.code	16                      @ @main
	.thumb_func
main:
.Lfunc_begin0:
	.loc	2 75 0                  @ ../Src/main.c:75:0
	.fnstart
	.cfi_sections .debug_frame
	.cfi_startproc
@ %bb.0:
	.save	{r4, r5, r6, r7, r8, r9, r10, r11, lr}
	push.w	{r4, r5, r6, r7, r8, r9, r10, r11, lr}
	.cfi_def_cfa_offset 36
	.cfi_offset lr, -4
	.cfi_offset r11, -8
	.cfi_offset r10, -12
	.cfi_offset r9, -16
	.cfi_offset r8, -20
	.cfi_offset r7, -24
	.cfi_offset r6, -28
	.cfi_offset r5, -32
	.cfi_offset r4, -36
	.pad	#204
	sub	sp, #204
	.cfi_def_cfa_offset 240
.Ltmp0:
	.loc	2 212 2 prologue_end    @ ../Src/main.c:212:2
	bl	HAL_MPU_Disable
	movs	r0, #1
	.loc	2 226 2                 @ ../Src/main.c:226:2
	ldr	r5, __arm_cp.0_3
	add	r4, sp, #4
.Ltmp1:
	@DEBUG_VALUE: MPU_Config:MPU_InitStruct <- [DW_OP_plus_uconst 4] [$sp+0]
	.loc	2 215 34                @ ../Src/main.c:215:34
	strh.w	r0, [sp, #4]
	.loc	2 217 34                @ ../Src/main.c:217:34
	ldr	r0, __arm_cp.0_0
	str	r0, [sp, #12]
	.loc	2 225 34                @ ../Src/main.c:225:34
	ldr	r0, __arm_cp.0_1
	str	r0, [sp, #16]
	ldr	r0, __arm_cp.0_2
	mov	r10, r0
	.loc	2 216 34                @ ../Src/main.c:216:34
	add.w	r0, r0, #266338304
	str	r0, [sp, #8]
	.loc	2 226 2                 @ ../Src/main.c:226:2
	mov	r0, r4
	blx	r5
	.loc	2 233 34                @ ../Src/main.c:233:34
	mov.w	r6, #-1879048192
	.loc	2 231 34                @ ../Src/main.c:231:34
	movw	r0, #513
	.loc	2 233 34                @ ../Src/main.c:233:34
	str	r6, [sp, #8]
	.loc	2 231 34                @ ../Src/main.c:231:34
	strh.w	r0, [sp, #4]
	.loc	2 234 34                @ ../Src/main.c:234:34
	movs	r0, #27
	str	r0, [sp, #12]
	.loc	2 238 34                @ ../Src/main.c:238:34
	movw	r0, #257
	str	r0, [sp, #16]
	.loc	2 242 2                 @ ../Src/main.c:242:2
	mov	r0, r4
	blx	r5
	.loc	2 245 34                @ ../Src/main.c:245:34
	movw	r0, #769
	.loc	2 247 34                @ ../Src/main.c:247:34
	str	r6, [sp, #8]
	.loc	2 245 34                @ ../Src/main.c:245:34
	strh.w	r0, [sp, #4]
	.loc	2 248 34                @ ../Src/main.c:248:34
	ldr	r0, __arm_cp.0_4
	str	r0, [sp, #12]
	.loc	2 252 34                @ ../Src/main.c:252:34
	ldr	r0, __arm_cp.0_5
	str	r0, [sp, #16]
	.loc	2 256 2                 @ ../Src/main.c:256:2
	mov	r0, r4
	blx	r5
	.loc	2 259 2                 @ ../Src/main.c:259:2
	movs	r0, #4
	bl	HAL_MPU_Enable
	.loc	2 264 21                @ ../Src/main.c:264:21
	mov.w	r0, #-1610612736
	movw	r1, #12498
	movw	r12, #16352
	str	r1, [r0]
	ldr	r0, __arm_cp.0_6
	movs	r1, #0
.Ltmp2:
	.loc	9 2221 5                @ C:/Keil/ARM/PACK/ARM/CMSIS/5.3.0/CMSIS/Include\core_cm7.h:2221:5
	dsb	sy
	.loc	9 2222 5                @ C:/Keil/ARM/PACK/ARM/CMSIS/5.3.0/CMSIS/Include\core_cm7.h:2222:5
	isb	sy
	.loc	9 2223 18               @ C:/Keil/ARM/PACK/ARM/CMSIS/5.3.0/CMSIS/Include\core_cm7.h:2223:18
	str.w	r1, [r0, #572]
	.loc	9 2224 5                @ C:/Keil/ARM/PACK/ARM/CMSIS/5.3.0/CMSIS/Include\core_cm7.h:2224:5
	dsb	sy
	.loc	9 2225 5                @ C:/Keil/ARM/PACK/ARM/CMSIS/5.3.0/CMSIS/Include\core_cm7.h:2225:5
	isb	sy
	.loc	9 2226 14               @ C:/Keil/ARM/PACK/ARM/CMSIS/5.3.0/CMSIS/Include\core_cm7.h:2226:14
	ldr	r2, [r0]
	orr	r2, r2, #131072
	str	r2, [r0]
	ldr	r2, __arm_cp.0_7
.Ltmp3:
	@DEBUG_VALUE: SCB_EnableDCache:ways <- $r1
	.loc	9 2227 5                @ C:/Keil/ARM/PACK/ARM/CMSIS/5.3.0/CMSIS/Include\core_cm7.h:2227:5
	dsb	sy
	.loc	9 2228 5                @ C:/Keil/ARM/PACK/ARM/CMSIS/5.3.0/CMSIS/Include\core_cm7.h:2228:5
	isb	sy
.Ltmp4:
	.loc	9 2277 17               @ C:/Keil/ARM/PACK/ARM/CMSIS/5.3.0/CMSIS/Include\core_cm7.h:2277:17
	str	r1, [r0, #112]
	.loc	9 2278 5                @ C:/Keil/ARM/PACK/ARM/CMSIS/5.3.0/CMSIS/Include\core_cm7.h:2278:5
	dsb	sy
	.loc	9 2280 19               @ C:/Keil/ARM/PACK/ARM/CMSIS/5.3.0/CMSIS/Include\core_cm7.h:2280:19
	ldr	r1, [r0, #108]
.Ltmp5:
	@DEBUG_VALUE: SCB_EnableDCache:ccsidr <- $r1
	.loc	9 2284 5                @ C:/Keil/ARM/PACK/ARM/CMSIS/5.3.0/CMSIS/Include\core_cm7.h:2284:5
	orn	r5, r2, r1, lsr #3
	.loc	9 2283 23               @ C:/Keil/ARM/PACK/ARM/CMSIS/5.3.0/CMSIS/Include\core_cm7.h:2283:23
	ubfx	r2, r1, #13, #15
.Ltmp6:
	@DEBUG_VALUE: SCB_EnableDCache:sets <- $r2
	.loc	9 0 23 is_stmt 0        @ C:/Keil/ARM/PACK/ARM/CMSIS/5.3.0/CMSIS/Include\core_cm7.h:0:23
	lsrs	r1, r1, #3
.Ltmp7:
	@DEBUG_VALUE: SCB_EnableDCache:ways <- $r1
	.loc	9 2284 5 is_stmt 1      @ C:/Keil/ARM/PACK/ARM/CMSIS/5.3.0/CMSIS/Include\core_cm7.h:2284:5
	lsls	r4, r1, #30
.Ltmp8:
.LBB0_1:                                @ =>This Loop Header: Depth=1
                                        @     Child Loop BB0_2 Depth 2
	@DEBUG_VALUE: SCB_EnableDCache:sets <- $r2
	@DEBUG_VALUE: SCB_EnableDCache:ways <- $r1
	@DEBUG_VALUE: SCB_EnableDCache:sets <- $r2
	.loc	9 0 5 is_stmt 0         @ C:/Keil/ARM/PACK/ARM/CMSIS/5.3.0/CMSIS/Include\core_cm7.h:0:5
	and.w	r6, r12, r2, lsl #5
	mov	r3, r4
	mov	r1, r5
.Ltmp9:
.LBB0_2:                                @   Parent Loop BB0_1 Depth=1
                                        @ =>  This Inner Loop Header: Depth=2
	@DEBUG_VALUE: SCB_EnableDCache:sets <- $r2
	.loc	9 2287 73 is_stmt 1     @ C:/Keil/ARM/PACK/ARM/CMSIS/5.3.0/CMSIS/Include\core_cm7.h:2287:73
	orr.w	r7, r3, r6
.Ltmp10:
	.loc	9 2292 23               @ C:/Keil/ARM/PACK/ARM/CMSIS/5.3.0/CMSIS/Include\core_cm7.h:2292:23
	add.w	r3, r3, #-1073741824
	adds	r1, #1
.Ltmp11:
	.loc	9 2287 20               @ C:/Keil/ARM/PACK/ARM/CMSIS/5.3.0/CMSIS/Include\core_cm7.h:2287:20
	str.w	r7, [r0, #588]
	.loc	9 2292 7                @ C:/Keil/ARM/PACK/ARM/CMSIS/5.3.0/CMSIS/Include\core_cm7.h:2292:7
	bne	.LBB0_2
.Ltmp12:
@ %bb.3:                                @   in Loop: Header=BB0_1 Depth=1
	@DEBUG_VALUE: SCB_EnableDCache:sets <- $r2
	.loc	9 2293 17               @ C:/Keil/ARM/PACK/ARM/CMSIS/5.3.0/CMSIS/Include\core_cm7.h:2293:17
	subs	r1, r2, #1
.Ltmp13:
	@DEBUG_VALUE: SCB_EnableDCache:sets <- $r1
	.loc	9 2293 5 is_stmt 0      @ C:/Keil/ARM/PACK/ARM/CMSIS/5.3.0/CMSIS/Include\core_cm7.h:2293:5
	cmp	r2, #0
	mov	r2, r1
.Ltmp14:
	@DEBUG_VALUE: SCB_EnableDCache:sets <- $r2
	bne	.LBB0_1
.Ltmp15:
@ %bb.4:
	@DEBUG_VALUE: SCB_EnableDCache:sets <- $r2
	.loc	9 2294 5 is_stmt 1      @ C:/Keil/ARM/PACK/ARM/CMSIS/5.3.0/CMSIS/Include\core_cm7.h:2294:5
	dsb	sy
	.loc	9 2296 14               @ C:/Keil/ARM/PACK/ARM/CMSIS/5.3.0/CMSIS/Include\core_cm7.h:2296:14
	ldr	r1, [r0]
	orr	r1, r1, #65536
	str	r1, [r0]
	.loc	9 2298 5                @ C:/Keil/ARM/PACK/ARM/CMSIS/5.3.0/CMSIS/Include\core_cm7.h:2298:5
	dsb	sy
	.loc	9 2299 5                @ C:/Keil/ARM/PACK/ARM/CMSIS/5.3.0/CMSIS/Include\core_cm7.h:2299:5
	isb	sy
.Ltmp16:
	.loc	2 78 2                  @ ../Src/main.c:78:2
	bl	HAL_Init
.Ltmp17:
	.loc	2 0 2 is_stmt 0         @ ../Src/main.c:0:2
	ldr	r4, __arm_cp.0_8
	ldr	r5, __arm_cp.0_9
.Ltmp18:
	.loc	2 293 34 is_stmt 1      @ ../Src/main.c:293:34
	mov.w	r1, #4194304
.Ltmp19:
	.loc	2 283 2                 @ ../Src/main.c:283:2
	ldr	r0, [r4, #16]
	orr	r0, r0, #268435456
	str	r0, [r4, #16]
	ldr	r0, [r4, #16]
	and	r0, r0, #268435456
.Ltmp20:
	@DEBUG_VALUE: tmpreg <- $r0
	str	r0, [sp, #4]
	ldr	r0, [sp, #4]
.Ltmp21:
	@DEBUG_VALUE: tmpreg <- $r0
	.loc	2 285 2                 @ ../Src/main.c:285:2
	ldr	r0, [r5]
.Ltmp22:
	orr	r0, r0, #49152
	str	r0, [r5]
	ldr	r0, [r5]
	and	r0, r0, #49152
.Ltmp23:
	@DEBUG_VALUE: tmpreg <- $r0
	str	r0, [sp, #4]
	ldr	r0, [sp, #4]
.Ltmp24:
	@DEBUG_VALUE: tmpreg <- $r0
	.loc	9 2296 14               @ C:/Keil/ARM/PACK/ARM/CMSIS/5.3.0/CMSIS/Include\core_cm7.h:2296:14
	mov.w	r0, #65536
.Ltmp25:
	.loc	2 290 29                @ ../Src/main.c:290:29
	str	r0, [sp, #160]
	movs	r0, #1
	.loc	2 289 35                @ ../Src/main.c:289:35
	str	r0, [sp, #156]
	movs	r0, #0
	.loc	2 291 29                @ ../Src/main.c:291:29
	str	r0, [sp, #164]
	.loc	2 292 33                @ ../Src/main.c:292:33
	movs	r0, #2
	str	r0, [sp, #180]
	.loc	2 293 34                @ ../Src/main.c:293:34
	str	r1, [sp, #184]
	movs	r1, #4
	.loc	2 294 29                @ ../Src/main.c:294:29
	str	r1, [sp, #188]
	.loc	2 295 29                @ ../Src/main.c:295:29
	movs	r1, #200
	strd	r1, r0, [sp, #192]
	.loc	2 297 29                @ ../Src/main.c:297:29
	str	r0, [sp, #200]
	add	r0, sp, #156
.Ltmp26:
	@DEBUG_VALUE: SystemClock_Config:RCC_OscInitStruct <- [DW_OP_plus_uconst 156] [$sp+0]
	.loc	2 299 6                 @ ../Src/main.c:299:6
	bl	HAL_RCC_OscConfig
.Ltmp27:
	.loc	2 299 6 is_stmt 0       @ ../Src/main.c:299:6
	cbz	r0, .LBB0_6
.Ltmp28:
@ %bb.5:
	@DEBUG_VALUE: SystemClock_Config:RCC_OscInitStruct <- [DW_OP_plus_uconst 156] [$sp+0]
	.loc	2 301 3 is_stmt 1       @ ../Src/main.c:301:3
	bl	Error_Handler
.Ltmp29:
.LBB0_6:
	@DEBUG_VALUE: SystemClock_Config:RCC_OscInitStruct <- [DW_OP_plus_uconst 156] [$sp+0]
	.loc	2 306 6                 @ ../Src/main.c:306:6
	bl	HAL_PWREx_EnableOverDrive
.Ltmp30:
	.loc	2 306 6 is_stmt 0       @ ../Src/main.c:306:6
	cbz	r0, .LBB0_8
.Ltmp31:
@ %bb.7:
	@DEBUG_VALUE: SystemClock_Config:RCC_OscInitStruct <- [DW_OP_plus_uconst 156] [$sp+0]
	.loc	2 308 3 is_stmt 1       @ ../Src/main.c:308:3
	bl	Error_Handler
.Ltmp32:
.LBB0_8:
	@DEBUG_VALUE: SystemClock_Config:RCC_OscInitStruct <- [DW_OP_plus_uconst 156] [$sp+0]
	.loc	2 315 33                @ ../Src/main.c:315:33
	movs	r7, #2
	.loc	2 313 30                @ ../Src/main.c:313:30
	movs	r0, #15
	movs	r6, #0
.Ltmp33:
	.loc	2 320 6                 @ ../Src/main.c:320:6
	movs	r1, #6
.Ltmp34:
	.loc	2 315 33                @ ../Src/main.c:315:33
	str	r7, [sp, #140]
	.loc	2 313 30                @ ../Src/main.c:313:30
	str	r0, [sp, #136]
	.loc	2 317 35                @ ../Src/main.c:317:35
	mov.w	r0, #5120
	.loc	2 316 34                @ ../Src/main.c:316:34
	str	r6, [sp, #144]
	.loc	2 317 35                @ ../Src/main.c:317:35
	str	r0, [sp, #148]
	.loc	2 318 35                @ ../Src/main.c:318:35
	mov.w	r0, #4096
	str	r0, [sp, #152]
	add	r0, sp, #136
.Ltmp35:
	@DEBUG_VALUE: SystemClock_Config:RCC_ClkInitStruct <- [DW_OP_plus_uconst 136] [$sp+0]
	.loc	2 320 6                 @ ../Src/main.c:320:6
	bl	HAL_RCC_ClockConfig
.Ltmp36:
	.loc	2 320 6 is_stmt 0       @ ../Src/main.c:320:6
	cbz	r0, .LBB0_10
.Ltmp37:
@ %bb.9:
	@DEBUG_VALUE: SystemClock_Config:RCC_ClkInitStruct <- [DW_OP_plus_uconst 136] [$sp+0]
	@DEBUG_VALUE: SystemClock_Config:RCC_OscInitStruct <- [DW_OP_plus_uconst 156] [$sp+0]
	.loc	2 322 3 is_stmt 1       @ ../Src/main.c:322:3
	bl	Error_Handler
.Ltmp38:
.LBB0_10:
	@DEBUG_VALUE: SystemClock_Config:RCC_ClkInitStruct <- [DW_OP_plus_uconst 136] [$sp+0]
	@DEBUG_VALUE: SystemClock_Config:RCC_OscInitStruct <- [DW_OP_plus_uconst 156] [$sp+0]
	.loc	2 328 37                @ ../Src/main.c:328:37
	movs	r0, #57
	str	r0, [sp, #24]
	.loc	2 329 37                @ ../Src/main.c:329:37
	movs	r0, #3
	.loc	2 330 37                @ ../Src/main.c:330:37
	strd	r7, r0, [sp, #28]
	movs	r0, #1
	.loc	2 331 37                @ ../Src/main.c:331:37
	str	r6, [sp, #36]
	.loc	2 332 33                @ ../Src/main.c:332:33
	str	r0, [sp, #44]
	.loc	2 333 33                @ ../Src/main.c:333:33
	mov.w	r0, #65536
	str	r0, [sp, #48]
	.loc	2 334 40                @ ../Src/main.c:334:40
	mov.w	r0, #256
	str	r0, [sp, #52]
	.loc	2 325 43                @ ../Src/main.c:325:43
	ldr	r0, __arm_cp.0_10
	.loc	2 335 41                @ ../Src/main.c:335:41
	strd	r6, r6, [sp, #68]
	.loc	2 337 43                @ ../Src/main.c:337:43
	str	r6, [sp, #76]
	.loc	2 338 41                @ ../Src/main.c:338:41
	strd	r6, r6, [sp, #112]
	.loc	2 325 43                @ ../Src/main.c:325:43
	str	r0, [sp, #4]
	add	r0, sp, #4
.Ltmp39:
	@DEBUG_VALUE: SystemClock_Config:PeriphClkInitStruct <- [DW_OP_plus_uconst 4] [$sp+0]
	.loc	2 341 6                 @ ../Src/main.c:341:6
	bl	HAL_RCCEx_PeriphCLKConfig
.Ltmp40:
	.loc	2 341 6 is_stmt 0       @ ../Src/main.c:341:6
	cbz	r0, .LBB0_12
.Ltmp41:
@ %bb.11:
	@DEBUG_VALUE: SystemClock_Config:PeriphClkInitStruct <- [DW_OP_plus_uconst 4] [$sp+0]
	@DEBUG_VALUE: SystemClock_Config:RCC_ClkInitStruct <- [DW_OP_plus_uconst 136] [$sp+0]
	@DEBUG_VALUE: SystemClock_Config:RCC_OscInitStruct <- [DW_OP_plus_uconst 156] [$sp+0]
	.loc	2 343 3 is_stmt 1       @ ../Src/main.c:343:3
	bl	Error_Handler
.Ltmp42:
.LBB0_12:
	@DEBUG_VALUE: SystemClock_Config:PeriphClkInitStruct <- [DW_OP_plus_uconst 4] [$sp+0]
	@DEBUG_VALUE: SystemClock_Config:RCC_ClkInitStruct <- [DW_OP_plus_uconst 136] [$sp+0]
	@DEBUG_VALUE: SystemClock_Config:RCC_OscInitStruct <- [DW_OP_plus_uconst 156] [$sp+0]
	.loc	2 348 21                @ ../Src/main.c:348:21
	bl	HAL_RCC_GetHCLKFreq
	.loc	2 348 42 is_stmt 0      @ ../Src/main.c:348:42
	mov.w	r1, #1000
	udiv	r0, r0, r1
	.loc	2 348 2                 @ ../Src/main.c:348:2
	bl	HAL_SYSTICK_Config
	.loc	2 352 2 is_stmt 1       @ ../Src/main.c:352:2
	movs	r0, #4
	bl	HAL_SYSTICK_CLKSourceConfig
	.loc	2 355 2                 @ ../Src/main.c:355:2
	mov.w	r0, #-1
	movs	r1, #0
	movs	r2, #0
	mov.w	r9, #0
	bl	HAL_NVIC_SetPriority
.Ltmp43:
	.loc	2 361 19                @ ../Src/main.c:361:19
	ldr	r6, __arm_cp.0_11
	add.w	r1, r5, #114688
	mov	r0, r6
	str	r1, [r0, #32]!
.Ltmp44:
	.loc	2 362 5                 @ ../Src/main.c:362:5
	ldr	r1, [r4]
	orr	r1, r1, #4096
	str	r1, [r4]
	ldr	r1, [r4]
	and	r1, r1, #4096
.Ltmp45:
	@DEBUG_VALUE: tmpreg <- $r1
	str	r1, [sp, #4]
	ldr	r1, [sp, #4]
.Ltmp46:
	@DEBUG_VALUE: tmpreg <- $r1
	.loc	2 364 6                 @ ../Src/main.c:364:6
	bl	HAL_CRC_Init
.Ltmp47:
	.loc	2 364 6 is_stmt 0       @ ../Src/main.c:364:6
	cbz	r0, .LBB0_14
.Ltmp48:
@ %bb.13:
	.loc	2 366 3 is_stmt 1       @ ../Src/main.c:366:3
	bl	Error_Handler
.Ltmp49:
.LBB0_14:
	.loc	2 383 2                 @ ../Src/main.c:383:2
	ldr	r0, [r4]
.Ltmp50:
	.loc	2 388 2                 @ ../Src/main.c:388:2
	mov.w	r1, #256
	movs	r2, #0
	mov.w	r8, #256
.Ltmp51:
	.loc	2 383 2                 @ ../Src/main.c:383:2
	orr	r0, r0, #4
	str	r0, [r4]
	ldr	r0, [r4]
	and	r0, r0, #4
.Ltmp52:
	@DEBUG_VALUE: tmpreg <- $r0
	str	r0, [sp, #4]
	ldr	r0, [sp, #4]
.Ltmp53:
	@DEBUG_VALUE: tmpreg <- $r0
	.loc	2 384 2                 @ ../Src/main.c:384:2
	ldr	r0, [r4]
.Ltmp54:
	orr	r0, r0, #8
	str	r0, [r4]
	ldr	r0, [r4]
	and	r0, r0, #8
.Ltmp55:
	@DEBUG_VALUE: tmpreg <- $r0
	str	r0, [sp, #4]
	ldr	r0, [sp, #4]
.Ltmp56:
	@DEBUG_VALUE: tmpreg <- $r0
	.loc	2 385 2                 @ ../Src/main.c:385:2
	ldr	r0, [r4]
.Ltmp57:
	orr	r0, r0, #64
	str	r0, [r4]
	ldr	r0, [r4]
.Ltmp58:
	.loc	2 388 2                 @ ../Src/main.c:388:2
	add.w	r4, r5, #104448
.Ltmp59:
	.loc	2 385 2                 @ ../Src/main.c:385:2
	and	r0, r0, #64
.Ltmp60:
	@DEBUG_VALUE: tmpreg <- $r0
	str	r0, [sp, #4]
	ldr	r0, [sp, #4]
.Ltmp61:
	@DEBUG_VALUE: tmpreg <- $r0
	.loc	2 388 2                 @ ../Src/main.c:388:2
	mov	r0, r4
.Ltmp62:
	bl	HAL_GPIO_WritePin
	.loc	2 394 2                 @ ../Src/main.c:394:2
	ldr	r7, __arm_cp.0_12
	.loc	2 391 22                @ ../Src/main.c:391:22
	mov.w	r0, #24576
	.loc	2 392 23                @ ../Src/main.c:392:23
	str.w	r10, [sp, #8]
	mov	r11, r5
	.loc	2 391 22                @ ../Src/main.c:391:22
	str	r0, [sp, #4]
	.loc	2 394 2                 @ ../Src/main.c:394:2
	add.w	r0, r5, #108544
	add	r5, sp, #4
.Ltmp63:
	@DEBUG_VALUE: MX_GPIO_Init:GPIO_InitStruct <- [DW_OP_plus_uconst 4] [$sp+0]
	.loc	2 393 23                @ ../Src/main.c:393:23
	str.w	r9, [sp, #12]
	.loc	2 394 2                 @ ../Src/main.c:394:2
	mov	r1, r5
	blx	r7
	mov.w	r10, #1
	.loc	2 400 2                 @ ../Src/main.c:400:2
	mov	r0, r4
	mov	r1, r5
	.loc	2 396 22                @ ../Src/main.c:396:22
	strd	r8, r10, [sp, #4]
	.loc	2 398 23                @ ../Src/main.c:398:23
	strd	r9, r9, [sp, #12]
	.loc	2 400 2                 @ ../Src/main.c:400:2
	blx	r7
	.loc	2 402 22                @ ../Src/main.c:402:22
	movs	r0, #128
	.loc	2 406 2                 @ ../Src/main.c:406:2
	add.w	r8, r11, #105472
	.loc	2 403 23                @ ../Src/main.c:403:23
	str.w	r9, [sp, #8]
	.loc	2 406 2                 @ ../Src/main.c:406:2
	mov	r1, r5
	.loc	2 402 22                @ ../Src/main.c:402:22
	str	r0, [sp, #4]
	.loc	2 406 2                 @ ../Src/main.c:406:2
	mov	r0, r8
	.loc	2 404 23                @ ../Src/main.c:404:23
	strd	r10, r9, [sp, #12]
	.loc	2 406 2                 @ ../Src/main.c:406:2
	blx	r7
	.loc	2 410 2                 @ ../Src/main.c:410:2
	movs	r0, #40
	movs	r1, #1
	movs	r2, #0
	bl	HAL_NVIC_SetPriority
	.loc	2 411 2                 @ ../Src/main.c:411:2
	movs	r0, #40
	bl	HAL_NVIC_EnableIRQ
.Ltmp64:
	.loc	2 85 2                  @ ../Src/main.c:85:2
	bl	MX_QSPI_Init
	.loc	2 88 5                  @ ../Src/main.c:88:5
	bl	HAL_FLASH_Unlock
	.loc	2 97 35                 @ ../Src/main.c:97:35
	ldr	r0, __arm_cp.0_13
	.loc	2 95 17                 @ ../Src/main.c:95:17
	movs	r1, #7
	.loc	2 98 35                 @ ../Src/main.c:98:35
	movs	r2, #2
	.loc	2 93 17                 @ ../Src/main.c:93:17
	strd	r10, r1, [r6]
	.loc	2 97 35                 @ ../Src/main.c:97:35
	strd	r9, r10, [r0]
	.loc	2 100 35                @ ../Src/main.c:100:35
	strd	r1, r2, [r0, #8]
.Ltmp65:
	.loc	2 106 9                 @ ../Src/main.c:106:9
	add.w	r1, r6, #16
	bl	HAL_FLASHEx_Erase
.Ltmp66:
	.loc	2 106 9 is_stmt 0       @ ../Src/main.c:106:9
	cbz	r0, .LBB0_16
.Ltmp67:
@ %bb.15:
	.loc	2 115 9 is_stmt 1       @ ../Src/main.c:115:9
	bl	Error_Handler
.Ltmp68:
.LBB0_16:
	.loc	2 0 9 is_stmt 0         @ ../Src/main.c:0:9
	ldr	r4, __arm_cp.0_15
	ldr	r7, __arm_cp.0_14
	ldr	r5, __arm_cp.0_16
	.loc	2 124 12 is_stmt 1      @ ../Src/main.c:124:12
	mov	r1, r4
	.loc	2 121 19                @ ../Src/main.c:121:19
	strd	r4, r7, [r6, #8]
	b	.LBB0_20
.LBB0_17:                               @   in Loop: Header=BB0_20 Depth=1
.Ltmp69:
	.loc	2 126 70                @ ../Src/main.c:126:70
	ldr	r2, [r6, #12]
	.loc	2 126 13 is_stmt 0      @ ../Src/main.c:126:13
	movs	r0, #2
	movs	r3, #0
	bl	HAL_FLASH_Program
.Ltmp70:
	.loc	2 126 13                @ ../Src/main.c:126:13
	cbz	r0, .LBB0_19
@ %bb.18:                               @   in Loop: Header=BB0_20 Depth=1
.Ltmp71:
	.loc	2 135 13 is_stmt 1      @ ../Src/main.c:135:13
	bl	Error_Handler
.Ltmp72:
	.loc	2 124 12                @ ../Src/main.c:124:12
	ldr	r1, [r6, #8]
	b	.LBB0_20
.LBB0_19:                               @   in Loop: Header=BB0_20 Depth=1
.Ltmp73:
	.loc	2 128 27                @ ../Src/main.c:128:27
	ldrd	r0, r2, [r6, #8]
	adds	r1, r0, #4
	.loc	2 129 28                @ ../Src/main.c:129:28
	adds	r0, r2, #4
	.loc	2 128 27                @ ../Src/main.c:128:27
	strd	r1, r0, [r6, #8]
.Ltmp74:
.LBB0_20:                               @ =>This Inner Loop Header: Depth=1
	.loc	2 124 5                 @ ../Src/main.c:124:5
	cmp	r1, r5
	blo	.LBB0_17
@ %bb.21:
	.loc	2 141 5                 @ ../Src/main.c:141:5
	bl	HAL_FLASH_Lock
	movs	r0, #0
	.loc	2 146 19                @ ../Src/main.c:146:19
	strd	r4, r7, [r6, #8]
	adds	r1, r7, #4
	.loc	2 148 16                @ ../Src/main.c:148:16
	str	r0, [r6, #28]
	adds	r0, r4, #4
	b	.LBB0_23
.LBB0_22:                               @   in Loop: Header=BB0_23 Depth=1
.Ltmp75:
	.loc	2 152 22                @ ../Src/main.c:152:22
	ldr	r2, [r2]
	.loc	2 152 20 is_stmt 0      @ ../Src/main.c:152:20
	str	r2, [r6, #20]
	.loc	2 153 23 is_stmt 1      @ ../Src/main.c:153:23
	ldr	r2, [r7]
.Ltmp76:
	.loc	2 150 5                 @ ../Src/main.c:150:5
	mov	r7, r1
.Ltmp77:
	.loc	2 153 21                @ ../Src/main.c:153:21
	str	r2, [r6, #24]
.Ltmp78:
	.loc	2 155 13                @ ../Src/main.c:155:13
	ldr	r2, [r6, #20]
	.loc	2 155 27 is_stmt 0      @ ../Src/main.c:155:27
	ldr	r3, [r6, #24]
.Ltmp79:
	.loc	2 155 13                @ ../Src/main.c:155:13
	cmp	r2, r3
.Ltmp80:
	.loc	2 157 13 is_stmt 1      @ ../Src/main.c:157:13
	ittt	ne
	ldrne	r2, [r6, #28]
	addne	r2, #1
	strne	r2, [r6, #28]
.Ltmp81:
	.loc	2 160 23                @ ../Src/main.c:160:23
	strd	r0, r1, [r6, #8]
.Ltmp82:
	.loc	2 150 5                 @ ../Src/main.c:150:5
	adds	r0, #4
	adds	r2, r1, #4
	mov	r1, r2
.LBB0_23:                               @ =>This Inner Loop Header: Depth=1
	.loc	2 150 26 is_stmt 0      @ ../Src/main.c:150:26
	subs	r2, r0, #4
	.loc	2 150 5                 @ ../Src/main.c:150:5
	cmp	r2, r5
	blo	.LBB0_22
@ %bb.24:
.Ltmp83:
	.loc	2 165 9 is_stmt 1       @ ../Src/main.c:165:9
	ldr	r0, [r6, #28]
.Ltmp84:
	.loc	2 165 9 is_stmt 0       @ ../Src/main.c:165:9
	cbz	r0, .LBB0_26
@ %bb.25:
.Ltmp85:
	.loc	2 175 9 is_stmt 1       @ ../Src/main.c:175:9
	bl	Error_Handler
	b	.LBB0_27
.Ltmp86:
.LBB0_26:
	.loc	2 168 9                 @ ../Src/main.c:168:9
	mov	r0, r8
	movs	r1, #16
	movs	r2, #1
	bl	HAL_GPIO_WritePin
	.loc	2 169 9                 @ ../Src/main.c:169:9
	movs	r0, #100
	bl	HAL_Delay
	.loc	2 170 9                 @ ../Src/main.c:170:9
	mov	r0, r8
	movs	r1, #16
	movs	r2, #0
	bl	HAL_GPIO_WritePin
.Ltmp87:
.LBB0_27:                               @ =>This Inner Loop Header: Depth=1
	.loc	2 179 2                 @ ../Src/main.c:179:2
	b	.LBB0_27
.Ltmp88:
	.p2align	2
@ %bb.28:
	.loc	2 0 2 is_stmt 0         @ ../Src/main.c:0:2
__arm_cp.0_0:
	.long	50331665                @ 0x3000011
.Lcpi_end0:
	.size	__arm_cp.0_0, .Lcpi_end0-__arm_cp.0_0
__arm_cp.0_1:
	.long	65792                   @ 0x10100
.Lcpi_end1:
	.size	__arm_cp.0_1, .Lcpi_end1-__arm_cp.0_1
__arm_cp.0_2:
	.long	270598144               @ 0x10210000
.Lcpi_end2:
	.size	__arm_cp.0_2, .Lcpi_end2-__arm_cp.0_2
__arm_cp.0_3:
	.long	HAL_MPU_ConfigRegion
.Lcpi_end3:
	.size	__arm_cp.0_3, .Lcpi_end3-__arm_cp.0_3
__arm_cp.0_4:
	.long	50331671                @ 0x3000017
.Lcpi_end4:
	.size	__arm_cp.0_4, .Lcpi_end4-__arm_cp.0_4
__arm_cp.0_5:
	.long	65793                   @ 0x10101
.Lcpi_end5:
	.size	__arm_cp.0_5, .Lcpi_end5-__arm_cp.0_5
__arm_cp.0_6:
	.long	3758157076              @ 0xe000ed14
.Lcpi_end6:
	.size	__arm_cp.0_6, .Lcpi_end6-__arm_cp.0_6
__arm_cp.0_7:
	.long	4294966272              @ 0xfffffc00
.Lcpi_end7:
	.size	__arm_cp.0_7, .Lcpi_end7-__arm_cp.0_7
__arm_cp.0_8:
	.long	1073887280              @ 0x40023830
.Lcpi_end8:
	.size	__arm_cp.0_8, .Lcpi_end8-__arm_cp.0_8
__arm_cp.0_9:
	.long	1073770496              @ 0x40007000
.Lcpi_end9:
	.size	__arm_cp.0_9, .Lcpi_end9-__arm_cp.0_9
__arm_cp.0_10:
	.long	1245192                 @ 0x130008
.Lcpi_end10:
	.size	__arm_cp.0_10, .Lcpi_end10-__arm_cp.0_10
__arm_cp.0_11:
	.long	.L_MergedGlobals
.Lcpi_end11:
	.size	__arm_cp.0_11, .Lcpi_end11-__arm_cp.0_11
__arm_cp.0_12:
	.long	HAL_GPIO_Init
.Lcpi_end12:
	.size	__arm_cp.0_12, .Lcpi_end12-__arm_cp.0_12
__arm_cp.0_13:
	.long	EraseInitStruct
.Lcpi_end13:
	.size	__arm_cp.0_13, .Lcpi_end13-__arm_cp.0_13
__arm_cp.0_14:
	.long	2431647744              @ 0x90f00000
.Lcpi_end14:
	.size	__arm_cp.0_14, .Lcpi_end14-__arm_cp.0_14
__arm_cp.0_15:
	.long	134250496               @ 0x8008000
.Lcpi_end15:
	.size	__arm_cp.0_15, .Lcpi_end15-__arm_cp.0_15
__arm_cp.0_16:
	.long	135266303               @ 0x80fffff
.Lcpi_end16:
	.size	__arm_cp.0_16, .Lcpi_end16-__arm_cp.0_16
.Lfunc_end0:
	.size	main, .Lfunc_end0-main
	.cfi_endproc
	.file	10 "../Drivers/STM32F7xx_HAL_Driver/Inc" "stm32f7xx_hal_cortex.h"
	.file	11 "../Drivers/STM32F7xx_HAL_Driver/Inc" "stm32f7xx_hal_rcc.h"
	.file	12 "../Drivers/STM32F7xx_HAL_Driver/Inc" "stm32f7xx_hal_rcc_ex.h"
	.cantunwind
	.fnend
                                        @ -- End function
	.section	.text.Error_Handler,"ax",%progbits
	.hidden	Error_Handler           @ -- Begin function Error_Handler
	.globl	Error_Handler
	.p2align	2
	.type	Error_Handler,%function
	.code	16                      @ @Error_Handler
	.thumb_func
Error_Handler:
.Lfunc_begin1:
	.loc	2 191 0 is_stmt 1       @ ../Src/main.c:191:0
	.fnstart
	.cfi_startproc
@ %bb.0:
	.save	{r4, r5, r7, lr}
	push	{r4, r5, r7, lr}
	.cfi_def_cfa_offset 16
	.cfi_offset lr, -4
	.cfi_offset r7, -8
	.cfi_offset r5, -12
	.cfi_offset r4, -16
	ldr	r0, __arm_cp.1_0
.Ltmp89:
	.loc	2 373 5 prologue_end    @ ../Src/main.c:373:5
	ldr	r1, [r0]
	bic	r1, r1, #4096
	str	r1, [r0]
	.loc	2 374 2                 @ ../Src/main.c:374:2
	ldr	r0, __arm_cp.1_1
	adds	r0, #32
	bl	HAL_CRC_DeInit
	ldr	r4, __arm_cp.1_2
.Ltmp90:
	.loc	2 417 2                 @ ../Src/main.c:417:2
	ldr	r5, __arm_cp.1_3
	mov.w	r1, #256
	mov	r0, r4
	blx	r5
	.loc	2 418 2                 @ ../Src/main.c:418:2
	add.w	r0, r4, #1024
	movs	r1, #128
	blx	r5
	.loc	2 419 5                 @ ../Src/main.c:419:5
	add.w	r0, r4, #4096
	mov.w	r1, #24576
	blx	r5
	.loc	2 420 2                 @ ../Src/main.c:420:2
	movs	r0, #40
	bl	HAL_NVIC_DisableIRQ
.Ltmp91:
	.loc	2 428 5                 @ ../Src/main.c:428:5
	bl	HAL_DeInit
	.loc	2 429 5                 @ ../Src/main.c:429:5
	pop.w	{r4, r5, r7, lr}
	b	HAL_FLASH_OB_Launch
.Ltmp92:
	.p2align	2
@ %bb.1:
	.loc	2 0 5 is_stmt 0         @ ../Src/main.c:0:5
__arm_cp.1_0:
	.long	1073887280              @ 0x40023830
.Lcpi_end17:
	.size	__arm_cp.1_0, .Lcpi_end17-__arm_cp.1_0
__arm_cp.1_1:
	.long	.L_MergedGlobals
.Lcpi_end18:
	.size	__arm_cp.1_1, .Lcpi_end18-__arm_cp.1_1
__arm_cp.1_2:
	.long	1073874944              @ 0x40020800
.Lcpi_end19:
	.size	__arm_cp.1_2, .Lcpi_end19-__arm_cp.1_2
__arm_cp.1_3:
	.long	HAL_GPIO_DeInit
.Lcpi_end20:
	.size	__arm_cp.1_3, .Lcpi_end20-__arm_cp.1_3
.Lfunc_end1:
	.size	Error_Handler, .Lfunc_end1-Error_Handler
	.cfi_endproc
	.cantunwind
	.fnend
                                        @ -- End function
	.type	EraseInitStruct,%object @ @EraseInitStruct
	.section	.bss.EraseInitStruct,"aw",%nobits
	.p2align	2
EraseInitStruct:
	.zero	16
	.size	EraseInitStruct, 16

	.hidden	hiwdg                   @ @hiwdg
	.type	hiwdg,%object
	.section	.bss.hiwdg,"aw",%nobits
	.globl	hiwdg
	.p2align	2
hiwdg:
	.zero	16
	.size	hiwdg, 16

	.hidden	Jump_To_Application     @ @Jump_To_Application
	.type	Jump_To_Application,%object
	.section	.bss.Jump_To_Application,"aw",%nobits
	.globl	Jump_To_Application
	.p2align	2
Jump_To_Application:
	.long	0
	.size	Jump_To_Application, 4

	.hidden	JumpAddress             @ @JumpAddress
	.type	JumpAddress,%object
	.section	.bss.JumpAddress,"aw",%nobits
	.globl	JumpAddress
	.p2align	2
JumpAddress:
	.long	0                       @ 0x0
	.size	JumpAddress, 4

	.type	__ARM_use_no_argv,%object @ @__ARM_use_no_argv
	.section	.ARM.use_no_argv,"aw",%progbits
	.globl	__ARM_use_no_argv
	.p2align	2
__ARM_use_no_argv:
	.long	1                       @ 0x1
	.size	__ARM_use_no_argv, 4

	.globl	__ARM_use_no_argv
	.type	.L_MergedGlobals,%object @ @_MergedGlobals
	.section	.bss..L_MergedGlobals,"aw",%nobits
	.p2align	4
.L_MergedGlobals:
	.zero	68
	.size	.L_MergedGlobals, 68

	.section	".note.GNU-stack","",%progbits
	.eabi_attribute	30, 4	@ Tag_ABI_optimization_goals
	.ARM_attribute	16, 1	@ Tag_AV_eba