	.text
	.syntax unified
	.eabi_attribute	67, "2.09"	@ Tag_conformance
	.cpu	cortex-m7
	.eabi_attribute	6, 13	@ Tag_CPU_arch
	.eabi_attribute	7, 77	@ Tag_CPU_arch_profile
	.eabi_attribute	8, 0	@ Tag_ARM_ISA_use
	.eabi_attribute	9, 2	@ Tag_THUMB_ISA_use
	.fpu	fpv5-sp-d16
	.eabi_attribute	27, 1	@ Tag_ABI_HardFP_use
	.eabi_attribute	36, 1	@ Tag_FP_HP_extension
	.eabi_attribute	34, 1	@ Tag_CPU_unaligned_access
	.eabi_attribute	17, 1	@ Tag_ABI_PCS_GOT_use
	.eabi_attribute	20, 2	@ Tag_ABI_FP_denormal
	.eabi_attribute	21, 0	@ Tag_ABI_FP_exceptions
	.eabi_attribute	23, 1	@ Tag_ABI_FP_number_model
	.eabi_attribute	24, 1	@ Tag_ABI_align_needed
	.eabi_attribute	25, 1	@ Tag_ABI_align_preserved
	.eabi_attribute	28, 1	@ Tag_ABI_VFP_args
	.eabi_attribute	38, 1	@ Tag_ABI_FP_16bit_format
	.eabi_attribute	18, 2	@ Tag_ABI_PCS_wchar_t
	.eabi_attribute	26, 1	@ Tag_ABI_enum_size
	.eabi_attribute	14, 0	@ Tag_ABI_PCS_R9_use
	.file	"stm32746g_qspi.c"
	.file	1 "C:\\Keil\\ARM\\ARMCLANG\\Bin\\..\\include" "stdint.h"
	.file	2 "../Drivers/CMSIS/Device/ST/STM32F7xx/Include" "stm32f746xx.h"
	.file	3 "../Drivers/STM32F7xx_HAL_Driver/Inc" "stm32f7xx_hal_dma.h"
	.file	4 "../Drivers/STM32F7xx_HAL_Driver/Inc" "stm32f7xx_hal_def.h"
	.file	5 "../Drivers/BSP/STM32F746" "stm32746g_qspi.c"
	.file	6 "../Drivers/STM32F7xx_HAL_Driver/Inc" "stm32f7xx_hal_qspi.h"
	.section	.text.MX_QSPI_Init,"ax",%progbits
	.hidden	MX_QSPI_Init            @ -- Begin function MX_QSPI_Init
	.globl	MX_QSPI_Init
	.p2align	2
	.type	MX_QSPI_Init,%function
	.code	16                      @ @MX_QSPI_Init
	.thumb_func
MX_QSPI_Init:
.Lfunc_begin0:
	.loc	5 128 0                 @ ../Drivers/BSP/STM32F746/stm32746g_qspi.c:128:0
	.fnstart
	.cfi_sections .debug_frame
	.cfi_startproc
@ %bb.0:
	.save	{r4, r5, r6, r7, lr}
	push	{r4, r5, r6, r7, lr}
	.cfi_def_cfa_offset 20
	.cfi_offset lr, -4
	.cfi_offset r7, -8
	.cfi_offset r6, -12
	.cfi_offset r5, -16
	.cfi_offset r4, -20
	.pad	#60
	sub	sp, #60
	.cfi_def_cfa_offset 80
.Ltmp0:
	.loc	5 130 5 prologue_end    @ ../Drivers/BSP/STM32F746/stm32746g_qspi.c:130:5
	ldr	r4, __arm_cp.0_0
	movs	r1, #72
	adds	r0, r4, #4
	bl	__aeabi_memclr4
	.loc	5 131 5                 @ ../Drivers/BSP/STM32F746/stm32746g_qspi.c:131:5
	ldr	r6, __arm_cp.0_1
	movs	r1, #56
	add.w	r0, r6, #28
	bl	__aeabi_memclr4
	.loc	5 132 5                 @ ../Drivers/BSP/STM32F746/stm32746g_qspi.c:132:5
	adds	r0, r6, #4
	movs	r1, #24
	bl	__aeabi_memclr4
	.loc	5 135 25                @ ../Drivers/BSP/STM32F746/stm32746g_qspi.c:135:25
	ldr	r0, __arm_cp.0_2
	str	r0, [r4]
	.loc	5 136 5                 @ ../Drivers/BSP/STM32F746/stm32746g_qspi.c:136:5
	bl	HAL_QSPI_DeInit
	.loc	5 138 41                @ ../Drivers/BSP/STM32F746/stm32746g_qspi.c:138:41
	movs	r0, #2
	movs	r1, #4
	movs	r2, #16
	.loc	5 141 41                @ ../Drivers/BSP/STM32F746/stm32746g_qspi.c:141:41
	movs	r3, #23
	.loc	5 142 41                @ ../Drivers/BSP/STM32F746/stm32746g_qspi.c:142:41
	mov.w	r7, #256
	.loc	5 138 41                @ ../Drivers/BSP/STM32F746/stm32746g_qspi.c:138:41
	add.w	r12, r4, #4
	movs	r5, #0
	stm.w	r12!, {r0, r1, r2, r3, r7}
.Ltmp1:
	.loc	5 147 9                 @ ../Drivers/BSP/STM32F746/stm32746g_qspi.c:147:9
	mov	r0, r4
.Ltmp2:
	.loc	5 143 41                @ ../Drivers/BSP/STM32F746/stm32746g_qspi.c:143:41
	strd	r5, r5, [r4, #24]
	.loc	5 144 41                @ ../Drivers/BSP/STM32F746/stm32746g_qspi.c:144:41
	str	r5, [r4, #32]
.Ltmp3:
	.loc	5 147 9                 @ ../Drivers/BSP/STM32F746/stm32746g_qspi.c:147:9
	bl	HAL_QSPI_Init
.Ltmp4:
	.loc	5 147 9 is_stmt 0       @ ../Drivers/BSP/STM32F746/stm32746g_qspi.c:147:9
	cbnz	r0, .LBB0_9
@ %bb.1:
.Ltmp5:
	.loc	5 687 33 is_stmt 1      @ ../Drivers/BSP/STM32F746/stm32746g_qspi.c:687:33
	movs	r0, #102
	add	r1, sp, #4
.Ltmp6:
	@DEBUG_VALUE: QSPI_ResetMemory:s_command <- [DW_OP_plus_uconst 4] [$sp+0]
	.loc	5 697 9                 @ ../Drivers/BSP/STM32F746/stm32746g_qspi.c:697:9
	movw	r2, #5000
.Ltmp7:
	.loc	5 687 33                @ ../Drivers/BSP/STM32F746/stm32746g_qspi.c:687:33
	str	r0, [sp, #4]
.Ltmp8:
	.loc	5 697 9                 @ ../Drivers/BSP/STM32F746/stm32746g_qspi.c:697:9
	ldr	r0, __arm_cp.0_0
.Ltmp9:
	.loc	5 688 33                @ ../Drivers/BSP/STM32F746/stm32746g_qspi.c:688:33
	strd	r5, r5, [sp, #32]
	.loc	5 690 33                @ ../Drivers/BSP/STM32F746/stm32746g_qspi.c:690:33
	str	r5, [sp, #40]
	.loc	5 691 33                @ ../Drivers/BSP/STM32F746/stm32746g_qspi.c:691:33
	strd	r5, r7, [sp, #24]
	.loc	5 692 33                @ ../Drivers/BSP/STM32F746/stm32746g_qspi.c:692:33
	strd	r5, r5, [sp, #48]
	.loc	5 694 33                @ ../Drivers/BSP/STM32F746/stm32746g_qspi.c:694:33
	str	r5, [sp, #56]
.Ltmp10:
	.loc	5 697 9                 @ ../Drivers/BSP/STM32F746/stm32746g_qspi.c:697:9
	bl	HAL_QSPI_Command
.Ltmp11:
	.loc	5 697 9 is_stmt 0       @ ../Drivers/BSP/STM32F746/stm32746g_qspi.c:697:9
	cbnz	r0, .LBB0_4
.Ltmp12:
@ %bb.2:
	@DEBUG_VALUE: QSPI_ResetMemory:s_command <- [DW_OP_plus_uconst 4] [$sp+0]
	.loc	5 703 27 is_stmt 1      @ ../Drivers/BSP/STM32F746/stm32746g_qspi.c:703:27
	movs	r0, #153
	add	r1, sp, #4
	@DEBUG_VALUE: QSPI_ResetMemory:s_command <- [DW_OP_plus_uconst 4] [$sp+0]
.Ltmp13:
	.loc	5 704 9                 @ ../Drivers/BSP/STM32F746/stm32746g_qspi.c:704:9
	movw	r2, #5000
.Ltmp14:
	.loc	5 703 27                @ ../Drivers/BSP/STM32F746/stm32746g_qspi.c:703:27
	str	r0, [sp, #4]
.Ltmp15:
	.loc	5 704 9                 @ ../Drivers/BSP/STM32F746/stm32746g_qspi.c:704:9
	ldr	r0, __arm_cp.0_0
	bl	HAL_QSPI_Command
.Ltmp16:
	.loc	5 704 9 is_stmt 0       @ ../Drivers/BSP/STM32F746/stm32746g_qspi.c:704:9
	cbnz	r0, .LBB0_4
.Ltmp17:
@ %bb.3:
	@DEBUG_VALUE: QSPI_ResetMemory:s_command <- [DW_OP_plus_uconst 4] [$sp+0]
	.loc	5 710 9 is_stmt 1       @ ../Drivers/BSP/STM32F746/stm32746g_qspi.c:710:9
	movw	r0, #5000
	bl	QSPI_AutoPollingMemReady
.Ltmp18:
.LBB0_4:
	.loc	5 171 8                 @ ../Drivers/BSP/STM32F746/stm32746g_qspi.c:171:8
	movw	r0, #5000
	bl	QSPI_AutoPollingMemReady
.Ltmp19:
	.loc	5 171 8 is_stmt 0       @ ../Drivers/BSP/STM32F746/stm32746g_qspi.c:171:8
	cmp	r0, #1
	bne	.LBB0_8
@ %bb.5:
.Ltmp20:
	.loc	5 176 9 is_stmt 1       @ ../Drivers/BSP/STM32F746/stm32746g_qspi.c:176:9
	ldrb	r0, [r6]
.Ltmp21:
	.loc	5 176 8 is_stmt 0       @ ../Drivers/BSP/STM32F746/stm32746g_qspi.c:176:8
	cbnz	r0, .LBB0_7
@ %bb.6:
.Ltmp22:
	.loc	5 178 12 is_stmt 1      @ ../Drivers/BSP/STM32F746/stm32746g_qspi.c:178:12
	bl	BSP_QSPI_EnableMemoryMappedMode
.Ltmp23:
	.loc	5 178 12 is_stmt 0      @ ../Drivers/BSP/STM32F746/stm32746g_qspi.c:178:12
	cmp	r0, #1
	bne	.LBB0_8
.Ltmp24:
.LBB0_7:
	.loc	5 0 12                  @ ../Drivers/BSP/STM32F746/stm32746g_qspi.c:0:12
	movs	r5, #1
	b	.LBB0_9
.LBB0_8:
	movs	r5, #0
.LBB0_9:
	.loc	5 182 1 is_stmt 1       @ ../Drivers/BSP/STM32F746/stm32746g_qspi.c:182:1
	mov	r0, r5
	add	sp, #60
	pop	{r4, r5, r6, r7, pc}
.Ltmp25:
	.p2align	2
@ %bb.10:
	.loc	5 0 1 is_stmt 0         @ ../Drivers/BSP/STM32F746/stm32746g_qspi.c:0:1
__arm_cp.0_0:
	.long	.L_MergedGlobals.1
.Lcpi_end0:
	.size	__arm_cp.0_0, .Lcpi_end0-__arm_cp.0_0
__arm_cp.0_1:
	.long	.L_MergedGlobals
.Lcpi_end1:
	.size	__arm_cp.0_1, .Lcpi_end1-__arm_cp.0_1
__arm_cp.0_2:
	.long	2684358656              @ 0xa0001000
.Lcpi_end2:
	.size	__arm_cp.0_2, .Lcpi_end2-__arm_cp.0_2
.Lfunc_end0:
	.size	MX_QSPI_Init, .Lfunc_end0-MX_QSPI_Init
	.cfi_endproc
	.cantunwind
	.fnend
                                        @ -- End function
	.section	.text.HAL_QSPI_DeInit,"ax",%progbits
	.hidden	HAL_QSPI_DeInit         @ -- Begin function HAL_QSPI_DeInit
	.globl	HAL_QSPI_DeInit
	.p2align	2
	.type	HAL_QSPI_DeInit,%function
	.code	16                      @ @HAL_QSPI_DeInit
	.thumb_func
HAL_QSPI_DeInit:
.Lfunc_begin1:
	.loc	5 523 0 is_stmt 1       @ ../Drivers/BSP/STM32F746/stm32746g_qspi.c:523:0
	.fnstart
	.cfi_startproc
@ %bb.0:
	.save	{r4, lr}
	push	{r4, lr}
	.cfi_def_cfa_offset 8
	.cfi_offset lr, -4
	.cfi_offset r4, -8
	@DEBUG_VALUE: HAL_QSPI_DeInit:hqspi <- $r0
.Ltmp26:
	.loc	5 525 17 prologue_end   @ ../Drivers/BSP/STM32F746/stm32746g_qspi.c:525:17
	ldr	r4, __arm_cp.1_0
	ldr	r0, [r4]
.Ltmp27:
	.loc	5 525 6 is_stmt 0       @ ../Drivers/BSP/STM32F746/stm32746g_qspi.c:525:6
	cbz	r0, .LBB1_3
@ %bb.1:
.Ltmp28:
	.loc	5 531 3 is_stmt 1       @ ../Drivers/BSP/STM32F746/stm32746g_qspi.c:531:3
	ldrb.w	r1, [r4, #64]
.Ltmp29:
	.loc	5 531 3 is_stmt 0       @ ../Drivers/BSP/STM32F746/stm32746g_qspi.c:531:3
	cmp	r1, #1
	bne	.LBB1_4
@ %bb.2:
	.loc	5 0 3                   @ ../Drivers/BSP/STM32F746/stm32746g_qspi.c:0:3
	movs	r0, #2
	b	.LBB1_5
.LBB1_3:
	movs	r0, #1
	b	.LBB1_5
.LBB1_4:
.Ltmp30:
	.loc	5 531 3                 @ ../Drivers/BSP/STM32F746/stm32746g_qspi.c:531:3
	movs	r1, #1
	strb.w	r1, [r4, #64]
.Ltmp31:
	.loc	5 534 3 is_stmt 1       @ ../Drivers/BSP/STM32F746/stm32746g_qspi.c:534:3
	ldr	r1, [r0]
	bic	r1, r1, #1
	str	r1, [r0]
	.loc	5 537 3                 @ ../Drivers/BSP/STM32F746/stm32746g_qspi.c:537:3
	bl	HAL_QSPI_MspDeInit
	movs	r0, #0
	.loc	5 540 24                @ ../Drivers/BSP/STM32F746/stm32746g_qspi.c:540:24
	str	r0, [r4, #68]
	.loc	5 543 20                @ ../Drivers/BSP/STM32F746/stm32746g_qspi.c:543:20
	strb.w	r0, [r4, #65]
.Ltmp32:
	.loc	5 546 3                 @ ../Drivers/BSP/STM32F746/stm32746g_qspi.c:546:3
	strb.w	r0, [r4, #64]
.Ltmp33:
.LBB1_5:
	.loc	5 549 1                 @ ../Drivers/BSP/STM32F746/stm32746g_qspi.c:549:1
	uxtb	r0, r0
	pop	{r4, pc}
.Ltmp34:
	.p2align	2
@ %bb.6:
	.loc	5 0 1 is_stmt 0         @ ../Drivers/BSP/STM32F746/stm32746g_qspi.c:0:1
__arm_cp.1_0:
	.long	.L_MergedGlobals.1
.Lcpi_end3:
	.size	__arm_cp.1_0, .Lcpi_end3-__arm_cp.1_0
.Lfunc_end1:
	.size	HAL_QSPI_DeInit, .Lfunc_end1-HAL_QSPI_DeInit
	.cfi_endproc
	.cantunwind
	.fnend
                                        @ -- End function
	.section	.text.QSPI_AutoPollingMemReady,"ax",%progbits
	.p2align	2               @ -- Begin function QSPI_AutoPollingMemReady
	.type	QSPI_AutoPollingMemReady,%function
	.code	16                      @ @QSPI_AutoPollingMemReady
	.thumb_func
QSPI_AutoPollingMemReady:
.Lfunc_begin2:
	.loc	5 822 0 is_stmt 1       @ ../Drivers/BSP/STM32F746/stm32746g_qspi.c:822:0
	.fnstart
	.cfi_startproc
@ %bb.0:
	.save	{r7, lr}
	push	{r7, lr}
	.cfi_def_cfa_offset 8
	.cfi_offset lr, -4
	.cfi_offset r7, -8
	@DEBUG_VALUE: QSPI_AutoPollingMemReady:Timeout <- $r0
.Ltmp35:
	.loc	5 824 32 prologue_end   @ ../Drivers/BSP/STM32F746/stm32746g_qspi.c:824:32
	ldr	r2, __arm_cp.2_0
	mov	r3, r0
.Ltmp36:
	@DEBUG_VALUE: QSPI_AutoPollingMemReady:Timeout <- $r3
	.loc	5 0 32 is_stmt 0        @ ../Drivers/BSP/STM32F746/stm32746g_qspi.c:0:32
	movs	r0, #0
	.loc	5 824 32                @ ../Drivers/BSP/STM32F746/stm32746g_qspi.c:824:32
	mov.w	r1, #256
	.loc	5 828 32 is_stmt 1      @ ../Drivers/BSP/STM32F746/stm32746g_qspi.c:828:32
	mov.w	r12, #16777216
	.loc	5 839 32                @ ../Drivers/BSP/STM32F746/stm32746g_qspi.c:839:32
	mov.w	lr, #4194304
	.loc	5 834 32                @ ../Drivers/BSP/STM32F746/stm32746g_qspi.c:834:32
	str	r0, [r2, #4]!
	.loc	5 829 32                @ ../Drivers/BSP/STM32F746/stm32746g_qspi.c:829:32
	strd	r0, r1, [r2, #44]
	.loc	5 826 32                @ ../Drivers/BSP/STM32F746/stm32746g_qspi.c:826:32
	strd	r0, r0, [r2, #52]
	.loc	5 828 32                @ ../Drivers/BSP/STM32F746/stm32746g_qspi.c:828:32
	str.w	r12, [r2, #60]
	movs	r1, #1
	mov.w	r12, #16
	.loc	5 830 32                @ ../Drivers/BSP/STM32F746/stm32746g_qspi.c:830:32
	strd	r0, r0, [r2, #68]
	.loc	5 832 32                @ ../Drivers/BSP/STM32F746/stm32746g_qspi.c:832:32
	str	r0, [r2, #76]
	.loc	5 835 32                @ ../Drivers/BSP/STM32F746/stm32746g_qspi.c:835:32
	strd	r1, r12, [r2, #4]
	.loc	5 837 32                @ ../Drivers/BSP/STM32F746/stm32746g_qspi.c:837:32
	strd	r1, r0, [r2, #12]
	movs	r0, #5
	.loc	5 825 32                @ ../Drivers/BSP/STM32F746/stm32746g_qspi.c:825:32
	mov	r1, r2
	.loc	5 839 32                @ ../Drivers/BSP/STM32F746/stm32746g_qspi.c:839:32
	str.w	lr, [r2, #20]
	.loc	5 825 32                @ ../Drivers/BSP/STM32F746/stm32746g_qspi.c:825:32
	str	r0, [r1, #24]!
.Ltmp37:
	.loc	5 841 9                 @ ../Drivers/BSP/STM32F746/stm32746g_qspi.c:841:9
	ldr	r0, __arm_cp.2_1
	@DEBUG_VALUE: QSPI_AutoPollingMemReady:Timeout <- $r3
	bl	HAL_QSPI_AutoPolling
.Ltmp38:
	.loc	5 841 73 is_stmt 0      @ ../Drivers/BSP/STM32F746/stm32746g_qspi.c:841:73
	clz	r0, r0
	lsrs	r0, r0, #5
.Ltmp39:
	.loc	5 847 1 is_stmt 1       @ ../Drivers/BSP/STM32F746/stm32746g_qspi.c:847:1
	pop	{r7, pc}
.Ltmp40:
	.p2align	2
@ %bb.1:
	.loc	5 0 1 is_stmt 0         @ ../Drivers/BSP/STM32F746/stm32746g_qspi.c:0:1
__arm_cp.2_0:
	.long	.L_MergedGlobals
.Lcpi_end4:
	.size	__arm_cp.2_0, .Lcpi_end4-__arm_cp.2_0
__arm_cp.2_1:
	.long	.L_MergedGlobals.1
.Lcpi_end5:
	.size	__arm_cp.2_1, .Lcpi_end5-__arm_cp.2_1
.Lfunc_end2:
	.size	QSPI_AutoPollingMemReady, .Lfunc_end2-QSPI_AutoPollingMemReady
	.cfi_endproc
	.cantunwind
	.fnend
                                        @ -- End function
	.section	.text.BSP_QSPI_EnableMemoryMappedMode,"ax",%progbits
	.hidden	BSP_QSPI_EnableMemoryMappedMode @ -- Begin function BSP_QSPI_EnableMemoryMappedMode
	.globl	BSP_QSPI_EnableMemoryMappedMode
	.p2align	2
	.type	BSP_QSPI_EnableMemoryMappedMode,%function
	.code	16                      @ @BSP_QSPI_EnableMemoryMappedMode
	.thumb_func
BSP_QSPI_EnableMemoryMappedMode:
.Lfunc_begin3:
	.loc	5 465 0 is_stmt 1       @ ../Drivers/BSP/STM32F746/stm32746g_qspi.c:465:0
	.fnstart
	.cfi_startproc
@ %bb.0:
	.save	{r4, r5, r7, lr}
	.pad	#16
	push	{r0, r1, r2, r3, r4, r5, r7, lr}
	.cfi_def_cfa_offset 32
	.cfi_offset lr, -4
	.cfi_offset r7, -8
	.cfi_offset r5, -12
	.cfi_offset r4, -16
.Ltmp41:
	@DEBUG_VALUE: BSP_QSPI_EnableMemoryMappedMode:MemoryMappedMode <- 0
	.loc	5 728 32 prologue_end   @ ../Drivers/BSP/STM32F746/stm32746g_qspi.c:728:32
	ldr	r5, __arm_cp.3_0
	.loc	5 729 32                @ ../Drivers/BSP/STM32F746/stm32746g_qspi.c:729:32
	movs	r0, #133
	movs	r2, #0
	.loc	5 732 32                @ ../Drivers/BSP/STM32F746/stm32746g_qspi.c:732:32
	mov.w	r3, #16777216
	movs	r4, #1
	.loc	5 729 32                @ ../Drivers/BSP/STM32F746/stm32746g_qspi.c:729:32
	mov	r1, r5
	str	r0, [r1, #28]!
	.loc	5 728 32                @ ../Drivers/BSP/STM32F746/stm32746g_qspi.c:728:32
	mov.w	r0, #256
	.loc	5 736 32                @ ../Drivers/BSP/STM32F746/stm32746g_qspi.c:736:32
	str	r2, [r1, #52]
	.loc	5 733 32                @ ../Drivers/BSP/STM32F746/stm32746g_qspi.c:733:32
	strd	r2, r0, [r1, #20]
.Ltmp42:
	.loc	5 739 9                 @ ../Drivers/BSP/STM32F746/stm32746g_qspi.c:739:9
	ldr	r0, __arm_cp.3_1
.Ltmp43:
	.loc	5 730 32                @ ../Drivers/BSP/STM32F746/stm32746g_qspi.c:730:32
	strd	r2, r2, [r1, #28]
	.loc	5 732 32                @ ../Drivers/BSP/STM32F746/stm32746g_qspi.c:732:32
	strd	r3, r4, [r1, #36]
	.loc	5 734 32                @ ../Drivers/BSP/STM32F746/stm32746g_qspi.c:734:32
	strd	r2, r2, [r1, #44]
.Ltmp44:
	.loc	5 739 9                 @ ../Drivers/BSP/STM32F746/stm32746g_qspi.c:739:9
	movw	r2, #5000
	bl	HAL_QSPI_Command
.Ltmp45:
	.loc	5 739 9 is_stmt 0       @ ../Drivers/BSP/STM32F746/stm32746g_qspi.c:739:9
	cbnz	r0, .LBB3_2
@ %bb.1:
.Ltmp46:
	.loc	5 744 9 is_stmt 1       @ ../Drivers/BSP/STM32F746/stm32746g_qspi.c:744:9
	ldr	r0, __arm_cp.3_1
	add.w	r1, sp, #15
.Ltmp47:
	@DEBUG_VALUE: QSPI_DummyCyclesCfg:reg <- [DW_OP_plus_uconst 15] [$sp+0]
	movw	r2, #5000
	bl	HAL_QSPI_Receive
.Ltmp48:
	.loc	5 744 9 is_stmt 0       @ ../Drivers/BSP/STM32F746/stm32746g_qspi.c:744:9
	cbz	r0, .LBB3_4
.Ltmp49:
.LBB3_2:
	.loc	5 0 9                   @ ../Drivers/BSP/STM32F746/stm32746g_qspi.c:0:9
	movs	r0, #0
.LBB3_3:
	.loc	5 503 1 is_stmt 1       @ ../Drivers/BSP/STM32F746/stm32746g_qspi.c:503:1
	add	sp, #16
	pop	{r4, r5, r7, pc}
.LBB3_4:
.Ltmp50:
	@DEBUG_VALUE: QSPI_DummyCyclesCfg:reg <- [DW_OP_plus_uconst 15] [$sp+0]
	.loc	5 750 10                @ ../Drivers/BSP/STM32F746/stm32746g_qspi.c:750:10
	bl	QSPI_WriteEnable
.Ltmp51:
	.loc	5 750 9 is_stmt 0       @ ../Drivers/BSP/STM32F746/stm32746g_qspi.c:750:9
	cmp	r0, #0
	beq	.LBB3_2
.Ltmp52:
@ %bb.5:
	@DEBUG_VALUE: QSPI_DummyCyclesCfg:reg <- [DW_OP_plus_uconst 15] [$sp+0]
	.loc	5 757 5 is_stmt 1       @ ../Drivers/BSP/STM32F746/stm32746g_qspi.c:757:5
	ldrb.w	r0, [sp, #15]
	movs	r1, #10
.Ltmp53:
	.loc	5 759 9                 @ ../Drivers/BSP/STM32F746/stm32746g_qspi.c:759:9
	movw	r2, #5000
.Ltmp54:
	.loc	5 757 5                 @ ../Drivers/BSP/STM32F746/stm32746g_qspi.c:757:5
	bfi	r0, r1, #4, #28
	.loc	5 756 26                @ ../Drivers/BSP/STM32F746/stm32746g_qspi.c:756:26
	mov	r1, r5
	.loc	5 757 5                 @ ../Drivers/BSP/STM32F746/stm32746g_qspi.c:757:5
	strb.w	r0, [sp, #15]
	.loc	5 756 26                @ ../Drivers/BSP/STM32F746/stm32746g_qspi.c:756:26
	movs	r0, #129
	str	r0, [r1, #28]!
.Ltmp55:
	.loc	5 759 9                 @ ../Drivers/BSP/STM32F746/stm32746g_qspi.c:759:9
	ldr	r0, __arm_cp.3_1
	bl	HAL_QSPI_Command
.Ltmp56:
	.loc	5 759 9 is_stmt 0       @ ../Drivers/BSP/STM32F746/stm32746g_qspi.c:759:9
	cmp	r0, #0
	bne	.LBB3_2
.Ltmp57:
@ %bb.6:
	@DEBUG_VALUE: QSPI_DummyCyclesCfg:reg <- [DW_OP_plus_uconst 15] [$sp+0]
	.loc	5 764 9 is_stmt 1       @ ../Drivers/BSP/STM32F746/stm32746g_qspi.c:764:9
	ldr	r0, __arm_cp.3_1
	add.w	r1, sp, #15
	@DEBUG_VALUE: QSPI_DummyCyclesCfg:reg <- [DW_OP_plus_uconst 15] [$sp+0]
	movw	r2, #5000
	bl	HAL_QSPI_Transmit
.Ltmp58:
	.loc	5 472 13                @ ../Drivers/BSP/STM32F746/stm32746g_qspi.c:472:13
	cmp	r0, #0
	bne	.LBB3_2
.Ltmp59:
@ %bb.7:
	.loc	5 489 37                @ ../Drivers/BSP/STM32F746/stm32746g_qspi.c:489:37
	movs	r0, #235
	movs	r2, #0
	.loc	5 477 37                @ ../Drivers/BSP/STM32F746/stm32746g_qspi.c:477:37
	mov.w	r12, #256
	.loc	5 485 37                @ ../Drivers/BSP/STM32F746/stm32746g_qspi.c:485:37
	mov.w	r3, #3072
	.loc	5 487 37                @ ../Drivers/BSP/STM32F746/stm32746g_qspi.c:487:37
	mov.w	r4, #50331648
	.loc	5 490 37                @ ../Drivers/BSP/STM32F746/stm32746g_qspi.c:490:37
	movs	r1, #10
	.loc	5 489 37                @ ../Drivers/BSP/STM32F746/stm32746g_qspi.c:489:37
	str	r0, [r5, #28]!
	.loc	5 478 37                @ ../Drivers/BSP/STM32F746/stm32746g_qspi.c:478:37
	mov.w	r0, #8192
	.loc	5 481 37                @ ../Drivers/BSP/STM32F746/stm32746g_qspi.c:481:37
	strd	r2, r2, [r5, #44]
	.loc	5 483 37                @ ../Drivers/BSP/STM32F746/stm32746g_qspi.c:483:37
	str	r2, [r5, #52]
	.loc	5 486 37                @ ../Drivers/BSP/STM32F746/stm32746g_qspi.c:486:37
	str	r2, [r5, #4]
	.loc	5 478 37                @ ../Drivers/BSP/STM32F746/stm32746g_qspi.c:478:37
	strd	r0, r2, [r5, #12]
.Ltmp60:
	.loc	5 494 13                @ ../Drivers/BSP/STM32F746/stm32746g_qspi.c:494:13
	ldr	r0, __arm_cp.3_1
.Ltmp61:
	.loc	5 490 37                @ ../Drivers/BSP/STM32F746/stm32746g_qspi.c:490:37
	strd	r1, r12, [r5, #20]
	.loc	5 485 37                @ ../Drivers/BSP/STM32F746/stm32746g_qspi.c:485:37
	strd	r3, r2, [r5, #28]
	.loc	5 487 37                @ ../Drivers/BSP/STM32F746/stm32746g_qspi.c:487:37
	strd	r4, r2, [r5, #36]
	.loc	5 492 41                @ ../Drivers/BSP/STM32F746/stm32746g_qspi.c:492:41
	str	r2, [sp, #8]
	add	r2, sp, #4
.Ltmp62:
	@DEBUG_VALUE: sMemMappedCfg <- [DW_OP_plus_uconst 4] [$sp+0]
	.loc	5 494 13                @ ../Drivers/BSP/STM32F746/stm32746g_qspi.c:494:13
	mov	r1, r5
	bl	HAL_QSPI_MemoryMapped
.Ltmp63:
	.loc	5 494 13 is_stmt 0      @ ../Drivers/BSP/STM32F746/stm32746g_qspi.c:494:13
	cmp	r0, #0
	bne	.LBB3_2
.Ltmp64:
@ %bb.8:
	@DEBUG_VALUE: BSP_QSPI_EnableMemoryMappedMode:MemoryMappedMode <- 1
	.loc	5 0 13                  @ ../Drivers/BSP/STM32F746/stm32746g_qspi.c:0:13
	movs	r0, #1
	b	.LBB3_3
	.p2align	2
@ %bb.9:
__arm_cp.3_0:
	.long	.L_MergedGlobals
.Lcpi_end6:
	.size	__arm_cp.3_0, .Lcpi_end6-__arm_cp.3_0
__arm_cp.3_1:
	.long	.L_MergedGlobals.1
.Lcpi_end7:
	.size	__arm_cp.3_1, .Lcpi_end7-__arm_cp.3_1
.Lfunc_end3:
	.size	BSP_QSPI_EnableMemoryMappedMode, .Lfunc_end3-BSP_QSPI_EnableMemoryMappedMode
	.cfi_endproc
	.cantunwind
	.fnend
                                        @ -- End function
	.section	.text.BSP_QSPI_Read,"ax",%progbits
	.hidden	BSP_QSPI_Read           @ -- Begin function BSP_QSPI_Read
	.globl	BSP_QSPI_Read
	.p2align	2
	.type	BSP_QSPI_Read,%function
	.code	16                      @ @BSP_QSPI_Read
	.thumb_func
BSP_QSPI_Read:
.Lfunc_begin4:
	.loc	5 194 0 is_stmt 1       @ ../Drivers/BSP/STM32F746/stm32746g_qspi.c:194:0
	.fnstart
	.cfi_startproc
@ %bb.0:
	.save	{r4, r5, r7, lr}
	push	{r4, r5, r7, lr}
	.cfi_def_cfa_offset 16
	.cfi_offset lr, -4
	.cfi_offset r7, -8
	.cfi_offset r5, -12
	.cfi_offset r4, -16
	.pad	#56
	sub	sp, #56
	.cfi_def_cfa_offset 72
	@DEBUG_VALUE: BSP_QSPI_Read:pData <- $r0
	@DEBUG_VALUE: BSP_QSPI_Read:ReadAddr <- $r1
	@DEBUG_VALUE: BSP_QSPI_Read:Size <- $r2
	mov	r4, r0
	@DEBUG_VALUE: BSP_QSPI_Read:Size <- $r2
	@DEBUG_VALUE: BSP_QSPI_Read:ReadAddr <- $r1
.Ltmp65:
	@DEBUG_VALUE: BSP_QSPI_Read:pData <- $r4
	.loc	5 199 31 prologue_end   @ ../Drivers/BSP/STM32F746/stm32746g_qspi.c:199:31
	movs	r0, #235
.Ltmp66:
	.loc	5 212 7                 @ ../Drivers/BSP/STM32F746/stm32746g_qspi.c:212:7
	ldr	r5, __arm_cp.4_0
.Ltmp67:
	.loc	5 199 31                @ ../Drivers/BSP/STM32F746/stm32746g_qspi.c:199:31
	str	r0, [sp]
	.loc	5 198 31                @ ../Drivers/BSP/STM32F746/stm32746g_qspi.c:198:31
	mov.w	r0, #256
	str	r0, [sp, #24]
	.loc	5 200 31                @ ../Drivers/BSP/STM32F746/stm32746g_qspi.c:200:31
	mov.w	r0, #3072
	str	r0, [sp, #28]
	.loc	5 201 31                @ ../Drivers/BSP/STM32F746/stm32746g_qspi.c:201:31
	mov.w	r0, #8192
	str	r0, [sp, #12]
	.loc	5 202 31                @ ../Drivers/BSP/STM32F746/stm32746g_qspi.c:202:31
	str	r1, [sp, #4]
	movs	r0, #0
	.loc	5 204 31                @ ../Drivers/BSP/STM32F746/stm32746g_qspi.c:204:31
	mov.w	r1, #50331648
.Ltmp68:
	.loc	5 203 31                @ ../Drivers/BSP/STM32F746/stm32746g_qspi.c:203:31
	str	r0, [sp, #32]
	.loc	5 204 31                @ ../Drivers/BSP/STM32F746/stm32746g_qspi.c:204:31
	str	r1, [sp, #36]
	.loc	5 205 31                @ ../Drivers/BSP/STM32F746/stm32746g_qspi.c:205:31
	movs	r1, #10
	str	r1, [sp, #20]
	.loc	5 206 31                @ ../Drivers/BSP/STM32F746/stm32746g_qspi.c:206:31
	strd	r2, r0, [sp, #40]
	.loc	5 208 31                @ ../Drivers/BSP/STM32F746/stm32746g_qspi.c:208:31
	strd	r0, r0, [sp, #48]
	mov	r1, sp
.Ltmp69:
	@DEBUG_VALUE: BSP_QSPI_Read:s_command <- [$sp+0]
	.loc	5 212 7                 @ ../Drivers/BSP/STM32F746/stm32746g_qspi.c:212:7
	mov	r0, r5
	movw	r2, #5000
.Ltmp70:
	bl	HAL_QSPI_Command
.Ltmp71:
	.loc	5 212 7 is_stmt 0       @ ../Drivers/BSP/STM32F746/stm32746g_qspi.c:212:7
	cbnz	r0, .LBB4_2
.Ltmp72:
@ %bb.1:
	@DEBUG_VALUE: BSP_QSPI_Read:s_command <- [$sp+0]
	@DEBUG_VALUE: BSP_QSPI_Read:pData <- $r4
	.loc	5 218 3 is_stmt 1       @ ../Drivers/BSP/STM32F746/stm32746g_qspi.c:218:3
	ldr	r0, [r5]
	movs	r2, #2
	ldr	r1, [r0, #4]
	bfi	r1, r2, #8, #3
.Ltmp73:
	.loc	5 221 7                 @ ../Drivers/BSP/STM32F746/stm32746g_qspi.c:221:7
	movw	r2, #5000
.Ltmp74:
	.loc	5 218 3                 @ ../Drivers/BSP/STM32F746/stm32746g_qspi.c:218:3
	str	r1, [r0, #4]
.Ltmp75:
	.loc	5 221 7                 @ ../Drivers/BSP/STM32F746/stm32746g_qspi.c:221:7
	mov	r0, r5
	mov	r1, r4
	bl	HAL_QSPI_Receive
.Ltmp76:
	.loc	5 221 7 is_stmt 0       @ ../Drivers/BSP/STM32F746/stm32746g_qspi.c:221:7
	cbz	r0, .LBB4_4
.Ltmp77:
.LBB4_2:
	@DEBUG_VALUE: BSP_QSPI_Read:s_command <- [$sp+0]
	@DEBUG_VALUE: BSP_QSPI_Read:pData <- $r4
	.loc	5 0 7                   @ ../Drivers/BSP/STM32F746/stm32746g_qspi.c:0:7
	movs	r0, #1
.Ltmp78:
.LBB4_3:
	@DEBUG_VALUE: BSP_QSPI_Read:s_command <- [$sp+0]
	@DEBUG_VALUE: BSP_QSPI_Read:pData <- $r4
	.loc	5 230 1 is_stmt 1       @ ../Drivers/BSP/STM32F746/stm32746g_qspi.c:230:1
	add	sp, #56
.Ltmp79:
	pop	{r4, r5, r7, pc}
.Ltmp80:
.LBB4_4:
	@DEBUG_VALUE: BSP_QSPI_Read:s_command <- [$sp+0]
	@DEBUG_VALUE: BSP_QSPI_Read:pData <- $r4
	.loc	5 227 3                 @ ../Drivers/BSP/STM32F746/stm32746g_qspi.c:227:3
	ldr	r0, [r5]
	movs	r2, #5
	ldr	r1, [r0, #4]
	bfi	r1, r2, #8, #3
	str	r1, [r0, #4]
	movs	r0, #0
	b	.LBB4_3
.Ltmp81:
	.p2align	2
@ %bb.5:
	.loc	5 0 3 is_stmt 0         @ ../Drivers/BSP/STM32F746/stm32746g_qspi.c:0:3
__arm_cp.4_0:
	.long	.L_MergedGlobals.1
.Lcpi_end8:
	.size	__arm_cp.4_0, .Lcpi_end8-__arm_cp.4_0
.Lfunc_end4:
	.size	BSP_QSPI_Read, .Lfunc_end4-BSP_QSPI_Read
	.cfi_endproc
	.cantunwind
	.fnend
                                        @ -- End function
	.section	.text.BSP_QSPI_Write,"ax",%progbits
	.hidden	BSP_QSPI_Write          @ -- Begin function BSP_QSPI_Write
	.globl	BSP_QSPI_Write
	.p2align	2
	.type	BSP_QSPI_Write,%function
	.code	16                      @ @BSP_QSPI_Write
	.thumb_func
BSP_QSPI_Write:
.Lfunc_begin5:
	.loc	5 240 0 is_stmt 1       @ ../Drivers/BSP/STM32F746/stm32746g_qspi.c:240:0
	.fnstart
	.cfi_startproc
@ %bb.0:
	.save	{r4, r5, r6, r7, r8, r9, lr}
	push.w	{r4, r5, r6, r7, r8, r9, lr}
	.cfi_def_cfa_offset 28
	.cfi_offset lr, -4
	.cfi_offset r9, -8
	.cfi_offset r8, -12
	.cfi_offset r7, -16
	.cfi_offset r6, -20
	.cfi_offset r5, -24
	.cfi_offset r4, -28
	.pad	#60
	sub	sp, #60
	.cfi_def_cfa_offset 88
	@DEBUG_VALUE: BSP_QSPI_Write:pData <- $r0
	@DEBUG_VALUE: BSP_QSPI_Write:WriteAddr <- $r1
	@DEBUG_VALUE: BSP_QSPI_Write:Size <- $r2
.Ltmp82:
	@DEBUG_VALUE: BSP_QSPI_Write:current_addr <- $r1
	mov	r5, r0
.Ltmp83:
	@DEBUG_VALUE: BSP_QSPI_Write:current_addr <- $r4
	@DEBUG_VALUE: BSP_QSPI_Write:Size <- $r2
	@DEBUG_VALUE: BSP_QSPI_Write:WriteAddr <- $r4
	@DEBUG_VALUE: BSP_QSPI_Write:pData <- $r5
	.loc	5 259 31 prologue_end   @ ../Drivers/BSP/STM32F746/stm32746g_qspi.c:259:31
	movs	r0, #18
	mov	r4, r1
.Ltmp84:
	.loc	5 263 31                @ ../Drivers/BSP/STM32F746/stm32746g_qspi.c:263:31
	mov.w	r1, #50331648
	ldr.w	r9, __arm_cp.5_0
	add.w	r8, sp, #4
	.loc	5 259 31                @ ../Drivers/BSP/STM32F746/stm32746g_qspi.c:259:31
	str	r0, [sp, #4]
	.loc	5 245 37                @ ../Drivers/BSP/STM32F746/stm32746g_qspi.c:245:37
	mov.w	r0, #256
	.loc	5 255 24                @ ../Drivers/BSP/STM32F746/stm32746g_qspi.c:255:24
	adds	r7, r2, r4
.Ltmp85:
	@DEBUG_VALUE: BSP_QSPI_Write:end_addr <- $r7
	.loc	5 258 31                @ ../Drivers/BSP/STM32F746/stm32746g_qspi.c:258:31
	str	r0, [sp, #28]
	.loc	5 260 31                @ ../Drivers/BSP/STM32F746/stm32746g_qspi.c:260:31
	mov.w	r0, #3072
	str	r0, [sp, #32]
	.loc	5 261 31                @ ../Drivers/BSP/STM32F746/stm32746g_qspi.c:261:31
	mov.w	r0, #8192
	str	r0, [sp, #16]
	movs	r0, #0
	.loc	5 262 31                @ ../Drivers/BSP/STM32F746/stm32746g_qspi.c:262:31
	str	r0, [sp, #36]
	.loc	5 263 31                @ ../Drivers/BSP/STM32F746/stm32746g_qspi.c:263:31
	str	r1, [sp, #40]
	.loc	5 264 31                @ ../Drivers/BSP/STM32F746/stm32746g_qspi.c:264:31
	str	r0, [sp, #24]
	.loc	5 265 31                @ ../Drivers/BSP/STM32F746/stm32746g_qspi.c:265:31
	strd	r0, r0, [sp, #48]
	.loc	5 267 31                @ ../Drivers/BSP/STM32F746/stm32746g_qspi.c:267:31
	str	r0, [sp, #56]
	.loc	5 245 50                @ ../Drivers/BSP/STM32F746/stm32746g_qspi.c:245:50
	uxtb	r0, r4
	.loc	5 245 37 is_stmt 0      @ ../Drivers/BSP/STM32F746/stm32746g_qspi.c:245:37
	rsb.w	r6, r0, #256
.Ltmp86:
	@DEBUG_VALUE: BSP_QSPI_Write:current_size <- $r6
	.loc	5 248 7 is_stmt 1       @ ../Drivers/BSP/STM32F746/stm32746g_qspi.c:248:7
	cmp	r6, r2
	it	hi
	movhi	r6, r2
.Ltmp87:
	@DEBUG_VALUE: BSP_QSPI_Write:current_size <- $r6
.LBB5_1:                                @ =>This Inner Loop Header: Depth=1
	@DEBUG_VALUE: BSP_QSPI_Write:current_size <- $r6
	@DEBUG_VALUE: BSP_QSPI_Write:end_addr <- $r7
	@DEBUG_VALUE: BSP_QSPI_Write:pData <- $r5
	@DEBUG_VALUE: BSP_QSPI_Write:Size <- $r2
	@DEBUG_VALUE: BSP_QSPI_Write:current_addr <- $r4
	@DEBUG_VALUE: BSP_QSPI_Write:current_size <- $r6
	.loc	5 273 23                @ ../Drivers/BSP/STM32F746/stm32746g_qspi.c:273:23
	str	r6, [sp, #44]
	.loc	5 272 23                @ ../Drivers/BSP/STM32F746/stm32746g_qspi.c:272:23
	str	r4, [sp, #8]
.Ltmp88:
	.loc	5 276 9                 @ ../Drivers/BSP/STM32F746/stm32746g_qspi.c:276:9
	bl	QSPI_WriteEnable
.Ltmp89:
	.loc	5 276 9 is_stmt 0       @ ../Drivers/BSP/STM32F746/stm32746g_qspi.c:276:9
	cbnz	r0, .LBB5_7
.Ltmp90:
@ %bb.2:                                @   in Loop: Header=BB5_1 Depth=1
	@DEBUG_VALUE: BSP_QSPI_Write:current_size <- $r6
	@DEBUG_VALUE: BSP_QSPI_Write:end_addr <- $r7
	@DEBUG_VALUE: BSP_QSPI_Write:pData <- $r5
	@DEBUG_VALUE: BSP_QSPI_Write:current_addr <- $r4
	@DEBUG_VALUE: BSP_QSPI_Write:s_command <- [DW_OP_plus_uconst 4] [$sp+0]
	.loc	5 282 9 is_stmt 1       @ ../Drivers/BSP/STM32F746/stm32746g_qspi.c:282:9
	mov	r0, r9
	mov	r1, r8
	movw	r2, #5000
	bl	HAL_QSPI_Command
.Ltmp91:
	.loc	5 282 9 is_stmt 0       @ ../Drivers/BSP/STM32F746/stm32746g_qspi.c:282:9
	cbnz	r0, .LBB5_7
.Ltmp92:
@ %bb.3:                                @   in Loop: Header=BB5_1 Depth=1
	@DEBUG_VALUE: BSP_QSPI_Write:s_command <- [DW_OP_plus_uconst 4] [$sp+0]
	@DEBUG_VALUE: BSP_QSPI_Write:current_size <- $r6
	@DEBUG_VALUE: BSP_QSPI_Write:end_addr <- $r7
	@DEBUG_VALUE: BSP_QSPI_Write:pData <- $r5
	@DEBUG_VALUE: BSP_QSPI_Write:current_addr <- $r4
	@DEBUG_VALUE: BSP_QSPI_Write:pData <- $r5
	.loc	5 288 9 is_stmt 1       @ ../Drivers/BSP/STM32F746/stm32746g_qspi.c:288:9
	mov	r0, r9
	mov	r1, r5
	movw	r2, #5000
	bl	HAL_QSPI_Transmit
.Ltmp93:
	.loc	5 288 9 is_stmt 0       @ ../Drivers/BSP/STM32F746/stm32746g_qspi.c:288:9
	cbnz	r0, .LBB5_7
.Ltmp94:
@ %bb.4:                                @   in Loop: Header=BB5_1 Depth=1
	@DEBUG_VALUE: BSP_QSPI_Write:s_command <- [DW_OP_plus_uconst 4] [$sp+0]
	@DEBUG_VALUE: BSP_QSPI_Write:current_size <- $r6
	@DEBUG_VALUE: BSP_QSPI_Write:end_addr <- $r7
	@DEBUG_VALUE: BSP_QSPI_Write:pData <- $r5
	@DEBUG_VALUE: BSP_QSPI_Write:current_addr <- $r4
	.loc	5 294 9 is_stmt 1       @ ../Drivers/BSP/STM32F746/stm32746g_qspi.c:294:9
	movw	r0, #5000
	bl	QSPI_AutoPollingMemReady
.Ltmp95:
	.loc	5 294 9 is_stmt 0       @ ../Drivers/BSP/STM32F746/stm32746g_qspi.c:294:9
	cbnz	r0, .LBB5_7
.Ltmp96:
@ %bb.5:                                @   in Loop: Header=BB5_1 Depth=1
	@DEBUG_VALUE: BSP_QSPI_Write:s_command <- [DW_OP_plus_uconst 4] [$sp+0]
	@DEBUG_VALUE: BSP_QSPI_Write:current_size <- $r6
	@DEBUG_VALUE: BSP_QSPI_Write:end_addr <- $r7
	@DEBUG_VALUE: BSP_QSPI_Write:pData <- $r5
	@DEBUG_VALUE: BSP_QSPI_Write:current_addr <- $r4
	.loc	5 300 18 is_stmt 1      @ ../Drivers/BSP/STM32F746/stm32746g_qspi.c:300:18
	add	r4, r6
.Ltmp97:
	@DEBUG_VALUE: BSP_QSPI_Write:current_addr <- $r4
	.loc	5 301 11                @ ../Drivers/BSP/STM32F746/stm32746g_qspi.c:301:11
	add	r5, r6
.Ltmp98:
	@DEBUG_VALUE: BSP_QSPI_Write:pData <- $r5
	.loc	5 302 35                @ ../Drivers/BSP/STM32F746/stm32746g_qspi.c:302:35
	add.w	r0, r4, #256
	.loc	5 302 20 is_stmt 0      @ ../Drivers/BSP/STM32F746/stm32746g_qspi.c:302:20
	cmp	r0, r7
	mov.w	r0, #256
	it	hi
	subhi	r0, r7, r4
.Ltmp99:
	@DEBUG_VALUE: BSP_QSPI_Write:current_size <- $r0
	.loc	5 303 3 is_stmt 1       @ ../Drivers/BSP/STM32F746/stm32746g_qspi.c:303:3
	cmp	r7, r4
	mov	r6, r0
.Ltmp100:
	@DEBUG_VALUE: BSP_QSPI_Write:current_size <- $r6
	bhi	.LBB5_1
.Ltmp101:
@ %bb.6:
	@DEBUG_VALUE: BSP_QSPI_Write:s_command <- [DW_OP_plus_uconst 4] [$sp+0]
	@DEBUG_VALUE: BSP_QSPI_Write:current_size <- $r6
	@DEBUG_VALUE: BSP_QSPI_Write:end_addr <- $r7
	@DEBUG_VALUE: BSP_QSPI_Write:pData <- $r5
	@DEBUG_VALUE: BSP_QSPI_Write:current_addr <- $r4
	.loc	5 0 3 is_stmt 0         @ ../Drivers/BSP/STM32F746/stm32746g_qspi.c:0:3
	movs	r0, #0
	b	.LBB5_8
.Ltmp102:
.LBB5_7:
	@DEBUG_VALUE: BSP_QSPI_Write:current_size <- $r6
	@DEBUG_VALUE: BSP_QSPI_Write:end_addr <- $r7
	@DEBUG_VALUE: BSP_QSPI_Write:pData <- $r5
	@DEBUG_VALUE: BSP_QSPI_Write:current_addr <- $r4
	movs	r0, #1
.Ltmp103:
.LBB5_8:
	@DEBUG_VALUE: BSP_QSPI_Write:current_size <- $r6
	@DEBUG_VALUE: BSP_QSPI_Write:end_addr <- $r7
	@DEBUG_VALUE: BSP_QSPI_Write:pData <- $r5
	@DEBUG_VALUE: BSP_QSPI_Write:current_addr <- $r4
	.loc	5 306 1 is_stmt 1       @ ../Drivers/BSP/STM32F746/stm32746g_qspi.c:306:1
	add	sp, #60
	pop.w	{r4, r5, r6, r7, r8, r9, pc}
.Ltmp104:
	.p2align	2
@ %bb.9:
	.loc	5 0 1 is_stmt 0         @ ../Drivers/BSP/STM32F746/stm32746g_qspi.c:0:1
__arm_cp.5_0:
	.long	.L_MergedGlobals.1
.Lcpi_end9:
	.size	__arm_cp.5_0, .Lcpi_end9-__arm_cp.5_0
.Lfunc_end5:
	.size	BSP_QSPI_Write, .Lfunc_end5-BSP_QSPI_Write
	.cfi_endproc
	.cantunwind
	.fnend
                                        @ -- End function
	.section	.text.QSPI_WriteEnable,"ax",%progbits
	.p2align	2               @ -- Begin function QSPI_WriteEnable
	.type	QSPI_WriteEnable,%function
	.code	16                      @ @QSPI_WriteEnable
	.thumb_func
QSPI_WriteEnable:
.Lfunc_begin6:
	.loc	5 778 0 is_stmt 1       @ ../Drivers/BSP/STM32F746/stm32746g_qspi.c:778:0
	.fnstart
	.cfi_startproc
@ %bb.0:
	.save	{r4, r5, r7, lr}
	push	{r4, r5, r7, lr}
	.cfi_def_cfa_offset 16
	.cfi_offset lr, -4
	.cfi_offset r7, -8
	.cfi_offset r5, -12
	.cfi_offset r4, -16
.Ltmp105:
	.loc	5 780 32 prologue_end   @ ../Drivers/BSP/STM32F746/stm32746g_qspi.c:780:32
	ldr	r4, __arm_cp.6_0
	.loc	5 781 32                @ ../Drivers/BSP/STM32F746/stm32746g_qspi.c:781:32
	movs	r0, #6
	movs	r5, #0
.Ltmp106:
	.loc	5 790 9                 @ ../Drivers/BSP/STM32F746/stm32746g_qspi.c:790:9
	movw	r2, #5000
.Ltmp107:
	.loc	5 781 32                @ ../Drivers/BSP/STM32F746/stm32746g_qspi.c:781:32
	mov	r1, r4
	str	r0, [r1, #28]!
	.loc	5 780 32                @ ../Drivers/BSP/STM32F746/stm32746g_qspi.c:780:32
	mov.w	r0, #256
	.loc	5 785 32                @ ../Drivers/BSP/STM32F746/stm32746g_qspi.c:785:32
	strd	r5, r0, [r1, #20]
.Ltmp108:
	.loc	5 790 9                 @ ../Drivers/BSP/STM32F746/stm32746g_qspi.c:790:9
	ldr	r0, __arm_cp.6_1
.Ltmp109:
	.loc	5 782 32                @ ../Drivers/BSP/STM32F746/stm32746g_qspi.c:782:32
	strd	r5, r5, [r1, #28]
	.loc	5 784 32                @ ../Drivers/BSP/STM32F746/stm32746g_qspi.c:784:32
	str	r5, [r1, #36]
	.loc	5 786 32                @ ../Drivers/BSP/STM32F746/stm32746g_qspi.c:786:32
	strd	r5, r5, [r1, #44]
	.loc	5 788 32                @ ../Drivers/BSP/STM32F746/stm32746g_qspi.c:788:32
	str	r5, [r1, #52]
.Ltmp110:
	.loc	5 790 9                 @ ../Drivers/BSP/STM32F746/stm32746g_qspi.c:790:9
	bl	HAL_QSPI_Command
.Ltmp111:
	.loc	5 790 9 is_stmt 0       @ ../Drivers/BSP/STM32F746/stm32746g_qspi.c:790:9
	cbz	r0, .LBB6_2
@ %bb.1:
	.loc	5 813 1 is_stmt 1       @ ../Drivers/BSP/STM32F746/stm32746g_qspi.c:813:1
	movs	r0, #0
	pop	{r4, r5, r7, pc}
.LBB6_2:
	.loc	5 0 1 is_stmt 0         @ ../Drivers/BSP/STM32F746/stm32746g_qspi.c:0:1
	movs	r0, #5
	movs	r2, #16
	movs	r1, #1
	.loc	5 801 29 is_stmt 1      @ ../Drivers/BSP/STM32F746/stm32746g_qspi.c:801:29
	mov.w	r3, #4194304
	.loc	5 803 29                @ ../Drivers/BSP/STM32F746/stm32746g_qspi.c:803:29
	str	r0, [r4, #28]!
	.loc	5 796 29                @ ../Drivers/BSP/STM32F746/stm32746g_qspi.c:796:29
	movs	r0, #2
	.loc	5 797 29                @ ../Drivers/BSP/STM32F746/stm32746g_qspi.c:797:29
	strd	r0, r2, [r4, #-20]
	.loc	5 804 29                @ ../Drivers/BSP/STM32F746/stm32746g_qspi.c:804:29
	mov.w	r2, #16777216
	.loc	5 799 29                @ ../Drivers/BSP/STM32F746/stm32746g_qspi.c:799:29
	strd	r1, r5, [r4, #-12]
	.loc	5 801 29                @ ../Drivers/BSP/STM32F746/stm32746g_qspi.c:801:29
	str	r3, [r4, #-4]
.Ltmp112:
	.loc	5 807 9                 @ ../Drivers/BSP/STM32F746/stm32746g_qspi.c:807:9
	movw	r3, #5000
.Ltmp113:
	.loc	5 804 29                @ ../Drivers/BSP/STM32F746/stm32746g_qspi.c:804:29
	strd	r2, r1, [r4, #36]
	.loc	5 796 29                @ ../Drivers/BSP/STM32F746/stm32746g_qspi.c:796:29
	mov	r2, r4
.Ltmp114:
	.loc	5 807 9                 @ ../Drivers/BSP/STM32F746/stm32746g_qspi.c:807:9
	mov	r1, r4
.Ltmp115:
	.loc	5 796 29                @ ../Drivers/BSP/STM32F746/stm32746g_qspi.c:796:29
	str	r0, [r2, #-24]!
.Ltmp116:
	.loc	5 807 9                 @ ../Drivers/BSP/STM32F746/stm32746g_qspi.c:807:9
	ldr	r0, __arm_cp.6_1
	bl	HAL_QSPI_AutoPolling
	.loc	5 807 96 is_stmt 0      @ ../Drivers/BSP/STM32F746/stm32746g_qspi.c:807:96
	clz	r0, r0
	lsrs	r0, r0, #5
.Ltmp117:
	.loc	5 807 9                 @ ../Drivers/BSP/STM32F746/stm32746g_qspi.c:807:9
	pop	{r4, r5, r7, pc}
.Ltmp118:
	.p2align	2
@ %bb.3:
	.loc	5 0 9                   @ ../Drivers/BSP/STM32F746/stm32746g_qspi.c:0:9
__arm_cp.6_0:
	.long	.L_MergedGlobals
.Lcpi_end10:
	.size	__arm_cp.6_0, .Lcpi_end10-__arm_cp.6_0
__arm_cp.6_1:
	.long	.L_MergedGlobals.1
.Lcpi_end11:
	.size	__arm_cp.6_1, .Lcpi_end11-__arm_cp.6_1
.Lfunc_end6:
	.size	QSPI_WriteEnable, .Lfunc_end6-QSPI_WriteEnable
	.cfi_endproc
	.cantunwind
	.fnend
                                        @ -- End function
	.section	.text.BSP_QSPI_Erase_Block,"ax",%progbits
	.hidden	BSP_QSPI_Erase_Block    @ -- Begin function BSP_QSPI_Erase_Block
	.globl	BSP_QSPI_Erase_Block
	.p2align	2
	.type	BSP_QSPI_Erase_Block,%function
	.code	16                      @ @BSP_QSPI_Erase_Block
	.thumb_func
BSP_QSPI_Erase_Block:
.Lfunc_begin7:
	.loc	5 314 0 is_stmt 1       @ ../Drivers/BSP/STM32F746/stm32746g_qspi.c:314:0
	.fnstart
	.cfi_startproc
@ %bb.0:
	.save	{r7, lr}
	push	{r7, lr}
	.cfi_def_cfa_offset 8
	.cfi_offset lr, -4
	.cfi_offset r7, -8
	.pad	#56
	sub	sp, #56
	.cfi_def_cfa_offset 64
	@DEBUG_VALUE: BSP_QSPI_Erase_Block:BlockAddress <- $r0
	movs	r1, #32
	@DEBUG_VALUE: BSP_QSPI_Erase_Block:BlockAddress <- $r0
.Ltmp119:
	.loc	5 319 31 prologue_end   @ ../Drivers/BSP/STM32F746/stm32746g_qspi.c:319:31
	str	r1, [sp]
	.loc	5 318 31                @ ../Drivers/BSP/STM32F746/stm32746g_qspi.c:318:31
	mov.w	r1, #256
	str	r1, [sp, #24]
	.loc	5 320 31                @ ../Drivers/BSP/STM32F746/stm32746g_qspi.c:320:31
	mov.w	r1, #1024
	str	r1, [sp, #28]
	.loc	5 321 31                @ ../Drivers/BSP/STM32F746/stm32746g_qspi.c:321:31
	mov.w	r1, #8192
	str	r1, [sp, #12]
	.loc	5 322 31                @ ../Drivers/BSP/STM32F746/stm32746g_qspi.c:322:31
	str	r0, [sp, #4]
	movs	r0, #0
.Ltmp120:
	.loc	5 323 31                @ ../Drivers/BSP/STM32F746/stm32746g_qspi.c:323:31
	strd	r0, r0, [sp, #32]
	.loc	5 325 31                @ ../Drivers/BSP/STM32F746/stm32746g_qspi.c:325:31
	str	r0, [sp, #20]
	.loc	5 326 31                @ ../Drivers/BSP/STM32F746/stm32746g_qspi.c:326:31
	strd	r0, r0, [sp, #44]
	.loc	5 328 31                @ ../Drivers/BSP/STM32F746/stm32746g_qspi.c:328:31
	str	r0, [sp, #52]
.Ltmp121:
	.loc	5 331 7                 @ ../Drivers/BSP/STM32F746/stm32746g_qspi.c:331:7
	bl	QSPI_WriteEnable
.Ltmp122:
	.loc	5 331 7 is_stmt 0       @ ../Drivers/BSP/STM32F746/stm32746g_qspi.c:331:7
	cbnz	r0, .LBB7_2
@ %bb.1:
.Ltmp123:
	.loc	5 337 7 is_stmt 1       @ ../Drivers/BSP/STM32F746/stm32746g_qspi.c:337:7
	ldr	r0, __arm_cp.7_0
	mov	r1, sp
.Ltmp124:
	@DEBUG_VALUE: BSP_QSPI_Erase_Block:s_command <- [$sp+0]
	movw	r2, #5000
	bl	HAL_QSPI_Command
.Ltmp125:
	.loc	5 337 7 is_stmt 0       @ ../Drivers/BSP/STM32F746/stm32746g_qspi.c:337:7
	cbz	r0, .LBB7_4
.Ltmp126:
.LBB7_2:
	.loc	5 0 7                   @ ../Drivers/BSP/STM32F746/stm32746g_qspi.c:0:7
	movs	r0, #1
.LBB7_3:
	.loc	5 349 1 is_stmt 1       @ ../Drivers/BSP/STM32F746/stm32746g_qspi.c:349:1
	add	sp, #56
	pop	{r7, pc}
.LBB7_4:
.Ltmp127:
	@DEBUG_VALUE: BSP_QSPI_Erase_Block:s_command <- [$sp+0]
	.loc	5 343 7                 @ ../Drivers/BSP/STM32F746/stm32746g_qspi.c:343:7
	mov.w	r0, #800
	bl	QSPI_AutoPollingMemReady
	.loc	5 343 80 is_stmt 0      @ ../Drivers/BSP/STM32F746/stm32746g_qspi.c:343:80
	cmp	r0, #0
	it	ne
	movne	r0, #1
	b	.LBB7_3
.Ltmp128:
	.p2align	2
@ %bb.5:
	.loc	5 0 80                  @ ../Drivers/BSP/STM32F746/stm32746g_qspi.c:0:80
__arm_cp.7_0:
	.long	.L_MergedGlobals.1
.Lcpi_end12:
	.size	__arm_cp.7_0, .Lcpi_end12-__arm_cp.7_0
.Lfunc_end7:
	.size	BSP_QSPI_Erase_Block, .Lfunc_end7-BSP_QSPI_Erase_Block
	.cfi_endproc
	.cantunwind
	.fnend
                                        @ -- End function
	.section	.text.BSP_QSPI_Erase_Chip,"ax",%progbits
	.hidden	BSP_QSPI_Erase_Chip     @ -- Begin function BSP_QSPI_Erase_Chip
	.globl	BSP_QSPI_Erase_Chip
	.p2align	2
	.type	BSP_QSPI_Erase_Chip,%function
	.code	16                      @ @BSP_QSPI_Erase_Chip
	.thumb_func
BSP_QSPI_Erase_Chip:
.Lfunc_begin8:
	.loc	5 356 0 is_stmt 1       @ ../Drivers/BSP/STM32F746/stm32746g_qspi.c:356:0
	.fnstart
	.cfi_startproc
@ %bb.0:
	.save	{r7, lr}
	push	{r7, lr}
	.cfi_def_cfa_offset 8
	.cfi_offset lr, -4
	.cfi_offset r7, -8
	.pad	#56
	sub	sp, #56
	.cfi_def_cfa_offset 64
.Ltmp129:
	.loc	5 361 31 prologue_end   @ ../Drivers/BSP/STM32F746/stm32746g_qspi.c:361:31
	movs	r0, #199
	str	r0, [sp]
	.loc	5 360 31                @ ../Drivers/BSP/STM32F746/stm32746g_qspi.c:360:31
	mov.w	r0, #256
	str	r0, [sp, #24]
	movs	r0, #0
	.loc	5 362 31                @ ../Drivers/BSP/STM32F746/stm32746g_qspi.c:362:31
	strd	r0, r0, [sp, #28]
	.loc	5 364 31                @ ../Drivers/BSP/STM32F746/stm32746g_qspi.c:364:31
	str	r0, [sp, #36]
	.loc	5 365 31                @ ../Drivers/BSP/STM32F746/stm32746g_qspi.c:365:31
	str	r0, [sp, #20]
	.loc	5 366 31                @ ../Drivers/BSP/STM32F746/stm32746g_qspi.c:366:31
	strd	r0, r0, [sp, #44]
	.loc	5 368 31                @ ../Drivers/BSP/STM32F746/stm32746g_qspi.c:368:31
	str	r0, [sp, #52]
.Ltmp130:
	.loc	5 371 7                 @ ../Drivers/BSP/STM32F746/stm32746g_qspi.c:371:7
	bl	QSPI_WriteEnable
.Ltmp131:
	.loc	5 371 7 is_stmt 0       @ ../Drivers/BSP/STM32F746/stm32746g_qspi.c:371:7
	cbnz	r0, .LBB8_2
@ %bb.1:
.Ltmp132:
	.loc	5 377 7 is_stmt 1       @ ../Drivers/BSP/STM32F746/stm32746g_qspi.c:377:7
	ldr	r0, __arm_cp.8_0
	mov	r1, sp
.Ltmp133:
	@DEBUG_VALUE: BSP_QSPI_Erase_Chip:s_command <- [$sp+0]
	movw	r2, #5000
	bl	HAL_QSPI_Command
.Ltmp134:
	.loc	5 377 7 is_stmt 0       @ ../Drivers/BSP/STM32F746/stm32746g_qspi.c:377:7
	cbz	r0, .LBB8_4
.Ltmp135:
.LBB8_2:
	.loc	5 0 7                   @ ../Drivers/BSP/STM32F746/stm32746g_qspi.c:0:7
	movs	r0, #1
.LBB8_3:
	.loc	5 389 1 is_stmt 1       @ ../Drivers/BSP/STM32F746/stm32746g_qspi.c:389:1
	add	sp, #56
	pop	{r7, pc}
.LBB8_4:
.Ltmp136:
	@DEBUG_VALUE: BSP_QSPI_Erase_Chip:s_command <- [$sp+0]
	.loc	5 383 7                 @ ../Drivers/BSP/STM32F746/stm32746g_qspi.c:383:7
	ldr	r0, __arm_cp.8_1
	bl	QSPI_AutoPollingMemReady
	.loc	5 383 75 is_stmt 0      @ ../Drivers/BSP/STM32F746/stm32746g_qspi.c:383:75
	cmp	r0, #0
	it	ne
	movne	r0, #1
	b	.LBB8_3
.Ltmp137:
	.p2align	2
@ %bb.5:
	.loc	5 0 75                  @ ../Drivers/BSP/STM32F746/stm32746g_qspi.c:0:75
__arm_cp.8_0:
	.long	.L_MergedGlobals.1
.Lcpi_end13:
	.size	__arm_cp.8_0, .Lcpi_end13-__arm_cp.8_0
__arm_cp.8_1:
	.long	250000                  @ 0x3d090
.Lcpi_end14:
	.size	__arm_cp.8_1, .Lcpi_end14-__arm_cp.8_1
.Lfunc_end8:
	.size	BSP_QSPI_Erase_Chip, .Lfunc_end8-BSP_QSPI_Erase_Chip
	.cfi_endproc
	.cantunwind
	.fnend
                                        @ -- End function
	.section	.text.BSP_QSPI_GetStatus,"ax",%progbits
	.hidden	BSP_QSPI_GetStatus      @ -- Begin function BSP_QSPI_GetStatus
	.globl	BSP_QSPI_GetStatus
	.p2align	2
	.type	BSP_QSPI_GetStatus,%function
	.code	16                      @ @BSP_QSPI_GetStatus
	.thumb_func
BSP_QSPI_GetStatus:
.Lfunc_begin9:
	.loc	5 396 0 is_stmt 1       @ ../Drivers/BSP/STM32F746/stm32746g_qspi.c:396:0
	.fnstart
	.cfi_startproc
@ %bb.0:
	.save	{r4, lr}
	push	{r4, lr}
	.cfi_def_cfa_offset 8
	.cfi_offset lr, -4
	.cfi_offset r4, -8
	.pad	#64
	sub	sp, #64
	.cfi_def_cfa_offset 72
.Ltmp138:
	.loc	5 402 31 prologue_end   @ ../Drivers/BSP/STM32F746/stm32746g_qspi.c:402:31
	movs	r0, #112
	.loc	5 405 31                @ ../Drivers/BSP/STM32F746/stm32746g_qspi.c:405:31
	mov.w	r1, #16777216
	movs	r4, #1
.Ltmp139:
	.loc	5 413 7                 @ ../Drivers/BSP/STM32F746/stm32746g_qspi.c:413:7
	movw	r2, #5000
.Ltmp140:
	.loc	5 402 31                @ ../Drivers/BSP/STM32F746/stm32746g_qspi.c:402:31
	str	r0, [sp, #8]
	.loc	5 401 31                @ ../Drivers/BSP/STM32F746/stm32746g_qspi.c:401:31
	mov.w	r0, #256
	str	r0, [sp, #32]
	movs	r0, #0
	.loc	5 403 31                @ ../Drivers/BSP/STM32F746/stm32746g_qspi.c:403:31
	strd	r0, r0, [sp, #36]
	.loc	5 405 31                @ ../Drivers/BSP/STM32F746/stm32746g_qspi.c:405:31
	str	r1, [sp, #44]
	.loc	5 406 31                @ ../Drivers/BSP/STM32F746/stm32746g_qspi.c:406:31
	str	r0, [sp, #28]
	.loc	5 407 31                @ ../Drivers/BSP/STM32F746/stm32746g_qspi.c:407:31
	strd	r4, r0, [sp, #48]
	.loc	5 409 31                @ ../Drivers/BSP/STM32F746/stm32746g_qspi.c:409:31
	strd	r0, r0, [sp, #56]
.Ltmp141:
	.loc	5 413 7                 @ ../Drivers/BSP/STM32F746/stm32746g_qspi.c:413:7
	ldr	r0, __arm_cp.9_0
	add	r1, sp, #8
.Ltmp142:
	@DEBUG_VALUE: BSP_QSPI_GetStatus:s_command <- [DW_OP_plus_uconst 8] [$sp+0]
	bl	HAL_QSPI_Command
.Ltmp143:
	.loc	5 413 7 is_stmt 0       @ ../Drivers/BSP/STM32F746/stm32746g_qspi.c:413:7
	cbnz	r0, .LBB9_4
.Ltmp144:
@ %bb.1:
	@DEBUG_VALUE: BSP_QSPI_GetStatus:s_command <- [DW_OP_plus_uconst 8] [$sp+0]
	.loc	5 419 7 is_stmt 1       @ ../Drivers/BSP/STM32F746/stm32746g_qspi.c:419:7
	ldr	r0, __arm_cp.9_0
	add.w	r1, sp, #7
.Ltmp145:
	@DEBUG_VALUE: BSP_QSPI_GetStatus:reg <- [DW_OP_plus_uconst 7] [$sp+0]
	movw	r2, #5000
	bl	HAL_QSPI_Receive
.Ltmp146:
	.loc	5 419 7 is_stmt 0       @ ../Drivers/BSP/STM32F746/stm32746g_qspi.c:419:7
	cbnz	r0, .LBB9_3
.Ltmp147:
@ %bb.2:
	@DEBUG_VALUE: BSP_QSPI_GetStatus:reg <- [DW_OP_plus_uconst 7] [$sp+0]
	@DEBUG_VALUE: BSP_QSPI_GetStatus:s_command <- [DW_OP_plus_uconst 8] [$sp+0]
	.loc	5 425 8 is_stmt 1       @ ../Drivers/BSP/STM32F746/stm32746g_qspi.c:425:8
	ldrb.w	r0, [sp, #7]
.Ltmp148:
	.loc	5 425 7 is_stmt 0       @ ../Drivers/BSP/STM32F746/stm32746g_qspi.c:425:7
	tst.w	r0, #58
	beq	.LBB9_5
.Ltmp149:
.LBB9_3:
	@DEBUG_VALUE: BSP_QSPI_GetStatus:reg <- [DW_OP_plus_uconst 7] [$sp+0]
	@DEBUG_VALUE: BSP_QSPI_GetStatus:s_command <- [DW_OP_plus_uconst 8] [$sp+0]
	.loc	5 0 7                   @ ../Drivers/BSP/STM32F746/stm32746g_qspi.c:0:7
	movs	r4, #1
.Ltmp150:
.LBB9_4:
	@DEBUG_VALUE: BSP_QSPI_GetStatus:s_command <- [DW_OP_plus_uconst 8] [$sp+0]
	.loc	5 441 1 is_stmt 1       @ ../Drivers/BSP/STM32F746/stm32746g_qspi.c:441:1
	uxtb	r0, r4
	add	sp, #64
.Ltmp151:
	pop	{r4, pc}
.LBB9_5:
.Ltmp152:
	@DEBUG_VALUE: BSP_QSPI_GetStatus:reg <- [DW_OP_plus_uconst 7] [$sp+0]
	@DEBUG_VALUE: BSP_QSPI_GetStatus:s_command <- [DW_OP_plus_uconst 8] [$sp+0]
	.loc	5 429 12                @ ../Drivers/BSP/STM32F746/stm32746g_qspi.c:429:12
	tst.w	r0, #68
.Ltmp153:
	.loc	5 433 12                @ ../Drivers/BSP/STM32F746/stm32746g_qspi.c:433:12
	itte	eq
	moveq	r1, #2
	biceq.w	r4, r1, r0, lsr #6
	movne	r4, #8
	b	.LBB9_4
.Ltmp154:
	.p2align	2
@ %bb.6:
	.loc	5 0 12 is_stmt 0        @ ../Drivers/BSP/STM32F746/stm32746g_qspi.c:0:12
__arm_cp.9_0:
	.long	.L_MergedGlobals.1
.Lcpi_end15:
	.size	__arm_cp.9_0, .Lcpi_end15-__arm_cp.9_0
.Lfunc_end9:
	.size	BSP_QSPI_GetStatus, .Lfunc_end9-BSP_QSPI_GetStatus
	.cfi_endproc
	.cantunwind
	.fnend
                                        @ -- End function
	.section	.text.BSP_QSPI_GetInfo,"ax",%progbits
	.hidden	BSP_QSPI_GetInfo        @ -- Begin function BSP_QSPI_GetInfo
	.globl	BSP_QSPI_GetInfo
	.p2align	1
	.type	BSP_QSPI_GetInfo,%function
	.code	16                      @ @BSP_QSPI_GetInfo
	.thumb_func
BSP_QSPI_GetInfo:
.Lfunc_begin10:
	.loc	5 449 0 is_stmt 1       @ ../Drivers/BSP/STM32F746/stm32746g_qspi.c:449:0
	.fnstart
	.cfi_startproc
@ %bb.0:
	@DEBUG_VALUE: BSP_QSPI_GetInfo:pInfo <- $r0
	@DEBUG_VALUE: BSP_QSPI_GetInfo:pInfo <- $r0
	.loc	5 452 29 prologue_end   @ ../Drivers/BSP/STM32F746/stm32746g_qspi.c:452:29
	mov.w	r1, #4096
	.loc	5 451 29                @ ../Drivers/BSP/STM32F746/stm32746g_qspi.c:451:29
	mov.w	r2, #16777216
	.loc	5 454 29                @ ../Drivers/BSP/STM32F746/stm32746g_qspi.c:454:29
	mov.w	r3, #256
	.loc	5 455 29                @ ../Drivers/BSP/STM32F746/stm32746g_qspi.c:455:29
	mov.w	r12, #65536
	.loc	5 451 29                @ ../Drivers/BSP/STM32F746/stm32746g_qspi.c:451:29
	strd	r2, r1, [r0], #8
.Ltmp155:
	.loc	5 453 29                @ ../Drivers/BSP/STM32F746/stm32746g_qspi.c:453:29
	stm.w	r0, {r1, r3, r12}
	.loc	5 457 3                 @ ../Drivers/BSP/STM32F746/stm32746g_qspi.c:457:3
	movs	r0, #0
	bx	lr
.Ltmp156:
.Lfunc_end10:
	.size	BSP_QSPI_GetInfo, .Lfunc_end10-BSP_QSPI_GetInfo
	.cfi_endproc
	.cantunwind
	.fnend
                                        @ -- End function
	.section	.text.HAL_QSPI_MspDeInit,"ax",%progbits
	.hidden	HAL_QSPI_MspDeInit      @ -- Begin function HAL_QSPI_MspDeInit
	.globl	HAL_QSPI_MspDeInit
	.p2align	2
	.type	HAL_QSPI_MspDeInit,%function
	.code	16                      @ @HAL_QSPI_MspDeInit
	.thumb_func
HAL_QSPI_MspDeInit:
.Lfunc_begin11:
	.loc	5 649 0                 @ ../Drivers/BSP/STM32F746/stm32746g_qspi.c:649:0
	.fnstart
	.cfi_startproc
@ %bb.0:
	.save	{r4, r5, r6, lr}
	push	{r4, r5, r6, lr}
	.cfi_def_cfa_offset 16
	.cfi_offset lr, -4
	.cfi_offset r6, -8
	.cfi_offset r5, -12
	.cfi_offset r4, -16
	@DEBUG_VALUE: HAL_QSPI_MspDeInit:hqspi <- $r0
.Ltmp157:
	.loc	5 653 5 prologue_end    @ ../Drivers/BSP/STM32F746/stm32746g_qspi.c:653:5
	movs	r0, #70
.Ltmp158:
	bl	HAL_NVIC_DisableIRQ
	.loc	5 654 5                 @ ../Drivers/BSP/STM32F746/stm32746g_qspi.c:654:5
	movs	r0, #92
	bl	HAL_NVIC_DisableIRQ
	.loc	5 658 19                @ ../Drivers/BSP/STM32F746/stm32746g_qspi.c:658:19
	ldr	r0, __arm_cp.11_0
	ldr	r1, __arm_cp.11_1
	str	r1, [r0]
	.loc	5 659 5                 @ ../Drivers/BSP/STM32F746/stm32746g_qspi.c:659:5
	bl	HAL_DMA_DeInit
	ldr	r4, __arm_cp.11_2
	.loc	5 661 5                 @ ../Drivers/BSP/STM32F746/stm32746g_qspi.c:661:5
	ldr	r6, __arm_cp.11_3
	movs	r1, #64
	sub.w	r5, r4, #4096
	mov	r0, r5
	blx	r6
	.loc	5 662 5                 @ ../Drivers/BSP/STM32F746/stm32746g_qspi.c:662:5
	mov	r0, r5
	movs	r1, #4
	blx	r6
	.loc	5 663 5                 @ ../Drivers/BSP/STM32F746/stm32746g_qspi.c:663:5
	mov	r0, r4
	mov.w	r1, #256
	blx	r6
	.loc	5 664 5                 @ ../Drivers/BSP/STM32F746/stm32746g_qspi.c:664:5
	mov	r0, r4
	mov.w	r1, #512
	blx	r6
	.loc	5 665 5                 @ ../Drivers/BSP/STM32F746/stm32746g_qspi.c:665:5
	mov	r0, r4
	movs	r1, #128
	blx	r6
	.loc	5 666 5                 @ ../Drivers/BSP/STM32F746/stm32746g_qspi.c:666:5
	mov	r0, r4
	movs	r1, #64
	blx	r6
	ldr	r0, __arm_cp.11_4
	.loc	5 670 5                 @ ../Drivers/BSP/STM32F746/stm32746g_qspi.c:670:5
	ldr	r1, [r0]
	orr	r1, r1, #2
	str	r1, [r0]
	.loc	5 671 5                 @ ../Drivers/BSP/STM32F746/stm32746g_qspi.c:671:5
	ldr	r1, [r0]
	bic	r1, r1, #2
	str	r1, [r0]
	.loc	5 674 5                 @ ../Drivers/BSP/STM32F746/stm32746g_qspi.c:674:5
	ldr	r1, [r0, #32]
	bic	r1, r1, #2
	str	r1, [r0, #32]
	.loc	5 675 1                 @ ../Drivers/BSP/STM32F746/stm32746g_qspi.c:675:1
	pop	{r4, r5, r6, pc}
.Ltmp159:
	.p2align	2
@ %bb.1:
	.loc	5 0 1 is_stmt 0         @ ../Drivers/BSP/STM32F746/stm32746g_qspi.c:0:1
__arm_cp.11_0:
	.long	HAL_QSPI_MspDeInit.hdma
.Lcpi_end16:
	.size	__arm_cp.11_0, .Lcpi_end16-__arm_cp.11_0
__arm_cp.11_1:
	.long	1073898680              @ 0x400264b8
.Lcpi_end17:
	.size	__arm_cp.11_1, .Lcpi_end17-__arm_cp.11_1
__arm_cp.11_2:
	.long	1073878016              @ 0x40021400
.Lcpi_end18:
	.size	__arm_cp.11_2, .Lcpi_end18-__arm_cp.11_2
__arm_cp.11_3:
	.long	HAL_GPIO_DeInit
.Lcpi_end19:
	.size	__arm_cp.11_3, .Lcpi_end19-__arm_cp.11_3
__arm_cp.11_4:
	.long	1073887256              @ 0x40023818
.Lcpi_end20:
	.size	__arm_cp.11_4, .Lcpi_end20-__arm_cp.11_4
.Lfunc_end11:
	.size	HAL_QSPI_MspDeInit, .Lfunc_end11-HAL_QSPI_MspDeInit
	.cfi_endproc
	.cantunwind
	.fnend
                                        @ -- End function
	.section	.text.HAL_QSPI_MspInit,"ax",%progbits
	.hidden	HAL_QSPI_MspInit        @ -- Begin function HAL_QSPI_MspInit
	.globl	HAL_QSPI_MspInit
	.p2align	2
	.type	HAL_QSPI_MspInit,%function
	.code	16                      @ @HAL_QSPI_MspInit
	.thumb_func
HAL_QSPI_MspInit:
.Lfunc_begin12:
	.loc	5 557 0 is_stmt 1       @ ../Drivers/BSP/STM32F746/stm32746g_qspi.c:557:0
	.fnstart
	.cfi_startproc
@ %bb.0:
	.save	{r4, r5, r6, r7, r8, r9, r10, lr}
	push.w	{r4, r5, r6, r7, r8, r9, r10, lr}
	.cfi_def_cfa_offset 32
	.cfi_offset lr, -4
	.cfi_offset r10, -8
	.cfi_offset r9, -12
	.cfi_offset r8, -16
	.cfi_offset r7, -20
	.cfi_offset r6, -24
	.cfi_offset r5, -28
	.cfi_offset r4, -32
	.pad	#24
	sub	sp, #24
	.cfi_def_cfa_offset 56
	@DEBUG_VALUE: HAL_QSPI_MspInit:hqspi <- $r0
	ldr	r0, __arm_cp.12_0
.Ltmp160:
	ldr	r4, __arm_cp.12_1
.Ltmp161:
	.loc	5 584 5 prologue_end    @ ../Drivers/BSP/STM32F746/stm32746g_qspi.c:584:5
	ldr	r7, __arm_cp.12_2
	.loc	5 579 31                @ ../Drivers/BSP/STM32F746/stm32746g_qspi.c:579:31
	mov.w	r8, #64
	add	r5, sp, #4
.Ltmp162:
	@DEBUG_VALUE: HAL_QSPI_MspInit:GPIO_InitStruct <- [DW_OP_plus_uconst 4] [$sp+0]
	.loc	5 583 31                @ ../Drivers/BSP/STM32F746/stm32746g_qspi.c:583:31
	mov.w	r10, #10
.Ltmp163:
	.loc	5 563 5                 @ ../Drivers/BSP/STM32F746/stm32746g_qspi.c:563:5
	ldr	r1, [r0, #8]
.Ltmp164:
	.loc	5 584 5                 @ ../Drivers/BSP/STM32F746/stm32746g_qspi.c:584:5
	sub.w	r6, r4, #4096
.Ltmp165:
	.loc	5 563 5                 @ ../Drivers/BSP/STM32F746/stm32746g_qspi.c:563:5
	orr	r1, r1, #2
	str	r1, [r0, #8]
	ldr	r1, [r0, #8]
	and	r1, r1, #2
.Ltmp166:
	@DEBUG_VALUE: tmpreg <- $r1
	str	r1, [sp, #4]
	ldr	r1, [sp, #4]
.Ltmp167:
	@DEBUG_VALUE: tmpreg <- $r1
	.loc	5 565 5                 @ ../Drivers/BSP/STM32F746/stm32746g_qspi.c:565:5
	ldr	r1, [r0, #-24]
.Ltmp168:
	orr	r1, r1, #2
	str	r1, [r0, #-24]
	.loc	5 566 5                 @ ../Drivers/BSP/STM32F746/stm32746g_qspi.c:566:5
	ldr	r1, [r0, #-24]
	bic	r1, r1, #2
	str	r1, [r0, #-24]
.Ltmp169:
	.loc	5 568 5                 @ ../Drivers/BSP/STM32F746/stm32746g_qspi.c:568:5
	ldr	r1, [r0]
	orr	r1, r1, #2
	str	r1, [r0]
	ldr	r1, [r0]
	and	r1, r1, #2
.Ltmp170:
	@DEBUG_VALUE: tmpreg <- $r1
	str	r1, [sp, #4]
	ldr	r1, [sp, #4]
.Ltmp171:
	@DEBUG_VALUE: tmpreg <- $r1
	.loc	5 569 5                 @ ../Drivers/BSP/STM32F746/stm32746g_qspi.c:569:5
	ldr	r1, [r0]
.Ltmp172:
	orr	r1, r1, #2
	str	r1, [r0]
	ldr	r1, [r0]
	and	r1, r1, #2
.Ltmp173:
	@DEBUG_VALUE: tmpreg <- $r1
	str	r1, [sp, #4]
	ldr	r1, [sp, #4]
.Ltmp174:
	@DEBUG_VALUE: tmpreg <- $r1
	.loc	5 570 5                 @ ../Drivers/BSP/STM32F746/stm32746g_qspi.c:570:5
	ldr	r1, [r0]
.Ltmp175:
	orr	r1, r1, #32
	str	r1, [r0]
	ldr	r1, [r0]
	and	r1, r1, #32
.Ltmp176:
	@DEBUG_VALUE: tmpreg <- $r1
	str	r1, [sp, #4]
	ldr	r1, [sp, #4]
.Ltmp177:
	@DEBUG_VALUE: tmpreg <- $r1
	.loc	5 571 5                 @ ../Drivers/BSP/STM32F746/stm32746g_qspi.c:571:5
	ldr	r1, [r0]
.Ltmp178:
	orr	r1, r1, #32
	str	r1, [r0]
	ldr	r1, [r0]
	and	r1, r1, #32
.Ltmp179:
	@DEBUG_VALUE: tmpreg <- $r1
	str	r1, [sp, #4]
	ldr	r1, [sp, #4]
.Ltmp180:
	@DEBUG_VALUE: tmpreg <- $r1
	.loc	5 572 5                 @ ../Drivers/BSP/STM32F746/stm32746g_qspi.c:572:5
	ldr	r1, [r0]
.Ltmp181:
	orr	r1, r1, #32
	str	r1, [r0]
	ldr	r1, [r0]
	and	r1, r1, #32
.Ltmp182:
	@DEBUG_VALUE: tmpreg <- $r1
	str	r1, [sp, #4]
	ldr	r1, [sp, #4]
.Ltmp183:
	@DEBUG_VALUE: tmpreg <- $r1
	.loc	5 573 5                 @ ../Drivers/BSP/STM32F746/stm32746g_qspi.c:573:5
	ldr	r1, [r0]
.Ltmp184:
	orr	r1, r1, #32
	str	r1, [r0]
.Ltmp185:
	.loc	5 584 5                 @ ../Drivers/BSP/STM32F746/stm32746g_qspi.c:584:5
	mov	r1, r5
.Ltmp186:
	.loc	5 573 5                 @ ../Drivers/BSP/STM32F746/stm32746g_qspi.c:573:5
	ldr	r0, [r0]
	and	r0, r0, #32
.Ltmp187:
	@DEBUG_VALUE: tmpreg <- $r0
	str	r0, [sp, #4]
	ldr	r0, [sp, #4]
.Ltmp188:
	@DEBUG_VALUE: tmpreg <- $r0
	.loc	5 563 5                 @ ../Drivers/BSP/STM32F746/stm32746g_qspi.c:563:5
	movs	r0, #2
.Ltmp189:
	.loc	5 580 31                @ ../Drivers/BSP/STM32F746/stm32746g_qspi.c:580:31
	str	r0, [sp, #8]
	.loc	5 581 31                @ ../Drivers/BSP/STM32F746/stm32746g_qspi.c:581:31
	movs	r0, #1
	.loc	5 579 31                @ ../Drivers/BSP/STM32F746/stm32746g_qspi.c:579:31
	str.w	r8, [sp, #4]
	.loc	5 581 31                @ ../Drivers/BSP/STM32F746/stm32746g_qspi.c:581:31
	str	r0, [sp, #12]
	.loc	5 582 31                @ ../Drivers/BSP/STM32F746/stm32746g_qspi.c:582:31
	movs	r0, #3
	str	r0, [sp, #16]
	.loc	5 584 5                 @ ../Drivers/BSP/STM32F746/stm32746g_qspi.c:584:5
	mov	r0, r6
	.loc	5 583 31                @ ../Drivers/BSP/STM32F746/stm32746g_qspi.c:583:31
	str.w	r10, [sp, #20]
	.loc	5 584 5                 @ ../Drivers/BSP/STM32F746/stm32746g_qspi.c:584:5
	blx	r7
	movs	r0, #0
	.loc	5 589 31                @ ../Drivers/BSP/STM32F746/stm32746g_qspi.c:589:31
	mov.w	r9, #9
	.loc	5 590 5                 @ ../Drivers/BSP/STM32F746/stm32746g_qspi.c:590:5
	mov	r1, r5
	.loc	5 588 31                @ ../Drivers/BSP/STM32F746/stm32746g_qspi.c:588:31
	str	r0, [sp, #12]
	movs	r0, #4
	.loc	5 587 31                @ ../Drivers/BSP/STM32F746/stm32746g_qspi.c:587:31
	str	r0, [sp, #4]
	.loc	5 590 5                 @ ../Drivers/BSP/STM32F746/stm32746g_qspi.c:590:5
	mov	r0, r6
	.loc	5 589 31                @ ../Drivers/BSP/STM32F746/stm32746g_qspi.c:589:31
	str.w	r9, [sp, #20]
	.loc	5 590 5                 @ ../Drivers/BSP/STM32F746/stm32746g_qspi.c:590:5
	blx	r7
	.loc	5 593 31                @ ../Drivers/BSP/STM32F746/stm32746g_qspi.c:593:31
	mov.w	r0, #256
	.loc	5 594 31                @ ../Drivers/BSP/STM32F746/stm32746g_qspi.c:594:31
	str.w	r10, [sp, #20]
	.loc	5 595 5                 @ ../Drivers/BSP/STM32F746/stm32746g_qspi.c:595:5
	mov	r1, r5
	.loc	5 593 31                @ ../Drivers/BSP/STM32F746/stm32746g_qspi.c:593:31
	str	r0, [sp, #4]
	.loc	5 595 5                 @ ../Drivers/BSP/STM32F746/stm32746g_qspi.c:595:5
	mov	r0, r4
	blx	r7
	.loc	5 598 31                @ ../Drivers/BSP/STM32F746/stm32746g_qspi.c:598:31
	mov.w	r0, #512
	.loc	5 599 31                @ ../Drivers/BSP/STM32F746/stm32746g_qspi.c:599:31
	str.w	r10, [sp, #20]
	.loc	5 600 5                 @ ../Drivers/BSP/STM32F746/stm32746g_qspi.c:600:5
	mov	r1, r5
	.loc	5 598 31                @ ../Drivers/BSP/STM32F746/stm32746g_qspi.c:598:31
	str	r0, [sp, #4]
	.loc	5 600 5                 @ ../Drivers/BSP/STM32F746/stm32746g_qspi.c:600:5
	mov	r0, r4
	blx	r7
	.loc	5 603 31                @ ../Drivers/BSP/STM32F746/stm32746g_qspi.c:603:31
	movs	r0, #128
	.loc	5 604 31                @ ../Drivers/BSP/STM32F746/stm32746g_qspi.c:604:31
	str.w	r9, [sp, #20]
	.loc	5 605 5                 @ ../Drivers/BSP/STM32F746/stm32746g_qspi.c:605:5
	mov	r1, r5
	.loc	5 603 31                @ ../Drivers/BSP/STM32F746/stm32746g_qspi.c:603:31
	str	r0, [sp, #4]
	.loc	5 605 5                 @ ../Drivers/BSP/STM32F746/stm32746g_qspi.c:605:5
	mov	r0, r4
	blx	r7
	.loc	5 610 5                 @ ../Drivers/BSP/STM32F746/stm32746g_qspi.c:610:5
	mov	r0, r4
	mov	r1, r5
	.loc	5 609 31                @ ../Drivers/BSP/STM32F746/stm32746g_qspi.c:609:31
	str.w	r9, [sp, #20]
	.loc	5 608 31                @ ../Drivers/BSP/STM32F746/stm32746g_qspi.c:608:31
	str.w	r8, [sp, #4]
	.loc	5 610 5                 @ ../Drivers/BSP/STM32F746/stm32746g_qspi.c:610:5
	blx	r7
	.loc	5 614 5                 @ ../Drivers/BSP/STM32F746/stm32746g_qspi.c:614:5
	movs	r0, #92
	movs	r1, #15
	movs	r2, #0
	bl	HAL_NVIC_SetPriority
	.loc	5 615 5                 @ ../Drivers/BSP/STM32F746/stm32746g_qspi.c:615:5
	movs	r0, #92
	bl	HAL_NVIC_EnableIRQ
	.loc	5 638 1                 @ ../Drivers/BSP/STM32F746/stm32746g_qspi.c:638:1
	add	sp, #24
.Ltmp190:
	pop.w	{r4, r5, r6, r7, r8, r9, r10, pc}
.Ltmp191:
	.p2align	2
@ %bb.1:
	.loc	5 0 1 is_stmt 0         @ ../Drivers/BSP/STM32F746/stm32746g_qspi.c:0:1
__arm_cp.12_0:
	.long	1073887280              @ 0x40023830
.Lcpi_end21:
	.size	__arm_cp.12_0, .Lcpi_end21-__arm_cp.12_0
__arm_cp.12_1:
	.long	1073878016              @ 0x40021400
.Lcpi_end22:
	.size	__arm_cp.12_1, .Lcpi_end22-__arm_cp.12_1
__arm_cp.12_2:
	.long	HAL_GPIO_Init
.Lcpi_end23:
	.size	__arm_cp.12_2, .Lcpi_end23-__arm_cp.12_2
.Lfunc_end12:
	.size	HAL_QSPI_MspInit, .Lfunc_end12-HAL_QSPI_MspInit
	.cfi_endproc
	.cantunwind
	.fnend
                                        @ -- End function
	.type	HAL_QSPI_MspDeInit.hdma,%object @ @HAL_QSPI_MspDeInit.hdma
	.section	.bss.HAL_QSPI_MspDeInit.hdma,"aw",%nobits
	.p2align	2
HAL_QSPI_MspDeInit.hdma:
	.zero	96
	.size	HAL_QSPI_MspDeInit.hdma, 96

	.type	.L_MergedGlobals,%object @ @_MergedGlobals
	.section	.bss..L_MergedGlobals,"aw",%nobits
	.p2align	4
.L_MergedGlobals:
	.zero	84
	.size	.L_MergedGlobals, 84

	.type	.L_MergedGlobals.1,%object @ @_MergedGlobals.1
	.section	.bss..L_MergedGlobals.1,"aw",%nobits
	.p2align	4
.L_MergedGlobals.1:
	.zero	76
	.size	.L_MergedGlobals.1, 76

	.file	7 "../Drivers/BSP/STM32F746" "stm32746g_qspi.h"
	.file	8 "../Drivers/STM32F7xx_HAL_Driver/Inc" "stm32f7xx_hal_gpio.h"
	.section	".note.GNU-stack","",%progbits
	.eabi_attribute	30, 4	@ Tag_ABI_optimization_goals
	.ARM_attribute	16, 1	@ Tag_AV_eba