	.text
	.syntax unified
	.eabi_attribute	67, "2.09"	@ Tag_conformance
	.cpu	cortex-m4
	.eabi_attribute	6, 13	@ Tag_CPU_arch
	.eabi_attribute	7, 77	@ Tag_CPU_arch_profile
	.eabi_attribute	8, 0	@ Tag_ARM_ISA_use
	.eabi_attribute	9, 2	@ Tag_THUMB_ISA_use
	.fpu	fpv4-sp-d16
	.eabi_attribute	27, 1	@ Tag_ABI_HardFP_use
	.eabi_attribute	36, 1	@ Tag_FP_HP_extension
	.eabi_attribute	34, 1	@ Tag_CPU_unaligned_access
	.eabi_attribute	17, 1	@ Tag_ABI_PCS_GOT_use
	.eabi_attribute	20, 2	@ Tag_ABI_FP_denormal
	.eabi_attribute	21, 0	@ Tag_ABI_FP_exceptions
	.eabi_attribute	23, 1	@ Tag_ABI_FP_number_model
	.eabi_attribute	24, 1	@ Tag_ABI_align_needed
	.eabi_attribute	25, 1	@ Tag_ABI_align_preserved
	.eabi_attribute	28, 1	@ Tag_ABI_VFP_args
	.eabi_attribute	38, 1	@ Tag_ABI_FP_16bit_format
	.eabi_attribute	18, 2	@ Tag_ABI_PCS_wchar_t
	.eabi_attribute	26, 1	@ Tag_ABI_enum_size
	.eabi_attribute	14, 0	@ Tag_ABI_PCS_R9_use
	.file	"common.c"
	.section	.text.Delay,"ax",%progbits
	.hidden	Delay                   @ -- Begin function Delay
	.globl	Delay
	.p2align	1
	.type	Delay,%function
	.code	16                      @ @Delay
	.thumb_func
Delay:
.Lfunc_begin0:
	.file	1 "F:\\SkyDrive\\OtvoreniProjekti\\HotelSaplast\\fw\\KontrolerHotela\\HC070318\\Project" "../Application/common.c"
	.loc	1 29 0                  @ ../Application/common.c:29:0
	.fnstart
	.cfi_sections .debug_frame
	.cfi_startproc
@ %bb.0:
	.pad	#8
	sub	sp, #8
	.cfi_def_cfa_offset 8
	str	r0, [sp, #4]
	movs	r0, #0
	movw	r1, #14464
.Ltmp0:
	.loc	1 30 16 prologue_end    @ ../Application/common.c:30:16
	str	r0, [sp]
	movt	r1, #1
.Ltmp1:
	.loc	1 32 20                 @ ../Application/common.c:32:20
	ldr	r0, [sp, #4]
	.loc	1 32 19 is_stmt 0       @ ../Application/common.c:32:19
	muls	r0, r1, r0
	b	.LBB0_2
	.p2align	2
.LBB0_1:                                @   in Loop: Header=BB0_2 Depth=1
.Ltmp2:
	.loc	1 32 45                 @ ../Application/common.c:32:45
	ldr	r0, [sp]
	subs	r0, #1
.Ltmp3:
.LBB0_2:                                @ =>This Inner Loop Header: Depth=1
	.loc	1 0 0                   @ ../Application/common.c:0:0
	str	r0, [sp]
.Ltmp4:
	.loc	1 32 28                 @ ../Application/common.c:32:28
	ldr	r0, [sp]
.Ltmp5:
	.loc	1 32 2                  @ ../Application/common.c:32:2
	cmp	r0, #0
	bne	.LBB0_1
.Ltmp6:
@ %bb.3:
	.loc	1 35 1 is_stmt 1        @ ../Application/common.c:35:1
	add	sp, #8
	bx	lr
.Ltmp7:
.Lfunc_end0:
	.size	Delay, .Lfunc_end0-Delay
	.cfi_endproc
	.cantunwind
	.fnend
                                        @ -- End function
	.section	.text.GetLenght,"ax",%progbits
	.hidden	GetLenght               @ -- Begin function GetLenght
	.globl	GetLenght
	.p2align	1
	.type	GetLenght,%function
	.code	16                      @ @GetLenght
	.thumb_func
GetLenght:
.Lfunc_begin1:
	.loc	1 38 0                  @ ../Application/common.c:38:0
	.fnstart
	.cfi_startproc
@ %bb.0:
	@DEBUG_VALUE: GetLenght:p <- $r0
	@DEBUG_VALUE: GetLenght:p <- $r0
	@DEBUG_VALUE: GetLenght:Len <- 0
	.loc	1 41 17 prologue_end    @ ../Application/common.c:41:17
	ldrb	r1, [r0]
.Ltmp8:
	.loc	1 41 3 is_stmt 0        @ ../Application/common.c:41:3
	cbz	r1, .LBB1_4
.Ltmp9:
@ %bb.1:
	@DEBUG_VALUE: GetLenght:p <- $r0
	.loc	1 41 19                 @ ../Application/common.c:41:19
	adds	r1, r0, #1
	movs	r0, #0
.Ltmp10:
	.p2align	2
.LBB1_2:                                @ =>This Inner Loop Header: Depth=1
	@DEBUG_VALUE: GetLenght:p <- undef
	@DEBUG_VALUE: GetLenght:Len <- $r0
	@DEBUG_VALUE: GetLenght:p <- [DW_OP_plus_uconst 1, DW_OP_stack_value] undef
	.loc	1 41 17                 @ ../Application/common.c:41:17
	ldrb	r2, [r1, r0]
	.loc	1 41 26                 @ ../Application/common.c:41:26
	adds	r0, #1
.Ltmp11:
	@DEBUG_VALUE: GetLenght:Len <- $r0
	.loc	1 41 3                  @ ../Application/common.c:41:3
	cmp	r2, #0
	bne	.LBB1_2
.Ltmp12:
@ %bb.3:
	@DEBUG_VALUE: GetLenght:Len <- $r0
	@DEBUG_VALUE: GetLenght:Len <- $r0
	.loc	1 42 3 is_stmt 1        @ ../Application/common.c:42:3
	bx	lr
.Ltmp13:
.LBB1_4:
	@DEBUG_VALUE: GetLenght:p <- $r0
	.loc	1 0 3 is_stmt 0         @ ../Application/common.c:0:3
	movs	r0, #0
.Ltmp14:
	@DEBUG_VALUE: GetLenght:Len <- $r0
	.loc	1 42 3                  @ ../Application/common.c:42:3
	bx	lr
.Ltmp15:
.Lfunc_end1:
	.size	GetLenght, .Lfunc_end1-GetLenght
	.cfi_endproc
	.cantunwind
	.fnend
                                        @ -- End function
	.section	.text.Str2Hex,"ax",%progbits
	.hidden	Str2Hex                 @ -- Begin function Str2Hex
	.globl	Str2Hex
	.p2align	1
	.type	Str2Hex,%function
	.code	16                      @ @Str2Hex
	.thumb_func
Str2Hex:
.Lfunc_begin2:
	.loc	1 46 0 is_stmt 1        @ ../Application/common.c:46:0
	.fnstart
	.cfi_startproc
@ %bb.0:
	.save	{r4, lr}
	push	{r4, lr}
	.cfi_def_cfa_offset 8
	.cfi_offset lr, -4
	.cfi_offset r4, -8
	@DEBUG_VALUE: Str2Hex:p_str <- $r0
	@DEBUG_VALUE: Str2Hex:p_str <- $r0
	@DEBUG_VALUE: Str2Hex:lenght <- $r1
	@DEBUG_VALUE: Str2Hex:lenght <- $r1
	@DEBUG_VALUE: Str2Hex:p_hex <- $r2
	@DEBUG_VALUE: Str2Hex:p_hex <- $r2
.Ltmp16:
	@DEBUG_VALUE: Str2Hex:hex_cnt <- 0
	@DEBUG_VALUE: Str2Hex:str_cnt <- 0
	.loc	1 49 2 prologue_end     @ ../Application/common.c:49:2
	cbz	r1, .LBB2_6
.Ltmp17:
@ %bb.1:
	@DEBUG_VALUE: Str2Hex:p_hex <- $r2
	@DEBUG_VALUE: Str2Hex:lenght <- $r1
	@DEBUG_VALUE: Str2Hex:p_str <- $r0
	.loc	1 51 7                  @ ../Application/common.c:51:7
	adds	r0, #1
.Ltmp18:
	.loc	1 0 7 is_stmt 0         @ ../Application/common.c:0:7
	mvn	r12, #111
.Ltmp19:
	.p2align	2
.LBB2_2:                                @ =>This Inner Loop Header: Depth=1
	@DEBUG_VALUE: Str2Hex:p_hex <- $r2
	@DEBUG_VALUE: Str2Hex:lenght <- $r1
	@DEBUG_VALUE: Str2Hex:lenght <- $r1
	@DEBUG_VALUE: Str2Hex:hex_cnt <- undef
	@DEBUG_VALUE: Str2Hex:str_cnt <- undef
	.loc	1 51 7                  @ ../Application/common.c:51:7
	ldrb	lr, [r0, #-1]
	.loc	1 51 22                 @ ../Application/common.c:51:22
	sub.w	r4, lr, #48
.Ltmp20:
	.loc	1 51 6                  @ ../Application/common.c:51:6
	lsls	r3, r4, #4
	cmp	r4, #9
	it	gt
	addgt.w	r3, r12, lr, lsl #4
.Ltmp21:
	.loc	1 52 23 is_stmt 1       @ ../Application/common.c:52:23
	strb	r3, [r2]
.Ltmp22:
	.loc	1 54 7                  @ ../Application/common.c:54:7
	ldrb.w	lr, [r0]
	.loc	1 54 22 is_stmt 0       @ ../Application/common.c:54:22
	sub.w	r4, lr, #48
.Ltmp23:
	.loc	1 54 6                  @ ../Application/common.c:54:6
	cmp	r4, #10
	blt	.LBB2_4
.Ltmp24:
@ %bb.3:                                @   in Loop: Header=BB2_2 Depth=1
	@DEBUG_VALUE: Str2Hex:p_hex <- $r2
	@DEBUG_VALUE: Str2Hex:lenght <- $r1
	.loc	1 54 51                 @ ../Application/common.c:54:51
	sub.w	r4, lr, #65
	uxtb	r4, r4
	cmp	r4, #6
	mvn	r4, #86
	it	lo
	mvnlo	r4, #54
	add	r4, lr
	.loc	1 54 48                 @ ../Application/common.c:54:48
	add	r3, r4
	b	.LBB2_5
.Ltmp25:
	.p2align	2
.LBB2_4:                                @   in Loop: Header=BB2_2 Depth=1
	@DEBUG_VALUE: Str2Hex:p_hex <- $r2
	@DEBUG_VALUE: Str2Hex:lenght <- $r1
	.loc	1 55 23 is_stmt 1       @ ../Application/common.c:55:23
	add	r3, r4
.Ltmp26:
.LBB2_5:                                @   in Loop: Header=BB2_2 Depth=1
	@DEBUG_VALUE: Str2Hex:p_hex <- $r2
	@DEBUG_VALUE: Str2Hex:lenght <- $r1
	.loc	1 58 3                  @ ../Application/common.c:58:3
	subs	r1, #1
.Ltmp27:
	@DEBUG_VALUE: Str2Hex:lenght <- $r1
	.loc	1 0 0 is_stmt 0         @ ../Application/common.c:0:0
	strb	r3, [r2], #1
.Ltmp28:
	@DEBUG_VALUE: Str2Hex:hex_cnt <- [DW_OP_plus_uconst 1, DW_OP_stack_value] undef
	@DEBUG_VALUE: Str2Hex:str_cnt <- [DW_OP_plus_uconst 2, DW_OP_stack_value] undef
	.loc	1 49 2 is_stmt 1        @ ../Application/common.c:49:2
	adds	r0, #2
	lsls	r3, r1, #16
	bne	.LBB2_2
.Ltmp29:
.LBB2_6:
	@DEBUG_VALUE: Str2Hex:lenght <- $r1
	.loc	1 60 1                  @ ../Application/common.c:60:1
	pop	{r4, pc}
.Ltmp30:
.Lfunc_end2:
	.size	Str2Hex, .Lfunc_end2-Str2Hex
	.cfi_endproc
	.cantunwind
	.fnend
                                        @ -- End function
	.section	.text.Hex2Str,"ax",%progbits
	.hidden	Hex2Str                 @ -- Begin function Hex2Str
	.globl	Hex2Str
	.p2align	1
	.type	Hex2Str,%function
	.code	16                      @ @Hex2Str
	.thumb_func
Hex2Str:
.Lfunc_begin3:
	.loc	1 63 0                  @ ../Application/common.c:63:0
	.fnstart
	.cfi_startproc
@ %bb.0:
	.save	{r4, lr}
	push	{r4, lr}
	.cfi_def_cfa_offset 8
	.cfi_offset lr, -4
	.cfi_offset r4, -8
	@DEBUG_VALUE: Hex2Str:p_hex <- $r0
	@DEBUG_VALUE: Hex2Str:p_hex <- $r0
	@DEBUG_VALUE: Hex2Str:lenght <- $r1
	@DEBUG_VALUE: Hex2Str:lenght <- $r1
	@DEBUG_VALUE: Hex2Str:p_str <- $r2
	@DEBUG_VALUE: Hex2Str:p_str <- $r2
.Ltmp31:
	@DEBUG_VALUE: Hex2Str:hex_cnt <- 0
	@DEBUG_VALUE: Hex2Str:str_cnt <- 0
	.loc	1 66 2 prologue_end     @ ../Application/common.c:66:2
	cbz	r1, .LBB3_3
.Ltmp32:
@ %bb.1:
	@DEBUG_VALUE: Hex2Str:p_str <- $r2
	@DEBUG_VALUE: Hex2Str:lenght <- $r1
	@DEBUG_VALUE: Hex2Str:p_hex <- $r0
	.loc	1 68 7                  @ ../Application/common.c:68:7
	adds	r4, r2, #1
	mov.w	r12, #55
.Ltmp33:
	.p2align	2
.LBB3_2:                                @ =>This Inner Loop Header: Depth=1
	@DEBUG_VALUE: Hex2Str:p_str <- $r2
	@DEBUG_VALUE: Hex2Str:lenght <- $r1
	@DEBUG_VALUE: Hex2Str:p_hex <- $r0
	@DEBUG_VALUE: Hex2Str:lenght <- $r1
	@DEBUG_VALUE: Hex2Str:hex_cnt <- undef
	@DEBUG_VALUE: Hex2Str:str_cnt <- undef
	ldrb.w	lr, [r0]
.Ltmp34:
	.loc	1 75 3                  @ ../Application/common.c:75:3
	subs	r1, #1
.Ltmp35:
	@DEBUG_VALUE: Hex2Str:lenght <- $r1
	.loc	1 68 22                 @ ../Application/common.c:68:22
	lsr.w	r3, lr, #4
.Ltmp36:
	.loc	1 68 6 is_stmt 0        @ ../Application/common.c:68:6
	cmp.w	lr, #159
	add.w	r3, r3, #48
	it	hi
	addhi.w	r3, r12, lr, lsr #4
.Ltmp37:
	.loc	1 69 23 is_stmt 1       @ ../Application/common.c:69:23
	strb	r3, [r4, #-1]
.Ltmp38:
	.loc	1 71 7                  @ ../Application/common.c:71:7
	ldrb	r3, [r0], #1
.Ltmp39:
	.loc	1 71 22 is_stmt 0       @ ../Application/common.c:71:22
	and	r3, r3, #15
.Ltmp40:
	.loc	1 71 6                  @ ../Application/common.c:71:6
	add.w	r2, r3, #48
.Ltmp41:
	cmp	r3, #9
	it	hi
	addhi.w	r2, r3, #55
.Ltmp42:
	.loc	1 72 24 is_stmt 1       @ ../Application/common.c:72:24
	strb	r2, [r4]
.Ltmp43:
	@DEBUG_VALUE: Hex2Str:hex_cnt <- [DW_OP_plus_uconst 1, DW_OP_stack_value] undef
	@DEBUG_VALUE: Hex2Str:str_cnt <- [DW_OP_plus_uconst 2, DW_OP_stack_value] undef
	.loc	1 66 2                  @ ../Application/common.c:66:2
	adds	r4, #2
	lsls	r2, r1, #16
	bne	.LBB3_2
.Ltmp44:
.LBB3_3:
	@DEBUG_VALUE: Hex2Str:lenght <- $r1
	.loc	1 77 1                  @ ../Application/common.c:77:1
	pop	{r4, pc}
.Ltmp45:
.Lfunc_end3:
	.size	Hex2Str, .Lfunc_end3-Hex2Str
	.cfi_endproc
	.cantunwind
	.fnend
                                        @ -- End function
	.section	.text.Int2Str,"ax",%progbits
	.hidden	Int2Str                 @ -- Begin function Int2Str
	.globl	Int2Str
	.p2align	1
	.type	Int2Str,%function
	.code	16                      @ @Int2Str
	.thumb_func
Int2Str:
.Lfunc_begin4:
	.loc	1 79 0                  @ ../Application/common.c:79:0
	.fnstart
	.cfi_startproc
@ %bb.0:
	.save	{r4, r5, r6, lr}
	push	{r4, r5, r6, lr}
	.cfi_def_cfa_offset 16
	.cfi_offset lr, -4
	.cfi_offset r6, -8
	.cfi_offset r5, -12
	.cfi_offset r4, -16
	@DEBUG_VALUE: Int2Str:p_str <- $r0
	@DEBUG_VALUE: Int2Str:p_str <- $r0
	@DEBUG_VALUE: Int2Str:intnum <- $r1
	movw	r12, #51712
	movw	lr, #52429
	movs	r3, #0
	movs	r2, #10
.Ltmp46:
	@DEBUG_VALUE: Int2Str:i <- 0
	@DEBUG_VALUE: Int2Str:status <- 0
	@DEBUG_VALUE: Int2Str:pos <- 0
	@DEBUG_VALUE: Int2Str:divider <- 1000000000
	movs	r4, #0
	movt	r12, #15258
	movt	lr, #52428
.Ltmp47:
	.p2align	2
.LBB4_1:                                @ =>This Inner Loop Header: Depth=1
	@DEBUG_VALUE: Int2Str:intnum <- $r1
	@DEBUG_VALUE: Int2Str:p_str <- $r0
	@DEBUG_VALUE: Int2Str:intnum <- $r1
	@DEBUG_VALUE: Int2Str:divider <- $r12
	@DEBUG_VALUE: Int2Str:pos <- $r4
	@DEBUG_VALUE: Int2Str:status <- $r3
	@DEBUG_VALUE: Int2Str:i <- undef
	.loc	1 84 28 prologue_end    @ ../Application/common.c:84:28
	udiv	r5, r1, r12
	.loc	1 84 20 is_stmt 0       @ ../Application/common.c:84:20
	add.w	r6, r5, #48
	mls	r1, r5, r12, r1
.Ltmp48:
	@DEBUG_VALUE: Int2Str:intnum <- $r1
	uxtb	r5, r5
.Ltmp49:
	.loc	1 88 41 is_stmt 1       @ ../Application/common.c:88:41
	orrs	r5, r3
.Ltmp50:
	.loc	1 84 18                 @ ../Application/common.c:84:18
	strb	r6, [r0, r4]
	.loc	1 88 9                  @ ../Application/common.c:88:9
	mov	r6, r5
	itt	ne
	addne	r6, r4, #1
.Ltmp51:
	@DEBUG_VALUE: Int2Str:pos <- $r6
	.loc	1 88 31 is_stmt 0       @ ../Application/common.c:88:31
	movne	r5, #1
.Ltmp52:
	.loc	1 88 9                  @ ../Application/common.c:88:9
	add	r3, r5
.Ltmp53:
	@DEBUG_VALUE: Int2Str:status <- $r3
	.loc	1 82 17 is_stmt 1       @ ../Application/common.c:82:17
	subs	r2, #1
.Ltmp54:
	.loc	1 87 13                 @ ../Application/common.c:87:13
	umull	r5, r4, r12, lr
	lsr.w	r12, r4, #3
.Ltmp55:
	@DEBUG_VALUE: Int2Str:i <- [DW_OP_plus_uconst 1, DW_OP_stack_value] undef
	@DEBUG_VALUE: Int2Str:divider <- $r12
	.loc	1 0 13 is_stmt 0        @ ../Application/common.c:0:13
	mov	r4, r6
.Ltmp56:
	@DEBUG_VALUE: Int2Str:pos <- $r4
	@DEBUG_VALUE: Int2Str:pos <- $r4
	.loc	1 82 3 is_stmt 1        @ ../Application/common.c:82:3
	bne	.LBB4_1
.Ltmp57:
@ %bb.2:
	@DEBUG_VALUE: Int2Str:status <- $r3
	@DEBUG_VALUE: Int2Str:pos <- $r4
	@DEBUG_VALUE: Int2Str:divider <- $r12
	@DEBUG_VALUE: Int2Str:intnum <- $r1
	@DEBUG_VALUE: Int2Str:p_str <- $r0
	.loc	1 97 1                  @ ../Application/common.c:97:1
	pop	{r4, r5, r6, pc}
.Ltmp58:
.Lfunc_end4:
	.size	Int2Str, .Lfunc_end4-Int2Str
	.cfi_endproc
	.cantunwind
	.fnend
                                        @ -- End function
	.section	.text.Str2Int,"ax",%progbits
	.hidden	Str2Int                 @ -- Begin function Str2Int
	.globl	Str2Int
	.p2align	1
	.type	Str2Int,%function
	.code	16                      @ @Str2Int
	.thumb_func
Str2Int:
.Lfunc_begin5:
	.loc	1 101 0                 @ ../Application/common.c:101:0
	.fnstart
	.cfi_startproc
@ %bb.0:
	.save	{r4, lr}
	push	{r4, lr}
	.cfi_def_cfa_offset 8
	.cfi_offset lr, -4
	.cfi_offset r4, -8
	@DEBUG_VALUE: Str2Int:p_inputstr <- $r0
	@DEBUG_VALUE: Str2Int:p_inputstr <- $r0
	@DEBUG_VALUE: Str2Int:p_intnum <- $r1
	@DEBUG_VALUE: Str2Int:p_intnum <- $r1
.Ltmp59:
	@DEBUG_VALUE: Str2Int:i <- 0
	@DEBUG_VALUE: Str2Int:res <- 0
	@DEBUG_VALUE: Str2Int:val <- 0
	.loc	1 105 8 prologue_end    @ ../Application/common.c:105:8
	ldrb	r3, [r0]
	.loc	1 105 30 is_stmt 0      @ ../Application/common.c:105:30
	cmp	r3, #48
	bne	.LBB5_15
.Ltmp60:
@ %bb.1:
	@DEBUG_VALUE: Str2Int:p_intnum <- $r1
	@DEBUG_VALUE: Str2Int:p_inputstr <- $r0
	.loc	1 105 35                @ ../Application/common.c:105:35
	ldrb	r2, [r0, #1]
	.loc	1 105 57                @ ../Application/common.c:105:57
	orr	r2, r2, #32
	cmp	r2, #120
	bne	.LBB5_15
.Ltmp61:
@ %bb.2:
	@DEBUG_VALUE: Str2Int:p_intnum <- $r1
	@DEBUG_VALUE: Str2Int:p_inputstr <- $r0
	.loc	1 0 57                  @ ../Application/common.c:0:57
	movs	r4, #2
	mov.w	r12, #0
.Ltmp62:
	.p2align	2
.LBB5_3:                                @ =>This Inner Loop Header: Depth=1
	@DEBUG_VALUE: Str2Int:p_intnum <- $r1
	@DEBUG_VALUE: Str2Int:p_inputstr <- $r0
	@DEBUG_VALUE: Str2Int:i <- $r4
	@DEBUG_VALUE: Str2Int:val <- $r12
	.loc	1 108 29 is_stmt 1      @ ../Application/common.c:108:29
	ldrb	r2, [r0, r4]
	.loc	1 108 5 is_stmt 0       @ ../Application/common.c:108:5
	cbz	r2, .LBB5_13
.Ltmp63:
@ %bb.4:                                @   in Loop: Header=BB5_3 Depth=1
	@DEBUG_VALUE: Str2Int:val <- $r12
	@DEBUG_VALUE: Str2Int:i <- $r4
	@DEBUG_VALUE: Str2Int:p_intnum <- $r1
	@DEBUG_VALUE: Str2Int:p_inputstr <- $r0
	.loc	1 110 11 is_stmt 1      @ ../Application/common.c:110:11
	cmp	r2, #65
	blo	.LBB5_7
.Ltmp64:
@ %bb.5:                                @   in Loop: Header=BB5_3 Depth=1
	@DEBUG_VALUE: Str2Int:val <- $r12
	@DEBUG_VALUE: Str2Int:i <- $r4
	@DEBUG_VALUE: Str2Int:p_intnum <- $r1
	@DEBUG_VALUE: Str2Int:p_inputstr <- $r0
	cmp	r2, #71
	bhs	.LBB5_9
.Ltmp65:
@ %bb.6:                                @   in Loop: Header=BB5_3 Depth=1
	@DEBUG_VALUE: Str2Int:val <- $r12
	@DEBUG_VALUE: Str2Int:i <- $r4
	@DEBUG_VALUE: Str2Int:p_intnum <- $r1
	@DEBUG_VALUE: Str2Int:p_inputstr <- $r0
	.loc	1 0 11 is_stmt 0        @ ../Application/common.c:0:11
	mvn	lr, #54
	b	.LBB5_11
.Ltmp66:
	.p2align	2
.LBB5_7:                                @   in Loop: Header=BB5_3 Depth=1
	@DEBUG_VALUE: Str2Int:val <- $r12
	@DEBUG_VALUE: Str2Int:i <- $r4
	@DEBUG_VALUE: Str2Int:p_intnum <- $r1
	@DEBUG_VALUE: Str2Int:p_inputstr <- $r0
	.loc	1 110 11                @ ../Application/common.c:110:11
	sub.w	r3, r2, #48
	cmp	r3, #9
	bhi	.LBB5_24
.Ltmp67:
@ %bb.8:                                @   in Loop: Header=BB5_3 Depth=1
	@DEBUG_VALUE: Str2Int:val <- $r12
	@DEBUG_VALUE: Str2Int:i <- $r4
	@DEBUG_VALUE: Str2Int:p_intnum <- $r1
	@DEBUG_VALUE: Str2Int:p_inputstr <- $r0
	.loc	1 0 11                  @ ../Application/common.c:0:11
	mvn	lr, #47
	b	.LBB5_11
.Ltmp68:
	.p2align	2
.LBB5_9:                                @   in Loop: Header=BB5_3 Depth=1
	@DEBUG_VALUE: Str2Int:val <- $r12
	@DEBUG_VALUE: Str2Int:i <- $r4
	@DEBUG_VALUE: Str2Int:p_intnum <- $r1
	@DEBUG_VALUE: Str2Int:p_inputstr <- $r0
	.loc	1 110 11                @ ../Application/common.c:110:11
	sub.w	r3, r2, #97
	cmp	r3, #6
	bhs	.LBB5_24
.Ltmp69:
@ %bb.10:                               @   in Loop: Header=BB5_3 Depth=1
	@DEBUG_VALUE: Str2Int:val <- $r12
	@DEBUG_VALUE: Str2Int:i <- $r4
	@DEBUG_VALUE: Str2Int:p_intnum <- $r1
	@DEBUG_VALUE: Str2Int:p_inputstr <- $r0
	.loc	1 0 11                  @ ../Application/common.c:0:11
	mvn	lr, #86
.Ltmp70:
.LBB5_11:                               @   in Loop: Header=BB5_3 Depth=1
	@DEBUG_VALUE: Str2Int:val <- $r12
	@DEBUG_VALUE: Str2Int:i <- $r4
	@DEBUG_VALUE: Str2Int:p_intnum <- $r1
	@DEBUG_VALUE: Str2Int:p_inputstr <- $r0
	.loc	1 112 28 is_stmt 1      @ ../Application/common.c:112:28
	add	r2, lr
.Ltmp71:
	.loc	1 120 8                 @ ../Application/common.c:120:8
	adds	r4, #1
.Ltmp72:
	@DEBUG_VALUE: Str2Int:i <- $r4
	.loc	1 112 26                @ ../Application/common.c:112:26
	add.w	r12, r2, r12, lsl #4
.Ltmp73:
	@DEBUG_VALUE: Str2Int:val <- $r12
	.loc	1 108 24                @ ../Application/common.c:108:24
	cmp	r4, #11
	blo	.LBB5_3
.Ltmp74:
@ %bb.12:
	@DEBUG_VALUE: Str2Int:val <- $r12
	@DEBUG_VALUE: Str2Int:i <- $r4
	@DEBUG_VALUE: Str2Int:p_intnum <- $r1
	@DEBUG_VALUE: Str2Int:p_inputstr <- $r0
	.loc	1 124 9                 @ ../Application/common.c:124:9
	ldrb	r0, [r0, r4]
.Ltmp75:
	@DEBUG_VALUE: Str2Int:res <- 0
	.loc	1 124 9 is_stmt 0       @ ../Application/common.c:124:9
	cbnz	r0, .LBB5_24
.Ltmp76:
.LBB5_13:
	@DEBUG_VALUE: Str2Int:val <- $r12
	@DEBUG_VALUE: Str2Int:p_intnum <- $r1
	.loc	1 0 0                   @ ../Application/common.c:0:0
	str.w	r12, [r1]
.Ltmp77:
.LBB5_14:
	@DEBUG_VALUE: Str2Int:p_intnum <- $r1
	movs	r0, #1
.Ltmp78:
	@DEBUG_VALUE: Str2Int:res <- 1
	@DEBUG_VALUE: Str2Int:res <- $r0
	.loc	1 166 3 is_stmt 1       @ ../Application/common.c:166:3
	pop	{r4, pc}
.Ltmp79:
.LBB5_15:
	@DEBUG_VALUE: Str2Int:p_intnum <- $r1
	@DEBUG_VALUE: Str2Int:p_inputstr <- $r0
	.loc	1 0 3 is_stmt 0         @ ../Application/common.c:0:3
	mov.w	r12, #0
	mov.w	lr, #1
	b	.LBB5_17
.Ltmp80:
	.p2align	2
.LBB5_16:                               @   in Loop: Header=BB5_17 Depth=1
	@DEBUG_VALUE: Str2Int:val <- $r12
	@DEBUG_VALUE: Str2Int:p_intnum <- $r1
	@DEBUG_VALUE: Str2Int:p_inputstr <- $r0
	.loc	1 154 19 is_stmt 1      @ ../Application/common.c:154:19
	add.w	r2, r12, r12, lsl #2
.Ltmp81:
	.loc	1 134 11                @ ../Application/common.c:134:11
	ldrb.w	r4, [r0, lr]
.Ltmp82:
	.loc	1 132 5                 @ ../Application/common.c:132:5
	add.w	lr, lr, #1
.Ltmp83:
	.loc	1 154 26                @ ../Application/common.c:154:26
	add.w	r2, r3, r2, lsl #1
	.loc	1 154 24 is_stmt 0      @ ../Application/common.c:154:24
	sub.w	r12, r2, #48
.Ltmp84:
	@DEBUG_VALUE: Str2Int:val <- $r12
	.loc	1 134 11 is_stmt 1      @ ../Application/common.c:134:11
	mov	r3, r4
.Ltmp85:
.LBB5_17:                               @ =>This Inner Loop Header: Depth=1
	@DEBUG_VALUE: Str2Int:p_intnum <- $r1
	@DEBUG_VALUE: Str2Int:p_inputstr <- $r0
	@DEBUG_VALUE: Str2Int:i <- undef
	@DEBUG_VALUE: Str2Int:res <- 0
	@DEBUG_VALUE: Str2Int:val <- $r12
	.loc	1 134 11 is_stmt 0      @ ../Application/common.c:134:11
	cmp	r3, #76
	ble	.LBB5_21
.Ltmp86:
@ %bb.18:                               @   in Loop: Header=BB5_17 Depth=1
	@DEBUG_VALUE: Str2Int:val <- $r12
	@DEBUG_VALUE: Str2Int:p_intnum <- $r1
	@DEBUG_VALUE: Str2Int:p_inputstr <- $r0
	cmp	r3, #77
	beq	.LBB5_25
.Ltmp87:
@ %bb.19:                               @   in Loop: Header=BB5_17 Depth=1
	@DEBUG_VALUE: Str2Int:val <- $r12
	@DEBUG_VALUE: Str2Int:p_intnum <- $r1
	@DEBUG_VALUE: Str2Int:p_inputstr <- $r0
	cmp	r3, #107
	beq	.LBB5_27
.Ltmp88:
@ %bb.20:                               @   in Loop: Header=BB5_17 Depth=1
	@DEBUG_VALUE: Str2Int:val <- $r12
	@DEBUG_VALUE: Str2Int:p_intnum <- $r1
	@DEBUG_VALUE: Str2Int:p_inputstr <- $r0
	cmp	r3, #109
	bne	.LBB5_23
	b	.LBB5_25
.Ltmp89:
	.p2align	2
.LBB5_21:                               @   in Loop: Header=BB5_17 Depth=1
	@DEBUG_VALUE: Str2Int:val <- $r12
	@DEBUG_VALUE: Str2Int:p_intnum <- $r1
	@DEBUG_VALUE: Str2Int:p_inputstr <- $r0
	cmp	r3, #0
	beq	.LBB5_13
.Ltmp90:
@ %bb.22:                               @   in Loop: Header=BB5_17 Depth=1
	@DEBUG_VALUE: Str2Int:val <- $r12
	@DEBUG_VALUE: Str2Int:p_intnum <- $r1
	@DEBUG_VALUE: Str2Int:p_inputstr <- $r0
	cmp	r3, #75
	beq	.LBB5_27
.Ltmp91:
.LBB5_23:                               @   in Loop: Header=BB5_17 Depth=1
	@DEBUG_VALUE: Str2Int:val <- $r12
	@DEBUG_VALUE: Str2Int:p_intnum <- $r1
	@DEBUG_VALUE: Str2Int:p_inputstr <- $r0
	.loc	1 152 16 is_stmt 1      @ ../Application/common.c:152:16
	sub.w	r4, r3, #48
	cmp	r4, #9
.Ltmp92:
	@DEBUG_VALUE: Str2Int:res <- 0
	@DEBUG_VALUE: Str2Int:i <- [DW_OP_plus_uconst 1, DW_OP_stack_value] undef
	.loc	1 132 5                 @ ../Application/common.c:132:5
	it	ls
	cmpls.w	lr, #10
	bls	.LBB5_16
.Ltmp93:
.LBB5_24:
	@DEBUG_VALUE: Str2Int:val <- $r12
	@DEBUG_VALUE: Str2Int:p_intnum <- $r1
	.loc	1 0 5 is_stmt 0         @ ../Application/common.c:0:5
	movs	r0, #0
.Ltmp94:
	@DEBUG_VALUE: Str2Int:res <- $r0
	.loc	1 166 3 is_stmt 1       @ ../Application/common.c:166:3
	pop	{r4, pc}
.Ltmp95:
.LBB5_25:
	@DEBUG_VALUE: Str2Int:val <- $r12
	@DEBUG_VALUE: Str2Int:p_intnum <- $r1
	@DEBUG_VALUE: Str2Int:p_inputstr <- $r0
	@DEBUG_VALUE: Str2Int:i <- undef
	.loc	1 146 16                @ ../Application/common.c:146:16
	cmp.w	lr, #1
	beq	.LBB5_24
.Ltmp96:
@ %bb.26:
	@DEBUG_VALUE: Str2Int:val <- $r12
	@DEBUG_VALUE: Str2Int:p_intnum <- $r1
	@DEBUG_VALUE: Str2Int:p_inputstr <- $r0
	.loc	1 148 19                @ ../Application/common.c:148:19
	lsl.w	r0, r12, #20
.Ltmp97:
	.loc	1 0 19 is_stmt 0        @ ../Application/common.c:0:19
	b	.LBB5_29
.Ltmp98:
.LBB5_27:
	@DEBUG_VALUE: Str2Int:val <- $r12
	@DEBUG_VALUE: Str2Int:p_intnum <- $r1
	@DEBUG_VALUE: Str2Int:p_inputstr <- $r0
	@DEBUG_VALUE: Str2Int:i <- undef
	.loc	1 140 16 is_stmt 1      @ ../Application/common.c:140:16
	cmp.w	lr, #1
	beq	.LBB5_24
.Ltmp99:
@ %bb.28:
	@DEBUG_VALUE: Str2Int:val <- $r12
	@DEBUG_VALUE: Str2Int:p_intnum <- $r1
	@DEBUG_VALUE: Str2Int:p_inputstr <- $r0
	.loc	1 142 19                @ ../Application/common.c:142:19
	lsl.w	r0, r12, #10
.Ltmp100:
.LBB5_29:
	@DEBUG_VALUE: Str2Int:val <- $r12
	@DEBUG_VALUE: Str2Int:p_intnum <- $r1
	@DEBUG_VALUE: Str2Int:val <- $r0
	.loc	1 0 0 is_stmt 0         @ ../Application/common.c:0:0
	str	r0, [r1]
	b	.LBB5_14
.Ltmp101:
.Lfunc_end5:
	.size	Str2Int, .Lfunc_end5-Str2Int
	.cfi_endproc
	.cantunwind
	.fnend
                                        @ -- End function
	.section	.text.ClearBuffer,"ax",%progbits
	.hidden	ClearBuffer             @ -- Begin function ClearBuffer
	.globl	ClearBuffer
	.p2align	1
	.type	ClearBuffer,%function
	.code	16                      @ @ClearBuffer
	.thumb_func
ClearBuffer:
.Lfunc_begin6:
	.loc	1 171 0 is_stmt 1       @ ../Application/common.c:171:0
	.fnstart
	.cfi_startproc
@ %bb.0:
	@DEBUG_VALUE: ClearBuffer:buffer <- $r0
	@DEBUG_VALUE: ClearBuffer:buffer <- $r0
	@DEBUG_VALUE: ClearBuffer:size <- $r1
	@DEBUG_VALUE: ClearBuffer:size <- $r1
	.loc	1 173 2 prologue_end    @ ../Application/common.c:173:2
	cbz	r1, .LBB6_2
.Ltmp102:
@ %bb.1:
	@DEBUG_VALUE: ClearBuffer:size <- $r1
	@DEBUG_VALUE: ClearBuffer:buffer <- $r0
	.save	{r7, lr}
	push	{r7, lr}
	.cfi_def_cfa_offset 8
	.cfi_offset lr, -4
	.cfi_offset r7, -8
.Ltmp103:
	.loc	1 175 17                @ ../Application/common.c:175:17
	bl	__aeabi_memclr
.Ltmp104:
	@DEBUG_VALUE: ClearBuffer:size <- undef
	@DEBUG_VALUE: ClearBuffer:buffer <- undef
	.loc	1 0 17 is_stmt 0        @ ../Application/common.c:0:17
	pop.w	{r7, lr}
.Ltmp105:
.LBB6_2:
	.loc	1 179 1 is_stmt 1       @ ../Application/common.c:179:1
	bx	lr
.Ltmp106:
.Lfunc_end6:
	.size	ClearBuffer, .Lfunc_end6-ClearBuffer
	.cfi_endproc
	.cantunwind
	.fnend
                                        @ -- End function
	.section	.text.ClearBuffer16,"ax",%progbits
	.hidden	ClearBuffer16           @ -- Begin function ClearBuffer16
	.globl	ClearBuffer16
	.p2align	1
	.type	ClearBuffer16,%function
	.code	16                      @ @ClearBuffer16
	.thumb_func
ClearBuffer16:
.Lfunc_begin7:
	.loc	1 183 0                 @ ../Application/common.c:183:0
	.fnstart
	.cfi_startproc
@ %bb.0:
	@DEBUG_VALUE: ClearBuffer16:buffer <- $r0
	@DEBUG_VALUE: ClearBuffer16:buffer <- $r0
	@DEBUG_VALUE: ClearBuffer16:size <- $r1
	@DEBUG_VALUE: ClearBuffer16:size <- $r1
	@DEBUG_VALUE: ClearBuffer16:bcnt <- 0
	.loc	1 187 2 prologue_end    @ ../Application/common.c:187:2
	cbz	r1, .LBB7_2
.Ltmp107:
@ %bb.1:
	@DEBUG_VALUE: ClearBuffer16:size <- $r1
	@DEBUG_VALUE: ClearBuffer16:buffer <- $r0
	.save	{r7, lr}
	push	{r7, lr}
	.cfi_def_cfa_offset 8
	.cfi_offset lr, -4
	.cfi_offset r7, -8
	.loc	1 187 8 is_stmt 0       @ ../Application/common.c:187:8
	lsls	r1, r1, #1
.Ltmp108:
	.loc	1 187 36                @ ../Application/common.c:187:36
	bl	__aeabi_memclr
.Ltmp109:
	@DEBUG_VALUE: ClearBuffer16:bcnt <- [DW_OP_plus_uconst 1, DW_OP_stack_value] undef
	@DEBUG_VALUE: ClearBuffer16:bcnt <- undef
	.loc	1 0 36                  @ ../Application/common.c:0:36
	pop.w	{r7, lr}
.LBB7_2:
	.loc	1 188 1 is_stmt 1       @ ../Application/common.c:188:1
	bx	lr
.Ltmp110:
.Lfunc_end7:
	.size	ClearBuffer16, .Lfunc_end7-ClearBuffer16
	.cfi_endproc
	.cantunwind
	.fnend
                                        @ -- End function
	.file	2 "C:\\Keil\\ARM\\ARMCLANG\\Bin\\..\\include" "stdint.h"
	.section	".note.GNU-stack","",%progbits
	.eabi_attribute	30, 3	@ Tag_ABI_optimization_goals
	.ARM_attribute	16, 1	@ Tag_AV_eba