	.text
	.syntax unified
	.eabi_attribute	67, "2.09"	@ Tag_conformance
	.cpu	cortex-m4
	.eabi_attribute	6, 13	@ Tag_CPU_arch
	.eabi_attribute	7, 77	@ Tag_CPU_arch_profile
	.eabi_attribute	8, 0	@ Tag_ARM_ISA_use
	.eabi_attribute	9, 2	@ Tag_THUMB_ISA_use
	.fpu	fpv4-sp-d16
	.eabi_attribute	27, 1	@ Tag_ABI_HardFP_use
	.eabi_attribute	36, 1	@ Tag_FP_HP_extension
	.eabi_attribute	34, 1	@ Tag_CPU_unaligned_access
	.eabi_attribute	17, 1	@ Tag_ABI_PCS_GOT_use
	.eabi_attribute	20, 2	@ Tag_ABI_FP_denormal
	.eabi_attribute	21, 0	@ Tag_ABI_FP_exceptions
	.eabi_attribute	23, 1	@ Tag_ABI_FP_number_model
	.eabi_attribute	24, 1	@ Tag_ABI_align_needed
	.eabi_attribute	25, 1	@ Tag_ABI_align_preserved
	.eabi_attribute	28, 1	@ Tag_ABI_VFP_args
	.eabi_attribute	38, 1	@ Tag_ABI_FP_16bit_format
	.eabi_attribute	18, 2	@ Tag_ABI_PCS_wchar_t
	.eabi_attribute	26, 1	@ Tag_ABI_enum_size
	.eabi_attribute	14, 0	@ Tag_ABI_PCS_R9_use
	.file	"Display.c"
	.file	1 "C:\\Keil\\ARM\\ARMCLANG\\Bin\\..\\include" "stdint.h"
	.file	2 "F:\\SkyDrive\\OtvoreniProjekti\\HotelSaplast\\fw\\KontrolerHotela\\HC070318\\Project" "../Application/Dsiplay/Display.c"
	.file	3 "F:\\SkyDrive\\OtvoreniProjekti\\HotelSaplast\\fw\\KontrolerHotela\\HC070318\\Project" "../Libraries/STemWinLibrary532/inc/GUI_Type.h"
	.file	4 "F:\\SkyDrive\\OtvoreniProjekti\\HotelSaplast\\fw\\KontrolerHotela\\HC070318\\Project" "../Libraries/STemWinLibrary532/inc/BUTTON.h"
	.file	5 "F:\\SkyDrive\\OtvoreniProjekti\\HotelSaplast\\fw\\KontrolerHotela\\HC070318\\Project" "../Libraries/STemWinLibrary532/inc/TREEVIEW.h"
	.file	6 "F:\\SkyDrive\\OtvoreniProjekti\\HotelSaplast\\fw\\KontrolerHotela\\HC070318\\Project" "../Application/Dsiplay/Display.h"
	.file	7 "F:\\SkyDrive\\OtvoreniProjekti\\HotelSaplast\\fw\\KontrolerHotela\\HC070318\\Project" "../Libraries/lwip-1.4.1/port/arch\\cc.h"
	.file	8 "F:\\SkyDrive\\OtvoreniProjekti\\HotelSaplast\\fw\\KontrolerHotela\\HC070318\\Project" "../Libraries/lwip-1.4.1/src/include/ipv4\\lwip/ip_addr.h"
	.file	9 "F:\\SkyDrive\\OtvoreniProjekti\\HotelSaplast\\fw\\KontrolerHotela\\HC070318\\Project" "../User/FATFS\\ff.h"
	.file	10 "F:\\SkyDrive\\OtvoreniProjekti\\HotelSaplast\\fw\\KontrolerHotela\\HC070318\\Project" "../User/FATFS/integer.h"
	.file	11 "F:\\SkyDrive\\OtvoreniProjekti\\HotelSaplast\\fw\\KontrolerHotela\\HC070318\\Project" "../Application\\hotel_room_controller.h"
	.section	.text.DisplayInit,"ax",%progbits
	.hidden	DisplayInit             @ -- Begin function DisplayInit
	.globl	DisplayInit
	.p2align	2
	.type	DisplayInit,%function
	.code	16                      @ @DisplayInit
	.thumb_func
DisplayInit:
.Lfunc_begin0:
	.loc	2 262 0                 @ ../Application/Dsiplay/Display.c:262:0
	.fnstart
	.cfi_sections .debug_frame
	.cfi_startproc
@ %bb.0:
	.save	{r4, lr}
	push	{r4, lr}
	.cfi_def_cfa_offset 8
	.cfi_offset lr, -4
	.cfi_offset r4, -8
	.pad	#8
	sub	sp, #8
	.cfi_def_cfa_offset 16
.Ltmp0:
	.loc	2 263 2 prologue_end    @ ../Application/Dsiplay/Display.c:263:2
	bl	GUI_Init
	.loc	2 264 2                 @ ../Application/Dsiplay/Display.c:264:2
	movs	r0, #0
	bl	GUI_SelectLayer
	.loc	2 265 2                 @ ../Application/Dsiplay/Display.c:265:2
	bl	GUI_Clear
.Ltmp1:
	.loc	2 267 6                 @ ../Application/Dsiplay/Display.c:267:6
	movw	r0, :lower16:f_sys
	movw	r1, :lower16:.L.str
	movs	r2, #0
	movt	r0, :upper16:f_sys
	movt	r1, :upper16:.L.str
	bl	f_mount
.Ltmp2:
	.loc	2 267 6 is_stmt 0       @ ../Application/Dsiplay/Display.c:267:6
	cbnz	r0, .LBB0_3
@ %bb.1:
.Ltmp3:
	.loc	2 269 7 is_stmt 1       @ ../Application/Dsiplay/Display.c:269:7
	movw	r0, :lower16:f_dir
	movw	r1, :lower16:.L.str.1
	movt	r0, :upper16:f_dir
	movt	r1, :upper16:.L.str.1
	bl	f_opendir
.Ltmp4:
	.loc	2 269 7 is_stmt 0       @ ../Application/Dsiplay/Display.c:269:7
	cbnz	r0, .LBB0_3
@ %bb.2:
.Ltmp5:
	.loc	2 271 8 is_stmt 1       @ ../Application/Dsiplay/Display.c:271:8
	movw	r0, :lower16:f_SD
	adr	r1, .LCPI0_0
	movs	r2, #1
	movt	r0, :upper16:f_SD
	bl	f_open
.Ltmp6:
	.loc	2 271 8 is_stmt 0       @ ../Application/Dsiplay/Display.c:271:8
	cmp	r0, #0
	beq.w	.LBB0_5
.Ltmp7:
.LBB0_3:
	.loc	2 0 0                   @ ../Application/Dsiplay/Display.c:0:0
	movw	r0, :lower16:display_flags
	movt	r0, :upper16:display_flags
	ldr	r0, [r0]
	bic	r0, r0, #16
.LBB0_4:
	movw	r1, :lower16:display_flags
.Ltmp8:
	.loc	2 282 2 is_stmt 1       @ ../Application/Dsiplay/Display.c:282:2
	movs	r2, #0
.Ltmp9:
	.loc	2 0 0 is_stmt 0         @ ../Application/Dsiplay/Display.c:0:0
	movt	r1, :upper16:display_flags
	str	r0, [r1]
.Ltmp10:
	.loc	2 282 2                 @ ../Application/Dsiplay/Display.c:282:2
	movw	r1, :lower16:.L.str
	movs	r0, #0
	movt	r1, :upper16:.L.str
	bl	f_mount
	.loc	2 283 2 is_stmt 1       @ ../Application/Dsiplay/Display.c:283:2
	movs	r0, #1
	bl	GUI_SelectLayer
	.loc	2 284 2                 @ ../Application/Dsiplay/Display.c:284:2
	mov.w	r0, #-16777216
	bl	GUI_SetBkColor
	.loc	2 285 2                 @ ../Application/Dsiplay/Display.c:285:2
	bl	GUI_Clear
	.loc	2 286 2                 @ ../Application/Dsiplay/Display.c:286:2
	movw	r0, :lower16:GUI_CursorCrossM
	movt	r0, :upper16:GUI_CursorCrossM
	bl	GUI_CURSOR_Select
	.loc	2 288 2                 @ ../Application/Dsiplay/Display.c:288:2
	movw	r0, :lower16:RADIO_DrawSkinFlex
	movt	r0, :upper16:RADIO_DrawSkinFlex
	bl	RADIO_SetDefaultSkin
	.loc	2 289 2                 @ ../Application/Dsiplay/Display.c:289:2
	movw	r0, :lower16:BUTTON_DrawSkinFlex
	movt	r0, :upper16:BUTTON_DrawSkinFlex
	bl	BUTTON_SetDefaultSkin
	.loc	2 290 2                 @ ../Application/Dsiplay/Display.c:290:2
	movw	r0, :lower16:SPINBOX_DrawSkinFlex
	movt	r0, :upper16:SPINBOX_DrawSkinFlex
	bl	SPINBOX_SetDefaultSkin
	.loc	2 291 2                 @ ../Application/Dsiplay/Display.c:291:2
	movs	r0, #20
	bl	SPINBOX_SetDefaultButtonSize
	.loc	2 292 2                 @ ../Application/Dsiplay/Display.c:292:2
	mvn	r0, #-16777216
	bl	RADIO_SetDefaultTextColor
	.loc	2 293 2                 @ ../Application/Dsiplay/Display.c:293:2
	movs	r0, #1
	bl	EDIT_SetDefaultTextAlign
	.loc	2 294 2                 @ ../Application/Dsiplay/Display.c:294:2
	movs	r0, #2
	movs	r4, #2
	bl	GUI_SetTextMode
	.loc	2 295 2                 @ ../Application/Dsiplay/Display.c:295:2
	mvn	r0, #-16777216
	bl	GUI_SetColor
	.loc	2 296 2                 @ ../Application/Dsiplay/Display.c:296:2
	movw	r0, :lower16:GUI_Font20B_1
	movt	r0, :upper16:GUI_Font20B_1
	bl	GUI_SetFont
	.loc	2 297 26                @ ../Application/Dsiplay/Display.c:297:26
	movs	r0, #120
	movs	r1, #110
	movw	r2, #355
	movs	r3, #25
	str	r4, [sp]
	bl	PROGBAR_Create
	.loc	2 297 24 is_stmt 0      @ ../Application/Dsiplay/Display.c:297:24
	movw	r4, :lower16:hPROGBAR_FileTransfer
	.loc	2 298 2 is_stmt 1       @ ../Application/Dsiplay/Display.c:298:2
	movs	r1, #0
	movs	r2, #100
	.loc	2 297 24                @ ../Application/Dsiplay/Display.c:297:24
	movt	r4, :upper16:hPROGBAR_FileTransfer
	str	r0, [r4]
	.loc	2 298 2                 @ ../Application/Dsiplay/Display.c:298:2
	bl	PROGBAR_SetMinMax
	.loc	2 299 23                @ ../Application/Dsiplay/Display.c:299:23
	ldr	r0, [r4]
	.loc	2 299 2 is_stmt 0       @ ../Application/Dsiplay/Display.c:299:2
	movs	r1, #0
	movs	r2, #0
	bl	PROGBAR_SetTextColor
	.loc	2 300 23 is_stmt 1      @ ../Application/Dsiplay/Display.c:300:23
	ldr	r0, [r4]
	.loc	2 300 2 is_stmt 0       @ ../Application/Dsiplay/Display.c:300:2
	movs	r1, #1
	mvn	r2, #-16777216
	bl	PROGBAR_SetTextColor
	movw	r2, #65408
	.loc	2 301 22 is_stmt 1      @ ../Application/Dsiplay/Display.c:301:22
	ldr	r0, [r4]
	.loc	2 301 2 is_stmt 0       @ ../Application/Dsiplay/Display.c:301:2
	movs	r1, #0
	movt	r2, #128
	bl	PROGBAR_SetBarColor
	movw	r2, #54227
	.loc	2 302 22 is_stmt 1      @ ../Application/Dsiplay/Display.c:302:22
	ldr	r0, [r4]
	.loc	2 302 2 is_stmt 0       @ ../Application/Dsiplay/Display.c:302:2
	movs	r1, #1
	movt	r2, #211
	bl	PROGBAR_SetBarColor
	.loc	2 303 23 is_stmt 1      @ ../Application/Dsiplay/Display.c:303:23
	ldr	r0, [r4]
	.loc	2 303 2 is_stmt 0       @ ../Application/Dsiplay/Display.c:303:2
	movs	r1, #2
	bl	PROGBAR_SetTextAlign
	.loc	2 304 2 is_stmt 1       @ ../Application/Dsiplay/Display.c:304:2
	movw	r1, :lower16:GUI_Font13_1
	.loc	2 304 18 is_stmt 0      @ ../Application/Dsiplay/Display.c:304:18
	ldr	r0, [r4]
	.loc	2 304 2                 @ ../Application/Dsiplay/Display.c:304:2
	movt	r1, :upper16:GUI_Font13_1
	bl	PROGBAR_SetFont
	.loc	2 305 18 is_stmt 1      @ ../Application/Dsiplay/Display.c:305:18
	ldr	r0, [r4]
	.loc	2 305 2 is_stmt 0       @ ../Application/Dsiplay/Display.c:305:2
	adr	r1, .LCPI0_1
	bl	PROGBAR_SetText
	.loc	2 306 2 is_stmt 1       @ ../Application/Dsiplay/Display.c:306:2
	movw	r1, :lower16:PROGBAR_DrawSkinFlex
	.loc	2 306 18 is_stmt 0      @ ../Application/Dsiplay/Display.c:306:18
	ldr	r0, [r4]
	.loc	2 306 2                 @ ../Application/Dsiplay/Display.c:306:2
	movt	r1, :upper16:PROGBAR_DrawSkinFlex
	bl	PROGBAR_SetSkin
	.loc	2 307 16 is_stmt 1      @ ../Application/Dsiplay/Display.c:307:16
	ldr	r0, [r4]
	.loc	2 307 2 is_stmt 0       @ ../Application/Dsiplay/Display.c:307:2
	bl	WM_HideWindow
	.loc	2 308 2 is_stmt 1       @ ../Application/Dsiplay/Display.c:308:2
	add	sp, #8
	pop.w	{r4, lr}
	b	CreateDefaultDisplay
.LBB0_5:
.Ltmp11:
	.loc	2 273 5                 @ ../Application/Dsiplay/Display.c:273:5
	movw	r0, :lower16:APP_GetData
	movw	r1, :lower16:f_SD
	movs	r2, #0
	movs	r3, #0
	movt	r0, :upper16:APP_GetData
	movt	r1, :upper16:f_SD
	bl	GUI_BMP_DrawEx
	.loc	2 274 5                 @ ../Application/Dsiplay/Display.c:274:5
	movw	r0, :lower16:display_flags
	movt	r0, :upper16:display_flags
	ldr	r0, [r0]
	orr	r0, r0, #16
	b	.LBB0_4
.Ltmp12:
	.p2align	2
@ %bb.6:
	.loc	2 0 5 is_stmt 0         @ ../Application/Dsiplay/Display.c:0:5
.LCPI0_0:
.L.str.2:
	.asciz	"BCK_GND.BMP"
.LCPI0_1:
.L.str.3:
	.asciz	"0%\000"
.Lfunc_end0:
	.size	DisplayInit, .Lfunc_end0-DisplayInit
	.cfi_endproc
	.cantunwind
	.fnend
                                        @ -- End function
	.section	.text.APP_GetData,"ax",%progbits
	.hidden	APP_GetData             @ -- Begin function APP_GetData
	.globl	APP_GetData
	.p2align	1
	.type	APP_GetData,%function
	.code	16                      @ @APP_GetData
	.thumb_func
APP_GetData:
.Lfunc_begin1:
	.loc	2 1348 0 is_stmt 1      @ ../Application/Dsiplay/Display.c:1348:0
	.fnstart
	.cfi_startproc
@ %bb.0:
	.save	{r4, r5, r6, r7, lr}
	push	{r4, r5, r6, r7, lr}
	.cfi_def_cfa_offset 20
	.cfi_offset lr, -4
	.cfi_offset r7, -8
	.cfi_offset r6, -12
	.cfi_offset r5, -16
	.cfi_offset r4, -20
	.pad	#4
	sub	sp, #4
	.cfi_def_cfa_offset 24
	@DEBUG_VALUE: APP_GetData:p <- $r0
	@DEBUG_VALUE: APP_GetData:ppData <- $r1
	@DEBUG_VALUE: APP_GetData:NumBytesReq <- $r2
	@DEBUG_VALUE: APP_GetData:Off <- $r3
	mov	r5, r1
.Ltmp13:
	.loc	2 1355 2 prologue_end   @ ../Application/Dsiplay/Display.c:1355:2
	mov	r1, r3
.Ltmp14:
	@DEBUG_VALUE: APP_GetData:Off <- $r1
	.loc	2 0 2 is_stmt 0         @ ../Application/Dsiplay/Display.c:0:2
	mov	r4, r2
	mov	r6, r0
.Ltmp15:
	@DEBUG_VALUE: APP_GetData:phFile <- $r6
	@DEBUG_VALUE: APP_GetData:Off <- $r3
	@DEBUG_VALUE: APP_GetData:NumBytesReq <- $r4
	@DEBUG_VALUE: APP_GetData:ppData <- $r5
	@DEBUG_VALUE: APP_GetData:p <- $r6
	.loc	2 1355 2                @ ../Application/Dsiplay/Display.c:1355:2
	bl	f_lseek
.Ltmp16:
	@DEBUG_VALUE: APP_GetData:NumBytesRead <- [DW_OP_deref] $sp
	.loc	2 1356 2 is_stmt 1      @ ../Application/Dsiplay/Display.c:1356:2
	movw	r7, :lower16:APP_GetData._acBuffer
	mov	r3, sp
	mov	r0, r6
	mov	r2, r4
.Ltmp17:
	@DEBUG_VALUE: APP_GetData:NumBytesReq <- $r2
	movt	r7, :upper16:APP_GetData._acBuffer
	mov	r1, r7
	bl	f_read
.Ltmp18:
	.loc	2 1357 10               @ ../Application/Dsiplay/Display.c:1357:10
	str	r7, [r5]
	.loc	2 1358 9                @ ../Application/Dsiplay/Display.c:1358:9
	ldr	r0, [sp], #4
.Ltmp19:
	@DEBUG_VALUE: APP_GetData:NumBytesRead <- $r0
	.loc	2 1358 2 is_stmt 0      @ ../Application/Dsiplay/Display.c:1358:2
	pop	{r4, r5, r6, r7, pc}
.Ltmp20:
.Lfunc_end1:
	.size	APP_GetData, .Lfunc_end1-APP_GetData
	.cfi_endproc
	.cantunwind
	.fnend
                                        @ -- End function
	.section	.text.CreateDefaultDisplay,"ax",%progbits
	.hidden	CreateDefaultDisplay    @ -- Begin function CreateDefaultDisplay
	.globl	CreateDefaultDisplay
	.p2align	2
	.type	CreateDefaultDisplay,%function
	.code	16                      @ @CreateDefaultDisplay
	.thumb_func
CreateDefaultDisplay:
.Lfunc_begin2:
	.loc	2 1362 0 is_stmt 1      @ ../Application/Dsiplay/Display.c:1362:0
	.fnstart
	.cfi_startproc
@ %bb.0:
	.save	{r4, r5, r7, lr}
	push	{r4, r5, r7, lr}
	.cfi_def_cfa_offset 16
	.cfi_offset lr, -4
	.cfi_offset r7, -8
	.cfi_offset r5, -12
	.cfi_offset r4, -16
	.pad	#8
	sub	sp, #8
	.cfi_def_cfa_offset 24
.Ltmp21:
	.loc	2 1363 2 prologue_end   @ ../Application/Dsiplay/Display.c:1363:2
	mov.w	r0, #-16777216
	bl	GUI_SetBkColor
	.loc	2 1364 2                @ ../Application/Dsiplay/Display.c:1364:2
	bl	GUI_Clear
	.loc	2 1365 2                @ ../Application/Dsiplay/Display.c:1365:2
	movw	r0, :lower16:GUI_Font8x16
	movt	r0, :upper16:GUI_Font8x16
	bl	GUI_SetFont
	.loc	2 1366 2                @ ../Application/Dsiplay/Display.c:1366:2
	mov.w	r0, #1644167168
	bl	GUI_SetColor
	.loc	2 1367 2                @ ../Application/Dsiplay/Display.c:1367:2
	movs	r0, #120
	movs	r1, #65
	movw	r2, #475
	movs	r3, #105
	bl	GUI_FillRect
	.loc	2 1368 2                @ ../Application/Dsiplay/Display.c:1368:2
	movs	r0, #5
	movs	r1, #65
	movs	r2, #115
	movs	r3, #225
	bl	GUI_FillRect
	.loc	2 1369 2                @ ../Application/Dsiplay/Display.c:1369:2
	movs	r0, #5
	movs	r1, #230
	movw	r2, #475
	mov.w	r3, #270
	bl	GUI_FillRect
.Ltmp22:
	.loc	2 1371 6                @ ../Application/Dsiplay/Display.c:1371:6
	movw	r0, :lower16:rs485_bus_status
	.loc	2 0 0 is_stmt 0         @ ../Application/Dsiplay/Display.c:0:0
	movw	r1, :lower16:rubicon_flags
.Ltmp23:
	.loc	2 1374 5 is_stmt 1      @ ../Application/Dsiplay/Display.c:1374:5
	movw	r4, :lower16:display_flags
	movs	r5, #2
.Ltmp24:
	.loc	2 1371 6                @ ../Application/Dsiplay/Display.c:1371:6
	movt	r0, :upper16:rs485_bus_status
	.loc	2 0 0 is_stmt 0         @ ../Application/Dsiplay/Display.c:0:0
	movt	r1, :upper16:rubicon_flags
.Ltmp25:
	.loc	2 1374 5 is_stmt 1      @ ../Application/Dsiplay/Display.c:1374:5
	movt	r4, :upper16:display_flags
.Ltmp26:
	.loc	2 1371 6                @ ../Application/Dsiplay/Display.c:1371:6
	ldrb	r0, [r0]
	.loc	2 0 0 is_stmt 0         @ ../Application/Dsiplay/Display.c:0:0
	ldr	r2, [r1]
.Ltmp27:
	.loc	2 1371 6                @ ../Application/Dsiplay/Display.c:1371:6
	orr	r3, r2, #32
	cmp	r0, #2
	it	eq
	biceq	r3, r2, #32
.Ltmp28:
	.loc	2 0 0                   @ ../Application/Dsiplay/Display.c:0:0
	str	r3, [r1]
.Ltmp29:
	.loc	2 1377 21 is_stmt 1     @ ../Application/Dsiplay/Display.c:1377:21
	movs	r2, #80
.Ltmp30:
	.loc	2 1374 5                @ ../Application/Dsiplay/Display.c:1374:5
	ldr	r0, [r4]
.Ltmp31:
	.loc	2 1377 21               @ ../Application/Dsiplay/Display.c:1377:21
	movs	r3, #30
	.loc	2 1374 5                @ ../Application/Dsiplay/Display.c:1374:5
	lsls	r1, r0, #27
	mov.w	r1, #8
	it	pl
	movpl	r1, #4
	orrs	r0, r1
.Ltmp32:
	.loc	2 0 0 is_stmt 0         @ ../Application/Dsiplay/Display.c:0:0
	str	r0, [r4]
	movw	r0, #2049
.Ltmp33:
	.loc	2 1377 21 is_stmt 1     @ ../Application/Dsiplay/Display.c:1377:21
	movs	r1, #240
	strd	r0, r5, [sp]
	movs	r0, #10
	bl	BUTTON_Create
	.loc	2 1377 19 is_stmt 0     @ ../Application/Dsiplay/Display.c:1377:19
	movw	r1, :lower16:hBUTTON_Settings
	movt	r1, :upper16:hBUTTON_Settings
	str	r0, [r1]
	.loc	2 1378 2 is_stmt 1      @ ../Application/Dsiplay/Display.c:1378:2
	adr	r1, .LCPI2_0
	bl	BUTTON_SetText
	movw	r0, #2050
	.loc	2 1379 18               @ ../Application/Dsiplay/Display.c:1379:18
	movs	r1, #240
	movs	r2, #80
	movs	r3, #30
	strd	r0, r5, [sp]
	movs	r0, #135
	bl	BUTTON_Create
	.loc	2 1379 16 is_stmt 0     @ ../Application/Dsiplay/Display.c:1379:16
	movw	r1, :lower16:hBUTTON_Tools
	movt	r1, :upper16:hBUTTON_Tools
	str	r0, [r1]
	.loc	2 1380 2 is_stmt 1      @ ../Application/Dsiplay/Display.c:1380:2
	adr	r1, .LCPI2_1
	bl	BUTTON_SetText
	movw	r0, #2051
	.loc	2 1381 20               @ ../Application/Dsiplay/Display.c:1381:20
	movs	r1, #240
	movs	r2, #80
	movs	r3, #30
	strd	r0, r5, [sp]
	mov.w	r0, #260
	bl	BUTTON_Create
	.loc	2 1381 18 is_stmt 0     @ ../Application/Dsiplay/Display.c:1381:18
	movw	r1, :lower16:hBUTTON_Control
	movt	r1, :upper16:hBUTTON_Control
	str	r0, [r1]
	.loc	2 1382 2 is_stmt 1      @ ../Application/Dsiplay/Display.c:1382:2
	adr	r1, .LCPI2_2
	bl	BUTTON_SetText
	movw	r0, #2052
	.loc	2 1383 19               @ ../Application/Dsiplay/Display.c:1383:19
	movs	r1, #240
	movs	r2, #80
	movs	r3, #30
	strd	r0, r5, [sp]
	mov.w	r0, #390
	bl	BUTTON_Create
	.loc	2 1383 17 is_stmt 0     @ ../Application/Dsiplay/Display.c:1383:17
	movw	r1, :lower16:hBUTTON_Unlock
	movt	r1, :upper16:hBUTTON_Unlock
	str	r0, [r1]
	.loc	2 1384 5 is_stmt 1      @ ../Application/Dsiplay/Display.c:1384:5
	ldrb	r1, [r4]
	lsls	r1, r1, #24
.Ltmp34:
	.loc	2 1385 7                @ ../Application/Dsiplay/Display.c:1385:7
	ite	pl
	adrpl	r1, .LCPI2_4
	.loc	2 1384 30               @ ../Application/Dsiplay/Display.c:1384:30
	adrmi	r1, .LCPI2_3
	.loc	2 0 0 is_stmt 0         @ ../Application/Dsiplay/Display.c:0:0
	bl	BUTTON_SetText
.Ltmp35:
	.loc	2 1387 2 is_stmt 1      @ ../Application/Dsiplay/Display.c:1387:2
	mvn	r0, #-16777216
	bl	GUI_SetColor
	.loc	2 1388 2                @ ../Application/Dsiplay/Display.c:1388:2
	movw	r0, :lower16:GUI_Font32B_1
	movt	r0, :upper16:GUI_Font32B_1
	bl	GUI_SetFont
	.loc	2 1389 2                @ ../Application/Dsiplay/Display.c:1389:2
	movs	r0, #2
	bl	GUI_SetTextMode
	.loc	2 1390 2                @ ../Application/Dsiplay/Display.c:1390:2
	movs	r0, #165
	movs	r1, #0
	movs	r5, #0
	bl	GUI_GotoXY
	.loc	2 1391 2                @ ../Application/Dsiplay/Display.c:1391:2
	adr	r0, .LCPI2_5
	bl	GUI_DispString
	.loc	2 1392 2                @ ../Application/Dsiplay/Display.c:1392:2
	movw	r0, :lower16:GUI_Font24_1
	movt	r0, :upper16:GUI_Font24_1
	bl	GUI_SetFont
	.loc	2 1393 2                @ ../Application/Dsiplay/Display.c:1393:2
	movw	r0, #65535
	bl	GUI_SetColor
	.loc	2 1394 2                @ ../Application/Dsiplay/Display.c:1394:2
	movs	r0, #10
	movs	r1, #0
	bl	GUI_GotoXY
	.loc	2 1395 2                @ ../Application/Dsiplay/Display.c:1395:2
	adr	r0, .LCPI2_6
	bl	GUI_DispString
	.loc	2 1396 2                @ ../Application/Dsiplay/Display.c:1396:2
	movs	r0, #10
	movs	r1, #25
	bl	GUI_GotoXY
	.loc	2 1397 2                @ ../Application/Dsiplay/Display.c:1397:2
	adr	r0, .LCPI2_7
	bl	GUI_DispString
	.loc	2 1398 2                @ ../Application/Dsiplay/Display.c:1398:2
	mvn	r0, #-16777216
	bl	GUI_SetColor
	.loc	2 1402 16               @ ../Application/Dsiplay/Display.c:1402:16
	movw	r0, :lower16:eActivDisplay
	movt	r0, :upper16:eActivDisplay
	strb	r5, [r0]
	.loc	2 1401 2                @ ../Application/Dsiplay/Display.c:1401:2
	ldr	r0, [r4]
	orr	r0, r0, #256
	str	r0, [r4]
	.loc	2 1403 1                @ ../Application/Dsiplay/Display.c:1403:1
	add	sp, #8
	pop	{r4, r5, r7, pc}
.Ltmp36:
	.p2align	2
@ %bb.1:
	.loc	2 0 1 is_stmt 0         @ ../Application/Dsiplay/Display.c:0:1
.LCPI2_0:
.L.str.10:
	.asciz	"Settings\000\000\000"
.LCPI2_1:
.L.str.11:
	.asciz	"Tools\000\000"
.LCPI2_2:
.L.str.12:
	.asciz	"Control"
.LCPI2_3:
.L.str.13:
	.asciz	"Lock\000\000\000"
.LCPI2_4:
.L.str.14:
	.asciz	"Unlock\000"
.LCPI2_5:
.L.str.15:
	.asciz	"Hotel SAPLAST\000\000"
.LCPI2_6:
.L.str.16:
	.asciz	"KONCEPT"
.LCPI2_7:
.L.str.17:
	.asciz	"RESIDENCE       *         *         *         *"
.Lfunc_end2:
	.size	CreateDefaultDisplay, .Lfunc_end2-CreateDefaultDisplay
	.cfi_endproc
	.cantunwind
	.fnend
                                        @ -- End function
	.section	.text.DisplayService,"ax",%progbits
	.hidden	DisplayService          @ -- Begin function DisplayService
	.globl	DisplayService
	.p2align	2
	.type	DisplayService,%function
	.code	16                      @ @DisplayService
	.thumb_func
DisplayService:
.Lfunc_begin3:
	.loc	2 312 0 is_stmt 1       @ ../Application/Dsiplay/Display.c:312:0
	.fnstart
	.cfi_startproc
@ %bb.0:
	.save	{r4, r5, r6, r7, r8, r9, r10, r11, lr}
	push.w	{r4, r5, r6, r7, r8, r9, r10, r11, lr}
	.cfi_def_cfa_offset 36
	.cfi_offset lr, -4
	.cfi_offset r11, -8
	.cfi_offset r10, -12
	.cfi_offset r9, -16
	.cfi_offset r8, -20
	.cfi_offset r7, -24
	.cfi_offset r6, -28
	.cfi_offset r5, -32
	.cfi_offset r4, -36
	.pad	#4
	sub	sp, #4
	.cfi_def_cfa_offset 40
.Ltmp37:
	.loc	2 318 5 prologue_end    @ ../Application/Dsiplay/Display.c:318:5
	movw	r0, :lower16:SystickCnt
	.loc	2 318 20 is_stmt 0      @ ../Application/Dsiplay/Display.c:318:20
	movw	r1, :lower16:DisplayService.touch_timing
	.loc	2 318 5                 @ ../Application/Dsiplay/Display.c:318:5
	movt	r0, :upper16:SystickCnt
	.loc	2 318 20                @ ../Application/Dsiplay/Display.c:318:20
	movt	r1, :upper16:DisplayService.touch_timing
	.loc	2 318 5                 @ ../Application/Dsiplay/Display.c:318:5
	ldr	r2, [r0]
	.loc	2 318 20                @ ../Application/Dsiplay/Display.c:318:20
	ldr	r3, [r1]
	.loc	2 318 33                @ ../Application/Dsiplay/Display.c:318:33
	adds	r3, #10
.Ltmp38:
	.loc	2 318 5                 @ ../Application/Dsiplay/Display.c:318:5
	cmp	r2, r3
	bhs	.LBB3_2
.LBB3_1:
	.loc	2 1346 1 is_stmt 1      @ ../Application/Dsiplay/Display.c:1346:1
	add	sp, #4
	pop.w	{r4, r5, r6, r7, r8, r9, r10, r11, pc}
.LBB3_2:
.Ltmp39:
	.loc	2 320 18                @ ../Application/Dsiplay/Display.c:320:18
	ldr	r0, [r0]
	.loc	2 320 16 is_stmt 0      @ ../Application/Dsiplay/Display.c:320:16
	str	r0, [r1]
	.loc	2 321 3 is_stmt 1       @ ../Application/Dsiplay/Display.c:321:3
	bl	GUI_TOUCH_Exec
	.loc	2 322 3                 @ ../Application/Dsiplay/Display.c:322:3
	bl	GUI_Exec
.Ltmp40:
	.loc	2 326 9                 @ ../Application/Dsiplay/Display.c:326:9
	movw	r5, :lower16:eActivDisplay
	movt	r5, :upper16:eActivDisplay
	ldrb	r0, [r5]
	.loc	2 326 2 is_stmt 0       @ ../Application/Dsiplay/Display.c:326:2
	cmp	r0, #4
	bhi.w	.LBB3_275
@ %bb.3:
	.loc	2 0 2                   @ ../Application/Dsiplay/Display.c:0:2
.LCPI3_5:
	tbh	[pc, r0, lsl #1]
@ %bb.4:
.LJTI3_0:
	.short	(.LBB3_5-(.LCPI3_5+4))/2
	.short	(.LBB3_41-(.LCPI3_5+4))/2
	.short	(.LBB3_58-(.LCPI3_5+4))/2
	.short	(.LBB3_92-(.LCPI3_5+4))/2
	.short	(.LBB3_115-(.LCPI3_5+4))/2
	.p2align	1
.LBB3_5:
.Ltmp41:
	.loc	2 330 7 is_stmt 1       @ ../Application/Dsiplay/Display.c:330:7
	movw	r4, :lower16:display_timer
	movt	r4, :upper16:display_timer
	ldr	r0, [r4]
.Ltmp42:
	.loc	2 330 7 is_stmt 0       @ ../Application/Dsiplay/Display.c:330:7
	cbnz	r0, .LBB3_10
@ %bb.6:
.Ltmp43:
	.loc	2 332 8 is_stmt 1       @ ../Application/Dsiplay/Display.c:332:8
	movw	r0, :lower16:display_flags
	movt	r0, :upper16:display_flags
	ldr	r1, [r0]
.Ltmp44:
	.loc	2 332 8 is_stmt 0       @ ../Application/Dsiplay/Display.c:332:8
	lsls	r2, r1, #25
	bpl	.LBB3_10
@ %bb.7:
.Ltmp45:
	.loc	2 334 6 is_stmt 1       @ ../Application/Dsiplay/Display.c:334:6
	bic	r2, r1, #64
	str	r2, [r0]
	.loc	2 336 9                 @ ../Application/Dsiplay/Display.c:336:9
	lsls	r2, r1, #26
	bpl	.LBB3_9
@ %bb.8:
.Ltmp46:
	.loc	2 338 7                 @ ../Application/Dsiplay/Display.c:338:7
	bic	r1, r1, #96
	str	r1, [r0]
	.loc	2 339 7                 @ ../Application/Dsiplay/Display.c:339:7
	bl	DeleteOnScreenKeypad
.Ltmp47:
.LBB3_9:
	.loc	2 342 6                 @ ../Application/Dsiplay/Display.c:342:6
	bl	DeleteDefaultDisplay
	.loc	2 343 6                 @ ../Application/Dsiplay/Display.c:343:6
	bl	CreateDefaultDisplay
.Ltmp48:
.LBB3_10:
	.loc	2 348 7                 @ ../Application/Dsiplay/Display.c:348:7
	movw	r5, :lower16:display_timeout_timer
	movt	r5, :upper16:display_timeout_timer
	ldr	r0, [r5]
.Ltmp49:
	.loc	2 348 7 is_stmt 0       @ ../Application/Dsiplay/Display.c:348:7
	cbnz	r0, .LBB3_13
@ %bb.11:
.Ltmp50:
	.loc	2 350 8 is_stmt 1       @ ../Application/Dsiplay/Display.c:350:8
	movw	r0, :lower16:display_flags
	movt	r0, :upper16:display_flags
	ldr	r1, [r0]
.Ltmp51:
	.loc	2 350 8 is_stmt 0       @ ../Application/Dsiplay/Display.c:350:8
	lsls	r2, r1, #24
	bpl	.LBB3_13
@ %bb.12:
.Ltmp52:
	.loc	2 352 6 is_stmt 1       @ ../Application/Dsiplay/Display.c:352:6
	bic	r1, r1, #128
	str	r1, [r0]
	.loc	2 353 6                 @ ../Application/Dsiplay/Display.c:353:6
	bl	DeleteDefaultDisplay
	.loc	2 354 6                 @ ../Application/Dsiplay/Display.c:354:6
	bl	CreateDefaultDisplay
.Ltmp53:
.LBB3_13:
	.loc	2 358 4                 @ ../Application/Dsiplay/Display.c:358:4
	bl	UpdateDateTime
.Ltmp54:
	.loc	2 360 24                @ ../Application/Dsiplay/Display.c:360:24
	movw	r7, :lower16:hBUTTON_Tools
	movt	r7, :upper16:hBUTTON_Tools
	ldr	r0, [r7]
	.loc	2 360 7 is_stmt 0       @ ../Application/Dsiplay/Display.c:360:7
	bl	BUTTON_IsPressed
	.loc	2 360 39                @ ../Application/Dsiplay/Display.c:360:39
	cbz	r0, .LBB3_15
@ %bb.14:
	.loc	2 360 42                @ ../Application/Dsiplay/Display.c:360:42
	movw	r6, :lower16:display_flags
	movt	r6, :upper16:display_flags
.Ltmp55:
	.loc	2 360 7                 @ ../Application/Dsiplay/Display.c:360:7
	ldrb	r0, [r6]
	lsls	r0, r0, #24
	bmi	.LBB3_25
.LBB3_15:
.Ltmp56:
	.loc	2 376 29 is_stmt 1      @ ../Application/Dsiplay/Display.c:376:29
	movw	r7, :lower16:hBUTTON_Settings
	movt	r7, :upper16:hBUTTON_Settings
	ldr	r0, [r7]
	.loc	2 376 12 is_stmt 0      @ ../Application/Dsiplay/Display.c:376:12
	bl	BUTTON_IsPressed
	cbz	r0, .LBB3_17
@ %bb.16:
	.loc	2 376 50                @ ../Application/Dsiplay/Display.c:376:50
	movw	r6, :lower16:display_flags
	movt	r6, :upper16:display_flags
.Ltmp57:
	.loc	2 376 12                @ ../Application/Dsiplay/Display.c:376:12
	ldrb	r0, [r6]
	lsls	r0, r0, #24
	bmi	.LBB3_28
.LBB3_17:
.Ltmp58:
	.loc	2 392 29 is_stmt 1      @ ../Application/Dsiplay/Display.c:392:29
	movw	r7, :lower16:hBUTTON_Unlock
	movt	r7, :upper16:hBUTTON_Unlock
	ldr	r0, [r7]
	.loc	2 392 12 is_stmt 0      @ ../Application/Dsiplay/Display.c:392:12
	bl	BUTTON_IsPressed
	cbz	r0, .LBB3_19
@ %bb.18:
	.loc	2 392 49                @ ../Application/Dsiplay/Display.c:392:49
	movw	r6, :lower16:display_flags
	movt	r6, :upper16:display_flags
.Ltmp59:
	.loc	2 392 12                @ ../Application/Dsiplay/Display.c:392:12
	ldrb	r0, [r6]
	lsls	r0, r0, #26
	bpl.w	.LBB3_36
.LBB3_19:
.Ltmp60:
	.loc	2 419 29 is_stmt 1      @ ../Application/Dsiplay/Display.c:419:29
	movw	r4, :lower16:hBUTTON_Control
	movt	r4, :upper16:hBUTTON_Control
	ldr	r0, [r4]
	.loc	2 419 12 is_stmt 0      @ ../Application/Dsiplay/Display.c:419:12
	bl	BUTTON_IsPressed
	cbz	r0, .LBB3_21
@ %bb.20:
	.loc	2 419 49                @ ../Application/Dsiplay/Display.c:419:49
	movw	r0, :lower16:display_flags
	movt	r0, :upper16:display_flags
.Ltmp61:
	.loc	2 419 12                @ ../Application/Dsiplay/Display.c:419:12
	ldrb	r0, [r0]
	lsls	r0, r0, #24
	bmi.w	.LBB3_40
.LBB3_21:
.Ltmp62:
	.loc	2 428 13 is_stmt 1      @ ../Application/Dsiplay/Display.c:428:13
	movw	r4, :lower16:rs485_bus_status
	.loc	2 0 0 is_stmt 0         @ ../Application/Dsiplay/Display.c:0:0
	movw	r0, :lower16:rubicon_flags
	.loc	2 428 13                @ ../Application/Dsiplay/Display.c:428:13
	movt	r4, :upper16:rs485_bus_status
	.loc	2 0 0                   @ ../Application/Dsiplay/Display.c:0:0
	movt	r0, :upper16:rubicon_flags
	.loc	2 428 13                @ ../Application/Dsiplay/Display.c:428:13
	ldrb	r2, [r4]
	.loc	2 0 0                   @ ../Application/Dsiplay/Display.c:0:0
	ldr	r1, [r0]
	and	r1, r1, #32
	.loc	2 428 54                @ ../Application/Dsiplay/Display.c:428:54
	cmp	r2, #2
	bne.w	.LBB3_186
.Ltmp63:
@ %bb.22:
	.loc	2 428 12                @ ../Application/Dsiplay/Display.c:428:12
	cmp	r1, #0
	bne	.LBB3_32
@ %bb.23:
.Ltmp64:
	.loc	2 430 5 is_stmt 1       @ ../Application/Dsiplay/Display.c:430:5
	ldr	r1, [r0]
	.loc	2 431 5                 @ ../Application/Dsiplay/Display.c:431:5
	movw	r2, #475
	movs	r3, #65
	.loc	2 430 5                 @ ../Application/Dsiplay/Display.c:430:5
	orr	r1, r1, #32
	str	r1, [r0]
	.loc	2 431 5                 @ ../Application/Dsiplay/Display.c:431:5
	movw	r0, #435
	movs	r1, #5
	bl	GUI_ClearRect
	.loc	2 432 5                 @ ../Application/Dsiplay/Display.c:432:5
	movw	r0, :lower16:bmNetworkConnected
	movw	r1, #435
	movs	r2, #5
	movt	r0, :upper16:bmNetworkConnected
	bl	GUI_DrawBitmap
	.loc	2 433 5                 @ ../Application/Dsiplay/Display.c:433:5
	movs	r0, #0
	bl	GUI_SetTextMode
	.loc	2 434 5                 @ ../Application/Dsiplay/Display.c:434:5
	movs	r0, #0
	bl	GUI_SetBkColor
	.loc	2 435 5                 @ ../Application/Dsiplay/Display.c:435:5
	mov.w	r0, #65280
	bl	GUI_SetColor
	.loc	2 436 5                 @ ../Application/Dsiplay/Display.c:436:5
	movw	r0, :lower16:GUI_Font16B_1
	movt	r0, :upper16:GUI_Font16B_1
	bl	GUI_SetFont
	.loc	2 437 5                 @ ../Application/Dsiplay/Display.c:437:5
	movw	r0, #445
	movs	r1, #47
	bl	GUI_GotoXY
	.loc	2 438 5                 @ ../Application/Dsiplay/Display.c:438:5
	adr.w	r0, __arm_cp.3_6
	b.w	.LBB3_214
.Ltmp65:
	.p2align	2
.LBB3_24:                               @   in Loop: Header=BB3_25 Depth=1
	.loc	2 365 6                 @ ../Application/Dsiplay/Display.c:365:6
	bl	GUI_TOUCH_Exec
	.loc	2 366 6                 @ ../Application/Dsiplay/Display.c:366:6
	movs	r0, #50
	bl	GUI_Delay
.LBB3_25:                               @ =>This Inner Loop Header: Depth=1
.Ltmp66:
	.loc	2 364 27                @ ../Application/Dsiplay/Display.c:364:27
	ldr	r0, [r7]
	.loc	2 364 10 is_stmt 0      @ ../Application/Dsiplay/Display.c:364:10
	bl	BUTTON_IsPressed
.Ltmp67:
	.loc	2 364 9                 @ ../Application/Dsiplay/Display.c:364:9
	cmp	r0, #0
	bne	.LBB3_24
.Ltmp68:
@ %bb.26:
	.loc	2 369 5 is_stmt 1       @ ../Application/Dsiplay/Display.c:369:5
	bl	DeleteDefaultDisplay
	.loc	2 370 5                 @ ../Application/Dsiplay/Display.c:370:5
	bl	CreateToolsDisplay
	b	.LBB3_30
.Ltmp69:
	.p2align	2
.LBB3_27:                               @   in Loop: Header=BB3_28 Depth=1
	.loc	2 381 6                 @ ../Application/Dsiplay/Display.c:381:6
	bl	GUI_TOUCH_Exec
	.loc	2 382 6                 @ ../Application/Dsiplay/Display.c:382:6
	movs	r0, #50
	bl	GUI_Delay
.LBB3_28:                               @ =>This Inner Loop Header: Depth=1
.Ltmp70:
	.loc	2 380 27                @ ../Application/Dsiplay/Display.c:380:27
	ldr	r0, [r7]
	.loc	2 380 10 is_stmt 0      @ ../Application/Dsiplay/Display.c:380:10
	bl	BUTTON_IsPressed
.Ltmp71:
	.loc	2 380 9                 @ ../Application/Dsiplay/Display.c:380:9
	cmp	r0, #0
	bne	.LBB3_27
.Ltmp72:
@ %bb.29:
	.loc	2 385 5 is_stmt 1       @ ../Application/Dsiplay/Display.c:385:5
	bl	DeleteDefaultDisplay
	.loc	2 386 5                 @ ../Application/Dsiplay/Display.c:386:5
	bl	CreateSettingsMenuDisplay
.Ltmp73:
.LBB3_30:
	.loc	2 0 5 is_stmt 0         @ ../Application/Dsiplay/Display.c:0:5
	movw	r0, #30000
	str	r0, [r4]
	str	r0, [r5]
.LBB3_31:
	ldr	r0, [r6]
	orr	r0, r0, #64
	str	r0, [r6]
	movs	r0, #100
	bl	GUI_Delay
.Ltmp74:
.LBB3_32:
	.loc	2 457 7 is_stmt 1       @ ../Application/Dsiplay/Display.c:457:7
	movw	r4, :lower16:display_flags
	movt	r4, :upper16:display_flags
	ldr	r0, [r4]
.Ltmp75:
	.loc	2 457 7 is_stmt 0       @ ../Application/Dsiplay/Display.c:457:7
	lsls	r1, r0, #31
	bne.w	.LBB3_139
@ %bb.33:
.Ltmp76:
	.loc	2 463 12 is_stmt 1      @ ../Application/Dsiplay/Display.c:463:12
	lsls	r1, r0, #30
	bpl.w	.LBB3_140
@ %bb.34:
.Ltmp77:
	.loc	2 465 5                 @ ../Application/Dsiplay/Display.c:465:5
	bic	r0, r0, #2
	str	r0, [r4]
	.loc	2 466 19                @ ../Application/Dsiplay/Display.c:466:19
	movw	r0, :lower16:hPROGBAR_FileTransfer
	movt	r0, :upper16:hPROGBAR_FileTransfer
	ldr	r0, [r0]
	.loc	2 466 5 is_stmt 0       @ ../Application/Dsiplay/Display.c:466:5
	bl	WM_HideWindow
	.loc	2 467 5 is_stmt 1       @ ../Application/Dsiplay/Display.c:467:5
	movs	r0, #120
	movs	r1, #110
	movw	r2, #475
	movs	r3, #135
	bl	GUI_ClearRect
	b.w	.LBB3_140
.Ltmp78:
	.p2align	2
.LBB3_35:                               @   in Loop: Header=BB3_36 Depth=1
	.loc	2 397 6                 @ ../Application/Dsiplay/Display.c:397:6
	bl	GUI_TOUCH_Exec
	.loc	2 398 6                 @ ../Application/Dsiplay/Display.c:398:6
	movs	r0, #50
	bl	GUI_Delay
.LBB3_36:                               @ =>This Inner Loop Header: Depth=1
.Ltmp79:
	.loc	2 396 27                @ ../Application/Dsiplay/Display.c:396:27
	ldr	r0, [r7]
	.loc	2 396 10 is_stmt 0      @ ../Application/Dsiplay/Display.c:396:10
	bl	BUTTON_IsPressed
.Ltmp80:
	.loc	2 396 9                 @ ../Application/Dsiplay/Display.c:396:9
	cmp	r0, #0
	bne	.LBB3_35
.Ltmp81:
@ %bb.37:
	.loc	2 401 8 is_stmt 1       @ ../Application/Dsiplay/Display.c:401:8
	ldrb	r0, [r6]
	lsls	r0, r0, #24
	bmi.w	.LBB3_202
@ %bb.38:
.Ltmp82:
	.loc	2 407 6                 @ ../Application/Dsiplay/Display.c:407:6
	bl	CreateOnScreenKeypad
	.loc	2 408 6                 @ ../Application/Dsiplay/Display.c:408:6
	movw	r0, :lower16:osk_entry
	movs	r1, #5
	movt	r0, :upper16:osk_entry
	bl	ClearBuffer
	.loc	2 409 20                @ ../Application/Dsiplay/Display.c:409:20
	movw	r0, :lower16:osk_entry_cnt
	movs	r1, #0
	movt	r0, :upper16:osk_entry_cnt
	strb	r1, [r0]
	.loc	2 410 6                 @ ../Application/Dsiplay/Display.c:410:6
	mvn	r0, #-16777216
	bl	GUI_SetColor
	.loc	2 411 6                 @ ../Application/Dsiplay/Display.c:411:6
	movw	r0, :lower16:GUI_Font24B_1
	movt	r0, :upper16:GUI_Font24B_1
	bl	GUI_SetFont
	.loc	2 412 6                 @ ../Application/Dsiplay/Display.c:412:6
	movs	r0, #2
	bl	GUI_SetTextMode
	.loc	2 413 6                 @ ../Application/Dsiplay/Display.c:413:6
	adr.w	r0, .LCPI3_7
	movs	r1, #150
	movs	r2, #15
	bl	GUI_DispStringAt
	movw	r0, #30000
	.loc	2 414 6                 @ ../Application/Dsiplay/Display.c:414:6
	str	r0, [r4]
	b	.LBB3_31
.Ltmp83:
.LBB3_39:                               @   in Loop: Header=BB3_40 Depth=1
	.loc	2 424 6                 @ ../Application/Dsiplay/Display.c:424:6
	bl	GUI_TOUCH_Exec
	.loc	2 425 6                 @ ../Application/Dsiplay/Display.c:425:6
	movs	r0, #50
	bl	GUI_Delay
.LBB3_40:                               @ =>This Inner Loop Header: Depth=1
.Ltmp84:
	.loc	2 423 27                @ ../Application/Dsiplay/Display.c:423:27
	ldr	r0, [r4]
	.loc	2 423 10 is_stmt 0      @ ../Application/Dsiplay/Display.c:423:10
	bl	BUTTON_IsPressed
.Ltmp85:
	.loc	2 423 9                 @ ../Application/Dsiplay/Display.c:423:9
	cmp	r0, #0
	bne	.LBB3_39
	b	.LBB3_32
.Ltmp86:
.LBB3_41:
	.loc	2 1161 24 is_stmt 1     @ ../Application/Dsiplay/Display.c:1161:24
	movw	r4, :lower16:hBUTTON_ToolScanRS485
	movt	r4, :upper16:hBUTTON_ToolScanRS485
	ldr	r0, [r4]
	.loc	2 1161 7 is_stmt 0      @ ../Application/Dsiplay/Display.c:1161:7
	bl	BUTTON_IsPressed
.Ltmp87:
	.loc	2 1161 7                @ ../Application/Dsiplay/Display.c:1161:7
	cmp	r0, #0
	bne	.LBB3_51
@ %bb.42:
.Ltmp88:
	.loc	2 1177 29 is_stmt 1     @ ../Application/Dsiplay/Display.c:1177:29
	movw	r4, :lower16:hBUTTON_ToolDisplayCalibration
	movt	r4, :upper16:hBUTTON_ToolDisplayCalibration
	ldr	r0, [r4]
	.loc	2 1177 12 is_stmt 0     @ ../Application/Dsiplay/Display.c:1177:12
	bl	BUTTON_IsPressed
.Ltmp89:
	.loc	2 1177 12               @ ../Application/Dsiplay/Display.c:1177:12
	cmp	r0, #0
	bne	.LBB3_54
@ %bb.43:
.Ltmp90:
	.loc	2 1196 29 is_stmt 1     @ ../Application/Dsiplay/Display.c:1196:29
	movw	r4, :lower16:hBUTTON_ToolUpdateFW
	movt	r4, :upper16:hBUTTON_ToolUpdateFW
	ldr	r0, [r4]
	.loc	2 1196 12 is_stmt 0     @ ../Application/Dsiplay/Display.c:1196:12
	bl	BUTTON_IsPressed
.Ltmp91:
	.loc	2 1196 12               @ ../Application/Dsiplay/Display.c:1196:12
	cmp	r0, #0
	bne	.LBB3_57
@ %bb.44:
.Ltmp92:
	.loc	2 1210 29 is_stmt 1     @ ../Application/Dsiplay/Display.c:1210:29
	movw	r4, :lower16:hBUTTON_ToolUploadImage
	movt	r4, :upper16:hBUTTON_ToolUploadImage
	ldr	r0, [r4]
	.loc	2 1210 12 is_stmt 0     @ ../Application/Dsiplay/Display.c:1210:12
	bl	BUTTON_IsPressed
.Ltmp93:
	.loc	2 1210 12               @ ../Application/Dsiplay/Display.c:1210:12
	cmp	r0, #0
	bne.w	.LBB3_138
@ %bb.45:
.Ltmp94:
	.loc	2 1224 29 is_stmt 1     @ ../Application/Dsiplay/Display.c:1224:29
	movw	r4, :lower16:hBUTTON_ToolUploadFirmware
	movt	r4, :upper16:hBUTTON_ToolUploadFirmware
	ldr	r0, [r4]
	.loc	2 1224 12 is_stmt 0     @ ../Application/Dsiplay/Display.c:1224:12
	bl	BUTTON_IsPressed
.Ltmp95:
	.loc	2 1224 12               @ ../Application/Dsiplay/Display.c:1224:12
	cmp	r0, #0
	bne.w	.LBB3_176
@ %bb.46:
.Ltmp96:
	.loc	2 1238 29 is_stmt 1     @ ../Application/Dsiplay/Display.c:1238:29
	movw	r4, :lower16:hBUTTON_ToolFileList
	movt	r4, :upper16:hBUTTON_ToolFileList
	ldr	r0, [r4]
	.loc	2 1238 12 is_stmt 0     @ ../Application/Dsiplay/Display.c:1238:12
	bl	BUTTON_IsPressed
.Ltmp97:
	.loc	2 1238 12               @ ../Application/Dsiplay/Display.c:1238:12
	cmp	r0, #0
	bne.w	.LBB3_192
@ %bb.47:
.Ltmp98:
	.loc	2 1292 29 is_stmt 1     @ ../Application/Dsiplay/Display.c:1292:29
	movw	r4, :lower16:hBUTTON_ToolFormatCard
	movt	r4, :upper16:hBUTTON_ToolFormatCard
	ldr	r0, [r4]
	.loc	2 1292 12 is_stmt 0     @ ../Application/Dsiplay/Display.c:1292:12
	bl	BUTTON_IsPressed
.Ltmp99:
	.loc	2 1292 12               @ ../Application/Dsiplay/Display.c:1292:12
	cmp	r0, #0
	bne.w	.LBB3_210
@ %bb.48:
.Ltmp100:
	.loc	2 1306 29 is_stmt 1     @ ../Application/Dsiplay/Display.c:1306:29
	movw	r4, :lower16:hBUTTON_ToolLoadList
	movt	r4, :upper16:hBUTTON_ToolLoadList
	ldr	r0, [r4]
	.loc	2 1306 12 is_stmt 0     @ ../Application/Dsiplay/Display.c:1306:12
	bl	BUTTON_IsPressed
.Ltmp101:
	.loc	2 1306 12               @ ../Application/Dsiplay/Display.c:1306:12
	cmp	r0, #0
	bne.w	.LBB3_225
@ %bb.49:
.Ltmp102:
	.loc	2 1320 29 is_stmt 1     @ ../Application/Dsiplay/Display.c:1320:29
	movw	r4, :lower16:hBUTTON_ToolExit
	movt	r4, :upper16:hBUTTON_ToolExit
	ldr	r0, [r4]
	.loc	2 1320 12 is_stmt 0     @ ../Application/Dsiplay/Display.c:1320:12
	bl	BUTTON_IsPressed
.Ltmp103:
	.loc	2 1320 12               @ ../Application/Dsiplay/Display.c:1320:12
	cmp	r0, #0
	bne.w	.LBB3_235
	b	.LBB3_1
.Ltmp104:
	.p2align	2
.LBB3_50:                               @   in Loop: Header=BB3_51 Depth=1
	.loc	2 1166 6 is_stmt 1      @ ../Application/Dsiplay/Display.c:1166:6
	bl	GUI_TOUCH_Exec
	.loc	2 1167 6                @ ../Application/Dsiplay/Display.c:1167:6
	movs	r0, #50
	bl	GUI_Delay
.LBB3_51:                               @ =>This Inner Loop Header: Depth=1
.Ltmp105:
	.loc	2 1165 27               @ ../Application/Dsiplay/Display.c:1165:27
	ldr	r0, [r4]
	.loc	2 1165 10 is_stmt 0     @ ../Application/Dsiplay/Display.c:1165:10
	bl	BUTTON_IsPressed
.Ltmp106:
	.loc	2 1165 9                @ ../Application/Dsiplay/Display.c:1165:9
	cmp	r0, #0
	bne	.LBB3_50
.Ltmp107:
@ %bb.52:
	.loc	2 1170 5 is_stmt 1      @ ../Application/Dsiplay/Display.c:1170:5
	bl	DeleteToolsDisplay
	.loc	2 1171 5                @ ../Application/Dsiplay/Display.c:1171:5
	bl	CreateScanRS485BusDisplay
	b.w	.LBB3_178
.Ltmp108:
	.p2align	2
.LBB3_53:                               @   in Loop: Header=BB3_54 Depth=1
	.loc	2 1182 6                @ ../Application/Dsiplay/Display.c:1182:6
	bl	GUI_TOUCH_Exec
	.loc	2 1183 6                @ ../Application/Dsiplay/Display.c:1183:6
	movs	r0, #50
	bl	GUI_Delay
.LBB3_54:                               @ =>This Inner Loop Header: Depth=1
.Ltmp109:
	.loc	2 1181 27               @ ../Application/Dsiplay/Display.c:1181:27
	ldr	r0, [r4]
	.loc	2 1181 10 is_stmt 0     @ ../Application/Dsiplay/Display.c:1181:10
	bl	BUTTON_IsPressed
.Ltmp110:
	.loc	2 1181 9                @ ../Application/Dsiplay/Display.c:1181:9
	cmp	r0, #0
	bne	.LBB3_53
.Ltmp111:
@ %bb.55:
	.loc	2 1186 5 is_stmt 1      @ ../Application/Dsiplay/Display.c:1186:5
	bl	DeleteToolsDisplay
	.loc	2 1187 5                @ ../Application/Dsiplay/Display.c:1187:5
	mov.w	r0, #480
	mov.w	r1, #272
	bl	Calibration
	.loc	2 1188 5                @ ../Application/Dsiplay/Display.c:1188:5
	mov.w	r0, #1000
	bl	GUI_Delay
	.loc	2 1189 5                @ ../Application/Dsiplay/Display.c:1189:5
	bl	GUI_Clear
	.loc	2 1190 5                @ ../Application/Dsiplay/Display.c:1190:5
	bl	CreateToolsDisplay
	b.w	.LBB3_178
.Ltmp112:
.LBB3_56:                               @   in Loop: Header=BB3_57 Depth=1
	.loc	2 1201 6                @ ../Application/Dsiplay/Display.c:1201:6
	bl	GUI_TOUCH_Exec
	.loc	2 1202 6                @ ../Application/Dsiplay/Display.c:1202:6
	movs	r0, #50
	bl	GUI_Delay
.LBB3_57:                               @ =>This Inner Loop Header: Depth=1
.Ltmp113:
	.loc	2 1200 27               @ ../Application/Dsiplay/Display.c:1200:27
	ldr	r0, [r4]
	.loc	2 1200 10 is_stmt 0     @ ../Application/Dsiplay/Display.c:1200:10
	bl	BUTTON_IsPressed
.Ltmp114:
	.loc	2 1200 9                @ ../Application/Dsiplay/Display.c:1200:9
	cmp	r0, #0
	bne	.LBB3_56
	b.w	.LBB3_178
.Ltmp115:
.LBB3_58:
	.loc	2 757 4 is_stmt 1       @ ../Application/Dsiplay/Display.c:757:4
	movw	r4, :lower16:RTC_Time
	movs	r0, #1
	movt	r4, :upper16:RTC_Time
	mov	r1, r4
	bl	RTC_GetTime
.Ltmp116:
	.loc	2 759 24                @ ../Application/Dsiplay/Display.c:759:24
	movw	r7, :lower16:hBUTTON_SettingsCancel
	movt	r7, :upper16:hBUTTON_SettingsCancel
	ldr	r0, [r7]
	.loc	2 759 7 is_stmt 0       @ ../Application/Dsiplay/Display.c:759:7
	bl	BUTTON_IsPressed
	.loc	2 759 48                @ ../Application/Dsiplay/Display.c:759:48
	cbz	r0, .LBB3_60
@ %bb.59:
	.loc	2 759 52                @ ../Application/Dsiplay/Display.c:759:52
	movw	r6, :lower16:display_flags
	movt	r6, :upper16:display_flags
.Ltmp117:
	.loc	2 759 7                 @ ../Application/Dsiplay/Display.c:759:7
	ldrb	r0, [r6]
	lsls	r0, r0, #26
	bpl.w	.LBB3_78
.LBB3_60:
.Ltmp118:
	.loc	2 776 29 is_stmt 1      @ ../Application/Dsiplay/Display.c:776:29
	movw	r7, :lower16:hBUTTON_SettingsOk
	movt	r7, :upper16:hBUTTON_SettingsOk
	ldr	r0, [r7]
	.loc	2 776 12 is_stmt 0      @ ../Application/Dsiplay/Display.c:776:12
	bl	BUTTON_IsPressed
	cbz	r0, .LBB3_62
@ %bb.61:
	.loc	2 776 54                @ ../Application/Dsiplay/Display.c:776:54
	movw	r6, :lower16:display_flags
	movt	r6, :upper16:display_flags
.Ltmp119:
	.loc	2 776 12                @ ../Application/Dsiplay/Display.c:776:12
	ldrb	r0, [r6]
	lsls	r0, r0, #26
	bpl.w	.LBB3_81
.LBB3_62:
.Ltmp120:
	.loc	2 812 29 is_stmt 1      @ ../Application/Dsiplay/Display.c:812:29
	movw	r6, :lower16:hBUTTON_SettingsApply
	movt	r6, :upper16:hBUTTON_SettingsApply
	ldr	r0, [r6]
	.loc	2 812 12 is_stmt 0      @ ../Application/Dsiplay/Display.c:812:12
	bl	BUTTON_IsPressed
	cbz	r0, .LBB3_64
@ %bb.63:
	.loc	2 812 57                @ ../Application/Dsiplay/Display.c:812:57
	movw	r0, :lower16:display_flags
	movt	r0, :upper16:display_flags
.Ltmp121:
	.loc	2 812 12                @ ../Application/Dsiplay/Display.c:812:12
	ldrb	r0, [r0]
	lsls	r0, r0, #26
	bpl.w	.LBB3_85
.LBB3_64:
.Ltmp122:
	.loc	2 893 29 is_stmt 1      @ ../Application/Dsiplay/Display.c:893:29
	movw	r6, :lower16:hBUTTON_SettingsEdit
	movt	r6, :upper16:hBUTTON_SettingsEdit
	ldr	r0, [r6]
	.loc	2 893 12 is_stmt 0      @ ../Application/Dsiplay/Display.c:893:12
	bl	BUTTON_IsPressed
	cbz	r0, .LBB3_66
@ %bb.65:
	.loc	2 893 56                @ ../Application/Dsiplay/Display.c:893:56
	movw	r7, :lower16:display_flags
	movt	r7, :upper16:display_flags
.Ltmp123:
	.loc	2 893 12                @ ../Application/Dsiplay/Display.c:893:12
	ldrb	r0, [r7]
	lsls	r0, r0, #26
	bpl.w	.LBB3_88
.LBB3_66:
.Ltmp124:
	.loc	2 931 12 is_stmt 1      @ ../Application/Dsiplay/Display.c:931:12
	movw	r1, :lower16:DisplayService.tmp_sec
	.loc	2 931 32 is_stmt 0      @ ../Application/Dsiplay/Display.c:931:32
	ldrb	r0, [r4, #2]
	.loc	2 931 12                @ ../Application/Dsiplay/Display.c:931:12
	movt	r1, :upper16:DisplayService.tmp_sec
	ldrb	r2, [r1]
.Ltmp125:
	.loc	2 931 12                @ ../Application/Dsiplay/Display.c:931:12
	cmp	r2, r0
	bne.w	.LBB3_190
@ %bb.67:
.Ltmp126:
	.loc	2 961 20 is_stmt 1      @ ../Application/Dsiplay/Display.c:961:20
	movw	r4, :lower16:hEDIT_TcpIpAddress
	movt	r4, :upper16:hEDIT_TcpIpAddress
	ldr	r0, [r4]
	.loc	2 961 8 is_stmt 0       @ ../Application/Dsiplay/Display.c:961:8
	bl	WM_HasFocus
.Ltmp127:
	.loc	2 961 8                 @ ../Application/Dsiplay/Display.c:961:8
	cmp	r0, #1
	beq	.LBB3_75
@ %bb.68:
.Ltmp128:
	.loc	2 966 25 is_stmt 1      @ ../Application/Dsiplay/Display.c:966:25
	movw	r4, :lower16:hEDIT_TcpIpGateway
	movt	r4, :upper16:hEDIT_TcpIpGateway
	ldr	r0, [r4]
	.loc	2 966 13 is_stmt 0      @ ../Application/Dsiplay/Display.c:966:13
	bl	WM_HasFocus
.Ltmp129:
	.loc	2 966 13                @ ../Application/Dsiplay/Display.c:966:13
	cmp	r0, #1
	beq	.LBB3_75
@ %bb.69:
.Ltmp130:
	.loc	2 971 25 is_stmt 1      @ ../Application/Dsiplay/Display.c:971:25
	movw	r4, :lower16:hEDIT_TcpIpSubnet
	movt	r4, :upper16:hEDIT_TcpIpSubnet
	ldr	r0, [r4]
	.loc	2 971 13 is_stmt 0      @ ../Application/Dsiplay/Display.c:971:13
	bl	WM_HasFocus
.Ltmp131:
	.loc	2 971 13                @ ../Application/Dsiplay/Display.c:971:13
	cmp	r0, #1
	beq	.LBB3_75
@ %bb.70:
.Ltmp132:
	.loc	2 976 25 is_stmt 1      @ ../Application/Dsiplay/Display.c:976:25
	movw	r4, :lower16:hEDIT_RS485_InterfaceAddress
	movt	r4, :upper16:hEDIT_RS485_InterfaceAddress
	ldr	r0, [r4]
	.loc	2 976 13 is_stmt 0      @ ../Application/Dsiplay/Display.c:976:13
	bl	WM_HasFocus
.Ltmp133:
	.loc	2 976 13                @ ../Application/Dsiplay/Display.c:976:13
	cmp	r0, #1
	beq	.LBB3_75
@ %bb.71:
.Ltmp134:
	.loc	2 981 25 is_stmt 1      @ ../Application/Dsiplay/Display.c:981:25
	movw	r4, :lower16:hEDIT_RS485_BroadcastAddress
	movt	r4, :upper16:hEDIT_RS485_BroadcastAddress
	ldr	r0, [r4]
	.loc	2 981 13 is_stmt 0      @ ../Application/Dsiplay/Display.c:981:13
	bl	WM_HasFocus
.Ltmp135:
	.loc	2 981 13                @ ../Application/Dsiplay/Display.c:981:13
	cmp	r0, #1
	beq	.LBB3_75
@ %bb.72:
.Ltmp136:
	.loc	2 986 25 is_stmt 1      @ ../Application/Dsiplay/Display.c:986:25
	movw	r4, :lower16:hEDIT_DateTime
	movt	r4, :upper16:hEDIT_DateTime
	ldr	r0, [r4]
	.loc	2 986 13 is_stmt 0      @ ../Application/Dsiplay/Display.c:986:13
	bl	WM_HasFocus
.Ltmp137:
	.loc	2 986 13                @ ../Application/Dsiplay/Display.c:986:13
	cmp	r0, #1
	beq	.LBB3_75
@ %bb.73:
.Ltmp138:
	.loc	2 991 25 is_stmt 1      @ ../Application/Dsiplay/Display.c:991:25
	movw	r4, :lower16:hEDIT_Password
	movt	r4, :upper16:hEDIT_Password
	ldr	r0, [r4]
	.loc	2 991 13 is_stmt 0      @ ../Application/Dsiplay/Display.c:991:13
	bl	WM_HasFocus
.Ltmp139:
	.loc	2 991 13                @ ../Application/Dsiplay/Display.c:991:13
	cmp	r0, #1
	beq	.LBB3_75
@ %bb.74:
.Ltmp140:
	.loc	2 996 25 is_stmt 1      @ ../Application/Dsiplay/Display.c:996:25
	movw	r4, :lower16:hEDIT_SysID
	movt	r4, :upper16:hEDIT_SysID
	ldr	r0, [r4]
	.loc	2 996 13 is_stmt 0      @ ../Application/Dsiplay/Display.c:996:13
	bl	WM_HasFocus
.Ltmp141:
	.loc	2 996 13                @ ../Application/Dsiplay/Display.c:996:13
	cmp	r0, #1
	bne.w	.LBB3_258
.Ltmp142:
.LBB3_75:
	.loc	2 0 0                   @ ../Application/Dsiplay/Display.c:0:0
	ldr	r0, [r4]
	movw	r4, :lower16:hSELECTED
	movt	r4, :upper16:hSELECTED
	str	r0, [r4]
	bl	EDIT_GetCursorCharPos
	movw	r1, :lower16:cursor_pos
	movt	r1, :upper16:cursor_pos
	strb	r0, [r1]
.Ltmp143:
	.loc	2 1007 8 is_stmt 1      @ ../Application/Dsiplay/Display.c:1007:8
	ldr	r1, [r4]
	.loc	2 0 0 is_stmt 0         @ ../Application/Dsiplay/Display.c:0:0
	ldr	r0, [r6]
.Ltmp144:
	.loc	2 1007 8                @ ../Application/Dsiplay/Display.c:1007:8
	cmp	r1, #0
	beq.w	.LBB3_259
@ %bb.76:
.Ltmp145:
	.loc	2 1008 10 is_stmt 1     @ ../Application/Dsiplay/Display.c:1008:10
	add	sp, #4
	pop.w	{r4, r5, r6, r7, r8, r9, r10, r11, lr}
	b	WM_EnableWindow
.Ltmp146:
	.p2align	2
.LBB3_77:                               @   in Loop: Header=BB3_78 Depth=1
	.loc	2 764 6                 @ ../Application/Dsiplay/Display.c:764:6
	bl	GUI_TOUCH_Exec
	.loc	2 765 6                 @ ../Application/Dsiplay/Display.c:765:6
	movs	r0, #50
	bl	GUI_Delay
.LBB3_78:                               @ =>This Inner Loop Header: Depth=1
.Ltmp147:
	.loc	2 763 27                @ ../Application/Dsiplay/Display.c:763:27
	ldr	r0, [r7]
	.loc	2 763 10 is_stmt 0      @ ../Application/Dsiplay/Display.c:763:10
	bl	BUTTON_IsPressed
.Ltmp148:
	.loc	2 763 9                 @ ../Application/Dsiplay/Display.c:763:9
	cmp	r0, #0
	bne	.LBB3_77
.Ltmp149:
@ %bb.79:
	.loc	2 768 5 is_stmt 1       @ ../Application/Dsiplay/Display.c:768:5
	bl	RAM_Init
	b	.LBB3_83
.Ltmp150:
	.p2align	2
.LBB3_80:                               @   in Loop: Header=BB3_81 Depth=1
	.loc	2 781 6                 @ ../Application/Dsiplay/Display.c:781:6
	bl	GUI_TOUCH_Exec
	.loc	2 782 6                 @ ../Application/Dsiplay/Display.c:782:6
	movs	r0, #50
	bl	GUI_Delay
.LBB3_81:                               @ =>This Inner Loop Header: Depth=1
.Ltmp151:
	.loc	2 780 27                @ ../Application/Dsiplay/Display.c:780:27
	ldr	r0, [r7]
	.loc	2 780 10 is_stmt 0      @ ../Application/Dsiplay/Display.c:780:10
	bl	BUTTON_IsPressed
.Ltmp152:
	.loc	2 780 9                 @ ../Application/Dsiplay/Display.c:780:9
	cmp	r0, #0
	bne	.LBB3_80
.Ltmp153:
@ %bb.82:
	.loc	2 785 5 is_stmt 1       @ ../Application/Dsiplay/Display.c:785:5
	movw	r0, :lower16:ip_address
	movw	r1, :lower16:new_ip
	.loc	2 786 5                 @ ../Application/Dsiplay/Display.c:786:5
	movw	r2, :lower16:new_nm
	.loc	2 787 5                 @ ../Application/Dsiplay/Display.c:787:5
	movw	r3, :lower16:new_gw
	.loc	2 785 5                 @ ../Application/Dsiplay/Display.c:785:5
	movt	r0, :upper16:ip_address
	movt	r1, :upper16:new_ip
	.loc	2 786 5                 @ ../Application/Dsiplay/Display.c:786:5
	movt	r2, :upper16:new_nm
	.loc	2 787 5                 @ ../Application/Dsiplay/Display.c:787:5
	movt	r3, :upper16:new_gw
	.loc	2 785 5                 @ ../Application/Dsiplay/Display.c:785:5
	ldr	r0, [r0]
	str	r0, [r1]
	.loc	2 786 5                 @ ../Application/Dsiplay/Display.c:786:5
	movw	r0, :lower16:subnet_mask
	movt	r0, :upper16:subnet_mask
	ldr	r0, [r0]
	str	r0, [r2]
	.loc	2 787 5                 @ ../Application/Dsiplay/Display.c:787:5
	movw	r0, :lower16:gateway_address
	movt	r0, :upper16:gateway_address
	ldr	r0, [r0]
	str	r0, [r3]
	.loc	2 788 5                 @ ../Application/Dsiplay/Display.c:788:5
	movw	r0, :lower16:netif
	movt	r0, :upper16:netif
	bl	netif_set_addr
.Ltmp154:
	.loc	2 790 26                @ ../Application/Dsiplay/Display.c:790:26
	movw	r0, :lower16:hCHECKBOX_EnableDHCP
	movt	r0, :upper16:hCHECKBOX_EnableDHCP
	ldr	r0, [r0]
	.loc	2 790 8 is_stmt 0       @ ../Application/Dsiplay/Display.c:790:8
	bl	CHECKBOX_GetState
	.loc	2 0 0                   @ ../Application/Dsiplay/Display.c:0:0
	movw	r4, :lower16:system_config
.Ltmp155:
	.loc	2 790 8                 @ ../Application/Dsiplay/Display.c:790:8
	cmp	r0, #1
.Ltmp156:
	.loc	2 793 26 is_stmt 1      @ ../Application/Dsiplay/Display.c:793:26
	movw	r0, :lower16:hCHECKBOX_EnableBroadcastTime
.Ltmp157:
	.loc	2 0 0 is_stmt 0         @ ../Application/Dsiplay/Display.c:0:0
	movt	r4, :upper16:system_config
.Ltmp158:
	.loc	2 793 26                @ ../Application/Dsiplay/Display.c:793:26
	movt	r0, :upper16:hCHECKBOX_EnableBroadcastTime
.Ltmp159:
	.loc	2 0 0                   @ ../Application/Dsiplay/Display.c:0:0
	ldr	r1, [r4]
.Ltmp160:
	.loc	2 790 8 is_stmt 1       @ ../Application/Dsiplay/Display.c:790:8
	bic	r2, r1, #4096
	it	eq
	orreq	r2, r1, #4096
.Ltmp161:
	.loc	2 793 26                @ ../Application/Dsiplay/Display.c:793:26
	ldr	r0, [r0]
.Ltmp162:
	.loc	2 0 0 is_stmt 0         @ ../Application/Dsiplay/Display.c:0:0
	str	r2, [r4]
.Ltmp163:
	.loc	2 793 8                 @ ../Application/Dsiplay/Display.c:793:8
	bl	CHECKBOX_GetState
	.loc	2 0 0                   @ ../Application/Dsiplay/Display.c:0:0
	ldr	r1, [r4]
.Ltmp164:
	.loc	2 793 8                 @ ../Application/Dsiplay/Display.c:793:8
	cmp	r0, #1
.Ltmp165:
	.loc	2 796 26 is_stmt 1      @ ../Application/Dsiplay/Display.c:796:26
	movw	r0, :lower16:hCHECKBOX_EnableHTTP
	movt	r0, :upper16:hCHECKBOX_EnableHTTP
.Ltmp166:
	.loc	2 793 8                 @ ../Application/Dsiplay/Display.c:793:8
	bic	r2, r1, #2048
	it	eq
	orreq	r2, r1, #2048
.Ltmp167:
	.loc	2 796 26                @ ../Application/Dsiplay/Display.c:796:26
	ldr	r0, [r0]
.Ltmp168:
	.loc	2 0 0 is_stmt 0         @ ../Application/Dsiplay/Display.c:0:0
	str	r2, [r4]
.Ltmp169:
	.loc	2 796 8                 @ ../Application/Dsiplay/Display.c:796:8
	bl	CHECKBOX_GetState
	.loc	2 0 0                   @ ../Application/Dsiplay/Display.c:0:0
	ldr	r1, [r4]
.Ltmp170:
	.loc	2 796 8                 @ ../Application/Dsiplay/Display.c:796:8
	cmp	r0, #1
.Ltmp171:
	.loc	2 799 26 is_stmt 1      @ ../Application/Dsiplay/Display.c:799:26
	movw	r0, :lower16:hCHECKBOX_EnableWebConfig
	movt	r0, :upper16:hCHECKBOX_EnableWebConfig
.Ltmp172:
	.loc	2 796 8                 @ ../Application/Dsiplay/Display.c:796:8
	bic	r2, r1, #256
	it	eq
	orreq	r2, r1, #256
.Ltmp173:
	.loc	2 799 26                @ ../Application/Dsiplay/Display.c:799:26
	ldr	r0, [r0]
.Ltmp174:
	.loc	2 0 0 is_stmt 0         @ ../Application/Dsiplay/Display.c:0:0
	str	r2, [r4]
.Ltmp175:
	.loc	2 799 8                 @ ../Application/Dsiplay/Display.c:799:8
	bl	CHECKBOX_GetState
	.loc	2 0 0                   @ ../Application/Dsiplay/Display.c:0:0
	ldr	r1, [r4]
.Ltmp176:
	.loc	2 799 8                 @ ../Application/Dsiplay/Display.c:799:8
	cmp	r0, #1
.Ltmp177:
	.loc	2 802 26 is_stmt 1      @ ../Application/Dsiplay/Display.c:802:26
	movw	r0, :lower16:hCHECKBOX_EnableTFTP
	movt	r0, :upper16:hCHECKBOX_EnableTFTP
.Ltmp178:
	.loc	2 799 8                 @ ../Application/Dsiplay/Display.c:799:8
	bic	r2, r1, #512
	it	eq
	orreq	r2, r1, #512
.Ltmp179:
	.loc	2 802 26                @ ../Application/Dsiplay/Display.c:802:26
	ldr	r0, [r0]
.Ltmp180:
	.loc	2 0 0 is_stmt 0         @ ../Application/Dsiplay/Display.c:0:0
	str	r2, [r4]
.Ltmp181:
	.loc	2 802 8                 @ ../Application/Dsiplay/Display.c:802:8
	bl	CHECKBOX_GetState
	.loc	2 0 0                   @ ../Application/Dsiplay/Display.c:0:0
	ldr	r1, [r4]
.Ltmp182:
	.loc	2 802 8                 @ ../Application/Dsiplay/Display.c:802:8
	cmp	r0, #1
	bic	r2, r1, #1024
	it	eq
	orreq	r2, r1, #1024
.Ltmp183:
	.loc	2 0 0                   @ ../Application/Dsiplay/Display.c:0:0
	str	r2, [r4]
.Ltmp184:
.LBB3_83:
	bl	DeleteSettingsMenuDisplay
	bl	CreateDefaultDisplay
	movw	r0, :lower16:display_timer
	movw	r1, #30000
	movt	r0, :upper16:display_timer
	str	r1, [r0]
	movw	r0, :lower16:display_timeout_timer
	movt	r0, :upper16:display_timeout_timer
	str	r1, [r0]
	ldr	r0, [r6]
	orr	r0, r0, #64
	str	r0, [r6]
	b.w	.LBB3_275
	.p2align	2
.LBB3_84:                               @   in Loop: Header=BB3_85 Depth=1
.Ltmp185:
	.loc	2 817 6 is_stmt 1       @ ../Application/Dsiplay/Display.c:817:6
	bl	GUI_TOUCH_Exec
	.loc	2 818 6                 @ ../Application/Dsiplay/Display.c:818:6
	movs	r0, #50
	bl	GUI_Delay
.LBB3_85:                               @ =>This Inner Loop Header: Depth=1
.Ltmp186:
	.loc	2 816 27                @ ../Application/Dsiplay/Display.c:816:27
	ldr	r0, [r6]
	.loc	2 816 10 is_stmt 0      @ ../Application/Dsiplay/Display.c:816:10
	bl	BUTTON_IsPressed
.Ltmp187:
	.loc	2 816 9                 @ ../Application/Dsiplay/Display.c:816:9
	cmp	r0, #0
	bne	.LBB3_84
.Ltmp188:
@ %bb.86:
	.loc	2 821 5 is_stmt 1       @ ../Application/Dsiplay/Display.c:821:5
	movw	r4, :lower16:ip_address
	movw	r1, :lower16:new_ip
	.loc	2 822 5                 @ ../Application/Dsiplay/Display.c:822:5
	movw	r7, :lower16:subnet_mask
	movw	r2, :lower16:new_nm
	.loc	2 823 5                 @ ../Application/Dsiplay/Display.c:823:5
	movw	r6, :lower16:gateway_address
	movw	r3, :lower16:new_gw
	.loc	2 821 5                 @ ../Application/Dsiplay/Display.c:821:5
	movt	r4, :upper16:ip_address
	movt	r1, :upper16:new_ip
	.loc	2 822 5                 @ ../Application/Dsiplay/Display.c:822:5
	movt	r7, :upper16:subnet_mask
	movt	r2, :upper16:new_nm
	.loc	2 823 5                 @ ../Application/Dsiplay/Display.c:823:5
	movt	r6, :upper16:gateway_address
	movt	r3, :upper16:new_gw
	.loc	2 821 5                 @ ../Application/Dsiplay/Display.c:821:5
	ldr	r0, [r4]
	str	r0, [r1]
	.loc	2 822 5                 @ ../Application/Dsiplay/Display.c:822:5
	ldr	r0, [r7]
	str	r0, [r2]
	.loc	2 823 5                 @ ../Application/Dsiplay/Display.c:823:5
	ldr	r0, [r6]
	str	r0, [r3]
	.loc	2 825 5                 @ ../Application/Dsiplay/Display.c:825:5
	movw	r0, :lower16:netif
	movt	r0, :upper16:netif
	bl	netif_set_addr
	.loc	2 826 24                @ ../Application/Dsiplay/Display.c:826:24
	ldr	r0, [r4]
	.loc	2 826 22 is_stmt 0      @ ../Application/Dsiplay/Display.c:826:22
	movw	r4, :lower16:i2c_ee_buffer
	.loc	2 830 5 is_stmt 1       @ ../Application/Dsiplay/Display.c:830:5
	movs	r1, #0
	movs	r2, #4
	movs	r5, #0
	.loc	2 826 22                @ ../Application/Dsiplay/Display.c:826:22
	movt	r4, :upper16:i2c_ee_buffer
	str	r0, [r4]
	.loc	2 830 5                 @ ../Application/Dsiplay/Display.c:830:5
	movs	r0, #160
	bl	I2C_EERPOM_WriteBytes16
	.loc	2 831 5                 @ ../Application/Dsiplay/Display.c:831:5
	movs	r0, #15
	bl	delay
	.loc	2 832 24                @ ../Application/Dsiplay/Display.c:832:24
	ldr	r0, [r7]
	.loc	2 836 5                 @ ../Application/Dsiplay/Display.c:836:5
	movs	r1, #4
	movs	r2, #4
	.loc	2 832 22                @ ../Application/Dsiplay/Display.c:832:22
	str	r0, [r4]
	.loc	2 836 5                 @ ../Application/Dsiplay/Display.c:836:5
	movs	r0, #160
	bl	I2C_EERPOM_WriteBytes16
	.loc	2 837 5                 @ ../Application/Dsiplay/Display.c:837:5
	movs	r0, #15
	bl	delay
	.loc	2 838 24                @ ../Application/Dsiplay/Display.c:838:24
	ldr	r0, [r6]
	.loc	2 842 5                 @ ../Application/Dsiplay/Display.c:842:5
	movs	r1, #8
	movs	r2, #4
	.loc	2 838 22                @ ../Application/Dsiplay/Display.c:838:22
	str	r0, [r4]
	.loc	2 842 5                 @ ../Application/Dsiplay/Display.c:842:5
	movs	r0, #160
	bl	I2C_EERPOM_WriteBytes16
	.loc	2 843 5                 @ ../Application/Dsiplay/Display.c:843:5
	movs	r0, #15
	bl	delay
	.loc	2 845 25                @ ../Application/Dsiplay/Display.c:845:25
	movw	r0, :lower16:rs485_interface_address
	.loc	2 847 5                 @ ../Application/Dsiplay/Display.c:847:5
	movs	r1, #16
	movs	r2, #2
	.loc	2 845 25                @ ../Application/Dsiplay/Display.c:845:25
	movt	r0, :upper16:rs485_interface_address
	ldrh	r0, [r0]
	.loc	2 846 22                @ ../Application/Dsiplay/Display.c:846:22
	strb	r0, [r4, #1]
	.loc	2 845 49                @ ../Application/Dsiplay/Display.c:845:49
	lsrs	r0, r0, #8
	.loc	2 845 22 is_stmt 0      @ ../Application/Dsiplay/Display.c:845:22
	strb	r0, [r4]
	.loc	2 847 5 is_stmt 1       @ ../Application/Dsiplay/Display.c:847:5
	movs	r0, #160
	bl	I2C_EERPOM_WriteBytes16
	.loc	2 848 5                 @ ../Application/Dsiplay/Display.c:848:5
	movs	r0, #15
	bl	delay
	.loc	2 849 25                @ ../Application/Dsiplay/Display.c:849:25
	movw	r0, :lower16:rs485_broadcast_address
	.loc	2 851 5                 @ ../Application/Dsiplay/Display.c:851:5
	movs	r1, #20
	movs	r2, #2
	.loc	2 849 25                @ ../Application/Dsiplay/Display.c:849:25
	movt	r0, :upper16:rs485_broadcast_address
	ldrh	r0, [r0]
	.loc	2 850 22                @ ../Application/Dsiplay/Display.c:850:22
	strb	r0, [r4, #1]
	.loc	2 849 49                @ ../Application/Dsiplay/Display.c:849:49
	lsrs	r0, r0, #8
	.loc	2 849 22 is_stmt 0      @ ../Application/Dsiplay/Display.c:849:22
	strb	r0, [r4]
	.loc	2 851 5 is_stmt 1       @ ../Application/Dsiplay/Display.c:851:5
	movs	r0, #160
	bl	I2C_EERPOM_WriteBytes16
	.loc	2 852 5                 @ ../Application/Dsiplay/Display.c:852:5
	movs	r0, #15
	bl	delay
	.loc	2 853 86                @ ../Application/Dsiplay/Display.c:853:86
	movw	r0, :lower16:rs485_interface_baudrate
	.loc	2 853 5 is_stmt 0       @ ../Application/Dsiplay/Display.c:853:5
	movs	r1, #28
	.loc	2 853 86                @ ../Application/Dsiplay/Display.c:853:86
	movt	r0, :upper16:rs485_interface_baudrate
	ldrb	r2, [r0]
	.loc	2 853 5                 @ ../Application/Dsiplay/Display.c:853:5
	movs	r0, #160
	bl	I2C_EERPOM_WriteByte16
	.loc	2 854 5 is_stmt 1       @ ../Application/Dsiplay/Display.c:854:5
	movs	r0, #15
	bl	delay
	.loc	2 856 24                @ ../Application/Dsiplay/Display.c:856:24
	movw	r0, :lower16:password_set
	.loc	2 862 5                 @ ../Application/Dsiplay/Display.c:862:5
	movs	r2, #6
	.loc	2 856 24                @ ../Application/Dsiplay/Display.c:856:24
	movt	r0, :upper16:password_set
	ldrh	r1, [r0]
	.loc	2 858 24                @ ../Application/Dsiplay/Display.c:858:24
	ldr.w	r0, [r0, #2]
	.loc	2 856 22                @ ../Application/Dsiplay/Display.c:856:22
	strh	r1, [r4]
	.loc	2 858 22                @ ../Application/Dsiplay/Display.c:858:22
	str.w	r0, [r4, #2]
	.loc	2 862 5                 @ ../Application/Dsiplay/Display.c:862:5
	movs	r0, #160
	movs	r1, #32
	bl	I2C_EERPOM_WriteBytes16
	.loc	2 863 5                 @ ../Application/Dsiplay/Display.c:863:5
	movs	r0, #15
	bl	delay
	.loc	2 865 25                @ ../Application/Dsiplay/Display.c:865:25
	movw	r0, :lower16:system_id
	.loc	2 867 5                 @ ../Application/Dsiplay/Display.c:867:5
	movs	r1, #26
	movs	r2, #2
	.loc	2 865 25                @ ../Application/Dsiplay/Display.c:865:25
	movt	r0, :upper16:system_id
	ldrh	r0, [r0]
	.loc	2 866 22                @ ../Application/Dsiplay/Display.c:866:22
	strb	r0, [r4, #1]
	.loc	2 865 35                @ ../Application/Dsiplay/Display.c:865:35
	lsrs	r0, r0, #8
	.loc	2 865 22 is_stmt 0      @ ../Application/Dsiplay/Display.c:865:22
	strb	r0, [r4]
	.loc	2 867 5 is_stmt 1       @ ../Application/Dsiplay/Display.c:867:5
	movs	r0, #160
	bl	I2C_EERPOM_WriteBytes16
	.loc	2 868 5                 @ ../Application/Dsiplay/Display.c:868:5
	movs	r0, #15
	bl	delay
.Ltmp189:
	.loc	2 870 26                @ ../Application/Dsiplay/Display.c:870:26
	movw	r0, :lower16:hCHECKBOX_EnableDHCP
	movt	r0, :upper16:hCHECKBOX_EnableDHCP
	ldr	r0, [r0]
	.loc	2 870 8 is_stmt 0       @ ../Application/Dsiplay/Display.c:870:8
	bl	CHECKBOX_GetState
	.loc	2 0 0                   @ ../Application/Dsiplay/Display.c:0:0
	movw	r6, :lower16:system_config
.Ltmp190:
	.loc	2 870 8                 @ ../Application/Dsiplay/Display.c:870:8
	cmp	r0, #1
.Ltmp191:
	.loc	2 873 26 is_stmt 1      @ ../Application/Dsiplay/Display.c:873:26
	movw	r0, :lower16:hCHECKBOX_EnableBroadcastTime
.Ltmp192:
	.loc	2 0 0 is_stmt 0         @ ../Application/Dsiplay/Display.c:0:0
	movt	r6, :upper16:system_config
.Ltmp193:
	.loc	2 873 26                @ ../Application/Dsiplay/Display.c:873:26
	movt	r0, :upper16:hCHECKBOX_EnableBroadcastTime
.Ltmp194:
	.loc	2 0 0                   @ ../Application/Dsiplay/Display.c:0:0
	ldr	r1, [r6]
.Ltmp195:
	.loc	2 870 8 is_stmt 1       @ ../Application/Dsiplay/Display.c:870:8
	bic	r2, r1, #4096
	it	eq
	orreq	r2, r1, #4096
.Ltmp196:
	.loc	2 873 26                @ ../Application/Dsiplay/Display.c:873:26
	ldr	r0, [r0]
.Ltmp197:
	.loc	2 0 0 is_stmt 0         @ ../Application/Dsiplay/Display.c:0:0
	str	r2, [r6]
.Ltmp198:
	.loc	2 873 8                 @ ../Application/Dsiplay/Display.c:873:8
	bl	CHECKBOX_GetState
	.loc	2 0 0                   @ ../Application/Dsiplay/Display.c:0:0
	ldr	r1, [r6]
.Ltmp199:
	.loc	2 873 8                 @ ../Application/Dsiplay/Display.c:873:8
	cmp	r0, #1
.Ltmp200:
	.loc	2 876 26 is_stmt 1      @ ../Application/Dsiplay/Display.c:876:26
	movw	r0, :lower16:hCHECKBOX_EnableHTTP
	movt	r0, :upper16:hCHECKBOX_EnableHTTP
.Ltmp201:
	.loc	2 873 8                 @ ../Application/Dsiplay/Display.c:873:8
	bic	r2, r1, #2048
	it	eq
	orreq	r2, r1, #2048
.Ltmp202:
	.loc	2 876 26                @ ../Application/Dsiplay/Display.c:876:26
	ldr	r0, [r0]
.Ltmp203:
	.loc	2 0 0 is_stmt 0         @ ../Application/Dsiplay/Display.c:0:0
	str	r2, [r6]
.Ltmp204:
	.loc	2 876 8                 @ ../Application/Dsiplay/Display.c:876:8
	bl	CHECKBOX_GetState
	.loc	2 0 0                   @ ../Application/Dsiplay/Display.c:0:0
	ldr	r1, [r6]
.Ltmp205:
	.loc	2 876 8                 @ ../Application/Dsiplay/Display.c:876:8
	cmp	r0, #1
.Ltmp206:
	.loc	2 879 26 is_stmt 1      @ ../Application/Dsiplay/Display.c:879:26
	movw	r0, :lower16:hCHECKBOX_EnableWebConfig
	movt	r0, :upper16:hCHECKBOX_EnableWebConfig
.Ltmp207:
	.loc	2 876 8                 @ ../Application/Dsiplay/Display.c:876:8
	bic	r2, r1, #256
	it	eq
	orreq	r2, r1, #256
.Ltmp208:
	.loc	2 879 26                @ ../Application/Dsiplay/Display.c:879:26
	ldr	r0, [r0]
.Ltmp209:
	.loc	2 0 0 is_stmt 0         @ ../Application/Dsiplay/Display.c:0:0
	str	r2, [r6]
.Ltmp210:
	.loc	2 879 8                 @ ../Application/Dsiplay/Display.c:879:8
	bl	CHECKBOX_GetState
	.loc	2 0 0                   @ ../Application/Dsiplay/Display.c:0:0
	ldr	r1, [r6]
.Ltmp211:
	.loc	2 879 8                 @ ../Application/Dsiplay/Display.c:879:8
	cmp	r0, #1
.Ltmp212:
	.loc	2 882 26 is_stmt 1      @ ../Application/Dsiplay/Display.c:882:26
	movw	r0, :lower16:hCHECKBOX_EnableTFTP
	movt	r0, :upper16:hCHECKBOX_EnableTFTP
.Ltmp213:
	.loc	2 879 8                 @ ../Application/Dsiplay/Display.c:879:8
	bic	r2, r1, #512
	it	eq
	orreq	r2, r1, #512
.Ltmp214:
	.loc	2 882 26                @ ../Application/Dsiplay/Display.c:882:26
	ldr	r0, [r0]
.Ltmp215:
	.loc	2 0 0 is_stmt 0         @ ../Application/Dsiplay/Display.c:0:0
	str	r2, [r6]
.Ltmp216:
	.loc	2 882 8                 @ ../Application/Dsiplay/Display.c:882:8
	bl	CHECKBOX_GetState
	.loc	2 0 0                   @ ../Application/Dsiplay/Display.c:0:0
	ldr	r1, [r6]
.Ltmp217:
	.loc	2 887 22 is_stmt 1      @ ../Application/Dsiplay/Display.c:887:22
	strb	r5, [r4, #2]
	.loc	2 882 8                 @ ../Application/Dsiplay/Display.c:882:8
	cmp	r0, #1
	.loc	2 885 22                @ ../Application/Dsiplay/Display.c:885:22
	strh	r5, [r4]
	.loc	2 889 5                 @ ../Application/Dsiplay/Display.c:889:5
	mov.w	r0, #160
	.loc	2 882 8                 @ ../Application/Dsiplay/Display.c:882:8
	bic	r2, r1, #1024
	it	eq
	orreq	r2, r1, #1024
.Ltmp218:
	.loc	2 0 0 is_stmt 0         @ ../Application/Dsiplay/Display.c:0:0
	str	r2, [r6]
.Ltmp219:
	.loc	2 888 22 is_stmt 1      @ ../Application/Dsiplay/Display.c:888:22
	strb	r2, [r4, #3]
	.loc	2 889 5                 @ ../Application/Dsiplay/Display.c:889:5
	movs	r1, #22
	movs	r2, #4
	bl	I2C_EERPOM_WriteBytes16
	.loc	2 890 5                 @ ../Application/Dsiplay/Display.c:890:5
	movs	r0, #15
	bl	delay
	b.w	.LBB3_275
.Ltmp220:
.LBB3_87:                               @   in Loop: Header=BB3_88 Depth=1
	.loc	2 898 6                 @ ../Application/Dsiplay/Display.c:898:6
	bl	GUI_TOUCH_Exec
	.loc	2 899 6                 @ ../Application/Dsiplay/Display.c:899:6
	movs	r0, #50
	bl	GUI_Delay
.LBB3_88:                               @ =>This Inner Loop Header: Depth=1
.Ltmp221:
	.loc	2 897 27                @ ../Application/Dsiplay/Display.c:897:27
	ldr	r0, [r6]
	.loc	2 897 10 is_stmt 0      @ ../Application/Dsiplay/Display.c:897:10
	bl	BUTTON_IsPressed
.Ltmp222:
	.loc	2 897 9                 @ ../Application/Dsiplay/Display.c:897:9
	cmp	r0, #0
	bne	.LBB3_87
.Ltmp223:
@ %bb.89:
	.loc	2 902 8 is_stmt 1       @ ../Application/Dsiplay/Display.c:902:8
	movw	r6, :lower16:hSELECTED
	movt	r6, :upper16:hSELECTED
	ldr	r0, [r6]
.Ltmp224:
	.loc	2 902 8 is_stmt 0       @ ../Application/Dsiplay/Display.c:902:8
	cmp	r0, #0
	beq.w	.LBB3_251
@ %bb.90:
.Ltmp225:
	.loc	2 904 22 is_stmt 1      @ ../Application/Dsiplay/Display.c:904:22
	movw	r1, :lower16:hEDIT_TcpIpAddress
	movt	r1, :upper16:hEDIT_TcpIpAddress
	ldr	r1, [r1]
.Ltmp226:
	.loc	2 904 9 is_stmt 0       @ ../Application/Dsiplay/Display.c:904:9
	cmp	r0, r1
	bne.w	.LBB3_211
.Ltmp227:
@ %bb.91:
	.loc	2 0 9                   @ ../Application/Dsiplay/Display.c:0:9
	movs	r0, #1
	b.w	.LBB3_249
.LBB3_92:
.Ltmp228:
	.loc	2 639 24 is_stmt 1      @ ../Application/Dsiplay/Display.c:639:24
	movw	r4, :lower16:hBUTTON_Scan
	movt	r4, :upper16:hBUTTON_Scan
	ldr	r0, [r4]
	.loc	2 639 7 is_stmt 0       @ ../Application/Dsiplay/Display.c:639:7
	bl	BUTTON_IsPressed
.Ltmp229:
	.loc	2 639 7                 @ ../Application/Dsiplay/Display.c:639:7
	cbnz	r0, .LBB3_97
@ %bb.93:
.Ltmp230:
	.loc	2 704 29 is_stmt 1      @ ../Application/Dsiplay/Display.c:704:29
	movw	r4, :lower16:hBUTTON_AddressSet
	movt	r4, :upper16:hBUTTON_AddressSet
	ldr	r0, [r4]
	.loc	2 704 12 is_stmt 0      @ ../Application/Dsiplay/Display.c:704:12
	bl	BUTTON_IsPressed
.Ltmp231:
	.loc	2 704 12                @ ../Application/Dsiplay/Display.c:704:12
	cmp	r0, #0
	bne.w	.LBB3_108
@ %bb.94:
.Ltmp232:
	.loc	2 727 29 is_stmt 1      @ ../Application/Dsiplay/Display.c:727:29
	movw	r4, :lower16:hBUTTON_ExitRS485Scanner
	movt	r4, :upper16:hBUTTON_ExitRS485Scanner
	ldr	r0, [r4]
	.loc	2 727 12 is_stmt 0      @ ../Application/Dsiplay/Display.c:727:12
	bl	BUTTON_IsPressed
.Ltmp233:
	.loc	2 727 12                @ ../Application/Dsiplay/Display.c:727:12
	cmp	r0, #0
	bne.w	.LBB3_113
@ %bb.95:
.Ltmp234:
	.loc	2 746 5 is_stmt 1       @ ../Application/Dsiplay/Display.c:746:5
	movw	r4, :lower16:str_value
	movs	r1, #16
	movs	r6, #16
	movt	r4, :upper16:str_value
	mov	r0, r4
	bl	ClearBuffer
	.loc	2 747 41                @ ../Application/Dsiplay/Display.c:747:41
	movw	r7, :lower16:hLISTVIEW_AddresseFound
	movt	r7, :upper16:hLISTVIEW_AddresseFound
	ldr	r0, [r7]
	.loc	2 747 17 is_stmt 0      @ ../Application/Dsiplay/Display.c:747:17
	bl	LISTVIEW_GetSelUnsorted
	.loc	2 747 15                @ ../Application/Dsiplay/Display.c:747:15
	movw	r5, :lower16:converted
	.loc	2 747 17                @ ../Application/Dsiplay/Display.c:747:17
	mov	r2, r0
	.loc	2 748 5 is_stmt 1       @ ../Application/Dsiplay/Display.c:748:5
	movs	r1, #0
	mov	r3, r4
	.loc	2 747 15                @ ../Application/Dsiplay/Display.c:747:15
	movt	r5, :upper16:converted
	str	r0, [r5]
	.loc	2 748 26                @ ../Application/Dsiplay/Display.c:748:26
	ldr	r0, [r7]
	.loc	2 748 5 is_stmt 0       @ ../Application/Dsiplay/Display.c:748:5
	str	r6, [sp]
	bl	LISTVIEW_GetItemText
	.loc	2 749 5 is_stmt 1       @ ../Application/Dsiplay/Display.c:749:5
	mov	r0, r4
	mov	r1, r5
	add	sp, #4
	pop.w	{r4, r5, r6, r7, r8, r9, r10, r11, lr}
	b	Str2Int
.Ltmp235:
	.p2align	2
.LBB3_96:                               @   in Loop: Header=BB3_97 Depth=1
	.loc	2 644 6                 @ ../Application/Dsiplay/Display.c:644:6
	bl	GUI_TOUCH_Exec
	.loc	2 645 6                 @ ../Application/Dsiplay/Display.c:645:6
	movs	r0, #50
	bl	GUI_Delay
.LBB3_97:                               @ =>This Inner Loop Header: Depth=1
.Ltmp236:
	.loc	2 643 27                @ ../Application/Dsiplay/Display.c:643:27
	ldr	r0, [r4]
	.loc	2 643 10 is_stmt 0      @ ../Application/Dsiplay/Display.c:643:10
	bl	BUTTON_IsPressed
.Ltmp237:
	.loc	2 643 9                 @ ../Application/Dsiplay/Display.c:643:9
	cmp	r0, #0
	bne	.LBB3_96
.Ltmp238:
@ %bb.98:
	.loc	2 648 5 is_stmt 1       @ ../Application/Dsiplay/Display.c:648:5
	movw	r0, :lower16:rubicon_ctrl_buffer
	mov.w	r1, #512
	movt	r0, :upper16:rubicon_ctrl_buffer
	bl	ClearBuffer
	.loc	2 649 30                @ ../Application/Dsiplay/Display.c:649:30
	movw	r0, :lower16:hSPINBOX_StartAddress
	movt	r0, :upper16:hSPINBOX_StartAddress
	ldr	r0, [r0]
	.loc	2 649 13 is_stmt 0      @ ../Application/Dsiplay/Display.c:649:13
	bl	SPINBOX_GetValue
	.loc	2 649 11                @ ../Application/Dsiplay/Display.c:649:11
	movw	r8, :lower16:ret_1
	movt	r8, :upper16:ret_1
	str.w	r0, [r8]
	.loc	2 650 30 is_stmt 1      @ ../Application/Dsiplay/Display.c:650:30
	movw	r0, :lower16:hSPINBOX_EndAddress
	movt	r0, :upper16:hSPINBOX_EndAddress
	ldr	r0, [r0]
	.loc	2 650 13 is_stmt 0      @ ../Application/Dsiplay/Display.c:650:13
	bl	SPINBOX_GetValue
	.loc	2 650 11                @ ../Application/Dsiplay/Display.c:650:11
	movw	r9, :lower16:ret_2
	movt	r9, :upper16:ret_2
	str.w	r0, [r9]
	.loc	2 651 28 is_stmt 1      @ ../Application/Dsiplay/Display.c:651:28
	movw	r0, :lower16:hRADIO_ScanMode
	movt	r0, :upper16:hRADIO_ScanMode
	ldr	r0, [r0]
	.loc	2 651 13 is_stmt 0      @ ../Application/Dsiplay/Display.c:651:13
	bl	RADIO_GetValue
	.loc	2 651 11                @ ../Application/Dsiplay/Display.c:651:11
	movw	r4, :lower16:ret_3
	.loc	2 652 35 is_stmt 1      @ ../Application/Dsiplay/Display.c:652:35
	ldrh.w	r3, [r8]
	.loc	2 652 42 is_stmt 0      @ ../Application/Dsiplay/Display.c:652:42
	ldrh.w	r1, [r9]
	.loc	2 652 13                @ ../Application/Dsiplay/Display.c:652:13
	uxtb	r2, r0
	.loc	2 651 11 is_stmt 1      @ ../Application/Dsiplay/Display.c:651:11
	movt	r4, :upper16:ret_3
	str	r0, [r4]
	.loc	2 652 13                @ ../Application/Dsiplay/Display.c:652:13
	mov	r0, r3
	bl	RUBICON_ScanRS485_Bus
	.loc	2 652 11 is_stmt 0      @ ../Application/Dsiplay/Display.c:652:11
	movw	r6, :lower16:ret_4
	movt	r6, :upper16:ret_4
	str	r0, [r6]
	.loc	2 654 9 is_stmt 1       @ ../Application/Dsiplay/Display.c:654:9
	adds	r0, #1
	cmp	r0, #2
	blo.w	.LBB3_178
@ %bb.99:
.Ltmp239:
	.loc	2 662 15                @ ../Application/Dsiplay/Display.c:662:15
	ldr	r0, [r4]
	.loc	2 662 27 is_stmt 0      @ ../Application/Dsiplay/Display.c:662:27
	orr	r0, r0, #1
	cmp	r0, #3
	bne.w	.LBB3_177
@ %bb.100:
	.loc	2 0 27                  @ ../Application/Dsiplay/Display.c:0:27
	movw	r4, :lower16:rubicon_firmware_update_address_list
	movs	r5, #10
	movs	r7, #0
	movt	r4, :upper16:rubicon_firmware_update_address_list
	.p2align	2
.LBB3_101:                              @ =>This Inner Loop Header: Depth=1
.Ltmp240:
	@DEBUG_VALUE: DisplayService:add <- $r7
	@DEBUG_VALUE: DisplayService:attempts <- $r5
	.loc	2 669 15 is_stmt 1      @ ../Application/Dsiplay/Display.c:669:15
	ldr	r0, [r4]
	uxtb	r1, r7
.Ltmp241:
	.loc	2 672 11                @ ../Application/Dsiplay/Display.c:672:11
	movs	r2, #4
.Ltmp242:
	.loc	2 669 15                @ ../Application/Dsiplay/Display.c:669:15
	ldrh.w	r0, [r0, r1, lsl #1]
	.loc	2 670 21                @ ../Application/Dsiplay/Display.c:670:21
	adds	r1, r0, #1
	.loc	2 669 13                @ ../Application/Dsiplay/Display.c:669:13
	str.w	r0, [r8]
	.loc	2 670 13                @ ../Application/Dsiplay/Display.c:670:13
	str.w	r1, [r9]
.Ltmp243:
	.loc	2 672 11                @ ../Application/Dsiplay/Display.c:672:11
	uxth	r1, r1
	bl	RUBICON_ScanRS485_Bus
.Ltmp244:
	.loc	2 672 11 is_stmt 0      @ ../Application/Dsiplay/Display.c:672:11
	cmp	r0, #1
	bne	.LBB3_103
.Ltmp245:
@ %bb.102:                              @   in Loop: Header=BB3_101 Depth=1
	@DEBUG_VALUE: DisplayService:attempts <- $r5
	@DEBUG_VALUE: DisplayService:add <- $r7
	.loc	2 674 8 is_stmt 1       @ ../Application/Dsiplay/Display.c:674:8
	bl	UpdateRS485_FoundDeviceList
	.loc	2 675 8                 @ ../Application/Dsiplay/Display.c:675:8
	ldr	r0, [r6]
	subs	r0, #1
	str	r0, [r6]
	.loc	2 677 8                 @ ../Application/Dsiplay/Display.c:677:8
	movs	r0, #100
	bl	GUI_Delay
	.loc	2 676 8                 @ ../Application/Dsiplay/Display.c:676:8
	adds	r7, #1
.Ltmp246:
	@DEBUG_VALUE: DisplayService:add <- $r7
	.loc	2 0 8 is_stmt 0         @ ../Application/Dsiplay/Display.c:0:8
	b	.LBB3_106
.Ltmp247:
	.p2align	2
.LBB3_103:                              @   in Loop: Header=BB3_101 Depth=1
	@DEBUG_VALUE: DisplayService:attempts <- $r5
	@DEBUG_VALUE: DisplayService:add <- $r7
	.loc	2 681 8 is_stmt 1       @ ../Application/Dsiplay/Display.c:681:8
	subs	r5, #1
.Ltmp248:
	@DEBUG_VALUE: DisplayService:attempts <- $r5
	.loc	2 683 11                @ ../Application/Dsiplay/Display.c:683:11
	lsls	r0, r5, #24
	bne	.LBB3_105
.Ltmp249:
@ %bb.104:                              @   in Loop: Header=BB3_101 Depth=1
	@DEBUG_VALUE: DisplayService:attempts <- $r5
	@DEBUG_VALUE: DisplayService:add <- $r7
	.loc	2 685 9                 @ ../Application/Dsiplay/Display.c:685:9
	ldr	r0, [r6]
	.loc	2 686 9                 @ ../Application/Dsiplay/Display.c:686:9
	adds	r7, #1
.Ltmp250:
	@DEBUG_VALUE: DisplayService:add <- $r7
	.loc	2 0 9 is_stmt 0         @ ../Application/Dsiplay/Display.c:0:9
	movs	r5, #10
.Ltmp251:
	@DEBUG_VALUE: DisplayService:attempts <- 10
	.loc	2 685 9 is_stmt 1       @ ../Application/Dsiplay/Display.c:685:9
	subs	r0, #1
	str	r0, [r6]
.Ltmp252:
.LBB3_105:                              @   in Loop: Header=BB3_101 Depth=1
	@DEBUG_VALUE: DisplayService:add <- $r7
	@DEBUG_VALUE: DisplayService:add <- $r7
	@DEBUG_VALUE: DisplayService:attempts <- $r5
	.loc	2 690 8                 @ ../Application/Dsiplay/Display.c:690:8
	movs	r0, #100
	bl	GUI_Delay
.Ltmp253:
.LBB3_106:                              @   in Loop: Header=BB3_101 Depth=1
	@DEBUG_VALUE: DisplayService:attempts <- $r5
	@DEBUG_VALUE: DisplayService:add <- $r7
	@DEBUG_VALUE: DisplayService:add <- $r7
	@DEBUG_VALUE: DisplayService:attempts <- $r5
	.loc	2 667 13                @ ../Application/Dsiplay/Display.c:667:13
	ldr	r0, [r6]
	.loc	2 667 6 is_stmt 0       @ ../Application/Dsiplay/Display.c:667:6
	cmp	r0, #0
	bne	.LBB3_101
	b	.LBB3_178
.Ltmp254:
	.p2align	2
.LBB3_107:                              @   in Loop: Header=BB3_108 Depth=1
	.loc	2 709 6 is_stmt 1       @ ../Application/Dsiplay/Display.c:709:6
	bl	GUI_TOUCH_Exec
	.loc	2 710 6                 @ ../Application/Dsiplay/Display.c:710:6
	movs	r0, #50
	bl	GUI_Delay
.LBB3_108:                              @ =>This Inner Loop Header: Depth=1
.Ltmp255:
	.loc	2 708 27                @ ../Application/Dsiplay/Display.c:708:27
	ldr	r0, [r4]
	.loc	2 708 10 is_stmt 0      @ ../Application/Dsiplay/Display.c:708:10
	bl	BUTTON_IsPressed
.Ltmp256:
	.loc	2 708 9                 @ ../Application/Dsiplay/Display.c:708:9
	cmp	r0, #0
	bne	.LBB3_107
.Ltmp257:
@ %bb.109:
	.loc	2 713 5 is_stmt 1       @ ../Application/Dsiplay/Display.c:713:5
	movw	r4, :lower16:rubicon_ctrl_buffer
	mov.w	r1, #512
	movt	r4, :upper16:rubicon_ctrl_buffer
	mov	r0, r4
	bl	ClearBuffer
	.loc	2 714 30                @ ../Application/Dsiplay/Display.c:714:30
	movw	r0, :lower16:hSPINBOX_OldAddress
	movt	r0, :upper16:hSPINBOX_OldAddress
	ldr	r0, [r0]
	.loc	2 714 13 is_stmt 0      @ ../Application/Dsiplay/Display.c:714:13
	bl	SPINBOX_GetValue
	mov	r1, r0
	.loc	2 714 11                @ ../Application/Dsiplay/Display.c:714:11
	movw	r0, :lower16:ret_1
	movt	r0, :upper16:ret_1
	str	r1, [r0]
	.loc	2 715 5 is_stmt 1       @ ../Application/Dsiplay/Display.c:715:5
	mov	r0, r4
	bl	Int2Str
	.loc	2 716 11                @ ../Application/Dsiplay/Display.c:716:11
	movw	r5, :lower16:ret_2
	movs	r0, #0
	movt	r5, :upper16:ret_2
	str	r0, [r5]
	.p2align	2
.LBB3_110:                              @ =>This Inner Loop Header: Depth=1
	.loc	2 717 11                @ ../Application/Dsiplay/Display.c:717:11
	ldrb	r1, [r4, r0]
	.loc	2 0 0 is_stmt 0         @ ../Application/Dsiplay/Display.c:0:0
	adds	r0, #1
	.loc	2 717 5                 @ ../Application/Dsiplay/Display.c:717:5
	cmp	r1, #0
	bne	.LBB3_110
@ %bb.111:
	.loc	2 0 0                   @ ../Application/Dsiplay/Display.c:0:0
	str	r0, [r5]
	.loc	2 719 30 is_stmt 1      @ ../Application/Dsiplay/Display.c:719:30
	movw	r0, :lower16:hSPINBOX_NewAddress
	movt	r0, :upper16:hSPINBOX_NewAddress
	ldr	r0, [r0]
	.loc	2 719 13 is_stmt 0      @ ../Application/Dsiplay/Display.c:719:13
	bl	SPINBOX_GetValue
	mov	r1, r0
	.loc	2 719 11                @ ../Application/Dsiplay/Display.c:719:11
	movw	r0, :lower16:ret_4
	movt	r0, :upper16:ret_4
	str	r1, [r0]
	.loc	2 720 34 is_stmt 1      @ ../Application/Dsiplay/Display.c:720:34
	ldr	r0, [r5]
	.loc	2 720 14 is_stmt 0      @ ../Application/Dsiplay/Display.c:720:14
	add	r0, r4
	.loc	2 720 5                 @ ../Application/Dsiplay/Display.c:720:5
	bl	Int2Str
	.loc	2 722 5 is_stmt 1       @ ../Application/Dsiplay/Display.c:722:5
	movw	r0, :lower16:display_timeout_timer
	movw	r1, #30000
	movs	r2, #209
	movt	r0, :upper16:display_timeout_timer
	str	r1, [r0]
	.loc	2 721 26                @ ../Application/Dsiplay/Display.c:721:26
	movw	r0, :lower16:rubicon_ctrl_request
	movt	r0, :upper16:rubicon_ctrl_request
	strb	r2, [r0]
	.loc	2 723 5                 @ ../Application/Dsiplay/Display.c:723:5
	movw	r0, :lower16:display_timer
	movt	r0, :upper16:display_timer
	b	.LBB3_179
.Ltmp258:
.LBB3_112:                              @   in Loop: Header=BB3_113 Depth=1
	.loc	2 732 6                 @ ../Application/Dsiplay/Display.c:732:6
	bl	GUI_TOUCH_Exec
	.loc	2 733 6                 @ ../Application/Dsiplay/Display.c:733:6
	movs	r0, #50
	bl	GUI_Delay
.LBB3_113:                              @ =>This Inner Loop Header: Depth=1
.Ltmp259:
	.loc	2 731 27                @ ../Application/Dsiplay/Display.c:731:27
	ldr	r0, [r4]
	.loc	2 731 10 is_stmt 0      @ ../Application/Dsiplay/Display.c:731:10
	bl	BUTTON_IsPressed
.Ltmp260:
	.loc	2 731 9                 @ ../Application/Dsiplay/Display.c:731:9
	cmp	r0, #0
	bne	.LBB3_112
.Ltmp261:
@ %bb.114:
	.loc	2 736 5 is_stmt 1       @ ../Application/Dsiplay/Display.c:736:5
	bl	DeleteScanRS485BusDisplay
	.loc	2 737 5                 @ ../Application/Dsiplay/Display.c:737:5
	bl	CreateToolsDisplay
	.loc	2 738 43                @ ../Application/Dsiplay/Display.c:738:43
	movw	r0, :lower16:converted
	movt	r0, :upper16:converted
	ldr	r1, [r0]
	.loc	2 738 22 is_stmt 0      @ ../Application/Dsiplay/Display.c:738:22
	movw	r0, :lower16:hSPINBOX_SetAddress
	movt	r0, :upper16:hSPINBOX_SetAddress
	ldr	r0, [r0]
	.loc	2 738 5                 @ ../Application/Dsiplay/Display.c:738:5
	bl	SPINBOX_SetValue
	b	.LBB3_178
.Ltmp262:
.LBB3_115:
	.loc	2 1015 7 is_stmt 1      @ ../Application/Dsiplay/Display.c:1015:7
	movw	r4, :lower16:display_flags
	movt	r4, :upper16:display_flags
.Ltmp263:
	.loc	2 1015 7 is_stmt 0      @ ../Application/Dsiplay/Display.c:1015:7
	ldrb	r0, [r4]
	lsls	r0, r0, #26
	bpl.w	.LBB3_274
@ %bb.116:
.Ltmp264:
	.loc	2 1017 25 is_stmt 1     @ ../Application/Dsiplay/Display.c:1017:25
	movw	r5, :lower16:hBUTTON_OnScreenKeypad_0
	movt	r5, :upper16:hBUTTON_OnScreenKeypad_0
	ldr	r0, [r5]
	.loc	2 1017 8 is_stmt 0      @ ../Application/Dsiplay/Display.c:1017:8
	bl	BUTTON_IsPressed
.Ltmp265:
	.loc	2 1017 8                @ ../Application/Dsiplay/Display.c:1017:8
	cmp	r0, #0
	bne	.LBB3_129
@ %bb.117:
.Ltmp266:
	.loc	2 1028 30 is_stmt 1     @ ../Application/Dsiplay/Display.c:1028:30
	movw	r5, :lower16:hBUTTON_OnScreenKeypad_1
	movt	r5, :upper16:hBUTTON_OnScreenKeypad_1
	ldr	r0, [r5]
	.loc	2 1028 13 is_stmt 0     @ ../Application/Dsiplay/Display.c:1028:13
	bl	BUTTON_IsPressed
.Ltmp267:
	.loc	2 1028 13               @ ../Application/Dsiplay/Display.c:1028:13
	cmp	r0, #0
	bne	.LBB3_132
@ %bb.118:
.Ltmp268:
	.loc	2 1039 30 is_stmt 1     @ ../Application/Dsiplay/Display.c:1039:30
	movw	r5, :lower16:hBUTTON_OnScreenKeypad_2
	movt	r5, :upper16:hBUTTON_OnScreenKeypad_2
	ldr	r0, [r5]
	.loc	2 1039 13 is_stmt 0     @ ../Application/Dsiplay/Display.c:1039:13
	bl	BUTTON_IsPressed
.Ltmp269:
	.loc	2 1039 13               @ ../Application/Dsiplay/Display.c:1039:13
	cmp	r0, #0
	bne.w	.LBB3_135
@ %bb.119:
.Ltmp270:
	.loc	2 1050 30 is_stmt 1     @ ../Application/Dsiplay/Display.c:1050:30
	movw	r5, :lower16:hBUTTON_OnScreenKeypad_3
	movt	r5, :upper16:hBUTTON_OnScreenKeypad_3
	ldr	r0, [r5]
	.loc	2 1050 13 is_stmt 0     @ ../Application/Dsiplay/Display.c:1050:13
	bl	BUTTON_IsPressed
.Ltmp271:
	.loc	2 1050 13               @ ../Application/Dsiplay/Display.c:1050:13
	cmp	r0, #0
	bne.w	.LBB3_170
@ %bb.120:
.Ltmp272:
	.loc	2 1061 30 is_stmt 1     @ ../Application/Dsiplay/Display.c:1061:30
	movw	r5, :lower16:hBUTTON_OnScreenKeypad_4
	movt	r5, :upper16:hBUTTON_OnScreenKeypad_4
	ldr	r0, [r5]
	.loc	2 1061 13 is_stmt 0     @ ../Application/Dsiplay/Display.c:1061:13
	bl	BUTTON_IsPressed
.Ltmp273:
	.loc	2 1061 13               @ ../Application/Dsiplay/Display.c:1061:13
	cmp	r0, #0
	bne.w	.LBB3_181
@ %bb.121:
.Ltmp274:
	.loc	2 1072 30 is_stmt 1     @ ../Application/Dsiplay/Display.c:1072:30
	movw	r5, :lower16:hBUTTON_OnScreenKeypad_5
	movt	r5, :upper16:hBUTTON_OnScreenKeypad_5
	ldr	r0, [r5]
	.loc	2 1072 13 is_stmt 0     @ ../Application/Dsiplay/Display.c:1072:13
	bl	BUTTON_IsPressed
.Ltmp275:
	.loc	2 1072 13               @ ../Application/Dsiplay/Display.c:1072:13
	cmp	r0, #0
	bne.w	.LBB3_204
@ %bb.122:
.Ltmp276:
	.loc	2 1083 30 is_stmt 1     @ ../Application/Dsiplay/Display.c:1083:30
	movw	r5, :lower16:hBUTTON_OnScreenKeypad_6
	movt	r5, :upper16:hBUTTON_OnScreenKeypad_6
	ldr	r0, [r5]
	.loc	2 1083 13 is_stmt 0     @ ../Application/Dsiplay/Display.c:1083:13
	bl	BUTTON_IsPressed
.Ltmp277:
	.loc	2 1083 13               @ ../Application/Dsiplay/Display.c:1083:13
	cmp	r0, #0
	bne.w	.LBB3_217
@ %bb.123:
.Ltmp278:
	.loc	2 1094 30 is_stmt 1     @ ../Application/Dsiplay/Display.c:1094:30
	movw	r5, :lower16:hBUTTON_OnScreenKeypad_7
	movt	r5, :upper16:hBUTTON_OnScreenKeypad_7
	ldr	r0, [r5]
	.loc	2 1094 13 is_stmt 0     @ ../Application/Dsiplay/Display.c:1094:13
	bl	BUTTON_IsPressed
.Ltmp279:
	.loc	2 1094 13               @ ../Application/Dsiplay/Display.c:1094:13
	cmp	r0, #0
	bne.w	.LBB3_229
@ %bb.124:
.Ltmp280:
	.loc	2 1105 30 is_stmt 1     @ ../Application/Dsiplay/Display.c:1105:30
	movw	r5, :lower16:hBUTTON_OnScreenKeypad_8
	movt	r5, :upper16:hBUTTON_OnScreenKeypad_8
	ldr	r0, [r5]
	.loc	2 1105 13 is_stmt 0     @ ../Application/Dsiplay/Display.c:1105:13
	bl	BUTTON_IsPressed
.Ltmp281:
	.loc	2 1105 13               @ ../Application/Dsiplay/Display.c:1105:13
	cmp	r0, #0
	bne.w	.LBB3_240
@ %bb.125:
.Ltmp282:
	.loc	2 1116 30 is_stmt 1     @ ../Application/Dsiplay/Display.c:1116:30
	movw	r5, :lower16:hBUTTON_OnScreenKeypad_9
	movt	r5, :upper16:hBUTTON_OnScreenKeypad_9
	ldr	r0, [r5]
	.loc	2 1116 13 is_stmt 0     @ ../Application/Dsiplay/Display.c:1116:13
	bl	BUTTON_IsPressed
.Ltmp283:
	.loc	2 1116 13               @ ../Application/Dsiplay/Display.c:1116:13
	cmp	r0, #0
	bne.w	.LBB3_253
@ %bb.126:
.Ltmp284:
	.loc	2 1127 30 is_stmt 1     @ ../Application/Dsiplay/Display.c:1127:30
	movw	r5, :lower16:hBUTTON_OnScreenKeypad_Ok
	movt	r5, :upper16:hBUTTON_OnScreenKeypad_Ok
	ldr	r0, [r5]
	.loc	2 1127 13 is_stmt 0     @ ../Application/Dsiplay/Display.c:1127:13
	bl	BUTTON_IsPressed
.Ltmp285:
	.loc	2 1127 13               @ ../Application/Dsiplay/Display.c:1127:13
	cmp	r0, #0
	bne.w	.LBB3_261
@ %bb.127:
.Ltmp286:
	.loc	2 1138 30 is_stmt 1     @ ../Application/Dsiplay/Display.c:1138:30
	movw	r5, :lower16:hBUTTON_OnScreenKeypad_Back
	movt	r5, :upper16:hBUTTON_OnScreenKeypad_Back
	ldr	r0, [r5]
	.loc	2 1138 13 is_stmt 0     @ ../Application/Dsiplay/Display.c:1138:13
	bl	BUTTON_IsPressed
.Ltmp287:
	.loc	2 1138 13               @ ../Application/Dsiplay/Display.c:1138:13
	cmp	r0, #0
	bne.w	.LBB3_271
	b.w	.LBB3_274
.Ltmp288:
	.p2align	2
.LBB3_128:                              @   in Loop: Header=BB3_129 Depth=1
	.loc	2 1022 7 is_stmt 1      @ ../Application/Dsiplay/Display.c:1022:7
	bl	GUI_TOUCH_Exec
	.loc	2 1023 7                @ ../Application/Dsiplay/Display.c:1023:7
	movs	r0, #50
	bl	GUI_Delay
.LBB3_129:                              @ =>This Inner Loop Header: Depth=1
.Ltmp289:
	.loc	2 1021 28               @ ../Application/Dsiplay/Display.c:1021:28
	ldr	r0, [r5]
	.loc	2 1021 11 is_stmt 0     @ ../Application/Dsiplay/Display.c:1021:11
	bl	BUTTON_IsPressed
.Ltmp290:
	.loc	2 1021 10               @ ../Application/Dsiplay/Display.c:1021:10
	cmp	r0, #0
	bne	.LBB3_128
.Ltmp291:
@ %bb.130:
	.loc	2 1026 21 is_stmt 1     @ ../Application/Dsiplay/Display.c:1026:21
	movw	r0, :lower16:osk_call
	.loc	2 1026 6 is_stmt 0      @ ../Application/Dsiplay/Display.c:1026:6
	movs	r1, #48
	b.w	.LBB3_273
.Ltmp292:
.LBB3_131:                              @   in Loop: Header=BB3_132 Depth=1
	.loc	2 1033 7 is_stmt 1      @ ../Application/Dsiplay/Display.c:1033:7
	bl	GUI_TOUCH_Exec
	.loc	2 1034 7                @ ../Application/Dsiplay/Display.c:1034:7
	movs	r0, #50
	bl	GUI_Delay
.LBB3_132:                              @ =>This Inner Loop Header: Depth=1
.Ltmp293:
	.loc	2 1032 28               @ ../Application/Dsiplay/Display.c:1032:28
	ldr	r0, [r5]
	.loc	2 1032 11 is_stmt 0     @ ../Application/Dsiplay/Display.c:1032:11
	bl	BUTTON_IsPressed
.Ltmp294:
	.loc	2 1032 10               @ ../Application/Dsiplay/Display.c:1032:10
	cmp	r0, #0
	bne	.LBB3_131
.Ltmp295:
@ %bb.133:
	.loc	2 1037 21 is_stmt 1     @ ../Application/Dsiplay/Display.c:1037:21
	movw	r0, :lower16:osk_call
	.loc	2 1037 6 is_stmt 0      @ ../Application/Dsiplay/Display.c:1037:6
	movs	r1, #49
	b.w	.LBB3_273
.Ltmp296:
.LBB3_134:                              @   in Loop: Header=BB3_135 Depth=1
	.loc	2 1044 7 is_stmt 1      @ ../Application/Dsiplay/Display.c:1044:7
	bl	GUI_TOUCH_Exec
	.loc	2 1045 7                @ ../Application/Dsiplay/Display.c:1045:7
	movs	r0, #50
	bl	GUI_Delay
.LBB3_135:                              @ =>This Inner Loop Header: Depth=1
.Ltmp297:
	.loc	2 1043 28               @ ../Application/Dsiplay/Display.c:1043:28
	ldr	r0, [r5]
	.loc	2 1043 11 is_stmt 0     @ ../Application/Dsiplay/Display.c:1043:11
	bl	BUTTON_IsPressed
.Ltmp298:
	.loc	2 1043 10               @ ../Application/Dsiplay/Display.c:1043:10
	cmp	r0, #0
	bne	.LBB3_134
.Ltmp299:
@ %bb.136:
	.loc	2 1048 21 is_stmt 1     @ ../Application/Dsiplay/Display.c:1048:21
	movw	r0, :lower16:osk_call
	.loc	2 1048 6 is_stmt 0      @ ../Application/Dsiplay/Display.c:1048:6
	movs	r1, #50
	b.w	.LBB3_273
.Ltmp300:
.LBB3_137:                              @   in Loop: Header=BB3_138 Depth=1
	.loc	2 1215 6 is_stmt 1      @ ../Application/Dsiplay/Display.c:1215:6
	bl	GUI_TOUCH_Exec
	.loc	2 1216 6                @ ../Application/Dsiplay/Display.c:1216:6
	movs	r0, #50
	bl	GUI_Delay
.LBB3_138:                              @ =>This Inner Loop Header: Depth=1
.Ltmp301:
	.loc	2 1214 27               @ ../Application/Dsiplay/Display.c:1214:27
	ldr	r0, [r4]
	.loc	2 1214 10 is_stmt 0     @ ../Application/Dsiplay/Display.c:1214:10
	bl	BUTTON_IsPressed
.Ltmp302:
	.loc	2 1214 9                @ ../Application/Dsiplay/Display.c:1214:9
	cmp	r0, #0
	bne	.LBB3_137
	b	.LBB3_178
.Ltmp303:
.LBB3_139:
	.loc	2 460 22 is_stmt 1      @ ../Application/Dsiplay/Display.c:460:22
	movw	r5, :lower16:hPROGBAR_FileTransfer
	.loc	2 459 5                 @ ../Application/Dsiplay/Display.c:459:5
	bic	r0, r0, #1
	.loc	2 460 5                 @ ../Application/Dsiplay/Display.c:460:5
	movs	r1, #0
	.loc	2 460 22 is_stmt 0      @ ../Application/Dsiplay/Display.c:460:22
	movt	r5, :upper16:hPROGBAR_FileTransfer
	.loc	2 459 5 is_stmt 1       @ ../Application/Dsiplay/Display.c:459:5
	str	r0, [r4]
	.loc	2 460 22                @ ../Application/Dsiplay/Display.c:460:22
	ldr	r0, [r5]
	.loc	2 460 5 is_stmt 0       @ ../Application/Dsiplay/Display.c:460:5
	bl	PROGBAR_SetValue
	.loc	2 461 19 is_stmt 1      @ ../Application/Dsiplay/Display.c:461:19
	ldr	r0, [r5]
	.loc	2 461 5 is_stmt 0       @ ../Application/Dsiplay/Display.c:461:5
	bl	WM_ShowWindow
.Ltmp304:
.LBB3_140:
	.loc	2 470 7 is_stmt 1       @ ../Application/Dsiplay/Display.c:470:7
	ldr	r0, [r4]
.Ltmp305:
	.loc	2 470 7 is_stmt 0       @ ../Application/Dsiplay/Display.c:470:7
	lsls	r1, r0, #28
	bmi	.LBB3_143
@ %bb.141:
.Ltmp306:
	.loc	2 483 12 is_stmt 1      @ ../Application/Dsiplay/Display.c:483:12
	lsls	r1, r0, #29
	bpl	.LBB3_145
@ %bb.142:
.Ltmp307:
	.loc	2 486 5                 @ ../Application/Dsiplay/Display.c:486:5
	bic	r0, r0, #20
	.loc	2 487 5                 @ ../Application/Dsiplay/Display.c:487:5
	movs	r1, #5
	mov.w	r2, #430
	movs	r3, #65
	.loc	2 486 5                 @ ../Application/Dsiplay/Display.c:486:5
	str	r0, [r4]
	.loc	2 487 5                 @ ../Application/Dsiplay/Display.c:487:5
	mov.w	r0, #390
	bl	GUI_ClearRect
	.loc	2 488 5                 @ ../Application/Dsiplay/Display.c:488:5
	movw	r0, :lower16:bmusd_error
	mov.w	r1, #390
	movs	r2, #5
	movt	r0, :upper16:bmusd_error
	bl	GUI_DrawBitmap
	.loc	2 489 5                 @ ../Application/Dsiplay/Display.c:489:5
	movs	r0, #0
	bl	GUI_SetTextMode
	.loc	2 490 5                 @ ../Application/Dsiplay/Display.c:490:5
	movs	r0, #0
	bl	GUI_SetBkColor
	.loc	2 491 5                 @ ../Application/Dsiplay/Display.c:491:5
	movs	r0, #255
	b	.LBB3_144
.Ltmp308:
.LBB3_143:
	.loc	2 0 5 is_stmt 0         @ ../Application/Dsiplay/Display.c:0:5
	movs	r1, #2
.Ltmp309:
	.loc	2 474 5 is_stmt 1       @ ../Application/Dsiplay/Display.c:474:5
	mov.w	r2, #430
	movs	r3, #65
	.loc	2 473 5                 @ ../Application/Dsiplay/Display.c:473:5
	bfi	r0, r1, #3, #2
	.loc	2 474 5                 @ ../Application/Dsiplay/Display.c:474:5
	movs	r1, #5
	.loc	2 473 5                 @ ../Application/Dsiplay/Display.c:473:5
	str	r0, [r4]
	.loc	2 474 5                 @ ../Application/Dsiplay/Display.c:474:5
	mov.w	r0, #390
	bl	GUI_ClearRect
	.loc	2 475 5                 @ ../Application/Dsiplay/Display.c:475:5
	movw	r0, :lower16:bmusd_ok
	mov.w	r1, #390
	movs	r2, #5
	movt	r0, :upper16:bmusd_ok
	bl	GUI_DrawBitmap
	.loc	2 476 5                 @ ../Application/Dsiplay/Display.c:476:5
	movs	r0, #0
	bl	GUI_SetTextMode
	.loc	2 477 5                 @ ../Application/Dsiplay/Display.c:477:5
	movs	r0, #0
	bl	GUI_SetBkColor
	.loc	2 478 5                 @ ../Application/Dsiplay/Display.c:478:5
	mov.w	r0, #65280
.Ltmp310:
.LBB3_144:
	.loc	2 0 0 is_stmt 0         @ ../Application/Dsiplay/Display.c:0:0
	bl	GUI_SetColor
	movw	r0, :lower16:GUI_Font16B_1
	movt	r0, :upper16:GUI_Font16B_1
	bl	GUI_SetFont
	movw	r0, :lower16:.L.str.8
	movw	r1, #395
	movs	r2, #47
	movt	r0, :upper16:.L.str.8
	bl	GUI_DispStringAt
	mov.w	r0, #-16777216
	bl	GUI_SetBkColor
.Ltmp311:
.LBB3_145:
	.loc	2 497 7 is_stmt 1       @ ../Application/Dsiplay/Display.c:497:7
	ldrb	r0, [r4]
	lsls	r0, r0, #26
	bpl.w	.LBB3_1
@ %bb.146:
.Ltmp312:
	.loc	2 499 15                @ ../Application/Dsiplay/Display.c:499:15
	movw	r0, :lower16:hSELECTED
.Ltmp313:
	.loc	2 501 25                @ ../Application/Dsiplay/Display.c:501:25
	movw	r4, :lower16:hBUTTON_OnScreenKeypad_0
	movs	r1, #0
.Ltmp314:
	.loc	2 499 15                @ ../Application/Dsiplay/Display.c:499:15
	movt	r0, :upper16:hSELECTED
.Ltmp315:
	.loc	2 501 25                @ ../Application/Dsiplay/Display.c:501:25
	movt	r4, :upper16:hBUTTON_OnScreenKeypad_0
.Ltmp316:
	.loc	2 499 15                @ ../Application/Dsiplay/Display.c:499:15
	str	r1, [r0]
.Ltmp317:
	.loc	2 501 25                @ ../Application/Dsiplay/Display.c:501:25
	ldr	r0, [r4]
	.loc	2 501 8 is_stmt 0       @ ../Application/Dsiplay/Display.c:501:8
	bl	BUTTON_IsPressed
.Ltmp318:
	.loc	2 501 8                 @ ../Application/Dsiplay/Display.c:501:8
	cmp	r0, #0
	bne.w	.LBB3_161
@ %bb.147:
.Ltmp319:
	.loc	2 512 30 is_stmt 1      @ ../Application/Dsiplay/Display.c:512:30
	movw	r4, :lower16:hBUTTON_OnScreenKeypad_1
	movt	r4, :upper16:hBUTTON_OnScreenKeypad_1
	ldr	r0, [r4]
	.loc	2 512 13 is_stmt 0      @ ../Application/Dsiplay/Display.c:512:13
	bl	BUTTON_IsPressed
.Ltmp320:
	.loc	2 512 13                @ ../Application/Dsiplay/Display.c:512:13
	cmp	r0, #0
	bne.w	.LBB3_164
@ %bb.148:
.Ltmp321:
	.loc	2 523 30 is_stmt 1      @ ../Application/Dsiplay/Display.c:523:30
	movw	r4, :lower16:hBUTTON_OnScreenKeypad_2
	movt	r4, :upper16:hBUTTON_OnScreenKeypad_2
	ldr	r0, [r4]
	.loc	2 523 13 is_stmt 0      @ ../Application/Dsiplay/Display.c:523:13
	bl	BUTTON_IsPressed
.Ltmp322:
	.loc	2 523 13                @ ../Application/Dsiplay/Display.c:523:13
	cmp	r0, #0
	bne.w	.LBB3_167
@ %bb.149:
.Ltmp323:
	.loc	2 534 30 is_stmt 1      @ ../Application/Dsiplay/Display.c:534:30
	movw	r4, :lower16:hBUTTON_OnScreenKeypad_3
	movt	r4, :upper16:hBUTTON_OnScreenKeypad_3
	ldr	r0, [r4]
	.loc	2 534 13 is_stmt 0      @ ../Application/Dsiplay/Display.c:534:13
	bl	BUTTON_IsPressed
.Ltmp324:
	.loc	2 534 13                @ ../Application/Dsiplay/Display.c:534:13
	cmp	r0, #0
	bne.w	.LBB3_173
@ %bb.150:
.Ltmp325:
	.loc	2 545 30 is_stmt 1      @ ../Application/Dsiplay/Display.c:545:30
	movw	r4, :lower16:hBUTTON_OnScreenKeypad_4
	movt	r4, :upper16:hBUTTON_OnScreenKeypad_4
	ldr	r0, [r4]
	.loc	2 545 13 is_stmt 0      @ ../Application/Dsiplay/Display.c:545:13
	bl	BUTTON_IsPressed
.Ltmp326:
	.loc	2 545 13                @ ../Application/Dsiplay/Display.c:545:13
	cmp	r0, #0
	bne.w	.LBB3_184
@ %bb.151:
.Ltmp327:
	.loc	2 556 30 is_stmt 1      @ ../Application/Dsiplay/Display.c:556:30
	movw	r4, :lower16:hBUTTON_OnScreenKeypad_5
	movt	r4, :upper16:hBUTTON_OnScreenKeypad_5
	ldr	r0, [r4]
	.loc	2 556 13 is_stmt 0      @ ../Application/Dsiplay/Display.c:556:13
	bl	BUTTON_IsPressed
.Ltmp328:
	.loc	2 556 13                @ ../Application/Dsiplay/Display.c:556:13
	cmp	r0, #0
	bne.w	.LBB3_207
@ %bb.152:
.Ltmp329:
	.loc	2 567 30 is_stmt 1      @ ../Application/Dsiplay/Display.c:567:30
	movw	r4, :lower16:hBUTTON_OnScreenKeypad_6
	movt	r4, :upper16:hBUTTON_OnScreenKeypad_6
	ldr	r0, [r4]
	.loc	2 567 13 is_stmt 0      @ ../Application/Dsiplay/Display.c:567:13
	bl	BUTTON_IsPressed
.Ltmp330:
	.loc	2 567 13                @ ../Application/Dsiplay/Display.c:567:13
	cmp	r0, #0
	bne.w	.LBB3_220
@ %bb.153:
.Ltmp331:
	.loc	2 578 30 is_stmt 1      @ ../Application/Dsiplay/Display.c:578:30
	movw	r4, :lower16:hBUTTON_OnScreenKeypad_7
	movt	r4, :upper16:hBUTTON_OnScreenKeypad_7
	ldr	r0, [r4]
	.loc	2 578 13 is_stmt 0      @ ../Application/Dsiplay/Display.c:578:13
	bl	BUTTON_IsPressed
.Ltmp332:
	.loc	2 578 13                @ ../Application/Dsiplay/Display.c:578:13
	cmp	r0, #0
	bne.w	.LBB3_232
@ %bb.154:
.Ltmp333:
	.loc	2 589 30 is_stmt 1      @ ../Application/Dsiplay/Display.c:589:30
	movw	r4, :lower16:hBUTTON_OnScreenKeypad_8
	movt	r4, :upper16:hBUTTON_OnScreenKeypad_8
	ldr	r0, [r4]
	.loc	2 589 13 is_stmt 0      @ ../Application/Dsiplay/Display.c:589:13
	bl	BUTTON_IsPressed
.Ltmp334:
	.loc	2 589 13                @ ../Application/Dsiplay/Display.c:589:13
	cmp	r0, #0
	bne.w	.LBB3_243
@ %bb.155:
.Ltmp335:
	.loc	2 600 30 is_stmt 1      @ ../Application/Dsiplay/Display.c:600:30
	movw	r4, :lower16:hBUTTON_OnScreenKeypad_9
	movt	r4, :upper16:hBUTTON_OnScreenKeypad_9
	ldr	r0, [r4]
	.loc	2 600 13 is_stmt 0      @ ../Application/Dsiplay/Display.c:600:13
	bl	BUTTON_IsPressed
.Ltmp336:
	.loc	2 600 13                @ ../Application/Dsiplay/Display.c:600:13
	cmp	r0, #0
	bne.w	.LBB3_256
@ %bb.156:
.Ltmp337:
	.loc	2 611 30 is_stmt 1      @ ../Application/Dsiplay/Display.c:611:30
	movw	r4, :lower16:hBUTTON_OnScreenKeypad_Ok
	movt	r4, :upper16:hBUTTON_OnScreenKeypad_Ok
	ldr	r0, [r4]
	.loc	2 611 13 is_stmt 0      @ ../Application/Dsiplay/Display.c:611:13
	bl	BUTTON_IsPressed
.Ltmp338:
	.loc	2 611 13                @ ../Application/Dsiplay/Display.c:611:13
	cmp	r0, #0
	bne.w	.LBB3_264
@ %bb.157:
.Ltmp339:
	.loc	2 622 30 is_stmt 1      @ ../Application/Dsiplay/Display.c:622:30
	movw	r4, :lower16:hBUTTON_OnScreenKeypad_Back
	movt	r4, :upper16:hBUTTON_OnScreenKeypad_Back
	ldr	r0, [r4]
	.loc	2 622 13 is_stmt 0      @ ../Application/Dsiplay/Display.c:622:13
	bl	BUTTON_IsPressed
.Ltmp340:
	.loc	2 622 13                @ ../Application/Dsiplay/Display.c:622:13
	cmp	r0, #0
	bne.w	.LBB3_267
	b.w	.LBB3_1
.Ltmp341:
	.p2align	2
@ %bb.158:
	.loc	2 0 13                  @ ../Application/Dsiplay/Display.c:0:13
__arm_cp.3_6:
.L.str.5:
	.asciz	"RUN"
.Lcpi_end0:
	.size	__arm_cp.3_6, .Lcpi_end0-__arm_cp.3_6
	.p2align	2
@ %bb.159:
.LCPI3_7:
.L.str.4:
	.asciz	"ENTER PASSWORD\000"
	.p2align	2
.LBB3_160:                              @   in Loop: Header=BB3_161 Depth=1
.Ltmp342:
	.loc	2 506 7 is_stmt 1       @ ../Application/Dsiplay/Display.c:506:7
	bl	GUI_TOUCH_Exec
	.loc	2 507 7                 @ ../Application/Dsiplay/Display.c:507:7
	movs	r0, #50
	bl	GUI_Delay
.LBB3_161:                              @ =>This Inner Loop Header: Depth=1
.Ltmp343:
	.loc	2 505 28                @ ../Application/Dsiplay/Display.c:505:28
	ldr	r0, [r4]
	.loc	2 505 11 is_stmt 0      @ ../Application/Dsiplay/Display.c:505:11
	bl	BUTTON_IsPressed
.Ltmp344:
	.loc	2 505 10                @ ../Application/Dsiplay/Display.c:505:10
	cmp	r0, #0
	bne	.LBB3_160
.Ltmp345:
@ %bb.162:
	.loc	2 510 6 is_stmt 1       @ ../Application/Dsiplay/Display.c:510:6
	movs	r0, #7
	movs	r1, #48
	b	.LBB3_269
.Ltmp346:
.LBB3_163:                              @   in Loop: Header=BB3_164 Depth=1
	.loc	2 517 7                 @ ../Application/Dsiplay/Display.c:517:7
	bl	GUI_TOUCH_Exec
	.loc	2 518 7                 @ ../Application/Dsiplay/Display.c:518:7
	movs	r0, #50
	bl	GUI_Delay
.LBB3_164:                              @ =>This Inner Loop Header: Depth=1
.Ltmp347:
	.loc	2 516 28                @ ../Application/Dsiplay/Display.c:516:28
	ldr	r0, [r4]
	.loc	2 516 11 is_stmt 0      @ ../Application/Dsiplay/Display.c:516:11
	bl	BUTTON_IsPressed
.Ltmp348:
	.loc	2 516 10                @ ../Application/Dsiplay/Display.c:516:10
	cmp	r0, #0
	bne	.LBB3_163
.Ltmp349:
@ %bb.165:
	.loc	2 521 6 is_stmt 1       @ ../Application/Dsiplay/Display.c:521:6
	movs	r0, #7
	movs	r1, #49
	b	.LBB3_269
.Ltmp350:
.LBB3_166:                              @   in Loop: Header=BB3_167 Depth=1
	.loc	2 528 7                 @ ../Application/Dsiplay/Display.c:528:7
	bl	GUI_TOUCH_Exec
	.loc	2 529 7                 @ ../Application/Dsiplay/Display.c:529:7
	movs	r0, #50
	bl	GUI_Delay
.LBB3_167:                              @ =>This Inner Loop Header: Depth=1
.Ltmp351:
	.loc	2 527 28                @ ../Application/Dsiplay/Display.c:527:28
	ldr	r0, [r4]
	.loc	2 527 11 is_stmt 0      @ ../Application/Dsiplay/Display.c:527:11
	bl	BUTTON_IsPressed
.Ltmp352:
	.loc	2 527 10                @ ../Application/Dsiplay/Display.c:527:10
	cmp	r0, #0
	bne	.LBB3_166
.Ltmp353:
@ %bb.168:
	.loc	2 532 6 is_stmt 1       @ ../Application/Dsiplay/Display.c:532:6
	movs	r0, #7
	movs	r1, #50
	b	.LBB3_269
.Ltmp354:
.LBB3_169:                              @   in Loop: Header=BB3_170 Depth=1
	.loc	2 1055 7                @ ../Application/Dsiplay/Display.c:1055:7
	bl	GUI_TOUCH_Exec
	.loc	2 1056 7                @ ../Application/Dsiplay/Display.c:1056:7
	movs	r0, #50
	bl	GUI_Delay
.LBB3_170:                              @ =>This Inner Loop Header: Depth=1
.Ltmp355:
	.loc	2 1054 28               @ ../Application/Dsiplay/Display.c:1054:28
	ldr	r0, [r5]
	.loc	2 1054 11 is_stmt 0     @ ../Application/Dsiplay/Display.c:1054:11
	bl	BUTTON_IsPressed
.Ltmp356:
	.loc	2 1054 10               @ ../Application/Dsiplay/Display.c:1054:10
	cmp	r0, #0
	bne	.LBB3_169
.Ltmp357:
@ %bb.171:
	.loc	2 1059 21 is_stmt 1     @ ../Application/Dsiplay/Display.c:1059:21
	movw	r0, :lower16:osk_call
	.loc	2 1059 6 is_stmt 0      @ ../Application/Dsiplay/Display.c:1059:6
	movs	r1, #51
	b	.LBB3_273
.Ltmp358:
.LBB3_172:                              @   in Loop: Header=BB3_173 Depth=1
	.loc	2 539 7 is_stmt 1       @ ../Application/Dsiplay/Display.c:539:7
	bl	GUI_TOUCH_Exec
	.loc	2 540 7                 @ ../Application/Dsiplay/Display.c:540:7
	movs	r0, #50
	bl	GUI_Delay
.LBB3_173:                              @ =>This Inner Loop Header: Depth=1
.Ltmp359:
	.loc	2 538 28                @ ../Application/Dsiplay/Display.c:538:28
	ldr	r0, [r4]
	.loc	2 538 11 is_stmt 0      @ ../Application/Dsiplay/Display.c:538:11
	bl	BUTTON_IsPressed
.Ltmp360:
	.loc	2 538 10                @ ../Application/Dsiplay/Display.c:538:10
	cmp	r0, #0
	bne	.LBB3_172
.Ltmp361:
@ %bb.174:
	.loc	2 543 6 is_stmt 1       @ ../Application/Dsiplay/Display.c:543:6
	movs	r0, #7
	movs	r1, #51
	b	.LBB3_269
.Ltmp362:
.LBB3_175:                              @   in Loop: Header=BB3_176 Depth=1
	.loc	2 1229 6                @ ../Application/Dsiplay/Display.c:1229:6
	bl	GUI_TOUCH_Exec
	.loc	2 1230 6                @ ../Application/Dsiplay/Display.c:1230:6
	movs	r0, #50
	bl	GUI_Delay
.LBB3_176:                              @ =>This Inner Loop Header: Depth=1
.Ltmp363:
	.loc	2 1228 27               @ ../Application/Dsiplay/Display.c:1228:27
	ldr	r0, [r4]
	.loc	2 1228 10 is_stmt 0     @ ../Application/Dsiplay/Display.c:1228:10
	bl	BUTTON_IsPressed
.Ltmp364:
	.loc	2 1228 9                @ ../Application/Dsiplay/Display.c:1228:9
	cmp	r0, #0
	bne	.LBB3_175
	b	.LBB3_178
.Ltmp365:
.LBB3_177:
	.loc	2 696 6 is_stmt 1       @ ../Application/Dsiplay/Display.c:696:6
	bl	UpdateRS485_FoundDeviceList
.Ltmp366:
.LBB3_178:
	.loc	2 0 0 is_stmt 0         @ ../Application/Dsiplay/Display.c:0:0
	movw	r0, :lower16:display_timer
	movw	r1, #30000
	movt	r0, :upper16:display_timer
	str	r1, [r0]
	movw	r0, :lower16:display_timeout_timer
	movt	r0, :upper16:display_timeout_timer
.LBB3_179:
	str	r1, [r0]
	movw	r0, :lower16:display_flags
	movt	r0, :upper16:display_flags
	ldr	r1, [r0]
	orr	r1, r1, #64
	str	r1, [r0]
	b	.LBB3_275
.LBB3_180:                              @   in Loop: Header=BB3_181 Depth=1
.Ltmp367:
	.loc	2 1066 7 is_stmt 1      @ ../Application/Dsiplay/Display.c:1066:7
	bl	GUI_TOUCH_Exec
	.loc	2 1067 7                @ ../Application/Dsiplay/Display.c:1067:7
	movs	r0, #50
	bl	GUI_Delay
.LBB3_181:                              @ =>This Inner Loop Header: Depth=1
.Ltmp368:
	.loc	2 1065 28               @ ../Application/Dsiplay/Display.c:1065:28
	ldr	r0, [r5]
	.loc	2 1065 11 is_stmt 0     @ ../Application/Dsiplay/Display.c:1065:11
	bl	BUTTON_IsPressed
.Ltmp369:
	.loc	2 1065 10               @ ../Application/Dsiplay/Display.c:1065:10
	cmp	r0, #0
	bne	.LBB3_180
.Ltmp370:
@ %bb.182:
	.loc	2 1070 21 is_stmt 1     @ ../Application/Dsiplay/Display.c:1070:21
	movw	r0, :lower16:osk_call
	.loc	2 1070 6 is_stmt 0      @ ../Application/Dsiplay/Display.c:1070:6
	movs	r1, #52
	b	.LBB3_273
.Ltmp371:
.LBB3_183:                              @   in Loop: Header=BB3_184 Depth=1
	.loc	2 550 7 is_stmt 1       @ ../Application/Dsiplay/Display.c:550:7
	bl	GUI_TOUCH_Exec
	.loc	2 551 7                 @ ../Application/Dsiplay/Display.c:551:7
	movs	r0, #50
	bl	GUI_Delay
.LBB3_184:                              @ =>This Inner Loop Header: Depth=1
.Ltmp372:
	.loc	2 549 28                @ ../Application/Dsiplay/Display.c:549:28
	ldr	r0, [r4]
	.loc	2 549 11 is_stmt 0      @ ../Application/Dsiplay/Display.c:549:11
	bl	BUTTON_IsPressed
.Ltmp373:
	.loc	2 549 10                @ ../Application/Dsiplay/Display.c:549:10
	cmp	r0, #0
	bne	.LBB3_183
.Ltmp374:
@ %bb.185:
	.loc	2 554 6 is_stmt 1       @ ../Application/Dsiplay/Display.c:554:6
	movs	r0, #7
	movs	r1, #52
	b	.LBB3_269
.Ltmp375:
.LBB3_186:
	.loc	2 441 12                @ ../Application/Dsiplay/Display.c:441:12
	cmp	r1, #0
	beq.w	.LBB3_32
@ %bb.187:
.Ltmp376:
	.loc	2 443 5                 @ ../Application/Dsiplay/Display.c:443:5
	ldr	r1, [r0]
	.loc	2 444 5                 @ ../Application/Dsiplay/Display.c:444:5
	movw	r2, #475
	movs	r3, #65
	.loc	2 443 5                 @ ../Application/Dsiplay/Display.c:443:5
	bic	r1, r1, #32
	str	r1, [r0]
	.loc	2 444 5                 @ ../Application/Dsiplay/Display.c:444:5
	movw	r0, #435
	movs	r1, #5
	bl	GUI_ClearRect
	.loc	2 445 5                 @ ../Application/Dsiplay/Display.c:445:5
	movw	r0, :lower16:bmNetworkError
	movw	r1, #435
	movs	r2, #5
	movt	r0, :upper16:bmNetworkError
	bl	GUI_DrawBitmap
	.loc	2 446 5                 @ ../Application/Dsiplay/Display.c:446:5
	movs	r0, #0
	bl	GUI_SetTextMode
	.loc	2 447 5                 @ ../Application/Dsiplay/Display.c:447:5
	movs	r0, #0
	bl	GUI_SetBkColor
	.loc	2 448 5                 @ ../Application/Dsiplay/Display.c:448:5
	movs	r0, #255
	bl	GUI_SetColor
	.loc	2 449 5                 @ ../Application/Dsiplay/Display.c:449:5
	movw	r0, :lower16:GUI_Font16B_1
	movt	r0, :upper16:GUI_Font16B_1
	bl	GUI_SetFont
	.loc	2 450 5                 @ ../Application/Dsiplay/Display.c:450:5
	movw	r0, #435
	movs	r1, #47
	bl	GUI_GotoXY
.Ltmp377:
	.loc	2 452 8                 @ ../Application/Dsiplay/Display.c:452:8
	ldrb	r0, [r4]
.Ltmp378:
	.loc	2 452 8 is_stmt 0       @ ../Application/Dsiplay/Display.c:452:8
	cmp	r0, #3
	beq.w	.LBB3_213
@ %bb.188:
	cmp	r0, #1
	bne.w	.LBB3_215
@ %bb.189:
.Ltmp379:
	.loc	2 452 45                @ ../Application/Dsiplay/Display.c:452:45
	adr.w	r0, .LCPI3_3
	b	.LBB3_214
.Ltmp380:
.LBB3_190:
	.loc	2 934 5 is_stmt 1       @ ../Application/Dsiplay/Display.c:934:5
	movw	r5, :lower16:string
	.loc	2 933 13                @ ../Application/Dsiplay/Display.c:933:13
	strb	r0, [r1]
	.loc	2 934 5                 @ ../Application/Dsiplay/Display.c:934:5
	movs	r1, #32
	movt	r5, :upper16:string
	mov	r0, r5
	bl	ClearBuffer
	movs	r0, #58
.Ltmp381:
	@DEBUG_VALUE: DisplayService:k <- 3
	.loc	2 936 29                @ ../Application/Dsiplay/Display.c:936:29
	ldrb	r7, [r4]
	.loc	2 939 29                @ ../Application/Dsiplay/Display.c:939:29
	ldrb	r2, [r4, #1]
	mov.w	lr, #3
	.loc	2 942 29                @ ../Application/Dsiplay/Display.c:942:29
	ldrb	r3, [r4, #2]
	.loc	2 946 29                @ ../Application/Dsiplay/Display.c:946:29
	movw	r12, :lower16:RTC_Date
	.loc	2 938 17                @ ../Application/Dsiplay/Display.c:938:17
	strb	r0, [r5, #2]
.Ltmp382:
	@DEBUG_VALUE: DisplayService:k <- 6
	.loc	2 941 17                @ ../Application/Dsiplay/Display.c:941:17
	strb	r0, [r5, #5]
	movw	r0, #8224
.Ltmp383:
	@DEBUG_VALUE: DisplayService:k <- 9
	.loc	2 946 29                @ ../Application/Dsiplay/Display.c:946:29
	movt	r12, :upper16:RTC_Date
	.loc	2 944 17                @ ../Application/Dsiplay/Display.c:944:17
	strh	r0, [r5, #8]
	movs	r0, #46
.Ltmp384:
	@DEBUG_VALUE: DisplayService:k <- 13
	.loc	2 937 47                @ ../Application/Dsiplay/Display.c:937:47
	mov	r1, r7
	.loc	2 948 17                @ ../Application/Dsiplay/Display.c:948:17
	strb	r0, [r5, #12]
	movs	r0, #48
.Ltmp385:
	@DEBUG_VALUE: DisplayService:k <- 18
	.loc	2 937 47                @ ../Application/Dsiplay/Display.c:937:47
	bfi	r1, lr, #4, #28
.Ltmp386:
	@DEBUG_VALUE: DisplayService:k <- 2
	.loc	2 953 17                @ ../Application/Dsiplay/Display.c:953:17
	strb	r0, [r5, #17]
	movw	r0, #12846
.Ltmp387:
	@DEBUG_VALUE: DisplayService:k <- 16
	.loc	2 951 17                @ ../Application/Dsiplay/Display.c:951:17
	strh.w	r0, [r5, #15]
.Ltmp388:
	@DEBUG_VALUE: DisplayService:k <- 0
	.loc	2 937 17                @ ../Application/Dsiplay/Display.c:937:17
	strb	r1, [r5, #1]
	.loc	2 940 49                @ ../Application/Dsiplay/Display.c:940:49
	mov	r1, r2
	.loc	2 949 29                @ ../Application/Dsiplay/Display.c:949:29
	ldrb.w	r0, [r12, #1]
	.loc	2 939 41                @ ../Application/Dsiplay/Display.c:939:41
	lsrs	r2, r2, #4
	.loc	2 940 49                @ ../Application/Dsiplay/Display.c:940:49
	bfi	r1, lr, #4, #28
.Ltmp389:
	@DEBUG_VALUE: DisplayService:k <- 5
	.loc	2 939 47                @ ../Application/Dsiplay/Display.c:939:47
	adds	r2, #48
.Ltmp390:
	@DEBUG_VALUE: DisplayService:k <- 4
	.loc	2 940 17                @ ../Application/Dsiplay/Display.c:940:17
	strb	r1, [r5, #4]
	.loc	2 943 49                @ ../Application/Dsiplay/Display.c:943:49
	mov	r1, r3
	.loc	2 950 47                @ ../Application/Dsiplay/Display.c:950:47
	mov	r6, r0
	.loc	2 949 39                @ ../Application/Dsiplay/Display.c:949:39
	lsrs	r0, r0, #4
	.loc	2 943 49                @ ../Application/Dsiplay/Display.c:943:49
	bfi	r1, lr, #4, #28
.Ltmp391:
	@DEBUG_VALUE: DisplayService:k <- 8
	.loc	2 950 47                @ ../Application/Dsiplay/Display.c:950:47
	bfi	r6, lr, #4, #28
.Ltmp392:
	@DEBUG_VALUE: DisplayService:k <- 15
	.loc	2 949 45                @ ../Application/Dsiplay/Display.c:949:45
	adds	r0, #48
.Ltmp393:
	@DEBUG_VALUE: DisplayService:k <- 14
	.loc	2 943 17                @ ../Application/Dsiplay/Display.c:943:17
	strb	r1, [r5, #7]
.Ltmp394:
	@DEBUG_VALUE: DisplayService:k <- 10
	.loc	2 946 29                @ ../Application/Dsiplay/Display.c:946:29
	ldrb.w	r1, [r12, #2]
	.loc	2 947 46                @ ../Application/Dsiplay/Display.c:947:46
	mov	r4, r1
	.loc	2 946 38                @ ../Application/Dsiplay/Display.c:946:38
	lsrs	r1, r1, #4
	.loc	2 947 46                @ ../Application/Dsiplay/Display.c:947:46
	bfi	r4, lr, #4, #28
.Ltmp395:
	@DEBUG_VALUE: DisplayService:k <- 12
	.loc	2 946 44                @ ../Application/Dsiplay/Display.c:946:44
	adds	r1, #48
.Ltmp396:
	@DEBUG_VALUE: DisplayService:k <- 11
	.loc	2 947 17                @ ../Application/Dsiplay/Display.c:947:17
	strb	r4, [r5, #11]
	.loc	2 936 39                @ ../Application/Dsiplay/Display.c:936:39
	lsrs	r4, r7, #4
	.loc	2 950 17                @ ../Application/Dsiplay/Display.c:950:17
	strb	r6, [r5, #14]
	.loc	2 936 45                @ ../Application/Dsiplay/Display.c:936:45
	adds	r4, #48
.Ltmp397:
	@DEBUG_VALUE: DisplayService:k <- 1
	.loc	2 936 17 is_stmt 0      @ ../Application/Dsiplay/Display.c:936:17
	strb	r4, [r5]
	.loc	2 939 17 is_stmt 1      @ ../Application/Dsiplay/Display.c:939:17
	strb	r2, [r5, #3]
	.loc	2 942 41                @ ../Application/Dsiplay/Display.c:942:41
	lsrs	r2, r3, #4
	.loc	2 942 47 is_stmt 0      @ ../Application/Dsiplay/Display.c:942:47
	adds	r2, #48
.Ltmp398:
	@DEBUG_VALUE: DisplayService:k <- 7
	.loc	2 942 17                @ ../Application/Dsiplay/Display.c:942:17
	strb	r2, [r5, #6]
	.loc	2 946 17 is_stmt 1      @ ../Application/Dsiplay/Display.c:946:17
	strb	r1, [r5, #10]
	.loc	2 949 17                @ ../Application/Dsiplay/Display.c:949:17
	strb	r0, [r5, #13]
	movs	r0, #0
.Ltmp399:
	@DEBUG_VALUE: DisplayService:k <- [DW_OP_plus_uconst 1, DW_OP_stack_value] 20
	.loc	2 956 17                @ ../Application/Dsiplay/Display.c:956:17
	strb	r0, [r5, #20]
	.loc	2 954 29                @ ../Application/Dsiplay/Display.c:954:29
	ldrb.w	r0, [r12, #3]
	.loc	2 954 38 is_stmt 0      @ ../Application/Dsiplay/Display.c:954:38
	lsrs	r1, r0, #4
	.loc	2 955 46 is_stmt 1      @ ../Application/Dsiplay/Display.c:955:46
	bfi	r0, lr, #4, #28
.Ltmp400:
	@DEBUG_VALUE: DisplayService:k <- 20
	.loc	2 955 17 is_stmt 0      @ ../Application/Dsiplay/Display.c:955:17
	strb	r0, [r5, #19]
	.loc	2 954 44 is_stmt 1      @ ../Application/Dsiplay/Display.c:954:44
	add.w	r0, r1, #48
.Ltmp401:
	@DEBUG_VALUE: DisplayService:k <- 19
	.loc	2 957 5                 @ ../Application/Dsiplay/Display.c:957:5
	mov	r1, r5
	.loc	2 954 17                @ ../Application/Dsiplay/Display.c:954:17
	strb	r0, [r5, #18]
	.loc	2 957 18                @ ../Application/Dsiplay/Display.c:957:18
	movw	r0, :lower16:hEDIT_DateTime
	movt	r0, :upper16:hEDIT_DateTime
	ldr	r0, [r0]
	.loc	2 957 5 is_stmt 0       @ ../Application/Dsiplay/Display.c:957:5
	add	sp, #4
	pop.w	{r4, r5, r6, r7, r8, r9, r10, r11, lr}
	b	EDIT_SetText
.Ltmp402:
.LBB3_191:                              @   in Loop: Header=BB3_192 Depth=1
	.loc	2 1243 6 is_stmt 1      @ ../Application/Dsiplay/Display.c:1243:6
	bl	GUI_TOUCH_Exec
	.loc	2 1244 6                @ ../Application/Dsiplay/Display.c:1244:6
	movs	r0, #50
	bl	GUI_Delay
.LBB3_192:                              @ =>This Inner Loop Header: Depth=1
.Ltmp403:
	.loc	2 1242 27               @ ../Application/Dsiplay/Display.c:1242:27
	ldr	r0, [r4]
	.loc	2 1242 10 is_stmt 0     @ ../Application/Dsiplay/Display.c:1242:10
	bl	BUTTON_IsPressed
.Ltmp404:
	.loc	2 1242 9                @ ../Application/Dsiplay/Display.c:1242:9
	cmp	r0, #0
	bne	.LBB3_191
.Ltmp405:
@ %bb.193:
	.loc	2 1248 11 is_stmt 1     @ ../Application/Dsiplay/Display.c:1248:11
	movw	r7, :lower16:ret_1
	.loc	2 1247 11               @ ../Application/Dsiplay/Display.c:1247:11
	movw	r6, :lower16:hItem
	movs	r0, #0
.Ltmp406:
	.loc	2 1249 9                @ ../Application/Dsiplay/Display.c:1249:9
	movw	r1, :lower16:.L.str
	movs	r2, #0
.Ltmp407:
	.loc	2 1248 11               @ ../Application/Dsiplay/Display.c:1248:11
	movt	r7, :upper16:ret_1
	.loc	2 1247 11               @ ../Application/Dsiplay/Display.c:1247:11
	movt	r6, :upper16:hItem
.Ltmp408:
	.loc	2 1249 9                @ ../Application/Dsiplay/Display.c:1249:9
	movt	r1, :upper16:.L.str
.Ltmp409:
	.loc	2 1248 11               @ ../Application/Dsiplay/Display.c:1248:11
	str	r0, [r7]
	.loc	2 1247 11               @ ../Application/Dsiplay/Display.c:1247:11
	str	r0, [r6]
.Ltmp410:
	.loc	2 1249 9                @ ../Application/Dsiplay/Display.c:1249:9
	movw	r0, :lower16:f_sys
	movt	r0, :upper16:f_sys
	bl	f_mount
.Ltmp411:
	.loc	2 1249 9 is_stmt 0      @ ../Application/Dsiplay/Display.c:1249:9
	cmp	r0, #0
	bne.w	.LBB3_1
@ %bb.194:
	.loc	2 1250 12 is_stmt 1     @ ../Application/Dsiplay/Display.c:1250:12
	movw	r0, :lower16:f_dir
	movw	r1, :lower16:.L.str.1
	movt	r0, :upper16:f_dir
	movt	r1, :upper16:.L.str.1
	bl	f_opendir
	.loc	2 1250 9 is_stmt 0      @ ../Application/Dsiplay/Display.c:1250:9
	movw	r9, :lower16:res
	.loc	2 1251 9 is_stmt 1      @ ../Application/Dsiplay/Display.c:1251:9
	cmp	r0, #0
	.loc	2 1250 9                @ ../Application/Dsiplay/Display.c:1250:9
	movt	r9, :upper16:res
	strb.w	r0, [r9]
	.loc	2 1251 9                @ ../Application/Dsiplay/Display.c:1251:9
	bne.w	.LBB3_178
@ %bb.195:
.Ltmp412:
	.loc	2 1253 34               @ ../Application/Dsiplay/Display.c:1253:34
	movw	r10, :lower16:hTree
	.loc	2 1253 14 is_stmt 0     @ ../Application/Dsiplay/Display.c:1253:14
	adr.w	r1, .LCPI3_0
	movs	r2, #0
	movs	r3, #0
	movs	r4, #1
	.loc	2 1253 34               @ ../Application/Dsiplay/Display.c:1253:34
	movt	r10, :upper16:hTree
	ldr.w	r0, [r10]
	.loc	2 1253 14               @ ../Application/Dsiplay/Display.c:1253:14
	str	r1, [sp]
	movs	r1, #1
	bl	TREEVIEW_InsertItem
	.loc	2 1253 12               @ ../Application/Dsiplay/Display.c:1253:12
	movw	r11, :lower16:hNode
	movt	r11, :upper16:hNode
	str.w	r0, [r11]
.Ltmp413:
	.loc	2 1256 15 is_stmt 1     @ ../Application/Dsiplay/Display.c:1256:15
	ldr	r0, [r6]
	cmp	r0, #0
	it	eq
	moveq	r4, #2
	.loc	2 1256 13 is_stmt 0     @ ../Application/Dsiplay/Display.c:1256:13
	str	r4, [r7]
	.loc	2 1258 13 is_stmt 1     @ ../Application/Dsiplay/Display.c:1258:13
	movw	r0, :lower16:f_dir
	movw	r4, :lower16:fno
	movt	r0, :upper16:f_dir
	movt	r4, :upper16:fno
	mov	r1, r4
	bl	f_readdir
.Ltmp414:
	.loc	2 1259 24               @ ../Application/Dsiplay/Display.c:1259:24
	cmp	r0, #0
.Ltmp415:
	.loc	2 1258 11               @ ../Application/Dsiplay/Display.c:1258:11
	strb.w	r0, [r9]
.Ltmp416:
	.loc	2 1259 24               @ ../Application/Dsiplay/Display.c:1259:24
	bne	.LBB3_201
@ %bb.196:
	.loc	2 0 0 is_stmt 0         @ ../Application/Dsiplay/Display.c:0:0
	ldrb	r0, [r4, #9]
	.loc	2 1259 24               @ ../Application/Dsiplay/Display.c:1259:24
	cbz	r0, .LBB3_201
.Ltmp417:
@ %bb.197:
	.loc	2 0 24                  @ ../Application/Dsiplay/Display.c:0:24
	movw	r8, :lower16:f_dir
	add.w	r5, r4, #9
	movt	r8, :upper16:f_dir
.LBB3_198:                              @ =>This Inner Loop Header: Depth=1
.Ltmp418:
	.loc	2 1264 15 is_stmt 1     @ ../Application/Dsiplay/Display.c:1264:15
	ldrb	r0, [r4, #8]
	.loc	2 0 0 is_stmt 0         @ ../Application/Dsiplay/Display.c:0:0
	mov	r1, r5
	movs	r2, #0
.Ltmp419:
	.loc	2 1264 11               @ ../Application/Dsiplay/Display.c:1264:11
	lsls	r0, r0, #27
.Ltmp420:
	.loc	2 1275 16 is_stmt 1     @ ../Application/Dsiplay/Display.c:1275:16
	ite	pl
	movpl	r0, #0
.Ltmp421:
	.loc	2 1266 16               @ ../Application/Dsiplay/Display.c:1266:16
	movmi	r0, #1
.Ltmp422:
	.loc	2 0 0 is_stmt 0         @ ../Application/Dsiplay/Display.c:0:0
	bl	TREEVIEW_ITEM_Create
	mov	r1, r0
	cmp	r0, #0
	str	r0, [r6]
	beq	.LBB3_201
.Ltmp423:
@ %bb.199:                              @   in Loop: Header=BB3_198 Depth=1
	.loc	2 1282 48 is_stmt 1     @ ../Application/Dsiplay/Display.c:1282:48
	ldr	r3, [r7]
	.loc	2 1282 41 is_stmt 0     @ ../Application/Dsiplay/Display.c:1282:41
	ldr.w	r2, [r11]
	.loc	2 1282 27               @ ../Application/Dsiplay/Display.c:1282:27
	ldr.w	r0, [r10]
	.loc	2 1282 7                @ ../Application/Dsiplay/Display.c:1282:7
	bl	TREEVIEW_AttachItem
	.loc	2 1283 7 is_stmt 1      @ ../Application/Dsiplay/Display.c:1283:7
	bl	GUI_Exec
	.loc	2 1256 15               @ ../Application/Dsiplay/Display.c:1256:15
	ldr	r0, [r6]
	.loc	2 1258 13               @ ../Application/Dsiplay/Display.c:1258:13
	mov	r1, r4
	.loc	2 1256 15               @ ../Application/Dsiplay/Display.c:1256:15
	cmp	r0, #0
	mov.w	r0, #1
	it	eq
	moveq	r0, #2
	.loc	2 1256 13 is_stmt 0     @ ../Application/Dsiplay/Display.c:1256:13
	str	r0, [r7]
	.loc	2 1258 13 is_stmt 1     @ ../Application/Dsiplay/Display.c:1258:13
	mov	r0, r8
	bl	f_readdir
.Ltmp424:
	.loc	2 1259 24               @ ../Application/Dsiplay/Display.c:1259:24
	cmp	r0, #0
.Ltmp425:
	.loc	2 1258 11               @ ../Application/Dsiplay/Display.c:1258:11
	strb.w	r0, [r9]
.Ltmp426:
	.loc	2 1259 24               @ ../Application/Dsiplay/Display.c:1259:24
	bne	.LBB3_201
@ %bb.200:                              @   in Loop: Header=BB3_198 Depth=1
	.loc	2 0 0 is_stmt 0         @ ../Application/Dsiplay/Display.c:0:0
	ldrb	r0, [r4, #9]
	.loc	2 1259 24               @ ../Application/Dsiplay/Display.c:1259:24
	cmp	r0, #0
	bne	.LBB3_198
.Ltmp427:
.LBB3_201:
	.loc	2 0 0                   @ ../Application/Dsiplay/Display.c:0:0
	movw	r0, :lower16:f_dir
	movt	r0, :upper16:f_dir
	bl	f_closedir
.Ltmp428:
	.loc	2 1285 6 is_stmt 1      @ ../Application/Dsiplay/Display.c:1285:6
	movw	r0, :lower16:f_dir
	movt	r0, :upper16:f_dir
	bl	f_closedir
	b	.LBB3_178
.Ltmp429:
.LBB3_202:
	.loc	2 0 6 is_stmt 0         @ ../Application/Dsiplay/Display.c:0:6
	movs	r0, #0
.Ltmp430:
	.loc	2 403 6 is_stmt 1       @ ../Application/Dsiplay/Display.c:403:6
	str	r0, [r5]
	b.w	.LBB3_32
.Ltmp431:
.LBB3_203:                              @   in Loop: Header=BB3_204 Depth=1
	.loc	2 1077 7                @ ../Application/Dsiplay/Display.c:1077:7
	bl	GUI_TOUCH_Exec
	.loc	2 1078 7                @ ../Application/Dsiplay/Display.c:1078:7
	movs	r0, #50
	bl	GUI_Delay
.LBB3_204:                              @ =>This Inner Loop Header: Depth=1
.Ltmp432:
	.loc	2 1076 28               @ ../Application/Dsiplay/Display.c:1076:28
	ldr	r0, [r5]
	.loc	2 1076 11 is_stmt 0     @ ../Application/Dsiplay/Display.c:1076:11
	bl	BUTTON_IsPressed
.Ltmp433:
	.loc	2 1076 10               @ ../Application/Dsiplay/Display.c:1076:10
	cmp	r0, #0
	bne	.LBB3_203
.Ltmp434:
@ %bb.205:
	.loc	2 1081 21 is_stmt 1     @ ../Application/Dsiplay/Display.c:1081:21
	movw	r0, :lower16:osk_call
	.loc	2 1081 6 is_stmt 0      @ ../Application/Dsiplay/Display.c:1081:6
	movs	r1, #53
	b	.LBB3_273
.Ltmp435:
.LBB3_206:                              @   in Loop: Header=BB3_207 Depth=1
	.loc	2 561 7 is_stmt 1       @ ../Application/Dsiplay/Display.c:561:7
	bl	GUI_TOUCH_Exec
	.loc	2 562 7                 @ ../Application/Dsiplay/Display.c:562:7
	movs	r0, #50
	bl	GUI_Delay
.LBB3_207:                              @ =>This Inner Loop Header: Depth=1
.Ltmp436:
	.loc	2 560 28                @ ../Application/Dsiplay/Display.c:560:28
	ldr	r0, [r4]
	.loc	2 560 11 is_stmt 0      @ ../Application/Dsiplay/Display.c:560:11
	bl	BUTTON_IsPressed
.Ltmp437:
	.loc	2 560 10                @ ../Application/Dsiplay/Display.c:560:10
	cmp	r0, #0
	bne	.LBB3_206
.Ltmp438:
@ %bb.208:
	.loc	2 565 6 is_stmt 1       @ ../Application/Dsiplay/Display.c:565:6
	movs	r0, #7
	movs	r1, #53
	b	.LBB3_269
.Ltmp439:
.LBB3_209:                              @   in Loop: Header=BB3_210 Depth=1
	.loc	2 1297 6                @ ../Application/Dsiplay/Display.c:1297:6
	bl	GUI_TOUCH_Exec
	.loc	2 1298 6                @ ../Application/Dsiplay/Display.c:1298:6
	movs	r0, #50
	bl	GUI_Delay
.LBB3_210:                              @ =>This Inner Loop Header: Depth=1
.Ltmp440:
	.loc	2 1296 27               @ ../Application/Dsiplay/Display.c:1296:27
	ldr	r0, [r4]
	.loc	2 1296 10 is_stmt 0     @ ../Application/Dsiplay/Display.c:1296:10
	bl	BUTTON_IsPressed
.Ltmp441:
	.loc	2 1296 9                @ ../Application/Dsiplay/Display.c:1296:9
	cmp	r0, #0
	bne	.LBB3_209
	b	.LBB3_178
.Ltmp442:
.LBB3_211:
	.loc	2 905 27 is_stmt 1      @ ../Application/Dsiplay/Display.c:905:27
	movw	r1, :lower16:hEDIT_TcpIpGateway
	movt	r1, :upper16:hEDIT_TcpIpGateway
	ldr	r1, [r1]
.Ltmp443:
	.loc	2 905 14 is_stmt 0      @ ../Application/Dsiplay/Display.c:905:14
	cmp	r0, r1
	bne	.LBB3_222
.Ltmp444:
@ %bb.212:
	.loc	2 0 14                  @ ../Application/Dsiplay/Display.c:0:14
	movs	r0, #2
	b	.LBB3_249
.LBB3_213:
.Ltmp445:
	.loc	2 453 57 is_stmt 1      @ ../Application/Dsiplay/Display.c:453:57
	adr	r0, .LCPI3_2
.Ltmp446:
.LBB3_214:
	.loc	2 0 0 is_stmt 0         @ ../Application/Dsiplay/Display.c:0:0
	bl	GUI_DispString
.LBB3_215:
	mov.w	r0, #-16777216
	bl	GUI_SetBkColor
	b.w	.LBB3_32
.Ltmp447:
.LBB3_216:                              @   in Loop: Header=BB3_217 Depth=1
	.loc	2 1088 7 is_stmt 1      @ ../Application/Dsiplay/Display.c:1088:7
	bl	GUI_TOUCH_Exec
	.loc	2 1089 7                @ ../Application/Dsiplay/Display.c:1089:7
	movs	r0, #50
	bl	GUI_Delay
.LBB3_217:                              @ =>This Inner Loop Header: Depth=1
.Ltmp448:
	.loc	2 1087 28               @ ../Application/Dsiplay/Display.c:1087:28
	ldr	r0, [r5]
	.loc	2 1087 11 is_stmt 0     @ ../Application/Dsiplay/Display.c:1087:11
	bl	BUTTON_IsPressed
.Ltmp449:
	.loc	2 1087 10               @ ../Application/Dsiplay/Display.c:1087:10
	cmp	r0, #0
	bne	.LBB3_216
.Ltmp450:
@ %bb.218:
	.loc	2 1092 21 is_stmt 1     @ ../Application/Dsiplay/Display.c:1092:21
	movw	r0, :lower16:osk_call
	.loc	2 1092 6 is_stmt 0      @ ../Application/Dsiplay/Display.c:1092:6
	movs	r1, #54
	b	.LBB3_273
.Ltmp451:
.LBB3_219:                              @   in Loop: Header=BB3_220 Depth=1
	.loc	2 572 7 is_stmt 1       @ ../Application/Dsiplay/Display.c:572:7
	bl	GUI_TOUCH_Exec
	.loc	2 573 7                 @ ../Application/Dsiplay/Display.c:573:7
	movs	r0, #50
	bl	GUI_Delay
.LBB3_220:                              @ =>This Inner Loop Header: Depth=1
.Ltmp452:
	.loc	2 571 28                @ ../Application/Dsiplay/Display.c:571:28
	ldr	r0, [r4]
	.loc	2 571 11 is_stmt 0      @ ../Application/Dsiplay/Display.c:571:11
	bl	BUTTON_IsPressed
.Ltmp453:
	.loc	2 571 10                @ ../Application/Dsiplay/Display.c:571:10
	cmp	r0, #0
	bne	.LBB3_219
.Ltmp454:
@ %bb.221:
	.loc	2 576 6 is_stmt 1       @ ../Application/Dsiplay/Display.c:576:6
	movs	r0, #7
	movs	r1, #54
	b	.LBB3_269
.Ltmp455:
.LBB3_222:
	.loc	2 906 27                @ ../Application/Dsiplay/Display.c:906:27
	movw	r1, :lower16:hEDIT_TcpIpSubnet
	movt	r1, :upper16:hEDIT_TcpIpSubnet
	ldr	r1, [r1]
.Ltmp456:
	.loc	2 906 14 is_stmt 0      @ ../Application/Dsiplay/Display.c:906:14
	cmp	r0, r1
	bne	.LBB3_226
.Ltmp457:
@ %bb.223:
	.loc	2 0 14                  @ ../Application/Dsiplay/Display.c:0:14
	movs	r0, #3
	b	.LBB3_249
.LBB3_224:                              @   in Loop: Header=BB3_225 Depth=1
.Ltmp458:
	.loc	2 1311 6 is_stmt 1      @ ../Application/Dsiplay/Display.c:1311:6
	bl	GUI_TOUCH_Exec
	.loc	2 1312 6                @ ../Application/Dsiplay/Display.c:1312:6
	movs	r0, #50
	bl	GUI_Delay
.LBB3_225:                              @ =>This Inner Loop Header: Depth=1
.Ltmp459:
	.loc	2 1310 27               @ ../Application/Dsiplay/Display.c:1310:27
	ldr	r0, [r4]
	.loc	2 1310 10 is_stmt 0     @ ../Application/Dsiplay/Display.c:1310:10
	bl	BUTTON_IsPressed
.Ltmp460:
	.loc	2 1310 9                @ ../Application/Dsiplay/Display.c:1310:9
	cmp	r0, #0
	bne	.LBB3_224
	b	.LBB3_178
.Ltmp461:
.LBB3_226:
	.loc	2 907 27 is_stmt 1      @ ../Application/Dsiplay/Display.c:907:27
	movw	r1, :lower16:hEDIT_RS485_InterfaceAddress
	movt	r1, :upper16:hEDIT_RS485_InterfaceAddress
	ldr	r1, [r1]
.Ltmp462:
	.loc	2 907 14 is_stmt 0      @ ../Application/Dsiplay/Display.c:907:14
	cmp	r0, r1
	bne	.LBB3_237
.Ltmp463:
@ %bb.227:
	.loc	2 0 14                  @ ../Application/Dsiplay/Display.c:0:14
	movs	r0, #4
	b	.LBB3_249
.LBB3_228:                              @   in Loop: Header=BB3_229 Depth=1
.Ltmp464:
	.loc	2 1099 7 is_stmt 1      @ ../Application/Dsiplay/Display.c:1099:7
	bl	GUI_TOUCH_Exec
	.loc	2 1100 7                @ ../Application/Dsiplay/Display.c:1100:7
	movs	r0, #50
	bl	GUI_Delay
.LBB3_229:                              @ =>This Inner Loop Header: Depth=1
.Ltmp465:
	.loc	2 1098 28               @ ../Application/Dsiplay/Display.c:1098:28
	ldr	r0, [r5]
	.loc	2 1098 11 is_stmt 0     @ ../Application/Dsiplay/Display.c:1098:11
	bl	BUTTON_IsPressed
.Ltmp466:
	.loc	2 1098 10               @ ../Application/Dsiplay/Display.c:1098:10
	cmp	r0, #0
	bne	.LBB3_228
.Ltmp467:
@ %bb.230:
	.loc	2 1103 21 is_stmt 1     @ ../Application/Dsiplay/Display.c:1103:21
	movw	r0, :lower16:osk_call
	.loc	2 1103 6 is_stmt 0      @ ../Application/Dsiplay/Display.c:1103:6
	movs	r1, #55
	b	.LBB3_273
.Ltmp468:
.LBB3_231:                              @   in Loop: Header=BB3_232 Depth=1
	.loc	2 583 7 is_stmt 1       @ ../Application/Dsiplay/Display.c:583:7
	bl	GUI_TOUCH_Exec
	.loc	2 584 7                 @ ../Application/Dsiplay/Display.c:584:7
	movs	r0, #50
	bl	GUI_Delay
.LBB3_232:                              @ =>This Inner Loop Header: Depth=1
.Ltmp469:
	.loc	2 582 28                @ ../Application/Dsiplay/Display.c:582:28
	ldr	r0, [r4]
	.loc	2 582 11 is_stmt 0      @ ../Application/Dsiplay/Display.c:582:11
	bl	BUTTON_IsPressed
.Ltmp470:
	.loc	2 582 10                @ ../Application/Dsiplay/Display.c:582:10
	cmp	r0, #0
	bne	.LBB3_231
.Ltmp471:
@ %bb.233:
	.loc	2 587 6 is_stmt 1       @ ../Application/Dsiplay/Display.c:587:6
	movs	r0, #7
	movs	r1, #55
	b	.LBB3_269
.Ltmp472:
.LBB3_234:                              @   in Loop: Header=BB3_235 Depth=1
	.loc	2 1325 6                @ ../Application/Dsiplay/Display.c:1325:6
	bl	GUI_TOUCH_Exec
	.loc	2 1326 6                @ ../Application/Dsiplay/Display.c:1326:6
	movs	r0, #50
	bl	GUI_Delay
.LBB3_235:                              @ =>This Inner Loop Header: Depth=1
.Ltmp473:
	.loc	2 1324 27               @ ../Application/Dsiplay/Display.c:1324:27
	ldr	r0, [r4]
	.loc	2 1324 10 is_stmt 0     @ ../Application/Dsiplay/Display.c:1324:10
	bl	BUTTON_IsPressed
.Ltmp474:
	.loc	2 1324 9                @ ../Application/Dsiplay/Display.c:1324:9
	cmp	r0, #0
	bne	.LBB3_234
.Ltmp475:
@ %bb.236:
	.loc	2 1329 5 is_stmt 1      @ ../Application/Dsiplay/Display.c:1329:5
	bl	DeleteToolsDisplay
	.loc	2 1330 5                @ ../Application/Dsiplay/Display.c:1330:5
	bl	CreateDefaultDisplay
	b	.LBB3_178
.Ltmp476:
.LBB3_237:
	.loc	2 908 27                @ ../Application/Dsiplay/Display.c:908:27
	movw	r1, :lower16:hEDIT_RS485_BroadcastAddress
	movt	r1, :upper16:hEDIT_RS485_BroadcastAddress
	ldr	r1, [r1]
.Ltmp477:
	.loc	2 908 14 is_stmt 0      @ ../Application/Dsiplay/Display.c:908:14
	cmp	r0, r1
	bne	.LBB3_245
.Ltmp478:
@ %bb.238:
	.loc	2 0 14                  @ ../Application/Dsiplay/Display.c:0:14
	movs	r0, #5
	b	.LBB3_249
.LBB3_239:                              @   in Loop: Header=BB3_240 Depth=1
.Ltmp479:
	.loc	2 1110 7 is_stmt 1      @ ../Application/Dsiplay/Display.c:1110:7
	bl	GUI_TOUCH_Exec
	.loc	2 1111 7                @ ../Application/Dsiplay/Display.c:1111:7
	movs	r0, #50
	bl	GUI_Delay
.LBB3_240:                              @ =>This Inner Loop Header: Depth=1
.Ltmp480:
	.loc	2 1109 28               @ ../Application/Dsiplay/Display.c:1109:28
	ldr	r0, [r5]
	.loc	2 1109 11 is_stmt 0     @ ../Application/Dsiplay/Display.c:1109:11
	bl	BUTTON_IsPressed
.Ltmp481:
	.loc	2 1109 10               @ ../Application/Dsiplay/Display.c:1109:10
	cmp	r0, #0
	bne	.LBB3_239
.Ltmp482:
@ %bb.241:
	.loc	2 1114 21 is_stmt 1     @ ../Application/Dsiplay/Display.c:1114:21
	movw	r0, :lower16:osk_call
	.loc	2 1114 6 is_stmt 0      @ ../Application/Dsiplay/Display.c:1114:6
	movs	r1, #56
	b	.LBB3_273
.Ltmp483:
.LBB3_242:                              @   in Loop: Header=BB3_243 Depth=1
	.loc	2 594 7 is_stmt 1       @ ../Application/Dsiplay/Display.c:594:7
	bl	GUI_TOUCH_Exec
	.loc	2 595 7                 @ ../Application/Dsiplay/Display.c:595:7
	movs	r0, #50
	bl	GUI_Delay
.LBB3_243:                              @ =>This Inner Loop Header: Depth=1
.Ltmp484:
	.loc	2 593 28                @ ../Application/Dsiplay/Display.c:593:28
	ldr	r0, [r4]
	.loc	2 593 11 is_stmt 0      @ ../Application/Dsiplay/Display.c:593:11
	bl	BUTTON_IsPressed
.Ltmp485:
	.loc	2 593 10                @ ../Application/Dsiplay/Display.c:593:10
	cmp	r0, #0
	bne	.LBB3_242
.Ltmp486:
@ %bb.244:
	.loc	2 598 6 is_stmt 1       @ ../Application/Dsiplay/Display.c:598:6
	movs	r0, #7
	movs	r1, #56
	b	.LBB3_269
.Ltmp487:
.LBB3_245:
	.loc	2 909 27                @ ../Application/Dsiplay/Display.c:909:27
	movw	r1, :lower16:hEDIT_Password
	movt	r1, :upper16:hEDIT_Password
	ldr	r1, [r1]
.Ltmp488:
	.loc	2 909 14 is_stmt 0      @ ../Application/Dsiplay/Display.c:909:14
	cmp	r0, r1
	bne	.LBB3_247
@ %bb.246:
	.loc	2 0 14                  @ ../Application/Dsiplay/Display.c:0:14
	movs	r0, #6
	b	.LBB3_249
.LBB3_247:
.Ltmp489:
	.loc	2 910 27 is_stmt 1      @ ../Application/Dsiplay/Display.c:910:27
	movw	r1, :lower16:hEDIT_SysID
	movt	r1, :upper16:hEDIT_SysID
	ldr	r1, [r1]
.Ltmp490:
	.loc	2 910 14 is_stmt 0      @ ../Application/Dsiplay/Display.c:910:14
	cmp	r0, r1
	bne	.LBB3_250
.Ltmp491:
@ %bb.248:
	.loc	2 0 14                  @ ../Application/Dsiplay/Display.c:0:14
	movs	r0, #8
.LBB3_249:
	movw	r1, :lower16:osk_call
	movt	r1, :upper16:osk_call
	str	r0, [r1]
.Ltmp492:
.LBB3_250:
	.loc	2 912 20 is_stmt 1      @ ../Application/Dsiplay/Display.c:912:20
	movw	r0, :lower16:osk_entry_cnt
	movs	r1, #0
	movt	r0, :upper16:osk_entry_cnt
	strb	r1, [r0]
	.loc	2 913 6                 @ ../Application/Dsiplay/Display.c:913:6
	movw	r0, :lower16:osk_entry
	movs	r1, #6
	movt	r0, :upper16:osk_entry
	bl	ClearBuffer
	.loc	2 914 6                 @ ../Application/Dsiplay/Display.c:914:6
	movw	r4, :lower16:string
	movs	r1, #84
	movt	r4, :upper16:string
	mov	r0, r4
	bl	ClearBuffer
	.loc	2 915 19                @ ../Application/Dsiplay/Display.c:915:19
	ldr	r0, [r6]
	.loc	2 915 6 is_stmt 0       @ ../Application/Dsiplay/Display.c:915:6
	mov	r1, r4
	movs	r2, #24
	bl	EDIT_GetText
	.loc	2 917 6 is_stmt 1       @ ../Application/Dsiplay/Display.c:917:6
	bl	DeleteSettingsMenuDisplay
	.loc	2 918 6                 @ ../Application/Dsiplay/Display.c:918:6
	movs	r0, #0
	bl	GUI_SetBkColor
	.loc	2 919 6                 @ ../Application/Dsiplay/Display.c:919:6
	bl	GUI_Clear
	.loc	2 920 6                 @ ../Application/Dsiplay/Display.c:920:6
	bl	CreateOnScreenKeypad
	movs	r0, #4
	.loc	2 921 20                @ ../Application/Dsiplay/Display.c:921:20
	strb	r0, [r5]
.Ltmp493:
.LBB3_251:
	.loc	2 924 30                @ ../Application/Dsiplay/Display.c:924:30
	movw	r0, :lower16:cursor_pos
	movt	r0, :upper16:cursor_pos
	ldrb	r1, [r0]
	.loc	2 924 20 is_stmt 0      @ ../Application/Dsiplay/Display.c:924:20
	movw	r0, :lower16:osk_call
	movt	r0, :upper16:osk_call
	ldr	r0, [r0]
	.loc	2 924 5                 @ ../Application/Dsiplay/Display.c:924:5
	bl	OnScreenKeypad
	.loc	2 927 5 is_stmt 1       @ ../Application/Dsiplay/Display.c:927:5
	movw	r0, :lower16:display_timer
	movw	r1, #30000
	movt	r0, :upper16:display_timer
	str	r1, [r0]
	.loc	2 926 5                 @ ../Application/Dsiplay/Display.c:926:5
	movw	r0, :lower16:display_timeout_timer
	movt	r0, :upper16:display_timeout_timer
	str	r1, [r0]
	.loc	2 928 5                 @ ../Application/Dsiplay/Display.c:928:5
	ldr	r0, [r7]
	orr	r0, r0, #64
	str	r0, [r7]
	b	.LBB3_275
.Ltmp494:
.LBB3_252:                              @   in Loop: Header=BB3_253 Depth=1
	.loc	2 1121 7                @ ../Application/Dsiplay/Display.c:1121:7
	bl	GUI_TOUCH_Exec
	.loc	2 1122 7                @ ../Application/Dsiplay/Display.c:1122:7
	movs	r0, #50
	bl	GUI_Delay
.LBB3_253:                              @ =>This Inner Loop Header: Depth=1
.Ltmp495:
	.loc	2 1120 28               @ ../Application/Dsiplay/Display.c:1120:28
	ldr	r0, [r5]
	.loc	2 1120 11 is_stmt 0     @ ../Application/Dsiplay/Display.c:1120:11
	bl	BUTTON_IsPressed
.Ltmp496:
	.loc	2 1120 10               @ ../Application/Dsiplay/Display.c:1120:10
	cmp	r0, #0
	bne	.LBB3_252
.Ltmp497:
@ %bb.254:
	.loc	2 1125 21 is_stmt 1     @ ../Application/Dsiplay/Display.c:1125:21
	movw	r0, :lower16:osk_call
	.loc	2 1125 6 is_stmt 0      @ ../Application/Dsiplay/Display.c:1125:6
	movs	r1, #57
	b	.LBB3_273
.Ltmp498:
.LBB3_255:                              @   in Loop: Header=BB3_256 Depth=1
	.loc	2 605 7 is_stmt 1       @ ../Application/Dsiplay/Display.c:605:7
	bl	GUI_TOUCH_Exec
	.loc	2 606 7                 @ ../Application/Dsiplay/Display.c:606:7
	movs	r0, #50
	bl	GUI_Delay
.LBB3_256:                              @ =>This Inner Loop Header: Depth=1
.Ltmp499:
	.loc	2 604 28                @ ../Application/Dsiplay/Display.c:604:28
	ldr	r0, [r4]
	.loc	2 604 11 is_stmt 0      @ ../Application/Dsiplay/Display.c:604:11
	bl	BUTTON_IsPressed
.Ltmp500:
	.loc	2 604 10                @ ../Application/Dsiplay/Display.c:604:10
	cmp	r0, #0
	bne	.LBB3_255
.Ltmp501:
@ %bb.257:
	.loc	2 609 6 is_stmt 1       @ ../Application/Dsiplay/Display.c:609:6
	movs	r0, #7
	movs	r1, #57
	b	.LBB3_269
.Ltmp502:
.LBB3_258:
	.loc	2 1004 17               @ ../Application/Dsiplay/Display.c:1004:17
	movw	r0, :lower16:cursor_pos
	movs	r1, #0
	movt	r0, :upper16:cursor_pos
	strb	r1, [r0]
	.loc	2 1003 16               @ ../Application/Dsiplay/Display.c:1003:16
	movw	r0, :lower16:hSELECTED
	movt	r0, :upper16:hSELECTED
	str	r1, [r0]
.Ltmp503:
	.loc	2 0 0 is_stmt 0         @ ../Application/Dsiplay/Display.c:0:0
	ldr	r0, [r6]
.LBB3_259:
	.loc	2 1007 27 is_stmt 1     @ ../Application/Dsiplay/Display.c:1007:27
	add	sp, #4
	pop.w	{r4, r5, r6, r7, r8, r9, r10, r11, lr}
	b	WM_DisableWindow
.Ltmp504:
.LBB3_260:                              @   in Loop: Header=BB3_261 Depth=1
	.loc	2 1132 7                @ ../Application/Dsiplay/Display.c:1132:7
	bl	GUI_TOUCH_Exec
	.loc	2 1133 7                @ ../Application/Dsiplay/Display.c:1133:7
	movs	r0, #50
	bl	GUI_Delay
.LBB3_261:                              @ =>This Inner Loop Header: Depth=1
.Ltmp505:
	.loc	2 1131 28               @ ../Application/Dsiplay/Display.c:1131:28
	ldr	r0, [r5]
	.loc	2 1131 11 is_stmt 0     @ ../Application/Dsiplay/Display.c:1131:11
	bl	BUTTON_IsPressed
.Ltmp506:
	.loc	2 1131 10               @ ../Application/Dsiplay/Display.c:1131:10
	cmp	r0, #0
	bne	.LBB3_260
.Ltmp507:
@ %bb.262:
	.loc	2 1136 21 is_stmt 1     @ ../Application/Dsiplay/Display.c:1136:21
	movw	r0, :lower16:osk_call
	.loc	2 1136 6 is_stmt 0      @ ../Application/Dsiplay/Display.c:1136:6
	movs	r1, #79
	b	.LBB3_273
.Ltmp508:
.LBB3_263:                              @   in Loop: Header=BB3_264 Depth=1
	.loc	2 616 7 is_stmt 1       @ ../Application/Dsiplay/Display.c:616:7
	bl	GUI_TOUCH_Exec
	.loc	2 617 7                 @ ../Application/Dsiplay/Display.c:617:7
	movs	r0, #50
	bl	GUI_Delay
.LBB3_264:                              @ =>This Inner Loop Header: Depth=1
.Ltmp509:
	.loc	2 615 28                @ ../Application/Dsiplay/Display.c:615:28
	ldr	r0, [r4]
	.loc	2 615 11 is_stmt 0      @ ../Application/Dsiplay/Display.c:615:11
	bl	BUTTON_IsPressed
.Ltmp510:
	.loc	2 615 10                @ ../Application/Dsiplay/Display.c:615:10
	cmp	r0, #0
	bne	.LBB3_263
.Ltmp511:
@ %bb.265:
	.loc	2 620 6 is_stmt 1       @ ../Application/Dsiplay/Display.c:620:6
	movs	r0, #7
	movs	r1, #79
	b	.LBB3_269
.Ltmp512:
.LBB3_266:                              @   in Loop: Header=BB3_267 Depth=1
	.loc	2 627 7                 @ ../Application/Dsiplay/Display.c:627:7
	bl	GUI_TOUCH_Exec
	.loc	2 628 7                 @ ../Application/Dsiplay/Display.c:628:7
	movs	r0, #50
	bl	GUI_Delay
.LBB3_267:                              @ =>This Inner Loop Header: Depth=1
.Ltmp513:
	.loc	2 626 28                @ ../Application/Dsiplay/Display.c:626:28
	ldr	r0, [r4]
	.loc	2 626 11 is_stmt 0      @ ../Application/Dsiplay/Display.c:626:11
	bl	BUTTON_IsPressed
.Ltmp514:
	.loc	2 626 10                @ ../Application/Dsiplay/Display.c:626:10
	cmp	r0, #0
	bne	.LBB3_266
.Ltmp515:
@ %bb.268:
	.loc	2 631 6 is_stmt 1       @ ../Application/Dsiplay/Display.c:631:6
	movs	r0, #7
	movs	r1, #66
.Ltmp516:
.LBB3_269:
	.loc	2 0 0 is_stmt 0         @ ../Application/Dsiplay/Display.c:0:0
	add	sp, #4
	pop.w	{r4, r5, r6, r7, r8, r9, r10, r11, lr}
	b	OnScreenKeypad
.Ltmp517:
.LBB3_270:                              @   in Loop: Header=BB3_271 Depth=1
	.loc	2 1143 7 is_stmt 1      @ ../Application/Dsiplay/Display.c:1143:7
	bl	GUI_TOUCH_Exec
	.loc	2 1144 7                @ ../Application/Dsiplay/Display.c:1144:7
	movs	r0, #50
	bl	GUI_Delay
.LBB3_271:                              @ =>This Inner Loop Header: Depth=1
.Ltmp518:
	.loc	2 1142 28               @ ../Application/Dsiplay/Display.c:1142:28
	ldr	r0, [r5]
	.loc	2 1142 11 is_stmt 0     @ ../Application/Dsiplay/Display.c:1142:11
	bl	BUTTON_IsPressed
.Ltmp519:
	.loc	2 1142 10               @ ../Application/Dsiplay/Display.c:1142:10
	cmp	r0, #0
	bne	.LBB3_270
.Ltmp520:
@ %bb.272:
	.loc	2 1147 21 is_stmt 1     @ ../Application/Dsiplay/Display.c:1147:21
	movw	r0, :lower16:osk_call
	.loc	2 1147 6 is_stmt 0      @ ../Application/Dsiplay/Display.c:1147:6
	movs	r1, #66
.Ltmp521:
.LBB3_273:
	.loc	2 0 0                   @ ../Application/Dsiplay/Display.c:0:0
	movt	r0, :upper16:osk_call
	ldr	r0, [r0]
	bl	OnScreenKeypad
.Ltmp522:
.LBB3_274:
	.loc	2 1152 4 is_stmt 1      @ ../Application/Dsiplay/Display.c:1152:4
	movw	r0, :lower16:display_timer
	movw	r1, #30000
	movt	r0, :upper16:display_timer
	str	r1, [r0]
	.loc	2 1151 4                @ ../Application/Dsiplay/Display.c:1151:4
	movw	r0, :lower16:display_timeout_timer
	movt	r0, :upper16:display_timeout_timer
	str	r1, [r0]
	.loc	2 1153 4                @ ../Application/Dsiplay/Display.c:1153:4
	ldr	r0, [r4]
	orr	r0, r0, #64
	str	r0, [r4]
.Ltmp523:
.LBB3_275:
	.loc	2 0 0 is_stmt 0         @ ../Application/Dsiplay/Display.c:0:0
	movs	r0, #100
	add	sp, #4
	pop.w	{r4, r5, r6, r7, r8, r9, r10, r11, lr}
	b	GUI_Delay
.Ltmp524:
	.p2align	2
@ %bb.276:
.LCPI3_0:
.L.str.9:
	.asciz	"uSD_Card\000\000\000"
.LCPI3_2:
.L.str.7:
	.asciz	" STOP\000\000"
.LCPI3_3:
.L.str.6:
	.asciz	"ERROR\000\000"
.Lfunc_end3:
	.size	DisplayService, .Lfunc_end3-DisplayService
	.cfi_endproc
	.cantunwind
	.fnend
                                        @ -- End function
	.section	.text.DeleteOnScreenKeypad,"ax",%progbits
	.hidden	DeleteOnScreenKeypad    @ -- Begin function DeleteOnScreenKeypad
	.globl	DeleteOnScreenKeypad
	.p2align	1
	.type	DeleteOnScreenKeypad,%function
	.code	16                      @ @DeleteOnScreenKeypad
	.thumb_func
DeleteOnScreenKeypad:
.Lfunc_begin4:
	.loc	2 1691 0 is_stmt 1      @ ../Application/Dsiplay/Display.c:1691:0
	.fnstart
	.cfi_startproc
@ %bb.0:
	.save	{r7, lr}
	push	{r7, lr}
	.cfi_def_cfa_offset 8
	.cfi_offset lr, -4
	.cfi_offset r7, -8
.Ltmp525:
	.loc	2 1692 18 prologue_end  @ ../Application/Dsiplay/Display.c:1692:18
	movw	r0, :lower16:hBUTTON_OnScreenKeypad_0
	movt	r0, :upper16:hBUTTON_OnScreenKeypad_0
	ldr	r0, [r0]
	.loc	2 1692 2 is_stmt 0      @ ../Application/Dsiplay/Display.c:1692:2
	bl	WM_DeleteWindow
	.loc	2 1693 18 is_stmt 1     @ ../Application/Dsiplay/Display.c:1693:18
	movw	r0, :lower16:hBUTTON_OnScreenKeypad_1
	movt	r0, :upper16:hBUTTON_OnScreenKeypad_1
	ldr	r0, [r0]
	.loc	2 1693 2 is_stmt 0      @ ../Application/Dsiplay/Display.c:1693:2
	bl	WM_DeleteWindow
	.loc	2 1694 18 is_stmt 1     @ ../Application/Dsiplay/Display.c:1694:18
	movw	r0, :lower16:hBUTTON_OnScreenKeypad_2
	movt	r0, :upper16:hBUTTON_OnScreenKeypad_2
	ldr	r0, [r0]
	.loc	2 1694 2 is_stmt 0      @ ../Application/Dsiplay/Display.c:1694:2
	bl	WM_DeleteWindow
	.loc	2 1695 18 is_stmt 1     @ ../Application/Dsiplay/Display.c:1695:18
	movw	r0, :lower16:hBUTTON_OnScreenKeypad_3
	movt	r0, :upper16:hBUTTON_OnScreenKeypad_3
	ldr	r0, [r0]
	.loc	2 1695 2 is_stmt 0      @ ../Application/Dsiplay/Display.c:1695:2
	bl	WM_DeleteWindow
	.loc	2 1696 18 is_stmt 1     @ ../Application/Dsiplay/Display.c:1696:18
	movw	r0, :lower16:hBUTTON_OnScreenKeypad_4
	movt	r0, :upper16:hBUTTON_OnScreenKeypad_4
	ldr	r0, [r0]
	.loc	2 1696 2 is_stmt 0      @ ../Application/Dsiplay/Display.c:1696:2
	bl	WM_DeleteWindow
	.loc	2 1697 18 is_stmt 1     @ ../Application/Dsiplay/Display.c:1697:18
	movw	r0, :lower16:hBUTTON_OnScreenKeypad_5
	movt	r0, :upper16:hBUTTON_OnScreenKeypad_5
	ldr	r0, [r0]
	.loc	2 1697 2 is_stmt 0      @ ../Application/Dsiplay/Display.c:1697:2
	bl	WM_DeleteWindow
	.loc	2 1698 18 is_stmt 1     @ ../Application/Dsiplay/Display.c:1698:18
	movw	r0, :lower16:hBUTTON_OnScreenKeypad_6
	movt	r0, :upper16:hBUTTON_OnScreenKeypad_6
	ldr	r0, [r0]
	.loc	2 1698 2 is_stmt 0      @ ../Application/Dsiplay/Display.c:1698:2
	bl	WM_DeleteWindow
	.loc	2 1699 18 is_stmt 1     @ ../Application/Dsiplay/Display.c:1699:18
	movw	r0, :lower16:hBUTTON_OnScreenKeypad_7
	movt	r0, :upper16:hBUTTON_OnScreenKeypad_7
	ldr	r0, [r0]
	.loc	2 1699 2 is_stmt 0      @ ../Application/Dsiplay/Display.c:1699:2
	bl	WM_DeleteWindow
	.loc	2 1700 18 is_stmt 1     @ ../Application/Dsiplay/Display.c:1700:18
	movw	r0, :lower16:hBUTTON_OnScreenKeypad_8
	movt	r0, :upper16:hBUTTON_OnScreenKeypad_8
	ldr	r0, [r0]
	.loc	2 1700 2 is_stmt 0      @ ../Application/Dsiplay/Display.c:1700:2
	bl	WM_DeleteWindow
	.loc	2 1701 18 is_stmt 1     @ ../Application/Dsiplay/Display.c:1701:18
	movw	r0, :lower16:hBUTTON_OnScreenKeypad_9
	movt	r0, :upper16:hBUTTON_OnScreenKeypad_9
	ldr	r0, [r0]
	.loc	2 1701 2 is_stmt 0      @ ../Application/Dsiplay/Display.c:1701:2
	bl	WM_DeleteWindow
	.loc	2 1702 18 is_stmt 1     @ ../Application/Dsiplay/Display.c:1702:18
	movw	r0, :lower16:hBUTTON_OnScreenKeypad_Ok
	movt	r0, :upper16:hBUTTON_OnScreenKeypad_Ok
	ldr	r0, [r0]
	.loc	2 1702 2 is_stmt 0      @ ../Application/Dsiplay/Display.c:1702:2
	bl	WM_DeleteWindow
	.loc	2 1703 18 is_stmt 1     @ ../Application/Dsiplay/Display.c:1703:18
	movw	r0, :lower16:hBUTTON_OnScreenKeypad_Back
	movt	r0, :upper16:hBUTTON_OnScreenKeypad_Back
	ldr	r0, [r0]
	.loc	2 1703 2 is_stmt 0      @ ../Application/Dsiplay/Display.c:1703:2
	pop.w	{r7, lr}
	b	WM_DeleteWindow
.Ltmp526:
.Lfunc_end4:
	.size	DeleteOnScreenKeypad, .Lfunc_end4-DeleteOnScreenKeypad
	.cfi_endproc
	.cantunwind
	.fnend
                                        @ -- End function
	.section	.text.DeleteDefaultDisplay,"ax",%progbits
	.hidden	DeleteDefaultDisplay    @ -- Begin function DeleteDefaultDisplay
	.globl	DeleteDefaultDisplay
	.p2align	1
	.type	DeleteDefaultDisplay,%function
	.code	16                      @ @DeleteDefaultDisplay
	.thumb_func
DeleteDefaultDisplay:
.Lfunc_begin5:
	.loc	2 1407 0 is_stmt 1      @ ../Application/Dsiplay/Display.c:1407:0
	.fnstart
	.cfi_startproc
@ %bb.0:
	.save	{r7, lr}
	push	{r7, lr}
	.cfi_def_cfa_offset 8
	.cfi_offset lr, -4
	.cfi_offset r7, -8
.Ltmp527:
	.loc	2 1408 18 prologue_end  @ ../Application/Dsiplay/Display.c:1408:18
	movw	r0, :lower16:hBUTTON_Settings
	movt	r0, :upper16:hBUTTON_Settings
	ldr	r0, [r0]
	.loc	2 1408 2 is_stmt 0      @ ../Application/Dsiplay/Display.c:1408:2
	bl	WM_DeleteWindow
	.loc	2 1409 18 is_stmt 1     @ ../Application/Dsiplay/Display.c:1409:18
	movw	r0, :lower16:hBUTTON_Tools
	movt	r0, :upper16:hBUTTON_Tools
	ldr	r0, [r0]
	.loc	2 1409 2 is_stmt 0      @ ../Application/Dsiplay/Display.c:1409:2
	bl	WM_DeleteWindow
	.loc	2 1410 18 is_stmt 1     @ ../Application/Dsiplay/Display.c:1410:18
	movw	r0, :lower16:hBUTTON_Control
	movt	r0, :upper16:hBUTTON_Control
	ldr	r0, [r0]
	.loc	2 1410 2 is_stmt 0      @ ../Application/Dsiplay/Display.c:1410:2
	bl	WM_DeleteWindow
	.loc	2 1411 18 is_stmt 1     @ ../Application/Dsiplay/Display.c:1411:18
	movw	r0, :lower16:hBUTTON_Unlock
	movt	r0, :upper16:hBUTTON_Unlock
	ldr	r0, [r0]
	.loc	2 1411 2 is_stmt 0      @ ../Application/Dsiplay/Display.c:1411:2
	pop.w	{r7, lr}
	b	WM_DeleteWindow
.Ltmp528:
.Lfunc_end5:
	.size	DeleteDefaultDisplay, .Lfunc_end5-DeleteDefaultDisplay
	.cfi_endproc
	.cantunwind
	.fnend
                                        @ -- End function
	.section	.text.UpdateDateTime,"ax",%progbits
	.hidden	UpdateDateTime          @ -- Begin function UpdateDateTime
	.globl	UpdateDateTime
	.p2align	2
	.type	UpdateDateTime,%function
	.code	16                      @ @UpdateDateTime
	.thumb_func
UpdateDateTime:
.Lfunc_begin6:
	.loc	2 2503 0 is_stmt 1      @ ../Application/Dsiplay/Display.c:2503:0
	.fnstart
	.cfi_startproc
@ %bb.0:
	.save	{r4, r5, r6, r7, r8, lr}
	push.w	{r4, r5, r6, r7, r8, lr}
	.cfi_def_cfa_offset 24
	.cfi_offset lr, -4
	.cfi_offset r8, -8
	.cfi_offset r7, -12
	.cfi_offset r6, -16
	.cfi_offset r5, -20
	.cfi_offset r4, -24
.Ltmp529:
	.loc	2 2507 5 prologue_end   @ ../Application/Dsiplay/Display.c:2507:5
	movw	r7, :lower16:eActivDisplay
	movt	r7, :upper16:eActivDisplay
	ldrb	r0, [r7]
.Ltmp530:
	.loc	2 2507 5 is_stmt 0      @ ../Application/Dsiplay/Display.c:2507:5
	cmp	r0, #0
	bne.w	.LBB6_8
@ %bb.1:
	.loc	2 2509 2 is_stmt 1      @ ../Application/Dsiplay/Display.c:2509:2
	movw	r6, :lower16:RTC_Time
	movs	r0, #1
	movt	r6, :upper16:RTC_Time
	mov	r1, r6
	bl	RTC_GetTime
.Ltmp531:
	.loc	2 2511 6                @ ../Application/Dsiplay/Display.c:2511:6
	movw	r1, :lower16:UpdateDateTime.old_min
	.loc	2 0 0 is_stmt 0         @ ../Application/Dsiplay/Display.c:0:0
	movw	r2, :lower16:display_flags
	.loc	2 2511 26               @ ../Application/Dsiplay/Display.c:2511:26
	ldrb	r0, [r6, #1]
	.loc	2 2511 6                @ ../Application/Dsiplay/Display.c:2511:6
	movt	r1, :upper16:UpdateDateTime.old_min
	.loc	2 0 0                   @ ../Application/Dsiplay/Display.c:0:0
	movt	r2, :upper16:display_flags
	.loc	2 2511 6                @ ../Application/Dsiplay/Display.c:2511:6
	ldrb	r5, [r1]
	.loc	2 0 0                   @ ../Application/Dsiplay/Display.c:0:0
	ldr	r3, [r2]
	.loc	2 2511 39               @ ../Application/Dsiplay/Display.c:2511:39
	cmp	r5, r0
	.loc	2 0 0                   @ ../Application/Dsiplay/Display.c:0:0
	it	eq
	andseq	r5, r3, #256
	beq	.LBB6_8
@ %bb.2:
.Ltmp532:
	.loc	2 2516 3 is_stmt 1      @ ../Application/Dsiplay/Display.c:2516:3
	movw	r8, :lower16:RTC_Date
	.loc	2 2514 11               @ ../Application/Dsiplay/Display.c:2514:11
	strb	r0, [r1]
	.loc	2 2513 3                @ ../Application/Dsiplay/Display.c:2513:3
	bic	r0, r3, #256
	.loc	2 2516 3                @ ../Application/Dsiplay/Display.c:2516:3
	movt	r8, :upper16:RTC_Date
	.loc	2 2513 3                @ ../Application/Dsiplay/Display.c:2513:3
	str	r0, [r2]
	.loc	2 2516 3                @ ../Application/Dsiplay/Display.c:2516:3
	movs	r0, #1
	mov	r1, r8
	bl	RTC_GetDate
	.loc	2 2518 3                @ ../Application/Dsiplay/Display.c:2518:3
	movs	r0, #5
	movs	r1, #65
	movs	r2, #115
	movs	r3, #190
	bl	GUI_ClearRect
	.loc	2 2519 3                @ ../Application/Dsiplay/Display.c:2519:3
	mov.w	r0, #1644167168
	bl	GUI_SetColor
	.loc	2 2520 3                @ ../Application/Dsiplay/Display.c:2520:3
	movs	r0, #5
	movs	r1, #65
	movs	r2, #115
	movs	r3, #190
	bl	GUI_FillRect
	.loc	2 2522 3                @ ../Application/Dsiplay/Display.c:2522:3
	movs	r0, #2
	bl	GUI_SetTextMode
	.loc	2 2524 11               @ ../Application/Dsiplay/Display.c:2524:11
	movw	r5, :lower16:string
	movw	r0, :lower16:pString
	movs	r1, #0
	movt	r5, :upper16:string
	movt	r0, :upper16:pString
	add.w	r2, r5, #84
	mov	r3, r5
	str	r5, [r0]
	.p2align	2
.LBB6_3:                                @ =>This Inner Loop Header: Depth=1
	.loc	2 2525 52               @ ../Application/Dsiplay/Display.c:2525:52
	adds	r4, r3, #1
	str	r4, [r0]
	.loc	2 2525 55 is_stmt 0     @ ../Application/Dsiplay/Display.c:2525:55
	strb	r1, [r3]
	.loc	2 2525 9                @ ../Application/Dsiplay/Display.c:2525:9
	ldr	r3, [r0]
	.loc	2 2525 3                @ ../Application/Dsiplay/Display.c:2525:3
	cmp	r3, r2
	blo	.LBB6_3
@ %bb.4:
.Ltmp533:
	@DEBUG_VALUE: UpdateDateTime:x <- 1
	.loc	2 0 3                   @ ../Application/Dsiplay/Display.c:0:3
	movs	r0, #58
.Ltmp534:
	@DEBUG_VALUE: UpdateDateTime:x <- 3
	.loc	2 2530 27 is_stmt 1     @ ../Application/Dsiplay/Display.c:2530:27
	ldrb	r1, [r6, #1]
	.loc	2 2529 15               @ ../Application/Dsiplay/Display.c:2529:15
	strb	r0, [r5, #2]
	movs	r0, #0
.Ltmp535:
	@DEBUG_VALUE: UpdateDateTime:x <- [DW_OP_plus_uconst 1, DW_OP_stack_value] 5
	.loc	2 2532 15               @ ../Application/Dsiplay/Display.c:2532:15
	strb	r0, [r5, #5]
	.loc	2 2527 27               @ ../Application/Dsiplay/Display.c:2527:27
	ldrb	r0, [r6]
	movs	r6, #3
	.loc	2 2527 37 is_stmt 0     @ ../Application/Dsiplay/Display.c:2527:37
	lsrs	r2, r0, #4
	.loc	2 2528 45 is_stmt 1     @ ../Application/Dsiplay/Display.c:2528:45
	bfi	r0, r6, #4, #28
.Ltmp536:
	@DEBUG_VALUE: UpdateDateTime:x <- 2
	.loc	2 2528 15 is_stmt 0     @ ../Application/Dsiplay/Display.c:2528:15
	strb	r0, [r5, #1]
	.loc	2 2530 39 is_stmt 1     @ ../Application/Dsiplay/Display.c:2530:39
	lsrs	r0, r1, #4
	.loc	2 2531 47               @ ../Application/Dsiplay/Display.c:2531:47
	bfi	r1, r6, #4, #28
.Ltmp537:
	@DEBUG_VALUE: UpdateDateTime:x <- 5
	.loc	2 2531 15 is_stmt 0     @ ../Application/Dsiplay/Display.c:2531:15
	strb	r1, [r5, #4]
	.loc	2 2527 43 is_stmt 1     @ ../Application/Dsiplay/Display.c:2527:43
	add.w	r1, r2, #48
	.loc	2 2530 45               @ ../Application/Dsiplay/Display.c:2530:45
	adds	r0, #48
.Ltmp538:
	@DEBUG_VALUE: UpdateDateTime:x <- 4
	.loc	2 2527 15               @ ../Application/Dsiplay/Display.c:2527:15
	strb	r1, [r5]
	.loc	2 2530 15               @ ../Application/Dsiplay/Display.c:2530:15
	strb	r0, [r5, #3]
	.loc	2 2533 3                @ ../Application/Dsiplay/Display.c:2533:3
	movs	r0, #60
	movs	r1, #75
	bl	GUI_GotoXY
	.loc	2 2534 3                @ ../Application/Dsiplay/Display.c:2534:3
	movs	r0, #255
	bl	GUI_SetColor
	.loc	2 2535 3                @ ../Application/Dsiplay/Display.c:2535:3
	movw	r0, :lower16:GUI_Font32B_1
	movt	r0, :upper16:GUI_Font32B_1
	bl	GUI_SetFont
	.loc	2 2536 3                @ ../Application/Dsiplay/Display.c:2536:3
	movs	r0, #2
	bl	GUI_SetTextAlign
	.loc	2 2537 3                @ ../Application/Dsiplay/Display.c:2537:3
	mov	r0, r5
	bl	GUI_DispString
	.loc	2 2538 3                @ ../Application/Dsiplay/Display.c:2538:3
	mov	r0, r5
	movs	r1, #84
	bl	ClearBuffer
.Ltmp539:
	@DEBUG_VALUE: UpdateDateTime:x <- 0
	.loc	2 2540 15               @ ../Application/Dsiplay/Display.c:2540:15
	ldrb.w	r0, [r8]
.Ltmp540:
	.loc	2 2540 6 is_stmt 0      @ ../Application/Dsiplay/Display.c:2540:6
	subs	r0, #1
	cmp	r0, #6
	bhi	.LBB6_17
@ %bb.5:
	.loc	2 0 6                   @ ../Application/Dsiplay/Display.c:0:6
.LCPI6_8:
	tbb	[pc, r0]
@ %bb.6:
.LJTI6_0:
	.byte	(.LBB6_7-(.LCPI6_8+4))/2
	.byte	(.LBB6_9-(.LCPI6_8+4))/2
	.byte	(.LBB6_10-(.LCPI6_8+4))/2
	.byte	(.LBB6_11-(.LCPI6_8+4))/2
	.byte	(.LBB6_12-(.LCPI6_8+4))/2
	.byte	(.LBB6_13-(.LCPI6_8+4))/2
	.byte	(.LBB6_15-(.LCPI6_8+4))/2
	.p2align	1
.LBB6_7:
.Ltmp541:
	.loc	2 2540 36               @ ../Application/Dsiplay/Display.c:2540:36
	ldr	r0, .LCPI6_6
	adr	r1, .LCPI6_6
	b	.LBB6_16
.Ltmp542:
.LBB6_8:
	.loc	2 2591 1 is_stmt 1      @ ../Application/Dsiplay/Display.c:2591:1
	pop.w	{r4, r5, r6, r7, r8, pc}
.LBB6_9:
.Ltmp543:
	.loc	2 2541 41               @ ../Application/Dsiplay/Display.c:2541:41
	movw	r0, :lower16:string
	adr	r1, .LCPI6_5
	b	.LBB6_14
.LBB6_10:
.Ltmp544:
	.loc	2 2542 41               @ ../Application/Dsiplay/Display.c:2542:41
	ldr	r0, .LCPI6_4
	adr	r1, .LCPI6_4
	b	.LBB6_16
.LBB6_11:
.Ltmp545:
	.loc	2 2543 41               @ ../Application/Dsiplay/Display.c:2543:41
	ldr	r0, .LCPI6_3
	adr	r1, .LCPI6_3
	b	.LBB6_16
.LBB6_12:
.Ltmp546:
	.loc	2 2544 41               @ ../Application/Dsiplay/Display.c:2544:41
	movw	r0, :lower16:string
	adr	r1, .LCPI6_2
	b	.LBB6_14
.LBB6_13:
.Ltmp547:
	.loc	2 2545 41               @ ../Application/Dsiplay/Display.c:2545:41
	movw	r0, :lower16:string
	adr	r1, .LCPI6_1
.Ltmp548:
.LBB6_14:
	.loc	2 0 0 is_stmt 0         @ ../Application/Dsiplay/Display.c:0:0
	movt	r0, :upper16:string
	movs	r2, #11
	bl	__aeabi_memcpy
	b	.LBB6_17
.LBB6_15:
.Ltmp549:
	.loc	2 2546 41 is_stmt 1     @ ../Application/Dsiplay/Display.c:2546:41
	ldr	r0, .LCPI6_0
	adr	r1, .LCPI6_0
.Ltmp550:
.LBB6_16:
	.loc	2 0 0 is_stmt 0         @ ../Application/Dsiplay/Display.c:0:0
	ldr	r2, [r1, #4]
	strd	r0, r2, [r5]
	ldrb	r0, [r1, #10]
	strb	r0, [r5, #10]
	ldrh	r0, [r1, #8]
	strh	r0, [r5, #8]
.Ltmp551:
.LBB6_17:
	.loc	2 2547 3 is_stmt 1      @ ../Application/Dsiplay/Display.c:2547:3
	movs	r0, #60
	movs	r1, #110
	bl	GUI_GotoXY
	.loc	2 2548 3                @ ../Application/Dsiplay/Display.c:2548:3
	mvn	r0, #-16777216
	bl	GUI_SetColor
	.loc	2 2549 3                @ ../Application/Dsiplay/Display.c:2549:3
	movw	r0, :lower16:GUI_Font24_1
	movt	r0, :upper16:GUI_Font24_1
	bl	GUI_SetFont
	.loc	2 2550 3                @ ../Application/Dsiplay/Display.c:2550:3
	movs	r0, #2
	bl	GUI_SetTextAlign
	.loc	2 2551 3                @ ../Application/Dsiplay/Display.c:2551:3
	mov	r0, r5
	bl	GUI_DispString
	.loc	2 2552 3                @ ../Application/Dsiplay/Display.c:2552:3
	mov	r0, r5
	movs	r1, #84
	bl	ClearBuffer
	movs	r0, #46
.Ltmp552:
	@DEBUG_VALUE: UpdateDateTime:x <- 3
	.loc	2 2554 27               @ ../Application/Dsiplay/Display.c:2554:27
	ldrb.w	r1, [r8, #2]
	.loc	2 2556 15               @ ../Application/Dsiplay/Display.c:2556:15
	strb	r0, [r5, #2]
.Ltmp553:
	@DEBUG_VALUE: UpdateDateTime:x <- 0
	.loc	2 2557 15               @ ../Application/Dsiplay/Display.c:2557:15
	ldrb.w	r0, [r8, #1]
.Ltmp554:
	.loc	2 2554 36               @ ../Application/Dsiplay/Display.c:2554:36
	lsrs	r2, r1, #4
	.loc	2 2555 44               @ ../Application/Dsiplay/Display.c:2555:44
	bfi	r1, r6, #4, #28
.Ltmp555:
	@DEBUG_VALUE: UpdateDateTime:x <- 2
	.loc	2 2557 6                @ ../Application/Dsiplay/Display.c:2557:6
	subs	r0, #1
	.loc	2 2555 15               @ ../Application/Dsiplay/Display.c:2555:15
	strb	r1, [r5, #1]
	.loc	2 2554 42               @ ../Application/Dsiplay/Display.c:2554:42
	add.w	r1, r2, #48
.Ltmp556:
	@DEBUG_VALUE: UpdateDateTime:x <- 1
	.loc	2 2557 6                @ ../Application/Dsiplay/Display.c:2557:6
	cmp	r0, #17
	.loc	2 2554 15               @ ../Application/Dsiplay/Display.c:2554:15
	strb	r1, [r5]
	.loc	2 2557 6                @ ../Application/Dsiplay/Display.c:2557:6
	bhi.w	.LBB6_33
@ %bb.18:
	.loc	2 0 6 is_stmt 0         @ ../Application/Dsiplay/Display.c:0:6
.LCPI6_9:
	tbb	[pc, r0]
@ %bb.19:
.LJTI6_1:
	.byte	(.LBB6_20-(.LCPI6_9+4))/2
	.byte	(.LBB6_21-(.LCPI6_9+4))/2
	.byte	(.LBB6_22-(.LCPI6_9+4))/2
	.byte	(.LBB6_23-(.LCPI6_9+4))/2
	.byte	(.LBB6_24-(.LCPI6_9+4))/2
	.byte	(.LBB6_25-(.LCPI6_9+4))/2
	.byte	(.LBB6_26-(.LCPI6_9+4))/2
	.byte	(.LBB6_27-(.LCPI6_9+4))/2
	.byte	(.LBB6_28-(.LCPI6_9+4))/2
	.byte	(.LBB6_33-(.LCPI6_9+4))/2
	.byte	(.LBB6_33-(.LCPI6_9+4))/2
	.byte	(.LBB6_33-(.LCPI6_9+4))/2
	.byte	(.LBB6_33-(.LCPI6_9+4))/2
	.byte	(.LBB6_33-(.LCPI6_9+4))/2
	.byte	(.LBB6_33-(.LCPI6_9+4))/2
	.byte	(.LBB6_29-(.LCPI6_9+4))/2
	.byte	(.LBB6_30-(.LCPI6_9+4))/2
	.byte	(.LBB6_31-(.LCPI6_9+4))/2
	.p2align	1
.LBB6_20:
	movw	r0, #24949
	movt	r0, #114
.Ltmp557:
	.loc	2 2557 34               @ ../Application/Dsiplay/Display.c:2557:34
	str.w	r0, [r5, #6]
	movw	r0, #24906
	movt	r0, #30062
	b	.LBB6_32
.LBB6_21:
	.loc	2 0 34                  @ ../Application/Dsiplay/Display.c:0:34
	movw	r0, #24949
	movt	r0, #114
.Ltmp558:
	.loc	2 2558 39 is_stmt 1     @ ../Application/Dsiplay/Display.c:2558:39
	str.w	r0, [r5, #7]
	movw	r0, #25926
	movt	r0, #29282
	b	.LBB6_32
.LBB6_22:
	.loc	2 0 39 is_stmt 0        @ ../Application/Dsiplay/Display.c:0:39
	movs	r0, #0
.Ltmp559:
	.loc	2 2559 39 is_stmt 1     @ ../Application/Dsiplay/Display.c:2559:39
	strb	r0, [r5, #7]
	movw	r0, #24909
	movt	r0, #29810
	b	.LBB6_32
.LBB6_23:
	.loc	2 0 39 is_stmt 0        @ ../Application/Dsiplay/Display.c:0:39
	movs	r0, #108
.Ltmp560:
	.loc	2 2560 39 is_stmt 1     @ ../Application/Dsiplay/Display.c:2560:39
	strb	r0, [r5, #7]
	movw	r0, #28737
	movt	r0, #26994
	b	.LBB6_32
.LBB6_24:
	.loc	2 0 39 is_stmt 0        @ ../Application/Dsiplay/Display.c:0:39
	movs	r0, #106
.Ltmp561:
	.loc	2 2561 39 is_stmt 1     @ ../Application/Dsiplay/Display.c:2561:39
	strb	r0, [r5, #5]
	movw	r0, #24909
	strh.w	r0, [r5, #3]
	b	.LBB6_33
.LBB6_25:
	.loc	2 0 39 is_stmt 0        @ ../Application/Dsiplay/Display.c:0:39
	movw	r0, #30026
	movt	r0, #26988
.Ltmp562:
	.loc	2 2562 39 is_stmt 1     @ ../Application/Dsiplay/Display.c:2562:39
	add.w	r0, r0, #131072
	b	.LBB6_32
.LBB6_26:
	.loc	2 0 39 is_stmt 0        @ ../Application/Dsiplay/Display.c:0:39
	movw	r0, #30026
	movt	r0, #26988
	b	.LBB6_32
.LBB6_27:
	movw	r0, #29811
.Ltmp563:
	.loc	2 2564 39 is_stmt 1     @ ../Application/Dsiplay/Display.c:2564:39
	strh.w	r0, [r5, #7]
	movw	r0, #30017
	movt	r0, #30055
	b	.LBB6_32
.LBB6_28:
.Ltmp564:
	.loc	2 2565 39               @ ../Application/Dsiplay/Display.c:2565:39
	adds	r0, r5, #3
	adr	r1, .LCPI6_7
	movs	r2, #9
	bl	__aeabi_memcpy
	b	.LBB6_33
.LBB6_29:
	.loc	2 0 39 is_stmt 0        @ ../Application/Dsiplay/Display.c:0:39
	movw	r0, #25199
	movt	r0, #29281
.Ltmp565:
	.loc	2 2566 39 is_stmt 1     @ ../Application/Dsiplay/Display.c:2566:39
	str.w	r0, [r5, #6]
	movw	r0, #27471
	movt	r0, #28532
	b	.LBB6_32
.LBB6_30:
	.loc	2 0 39 is_stmt 0        @ ../Application/Dsiplay/Display.c:0:39
	movw	r0, #25197
	movt	r0, #29281
.Ltmp566:
	.loc	2 2567 39 is_stmt 1     @ ../Application/Dsiplay/Display.c:2567:39
	str.w	r0, [r5, #7]
	movw	r0, #28494
	movt	r0, #25974
	b	.LBB6_32
.LBB6_31:
	.loc	2 0 39 is_stmt 0        @ ../Application/Dsiplay/Display.c:0:39
	movw	r0, #25197
	movt	r0, #29281
.Ltmp567:
	.loc	2 2568 39 is_stmt 1     @ ../Application/Dsiplay/Display.c:2568:39
	str.w	r0, [r5, #7]
	movw	r0, #25924
	movt	r0, #25955
.Ltmp568:
.LBB6_32:
	.loc	2 0 0 is_stmt 0         @ ../Application/Dsiplay/Display.c:0:0
	str.w	r0, [r5, #3]
.Ltmp569:
.LBB6_33:
	movs	r0, #1
	.p2align	2
.LBB6_34:                               @ =>This Inner Loop Header: Depth=1
.Ltmp570:
	@DEBUG_VALUE: UpdateDateTime:x <- $r0
	uxtb	r1, r0
	.loc	2 2570 29 is_stmt 1     @ ../Application/Dsiplay/Display.c:2570:29
	adds	r0, #1
.Ltmp571:
	@DEBUG_VALUE: UpdateDateTime:x <- $r0
	.loc	2 2570 9 is_stmt 0      @ ../Application/Dsiplay/Display.c:2570:9
	ldrb	r2, [r5, r1]
	.loc	2 2570 3                @ ../Application/Dsiplay/Display.c:2570:3
	cmp	r2, #0
	bne	.LBB6_34
.Ltmp572:
@ %bb.35:
	@DEBUG_VALUE: UpdateDateTime:x <- $r0
	.loc	2 2571 6 is_stmt 1      @ ../Application/Dsiplay/Display.c:2571:6
	cmp	r1, #11
.Ltmp573:
	.loc	2 2572 8                @ ../Application/Dsiplay/Display.c:2572:8
	ittee	lo
	movwlo	r0, :lower16:GUI_Font20B_1
.Ltmp574:
	movtlo	r0, :upper16:GUI_Font20B_1
	.loc	2 2571 13               @ ../Application/Dsiplay/Display.c:2571:13
	movwhs	r0, :lower16:GUI_Font16B_1
	movths	r0, :upper16:GUI_Font16B_1
	.loc	2 0 0 is_stmt 0         @ ../Application/Dsiplay/Display.c:0:0
	bl	GUI_SetFont
.Ltmp575:
	.loc	2 2573 3 is_stmt 1      @ ../Application/Dsiplay/Display.c:2573:3
	movs	r0, #255
	bl	GUI_SetColor
	.loc	2 2574 3                @ ../Application/Dsiplay/Display.c:2574:3
	movs	r0, #60
	movs	r1, #140
	bl	GUI_GotoXY
	.loc	2 2575 3                @ ../Application/Dsiplay/Display.c:2575:3
	movs	r0, #2
	bl	GUI_SetTextAlign
	.loc	2 2576 3                @ ../Application/Dsiplay/Display.c:2576:3
	movw	r5, :lower16:string
	movt	r5, :upper16:string
	mov	r0, r5
	bl	GUI_DispString
	.loc	2 2577 3                @ ../Application/Dsiplay/Display.c:2577:3
	mov	r0, r5
	movs	r1, #84
	bl	ClearBuffer
.Ltmp576:
	@DEBUG_VALUE: UpdateDateTime:x <- 0
	.loc	2 2579 6                @ ../Application/Dsiplay/Display.c:2579:6
	ldrb	r0, [r7]
.Ltmp577:
	.loc	2 2579 6 is_stmt 0      @ ../Application/Dsiplay/Display.c:2579:6
	cbz	r0, .LBB6_37
@ %bb.36:
	.loc	2 0 6                   @ ../Application/Dsiplay/Display.c:0:6
	movs	r0, #0
	b	.LBB6_38
.LBB6_37:
.Ltmp578:
	@DEBUG_VALUE: UpdateDateTime:x <- 1
	movs	r0, #32
.Ltmp579:
	.loc	2 2579 52               @ ../Application/Dsiplay/Display.c:2579:52
	strb	r0, [r5]
	movs	r0, #1
.Ltmp580:
.LBB6_38:
	@DEBUG_VALUE: UpdateDateTime:x <- undef
	.loc	2 0 52                  @ ../Application/Dsiplay/Display.c:0:52
	movw	r1, #12338
	.loc	2 2580 15 is_stmt 1     @ ../Application/Dsiplay/Display.c:2580:15
	strh	r1, [r5, r0]
	.loc	2 2582 27               @ ../Application/Dsiplay/Display.c:2582:27
	ldrb.w	r1, [r8, #3]
	.loc	2 2581 11               @ ../Application/Dsiplay/Display.c:2581:11
	adds	r0, #2
.Ltmp581:
	@DEBUG_VALUE: UpdateDateTime:x <- $r0
	.loc	2 2582 36               @ ../Application/Dsiplay/Display.c:2582:36
	lsrs	r2, r1, #4
	.loc	2 2582 42 is_stmt 0     @ ../Application/Dsiplay/Display.c:2582:42
	adds	r2, #48
	.loc	2 2582 15               @ ../Application/Dsiplay/Display.c:2582:15
	strb	r2, [r5, r0]
.Ltmp582:
	@DEBUG_VALUE: UpdateDateTime:x <- [DW_OP_plus_uconst 1, DW_OP_stack_value] undef
	@DEBUG_VALUE: UpdateDateTime:x <- undef
	.loc	2 0 15                  @ ../Application/Dsiplay/Display.c:0:15
	movs	r2, #3
	.loc	2 2580 3 is_stmt 1      @ ../Application/Dsiplay/Display.c:2580:3
	add	r0, r5
	.loc	2 2583 44               @ ../Application/Dsiplay/Display.c:2583:44
	bfi	r1, r2, #4, #28
	.loc	2 2583 15 is_stmt 0     @ ../Application/Dsiplay/Display.c:2583:15
	strb	r1, [r0, #1]
	.loc	2 2584 3 is_stmt 1      @ ../Application/Dsiplay/Display.c:2584:3
	movw	r0, :lower16:GUI_Font20B_1
	movt	r0, :upper16:GUI_Font20B_1
	bl	GUI_SetFont
	.loc	2 2585 3                @ ../Application/Dsiplay/Display.c:2585:3
	mvn	r0, #-16777216
	bl	GUI_SetColor
	.loc	2 2586 3                @ ../Application/Dsiplay/Display.c:2586:3
	movs	r0, #60
	movs	r1, #165
	bl	GUI_GotoXY
	.loc	2 2587 3                @ ../Application/Dsiplay/Display.c:2587:3
	movs	r0, #2
	bl	GUI_SetTextAlign
	.loc	2 2588 3                @ ../Application/Dsiplay/Display.c:2588:3
	mov	r0, r5
	bl	GUI_DispString
	.loc	2 2589 3                @ ../Application/Dsiplay/Display.c:2589:3
	pop.w	{r4, r5, r6, r7, r8, lr}
	b	GUI_Exec
.Ltmp583:
	.p2align	2
@ %bb.39:
	.loc	2 0 3 is_stmt 0         @ ../Application/Dsiplay/Display.c:0:3
.LCPI6_0:
.L.str.136:
	.asciz	"Nedelja"
.LCPI6_1:
.L.str.135:
	.asciz	"Subota\000"
.LCPI6_2:
.L.str.134:
	.asciz	"Petak\000\000"
.LCPI6_3:
.L.str.133:
	.asciz	"Cetvrtak\000\000\000"
.LCPI6_4:
.L.str.132:
	.asciz	"Srijeda"
.LCPI6_5:
.L.str.131:
	.asciz	"Utorak\000"
.LCPI6_6:
.L.str.130:
	.asciz	"Ponedjeljak"
.LCPI6_7:
.L.str.145:
	.asciz	"Septembar\000\000"
.Lfunc_end6:
	.size	UpdateDateTime, .Lfunc_end6-UpdateDateTime
	.cfi_endproc
	.cantunwind
	.fnend
                                        @ -- End function
	.section	.text.CreateToolsDisplay,"ax",%progbits
	.hidden	CreateToolsDisplay      @ -- Begin function CreateToolsDisplay
	.globl	CreateToolsDisplay
	.p2align	2
	.type	CreateToolsDisplay,%function
	.code	16                      @ @CreateToolsDisplay
	.thumb_func
CreateToolsDisplay:
.Lfunc_begin7:
	.loc	2 1415 0 is_stmt 1      @ ../Application/Dsiplay/Display.c:1415:0
	.fnstart
	.cfi_startproc
@ %bb.0:
	.save	{r4, r5, r6, lr}
	push	{r4, r5, r6, lr}
	.cfi_def_cfa_offset 16
	.cfi_offset lr, -4
	.cfi_offset r6, -8
	.cfi_offset r5, -12
	.cfi_offset r4, -16
	.pad	#24
	sub	sp, #24
	.cfi_def_cfa_offset 40
.Ltmp584:
	.loc	2 1416 2 prologue_end   @ ../Application/Dsiplay/Display.c:1416:2
	movs	r0, #0
	movs	r4, #0
	bl	GUI_SetBkColor
	.loc	2 1417 2                @ ../Application/Dsiplay/Display.c:1417:2
	bl	GUI_Clear
	.loc	2 1418 2                @ ../Application/Dsiplay/Display.c:1418:2
	mvn	r0, #-16777216
	bl	GUI_SetColor
	movs	r5, #2
	movw	r0, #2069
	.loc	2 1420 25               @ ../Application/Dsiplay/Display.c:1420:25
	movs	r1, #10
	movs	r2, #60
	movs	r3, #60
	movs	r6, #10
	strd	r0, r5, [sp]
	movs	r0, #190
	bl	BUTTON_Create
	.loc	2 1420 23 is_stmt 0     @ ../Application/Dsiplay/Display.c:1420:23
	movw	r1, :lower16:hBUTTON_ToolFileList
	movt	r1, :upper16:hBUTTON_ToolFileList
	str	r0, [r1]
	.loc	2 1421 2 is_stmt 1      @ ../Application/Dsiplay/Display.c:1421:2
	adr	r1, .LCPI7_0
	bl	BUTTON_SetText
	movw	r0, #2067
	.loc	2 1422 25               @ ../Application/Dsiplay/Display.c:1422:25
	movs	r1, #10
	movs	r2, #60
	movs	r3, #60
	strd	r0, r5, [sp]
	mov.w	r0, #300
	bl	BUTTON_Create
	.loc	2 1422 23 is_stmt 0     @ ../Application/Dsiplay/Display.c:1422:23
	movw	r1, :lower16:hBUTTON_ToolUpdateFW
	movt	r1, :upper16:hBUTTON_ToolUpdateFW
	str	r0, [r1]
	.loc	2 1423 2 is_stmt 1      @ ../Application/Dsiplay/Display.c:1423:2
	adr	r1, .LCPI7_1
	bl	BUTTON_SetText
	movw	r0, #2071
	.loc	2 1424 25               @ ../Application/Dsiplay/Display.c:1424:25
	movs	r1, #10
	movs	r2, #60
	movs	r3, #60
	strd	r0, r5, [sp]
	mov.w	r0, #410
	bl	BUTTON_Create
	.loc	2 1424 23 is_stmt 0     @ ../Application/Dsiplay/Display.c:1424:23
	movw	r1, :lower16:hBUTTON_ToolLoadList
	movt	r1, :upper16:hBUTTON_ToolLoadList
	str	r0, [r1]
	.loc	2 1425 2 is_stmt 1      @ ../Application/Dsiplay/Display.c:1425:2
	adr	r1, .LCPI7_2
	bl	BUTTON_SetText
	mov.w	r0, #2064
	.loc	2 1427 26               @ ../Application/Dsiplay/Display.c:1427:26
	movs	r1, #85
	movs	r2, #60
	movs	r3, #60
	strd	r0, r5, [sp]
	movs	r0, #190
	bl	BUTTON_Create
	.loc	2 1427 24 is_stmt 0     @ ../Application/Dsiplay/Display.c:1427:24
	movw	r1, :lower16:hBUTTON_ToolScanRS485
	movt	r1, :upper16:hBUTTON_ToolScanRS485
	str	r0, [r1]
	.loc	2 1428 2 is_stmt 1      @ ../Application/Dsiplay/Display.c:1428:2
	adr	r1, .LCPI7_3
	bl	BUTTON_SetText
	movw	r0, #2065
	.loc	2 1429 28               @ ../Application/Dsiplay/Display.c:1429:28
	movs	r1, #85
	movs	r2, #60
	movs	r3, #60
	strd	r0, r5, [sp]
	mov.w	r0, #300
	bl	BUTTON_Create
	.loc	2 1429 26 is_stmt 0     @ ../Application/Dsiplay/Display.c:1429:26
	movw	r1, :lower16:hBUTTON_ToolUploadImage
	movt	r1, :upper16:hBUTTON_ToolUploadImage
	str	r0, [r1]
	.loc	2 1430 2 is_stmt 1      @ ../Application/Dsiplay/Display.c:1430:2
	adr	r1, .LCPI7_4
	bl	BUTTON_SetText
	movw	r0, #2066
	.loc	2 1431 31               @ ../Application/Dsiplay/Display.c:1431:31
	movs	r1, #85
	movs	r2, #60
	movs	r3, #60
	strd	r0, r5, [sp]
	mov.w	r0, #410
	bl	BUTTON_Create
	.loc	2 1431 29 is_stmt 0     @ ../Application/Dsiplay/Display.c:1431:29
	movw	r1, :lower16:hBUTTON_ToolUploadFirmware
	movt	r1, :upper16:hBUTTON_ToolUploadFirmware
	str	r0, [r1]
	.loc	2 1432 2 is_stmt 1      @ ../Application/Dsiplay/Display.c:1432:2
	adr	r1, .LCPI7_5
	bl	BUTTON_SetText
	movw	r0, #2070
	.loc	2 1434 27               @ ../Application/Dsiplay/Display.c:1434:27
	movs	r1, #160
	movs	r2, #60
	movs	r3, #60
	strd	r0, r5, [sp]
	mov.w	r0, #300
	bl	BUTTON_Create
	.loc	2 1434 25 is_stmt 0     @ ../Application/Dsiplay/Display.c:1434:25
	movw	r1, :lower16:hBUTTON_ToolFormatCard
	movt	r1, :upper16:hBUTTON_ToolFormatCard
	str	r0, [r1]
	.loc	2 1435 2 is_stmt 1      @ ../Application/Dsiplay/Display.c:1435:2
	adr	r1, .LCPI7_6
	bl	BUTTON_SetText
	movw	r0, #2068
	.loc	2 1436 35               @ ../Application/Dsiplay/Display.c:1436:35
	movs	r1, #160
	movs	r2, #60
	movs	r3, #60
	strd	r0, r5, [sp]
	mov.w	r0, #410
	bl	BUTTON_Create
	.loc	2 1436 33 is_stmt 0     @ ../Application/Dsiplay/Display.c:1436:33
	movw	r1, :lower16:hBUTTON_ToolDisplayCalibration
	movt	r1, :upper16:hBUTTON_ToolDisplayCalibration
	str	r0, [r1]
	.loc	2 1437 2 is_stmt 1      @ ../Application/Dsiplay/Display.c:1437:2
	adr	r1, .LCPI7_7
	bl	BUTTON_SetText
	.loc	2 1439 2                @ ../Application/Dsiplay/Display.c:1439:2
	adr	r0, .LCPI7_8
	movs	r1, #190
	movs	r2, #160
	bl	GUI_DispStringAt
	movw	r0, #65500
	movw	r1, #2564
	.loc	2 1440 24               @ ../Application/Dsiplay/Display.c:1440:24
	strd	r4, r5, [sp]
	movs	r2, #80
	movs	r3, #40
	strd	r1, r6, [sp, #8]
	str	r0, [sp, #16]
	movs	r0, #190
	movs	r1, #180
	bl	SPINBOX_CreateEx
	.loc	2 1440 22 is_stmt 0     @ ../Application/Dsiplay/Display.c:1440:22
	movw	r6, :lower16:hSPINBOX_SetAddress
	.loc	2 1441 2 is_stmt 1      @ ../Application/Dsiplay/Display.c:1441:2
	movs	r1, #100
	.loc	2 1440 22               @ ../Application/Dsiplay/Display.c:1440:22
	movt	r6, :upper16:hSPINBOX_SetAddress
	str	r0, [r6]
	.loc	2 1441 2                @ ../Application/Dsiplay/Display.c:1441:2
	bl	SPINBOX_SetValue
	.loc	2 1442 18               @ ../Application/Dsiplay/Display.c:1442:18
	ldr	r0, [r6]
	.loc	2 1442 2 is_stmt 0      @ ../Application/Dsiplay/Display.c:1442:2
	movs	r1, #2
	bl	SPINBOX_SetEdge
	movw	r0, #2072
	.loc	2 1444 21 is_stmt 1     @ ../Application/Dsiplay/Display.c:1444:21
	movs	r1, #240
	movs	r2, #80
	movs	r3, #30
	strd	r0, r5, [sp]
	mov.w	r0, #390
	bl	BUTTON_Create
	.loc	2 1444 19 is_stmt 0     @ ../Application/Dsiplay/Display.c:1444:19
	movw	r1, :lower16:hBUTTON_ToolExit
	movt	r1, :upper16:hBUTTON_ToolExit
	str	r0, [r1]
	.loc	2 1445 2 is_stmt 1      @ ../Application/Dsiplay/Display.c:1445:2
	movw	r1, :lower16:.L.str.27
	movt	r1, :upper16:.L.str.27
	bl	BUTTON_SetText
	mov.w	r0, #2976
	.loc	2 1447 10               @ ../Application/Dsiplay/Display.c:1447:10
	strd	r4, r5, [sp]
	movs	r1, #10
	movs	r2, #160
	mov.w	r3, #260
	strd	r4, r0, [sp, #8]
	movs	r0, #10
	bl	TREEVIEW_CreateEx
	.loc	2 1447 8 is_stmt 0      @ ../Application/Dsiplay/Display.c:1447:8
	movw	r4, :lower16:hTree
	.loc	2 1448 2 is_stmt 1      @ ../Application/Dsiplay/Display.c:1448:2
	movs	r1, #1
	movs	r5, #1
	.loc	2 1447 8                @ ../Application/Dsiplay/Display.c:1447:8
	movt	r4, :upper16:hTree
	str	r0, [r4]
	.loc	2 1448 2                @ ../Application/Dsiplay/Display.c:1448:2
	bl	TREEVIEW_SetAutoScrollV
	.loc	2 1449 22               @ ../Application/Dsiplay/Display.c:1449:22
	ldr	r0, [r4]
	.loc	2 1449 2 is_stmt 0      @ ../Application/Dsiplay/Display.c:1449:2
	movs	r1, #1
	bl	TREEVIEW_SetSelMode
	.loc	2 1450 16 is_stmt 1     @ ../Application/Dsiplay/Display.c:1450:16
	movw	r0, :lower16:eActivDisplay
	movt	r0, :upper16:eActivDisplay
	strb	r5, [r0]
	.loc	2 1451 1                @ ../Application/Dsiplay/Display.c:1451:1
	add	sp, #24
	pop	{r4, r5, r6, pc}
.Ltmp585:
	.p2align	2
@ %bb.1:
	.loc	2 0 1 is_stmt 0         @ ../Application/Dsiplay/Display.c:0:1
.LCPI7_0:
.L.str.18:
	.asciz	"uSD\nFILE LIST\000\000"
.LCPI7_1:
.L.str.19:
	.asciz	"UPDATE\nFW\000\000"
.LCPI7_2:
.L.str.20:
	.asciz	"LOAD\nCTRL LIST\000"
.LCPI7_3:
.L.str.21:
	.asciz	"BUS\nSCAN\000\000\000"
.LCPI7_4:
.L.str.22:
	.asciz	"IMAGE\nUPLOAD\000\000\000"
.LCPI7_5:
.L.str.23:
	.asciz	"FIRMW.\nUPLOAD\000\000"
.LCPI7_6:
.L.str.24:
	.asciz	"uSD\nFORMAT\000"
.LCPI7_7:
.L.str.25:
	.asciz	"DISPLAY\nCALIBR."
.LCPI7_8:
.L.str.26:
	.asciz	"CONTROLLER\000"
.Lfunc_end7:
	.size	CreateToolsDisplay, .Lfunc_end7-CreateToolsDisplay
	.cfi_endproc
	.cantunwind
	.fnend
                                        @ -- End function
	.section	.text.CreateSettingsMenuDisplay,"ax",%progbits
	.hidden	CreateSettingsMenuDisplay @ -- Begin function CreateSettingsMenuDisplay
	.globl	CreateSettingsMenuDisplay
	.p2align	2
	.type	CreateSettingsMenuDisplay,%function
	.code	16                      @ @CreateSettingsMenuDisplay
	.thumb_func
CreateSettingsMenuDisplay:
.Lfunc_begin8:
	.loc	2 1534 0 is_stmt 1      @ ../Application/Dsiplay/Display.c:1534:0
	.fnstart
	.cfi_startproc
@ %bb.0:
	.save	{r4, r5, r6, r7, lr}
	push	{r4, r5, r6, r7, lr}
	.cfi_def_cfa_offset 20
	.cfi_offset lr, -4
	.cfi_offset r7, -8
	.cfi_offset r6, -12
	.cfi_offset r5, -16
	.cfi_offset r4, -20
	.pad	#12
	sub	sp, #12
	.cfi_def_cfa_offset 32
.Ltmp586:
	.loc	2 1535 2 prologue_end   @ ../Application/Dsiplay/Display.c:1535:2
	movs	r0, #0
	movs	r6, #0
	bl	GUI_SetBkColor
	.loc	2 1536 2                @ ../Application/Dsiplay/Display.c:1536:2
	bl	GUI_Clear
	.loc	2 1537 2                @ ../Application/Dsiplay/Display.c:1537:2
	mov.w	r0, #65280
	bl	GUI_SetColor
	movs	r5, #2
	movw	r0, #2061
	.loc	2 1539 25               @ ../Application/Dsiplay/Display.c:1539:25
	movs	r1, #240
	movs	r2, #80
	movs	r3, #30
	strd	r0, r5, [sp]
	movs	r0, #10
	bl	BUTTON_Create
	.loc	2 1539 23 is_stmt 0     @ ../Application/Dsiplay/Display.c:1539:23
	movw	r4, :lower16:hBUTTON_SettingsEdit
	.loc	2 1540 2 is_stmt 1      @ ../Application/Dsiplay/Display.c:1540:2
	movw	r1, :lower16:.L.str.41
	.loc	2 1539 23               @ ../Application/Dsiplay/Display.c:1539:23
	movt	r4, :upper16:hBUTTON_SettingsEdit
	.loc	2 1540 2                @ ../Application/Dsiplay/Display.c:1540:2
	movt	r1, :upper16:.L.str.41
	.loc	2 1539 23               @ ../Application/Dsiplay/Display.c:1539:23
	str	r0, [r4]
	.loc	2 1540 2                @ ../Application/Dsiplay/Display.c:1540:2
	bl	BUTTON_SetText
	.loc	2 1541 19               @ ../Application/Dsiplay/Display.c:1541:19
	ldr	r0, [r4]
	.loc	2 1541 2 is_stmt 0      @ ../Application/Dsiplay/Display.c:1541:2
	bl	WM_DisableWindow
	movw	r0, #2058
	.loc	2 1542 23 is_stmt 1     @ ../Application/Dsiplay/Display.c:1542:23
	movs	r1, #240
	movs	r2, #80
	movs	r3, #30
	strd	r0, r5, [sp]
	movs	r0, #133
	bl	BUTTON_Create
	.loc	2 1542 21 is_stmt 0     @ ../Application/Dsiplay/Display.c:1542:21
	movw	r1, :lower16:hBUTTON_SettingsOk
	movt	r1, :upper16:hBUTTON_SettingsOk
	str	r0, [r1]
	.loc	2 1543 2 is_stmt 1      @ ../Application/Dsiplay/Display.c:1543:2
	movw	r1, :lower16:.L.str.42
	movt	r1, :upper16:.L.str.42
	bl	BUTTON_SetText
	movw	r0, #2060
	.loc	2 1544 26               @ ../Application/Dsiplay/Display.c:1544:26
	movs	r1, #240
	movs	r2, #80
	movs	r3, #30
	strd	r0, r5, [sp]
	mov.w	r0, #260
	bl	BUTTON_Create
	.loc	2 1544 24 is_stmt 0     @ ../Application/Dsiplay/Display.c:1544:24
	movw	r1, :lower16:hBUTTON_SettingsApply
	movt	r1, :upper16:hBUTTON_SettingsApply
	str	r0, [r1]
	.loc	2 1545 2 is_stmt 1      @ ../Application/Dsiplay/Display.c:1545:2
	movw	r1, :lower16:.L.str.43
	movt	r1, :upper16:.L.str.43
	bl	BUTTON_SetText
	movw	r0, #2059
	.loc	2 1546 27               @ ../Application/Dsiplay/Display.c:1546:27
	movs	r1, #240
	movs	r2, #80
	movs	r3, #30
	strd	r0, r5, [sp]
	mov.w	r0, #390
	bl	BUTTON_Create
	.loc	2 1546 25 is_stmt 0     @ ../Application/Dsiplay/Display.c:1546:25
	movw	r1, :lower16:hBUTTON_SettingsCancel
	movt	r1, :upper16:hBUTTON_SettingsCancel
	str	r0, [r1]
	.loc	2 1547 2 is_stmt 1      @ ../Application/Dsiplay/Display.c:1547:2
	movw	r1, :lower16:.L.str.44
	movt	r1, :upper16:.L.str.44
	bl	BUTTON_SetText
	mov.w	r0, #2128
	.loc	2 1549 25               @ ../Application/Dsiplay/Display.c:1549:25
	movs	r1, #110
	movs	r2, #80
	movs	r3, #20
	strd	r6, r0, [sp]
	movs	r0, #10
	str	r5, [sp, #8]
	bl	CHECKBOX_Create
	.loc	2 1549 23 is_stmt 0     @ ../Application/Dsiplay/Display.c:1549:23
	movw	r4, :lower16:hCHECKBOX_EnableDHCP
	.loc	2 1550 2 is_stmt 1      @ ../Application/Dsiplay/Display.c:1550:2
	mov.w	r1, #65280
	.loc	2 1549 23               @ ../Application/Dsiplay/Display.c:1549:23
	movt	r4, :upper16:hCHECKBOX_EnableDHCP
	str	r0, [r4]
	.loc	2 1550 2                @ ../Application/Dsiplay/Display.c:1550:2
	bl	CHECKBOX_SetTextColor
	.loc	2 1551 19               @ ../Application/Dsiplay/Display.c:1551:19
	ldr	r0, [r4]
	.loc	2 1551 2 is_stmt 0      @ ../Application/Dsiplay/Display.c:1551:2
	adr	r1, .LCPI8_0
	bl	CHECKBOX_SetText
	movw	r0, #2129
	.loc	2 1553 34 is_stmt 1     @ ../Application/Dsiplay/Display.c:1553:34
	movs	r1, #65
	movs	r2, #100
	movs	r3, #20
	strd	r6, r0, [sp]
	movs	r0, #200
	str	r5, [sp, #8]
	bl	CHECKBOX_Create
	.loc	2 1553 32 is_stmt 0     @ ../Application/Dsiplay/Display.c:1553:32
	movw	r4, :lower16:hCHECKBOX_EnableBroadcastTime
	.loc	2 1554 2 is_stmt 1      @ ../Application/Dsiplay/Display.c:1554:2
	mov.w	r1, #65280
	.loc	2 1553 32               @ ../Application/Dsiplay/Display.c:1553:32
	movt	r4, :upper16:hCHECKBOX_EnableBroadcastTime
	str	r0, [r4]
	.loc	2 1554 2                @ ../Application/Dsiplay/Display.c:1554:2
	bl	CHECKBOX_SetTextColor
	.loc	2 1555 2                @ ../Application/Dsiplay/Display.c:1555:2
	movw	r1, :lower16:.L.str.46
	.loc	2 1555 19 is_stmt 0     @ ../Application/Dsiplay/Display.c:1555:19
	ldr	r0, [r4]
	.loc	2 1555 2                @ ../Application/Dsiplay/Display.c:1555:2
	movt	r1, :upper16:.L.str.46
	bl	CHECKBOX_SetText
	movw	r0, #2130
	.loc	2 1557 25 is_stmt 1     @ ../Application/Dsiplay/Display.c:1557:25
	movs	r1, #35
	movs	r2, #96
	movs	r3, #20
	strd	r6, r0, [sp]
	movw	r0, #355
	str	r5, [sp, #8]
	bl	CHECKBOX_Create
	.loc	2 1557 23 is_stmt 0     @ ../Application/Dsiplay/Display.c:1557:23
	movw	r4, :lower16:hCHECKBOX_EnableHTTP
	.loc	2 1558 2 is_stmt 1      @ ../Application/Dsiplay/Display.c:1558:2
	mov.w	r1, #65280
	.loc	2 1557 23               @ ../Application/Dsiplay/Display.c:1557:23
	movt	r4, :upper16:hCHECKBOX_EnableHTTP
	str	r0, [r4]
	.loc	2 1558 2                @ ../Application/Dsiplay/Display.c:1558:2
	bl	CHECKBOX_SetTextColor
	.loc	2 1559 19               @ ../Application/Dsiplay/Display.c:1559:19
	ldr	r0, [r4]
	.loc	2 1559 2 is_stmt 0      @ ../Application/Dsiplay/Display.c:1559:2
	movw	r4, :lower16:.L.str.47
	movt	r4, :upper16:.L.str.47
	mov	r1, r4
	bl	CHECKBOX_SetText
	movw	r0, #2131
	.loc	2 1561 30 is_stmt 1     @ ../Application/Dsiplay/Display.c:1561:30
	movs	r1, #60
	movs	r2, #120
	movs	r3, #20
	strd	r6, r0, [sp]
	movw	r0, #355
	str	r5, [sp, #8]
	bl	CHECKBOX_Create
	.loc	2 1561 28 is_stmt 0     @ ../Application/Dsiplay/Display.c:1561:28
	movw	r7, :lower16:hCHECKBOX_EnableWebConfig
	.loc	2 1562 2 is_stmt 1      @ ../Application/Dsiplay/Display.c:1562:2
	mov.w	r1, #65280
	.loc	2 1561 28               @ ../Application/Dsiplay/Display.c:1561:28
	movt	r7, :upper16:hCHECKBOX_EnableWebConfig
	str	r0, [r7]
	.loc	2 1562 2                @ ../Application/Dsiplay/Display.c:1562:2
	bl	CHECKBOX_SetTextColor
	.loc	2 1563 2                @ ../Application/Dsiplay/Display.c:1563:2
	movw	r1, :lower16:.L.str.48
	.loc	2 1563 19 is_stmt 0     @ ../Application/Dsiplay/Display.c:1563:19
	ldr	r0, [r7]
	.loc	2 1563 2                @ ../Application/Dsiplay/Display.c:1563:2
	movt	r1, :upper16:.L.str.48
	bl	CHECKBOX_SetText
	movw	r0, #2132
	.loc	2 1565 25 is_stmt 1     @ ../Application/Dsiplay/Display.c:1565:25
	movs	r1, #110
	movs	r2, #96
	movs	r3, #20
	strd	r6, r0, [sp]
	movw	r0, #355
	str	r5, [sp, #8]
	bl	CHECKBOX_Create
	.loc	2 1565 23 is_stmt 0     @ ../Application/Dsiplay/Display.c:1565:23
	movw	r6, :lower16:hCHECKBOX_EnableTFTP
	.loc	2 1566 2 is_stmt 1      @ ../Application/Dsiplay/Display.c:1566:2
	mov.w	r1, #65280
	.loc	2 1565 23               @ ../Application/Dsiplay/Display.c:1565:23
	movt	r6, :upper16:hCHECKBOX_EnableTFTP
	str	r0, [r6]
	.loc	2 1566 2                @ ../Application/Dsiplay/Display.c:1566:2
	bl	CHECKBOX_SetTextColor
	.loc	2 1567 19               @ ../Application/Dsiplay/Display.c:1567:19
	ldr	r0, [r6]
	.loc	2 1567 2 is_stmt 0      @ ../Application/Dsiplay/Display.c:1567:2
	mov	r1, r4
	bl	CHECKBOX_SetText
	mov.w	r0, #2304
	movs	r4, #16
	.loc	2 1569 23 is_stmt 1     @ ../Application/Dsiplay/Display.c:1569:23
	movs	r1, #35
	movs	r2, #100
	movs	r3, #20
	stm.w	sp, {r0, r4, r5}
	movs	r0, #10
	bl	EDIT_Create
	.loc	2 1569 21 is_stmt 0     @ ../Application/Dsiplay/Display.c:1569:21
	movw	r6, :lower16:hEDIT_TcpIpAddress
	.loc	2 1570 2 is_stmt 1      @ ../Application/Dsiplay/Display.c:1570:2
	movw	r1, :lower16:iptxt
	.loc	2 1569 21               @ ../Application/Dsiplay/Display.c:1569:21
	movt	r6, :upper16:hEDIT_TcpIpAddress
	.loc	2 1570 2                @ ../Application/Dsiplay/Display.c:1570:2
	movt	r1, :upper16:iptxt
	.loc	2 1569 21               @ ../Application/Dsiplay/Display.c:1569:21
	str	r0, [r6]
	.loc	2 1570 2                @ ../Application/Dsiplay/Display.c:1570:2
	bl	EDIT_SetText
	.loc	2 1571 19               @ ../Application/Dsiplay/Display.c:1571:19
	ldr	r0, [r6]
	.loc	2 1571 2 is_stmt 0      @ ../Application/Dsiplay/Display.c:1571:2
	movs	r1, #250
	movs	r2, #1
	bl	EDIT_EnableBlink
	movw	r0, #2305
	.loc	2 1573 23 is_stmt 1     @ ../Application/Dsiplay/Display.c:1573:23
	movs	r1, #60
	movs	r2, #100
	movs	r3, #20
	stm.w	sp, {r0, r4, r5}
	movs	r0, #10
	bl	EDIT_Create
	.loc	2 1573 21 is_stmt 0     @ ../Application/Dsiplay/Display.c:1573:21
	movw	r6, :lower16:hEDIT_TcpIpGateway
	.loc	2 1574 2 is_stmt 1      @ ../Application/Dsiplay/Display.c:1574:2
	movw	r1, :lower16:gtwtxt
	.loc	2 1573 21               @ ../Application/Dsiplay/Display.c:1573:21
	movt	r6, :upper16:hEDIT_TcpIpGateway
	.loc	2 1574 2                @ ../Application/Dsiplay/Display.c:1574:2
	movt	r1, :upper16:gtwtxt
	.loc	2 1573 21               @ ../Application/Dsiplay/Display.c:1573:21
	str	r0, [r6]
	.loc	2 1574 2                @ ../Application/Dsiplay/Display.c:1574:2
	bl	EDIT_SetText
	.loc	2 1575 19               @ ../Application/Dsiplay/Display.c:1575:19
	ldr	r0, [r6]
	.loc	2 1575 2 is_stmt 0      @ ../Application/Dsiplay/Display.c:1575:2
	movs	r1, #250
	movs	r2, #1
	bl	EDIT_EnableBlink
	movw	r0, #2306
	.loc	2 1577 22 is_stmt 1     @ ../Application/Dsiplay/Display.c:1577:22
	movs	r1, #85
	movs	r2, #100
	movs	r3, #20
	stm.w	sp, {r0, r4, r5}
	movs	r0, #10
	bl	EDIT_Create
	.loc	2 1577 20 is_stmt 0     @ ../Application/Dsiplay/Display.c:1577:20
	movw	r4, :lower16:hEDIT_TcpIpSubnet
	.loc	2 1578 2 is_stmt 1      @ ../Application/Dsiplay/Display.c:1578:2
	movw	r1, :lower16:sbnttxt
	.loc	2 1577 20               @ ../Application/Dsiplay/Display.c:1577:20
	movt	r4, :upper16:hEDIT_TcpIpSubnet
	.loc	2 1578 2                @ ../Application/Dsiplay/Display.c:1578:2
	movt	r1, :upper16:sbnttxt
	.loc	2 1577 20               @ ../Application/Dsiplay/Display.c:1577:20
	str	r0, [r4]
	.loc	2 1578 2                @ ../Application/Dsiplay/Display.c:1578:2
	bl	EDIT_SetText
	.loc	2 1579 19               @ ../Application/Dsiplay/Display.c:1579:19
	ldr	r0, [r4]
	.loc	2 1579 2 is_stmt 0      @ ../Application/Dsiplay/Display.c:1579:2
	movs	r1, #250
	movs	r2, #1
	bl	EDIT_EnableBlink
	movs	r6, #5
	movw	r0, #2307
	.loc	2 1581 33 is_stmt 1     @ ../Application/Dsiplay/Display.c:1581:33
	movs	r1, #170
	movs	r2, #50
	movs	r3, #20
	strd	r0, r6, [sp]
	movs	r0, #10
	str	r5, [sp, #8]
	bl	EDIT_Create
	.loc	2 1581 31 is_stmt 0     @ ../Application/Dsiplay/Display.c:1581:31
	movw	r7, :lower16:hEDIT_RS485_InterfaceAddress
	.loc	2 1582 2 is_stmt 1      @ ../Application/Dsiplay/Display.c:1582:2
	movw	r4, :lower16:string
	movs	r1, #16
	.loc	2 1581 31               @ ../Application/Dsiplay/Display.c:1581:31
	movt	r7, :upper16:hEDIT_RS485_InterfaceAddress
	.loc	2 1582 2                @ ../Application/Dsiplay/Display.c:1582:2
	movt	r4, :upper16:string
	.loc	2 1581 31               @ ../Application/Dsiplay/Display.c:1581:31
	str	r0, [r7]
	.loc	2 1582 2                @ ../Application/Dsiplay/Display.c:1582:2
	mov	r0, r4
	bl	ClearBuffer
	.loc	2 1583 18               @ ../Application/Dsiplay/Display.c:1583:18
	movw	r0, :lower16:rs485_interface_address
	movt	r0, :upper16:rs485_interface_address
	ldrh	r1, [r0]
	.loc	2 1583 2 is_stmt 0      @ ../Application/Dsiplay/Display.c:1583:2
	mov	r0, r4
	bl	Int2Str
	.loc	2 1584 15 is_stmt 1     @ ../Application/Dsiplay/Display.c:1584:15
	ldr	r0, [r7]
	.loc	2 1584 2 is_stmt 0      @ ../Application/Dsiplay/Display.c:1584:2
	mov	r1, r4
	bl	EDIT_SetText
	.loc	2 1585 19 is_stmt 1     @ ../Application/Dsiplay/Display.c:1585:19
	ldr	r0, [r7]
	.loc	2 1585 2 is_stmt 0      @ ../Application/Dsiplay/Display.c:1585:2
	movs	r1, #250
	movs	r2, #1
	bl	EDIT_EnableBlink
	movw	r0, #2308
	.loc	2 1587 33 is_stmt 1     @ ../Application/Dsiplay/Display.c:1587:33
	movs	r1, #195
	movs	r2, #50
	movs	r3, #20
	strd	r0, r6, [sp]
	movs	r0, #10
	str	r5, [sp, #8]
	bl	EDIT_Create
	.loc	2 1587 31 is_stmt 0     @ ../Application/Dsiplay/Display.c:1587:31
	movw	r7, :lower16:hEDIT_RS485_BroadcastAddress
	.loc	2 1588 2 is_stmt 1      @ ../Application/Dsiplay/Display.c:1588:2
	movs	r1, #16
	.loc	2 1587 31               @ ../Application/Dsiplay/Display.c:1587:31
	movt	r7, :upper16:hEDIT_RS485_BroadcastAddress
	str	r0, [r7]
	.loc	2 1588 2                @ ../Application/Dsiplay/Display.c:1588:2
	mov	r0, r4
	bl	ClearBuffer
	.loc	2 1589 18               @ ../Application/Dsiplay/Display.c:1589:18
	movw	r0, :lower16:rs485_broadcast_address
	movt	r0, :upper16:rs485_broadcast_address
	ldrh	r1, [r0]
	.loc	2 1589 2 is_stmt 0      @ ../Application/Dsiplay/Display.c:1589:2
	mov	r0, r4
	bl	Int2Str
	.loc	2 1590 15 is_stmt 1     @ ../Application/Dsiplay/Display.c:1590:15
	ldr	r0, [r7]
	.loc	2 1590 2 is_stmt 0      @ ../Application/Dsiplay/Display.c:1590:2
	mov	r1, r4
	bl	EDIT_SetText
	.loc	2 1591 19 is_stmt 1     @ ../Application/Dsiplay/Display.c:1591:19
	ldr	r0, [r7]
	.loc	2 1591 2 is_stmt 0      @ ../Application/Dsiplay/Display.c:1591:2
	movs	r1, #250
	movs	r2, #1
	bl	EDIT_EnableBlink
	movw	r0, #2310
	.loc	2 1593 19 is_stmt 1     @ ../Application/Dsiplay/Display.c:1593:19
	movs	r1, #170
	movs	r2, #50
	movs	r3, #20
	strd	r0, r6, [sp]
	movs	r0, #200
	str	r5, [sp, #8]
	bl	EDIT_Create
	.loc	2 1593 17 is_stmt 0     @ ../Application/Dsiplay/Display.c:1593:17
	movw	r7, :lower16:hEDIT_Password
	.loc	2 1594 2 is_stmt 1      @ ../Application/Dsiplay/Display.c:1594:2
	movw	r1, :lower16:password_set
	.loc	2 1593 17               @ ../Application/Dsiplay/Display.c:1593:17
	movt	r7, :upper16:hEDIT_Password
	.loc	2 1594 2                @ ../Application/Dsiplay/Display.c:1594:2
	movt	r1, :upper16:password_set
	.loc	2 1593 17               @ ../Application/Dsiplay/Display.c:1593:17
	str	r0, [r7]
	.loc	2 1594 2                @ ../Application/Dsiplay/Display.c:1594:2
	bl	EDIT_SetText
	.loc	2 1595 19               @ ../Application/Dsiplay/Display.c:1595:19
	ldr	r0, [r7]
	.loc	2 1595 2 is_stmt 0      @ ../Application/Dsiplay/Display.c:1595:2
	movs	r1, #250
	movs	r2, #1
	bl	EDIT_EnableBlink
	movw	r0, #2311
	.loc	2 1597 16 is_stmt 1     @ ../Application/Dsiplay/Display.c:1597:16
	movs	r1, #170
	movs	r2, #50
	movs	r3, #20
	strd	r0, r6, [sp]
	movw	r0, #355
	str	r5, [sp, #8]
	bl	EDIT_Create
	.loc	2 1597 14 is_stmt 0     @ ../Application/Dsiplay/Display.c:1597:14
	movw	r6, :lower16:hEDIT_SysID
	.loc	2 1598 2 is_stmt 1      @ ../Application/Dsiplay/Display.c:1598:2
	movs	r1, #16
	.loc	2 1597 14               @ ../Application/Dsiplay/Display.c:1597:14
	movt	r6, :upper16:hEDIT_SysID
	str	r0, [r6]
	.loc	2 1598 2                @ ../Application/Dsiplay/Display.c:1598:2
	mov	r0, r4
	bl	ClearBuffer
	.loc	2 1599 18               @ ../Application/Dsiplay/Display.c:1599:18
	movw	r0, :lower16:system_id
	movt	r0, :upper16:system_id
	ldrh	r1, [r0]
	.loc	2 1599 2 is_stmt 0      @ ../Application/Dsiplay/Display.c:1599:2
	mov	r0, r4
	bl	Int2Str
	.loc	2 1600 15 is_stmt 1     @ ../Application/Dsiplay/Display.c:1600:15
	ldr	r0, [r6]
	.loc	2 1600 2 is_stmt 0      @ ../Application/Dsiplay/Display.c:1600:2
	mov	r1, r4
	bl	EDIT_SetText
	.loc	2 1601 19 is_stmt 1     @ ../Application/Dsiplay/Display.c:1601:19
	ldr	r0, [r6]
	.loc	2 1601 2 is_stmt 0      @ ../Application/Dsiplay/Display.c:1601:2
	movs	r1, #250
	movs	r2, #1
	bl	EDIT_EnableBlink
	movs	r0, #21
	movw	r1, #2309
	.loc	2 1603 19 is_stmt 1     @ ../Application/Dsiplay/Display.c:1603:19
	movs	r2, #120
	movs	r3, #20
	strd	r1, r0, [sp]
	movs	r0, #200
	movs	r1, #35
	str	r5, [sp, #8]
	bl	EDIT_Create
	.loc	2 1603 17 is_stmt 0     @ ../Application/Dsiplay/Display.c:1603:17
	movw	r1, :lower16:hEDIT_DateTime
	.loc	2 1604 2 is_stmt 1      @ ../Application/Dsiplay/Display.c:1604:2
	movs	r2, #1
	.loc	2 1603 17               @ ../Application/Dsiplay/Display.c:1603:17
	movt	r1, :upper16:hEDIT_DateTime
	str	r0, [r1]
	.loc	2 1604 2                @ ../Application/Dsiplay/Display.c:1604:2
	movs	r1, #250
	bl	EDIT_EnableBlink
	.loc	2 1606 2                @ ../Application/Dsiplay/Display.c:1606:2
	movw	r0, :lower16:GUI_Font13_ASCII
	movt	r0, :upper16:GUI_Font13_ASCII
	bl	GUI_SetFont
	.loc	2 1607 2                @ ../Application/Dsiplay/Display.c:1607:2
	movs	r0, #5
	movs	r1, #15
	bl	GUI_GotoXY
	.loc	2 1608 2                @ ../Application/Dsiplay/Display.c:1608:2
	movw	r0, :lower16:.L.str.49
	movt	r0, :upper16:.L.str.49
	bl	GUI_DispString
	.loc	2 1609 2                @ ../Application/Dsiplay/Display.c:1609:2
	movs	r0, #115
	movs	r1, #37
	bl	GUI_GotoXY
	.loc	2 1610 2                @ ../Application/Dsiplay/Display.c:1610:2
	adr	r0, .LCPI8_1
	bl	GUI_DispString
	.loc	2 1611 2                @ ../Application/Dsiplay/Display.c:1611:2
	movs	r0, #115
	movs	r1, #62
	bl	GUI_GotoXY
	.loc	2 1612 2                @ ../Application/Dsiplay/Display.c:1612:2
	adr	r0, .LCPI8_2
	bl	GUI_DispString
	.loc	2 1613 2                @ ../Application/Dsiplay/Display.c:1613:2
	movs	r0, #115
	movs	r1, #87
	bl	GUI_GotoXY
	.loc	2 1614 2                @ ../Application/Dsiplay/Display.c:1614:2
	adr	r0, .LCPI8_3
	bl	GUI_DispString
	.loc	2 1615 2                @ ../Application/Dsiplay/Display.c:1615:2
	movs	r0, #195
	movs	r1, #15
	bl	GUI_GotoXY
	.loc	2 1616 2                @ ../Application/Dsiplay/Display.c:1616:2
	adr	r0, .LCPI8_4
	bl	GUI_DispString
	.loc	2 1617 2                @ ../Application/Dsiplay/Display.c:1617:2
	mov.w	r0, #350
	movs	r1, #15
	bl	GUI_GotoXY
	.loc	2 1618 2                @ ../Application/Dsiplay/Display.c:1618:2
	adr	r0, .LCPI8_5
	bl	GUI_DispString
	.loc	2 1619 2                @ ../Application/Dsiplay/Display.c:1619:2
	mov.w	r0, #350
	movs	r1, #90
	bl	GUI_GotoXY
	.loc	2 1620 2                @ ../Application/Dsiplay/Display.c:1620:2
	adr	r0, .LCPI8_6
	bl	GUI_DispString
	.loc	2 1621 2                @ ../Application/Dsiplay/Display.c:1621:2
	movs	r0, #5
	movs	r1, #150
	bl	GUI_GotoXY
	.loc	2 1622 2                @ ../Application/Dsiplay/Display.c:1622:2
	adr	r0, .LCPI8_7
	bl	GUI_DispString
	.loc	2 1623 2                @ ../Application/Dsiplay/Display.c:1623:2
	movs	r0, #67
	movs	r1, #173
	bl	GUI_GotoXY
	.loc	2 1624 2                @ ../Application/Dsiplay/Display.c:1624:2
	adr	r0, .LCPI8_8
	bl	GUI_DispString
	.loc	2 1625 2                @ ../Application/Dsiplay/Display.c:1625:2
	movs	r0, #67
	movs	r1, #198
	bl	GUI_GotoXY
	.loc	2 1626 2                @ ../Application/Dsiplay/Display.c:1626:2
	adr	r0, .LCPI8_9
	bl	GUI_DispString
	.loc	2 1627 2                @ ../Application/Dsiplay/Display.c:1627:2
	movs	r0, #195
	movs	r1, #150
	bl	GUI_GotoXY
	.loc	2 1628 2                @ ../Application/Dsiplay/Display.c:1628:2
	adr	r0, .LCPI8_10
	bl	GUI_DispString
	.loc	2 1629 2                @ ../Application/Dsiplay/Display.c:1629:2
	mov.w	r0, #350
	movs	r1, #150
	bl	GUI_GotoXY
	.loc	2 1630 2                @ ../Application/Dsiplay/Display.c:1630:2
	adr	r0, .LCPI8_11
	bl	GUI_DispString
	.loc	2 1631 16               @ ../Application/Dsiplay/Display.c:1631:16
	movw	r0, :lower16:eActivDisplay
	movt	r0, :upper16:eActivDisplay
	strb	r5, [r0]
	.loc	2 1632 1                @ ../Application/Dsiplay/Display.c:1632:1
	add	sp, #12
	pop	{r4, r5, r6, r7, pc}
.Ltmp587:
	.p2align	2
@ %bb.1:
	.loc	2 0 1 is_stmt 0         @ ../Application/Dsiplay/Display.c:0:1
.LCPI8_0:
.L.str.45:
	.asciz	"DHCP client"
.LCPI8_1:
.L.str.50:
	.asciz	"IPv4 Address\000\000\000"
.LCPI8_2:
.L.str.51:
	.asciz	"Def. Gateway\000\000\000"
.LCPI8_3:
.L.str.52:
	.asciz	"Subnet Mask"
.LCPI8_4:
.L.str.53:
	.asciz	"DATE & TIME"
.LCPI8_5:
.L.str.54:
	.asciz	"HTTP SERVER"
.LCPI8_6:
.L.str.55:
	.asciz	"TFTP SERVER"
.LCPI8_7:
.L.str.56:
	.asciz	"RS485 INTERFACE"
.LCPI8_8:
.L.str.57:
	.asciz	"Interface Address\000\000"
.LCPI8_9:
.L.str.58:
	.asciz	"Broadcast Address\000\000"
.LCPI8_10:
.L.str.59:
	.asciz	"PASSSWORD\000\000"
.LCPI8_11:
.L.str.60:
	.asciz	"SYSTEM ID\000\000"
.Lfunc_end8:
	.size	CreateSettingsMenuDisplay, .Lfunc_end8-CreateSettingsMenuDisplay
	.cfi_endproc
	.cantunwind
	.fnend
                                        @ -- End function
	.section	.text.CreateOnScreenKeypad,"ax",%progbits
	.hidden	CreateOnScreenKeypad    @ -- Begin function CreateOnScreenKeypad
	.globl	CreateOnScreenKeypad
	.p2align	2
	.type	CreateOnScreenKeypad,%function
	.code	16                      @ @CreateOnScreenKeypad
	.thumb_func
CreateOnScreenKeypad:
.Lfunc_begin9:
	.loc	2 1658 0 is_stmt 1      @ ../Application/Dsiplay/Display.c:1658:0
	.fnstart
	.cfi_startproc
@ %bb.0:
	.save	{r4, lr}
	push	{r4, lr}
	.cfi_def_cfa_offset 8
	.cfi_offset lr, -4
	.cfi_offset r4, -8
	.pad	#8
	sub	sp, #8
	.cfi_def_cfa_offset 16
.Ltmp588:
	.loc	2 1659 2 prologue_end   @ ../Application/Dsiplay/Display.c:1659:2
	movs	r0, #0
	bl	GUI_SetBkColor
	.loc	2 1660 2                @ ../Application/Dsiplay/Display.c:1660:2
	movs	r0, #0
	bl	GUI_SetColor
	.loc	2 1661 2                @ ../Application/Dsiplay/Display.c:1661:2
	movs	r0, #130
	movs	r1, #5
	mov.w	r2, #390
	movs	r3, #240
	bl	GUI_FillRect
	movs	r4, #2
	movw	r0, #2073
	.loc	2 1662 29               @ ../Application/Dsiplay/Display.c:1662:29
	movs	r1, #50
	movs	r2, #60
	movs	r3, #60
	strd	r0, r4, [sp]
	movs	r0, #140
	bl	BUTTON_Create
	.loc	2 1662 27 is_stmt 0     @ ../Application/Dsiplay/Display.c:1662:27
	movw	r1, :lower16:hBUTTON_OnScreenKeypad_1
	movt	r1, :upper16:hBUTTON_OnScreenKeypad_1
	str	r0, [r1]
	.loc	2 1663 2 is_stmt 1      @ ../Application/Dsiplay/Display.c:1663:2
	adr	r1, .LCPI9_0
	bl	BUTTON_SetText
	movw	r0, #2074
	.loc	2 1664 29               @ ../Application/Dsiplay/Display.c:1664:29
	movs	r1, #50
	movs	r2, #60
	movs	r3, #60
	strd	r0, r4, [sp]
	movs	r0, #200
	bl	BUTTON_Create
	.loc	2 1664 27 is_stmt 0     @ ../Application/Dsiplay/Display.c:1664:27
	movw	r1, :lower16:hBUTTON_OnScreenKeypad_2
	movt	r1, :upper16:hBUTTON_OnScreenKeypad_2
	str	r0, [r1]
	.loc	2 1665 2 is_stmt 1      @ ../Application/Dsiplay/Display.c:1665:2
	adr	r1, .LCPI9_1
	bl	BUTTON_SetText
	movw	r0, #2075
	.loc	2 1666 29               @ ../Application/Dsiplay/Display.c:1666:29
	movs	r1, #50
	movs	r2, #60
	movs	r3, #60
	strd	r0, r4, [sp]
	mov.w	r0, #260
	bl	BUTTON_Create
	.loc	2 1666 27 is_stmt 0     @ ../Application/Dsiplay/Display.c:1666:27
	movw	r1, :lower16:hBUTTON_OnScreenKeypad_3
	movt	r1, :upper16:hBUTTON_OnScreenKeypad_3
	str	r0, [r1]
	.loc	2 1667 2 is_stmt 1      @ ../Application/Dsiplay/Display.c:1667:2
	adr	r1, .LCPI9_2
	bl	BUTTON_SetText
	movw	r0, #2076
	.loc	2 1668 29               @ ../Application/Dsiplay/Display.c:1668:29
	movs	r1, #50
	movs	r2, #60
	movs	r3, #60
	strd	r0, r4, [sp]
	mov.w	r0, #320
	bl	BUTTON_Create
	.loc	2 1668 27 is_stmt 0     @ ../Application/Dsiplay/Display.c:1668:27
	movw	r1, :lower16:hBUTTON_OnScreenKeypad_4
	movt	r1, :upper16:hBUTTON_OnScreenKeypad_4
	str	r0, [r1]
	.loc	2 1669 2 is_stmt 1      @ ../Application/Dsiplay/Display.c:1669:2
	adr	r1, .LCPI9_3
	bl	BUTTON_SetText
	movw	r0, #2077
	.loc	2 1670 29               @ ../Application/Dsiplay/Display.c:1670:29
	movs	r1, #110
	movs	r2, #60
	movs	r3, #60
	strd	r0, r4, [sp]
	movs	r0, #140
	bl	BUTTON_Create
	.loc	2 1670 27 is_stmt 0     @ ../Application/Dsiplay/Display.c:1670:27
	movw	r1, :lower16:hBUTTON_OnScreenKeypad_5
	movt	r1, :upper16:hBUTTON_OnScreenKeypad_5
	str	r0, [r1]
	.loc	2 1671 2 is_stmt 1      @ ../Application/Dsiplay/Display.c:1671:2
	adr	r1, .LCPI9_4
	bl	BUTTON_SetText
	movw	r0, #2078
	.loc	2 1672 29               @ ../Application/Dsiplay/Display.c:1672:29
	movs	r1, #110
	movs	r2, #60
	movs	r3, #60
	strd	r0, r4, [sp]
	movs	r0, #200
	bl	BUTTON_Create
	.loc	2 1672 27 is_stmt 0     @ ../Application/Dsiplay/Display.c:1672:27
	movw	r1, :lower16:hBUTTON_OnScreenKeypad_6
	movt	r1, :upper16:hBUTTON_OnScreenKeypad_6
	str	r0, [r1]
	.loc	2 1673 2 is_stmt 1      @ ../Application/Dsiplay/Display.c:1673:2
	adr	r1, .LCPI9_5
	bl	BUTTON_SetText
	movw	r0, #2079
	.loc	2 1674 29               @ ../Application/Dsiplay/Display.c:1674:29
	movs	r1, #110
	movs	r2, #60
	movs	r3, #60
	strd	r0, r4, [sp]
	mov.w	r0, #260
	bl	BUTTON_Create
	.loc	2 1674 27 is_stmt 0     @ ../Application/Dsiplay/Display.c:1674:27
	movw	r1, :lower16:hBUTTON_OnScreenKeypad_7
	movt	r1, :upper16:hBUTTON_OnScreenKeypad_7
	str	r0, [r1]
	.loc	2 1675 2 is_stmt 1      @ ../Application/Dsiplay/Display.c:1675:2
	adr	r1, .LCPI9_6
	bl	BUTTON_SetText
	mov.w	r0, #2080
	.loc	2 1676 29               @ ../Application/Dsiplay/Display.c:1676:29
	movs	r1, #110
	movs	r2, #60
	movs	r3, #60
	strd	r0, r4, [sp]
	mov.w	r0, #320
	bl	BUTTON_Create
	.loc	2 1676 27 is_stmt 0     @ ../Application/Dsiplay/Display.c:1676:27
	movw	r1, :lower16:hBUTTON_OnScreenKeypad_8
	movt	r1, :upper16:hBUTTON_OnScreenKeypad_8
	str	r0, [r1]
	.loc	2 1677 2 is_stmt 1      @ ../Application/Dsiplay/Display.c:1677:2
	adr	r1, .LCPI9_7
	bl	BUTTON_SetText
	movw	r0, #2081
	.loc	2 1678 29               @ ../Application/Dsiplay/Display.c:1678:29
	movs	r1, #170
	movs	r2, #60
	movs	r3, #60
	strd	r0, r4, [sp]
	movs	r0, #140
	bl	BUTTON_Create
	.loc	2 1678 27 is_stmt 0     @ ../Application/Dsiplay/Display.c:1678:27
	movw	r1, :lower16:hBUTTON_OnScreenKeypad_9
	movt	r1, :upper16:hBUTTON_OnScreenKeypad_9
	str	r0, [r1]
	.loc	2 1679 2 is_stmt 1      @ ../Application/Dsiplay/Display.c:1679:2
	adr	r1, .LCPI9_8
	bl	BUTTON_SetText
	movw	r0, #2072
	.loc	2 1680 29               @ ../Application/Dsiplay/Display.c:1680:29
	movs	r1, #170
	movs	r2, #60
	movs	r3, #60
	strd	r0, r4, [sp]
	movs	r0, #200
	bl	BUTTON_Create
	.loc	2 1680 27 is_stmt 0     @ ../Application/Dsiplay/Display.c:1680:27
	movw	r1, :lower16:hBUTTON_OnScreenKeypad_0
	movt	r1, :upper16:hBUTTON_OnScreenKeypad_0
	str	r0, [r1]
	.loc	2 1681 2 is_stmt 1      @ ../Application/Dsiplay/Display.c:1681:2
	adr	r1, .LCPI9_9
	bl	BUTTON_SetText
	movw	r0, #2082
	.loc	2 1682 30               @ ../Application/Dsiplay/Display.c:1682:30
	movs	r1, #170
	movs	r2, #60
	movs	r3, #60
	strd	r0, r4, [sp]
	mov.w	r0, #260
	bl	BUTTON_Create
	.loc	2 1682 28 is_stmt 0     @ ../Application/Dsiplay/Display.c:1682:28
	movw	r1, :lower16:hBUTTON_OnScreenKeypad_Ok
	movt	r1, :upper16:hBUTTON_OnScreenKeypad_Ok
	str	r0, [r1]
	.loc	2 1683 2 is_stmt 1      @ ../Application/Dsiplay/Display.c:1683:2
	movw	r1, :lower16:.L.str.42
	movt	r1, :upper16:.L.str.42
	bl	BUTTON_SetText
	movw	r0, #2083
	.loc	2 1684 32               @ ../Application/Dsiplay/Display.c:1684:32
	movs	r1, #170
	movs	r2, #60
	movs	r3, #60
	strd	r0, r4, [sp]
	mov.w	r0, #320
	bl	BUTTON_Create
	.loc	2 1684 30 is_stmt 0     @ ../Application/Dsiplay/Display.c:1684:30
	movw	r1, :lower16:hBUTTON_OnScreenKeypad_Back
	movt	r1, :upper16:hBUTTON_OnScreenKeypad_Back
	str	r0, [r1]
	.loc	2 1685 2 is_stmt 1      @ ../Application/Dsiplay/Display.c:1685:2
	adr	r1, .LCPI9_10
	bl	BUTTON_SetText
	.loc	2 1686 2                @ ../Application/Dsiplay/Display.c:1686:2
	movw	r0, :lower16:display_flags
	movt	r0, :upper16:display_flags
	ldr	r1, [r0]
	orr	r1, r1, #32
	str	r1, [r0]
	.loc	2 1687 1                @ ../Application/Dsiplay/Display.c:1687:1
	add	sp, #8
	pop	{r4, pc}
.Ltmp589:
	.p2align	2
@ %bb.1:
	.loc	2 0 1 is_stmt 0         @ ../Application/Dsiplay/Display.c:0:1
.LCPI9_0:
.L.str.61:
	.asciz	"1\000\000"
.LCPI9_1:
.L.str.62:
	.asciz	"2\000\000"
.LCPI9_2:
.L.str.63:
	.asciz	"3\000\000"
.LCPI9_3:
.L.str.64:
	.asciz	"4\000\000"
.LCPI9_4:
.L.str.65:
	.asciz	"5\000\000"
.LCPI9_5:
.L.str.66:
	.asciz	"6\000\000"
.LCPI9_6:
.L.str.67:
	.asciz	"7\000\000"
.LCPI9_7:
.L.str.68:
	.asciz	"8\000\000"
.LCPI9_8:
.L.str.69:
	.asciz	"9\000\000"
.LCPI9_9:
.L.str.70:
	.asciz	"0\000\000"
.LCPI9_10:
.L.str.71:
	.asciz	"<BCK\000\000\000"
.Lfunc_end9:
	.size	CreateOnScreenKeypad, .Lfunc_end9-CreateOnScreenKeypad
	.cfi_endproc
	.cantunwind
	.fnend
                                        @ -- End function
	.section	.text.OnScreenKeypad,"ax",%progbits
	.hidden	OnScreenKeypad          @ -- Begin function OnScreenKeypad
	.globl	OnScreenKeypad
	.p2align	2
	.type	OnScreenKeypad,%function
	.code	16                      @ @OnScreenKeypad
	.thumb_func
OnScreenKeypad:
.Lfunc_begin10:
	.loc	2 1708 0 is_stmt 1      @ ../Application/Dsiplay/Display.c:1708:0
	.fnstart
	.cfi_startproc
@ %bb.0:
	.save	{r4, r5, r6, r7, r8, r9, r10, r11, lr}
	push.w	{r4, r5, r6, r7, r8, r9, r10, r11, lr}
	.cfi_def_cfa_offset 36
	.cfi_offset lr, -4
	.cfi_offset r11, -8
	.cfi_offset r10, -12
	.cfi_offset r9, -16
	.cfi_offset r8, -20
	.cfi_offset r7, -24
	.cfi_offset r6, -28
	.cfi_offset r5, -32
	.cfi_offset r4, -36
	.pad	#12
	sub	sp, #12
	.cfi_def_cfa_offset 48
	@DEBUG_VALUE: OnScreenKeypad:edit_val <- $r0
	@DEBUG_VALUE: OnScreenKeypad:key_pressed <- $r1
	mov	r5, r0
.Ltmp590:
	@DEBUG_VALUE: OnScreenKeypad:key_pressed <- $r4
	@DEBUG_VALUE: OnScreenKeypad:edit_val <- $r5
	.loc	2 1711 39 prologue_end  @ ../Application/Dsiplay/Display.c:1711:39
	subs	r0, #1
	mov	r4, r1
.Ltmp591:
	cmp	r0, #2
	bhi	.LBB10_7
.Ltmp592:
@ %bb.1:
	@DEBUG_VALUE: OnScreenKeypad:edit_val <- $r5
	.loc	2 1713 3                @ ../Application/Dsiplay/Display.c:1713:3
	movs	r0, #0
	bl	GUI_SetColor
	.loc	2 1714 3                @ ../Application/Dsiplay/Display.c:1714:3
	movs	r0, #130
	movs	r1, #15
	mov.w	r2, #360
	movs	r3, #50
	bl	GUI_FillRect
	.loc	2 1715 3                @ ../Application/Dsiplay/Display.c:1715:3
	movw	r0, :lower16:GUI_Font24B_1
	movt	r0, :upper16:GUI_Font24B_1
	bl	GUI_SetFont
	.loc	2 1716 3                @ ../Application/Dsiplay/Display.c:1716:3
	mvn	r0, #-16777216
	bl	GUI_SetColor
	.loc	2 1717 3                @ ../Application/Dsiplay/Display.c:1717:3
	movs	r0, #2
	bl	GUI_SetTextMode
	.loc	2 1719 6                @ ../Application/Dsiplay/Display.c:1719:6
	cmp	r4, #79
	beq	.LBB10_12
.Ltmp593:
@ %bb.2:
	@DEBUG_VALUE: OnScreenKeypad:edit_val <- $r5
	cmp	r4, #66
	bne.w	.LBB10_17
.Ltmp594:
@ %bb.3:
	@DEBUG_VALUE: OnScreenKeypad:edit_val <- $r5
	.loc	2 1721 7                @ ../Application/Dsiplay/Display.c:1721:7
	movw	r0, :lower16:osk_ipedit
	movt	r0, :upper16:osk_ipedit
	ldrb	r0, [r0]
.Ltmp595:
	.loc	2 1721 7 is_stmt 0      @ ../Application/Dsiplay/Display.c:1721:7
	subs	r0, #1
	cmp	r0, #3
	bhi.w	.LBB10_91
.Ltmp596:
@ %bb.4:
	@DEBUG_VALUE: OnScreenKeypad:edit_val <- $r5
	.loc	2 0 7                   @ ../Application/Dsiplay/Display.c:0:7
.LCPI10_2:
	tbh	[pc, r0, lsl #1]
.Ltmp597:
@ %bb.5:
.LJTI10_2:
	.short	(.LBB10_6-(.LCPI10_2+4))/2
	.short	(.LBB10_86-(.LCPI10_2+4))/2
	.short	(.LBB10_87-(.LCPI10_2+4))/2
	.short	(.LBB10_88-(.LCPI10_2+4))/2
	.p2align	1
.LBB10_6:
.Ltmp598:
	@DEBUG_VALUE: OnScreenKeypad:edit_val <- $r5
	.loc	2 1723 13 is_stmt 1     @ ../Application/Dsiplay/Display.c:1723:13
	movw	r2, :lower16:osk_entry_cnt
	.loc	2 1723 5 is_stmt 0      @ ../Application/Dsiplay/Display.c:1723:5
	movw	r0, :lower16:string1
	.loc	2 1723 13               @ ../Application/Dsiplay/Display.c:1723:13
	movt	r2, :upper16:osk_entry_cnt
	.loc	2 1723 5                @ ../Application/Dsiplay/Display.c:1723:5
	movt	r0, :upper16:string1
	b	.LBB10_89
.Ltmp599:
.LBB10_7:
	@DEBUG_VALUE: OnScreenKeypad:edit_val <- $r5
	.loc	2 1936 3 is_stmt 1      @ ../Application/Dsiplay/Display.c:1936:3
	subs	r0, r5, #4
	cmp	r0, #4
	bhi.w	.LBB10_152
.Ltmp600:
@ %bb.8:
	@DEBUG_VALUE: OnScreenKeypad:edit_val <- $r5
	.loc	2 0 3 is_stmt 0         @ ../Application/Dsiplay/Display.c:0:3
.LCPI10_3:
	tbh	[pc, r0, lsl #1]
.Ltmp601:
@ %bb.9:
.LJTI10_0:
	.short	(.LBB10_10-(.LCPI10_3+4))/2
	.short	(.LBB10_24-(.LCPI10_3+4))/2
	.short	(.LBB10_27-(.LCPI10_3+4))/2
	.short	(.LBB10_32-(.LCPI10_3+4))/2
	.short	(.LBB10_22-(.LCPI10_3+4))/2
	.p2align	1
.LBB10_10:
.Ltmp602:
	@DEBUG_VALUE: OnScreenKeypad:edit_val <- $r5
	.loc	2 1941 5 is_stmt 1      @ ../Application/Dsiplay/Display.c:1941:5
	movs	r0, #0
	bl	GUI_SetColor
	.loc	2 1942 5                @ ../Application/Dsiplay/Display.c:1942:5
	movs	r0, #130
	movs	r1, #15
	mov.w	r2, #360
	movs	r3, #50
	bl	GUI_FillRect
	.loc	2 1943 5                @ ../Application/Dsiplay/Display.c:1943:5
	movw	r0, :lower16:GUI_Font24B_1
	movt	r0, :upper16:GUI_Font24B_1
	bl	GUI_SetFont
	.loc	2 1944 5                @ ../Application/Dsiplay/Display.c:1944:5
	mvn	r0, #-16777216
	bl	GUI_SetColor
	.loc	2 1945 5                @ ../Application/Dsiplay/Display.c:1945:5
	movs	r0, #2
	bl	GUI_SetTextMode
	.loc	2 1947 8                @ ../Application/Dsiplay/Display.c:1947:8
	cmp	r4, #79
	bne.w	.LBB10_28
.Ltmp603:
@ %bb.11:
	@DEBUG_VALUE: OnScreenKeypad:edit_val <- $r5
	.loc	2 1958 6                @ ../Application/Dsiplay/Display.c:1958:6
	movw	r4, :lower16:converted
	movw	r0, :lower16:osk_entry
	movt	r4, :upper16:converted
	movt	r0, :upper16:osk_entry
	mov	r1, r4
	bl	Str2Int
	.loc	2 1959 30               @ ../Application/Dsiplay/Display.c:1959:30
	movw	r1, :lower16:rs485_interface_address
	.loc	2 1959 33 is_stmt 0     @ ../Application/Dsiplay/Display.c:1959:33
	ldr	r0, [r4]
	.loc	2 1959 30               @ ../Application/Dsiplay/Display.c:1959:30
	movt	r1, :upper16:rs485_interface_address
	b	.LBB10_26
.Ltmp604:
.LBB10_12:
	@DEBUG_VALUE: OnScreenKeypad:edit_val <- $r5
	.loc	2 1755 7 is_stmt 1      @ ../Application/Dsiplay/Display.c:1755:7
	movw	r0, :lower16:osk_ipedit
	movt	r0, :upper16:osk_ipedit
	ldrb	r0, [r0]
.Ltmp605:
	.loc	2 1755 7 is_stmt 0      @ ../Application/Dsiplay/Display.c:1755:7
	subs	r0, #1
	cmp	r0, #3
	bhi.w	.LBB10_93
.Ltmp606:
@ %bb.13:
	@DEBUG_VALUE: OnScreenKeypad:edit_val <- $r5
	.loc	2 0 7                   @ ../Application/Dsiplay/Display.c:0:7
.LCPI10_4:
	tbh	[pc, r0, lsl #1]
.Ltmp607:
@ %bb.14:
.LJTI10_1:
	.short	(.LBB10_15-(.LCPI10_4+4))/2
	.short	(.LBB10_95-(.LCPI10_4+4))/2
	.short	(.LBB10_97-(.LCPI10_4+4))/2
	.short	(.LBB10_99-(.LCPI10_4+4))/2
	.p2align	1
.LBB10_15:
.Ltmp608:
	@DEBUG_VALUE: OnScreenKeypad:edit_val <- $r5
	.loc	2 1757 5 is_stmt 1      @ ../Application/Dsiplay/Display.c:1757:5
	movw	r4, :lower16:converted
	movw	r0, :lower16:string1
	movt	r4, :upper16:converted
	movt	r0, :upper16:string1
	mov	r1, r4
	bl	Str2Int
.Ltmp609:
	.loc	2 0 0 is_stmt 0         @ ../Application/Dsiplay/Display.c:0:0
	ldr	r0, [r4]
.Ltmp610:
	.loc	2 1758 8 is_stmt 1      @ ../Application/Dsiplay/Display.c:1758:8
	cmp	r5, #1
	bne.w	.LBB10_114
.Ltmp611:
@ %bb.16:
	@DEBUG_VALUE: OnScreenKeypad:edit_val <- $r5
	.loc	2 1758 55 is_stmt 0     @ ../Application/Dsiplay/Display.c:1758:55
	movw	r1, :lower16:ip_address
	movt	r1, :upper16:ip_address
	strb	r0, [r1]
	b	.LBB10_101
.Ltmp612:
.LBB10_17:
	@DEBUG_VALUE: OnScreenKeypad:edit_val <- $r5
	.loc	2 1806 11 is_stmt 1     @ ../Application/Dsiplay/Display.c:1806:11
	sub.w	r0, r4, #48
	uxtb	r0, r0
	cmp	r0, #9
	bhi.w	.LBB10_40
.Ltmp613:
@ %bb.18:
	@DEBUG_VALUE: OnScreenKeypad:edit_val <- $r5
	.loc	2 1808 7                @ ../Application/Dsiplay/Display.c:1808:7
	movw	r0, :lower16:osk_ipedit
	movt	r0, :upper16:osk_ipedit
	ldrb	r0, [r0]
.Ltmp614:
	.loc	2 1808 7 is_stmt 0      @ ../Application/Dsiplay/Display.c:1808:7
	subs	r0, #1
	cmp	r0, #3
	bhi.w	.LBB10_91
.Ltmp615:
@ %bb.19:
	@DEBUG_VALUE: OnScreenKeypad:edit_val <- $r5
	.loc	2 0 7                   @ ../Application/Dsiplay/Display.c:0:7
.LCPI10_5:
	tbh	[pc, r0, lsl #1]
.Ltmp616:
@ %bb.20:
.LJTI10_4:
	.short	(.LBB10_21-(.LCPI10_5+4))/2
	.short	(.LBB10_116-(.LCPI10_5+4))/2
	.short	(.LBB10_117-(.LCPI10_5+4))/2
	.short	(.LBB10_118-(.LCPI10_5+4))/2
	.p2align	1
.LBB10_21:
.Ltmp617:
	@DEBUG_VALUE: OnScreenKeypad:edit_val <- $r5
	.loc	2 1810 26 is_stmt 1     @ ../Application/Dsiplay/Display.c:1810:26
	movw	r1, :lower16:osk_entry_cnt
	.loc	2 1810 5 is_stmt 0      @ ../Application/Dsiplay/Display.c:1810:5
	movw	r2, :lower16:string1
	.loc	2 1810 26               @ ../Application/Dsiplay/Display.c:1810:26
	movt	r1, :upper16:osk_entry_cnt
	.loc	2 1810 5                @ ../Application/Dsiplay/Display.c:1810:5
	movt	r2, :upper16:string1
	.loc	2 1810 26               @ ../Application/Dsiplay/Display.c:1810:26
	ldrb	r0, [r1]
	adds	r3, r0, #1
	.loc	2 1810 30               @ ../Application/Dsiplay/Display.c:1810:30
	strb	r4, [r2, r0]
	.loc	2 1810 26               @ ../Application/Dsiplay/Display.c:1810:26
	strb	r3, [r1]
	uxtb	r3, r3
	.loc	2 1811 8 is_stmt 1      @ ../Application/Dsiplay/Display.c:1811:8
	cmp	r3, #4
.Ltmp618:
	.loc	2 1813 19               @ ../Application/Dsiplay/Display.c:1813:19
	ittt	hs
	strbhs	r0, [r1]
	movhs	r1, #0
	.loc	2 1814 29               @ ../Application/Dsiplay/Display.c:1814:29
	strbhs	r1, [r2, r0]
.Ltmp619:
	.loc	2 1816 5                @ ../Application/Dsiplay/Display.c:1816:5
	movw	r0, :lower16:string1
	movt	r0, :upper16:string1
	b	.LBB10_90
.Ltmp620:
.LBB10_22:
	@DEBUG_VALUE: OnScreenKeypad:edit_val <- $r5
	.loc	2 2148 5                @ ../Application/Dsiplay/Display.c:2148:5
	movs	r0, #0
	bl	GUI_SetColor
	.loc	2 2149 5                @ ../Application/Dsiplay/Display.c:2149:5
	movs	r0, #130
	movs	r1, #15
	mov.w	r2, #360
	movs	r3, #50
	bl	GUI_FillRect
	.loc	2 2150 5                @ ../Application/Dsiplay/Display.c:2150:5
	movw	r0, :lower16:GUI_Font24B_1
	movt	r0, :upper16:GUI_Font24B_1
	bl	GUI_SetFont
	.loc	2 2151 5                @ ../Application/Dsiplay/Display.c:2151:5
	mvn	r0, #-16777216
	bl	GUI_SetColor
	.loc	2 2152 5                @ ../Application/Dsiplay/Display.c:2152:5
	movs	r0, #2
	bl	GUI_SetTextMode
	.loc	2 2154 8                @ ../Application/Dsiplay/Display.c:2154:8
	cmp	r4, #79
	bne	.LBB10_28
.Ltmp621:
@ %bb.23:
	@DEBUG_VALUE: OnScreenKeypad:edit_val <- $r5
	.loc	2 2165 6                @ ../Application/Dsiplay/Display.c:2165:6
	movw	r4, :lower16:converted
	movw	r0, :lower16:osk_entry
	movt	r4, :upper16:converted
	movt	r0, :upper16:osk_entry
	mov	r1, r4
	bl	Str2Int
	.loc	2 2166 16               @ ../Application/Dsiplay/Display.c:2166:16
	movw	r1, :lower16:system_id
	.loc	2 2166 19 is_stmt 0     @ ../Application/Dsiplay/Display.c:2166:19
	ldr	r0, [r4]
	.loc	2 2166 16               @ ../Application/Dsiplay/Display.c:2166:16
	movt	r1, :upper16:system_id
	b	.LBB10_26
.Ltmp622:
.LBB10_24:
	@DEBUG_VALUE: OnScreenKeypad:edit_val <- $r5
	.loc	2 1985 5 is_stmt 1      @ ../Application/Dsiplay/Display.c:1985:5
	movs	r0, #0
	bl	GUI_SetColor
	.loc	2 1986 5                @ ../Application/Dsiplay/Display.c:1986:5
	movs	r0, #130
	movs	r1, #15
	mov.w	r2, #360
	movs	r3, #50
	bl	GUI_FillRect
	.loc	2 1987 5                @ ../Application/Dsiplay/Display.c:1987:5
	movw	r0, :lower16:GUI_Font24B_1
	movt	r0, :upper16:GUI_Font24B_1
	bl	GUI_SetFont
	.loc	2 1988 5                @ ../Application/Dsiplay/Display.c:1988:5
	mvn	r0, #-16777216
	bl	GUI_SetColor
	.loc	2 1989 5                @ ../Application/Dsiplay/Display.c:1989:5
	movs	r0, #2
	bl	GUI_SetTextMode
	.loc	2 1991 8                @ ../Application/Dsiplay/Display.c:1991:8
	cmp	r4, #79
	bne	.LBB10_28
.Ltmp623:
@ %bb.25:
	@DEBUG_VALUE: OnScreenKeypad:edit_val <- $r5
	.loc	2 2002 6                @ ../Application/Dsiplay/Display.c:2002:6
	movw	r4, :lower16:converted
	movw	r0, :lower16:osk_entry
	movt	r4, :upper16:converted
	movt	r0, :upper16:osk_entry
	mov	r1, r4
	bl	Str2Int
	.loc	2 2003 30               @ ../Application/Dsiplay/Display.c:2003:30
	movw	r1, :lower16:rs485_broadcast_address
	.loc	2 2003 33 is_stmt 0     @ ../Application/Dsiplay/Display.c:2003:33
	ldr	r0, [r4]
	.loc	2 2003 30               @ ../Application/Dsiplay/Display.c:2003:30
	movt	r1, :upper16:rs485_broadcast_address
.Ltmp624:
.LBB10_26:
	@DEBUG_VALUE: OnScreenKeypad:edit_val <- $r5
	.loc	2 0 0                   @ ../Application/Dsiplay/Display.c:0:0
	strh	r0, [r1]
	b	.LBB10_145
.Ltmp625:
.LBB10_27:
	@DEBUG_VALUE: OnScreenKeypad:edit_val <- $r5
	.loc	2 2029 5 is_stmt 1      @ ../Application/Dsiplay/Display.c:2029:5
	movs	r0, #0
	movs	r5, #0
.Ltmp626:
	bl	GUI_SetColor
	.loc	2 2030 5                @ ../Application/Dsiplay/Display.c:2030:5
	movs	r0, #130
	movs	r1, #15
	mov.w	r2, #360
	movs	r3, #50
	bl	GUI_FillRect
	.loc	2 2031 5                @ ../Application/Dsiplay/Display.c:2031:5
	movw	r0, :lower16:GUI_Font24B_1
	movt	r0, :upper16:GUI_Font24B_1
	bl	GUI_SetFont
	.loc	2 2032 5                @ ../Application/Dsiplay/Display.c:2032:5
	mvn	r0, #-16777216
	bl	GUI_SetColor
	.loc	2 2033 5                @ ../Application/Dsiplay/Display.c:2033:5
	movs	r0, #2
	bl	GUI_SetTextMode
	.loc	2 2035 8                @ ../Application/Dsiplay/Display.c:2035:8
	cmp	r4, #79
	beq.w	.LBB10_102
.Ltmp627:
.LBB10_28:
	.loc	2 0 0 is_stmt 0         @ ../Application/Dsiplay/Display.c:0:0
	cmp	r4, #66
	bne	.LBB10_30
@ %bb.29:
	movw	r2, :lower16:osk_entry_cnt
	movw	r0, :lower16:osk_entry
	movs	r1, #0
	movt	r2, :upper16:osk_entry_cnt
	movt	r0, :upper16:osk_entry
	ldrb	r3, [r2]
	strb	r1, [r0, r3]
	cmp	r3, #0
	iteee	eq
	moveq	r2, #0
	subne	r3, #1
	strbne	r3, [r2]
	uxtbne	r2, r3
	strb	r1, [r0, r2]
	b	.LBB10_73
.LBB10_30:
	sub.w	r0, r4, #48
	uxtb	r0, r0
	cmp	r0, #9
	bhi.w	.LBB10_72
@ %bb.31:
	movw	r0, :lower16:osk_entry_cnt
	movw	r3, :lower16:osk_entry
	movt	r0, :upper16:osk_entry_cnt
	movt	r3, :upper16:osk_entry
	ldrb	r1, [r0]
	adds	r2, r1, #1
	strb	r4, [r3, r1]
	strb	r2, [r0]
	uxtb	r2, r2
	cmp	r2, #6
	it	hs
	strbhs	r1, [r0]
	movw	r0, :lower16:osk_entry
	movt	r0, :upper16:osk_entry
	b	.LBB10_73
.LBB10_32:
.Ltmp628:
	@DEBUG_VALUE: OnScreenKeypad:edit_val <- $r5
	.loc	2 2078 29 is_stmt 1     @ ../Application/Dsiplay/Display.c:2078:29
	cmp	r4, #79
	beq	.LBB10_34
.Ltmp629:
@ %bb.33:
	@DEBUG_VALUE: OnScreenKeypad:edit_val <- $r5
	cmp	r4, #66
	bne.w	.LBB10_107
.Ltmp630:
.LBB10_34:
	@DEBUG_VALUE: OnScreenKeypad:edit_val <- $r5
	.loc	2 2080 6                @ ../Application/Dsiplay/Display.c:2080:6
	movs	r0, #0
	movs	r5, #0
.Ltmp631:
	bl	GUI_SetColor
	.loc	2 2081 6                @ ../Application/Dsiplay/Display.c:2081:6
	movs	r0, #130
	movs	r1, #15
	mov.w	r2, #360
	movs	r3, #50
	bl	GUI_FillRect
	.loc	2 2082 6                @ ../Application/Dsiplay/Display.c:2082:6
	movw	r0, :lower16:GUI_Font24B_1
	movt	r0, :upper16:GUI_Font24B_1
	bl	GUI_SetFont
	.loc	2 2083 6                @ ../Application/Dsiplay/Display.c:2083:6
	mvn	r0, #-16777216
	bl	GUI_SetColor
	.loc	2 2084 6                @ ../Application/Dsiplay/Display.c:2084:6
	movs	r0, #2
	bl	GUI_SetTextMode
	.loc	2 2086 9                @ ../Application/Dsiplay/Display.c:2086:9
	cmp	r4, #79
	beq.w	.LBB10_112
@ %bb.35:
	cmp	r4, #66
	bne.w	.LBB10_149
@ %bb.36:
.Ltmp632:
	.loc	2 2088 17               @ ../Application/Dsiplay/Display.c:2088:17
	movw	r6, :lower16:osk_entry_cnt
	.loc	2 2088 7 is_stmt 0      @ ../Application/Dsiplay/Display.c:2088:7
	movw	r8, :lower16:osk_entry
	movs	r5, #0
	.loc	2 2088 17               @ ../Application/Dsiplay/Display.c:2088:17
	movt	r6, :upper16:osk_entry_cnt
	.loc	2 2088 7                @ ../Application/Dsiplay/Display.c:2088:7
	movt	r8, :upper16:osk_entry
	.loc	2 2088 17               @ ../Application/Dsiplay/Display.c:2088:17
	ldrb	r0, [r6]
	.loc	2 2090 10 is_stmt 1     @ ../Application/Dsiplay/Display.c:2090:10
	cmp	r0, #0
	.loc	2 2088 32               @ ../Application/Dsiplay/Display.c:2088:32
	strb.w	r5, [r8, r0]
	.loc	2 2090 10               @ ../Application/Dsiplay/Display.c:2090:10
	beq.w	.LBB10_136
@ %bb.37:
.Ltmp633:
	.loc	2 0 0 is_stmt 0         @ ../Application/Dsiplay/Display.c:0:0
	movw	r7, :lower16:ret_1
	.loc	2 2092 8 is_stmt 1      @ ../Application/Dsiplay/Display.c:2092:8
	subs	r0, #1
	.loc	2 0 0 is_stmt 0         @ ../Application/Dsiplay/Display.c:0:0
	movt	r7, :upper16:ret_1
	.loc	2 2092 8                @ ../Application/Dsiplay/Display.c:2092:8
	strb	r0, [r6]
	.loc	2 2094 8 is_stmt 1      @ ../Application/Dsiplay/Display.c:2094:8
	lsls	r0, r0, #24
	.loc	2 0 0 is_stmt 0         @ ../Application/Dsiplay/Display.c:0:0
	str	r5, [r7]
	.loc	2 2094 8                @ ../Application/Dsiplay/Display.c:2094:8
	beq.w	.LBB10_136
@ %bb.38:
	.loc	2 0 8                   @ ../Application/Dsiplay/Display.c:0:8
	movs	r0, #0
	movs	r4, #180
	.p2align	2
.LBB10_39:                              @ =>This Inner Loop Header: Depth=1
.Ltmp634:
	.loc	2 2096 29 is_stmt 1     @ ../Application/Dsiplay/Display.c:2096:29
	add.w	r0, r0, r0, lsl #2
	.loc	2 2096 9 is_stmt 0      @ ../Application/Dsiplay/Display.c:2096:9
	movs	r2, #15
	.loc	2 2096 29               @ ../Application/Dsiplay/Display.c:2096:29
	add.w	r0, r4, r0, lsl #3
	.loc	2 2096 9                @ ../Application/Dsiplay/Display.c:2096:9
	sxth	r1, r0
	movs	r0, #42
	bl	GUI_DispCharAt
	.loc	2 2097 14 is_stmt 1     @ ../Application/Dsiplay/Display.c:2097:14
	ldr	r0, [r7]
.Ltmp635:
	.loc	2 2094 22               @ ../Application/Dsiplay/Display.c:2094:22
	ldrb	r1, [r6]
.Ltmp636:
	.loc	2 2097 14               @ ../Application/Dsiplay/Display.c:2097:14
	adds	r0, #1
.Ltmp637:
	.loc	2 2094 8                @ ../Application/Dsiplay/Display.c:2094:8
	cmp	r0, r1
	.loc	2 0 0 is_stmt 0         @ ../Application/Dsiplay/Display.c:0:0
	str	r0, [r7]
	.loc	2 2094 8                @ ../Application/Dsiplay/Display.c:2094:8
	blt	.LBB10_39
	b	.LBB10_137
.Ltmp638:
.LBB10_40:
	@DEBUG_VALUE: OnScreenKeypad:edit_val <- $r5
	.loc	2 1854 4 is_stmt 1      @ ../Application/Dsiplay/Display.c:1854:4
	movw	r9, :lower16:string1
	movs	r1, #8
	movt	r9, :upper16:string1
	mov	r0, r9
	bl	ClearBuffer
	.loc	2 1855 4                @ ../Application/Dsiplay/Display.c:1855:4
	movw	r10, :lower16:string2
	movs	r1, #8
	movt	r10, :upper16:string2
	mov	r0, r10
	bl	ClearBuffer
	.loc	2 1856 4                @ ../Application/Dsiplay/Display.c:1856:4
	movw	r11, :lower16:string3
	movs	r1, #8
	movt	r11, :upper16:string3
	mov	r0, r11
	bl	ClearBuffer
	.loc	2 1857 4                @ ../Application/Dsiplay/Display.c:1857:4
	movw	r6, :lower16:string4
	movs	r1, #8
	movt	r6, :upper16:string4
	mov	r0, r6
	bl	ClearBuffer
	.loc	2 1860 10               @ ../Application/Dsiplay/Display.c:1860:10
	movw	r8, :lower16:string
	.loc	2 0 0 is_stmt 0         @ ../Application/Dsiplay/Display.c:0:0
	movw	r5, :lower16:osk_entry_cnt
.Ltmp639:
	movs	r1, #1
	.loc	2 1860 10               @ ../Application/Dsiplay/Display.c:1860:10
	movt	r8, :upper16:string
	.loc	2 0 0                   @ ../Application/Dsiplay/Display.c:0:0
	movt	r5, :upper16:osk_entry_cnt
	.loc	2 1860 10               @ ../Application/Dsiplay/Display.c:1860:10
	ldrb.w	r2, [r8]
	.loc	2 0 0                   @ ../Application/Dsiplay/Display.c:0:0
	strb	r1, [r5]
.Ltmp640:
	@DEBUG_VALUE: OnScreenKeypad:k <- 0
	.loc	2 1860 10               @ ../Application/Dsiplay/Display.c:1860:10
	sub.w	r0, r2, #48
	cmp	r0, #9
	bhi	.LBB10_44
@ %bb.41:
	.loc	2 0 10                  @ ../Application/Dsiplay/Display.c:0:10
	movs	r3, #0
	movs	r1, #1
	.p2align	2
.LBB10_42:                              @ =>This Inner Loop Header: Depth=1
.Ltmp641:
	@DEBUG_VALUE: OnScreenKeypad:k <- $r3
	.loc	2 1862 5 is_stmt 1      @ ../Application/Dsiplay/Display.c:1862:5
	uxtb	r7, r3
	.loc	2 1862 14 is_stmt 0     @ ../Application/Dsiplay/Display.c:1862:14
	adds	r3, #1
.Ltmp642:
	@DEBUG_VALUE: OnScreenKeypad:k <- $r3
	.loc	2 1862 18               @ ../Application/Dsiplay/Display.c:1862:18
	strb.w	r2, [r9, r7]
.Ltmp643:
	.loc	2 1860 10 is_stmt 1     @ ../Application/Dsiplay/Display.c:1860:10
	uxtb	r2, r1
	.loc	2 0 0 is_stmt 0         @ ../Application/Dsiplay/Display.c:0:0
	adds	r1, #1
	.loc	2 1860 10               @ ../Application/Dsiplay/Display.c:1860:10
	ldrb.w	r2, [r8, r2]
	sub.w	r7, r2, #48
	cmp	r7, #10
	blo	.LBB10_42
.Ltmp644:
@ %bb.43:
	@DEBUG_VALUE: OnScreenKeypad:k <- $r3
	.loc	2 0 0                   @ ../Application/Dsiplay/Display.c:0:0
	strb	r1, [r5]
.Ltmp645:
.LBB10_44:
	@DEBUG_VALUE: OnScreenKeypad:k <- 0
	.loc	2 1866 10 is_stmt 1     @ ../Application/Dsiplay/Display.c:1866:10
	uxtb	r2, r1
	.loc	2 0 0 is_stmt 0         @ ../Application/Dsiplay/Display.c:0:0
	adds	r1, #1
	.loc	2 1866 10               @ ../Application/Dsiplay/Display.c:1866:10
	ldrb.w	r2, [r8, r2]
	.loc	2 0 0                   @ ../Application/Dsiplay/Display.c:0:0
	strb	r1, [r5]
	.loc	2 1866 10               @ ../Application/Dsiplay/Display.c:1866:10
	sub.w	r3, r2, #48
	cmp	r3, #9
	bhi	.LBB10_48
@ %bb.45:
	.loc	2 0 10                  @ ../Application/Dsiplay/Display.c:0:10
	movs	r3, #0
	.p2align	2
.LBB10_46:                              @ =>This Inner Loop Header: Depth=1
.Ltmp646:
	@DEBUG_VALUE: OnScreenKeypad:k <- $r3
	.loc	2 1868 5 is_stmt 1      @ ../Application/Dsiplay/Display.c:1868:5
	uxtb	r7, r3
	.loc	2 1868 14 is_stmt 0     @ ../Application/Dsiplay/Display.c:1868:14
	adds	r3, #1
.Ltmp647:
	@DEBUG_VALUE: OnScreenKeypad:k <- $r3
	.loc	2 1868 18               @ ../Application/Dsiplay/Display.c:1868:18
	strb.w	r2, [r10, r7]
.Ltmp648:
	.loc	2 1866 10 is_stmt 1     @ ../Application/Dsiplay/Display.c:1866:10
	uxtb	r2, r1
	.loc	2 0 0 is_stmt 0         @ ../Application/Dsiplay/Display.c:0:0
	adds	r1, #1
	.loc	2 1866 10               @ ../Application/Dsiplay/Display.c:1866:10
	ldrb.w	r2, [r8, r2]
	sub.w	r7, r2, #48
	cmp	r7, #10
	blo	.LBB10_46
.Ltmp649:
@ %bb.47:
	@DEBUG_VALUE: OnScreenKeypad:k <- $r3
	.loc	2 0 0                   @ ../Application/Dsiplay/Display.c:0:0
	strb	r1, [r5]
.Ltmp650:
.LBB10_48:
	@DEBUG_VALUE: OnScreenKeypad:k <- 0
	.loc	2 1872 10 is_stmt 1     @ ../Application/Dsiplay/Display.c:1872:10
	uxtb	r2, r1
	.loc	2 0 0 is_stmt 0         @ ../Application/Dsiplay/Display.c:0:0
	adds	r1, #1
	.loc	2 1872 10               @ ../Application/Dsiplay/Display.c:1872:10
	ldrb.w	r2, [r8, r2]
	.loc	2 0 0                   @ ../Application/Dsiplay/Display.c:0:0
	strb	r1, [r5]
	.loc	2 1872 10               @ ../Application/Dsiplay/Display.c:1872:10
	sub.w	r3, r2, #48
	cmp	r3, #9
	bhi	.LBB10_52
@ %bb.49:
	.loc	2 0 10                  @ ../Application/Dsiplay/Display.c:0:10
	movs	r3, #0
	.p2align	2
.LBB10_50:                              @ =>This Inner Loop Header: Depth=1
.Ltmp651:
	@DEBUG_VALUE: OnScreenKeypad:k <- $r3
	.loc	2 1874 5 is_stmt 1      @ ../Application/Dsiplay/Display.c:1874:5
	uxtb	r7, r3
	.loc	2 1874 14 is_stmt 0     @ ../Application/Dsiplay/Display.c:1874:14
	adds	r3, #1
.Ltmp652:
	@DEBUG_VALUE: OnScreenKeypad:k <- $r3
	.loc	2 1874 18               @ ../Application/Dsiplay/Display.c:1874:18
	strb.w	r2, [r11, r7]
.Ltmp653:
	.loc	2 1872 10 is_stmt 1     @ ../Application/Dsiplay/Display.c:1872:10
	uxtb	r2, r1
	.loc	2 0 0 is_stmt 0         @ ../Application/Dsiplay/Display.c:0:0
	adds	r1, #1
	.loc	2 1872 10               @ ../Application/Dsiplay/Display.c:1872:10
	ldrb.w	r2, [r8, r2]
	sub.w	r7, r2, #48
	cmp	r7, #10
	blo	.LBB10_50
.Ltmp654:
@ %bb.51:
	@DEBUG_VALUE: OnScreenKeypad:k <- $r3
	.loc	2 0 0                   @ ../Application/Dsiplay/Display.c:0:0
	strb	r1, [r5]
.Ltmp655:
.LBB10_52:
	@DEBUG_VALUE: OnScreenKeypad:k <- 0
	.loc	2 1878 10 is_stmt 1     @ ../Application/Dsiplay/Display.c:1878:10
	uxtb	r2, r1
	ldrb.w	r2, [r8, r2]
	sub.w	r3, r2, #48
	cmp	r3, #9
	bhi	.LBB10_56
@ %bb.53:
	.loc	2 0 10 is_stmt 0        @ ../Application/Dsiplay/Display.c:0:10
	movs	r3, #0
	.p2align	2
.LBB10_54:                              @ =>This Inner Loop Header: Depth=1
.Ltmp656:
	@DEBUG_VALUE: OnScreenKeypad:k <- $r3
	.loc	2 1880 5 is_stmt 1      @ ../Application/Dsiplay/Display.c:1880:5
	uxtb	r7, r3
	.loc	2 1880 40 is_stmt 0     @ ../Application/Dsiplay/Display.c:1880:40
	adds	r1, #1
	.loc	2 1880 14               @ ../Application/Dsiplay/Display.c:1880:14
	adds	r3, #1
.Ltmp657:
	@DEBUG_VALUE: OnScreenKeypad:k <- $r3
	.loc	2 1880 18               @ ../Application/Dsiplay/Display.c:1880:18
	strb	r2, [r6, r7]
.Ltmp658:
	.loc	2 1878 10 is_stmt 1     @ ../Application/Dsiplay/Display.c:1878:10
	uxtb	r2, r1
	ldrb.w	r2, [r8, r2]
	sub.w	r7, r2, #48
	cmp	r7, #10
	blo	.LBB10_54
.Ltmp659:
@ %bb.55:
	@DEBUG_VALUE: OnScreenKeypad:k <- $r3
	.loc	2 1880 40               @ ../Application/Dsiplay/Display.c:1880:40
	strb	r1, [r5]
.Ltmp660:
.LBB10_56:
	.loc	2 1883 15               @ ../Application/Dsiplay/Display.c:1883:15
	movw	r9, :lower16:osk_ipedit
	movs	r1, #0
	mov.w	r10, #1
	.loc	2 1885 10               @ ../Application/Dsiplay/Display.c:1885:10
	cmp	r0, #9
	.loc	2 1883 15               @ ../Application/Dsiplay/Display.c:1883:15
	movt	r9, :upper16:osk_ipedit
	.loc	2 0 0 is_stmt 0         @ ../Application/Dsiplay/Display.c:0:0
	strb	r1, [r5]
	.loc	2 1883 15               @ ../Application/Dsiplay/Display.c:1883:15
	strb.w	r1, [r9]
	.loc	2 1885 10 is_stmt 1     @ ../Application/Dsiplay/Display.c:1885:10
	bhi	.LBB10_62
@ %bb.57:
	.loc	2 0 10 is_stmt 0        @ ../Application/Dsiplay/Display.c:0:10
	movw	r6, :lower16:string1
	movw	r7, :lower16:converted
	movs	r0, #0
	movt	r6, :upper16:string1
	movt	r7, :upper16:converted
	.p2align	2
.LBB10_58:                              @ =>This Inner Loop Header: Depth=1
.Ltmp661:
	.loc	2 1887 22 is_stmt 1     @ ../Application/Dsiplay/Display.c:1887:22
	uxtb	r1, r0
.Ltmp662:
	.loc	2 1887 8 is_stmt 0      @ ../Application/Dsiplay/Display.c:1887:8
	cmp	r1, r4
	bhi	.LBB10_60
@ %bb.59:                               @   in Loop: Header=BB10_58 Depth=1
.Ltmp663:
	.loc	2 1890 6 is_stmt 1      @ ../Application/Dsiplay/Display.c:1890:6
	mov	r0, r6
	mov	r1, r7
	.loc	2 1889 17               @ ../Application/Dsiplay/Display.c:1889:17
	strb.w	r10, [r9]
	.loc	2 1890 6                @ ../Application/Dsiplay/Display.c:1890:6
	bl	Str2Int
.Ltmp664:
	.loc	2 1892 18               @ ../Application/Dsiplay/Display.c:1892:18
	ldrb	r0, [r5]
.LBB10_60:                              @   in Loop: Header=BB10_58 Depth=1
	mov	r1, r0
	adds	r0, #1
.Ltmp665:
	.loc	2 1885 10               @ ../Application/Dsiplay/Display.c:1885:10
	uxtb	r2, r0
	.loc	2 0 0 is_stmt 0         @ ../Application/Dsiplay/Display.c:0:0
	strb	r0, [r5]
	.loc	2 1885 10               @ ../Application/Dsiplay/Display.c:1885:10
	ldrb.w	r2, [r8, r2]
	subs	r2, #48
	cmp	r2, #10
	blo	.LBB10_58
@ %bb.61:
	.loc	2 0 0                   @ ../Application/Dsiplay/Display.c:0:0
	add.w	r10, r1, #2
.LBB10_62:
	.loc	2 1895 10 is_stmt 1     @ ../Application/Dsiplay/Display.c:1895:10
	uxtb.w	r0, r10
	.loc	2 0 0 is_stmt 0         @ ../Application/Dsiplay/Display.c:0:0
	strb.w	r10, [r5]
	.loc	2 1895 10               @ ../Application/Dsiplay/Display.c:1895:10
	ldrb.w	r0, [r8, r0]
	subs	r0, #48
	cmp	r0, #9
	bhi	.LBB10_67
@ %bb.63:
	.loc	2 0 10                  @ ../Application/Dsiplay/Display.c:0:10
	movw	r6, :lower16:string2
	movw	r7, :lower16:converted
	mov.w	r11, #2
	movt	r6, :upper16:string2
	movt	r7, :upper16:converted
	.p2align	2
.LBB10_64:                              @ =>This Inner Loop Header: Depth=1
.Ltmp666:
	.loc	2 1897 22 is_stmt 1     @ ../Application/Dsiplay/Display.c:1897:22
	uxtb.w	r0, r10
.Ltmp667:
	.loc	2 1897 8 is_stmt 0      @ ../Application/Dsiplay/Display.c:1897:8
	cmp	r0, r4
	bhi	.LBB10_66
@ %bb.65:                               @   in Loop: Header=BB10_64 Depth=1
.Ltmp668:
	.loc	2 1900 6 is_stmt 1      @ ../Application/Dsiplay/Display.c:1900:6
	mov	r0, r6
	mov	r1, r7
	.loc	2 1899 17               @ ../Application/Dsiplay/Display.c:1899:17
	strb.w	r11, [r9]
	.loc	2 1900 6                @ ../Application/Dsiplay/Display.c:1900:6
	bl	Str2Int
.Ltmp669:
	.loc	2 1902 18               @ ../Application/Dsiplay/Display.c:1902:18
	ldrb.w	r10, [r5]
.Ltmp670:
.LBB10_66:                              @   in Loop: Header=BB10_64 Depth=1
	.loc	2 0 0 is_stmt 0         @ ../Application/Dsiplay/Display.c:0:0
	add.w	r10, r10, #1
	.loc	2 1895 10 is_stmt 1     @ ../Application/Dsiplay/Display.c:1895:10
	uxtb.w	r0, r10
	.loc	2 0 0 is_stmt 0         @ ../Application/Dsiplay/Display.c:0:0
	strb.w	r10, [r5]
	.loc	2 1895 10               @ ../Application/Dsiplay/Display.c:1895:10
	ldrb.w	r0, [r8, r0]
	subs	r0, #48
	cmp	r0, #10
	blo	.LBB10_64
.LBB10_67:
	.loc	2 0 0                   @ ../Application/Dsiplay/Display.c:0:0
	add.w	r0, r10, #1
	.loc	2 1905 10 is_stmt 1     @ ../Application/Dsiplay/Display.c:1905:10
	uxtb	r1, r0
	.loc	2 0 0 is_stmt 0         @ ../Application/Dsiplay/Display.c:0:0
	strb	r0, [r5]
	.loc	2 1905 10               @ ../Application/Dsiplay/Display.c:1905:10
	ldrb.w	r1, [r8, r1]
	subs	r1, #48
	cmp	r1, #9
	bhi	.LBB10_74
@ %bb.68:
	.loc	2 0 10                  @ ../Application/Dsiplay/Display.c:0:10
	movw	r6, :lower16:string3
	movw	r7, :lower16:converted
	movw	r11, :lower16:string1
	mov.w	r10, #3
	movt	r6, :upper16:string3
	movt	r7, :upper16:converted
	movt	r11, :upper16:string1
	.p2align	2
.LBB10_69:                              @ =>This Inner Loop Header: Depth=1
.Ltmp671:
	.loc	2 1907 22 is_stmt 1     @ ../Application/Dsiplay/Display.c:1907:22
	uxtb	r1, r0
.Ltmp672:
	.loc	2 1907 8 is_stmt 0      @ ../Application/Dsiplay/Display.c:1907:8
	cmp	r1, r4
	bhi	.LBB10_71
@ %bb.70:                               @   in Loop: Header=BB10_69 Depth=1
.Ltmp673:
	.loc	2 1910 6 is_stmt 1      @ ../Application/Dsiplay/Display.c:1910:6
	mov	r0, r6
	mov	r1, r7
	.loc	2 1909 17               @ ../Application/Dsiplay/Display.c:1909:17
	strb.w	r10, [r9]
	.loc	2 1910 6                @ ../Application/Dsiplay/Display.c:1910:6
	bl	Str2Int
.Ltmp674:
	.loc	2 1912 18               @ ../Application/Dsiplay/Display.c:1912:18
	ldrb	r0, [r5]
.Ltmp675:
.LBB10_71:                              @   in Loop: Header=BB10_69 Depth=1
	.loc	2 0 0 is_stmt 0         @ ../Application/Dsiplay/Display.c:0:0
	adds	r0, #1
	.loc	2 1905 10 is_stmt 1     @ ../Application/Dsiplay/Display.c:1905:10
	uxtb	r1, r0
	.loc	2 0 0 is_stmt 0         @ ../Application/Dsiplay/Display.c:0:0
	strb	r0, [r5]
	.loc	2 1905 10               @ ../Application/Dsiplay/Display.c:1905:10
	ldrb.w	r1, [r8, r1]
	subs	r1, #48
	cmp	r1, #10
	blo	.LBB10_69
	b	.LBB10_75
.Ltmp676:
.LBB10_72:
	.loc	2 0 0                   @ ../Application/Dsiplay/Display.c:0:0
	movw	r0, :lower16:string
	movt	r0, :upper16:string
.LBB10_73:
	movw	r4, :lower16:converted
	movt	r4, :upper16:converted
	mov	r1, r4
	bl	Str2Int
	movs	r0, #150
	movs	r1, #15
	bl	GUI_GotoXY
	ldr	r0, [r4]
	b	.LBB10_92
.Ltmp677:
.LBB10_74:
	movw	r11, :lower16:string1
	movt	r11, :upper16:string1
.LBB10_75:
.Ltmp678:
	adds	r0, #1
	.loc	2 1915 10 is_stmt 1     @ ../Application/Dsiplay/Display.c:1915:10
	uxtb	r1, r0
	.loc	2 0 0 is_stmt 0         @ ../Application/Dsiplay/Display.c:0:0
	strb	r0, [r5]
	.loc	2 1915 10               @ ../Application/Dsiplay/Display.c:1915:10
	ldrb.w	r1, [r8, r1]
	subs	r1, #48
	cmp	r1, #9
	bhi	.LBB10_80
@ %bb.76:
	.loc	2 0 10                  @ ../Application/Dsiplay/Display.c:0:10
	movw	r6, :lower16:string4
	movw	r7, :lower16:converted
	mov.w	r10, #4
	movt	r6, :upper16:string4
	movt	r7, :upper16:converted
	.p2align	2
.LBB10_77:                              @ =>This Inner Loop Header: Depth=1
.Ltmp679:
	.loc	2 1917 22 is_stmt 1     @ ../Application/Dsiplay/Display.c:1917:22
	uxtb	r1, r0
.Ltmp680:
	.loc	2 1917 8 is_stmt 0      @ ../Application/Dsiplay/Display.c:1917:8
	cmp	r1, r4
	bhi	.LBB10_79
@ %bb.78:                               @   in Loop: Header=BB10_77 Depth=1
.Ltmp681:
	.loc	2 1920 6 is_stmt 1      @ ../Application/Dsiplay/Display.c:1920:6
	mov	r0, r6
	mov	r1, r7
	.loc	2 1919 17               @ ../Application/Dsiplay/Display.c:1919:17
	strb.w	r10, [r9]
	.loc	2 1920 6                @ ../Application/Dsiplay/Display.c:1920:6
	bl	Str2Int
.Ltmp682:
	.loc	2 1922 18               @ ../Application/Dsiplay/Display.c:1922:18
	ldrb	r0, [r5]
.Ltmp683:
.LBB10_79:                              @   in Loop: Header=BB10_77 Depth=1
	.loc	2 0 0 is_stmt 0         @ ../Application/Dsiplay/Display.c:0:0
	adds	r0, #1
	.loc	2 1915 10 is_stmt 1     @ ../Application/Dsiplay/Display.c:1915:10
	uxtb	r1, r0
	.loc	2 0 0 is_stmt 0         @ ../Application/Dsiplay/Display.c:0:0
	strb	r0, [r5]
	.loc	2 1915 10               @ ../Application/Dsiplay/Display.c:1915:10
	ldrb.w	r1, [r8, r1]
	subs	r1, #48
	cmp	r1, #10
	blo	.LBB10_77
.LBB10_80:
	.loc	2 0 10                  @ ../Application/Dsiplay/Display.c:0:10
	movs	r0, #0
	.loc	2 1925 18 is_stmt 1     @ ../Application/Dsiplay/Display.c:1925:18
	strb	r0, [r5]
.Ltmp684:
	.loc	2 1926 7                @ ../Application/Dsiplay/Display.c:1926:7
	ldrb.w	r0, [r9]
.Ltmp685:
	.loc	2 1926 7 is_stmt 0      @ ../Application/Dsiplay/Display.c:1926:7
	subs	r0, #1
	cmp	r0, #3
	bhi	.LBB10_91
@ %bb.81:
	.loc	2 0 7                   @ ../Application/Dsiplay/Display.c:0:7
.LCPI10_6:
	tbh	[pc, r0, lsl #1]
@ %bb.82:
.LJTI10_3:
	.short	(.LBB10_83-(.LCPI10_6+4))/2
	.short	(.LBB10_119-(.LCPI10_6+4))/2
	.short	(.LBB10_122-(.LCPI10_6+4))/2
	.short	(.LBB10_125-(.LCPI10_6+4))/2
	.p2align	1
.LBB10_83:
.Ltmp686:
	.loc	2 1926 30               @ ../Application/Dsiplay/Display.c:1926:30
	ldrb.w	r0, [r11]
	.loc	2 1926 24               @ ../Application/Dsiplay/Display.c:1926:24
	cbz	r0, .LBB10_91
@ %bb.84:
	.loc	2 0 24                  @ ../Application/Dsiplay/Display.c:0:24
	movs	r0, #0
	.p2align	2
.LBB10_85:                              @ =>This Inner Loop Header: Depth=1
	.loc	2 1926 75               @ ../Application/Dsiplay/Display.c:1926:75
	adds	r0, #1
	.loc	2 1926 30               @ ../Application/Dsiplay/Display.c:1926:30
	uxtb	r1, r0
	ldrb.w	r1, [r11, r1]
	.loc	2 1926 24               @ ../Application/Dsiplay/Display.c:1926:24
	cmp	r1, #0
	bne	.LBB10_85
	b	.LBB10_128
.Ltmp687:
.LBB10_86:
	@DEBUG_VALUE: OnScreenKeypad:edit_val <- $r5
	.loc	2 1730 13 is_stmt 1     @ ../Application/Dsiplay/Display.c:1730:13
	movw	r2, :lower16:osk_entry_cnt
	.loc	2 1730 5 is_stmt 0      @ ../Application/Dsiplay/Display.c:1730:5
	movw	r0, :lower16:string2
	.loc	2 1730 13               @ ../Application/Dsiplay/Display.c:1730:13
	movt	r2, :upper16:osk_entry_cnt
	.loc	2 1730 5                @ ../Application/Dsiplay/Display.c:1730:5
	movt	r0, :upper16:string2
	b	.LBB10_89
.Ltmp688:
.LBB10_87:
	@DEBUG_VALUE: OnScreenKeypad:edit_val <- $r5
	.loc	2 1737 13 is_stmt 1     @ ../Application/Dsiplay/Display.c:1737:13
	movw	r2, :lower16:osk_entry_cnt
	.loc	2 1737 5 is_stmt 0      @ ../Application/Dsiplay/Display.c:1737:5
	movw	r0, :lower16:string3
	.loc	2 1737 13               @ ../Application/Dsiplay/Display.c:1737:13
	movt	r2, :upper16:osk_entry_cnt
	.loc	2 1737 5                @ ../Application/Dsiplay/Display.c:1737:5
	movt	r0, :upper16:string3
	b	.LBB10_89
.Ltmp689:
.LBB10_88:
	@DEBUG_VALUE: OnScreenKeypad:edit_val <- $r5
	.loc	2 1744 13 is_stmt 1     @ ../Application/Dsiplay/Display.c:1744:13
	movw	r2, :lower16:osk_entry_cnt
	.loc	2 1744 5 is_stmt 0      @ ../Application/Dsiplay/Display.c:1744:5
	movw	r0, :lower16:string4
	.loc	2 1744 13               @ ../Application/Dsiplay/Display.c:1744:13
	movt	r2, :upper16:osk_entry_cnt
	.loc	2 1744 5                @ ../Application/Dsiplay/Display.c:1744:5
	movt	r0, :upper16:string4
.Ltmp690:
.LBB10_89:
	@DEBUG_VALUE: OnScreenKeypad:edit_val <- $r5
	.loc	2 0 0                   @ ../Application/Dsiplay/Display.c:0:0
	ldrb	r3, [r2]
	movs	r1, #0
	cmp	r3, #0
	strb	r1, [r0, r3]
	iteee	eq
	moveq	r2, #0
	subne	r3, #1
	strbne	r3, [r2]
	uxtbne	r2, r3
	strb	r1, [r0, r2]
.Ltmp691:
.LBB10_90:
	@DEBUG_VALUE: OnScreenKeypad:edit_val <- $r5
	movw	r1, :lower16:converted
	movt	r1, :upper16:converted
	bl	Str2Int
.Ltmp692:
.LBB10_91:
	movs	r0, #150
	movs	r1, #15
	bl	GUI_GotoXY
	movw	r0, :lower16:converted
	movt	r0, :upper16:converted
	ldr	r0, [r0]
.Ltmp693:
.LBB10_92:
	add	sp, #12
	pop.w	{r4, r5, r6, r7, r8, r9, r10, r11, lr}
	b	GUI_DispDecMin
.LBB10_93:
.Ltmp694:
	@DEBUG_VALUE: OnScreenKeypad:edit_val <- $r5
	.loc	2 1785 7 is_stmt 1      @ ../Application/Dsiplay/Display.c:1785:7
	cmp	r5, #1
	beq	.LBB10_101
.Ltmp695:
@ %bb.94:
	@DEBUG_VALUE: OnScreenKeypad:edit_val <- $r5
	.loc	2 1790 13               @ ../Application/Dsiplay/Display.c:1790:13
	cmp	r5, #2
	beq.w	.LBB10_135
	b	.LBB10_143
.Ltmp696:
.LBB10_95:
	@DEBUG_VALUE: OnScreenKeypad:edit_val <- $r5
	.loc	2 1764 5                @ ../Application/Dsiplay/Display.c:1764:5
	movw	r4, :lower16:converted
	movw	r0, :lower16:string2
	movt	r4, :upper16:converted
	movt	r0, :upper16:string2
	mov	r1, r4
	bl	Str2Int
.Ltmp697:
	.loc	2 0 0 is_stmt 0         @ ../Application/Dsiplay/Display.c:0:0
	ldr	r0, [r4]
.Ltmp698:
	.loc	2 1765 8 is_stmt 1      @ ../Application/Dsiplay/Display.c:1765:8
	cmp	r5, #1
	bne.w	.LBB10_129
.Ltmp699:
@ %bb.96:
	@DEBUG_VALUE: OnScreenKeypad:edit_val <- $r5
	.loc	2 1765 55 is_stmt 0     @ ../Application/Dsiplay/Display.c:1765:55
	movw	r1, :lower16:ip_address
	movt	r1, :upper16:ip_address
	strb	r0, [r1, #1]
	b	.LBB10_101
.Ltmp700:
.LBB10_97:
	@DEBUG_VALUE: OnScreenKeypad:edit_val <- $r5
	.loc	2 1771 5 is_stmt 1      @ ../Application/Dsiplay/Display.c:1771:5
	movw	r4, :lower16:converted
	movw	r0, :lower16:string3
	movt	r4, :upper16:converted
	movt	r0, :upper16:string3
	mov	r1, r4
	bl	Str2Int
.Ltmp701:
	.loc	2 0 0 is_stmt 0         @ ../Application/Dsiplay/Display.c:0:0
	ldr	r0, [r4]
.Ltmp702:
	.loc	2 1772 8 is_stmt 1      @ ../Application/Dsiplay/Display.c:1772:8
	cmp	r5, #1
	bne.w	.LBB10_131
.Ltmp703:
@ %bb.98:
	@DEBUG_VALUE: OnScreenKeypad:edit_val <- $r5
	.loc	2 1772 55 is_stmt 0     @ ../Application/Dsiplay/Display.c:1772:55
	movw	r1, :lower16:ip_address
	movt	r1, :upper16:ip_address
	strb	r0, [r1, #2]
	b	.LBB10_101
.Ltmp704:
.LBB10_99:
	@DEBUG_VALUE: OnScreenKeypad:edit_val <- $r5
	.loc	2 1778 5 is_stmt 1      @ ../Application/Dsiplay/Display.c:1778:5
	movw	r4, :lower16:converted
	movw	r0, :lower16:string4
	movt	r4, :upper16:converted
	movt	r0, :upper16:string4
	mov	r1, r4
	bl	Str2Int
.Ltmp705:
	.loc	2 0 0 is_stmt 0         @ ../Application/Dsiplay/Display.c:0:0
	ldr	r0, [r4]
.Ltmp706:
	.loc	2 1779 8 is_stmt 1      @ ../Application/Dsiplay/Display.c:1779:8
	cmp	r5, #1
	bne.w	.LBB10_133
.Ltmp707:
@ %bb.100:
	@DEBUG_VALUE: OnScreenKeypad:edit_val <- $r5
	.loc	2 1779 55 is_stmt 0     @ ../Application/Dsiplay/Display.c:1779:55
	movw	r1, :lower16:ip_address
	movt	r1, :upper16:ip_address
	strb	r0, [r1, #3]
.Ltmp708:
.LBB10_101:
	@DEBUG_VALUE: OnScreenKeypad:edit_val <- $r5
	.loc	2 1787 5 is_stmt 1      @ ../Application/Dsiplay/Display.c:1787:5
	movw	r4, :lower16:iptxt
	movs	r1, #20
	movt	r4, :upper16:iptxt
	mov	r0, r4
	bl	ClearBuffer
	.loc	2 1788 42               @ ../Application/Dsiplay/Display.c:1788:42
	movw	r0, :lower16:ip_address
	movt	r0, :upper16:ip_address
	b	.LBB10_144
.Ltmp709:
.LBB10_102:
	.loc	2 2046 6                @ ../Application/Dsiplay/Display.c:2046:6
	movw	r4, :lower16:password_set
	movs	r1, #6
	movt	r4, :upper16:password_set
	mov	r0, r4
	bl	ClearBuffer
	.loc	2 2047 19               @ ../Application/Dsiplay/Display.c:2047:19
	movw	r0, :lower16:osk_entry
	movt	r0, :upper16:osk_entry
	strb	r5, [r0, #5]
	.p2align	2
.LBB10_103:                             @ =>This Inner Loop Header: Depth=1
	.loc	2 2049 12               @ ../Application/Dsiplay/Display.c:2049:12
	uxtb	r2, r5
	.loc	2 0 0 is_stmt 0         @ ../Application/Dsiplay/Display.c:0:0
	mov	r1, r5
	.loc	2 2049 65               @ ../Application/Dsiplay/Display.c:2049:65
	adds	r5, #1
	.loc	2 2049 12               @ ../Application/Dsiplay/Display.c:2049:12
	ldrb	r3, [r0, r2]
	.loc	2 2049 6                @ ../Application/Dsiplay/Display.c:2049:6
	cmp	r3, #0
	bne	.LBB10_103
@ %bb.104:
	.loc	2 0 0                   @ ../Application/Dsiplay/Display.c:0:0
	movw	r5, :lower16:password_set_cnt
	.loc	2 2050 6 is_stmt 1      @ ../Application/Dsiplay/Display.c:2050:6
	mov	r0, r4
	.loc	2 0 0 is_stmt 0         @ ../Application/Dsiplay/Display.c:0:0
	movt	r5, :upper16:password_set_cnt
	strb	r1, [r5]
	.loc	2 2050 6                @ ../Application/Dsiplay/Display.c:2050:6
	movw	r1, :lower16:osk_entry
	movt	r1, :upper16:osk_entry
	bl	__aeabi_memcpy
	movs	r1, #0
	.p2align	2
.LBB10_105:                             @ =>This Inner Loop Header: Depth=1
	.loc	2 0 0                   @ ../Application/Dsiplay/Display.c:0:0
	mov	r0, r1
	.loc	2 2052 12 is_stmt 1     @ ../Application/Dsiplay/Display.c:2052:12
	uxtb	r1, r1
	ldrb	r2, [r4, r1]
	.loc	2 2052 68 is_stmt 0     @ ../Application/Dsiplay/Display.c:2052:68
	adds	r1, r0, #1
	.loc	2 2052 6                @ ../Application/Dsiplay/Display.c:2052:6
	cmp	r2, #0
	bne	.LBB10_105
@ %bb.106:
	.loc	2 0 0                   @ ../Application/Dsiplay/Display.c:0:0
	strb	r0, [r5]
	b	.LBB10_145
.Ltmp710:
.LBB10_107:
	@DEBUG_VALUE: OnScreenKeypad:edit_val <- $r5
	.loc	2 2124 9 is_stmt 1      @ ../Application/Dsiplay/Display.c:2124:9
	movw	r5, :lower16:osk_entry_cnt
.Ltmp711:
	movt	r5, :upper16:osk_entry_cnt
	ldrb	r0, [r5]
.Ltmp712:
	.loc	2 2124 9 is_stmt 0      @ ../Application/Dsiplay/Display.c:2124:9
	cbnz	r0, .LBB10_109
@ %bb.108:
.Ltmp713:
	.loc	2 2126 7 is_stmt 1      @ ../Application/Dsiplay/Display.c:2126:7
	movs	r0, #0
	bl	GUI_SetColor
	.loc	2 2127 7                @ ../Application/Dsiplay/Display.c:2127:7
	movs	r0, #130
	movs	r1, #15
	mov.w	r2, #360
	movs	r3, #50
	bl	GUI_FillRect
.Ltmp714:
.LBB10_109:
	.loc	2 2130 6                @ ../Application/Dsiplay/Display.c:2130:6
	mvn	r0, #-16777216
	bl	GUI_SetColor
	.loc	2 2131 6                @ ../Application/Dsiplay/Display.c:2131:6
	movs	r0, #2
	bl	GUI_SetTextMode
	.loc	2 2132 6                @ ../Application/Dsiplay/Display.c:2132:6
	movw	r0, :lower16:GUI_Font24B_1
	movt	r0, :upper16:GUI_Font24B_1
	bl	GUI_SetFont
.Ltmp715:
	.loc	2 2133 9                @ ../Application/Dsiplay/Display.c:2133:9
	ldrb	r0, [r5]
.Ltmp716:
	.loc	2 2133 9 is_stmt 0      @ ../Application/Dsiplay/Display.c:2133:9
	cmp	r0, #4
	bhi	.LBB10_111
@ %bb.110:
.Ltmp717:
	.loc	2 2133 64               @ ../Application/Dsiplay/Display.c:2133:64
	add.w	r0, r0, r0, lsl #2
	movs	r1, #180
	.loc	2 2133 28               @ ../Application/Dsiplay/Display.c:2133:28
	movs	r2, #15
	.loc	2 2133 70               @ ../Application/Dsiplay/Display.c:2133:70
	add.w	r1, r1, r0, lsl #3
	.loc	2 2133 28               @ ../Application/Dsiplay/Display.c:2133:28
	movs	r0, #42
	bl	GUI_DispCharAt
.Ltmp718:
	.loc	2 2134 29 is_stmt 1     @ ../Application/Dsiplay/Display.c:2134:29
	ldrb	r0, [r5]
.LBB10_111:
	.loc	2 2134 6 is_stmt 0      @ ../Application/Dsiplay/Display.c:2134:6
	movw	r2, :lower16:osk_entry
	.loc	2 2134 29               @ ../Application/Dsiplay/Display.c:2134:29
	adds	r1, r0, #1
	strb	r1, [r5]
	.loc	2 2134 6                @ ../Application/Dsiplay/Display.c:2134:6
	movt	r2, :upper16:osk_entry
	.loc	2 2134 29               @ ../Application/Dsiplay/Display.c:2134:29
	uxtb	r1, r1
	.loc	2 2134 33               @ ../Application/Dsiplay/Display.c:2134:33
	strb	r4, [r2, r0]
	.loc	2 2135 9 is_stmt 1      @ ../Application/Dsiplay/Display.c:2135:9
	cmp	r1, #6
.Ltmp719:
	.loc	2 2135 41 is_stmt 0     @ ../Application/Dsiplay/Display.c:2135:41
	it	hs
	strbhs	r0, [r5]
	b	.LBB10_138
.Ltmp720:
.LBB10_112:
	.loc	2 2108 58 is_stmt 1     @ ../Application/Dsiplay/Display.c:2108:58
	movw	r1, :lower16:password_set_cnt
.Ltmp721:
	.loc	2 2106 20               @ ../Application/Dsiplay/Display.c:2106:20
	movw	r0, :lower16:osk_entry
.Ltmp722:
	.loc	2 2108 58               @ ../Application/Dsiplay/Display.c:2108:58
	movt	r1, :upper16:password_set_cnt
.Ltmp723:
	.loc	2 2106 20               @ ../Application/Dsiplay/Display.c:2106:20
	movt	r0, :upper16:osk_entry
.Ltmp724:
	.loc	2 2108 58               @ ../Application/Dsiplay/Display.c:2108:58
	ldrb	r2, [r1]
	.loc	2 2108 11 is_stmt 0     @ ../Application/Dsiplay/Display.c:2108:11
	movw	r1, :lower16:password_set
.Ltmp725:
	.loc	2 2106 20 is_stmt 1     @ ../Application/Dsiplay/Display.c:2106:20
	strb	r5, [r0, #5]
.Ltmp726:
	.loc	2 2108 11               @ ../Application/Dsiplay/Display.c:2108:11
	movt	r1, :upper16:password_set
	bl	strncmp
.Ltmp727:
	.loc	2 2108 11 is_stmt 0     @ ../Application/Dsiplay/Display.c:2108:11
	cmp	r0, #0
	beq.w	.LBB10_146
@ %bb.113:
.Ltmp728:
	.loc	2 2115 8 is_stmt 1      @ ../Application/Dsiplay/Display.c:2115:8
	adr	r0, .LCPI10_0
	movs	r1, #150
	movs	r2, #15
	bl	GUI_DispStringAt
	.loc	2 2116 8                @ ../Application/Dsiplay/Display.c:2116:8
	movw	r0, :lower16:display_flags
	movt	r0, :upper16:display_flags
	ldr	r0, [r0]
	bic	r0, r0, #128
	b	.LBB10_147
.Ltmp729:
.LBB10_114:
	@DEBUG_VALUE: OnScreenKeypad:edit_val <- $r5
	.loc	2 1759 14               @ ../Application/Dsiplay/Display.c:1759:14
	cmp	r5, #2
	bne.w	.LBB10_139
.Ltmp730:
@ %bb.115:
	@DEBUG_VALUE: OnScreenKeypad:edit_val <- $r5
	.loc	2 1759 66 is_stmt 0     @ ../Application/Dsiplay/Display.c:1759:66
	movw	r1, :lower16:gateway_address
	movt	r1, :upper16:gateway_address
	strb	r0, [r1]
	b	.LBB10_135
.Ltmp731:
.LBB10_116:
	@DEBUG_VALUE: OnScreenKeypad:edit_val <- $r5
	.loc	2 1820 26 is_stmt 1     @ ../Application/Dsiplay/Display.c:1820:26
	movw	r1, :lower16:osk_entry_cnt
	.loc	2 1820 5 is_stmt 0      @ ../Application/Dsiplay/Display.c:1820:5
	movw	r2, :lower16:string2
	.loc	2 1820 26               @ ../Application/Dsiplay/Display.c:1820:26
	movt	r1, :upper16:osk_entry_cnt
	.loc	2 1820 5                @ ../Application/Dsiplay/Display.c:1820:5
	movt	r2, :upper16:string2
	.loc	2 1820 26               @ ../Application/Dsiplay/Display.c:1820:26
	ldrb	r0, [r1]
	adds	r3, r0, #1
	.loc	2 1820 30               @ ../Application/Dsiplay/Display.c:1820:30
	strb	r4, [r2, r0]
	.loc	2 1820 26               @ ../Application/Dsiplay/Display.c:1820:26
	strb	r3, [r1]
	uxtb	r3, r3
	.loc	2 1821 8 is_stmt 1      @ ../Application/Dsiplay/Display.c:1821:8
	cmp	r3, #4
.Ltmp732:
	.loc	2 1823 19               @ ../Application/Dsiplay/Display.c:1823:19
	ittt	hs
	strbhs	r0, [r1]
	movhs	r1, #0
	.loc	2 1824 29               @ ../Application/Dsiplay/Display.c:1824:29
	strbhs	r1, [r2, r0]
.Ltmp733:
	.loc	2 1826 5                @ ../Application/Dsiplay/Display.c:1826:5
	movw	r0, :lower16:string2
	movt	r0, :upper16:string2
	b	.LBB10_90
.Ltmp734:
.LBB10_117:
	@DEBUG_VALUE: OnScreenKeypad:edit_val <- $r5
	.loc	2 1830 26               @ ../Application/Dsiplay/Display.c:1830:26
	movw	r1, :lower16:osk_entry_cnt
	.loc	2 1830 5 is_stmt 0      @ ../Application/Dsiplay/Display.c:1830:5
	movw	r2, :lower16:string3
	.loc	2 1830 26               @ ../Application/Dsiplay/Display.c:1830:26
	movt	r1, :upper16:osk_entry_cnt
	.loc	2 1830 5                @ ../Application/Dsiplay/Display.c:1830:5
	movt	r2, :upper16:string3
	.loc	2 1830 26               @ ../Application/Dsiplay/Display.c:1830:26
	ldrb	r0, [r1]
	adds	r3, r0, #1
	.loc	2 1830 30               @ ../Application/Dsiplay/Display.c:1830:30
	strb	r4, [r2, r0]
	.loc	2 1830 26               @ ../Application/Dsiplay/Display.c:1830:26
	strb	r3, [r1]
	uxtb	r3, r3
	.loc	2 1831 8 is_stmt 1      @ ../Application/Dsiplay/Display.c:1831:8
	cmp	r3, #4
.Ltmp735:
	.loc	2 1833 19               @ ../Application/Dsiplay/Display.c:1833:19
	ittt	hs
	strbhs	r0, [r1]
	movhs	r1, #0
	.loc	2 1834 29               @ ../Application/Dsiplay/Display.c:1834:29
	strbhs	r1, [r2, r0]
.Ltmp736:
	.loc	2 1836 5                @ ../Application/Dsiplay/Display.c:1836:5
	movw	r0, :lower16:string3
	movt	r0, :upper16:string3
	b	.LBB10_90
.Ltmp737:
.LBB10_118:
	@DEBUG_VALUE: OnScreenKeypad:edit_val <- $r5
	.loc	2 1840 26               @ ../Application/Dsiplay/Display.c:1840:26
	movw	r1, :lower16:osk_entry_cnt
	.loc	2 1840 5 is_stmt 0      @ ../Application/Dsiplay/Display.c:1840:5
	movw	r2, :lower16:string4
	.loc	2 1840 26               @ ../Application/Dsiplay/Display.c:1840:26
	movt	r1, :upper16:osk_entry_cnt
	.loc	2 1840 5                @ ../Application/Dsiplay/Display.c:1840:5
	movt	r2, :upper16:string4
	.loc	2 1840 26               @ ../Application/Dsiplay/Display.c:1840:26
	ldrb	r0, [r1]
	adds	r3, r0, #1
	.loc	2 1840 30               @ ../Application/Dsiplay/Display.c:1840:30
	strb	r4, [r2, r0]
	.loc	2 1840 26               @ ../Application/Dsiplay/Display.c:1840:26
	strb	r3, [r1]
	uxtb	r3, r3
	.loc	2 1841 8 is_stmt 1      @ ../Application/Dsiplay/Display.c:1841:8
	cmp	r3, #4
.Ltmp738:
	.loc	2 1843 19               @ ../Application/Dsiplay/Display.c:1843:19
	ittt	hs
	strbhs	r0, [r1]
	movhs	r1, #0
	.loc	2 1844 29               @ ../Application/Dsiplay/Display.c:1844:29
	strbhs	r1, [r2, r0]
.Ltmp739:
	.loc	2 1846 5                @ ../Application/Dsiplay/Display.c:1846:5
	movw	r0, :lower16:string4
	movt	r0, :upper16:string4
	b	.LBB10_90
.Ltmp740:
.LBB10_119:
	.loc	2 1927 35               @ ../Application/Dsiplay/Display.c:1927:35
	movw	r0, :lower16:string2
	movt	r0, :upper16:string2
	ldrb	r0, [r0]
	.loc	2 1927 29 is_stmt 0     @ ../Application/Dsiplay/Display.c:1927:29
	cmp	r0, #0
	beq.w	.LBB10_91
@ %bb.120:
	.loc	2 0 29                  @ ../Application/Dsiplay/Display.c:0:29
	movw	r2, :lower16:string2
	movs	r0, #0
	movt	r2, :upper16:string2
	.p2align	2
.LBB10_121:                             @ =>This Inner Loop Header: Depth=1
	.loc	2 1927 80               @ ../Application/Dsiplay/Display.c:1927:80
	adds	r0, #1
	.loc	2 1927 35               @ ../Application/Dsiplay/Display.c:1927:35
	uxtb	r1, r0
	ldrb	r1, [r2, r1]
	.loc	2 1927 29               @ ../Application/Dsiplay/Display.c:1927:29
	cmp	r1, #0
	bne	.LBB10_121
	b	.LBB10_128
.LBB10_122:
.Ltmp741:
	.loc	2 1928 35 is_stmt 1     @ ../Application/Dsiplay/Display.c:1928:35
