	.text
	.syntax unified
	.eabi_attribute	67, "2.09"	@ Tag_conformance
	.cpu	cortex-m4
	.eabi_attribute	6, 13	@ Tag_CPU_arch
	.eabi_attribute	7, 77	@ Tag_CPU_arch_profile
	.eabi_attribute	8, 0	@ Tag_ARM_ISA_use
	.eabi_attribute	9, 2	@ Tag_THUMB_ISA_use
	.fpu	fpv4-sp-d16
	.eabi_attribute	27, 1	@ Tag_ABI_HardFP_use
	.eabi_attribute	36, 1	@ Tag_FP_HP_extension
	.eabi_attribute	34, 1	@ Tag_CPU_unaligned_access
	.eabi_attribute	17, 1	@ Tag_ABI_PCS_GOT_use
	.eabi_attribute	20, 2	@ Tag_ABI_FP_denormal
	.eabi_attribute	21, 0	@ Tag_ABI_FP_exceptions
	.eabi_attribute	23, 1	@ Tag_ABI_FP_number_model
	.eabi_attribute	24, 1	@ Tag_ABI_align_needed
	.eabi_attribute	25, 1	@ Tag_ABI_align_preserved
	.eabi_attribute	28, 1	@ Tag_ABI_VFP_args
	.eabi_attribute	38, 1	@ Tag_ABI_FP_16bit_format
	.eabi_attribute	18, 2	@ Tag_ABI_PCS_wchar_t
	.eabi_attribute	26, 1	@ Tag_ABI_enum_size
	.eabi_attribute	14, 0	@ Tag_ABI_PCS_R9_use
	.file	"eth_bsp.c"
	.file	1 "C:\\Keil\\ARM\\ARMCLANG\\Bin\\..\\include" "stdint.h"
	.file	2 "F:\\SkyDrive\\OtvoreniProjekti\\HotelSaplast\\fw\\KontrolerHotela\\HC070318\\Project" "../User/ETH_driver/eth_bsp.c"
	.file	3 "F:\\SkyDrive\\OtvoreniProjekti\\HotelSaplast\\fw\\KontrolerHotela\\HC070318\\Project" "../Libraries/STM32F4xx_StdPeriph_Driver/inc\\stm32f4xx_gpio.h"
	.file	4 "F:\\SkyDrive\\OtvoreniProjekti\\HotelSaplast\\fw\\KontrolerHotela\\HC070318\\Project" "../Libraries/CMSIS/Device/ST/STM32F4xx/Include\\stm32f4xx.h"
	.section	.text.eth_init,"ax",%progbits
	.hidden	eth_init                @ -- Begin function eth_init
	.globl	eth_init
	.p2align	1
	.type	eth_init,%function
	.code	16                      @ @eth_init
	.thumb_func
eth_init:
.Lfunc_begin0:
	.loc	2 150 0                 @ ../User/ETH_driver/eth_bsp.c:150:0
	.fnstart
	.cfi_sections .debug_frame
	.cfi_startproc
@ %bb.0:
	.save	{r4, r5, r6, lr}
	push	{r4, r5, r6, lr}
	.cfi_def_cfa_offset 16
	.cfi_offset lr, -4
	.cfi_offset r6, -8
	.cfi_offset r5, -12
	.cfi_offset r4, -16
	.pad	#192
	sub	sp, #192
	.cfi_def_cfa_offset 208
.Ltmp0:
	.loc	2 34 3 prologue_end     @ ../User/ETH_driver/eth_bsp.c:34:3
	movs	r0, #215
	movs	r1, #1
	bl	RCC_AHB1PeriphClockCmd
	.loc	2 39 3                  @ ../User/ETH_driver/eth_bsp.c:39:3
	mov.w	r0, #16384
	movs	r1, #1
	bl	RCC_APB2PeriphClockCmd
	.loc	2 42 3                  @ ../User/ETH_driver/eth_bsp.c:42:3
	movs	r0, #1
	bl	SYSCFG_ETH_MediaInterfaceConfig
	movs	r5, #0
	movs	r0, #134
	add	r4, sp, #4
	.loc	2 45 33                 @ ../User/ETH_driver/eth_bsp.c:45:33
	str	r0, [sp, #4]
	movw	r0, #770
	movt	r5, #16386
	.loc	2 50 3                  @ ../User/ETH_driver/eth_bsp.c:50:3
	mov	r1, r4
	.loc	2 47 33                 @ ../User/ETH_driver/eth_bsp.c:47:33
	str	r0, [sp, #8]
.Ltmp1:
	@DEBUG_VALUE: eth_gpio_init:GPIO_InitStructure <- [DW_OP_plus_uconst 4, DW_OP_deref] $sp
	.loc	2 50 3                  @ ../User/ETH_driver/eth_bsp.c:50:3
	mov	r0, r5
	bl	GPIO_Init
	.loc	2 52 2                  @ ../User/ETH_driver/eth_bsp.c:52:2
	mov	r0, r5
	movs	r1, #1
	movs	r2, #11
	bl	GPIO_PinAFConfig
	.loc	2 53 3                  @ ../User/ETH_driver/eth_bsp.c:53:3
	mov	r0, r5
	movs	r1, #2
	movs	r2, #11
	bl	GPIO_PinAFConfig
	.loc	2 54 3                  @ ../User/ETH_driver/eth_bsp.c:54:3
	mov	r0, r5
	movs	r1, #7
	movs	r2, #11
	bl	GPIO_PinAFConfig
	mov.w	r0, #2048
	.loc	2 58 3                  @ ../User/ETH_driver/eth_bsp.c:58:3
	add.w	r6, r5, #1024
	mov	r1, r4
	.loc	2 57 31                 @ ../User/ETH_driver/eth_bsp.c:57:31
	str	r0, [sp, #4]
	.loc	2 58 3                  @ ../User/ETH_driver/eth_bsp.c:58:3
	mov	r0, r6
	bl	GPIO_Init
	.loc	2 59 2                  @ ../User/ETH_driver/eth_bsp.c:59:2
	mov	r0, r6
	movs	r1, #11
	movs	r2, #11
	bl	GPIO_PinAFConfig
	mov.w	r0, #24576
	.loc	2 62 3                  @ ../User/ETH_driver/eth_bsp.c:62:3
	add.w	r6, r5, #6144
	mov	r1, r4
	.loc	2 61 31                 @ ../User/ETH_driver/eth_bsp.c:61:31
	str	r0, [sp, #4]
	.loc	2 62 3                  @ ../User/ETH_driver/eth_bsp.c:62:3
	mov	r0, r6
	bl	GPIO_Init
	.loc	2 63 2                  @ ../User/ETH_driver/eth_bsp.c:63:2
	mov	r0, r6
	movs	r1, #13
	movs	r2, #11
	bl	GPIO_PinAFConfig
	.loc	2 64 2                  @ ../User/ETH_driver/eth_bsp.c:64:2
	mov	r0, r6
	movs	r1, #14
	movs	r2, #11
	bl	GPIO_PinAFConfig
	movs	r0, #50
	.loc	2 67 3                  @ ../User/ETH_driver/eth_bsp.c:67:3
	add.w	r6, r5, #2048
	mov	r1, r4
	.loc	2 66 31                 @ ../User/ETH_driver/eth_bsp.c:66:31
	str	r0, [sp, #4]
	.loc	2 67 3                  @ ../User/ETH_driver/eth_bsp.c:67:3
	mov	r0, r6
	bl	GPIO_Init
	.loc	2 68 2                  @ ../User/ETH_driver/eth_bsp.c:68:2
	mov	r0, r6
	movs	r1, #1
	movs	r2, #11
	bl	GPIO_PinAFConfig
	.loc	2 69 3                  @ ../User/ETH_driver/eth_bsp.c:69:3
	mov	r0, r6
	movs	r1, #4
	movs	r2, #11
	bl	GPIO_PinAFConfig
	.loc	2 70 3                  @ ../User/ETH_driver/eth_bsp.c:70:3
	mov	r0, r6
	movs	r1, #5
	movs	r2, #11
	bl	GPIO_PinAFConfig
	movs	r0, #8
	.loc	2 79 3                  @ ../User/ETH_driver/eth_bsp.c:79:3
	add.w	r5, r5, #7168
	mov	r1, r4
	.loc	2 74 31                 @ ../User/ETH_driver/eth_bsp.c:74:31
	str	r0, [sp, #4]
	movw	r0, #513
	movt	r0, #256
	.loc	2 75 32                 @ ../User/ETH_driver/eth_bsp.c:75:32
	str	r0, [sp, #8]
	.loc	2 79 3                  @ ../User/ETH_driver/eth_bsp.c:79:3
	mov	r0, r5
	bl	GPIO_Init
	.loc	2 81 3                  @ ../User/ETH_driver/eth_bsp.c:81:3
	mov	r0, r5
	movs	r1, #8
	bl	GPIO_ResetBits
	movw	r4, #3392
	movs	r6, #0
.Ltmp2:
	.loc	2 82 10                 @ ../User/ETH_driver/eth_bsp.c:82:10
	str	r6, [sp]
	movt	r4, #3
	b	.LBB0_2
.Ltmp3:
	.p2align	2
.LBB0_1:                                @   in Loop: Header=BB0_2 Depth=1
	@DEBUG_VALUE: eth_gpio_init:GPIO_InitStructure <- [DW_OP_plus_uconst 4, DW_OP_deref] $sp
	.loc	2 82 28 is_stmt 0       @ ../User/ETH_driver/eth_bsp.c:82:28
	ldr	r0, [sp]
	adds	r0, #1
	str	r0, [sp]
.Ltmp4:
.LBB0_2:                                @ =>This Inner Loop Header: Depth=1
	@DEBUG_VALUE: eth_gpio_init:GPIO_InitStructure <- [DW_OP_plus_uconst 4, DW_OP_deref] $sp
	.loc	2 82 15                 @ ../User/ETH_driver/eth_bsp.c:82:15
	ldr	r0, [sp]
.Ltmp5:
	.loc	2 82 3                  @ ../User/ETH_driver/eth_bsp.c:82:3
	cmp	r0, r4
	blo	.LBB0_1
.Ltmp6:
@ %bb.3:
	@DEBUG_VALUE: eth_gpio_init:GPIO_InitStructure <- [DW_OP_plus_uconst 4, DW_OP_deref] $sp
	.loc	2 83 3 is_stmt 1        @ ../User/ETH_driver/eth_bsp.c:83:3
	mov	r0, r5
	movs	r1, #8
	bl	GPIO_SetBits
.Ltmp7:
	.loc	2 84 10                 @ ../User/ETH_driver/eth_bsp.c:84:10
	str	r6, [sp]
	b	.LBB0_5
.Ltmp8:
	.p2align	2
.LBB0_4:                                @   in Loop: Header=BB0_5 Depth=1
	@DEBUG_VALUE: eth_gpio_init:GPIO_InitStructure <- [DW_OP_plus_uconst 4, DW_OP_deref] $sp
	.loc	2 84 28 is_stmt 0       @ ../User/ETH_driver/eth_bsp.c:84:28
	ldr	r0, [sp]
	adds	r0, #1
	str	r0, [sp]
.Ltmp9:
.LBB0_5:                                @ =>This Inner Loop Header: Depth=1
	@DEBUG_VALUE: eth_gpio_init:GPIO_InitStructure <- [DW_OP_plus_uconst 4, DW_OP_deref] $sp
	.loc	2 84 15                 @ ../User/ETH_driver/eth_bsp.c:84:15
	ldr	r0, [sp]
.Ltmp10:
	.loc	2 84 3                  @ ../User/ETH_driver/eth_bsp.c:84:3
	cmp	r0, r4
	blo	.LBB0_4
.Ltmp11:
@ %bb.6:
	.loc	2 96 3 is_stmt 1        @ ../User/ETH_driver/eth_bsp.c:96:3
	mov.w	r0, #234881024
	movs	r1, #1
	bl	RCC_AHB1PeriphClockCmd
	.loc	2 99 3                  @ ../User/ETH_driver/eth_bsp.c:99:3
	bl	ETH_DeInit
	.loc	2 101 3                 @ ../User/ETH_driver/eth_bsp.c:101:3
	bl	ETH_SoftwareReset
	.p2align	2
.LBB0_7:                                @ =>This Inner Loop Header: Depth=1
	.loc	2 103 10                @ ../User/ETH_driver/eth_bsp.c:103:10
	bl	ETH_GetSoftwareResetStatus
	.loc	2 103 3 is_stmt 0       @ ../User/ETH_driver/eth_bsp.c:103:3
	cmp	r0, #1
	beq	.LBB0_7
@ %bb.8:
.Ltmp12:
	@DEBUG_VALUE: eth_macdma_init:ETH_InitStructure <- [DW_OP_plus_uconst 4, DW_OP_deref] $sp
	.loc	2 0 3                   @ ../User/ETH_driver/eth_bsp.c:0:3
	add	r4, sp, #4
	.loc	2 105 3 is_stmt 1       @ ../User/ETH_driver/eth_bsp.c:105:3
	mov	r0, r4
	bl	ETH_StructInit
	mov.w	r0, #16384
	movs	r1, #4
	mov.w	r2, #2097152
	.loc	2 138 40                @ ../User/ETH_driver/eth_bsp.c:138:40
	str	r0, [sp, #188]
	mov.w	r0, #8192
	.loc	2 137 42                @ ../User/ETH_driver/eth_bsp.c:137:42
	str	r0, [sp, #180]
	mov.w	r0, #4194304
	.loc	2 136 42                @ ../User/ETH_driver/eth_bsp.c:136:42
	str	r0, [sp, #176]
	mov.w	r0, #65536
	.loc	2 135 36                @ ../User/ETH_driver/eth_bsp.c:135:36
	str	r0, [sp, #172]
	mov.w	r0, #33554432
	.loc	2 134 45                @ ../User/ETH_driver/eth_bsp.c:134:45
	str	r0, [sp, #168]
	.loc	2 133 44                @ ../User/ETH_driver/eth_bsp.c:133:44
	str	r1, [sp, #164]
	movs	r1, #0
	.loc	2 131 44                @ ../User/ETH_driver/eth_bsp.c:131:44
	strd	r1, r1, [sp, #152]
	.loc	2 129 46                @ ../User/ETH_driver/eth_bsp.c:129:46
	str	r2, [sp, #144]
	.loc	2 127 53                @ ../User/ETH_driver/eth_bsp.c:127:53
	strd	r1, r0, [sp, #132]
	mov.w	r0, #512
	.loc	2 117 45                @ ../User/ETH_driver/eth_bsp.c:117:45
	str	r1, [sp, #88]
	.loc	2 115 41                @ ../User/ETH_driver/eth_bsp.c:115:41
	strd	r1, r1, [sp, #80]
	.loc	2 114 50                @ ../User/ETH_driver/eth_bsp.c:114:50
	str	r1, [sp, #72]
	.loc	2 113 36                @ ../User/ETH_driver/eth_bsp.c:113:36
	str	r1, [sp, #60]
	.loc	2 112 46                @ ../User/ETH_driver/eth_bsp.c:112:46
	str	r1, [sp, #48]
	.loc	2 111 43                @ ../User/ETH_driver/eth_bsp.c:111:43
	str	r0, [sp, #44]
	movs	r0, #1
	.loc	2 110 38                @ ../User/ETH_driver/eth_bsp.c:110:38
	str	r1, [sp, #32]
	.loc	2 141 19                @ ../User/ETH_driver/eth_bsp.c:141:19
	movs	r1, #1
	.loc	2 109 41                @ ../User/ETH_driver/eth_bsp.c:109:41
	str	r0, [sp, #4]
	.loc	2 141 19                @ ../User/ETH_driver/eth_bsp.c:141:19
	mov	r0, r4
	bl	ETH_Init
	.loc	2 141 17 is_stmt 0      @ ../User/ETH_driver/eth_bsp.c:141:17
	movw	r1, :lower16:EthInitStatus
	movt	r1, :upper16:EthInitStatus
	str	r0, [r1]
.Ltmp13:
	.loc	2 156 7 is_stmt 1       @ ../User/ETH_driver/eth_bsp.c:156:7
	ldr	r0, [r1]
.Ltmp14:
	.loc	2 156 7 is_stmt 0       @ ../User/ETH_driver/eth_bsp.c:156:7
	cbz	r0, .LBB0_10
.Ltmp15:
@ %bb.9:
	.loc	2 159 1 is_stmt 1       @ ../User/ETH_driver/eth_bsp.c:159:1
	add	sp, #192
	pop	{r4, r5, r6, pc}
	.p2align	2
.LBB0_10:                               @ =>This Inner Loop Header: Depth=1
.Ltmp16:
	.loc	2 157 5                 @ ../User/ETH_driver/eth_bsp.c:157:5
	b	.LBB0_10
.Ltmp17:
.Lfunc_end0:
	.size	eth_init, .Lfunc_end0-eth_init
	.cfi_endproc
	.file	5 "F:\\SkyDrive\\OtvoreniProjekti\\HotelSaplast\\fw\\KontrolerHotela\\HC070318\\Project" "../User/ETH_driver/stm32f4x7_eth.h"
	.cantunwind
	.fnend
                                        @ -- End function
	.hidden	EthInitStatus           @ @EthInitStatus
	.type	EthInitStatus,%object
	.section	.bss.EthInitStatus,"aw",%nobits
	.globl	EthInitStatus
	.p2align	2
EthInitStatus:
	.long	0                       @ 0x0
	.size	EthInitStatus, 4

	.section	".note.GNU-stack","",%progbits
	.eabi_attribute	30, 3	@ Tag_ABI_optimization_goals
	.ARM_attribute	16, 1	@ Tag_AV_eba