	.text
	.syntax unified
	.eabi_attribute	67, "2.09"	@ Tag_conformance
	.cpu	cortex-m4
	.eabi_attribute	6, 13	@ Tag_CPU_arch
	.eabi_attribute	7, 77	@ Tag_CPU_arch_profile
	.eabi_attribute	8, 0	@ Tag_ARM_ISA_use
	.eabi_attribute	9, 2	@ Tag_THUMB_ISA_use
	.fpu	fpv4-sp-d16
	.eabi_attribute	27, 1	@ Tag_ABI_HardFP_use
	.eabi_attribute	36, 1	@ Tag_FP_HP_extension
	.eabi_attribute	34, 1	@ Tag_CPU_unaligned_access
	.eabi_attribute	17, 1	@ Tag_ABI_PCS_GOT_use
	.eabi_attribute	20, 2	@ Tag_ABI_FP_denormal
	.eabi_attribute	21, 0	@ Tag_ABI_FP_exceptions
	.eabi_attribute	23, 1	@ Tag_ABI_FP_number_model
	.eabi_attribute	24, 1	@ Tag_ABI_align_needed
	.eabi_attribute	25, 1	@ Tag_ABI_align_preserved
	.eabi_attribute	28, 1	@ Tag_ABI_VFP_args
	.eabi_attribute	38, 1	@ Tag_ABI_FP_16bit_format
	.eabi_attribute	18, 2	@ Tag_ABI_PCS_wchar_t
	.eabi_attribute	26, 1	@ Tag_ABI_enum_size
	.eabi_attribute	14, 0	@ Tag_ABI_PCS_R9_use
	.file	"etharp.c"
	.file	1 "F:\\SkyDrive\\OtvoreniProjekti\\HotelSaplast\\fw\\KontrolerHotela\\HC070318\\Project" "../Libraries/lwip-1.4.1/port/arch\\cc.h"
	.file	2 "F:\\SkyDrive\\OtvoreniProjekti\\HotelSaplast\\fw\\KontrolerHotela\\HC070318\\Project" "../Libraries/lwip-1.4.1/src/include\\netif/etharp.h"
	.file	3 "F:\\SkyDrive\\OtvoreniProjekti\\HotelSaplast\\fw\\KontrolerHotela\\HC070318\\Project" "../Libraries/lwip-1.4.1/src/netif/etharp.c"
	.file	4 "F:\\SkyDrive\\OtvoreniProjekti\\HotelSaplast\\fw\\KontrolerHotela\\HC070318\\Project" "../Libraries/lwip-1.4.1/src/include\\lwip/pbuf.h"
	.file	5 "F:\\SkyDrive\\OtvoreniProjekti\\HotelSaplast\\fw\\KontrolerHotela\\HC070318\\Project" "../Libraries/lwip-1.4.1/src/include/ipv4\\lwip/ip_addr.h"
	.file	6 "F:\\SkyDrive\\OtvoreniProjekti\\HotelSaplast\\fw\\KontrolerHotela\\HC070318\\Project" "../Libraries/lwip-1.4.1/src/include\\lwip/netif.h"
	.file	7 "F:\\SkyDrive\\OtvoreniProjekti\\HotelSaplast\\fw\\KontrolerHotela\\HC070318\\Project" "../Libraries/lwip-1.4.1/src/include\\lwip/err.h"
	.section	.text.etharp_tmr,"ax",%progbits
	.hidden	etharp_tmr              @ -- Begin function etharp_tmr
	.globl	etharp_tmr
	.p2align	1
	.type	etharp_tmr,%function
	.code	16                      @ @etharp_tmr
	.thumb_func
etharp_tmr:
.Lfunc_begin0:
	.loc	3 207 0                 @ ../Libraries/lwip-1.4.1/src/netif/etharp.c:207:0
	.fnstart
	.cfi_sections .debug_frame
	.cfi_startproc
@ %bb.0:
	.save	{r4, r5, r6, r7, r8, lr}
	push.w	{r4, r5, r6, r7, r8, lr}
	.cfi_def_cfa_offset 24
	.cfi_offset lr, -4
	.cfi_offset r8, -8
	.cfi_offset r7, -12
	.cfi_offset r6, -16
	.cfi_offset r5, -20
	.cfi_offset r4, -24
	movw	r5, :lower16:arp_table
	movs	r4, #0
.Ltmp0:
	@DEBUG_VALUE: etharp_tmr:i <- 0
	mov.w	r8, #2
	movs	r7, #0
	movt	r5, :upper16:arp_table
	.p2align	2
.LBB0_1:                                @ =>This Inner Loop Header: Depth=1
.Ltmp1:
	@DEBUG_VALUE: etharp_tmr:i <- undef
	.loc	3 213 31 prologue_end   @ ../Libraries/lwip-1.4.1/src/netif/etharp.c:213:31
	adds	r6, r5, r7
	ldrb	r0, [r6, #18]
.Ltmp2:
	@DEBUG_VALUE: state <- $r0
	.loc	3 214 9                 @ ../Libraries/lwip-1.4.1/src/netif/etharp.c:214:9
	cbz	r0, .LBB0_10
.Ltmp3:
@ %bb.2:                                @   in Loop: Header=BB0_1 Depth=1
	@DEBUG_VALUE: state <- $r0
	.loc	3 219 25                @ ../Libraries/lwip-1.4.1/src/netif/etharp.c:219:25
	ldrb	r1, [r6, #19]
	adds	r1, #1
	strb	r1, [r6, #19]
	uxtb	r1, r1
.Ltmp4:
	.loc	3 220 46                @ ../Libraries/lwip-1.4.1/src/netif/etharp.c:220:46
	cmp	r1, #239
	bls	.LBB0_6
.Ltmp5:
.LBB0_3:                                @   in Loop: Header=BB0_1 Depth=1
	@DEBUG_VALUE: state <- $r0
	@DEBUG_VALUE: etharp_free_entry:i <- undef
	.loc	3 182 20                @ ../Libraries/lwip-1.4.1/src/netif/etharp.c:182:20
	ldr	r0, [r5, r7]
.Ltmp6:
	.loc	3 182 7 is_stmt 0       @ ../Libraries/lwip-1.4.1/src/netif/etharp.c:182:7
	cbz	r0, .LBB0_5
@ %bb.4:                                @   in Loop: Header=BB0_1 Depth=1
.Ltmp7:
	.loc	3 185 5 is_stmt 1       @ ../Libraries/lwip-1.4.1/src/netif/etharp.c:185:5
	bl	pbuf_free
	.loc	3 186 20                @ ../Libraries/lwip-1.4.1/src/netif/etharp.c:186:20
	str	r4, [r5, r7]
.Ltmp8:
.LBB0_5:                                @   in Loop: Header=BB0_1 Depth=1
	.loc	3 189 22                @ ../Libraries/lwip-1.4.1/src/netif/etharp.c:189:22
	strb	r4, [r6, #18]
	b	.LBB0_10
.Ltmp9:
	.p2align	2
.LBB0_6:                                @   in Loop: Header=BB0_1 Depth=1
	@DEBUG_VALUE: state <- $r0
	.loc	3 221 58                @ ../Libraries/lwip-1.4.1/src/netif/etharp.c:221:58
	cmp	r0, #3
	beq	.LBB0_9
.Ltmp10:
@ %bb.7:                                @   in Loop: Header=BB0_1 Depth=1
	@DEBUG_VALUE: state <- $r0
	cmp	r0, #1
	bne	.LBB0_10
.Ltmp11:
@ %bb.8:                                @   in Loop: Header=BB0_1 Depth=1
	@DEBUG_VALUE: state <- $r0
	.loc	3 220 11                @ ../Libraries/lwip-1.4.1/src/netif/etharp.c:220:11
	cmp	r1, #2
	bhs	.LBB0_3
	b	.LBB0_10
.Ltmp12:
.LBB0_9:                                @   in Loop: Header=BB0_1 Depth=1
	@DEBUG_VALUE: state <- $r0
	.loc	3 232 28                @ ../Libraries/lwip-1.4.1/src/netif/etharp.c:232:28
	strb.w	r8, [r6, #18]
.Ltmp13:
	.p2align	2
.LBB0_10:                               @   in Loop: Header=BB0_1 Depth=1
	@DEBUG_VALUE: etharp_tmr:i <- [DW_OP_plus_uconst 1, DW_OP_stack_value] undef
	.loc	3 212 17                @ ../Libraries/lwip-1.4.1/src/netif/etharp.c:212:17
	adds	r7, #20
.Ltmp14:
	.loc	3 212 3 is_stmt 0       @ ../Libraries/lwip-1.4.1/src/netif/etharp.c:212:3
	cmp	r7, #200
.Ltmp15:
	.loc	3 242 1 is_stmt 1       @ ../Libraries/lwip-1.4.1/src/netif/etharp.c:242:1
	it	eq
	popeq.w	{r4, r5, r6, r7, r8, pc}
	b	.LBB0_1
.Ltmp16:
.Lfunc_end0:
	.size	etharp_tmr, .Lfunc_end0-etharp_tmr
	.cfi_endproc
	.cantunwind
	.fnend
                                        @ -- End function
	.section	.text.etharp_cleanup_netif,"ax",%progbits
	.hidden	etharp_cleanup_netif    @ -- Begin function etharp_cleanup_netif
	.globl	etharp_cleanup_netif
	.p2align	1
	.type	etharp_cleanup_netif,%function
	.code	16                      @ @etharp_cleanup_netif
	.thumb_func
etharp_cleanup_netif:
.Lfunc_begin1:
	.loc	3 580 0                 @ ../Libraries/lwip-1.4.1/src/netif/etharp.c:580:0
	.fnstart
	.cfi_startproc
@ %bb.0:
	.save	{r4, r5, r6, r7, r8, lr}
	push.w	{r4, r5, r6, r7, r8, lr}
	.cfi_def_cfa_offset 24
	.cfi_offset lr, -4
	.cfi_offset r8, -8
	.cfi_offset r7, -12
	.cfi_offset r6, -16
	.cfi_offset r5, -20
	.cfi_offset r4, -24
	@DEBUG_VALUE: etharp_cleanup_netif:netif <- $r0
	movw	r6, :lower16:arp_table
	mov	r4, r0
.Ltmp17:
	@DEBUG_VALUE: etharp_cleanup_netif:netif <- $r4
	mov.w	r8, #0
.Ltmp18:
	@DEBUG_VALUE: etharp_cleanup_netif:i <- 0
	movs	r7, #0
	movt	r6, :upper16:arp_table
.Ltmp19:
	.p2align	2
.LBB1_1:                                @ =>This Inner Loop Header: Depth=1
	@DEBUG_VALUE: etharp_cleanup_netif:netif <- $r4
	@DEBUG_VALUE: etharp_cleanup_netif:i <- undef
	.loc	3 584 31 prologue_end   @ ../Libraries/lwip-1.4.1/src/netif/etharp.c:584:31
	adds	r5, r6, r7
	ldrb	r0, [r5, #18]
.Ltmp20:
	@DEBUG_VALUE: state <- $r0
	.loc	3 585 39                @ ../Libraries/lwip-1.4.1/src/netif/etharp.c:585:39
	cbz	r0, .LBB1_6
.Ltmp21:
@ %bb.2:                                @   in Loop: Header=BB1_1 Depth=1
	@DEBUG_VALUE: state <- $r0
	@DEBUG_VALUE: etharp_cleanup_netif:netif <- $r4
	.loc	3 585 56 is_stmt 0      @ ../Libraries/lwip-1.4.1/src/netif/etharp.c:585:56
	ldr	r0, [r5, #8]
.Ltmp22:
	.loc	3 585 9                 @ ../Libraries/lwip-1.4.1/src/netif/etharp.c:585:9
	cmp	r0, r4
	bne	.LBB1_6
.Ltmp23:
@ %bb.3:                                @   in Loop: Header=BB1_1 Depth=1
	@DEBUG_VALUE: etharp_cleanup_netif:netif <- $r4
	@DEBUG_VALUE: etharp_free_entry:i <- undef
	.loc	3 182 20 is_stmt 1      @ ../Libraries/lwip-1.4.1/src/netif/etharp.c:182:20
	ldr	r0, [r6, r7]
.Ltmp24:
	.loc	3 182 7 is_stmt 0       @ ../Libraries/lwip-1.4.1/src/netif/etharp.c:182:7
	cbz	r0, .LBB1_5
.Ltmp25:
@ %bb.4:                                @   in Loop: Header=BB1_1 Depth=1
	@DEBUG_VALUE: etharp_cleanup_netif:netif <- $r4
	.loc	3 185 5 is_stmt 1       @ ../Libraries/lwip-1.4.1/src/netif/etharp.c:185:5
	bl	pbuf_free
	.loc	3 186 20                @ ../Libraries/lwip-1.4.1/src/netif/etharp.c:186:20
	str.w	r8, [r6, r7]
.Ltmp26:
.LBB1_5:                                @   in Loop: Header=BB1_1 Depth=1
	@DEBUG_VALUE: etharp_cleanup_netif:netif <- $r4
	.loc	3 189 22                @ ../Libraries/lwip-1.4.1/src/netif/etharp.c:189:22
	strb.w	r8, [r5, #18]
.Ltmp27:
.LBB1_6:                                @   in Loop: Header=BB1_1 Depth=1
	@DEBUG_VALUE: etharp_cleanup_netif:netif <- $r4
	@DEBUG_VALUE: etharp_cleanup_netif:i <- [DW_OP_plus_uconst 1, DW_OP_stack_value] undef
	.loc	3 583 17                @ ../Libraries/lwip-1.4.1/src/netif/etharp.c:583:17
	adds	r7, #20
.Ltmp28:
	.loc	3 583 3 is_stmt 0       @ ../Libraries/lwip-1.4.1/src/netif/etharp.c:583:3
	cmp	r7, #200
.Ltmp29:
	.loc	3 589 1 is_stmt 1       @ ../Libraries/lwip-1.4.1/src/netif/etharp.c:589:1
	it	eq
	popeq.w	{r4, r5, r6, r7, r8, pc}
.Ltmp30:
	.loc	3 0 1 is_stmt 0         @ ../Libraries/lwip-1.4.1/src/netif/etharp.c:0:1
	b	.LBB1_1
.Ltmp31:
.Lfunc_end1:
	.size	etharp_cleanup_netif, .Lfunc_end1-etharp_cleanup_netif
	.cfi_endproc
	.cantunwind
	.fnend
                                        @ -- End function
	.section	.text.etharp_find_addr,"ax",%progbits
	.hidden	etharp_find_addr        @ -- Begin function etharp_find_addr
	.globl	etharp_find_addr
	.p2align	1
	.type	etharp_find_addr,%function
	.code	16                      @ @etharp_find_addr
	.thumb_func
etharp_find_addr:
.Lfunc_begin2:
	.loc	3 605 0 is_stmt 1       @ ../Libraries/lwip-1.4.1/src/netif/etharp.c:605:0
	.fnstart
	.cfi_startproc
@ %bb.0:
	.save	{r4, r5, r7, lr}
	push	{r4, r5, r7, lr}
	.cfi_def_cfa_offset 16
	.cfi_offset lr, -4
	.cfi_offset r7, -8
	.cfi_offset r5, -12
	.cfi_offset r4, -16
	@DEBUG_VALUE: etharp_find_addr:netif <- $r0
	@DEBUG_VALUE: etharp_find_addr:ipaddr <- $r1
	@DEBUG_VALUE: etharp_find_addr:eth_ret <- $r2
	@DEBUG_VALUE: etharp_find_addr:ip_ret <- $r3
	mov	r0, r1
.Ltmp32:
	@DEBUG_VALUE: etharp_find_addr:ip_ret <- $r4
	@DEBUG_VALUE: etharp_find_addr:eth_ret <- $r5
	@DEBUG_VALUE: etharp_find_addr:ipaddr <- $r0
	@DEBUG_VALUE: etharp_find_addr:ipaddr <- $r0
	.loc	3 613 7 prologue_end    @ ../Libraries/lwip-1.4.1/src/netif/etharp.c:613:7
	movs	r1, #2
	mov	r4, r3
.Ltmp33:
	.loc	3 0 7 is_stmt 0         @ ../Libraries/lwip-1.4.1/src/netif/etharp.c:0:7
	mov	r5, r2
.Ltmp34:
	.loc	3 613 7                 @ ../Libraries/lwip-1.4.1/src/netif/etharp.c:613:7
	bl	etharp_find_entry
.Ltmp35:
	@DEBUG_VALUE: etharp_find_addr:i <- $r0
	.loc	3 614 15 is_stmt 1      @ ../Libraries/lwip-1.4.1/src/netif/etharp.c:614:15
	cmp	r0, #0
	blt	.LBB2_3
.Ltmp36:
@ %bb.1:
	@DEBUG_VALUE: etharp_find_addr:i <- $r0
	.loc	3 614 32 is_stmt 0      @ ../Libraries/lwip-1.4.1/src/netif/etharp.c:614:32
	movw	r1, :lower16:arp_table
	add.w	r2, r0, r0, lsl #2
	movt	r1, :upper16:arp_table
	add.w	r2, r1, r2, lsl #2
	ldrb	r2, [r2, #18]
.Ltmp37:
	.loc	3 614 6                 @ ../Libraries/lwip-1.4.1/src/netif/etharp.c:614:6
	cmp	r2, #2
	blo	.LBB2_3
.Ltmp38:
@ %bb.2:
	@DEBUG_VALUE: etharp_find_addr:i <- $r0
	.loc	3 615 32 is_stmt 1      @ ../Libraries/lwip-1.4.1/src/netif/etharp.c:615:32
	add.w	r2, r0, r0, lsl #2
	add.w	r1, r1, r2, lsl #2
	add.w	r2, r1, #12
	.loc	3 616 31                @ ../Libraries/lwip-1.4.1/src/netif/etharp.c:616:31
	adds	r1, #4
	.loc	3 615 16                @ ../Libraries/lwip-1.4.1/src/netif/etharp.c:615:16
	str	r2, [r5]
	.loc	3 616 15                @ ../Libraries/lwip-1.4.1/src/netif/etharp.c:616:15
	str	r1, [r4]
	b	.LBB2_4
.Ltmp39:
.LBB2_3:
	@DEBUG_VALUE: etharp_find_addr:i <- $r0
	.loc	3 0 15 is_stmt 0        @ ../Libraries/lwip-1.4.1/src/netif/etharp.c:0:15
	movs	r0, #255
.Ltmp40:
.LBB2_4:
	.loc	3 620 1 is_stmt 1       @ ../Libraries/lwip-1.4.1/src/netif/etharp.c:620:1
	sxtb	r0, r0
	pop	{r4, r5, r7, pc}
.Ltmp41:
.Lfunc_end2:
	.size	etharp_find_addr, .Lfunc_end2-etharp_find_addr
	.cfi_endproc
	.cantunwind
	.fnend
                                        @ -- End function
	.section	.text.etharp_find_entry,"ax",%progbits
	.p2align	1               @ -- Begin function etharp_find_entry
	.type	etharp_find_entry,%function
	.code	16                      @ @etharp_find_entry
	.thumb_func
etharp_find_entry:
.Lfunc_begin3:
	.loc	3 267 0                 @ ../Libraries/lwip-1.4.1/src/netif/etharp.c:267:0
	.fnstart
	.cfi_startproc
@ %bb.0:
	.save	{r4, r5, r6, r7, r8, r9, r10, r11, lr}
	push.w	{r4, r5, r6, r7, r8, r9, r10, r11, lr}
	.cfi_def_cfa_offset 36
	.cfi_offset lr, -4
	.cfi_offset r11, -8
	.cfi_offset r10, -12
	.cfi_offset r9, -16
	.cfi_offset r8, -20
	.cfi_offset r7, -24
	.cfi_offset r6, -28
	.cfi_offset r5, -32
	.cfi_offset r4, -36
	.pad	#4
	sub	sp, #4
	.cfi_def_cfa_offset 40
	@DEBUG_VALUE: etharp_find_entry:ipaddr <- $r0
	@DEBUG_VALUE: etharp_find_entry:flags <- $r1
	mov	r4, r0
.Ltmp42:
	@DEBUG_VALUE: etharp_find_entry:ipaddr <- $r4
	movw	r0, :lower16:arp_table
	str	r1, [sp]                @ 4-byte Spill
.Ltmp43:
	@DEBUG_VALUE: etharp_find_entry:flags <- [$sp+0]
	mov.w	lr, #10
	movs	r7, #0
.Ltmp44:
	@DEBUG_VALUE: etharp_find_entry:age_queue <- 0
	@DEBUG_VALUE: etharp_find_entry:old_queue <- 10
	@DEBUG_VALUE: etharp_find_entry:age_stable <- 0
	@DEBUG_VALUE: etharp_find_entry:age_pending <- 0
	@DEBUG_VALUE: etharp_find_entry:i <- 0
	@DEBUG_VALUE: etharp_find_entry:empty <- 10
	@DEBUG_VALUE: etharp_find_entry:old_stable <- 10
	@DEBUG_VALUE: etharp_find_entry:old_pending <- 10
	mov.w	r11, #0
	mov.w	r9, #0
	mov.w	r10, #10
	mov.w	r8, #10
	movs	r1, #10
	movt	r0, :upper16:arp_table
	add.w	r5, r0, #19
	movs	r0, #0
.Ltmp45:
	.p2align	2
.LBB3_1:                                @ =>This Inner Loop Header: Depth=1
	@DEBUG_VALUE: etharp_find_entry:flags <- [$sp+0]
	@DEBUG_VALUE: etharp_find_entry:ipaddr <- $r4
	@DEBUG_VALUE: etharp_find_entry:old_pending <- $r1
	@DEBUG_VALUE: etharp_find_entry:old_stable <- $r8
	@DEBUG_VALUE: etharp_find_entry:empty <- $r10
	@DEBUG_VALUE: etharp_find_entry:i <- $r7
	@DEBUG_VALUE: etharp_find_entry:age_pending <- $r9
	@DEBUG_VALUE: etharp_find_entry:age_stable <- $r0
	@DEBUG_VALUE: etharp_find_entry:old_queue <- $lr
	@DEBUG_VALUE: etharp_find_entry:age_queue <- $r11
	.loc	3 0 0 prologue_end      @ ../Libraries/lwip-1.4.1/src/netif/etharp.c:0:0
	mov	r6, r10
	uxtb	r2, r7
	cmp.w	r10, #10
	it	eq
	moveq	r6, r2
	.loc	3 292 31                @ ../Libraries/lwip-1.4.1/src/netif/etharp.c:292:31
	ldrb	r3, [r5, #-1]
.Ltmp46:
	@DEBUG_VALUE: state <- $r3
	.loc	3 0 0 is_stmt 0         @ ../Libraries/lwip-1.4.1/src/netif/etharp.c:0:0
	cbz	r3, .LBB3_7
.Ltmp47:
@ %bb.2:                                @   in Loop: Header=BB3_1 Depth=1
	@DEBUG_VALUE: state <- $r3
	@DEBUG_VALUE: etharp_find_entry:age_queue <- $r11
	@DEBUG_VALUE: etharp_find_entry:old_queue <- $lr
	@DEBUG_VALUE: etharp_find_entry:age_stable <- $r0
	@DEBUG_VALUE: etharp_find_entry:age_pending <- $r9
	@DEBUG_VALUE: etharp_find_entry:i <- $r7
	@DEBUG_VALUE: etharp_find_entry:empty <- $r10
	@DEBUG_VALUE: etharp_find_entry:old_stable <- $r8
	@DEBUG_VALUE: etharp_find_entry:old_pending <- $r1
	@DEBUG_VALUE: etharp_find_entry:flags <- [$sp+0]
	@DEBUG_VALUE: etharp_find_entry:ipaddr <- $r4
	.loc	3 302 18 is_stmt 1      @ ../Libraries/lwip-1.4.1/src/netif/etharp.c:302:18
	cbz	r4, .LBB3_4
.Ltmp48:
@ %bb.3:                                @   in Loop: Header=BB3_1 Depth=1
	@DEBUG_VALUE: state <- $r3
	@DEBUG_VALUE: etharp_find_entry:age_queue <- $r11
	@DEBUG_VALUE: etharp_find_entry:old_queue <- $lr
	@DEBUG_VALUE: etharp_find_entry:age_stable <- $r0
	@DEBUG_VALUE: etharp_find_entry:age_pending <- $r9
	@DEBUG_VALUE: etharp_find_entry:i <- $r7
	@DEBUG_VALUE: etharp_find_entry:empty <- $r10
	@DEBUG_VALUE: etharp_find_entry:old_stable <- $r8
	@DEBUG_VALUE: etharp_find_entry:old_pending <- $r1
	@DEBUG_VALUE: etharp_find_entry:flags <- [$sp+0]
	@DEBUG_VALUE: etharp_find_entry:ipaddr <- $r4
	.loc	3 302 21 is_stmt 0      @ ../Libraries/lwip-1.4.1/src/netif/etharp.c:302:21
	ldr	r6, [r5, #-15]
	ldr.w	r12, [r4]
.Ltmp49:
	.loc	3 302 11                @ ../Libraries/lwip-1.4.1/src/netif/etharp.c:302:11
	cmp	r12, r6
	beq	.LBB3_14
.Ltmp50:
.LBB3_4:                                @   in Loop: Header=BB3_1 Depth=1
	@DEBUG_VALUE: state <- $r3
	@DEBUG_VALUE: etharp_find_entry:age_queue <- $r11
	@DEBUG_VALUE: etharp_find_entry:old_queue <- $lr
	@DEBUG_VALUE: etharp_find_entry:age_stable <- $r0
	@DEBUG_VALUE: etharp_find_entry:age_pending <- $r9
	@DEBUG_VALUE: etharp_find_entry:i <- $r7
	@DEBUG_VALUE: etharp_find_entry:empty <- $r10
	@DEBUG_VALUE: etharp_find_entry:old_stable <- $r8
	@DEBUG_VALUE: etharp_find_entry:old_pending <- $r1
	@DEBUG_VALUE: etharp_find_entry:flags <- [$sp+0]
	@DEBUG_VALUE: etharp_find_entry:ipaddr <- $r4
	.loc	3 308 11 is_stmt 1      @ ../Libraries/lwip-1.4.1/src/netif/etharp.c:308:11
	cmp	r3, #1
	bne	.LBB3_8
.Ltmp51:
@ %bb.5:                                @   in Loop: Header=BB3_1 Depth=1
	@DEBUG_VALUE: state <- $r3
	@DEBUG_VALUE: etharp_find_entry:age_queue <- $r11
	@DEBUG_VALUE: etharp_find_entry:old_queue <- $lr
	@DEBUG_VALUE: etharp_find_entry:age_stable <- $r0
	@DEBUG_VALUE: etharp_find_entry:age_pending <- $r9
	@DEBUG_VALUE: etharp_find_entry:i <- $r7
	@DEBUG_VALUE: etharp_find_entry:empty <- $r10
	@DEBUG_VALUE: etharp_find_entry:old_stable <- $r8
	@DEBUG_VALUE: etharp_find_entry:old_pending <- $r1
	@DEBUG_VALUE: etharp_find_entry:flags <- [$sp+0]
	@DEBUG_VALUE: etharp_find_entry:ipaddr <- $r4
	.loc	3 310 26                @ ../Libraries/lwip-1.4.1/src/netif/etharp.c:310:26
	ldr	r6, [r5, #-19]
	.loc	3 0 0 is_stmt 0         @ ../Libraries/lwip-1.4.1/src/netif/etharp.c:0:0
	ldrb	r3, [r5]
.Ltmp52:
	.loc	3 310 13                @ ../Libraries/lwip-1.4.1/src/netif/etharp.c:310:13
	cbz	r6, .LBB3_9
.Ltmp53:
@ %bb.6:                                @   in Loop: Header=BB3_1 Depth=1
	@DEBUG_VALUE: etharp_find_entry:age_queue <- $r11
	@DEBUG_VALUE: etharp_find_entry:old_queue <- $lr
	@DEBUG_VALUE: etharp_find_entry:age_stable <- $r0
	@DEBUG_VALUE: etharp_find_entry:age_pending <- $r9
	@DEBUG_VALUE: etharp_find_entry:i <- $r7
	@DEBUG_VALUE: etharp_find_entry:empty <- $r10
	@DEBUG_VALUE: etharp_find_entry:old_stable <- $r8
	@DEBUG_VALUE: etharp_find_entry:old_pending <- $r1
	@DEBUG_VALUE: etharp_find_entry:flags <- [$sp+0]
	@DEBUG_VALUE: etharp_find_entry:ipaddr <- $r4
	.loc	3 311 15 is_stmt 1      @ ../Libraries/lwip-1.4.1/src/netif/etharp.c:311:15
	cmp	r3, r11
	itt	hs
	movhs	lr, r2
.Ltmp54:
	movhs	r11, r3
.Ltmp55:
	.loc	3 0 15 is_stmt 0        @ ../Libraries/lwip-1.4.1/src/netif/etharp.c:0:15
	b	.LBB3_10
.Ltmp56:
	.p2align	2
.LBB3_7:                                @   in Loop: Header=BB3_1 Depth=1
	@DEBUG_VALUE: state <- $r3
	@DEBUG_VALUE: etharp_find_entry:age_queue <- $r11
	@DEBUG_VALUE: etharp_find_entry:old_queue <- $lr
	@DEBUG_VALUE: etharp_find_entry:age_stable <- $r0
	@DEBUG_VALUE: etharp_find_entry:age_pending <- $r9
	@DEBUG_VALUE: etharp_find_entry:i <- $r7
	@DEBUG_VALUE: etharp_find_entry:empty <- $r10
	@DEBUG_VALUE: etharp_find_entry:old_stable <- $r8
	@DEBUG_VALUE: etharp_find_entry:old_pending <- $r1
	@DEBUG_VALUE: etharp_find_entry:flags <- [$sp+0]
	@DEBUG_VALUE: etharp_find_entry:ipaddr <- $r4
	mov	r10, r6
.Ltmp57:
	b	.LBB3_10
.Ltmp58:
	.p2align	2
.LBB3_8:                                @   in Loop: Header=BB3_1 Depth=1
	@DEBUG_VALUE: state <- $r3
	@DEBUG_VALUE: etharp_find_entry:age_queue <- $r11
	@DEBUG_VALUE: etharp_find_entry:old_queue <- $lr
	@DEBUG_VALUE: etharp_find_entry:age_stable <- $r0
	@DEBUG_VALUE: etharp_find_entry:age_pending <- $r9
	@DEBUG_VALUE: etharp_find_entry:i <- $r7
	@DEBUG_VALUE: etharp_find_entry:empty <- $r10
	@DEBUG_VALUE: etharp_find_entry:old_stable <- $r8
	@DEBUG_VALUE: etharp_find_entry:old_pending <- $r1
	@DEBUG_VALUE: etharp_find_entry:flags <- [$sp+0]
	@DEBUG_VALUE: etharp_find_entry:ipaddr <- $r4
	.loc	3 331 28 is_stmt 1      @ ../Libraries/lwip-1.4.1/src/netif/etharp.c:331:28
	ldrb	r3, [r5]
.Ltmp59:
	.loc	3 331 15 is_stmt 0      @ ../Libraries/lwip-1.4.1/src/netif/etharp.c:331:15
	cmp	r3, r0
	itt	hs
	movhs	r8, r2
.Ltmp60:
	movhs	r0, r3
.Ltmp61:
	.loc	3 0 15                  @ ../Libraries/lwip-1.4.1/src/netif/etharp.c:0:15
	b	.LBB3_10
.Ltmp62:
.LBB3_9:                                @   in Loop: Header=BB3_1 Depth=1
	@DEBUG_VALUE: etharp_find_entry:age_queue <- $r11
	@DEBUG_VALUE: etharp_find_entry:old_queue <- $lr
	@DEBUG_VALUE: etharp_find_entry:age_stable <- $r0
	@DEBUG_VALUE: etharp_find_entry:age_pending <- $r9
	@DEBUG_VALUE: etharp_find_entry:i <- $r7
	@DEBUG_VALUE: etharp_find_entry:empty <- $r10
	@DEBUG_VALUE: etharp_find_entry:old_stable <- $r8
	@DEBUG_VALUE: etharp_find_entry:old_pending <- $r1
	@DEBUG_VALUE: etharp_find_entry:flags <- [$sp+0]
	@DEBUG_VALUE: etharp_find_entry:ipaddr <- $r4
	.loc	3 318 15 is_stmt 1      @ ../Libraries/lwip-1.4.1/src/netif/etharp.c:318:15
	cmp	r3, r9
	itt	hs
	movhs	r1, r2
.Ltmp63:
	movhs	r9, r3
.Ltmp64:
	.p2align	2
.LBB3_10:                               @   in Loop: Header=BB3_1 Depth=1
	@DEBUG_VALUE: etharp_find_entry:i <- $r7
	@DEBUG_VALUE: etharp_find_entry:flags <- [$sp+0]
	@DEBUG_VALUE: etharp_find_entry:ipaddr <- $r4
	@DEBUG_VALUE: etharp_find_entry:old_pending <- $r1
	@DEBUG_VALUE: etharp_find_entry:old_stable <- $r8
	@DEBUG_VALUE: etharp_find_entry:empty <- $r10
	@DEBUG_VALUE: etharp_find_entry:age_pending <- $r9
	@DEBUG_VALUE: etharp_find_entry:age_stable <- $r0
	@DEBUG_VALUE: etharp_find_entry:old_queue <- $lr
	@DEBUG_VALUE: etharp_find_entry:age_queue <- $r11
	@DEBUG_VALUE: etharp_find_entry:i <- [DW_OP_plus_uconst 1, DW_OP_stack_value] undef
	.loc	3 291 35                @ ../Libraries/lwip-1.4.1/src/netif/etharp.c:291:35
	adds	r7, #1
	.loc	3 291 17 is_stmt 0      @ ../Libraries/lwip-1.4.1/src/netif/etharp.c:291:17
	adds	r5, #20
.Ltmp65:
	.loc	3 291 3                 @ ../Libraries/lwip-1.4.1/src/netif/etharp.c:291:3
	cmp	r7, #10
	blo	.LBB3_1
.Ltmp66:
@ %bb.11:
	@DEBUG_VALUE: etharp_find_entry:age_queue <- $r11
	@DEBUG_VALUE: etharp_find_entry:old_queue <- $lr
	@DEBUG_VALUE: etharp_find_entry:age_stable <- $r0
	@DEBUG_VALUE: etharp_find_entry:age_pending <- $r9
	@DEBUG_VALUE: etharp_find_entry:empty <- $r10
	@DEBUG_VALUE: etharp_find_entry:old_stable <- $r8
	@DEBUG_VALUE: etharp_find_entry:old_pending <- $r1
	@DEBUG_VALUE: etharp_find_entry:flags <- [$sp+0]
	@DEBUG_VALUE: etharp_find_entry:ipaddr <- $r4
	.loc	3 0 3                   @ ../Libraries/lwip-1.4.1/src/netif/etharp.c:0:3
	ldr	r2, [sp]                @ 4-byte Reload
.Ltmp67:
	.loc	3 342 46 is_stmt 1      @ ../Libraries/lwip-1.4.1/src/netif/etharp.c:342:46
	lsls	r0, r2, #30
.Ltmp68:
	bmi	.LBB3_25
.Ltmp69:
@ %bb.12:
	@DEBUG_VALUE: etharp_find_entry:age_queue <- $r11
	@DEBUG_VALUE: etharp_find_entry:old_queue <- $lr
	@DEBUG_VALUE: etharp_find_entry:age_pending <- $r9
	@DEBUG_VALUE: etharp_find_entry:empty <- $r10
	@DEBUG_VALUE: etharp_find_entry:old_stable <- $r8
	@DEBUG_VALUE: etharp_find_entry:old_pending <- $r1
	@DEBUG_VALUE: etharp_find_entry:flags <- [$sp+0]
	@DEBUG_VALUE: etharp_find_entry:ipaddr <- $r4
	.loc	3 344 34                @ ../Libraries/lwip-1.4.1/src/netif/etharp.c:344:34
	cmp.w	r10, #10
	bne	.LBB3_15
.Ltmp70:
@ %bb.13:
	@DEBUG_VALUE: etharp_find_entry:age_queue <- $r11
	@DEBUG_VALUE: etharp_find_entry:old_queue <- $lr
	@DEBUG_VALUE: etharp_find_entry:age_pending <- $r9
	@DEBUG_VALUE: etharp_find_entry:empty <- $r10
	@DEBUG_VALUE: etharp_find_entry:old_stable <- $r8
	@DEBUG_VALUE: etharp_find_entry:old_pending <- $r1
	@DEBUG_VALUE: etharp_find_entry:flags <- [$sp+0]
	@DEBUG_VALUE: etharp_find_entry:ipaddr <- $r4
	.loc	3 0 34 is_stmt 0        @ ../Libraries/lwip-1.4.1/src/netif/etharp.c:0:34
	movw	r6, :lower16:arp_table
	.loc	3 342 7 is_stmt 1       @ ../Libraries/lwip-1.4.1/src/netif/etharp.c:342:7
	lsls	r0, r2, #31
	movt	r6, :upper16:arp_table
	bne	.LBB3_16
	b	.LBB3_25
.Ltmp71:
.LBB3_14:
	@DEBUG_VALUE: state <- $r3
	@DEBUG_VALUE: etharp_find_entry:age_queue <- $r11
	@DEBUG_VALUE: etharp_find_entry:old_queue <- $lr
	@DEBUG_VALUE: etharp_find_entry:age_stable <- $r0
	@DEBUG_VALUE: etharp_find_entry:age_pending <- $r9
	@DEBUG_VALUE: etharp_find_entry:i <- $r7
	@DEBUG_VALUE: etharp_find_entry:empty <- $r10
	@DEBUG_VALUE: etharp_find_entry:old_stable <- $r8
	@DEBUG_VALUE: etharp_find_entry:old_pending <- $r1
	@DEBUG_VALUE: etharp_find_entry:flags <- [$sp+0]
	@DEBUG_VALUE: etharp_find_entry:ipaddr <- $r4
	.loc	3 0 7 is_stmt 0         @ ../Libraries/lwip-1.4.1/src/netif/etharp.c:0:7
	mov	r10, r2
.Ltmp72:
	b	.LBB3_26
.Ltmp73:
.LBB3_15:
	@DEBUG_VALUE: etharp_find_entry:age_queue <- $r11
	@DEBUG_VALUE: etharp_find_entry:old_queue <- $lr
	@DEBUG_VALUE: etharp_find_entry:age_pending <- $r9
	@DEBUG_VALUE: etharp_find_entry:empty <- $r10
	@DEBUG_VALUE: etharp_find_entry:old_stable <- $r8
	@DEBUG_VALUE: etharp_find_entry:old_pending <- $r1
	@DEBUG_VALUE: etharp_find_entry:flags <- [$sp+0]
	@DEBUG_VALUE: etharp_find_entry:ipaddr <- $r4
	movw	r6, :lower16:arp_table
	sxtb.w	r0, r10
	.loc	3 359 7 is_stmt 1       @ ../Libraries/lwip-1.4.1/src/netif/etharp.c:359:7
	cmp	r0, #9
	movt	r6, :upper16:arp_table
	ble	.LBB3_22
.Ltmp74:
.LBB3_16:
	@DEBUG_VALUE: etharp_find_entry:age_queue <- $r11
	@DEBUG_VALUE: etharp_find_entry:old_queue <- $lr
	@DEBUG_VALUE: etharp_find_entry:age_pending <- $r9
	@DEBUG_VALUE: etharp_find_entry:empty <- $r10
	@DEBUG_VALUE: etharp_find_entry:old_stable <- $r8
	@DEBUG_VALUE: etharp_find_entry:old_pending <- $r1
	@DEBUG_VALUE: etharp_find_entry:flags <- [$sp+0]
	@DEBUG_VALUE: etharp_find_entry:ipaddr <- $r4
	.loc	3 0 7 is_stmt 0         @ ../Libraries/lwip-1.4.1/src/netif/etharp.c:0:7
	sxtb.w	r0, r8
.Ltmp75:
	.loc	3 364 9 is_stmt 1       @ ../Libraries/lwip-1.4.1/src/netif/etharp.c:364:9
	cmp	r0, #10
	blt	.LBB3_19
.Ltmp76:
@ %bb.17:
	@DEBUG_VALUE: etharp_find_entry:age_queue <- $r11
	@DEBUG_VALUE: etharp_find_entry:old_queue <- $lr
	@DEBUG_VALUE: etharp_find_entry:age_pending <- $r9
	@DEBUG_VALUE: etharp_find_entry:empty <- $r10
	@DEBUG_VALUE: etharp_find_entry:old_stable <- $r8
	@DEBUG_VALUE: etharp_find_entry:old_pending <- $r1
	@DEBUG_VALUE: etharp_find_entry:flags <- [$sp+0]
	@DEBUG_VALUE: etharp_find_entry:ipaddr <- $r4
	.loc	3 0 9 is_stmt 0         @ ../Libraries/lwip-1.4.1/src/netif/etharp.c:0:9
	sxtb	r0, r1
.Ltmp77:
	mov	r8, r1
.Ltmp78:
	@DEBUG_VALUE: etharp_find_entry:old_pending <- $r8
	.loc	3 371 16 is_stmt 1      @ ../Libraries/lwip-1.4.1/src/netif/etharp.c:371:16
	cmp	r0, #10
	blt	.LBB3_19
.Ltmp79:
@ %bb.18:
	@DEBUG_VALUE: etharp_find_entry:old_pending <- $r8
	@DEBUG_VALUE: etharp_find_entry:age_queue <- $r11
	@DEBUG_VALUE: etharp_find_entry:old_queue <- $lr
	@DEBUG_VALUE: etharp_find_entry:age_pending <- $r9
	@DEBUG_VALUE: etharp_find_entry:empty <- $r10
	@DEBUG_VALUE: etharp_find_entry:flags <- [$sp+0]
	@DEBUG_VALUE: etharp_find_entry:ipaddr <- $r4
	.loc	3 0 16 is_stmt 0        @ ../Libraries/lwip-1.4.1/src/netif/etharp.c:0:16
	sxtb.w	r0, lr
	mov	r8, lr
.Ltmp80:
	@DEBUG_VALUE: etharp_find_entry:old_queue <- $r8
	.loc	3 376 16 is_stmt 1      @ ../Libraries/lwip-1.4.1/src/netif/etharp.c:376:16
	cmp	r0, #9
	bgt	.LBB3_25
.Ltmp81:
.LBB3_19:
	@DEBUG_VALUE: etharp_find_entry:age_queue <- $r11
	@DEBUG_VALUE: etharp_find_entry:age_pending <- $r9
	@DEBUG_VALUE: etharp_find_entry:empty <- $r10
	@DEBUG_VALUE: etharp_find_entry:flags <- [$sp+0]
	@DEBUG_VALUE: etharp_find_entry:ipaddr <- $r4
	@DEBUG_VALUE: etharp_find_entry:i <- $r8
	.loc	3 182 20                @ ../Libraries/lwip-1.4.1/src/netif/etharp.c:182:20
	add.w	r0, r8, r8, lsl #2
	add.w	r5, r6, r0, lsl #2
	ldr.w	r0, [r6, r0, lsl #2]
.Ltmp82:
	.loc	3 182 7 is_stmt 0       @ ../Libraries/lwip-1.4.1/src/netif/etharp.c:182:7
	cbz	r0, .LBB3_21
.Ltmp83:
@ %bb.20:
	@DEBUG_VALUE: etharp_find_entry:i <- $r8
	@DEBUG_VALUE: etharp_find_entry:age_queue <- $r11
	@DEBUG_VALUE: etharp_find_entry:age_pending <- $r9
	@DEBUG_VALUE: etharp_find_entry:empty <- $r10
	@DEBUG_VALUE: etharp_find_entry:flags <- [$sp+0]
	@DEBUG_VALUE: etharp_find_entry:ipaddr <- $r4
	.loc	3 185 5 is_stmt 1       @ ../Libraries/lwip-1.4.1/src/netif/etharp.c:185:5
	bl	pbuf_free
	movs	r0, #0
	.loc	3 186 20                @ ../Libraries/lwip-1.4.1/src/netif/etharp.c:186:20
	str	r0, [r5]
.Ltmp84:
.LBB3_21:
	@DEBUG_VALUE: etharp_find_entry:i <- $r8
	@DEBUG_VALUE: etharp_find_entry:age_queue <- $r11
	@DEBUG_VALUE: etharp_find_entry:age_pending <- $r9
	@DEBUG_VALUE: etharp_find_entry:empty <- $r10
	@DEBUG_VALUE: etharp_find_entry:flags <- [$sp+0]
	@DEBUG_VALUE: etharp_find_entry:ipaddr <- $r4
	.loc	3 0 20 is_stmt 0        @ ../Libraries/lwip-1.4.1/src/netif/etharp.c:0:20
	movs	r0, #0
.Ltmp85:
	.loc	3 391 3 is_stmt 1       @ ../Libraries/lwip-1.4.1/src/netif/etharp.c:391:3
	mov	r10, r8
.Ltmp86:
	@DEBUG_VALUE: etharp_find_entry:i <- $r10
	.loc	3 189 22                @ ../Libraries/lwip-1.4.1/src/netif/etharp.c:189:22
	strb	r0, [r5, #18]
.Ltmp87:
.LBB3_22:
	@DEBUG_VALUE: etharp_find_entry:age_queue <- $r11
	@DEBUG_VALUE: etharp_find_entry:age_pending <- $r9
	@DEBUG_VALUE: etharp_find_entry:flags <- [$sp+0]
	@DEBUG_VALUE: etharp_find_entry:ipaddr <- $r4
	@DEBUG_VALUE: etharp_find_entry:i <- $r10
	.loc	3 396 7                 @ ../Libraries/lwip-1.4.1/src/netif/etharp.c:396:7
	cbz	r4, .LBB3_24
.Ltmp88:
@ %bb.23:
	@DEBUG_VALUE: etharp_find_entry:i <- $r10
	@DEBUG_VALUE: etharp_find_entry:age_queue <- $r11
	@DEBUG_VALUE: etharp_find_entry:age_pending <- $r9
	@DEBUG_VALUE: etharp_find_entry:flags <- [$sp+0]
	@DEBUG_VALUE: etharp_find_entry:ipaddr <- $r4
	.loc	3 398 5                 @ ../Libraries/lwip-1.4.1/src/netif/etharp.c:398:5
	add.w	r0, r10, r10, lsl #2
	ldr	r1, [r4]
	add.w	r0, r6, r0, lsl #2
	str	r1, [r0, #4]
.Ltmp89:
.LBB3_24:
	@DEBUG_VALUE: etharp_find_entry:i <- $r10
	@DEBUG_VALUE: etharp_find_entry:age_queue <- $r11
	@DEBUG_VALUE: etharp_find_entry:age_pending <- $r9
	@DEBUG_VALUE: etharp_find_entry:flags <- [$sp+0]
	@DEBUG_VALUE: etharp_find_entry:ipaddr <- $r4
	.loc	3 400 16                @ ../Libraries/lwip-1.4.1/src/netif/etharp.c:400:16
	add.w	r0, r10, r10, lsl #2
	movs	r1, #0
	add.w	r0, r6, r0, lsl #2
	.loc	3 400 22 is_stmt 0      @ ../Libraries/lwip-1.4.1/src/netif/etharp.c:400:22
	strb	r1, [r0, #19]
	b	.LBB3_26
.Ltmp90:
.LBB3_25:
	@DEBUG_VALUE: etharp_find_entry:age_queue <- $r11
	@DEBUG_VALUE: etharp_find_entry:age_pending <- $r9
	@DEBUG_VALUE: etharp_find_entry:empty <- $r10
	@DEBUG_VALUE: etharp_find_entry:flags <- [$sp+0]
	@DEBUG_VALUE: etharp_find_entry:ipaddr <- $r4
	.loc	3 0 22                  @ ../Libraries/lwip-1.4.1/src/netif/etharp.c:0:22
	mov.w	r10, #255
.Ltmp91:
.LBB3_26:
	@DEBUG_VALUE: etharp_find_entry:age_queue <- $r11
	@DEBUG_VALUE: etharp_find_entry:age_pending <- $r9
	@DEBUG_VALUE: etharp_find_entry:flags <- [$sp+0]
	@DEBUG_VALUE: etharp_find_entry:ipaddr <- $r4
	.loc	3 402 1 is_stmt 1       @ ../Libraries/lwip-1.4.1/src/netif/etharp.c:402:1
	sxtb.w	r0, r10
	add	sp, #4
.Ltmp92:
	pop.w	{r4, r5, r6, r7, r8, r9, r10, r11, pc}
.Ltmp93:
.Lfunc_end3:
	.size	etharp_find_entry, .Lfunc_end3-etharp_find_entry
	.cfi_endproc
	.cantunwind
	.fnend
                                        @ -- End function
	.section	.text.etharp_output,"ax",%progbits
	.hidden	etharp_output           @ -- Begin function etharp_output
	.globl	etharp_output
	.p2align	1
	.type	etharp_output,%function
	.code	16                      @ @etharp_output
	.thumb_func
etharp_output:
.Lfunc_begin4:
	.loc	3 880 0                 @ ../Libraries/lwip-1.4.1/src/netif/etharp.c:880:0
	.fnstart
	.cfi_startproc
@ %bb.0:
	.save	{r4, r5, r6, lr}
	push	{r4, r5, r6, lr}
	.cfi_def_cfa_offset 16
	.cfi_offset lr, -4
	.cfi_offset r6, -8
	.cfi_offset r5, -12
	.cfi_offset r4, -16
	.pad	#8
	sub	sp, #8
	.cfi_def_cfa_offset 24
	@DEBUG_VALUE: etharp_output:netif <- $r0
	@DEBUG_VALUE: etharp_output:q <- $r1
	@DEBUG_VALUE: etharp_output:ipaddr <- $r2
.Ltmp94:
	@DEBUG_VALUE: etharp_output:dst_addr <- $r2
	@DEBUG_VALUE: etharp_send_ip:p <- $r1
	@DEBUG_VALUE: etharp_send_ip:netif <- $r0
	mov	r5, r0
.Ltmp95:
	@DEBUG_VALUE: etharp_send_ip:netif <- $r5
	@DEBUG_VALUE: etharp_output:dst_addr <- $r6
	@DEBUG_VALUE: etharp_output:ipaddr <- $r6
	@DEBUG_VALUE: etharp_output:q <- $r4
	@DEBUG_VALUE: etharp_output:netif <- $r5
	mov	r4, r1
.Ltmp96:
	@DEBUG_VALUE: etharp_send_ip:p <- $r4
	.loc	3 890 7 prologue_end    @ ../Libraries/lwip-1.4.1/src/netif/etharp.c:890:7
	mov	r0, r1
	movs	r1, #14
	mov	r6, r2
.Ltmp97:
	bl	pbuf_header
.Ltmp98:
	.loc	3 890 7 is_stmt 0       @ ../Libraries/lwip-1.4.1/src/netif/etharp.c:890:7
	cbz	r0, .LBB4_2
.Ltmp99:
@ %bb.1:
	@DEBUG_VALUE: etharp_send_ip:p <- $r4
	@DEBUG_VALUE: etharp_output:netif <- $r5
	@DEBUG_VALUE: etharp_send_ip:netif <- $r5
	.loc	3 0 7                   @ ../Libraries/lwip-1.4.1/src/netif/etharp.c:0:7
	movs	r0, #254
	b	.LBB4_7
.Ltmp100:
.LBB4_2:
	@DEBUG_VALUE: etharp_output:netif <- $r5
	.loc	3 902 7 is_stmt 1       @ ../Libraries/lwip-1.4.1/src/netif/etharp.c:902:7
	ldr	r0, [r6]
	mov	r1, r5
	bl	ip4_addr_isbroadcast
.Ltmp101:
	.loc	3 902 7 is_stmt 0       @ ../Libraries/lwip-1.4.1/src/netif/etharp.c:902:7
	cbz	r0, .LBB4_4
.Ltmp102:
@ %bb.3:
	@DEBUG_VALUE: etharp_output:netif <- $r5
	.loc	3 0 7                   @ ../Libraries/lwip-1.4.1/src/netif/etharp.c:0:7
	movw	r0, :lower16:ethbroadcast
	movt	r0, :upper16:ethbroadcast
	b	.LBB4_6
.Ltmp103:
.LBB4_4:
	@DEBUG_VALUE: etharp_output:netif <- $r5
	.loc	3 906 14 is_stmt 1      @ ../Libraries/lwip-1.4.1/src/netif/etharp.c:906:14
	ldr	r0, [r6]
	and	r1, r0, #240
.Ltmp104:
	.loc	3 906 14 is_stmt 0      @ ../Libraries/lwip-1.4.1/src/netif/etharp.c:906:14
	cmp	r1, #224
	bne	.LBB4_8
.Ltmp105:
@ %bb.5:
	@DEBUG_VALUE: etharp_output:netif <- $r5
	.loc	3 0 14                  @ ../Libraries/lwip-1.4.1/src/netif/etharp.c:0:14
	movs	r0, #94
.Ltmp106:
	.loc	3 910 23 is_stmt 1      @ ../Libraries/lwip-1.4.1/src/netif/etharp.c:910:23
	strb.w	r0, [sp, #2]
	movs	r0, #1
	.loc	3 908 23                @ ../Libraries/lwip-1.4.1/src/netif/etharp.c:908:23
	strh.w	r0, [sp]
	.loc	3 911 25                @ ../Libraries/lwip-1.4.1/src/netif/etharp.c:911:25
	ldrb	r0, [r6, #1]
	.loc	3 911 43 is_stmt 0      @ ../Libraries/lwip-1.4.1/src/netif/etharp.c:911:43
	and	r0, r0, #127
	.loc	3 911 23                @ ../Libraries/lwip-1.4.1/src/netif/etharp.c:911:23
	strb.w	r0, [sp, #3]
	.loc	3 912 25 is_stmt 1      @ ../Libraries/lwip-1.4.1/src/netif/etharp.c:912:25
	ldrb	r0, [r6, #2]
	.loc	3 912 23 is_stmt 0      @ ../Libraries/lwip-1.4.1/src/netif/etharp.c:912:23
	strb.w	r0, [sp, #4]
	.loc	3 913 25 is_stmt 1      @ ../Libraries/lwip-1.4.1/src/netif/etharp.c:913:25
	ldrb	r0, [r6, #3]
	.loc	3 913 23 is_stmt 0      @ ../Libraries/lwip-1.4.1/src/netif/etharp.c:913:23
	strb.w	r0, [sp, #5]
	mov	r0, sp
.Ltmp107:
	@DEBUG_VALUE: etharp_output:dest <- $sp
.LBB4_6:
	@DEBUG_VALUE: etharp_output:netif <- $r5
	@DEBUG_VALUE: etharp_output:dest <- $r0
	@DEBUG_VALUE: etharp_send_ip:dst <- $r0
	.loc	3 417 49 is_stmt 1      @ ../Libraries/lwip-1.4.1/src/netif/etharp.c:417:49
	ldr	r1, [r4, #4]
.Ltmp108:
	@DEBUG_VALUE: etharp_send_ip:ethhdr <- $r1
	.loc	3 421 3                 @ ../Libraries/lwip-1.4.1/src/netif/etharp.c:421:3
	ldrh	r2, [r0, #4]
	movs	r3, #8
	strh	r2, [r1, #4]
	ldr	r0, [r0]
.Ltmp109:
	str	r0, [r1]
.Ltmp110:
	@DEBUG_VALUE: etharp_send_ip:src <- [DW_OP_plus_uconst 39, DW_OP_stack_value] $r5
	.loc	3 422 3                 @ ../Libraries/lwip-1.4.1/src/netif/etharp.c:422:3
	ldr.w	r0, [r5, #39]
	ldrh.w	r2, [r5, #43]
	.loc	3 423 16                @ ../Libraries/lwip-1.4.1/src/netif/etharp.c:423:16
	strh	r3, [r1, #12]
	.loc	3 422 3                 @ ../Libraries/lwip-1.4.1/src/netif/etharp.c:422:3
	str.w	r0, [r1, #6]
	strh	r2, [r1, #10]
	.loc	3 426 10                @ ../Libraries/lwip-1.4.1/src/netif/etharp.c:426:10
	mov	r0, r5
	mov	r1, r4
.Ltmp111:
	.loc	3 426 17 is_stmt 0      @ ../Libraries/lwip-1.4.1/src/netif/etharp.c:426:17
	ldr	r2, [r5, #24]
	.loc	3 426 10                @ ../Libraries/lwip-1.4.1/src/netif/etharp.c:426:10
	blx	r2
.Ltmp112:
.LBB4_7:
	@DEBUG_VALUE: etharp_output:netif <- $r5
	.loc	3 980 1 is_stmt 1       @ ../Libraries/lwip-1.4.1/src/netif/etharp.c:980:1
	sxtb	r0, r0
	add	sp, #8
	pop	{r4, r5, r6, pc}
.Ltmp113:
.LBB4_8:
	@DEBUG_VALUE: etharp_output:netif <- $r5
	.loc	3 922 10                @ ../Libraries/lwip-1.4.1/src/netif/etharp.c:922:10
	uxth	r1, r0
	movw	r2, #65193
	.loc	3 921 71                @ ../Libraries/lwip-1.4.1/src/netif/etharp.c:921:71
	cmp	r1, r2
	.loc	3 0 0 is_stmt 0         @ ../Libraries/lwip-1.4.1/src/netif/etharp.c:0:0
	ittt	ne
	ldrdne	r1, r2, [r5, #4]
	eorne	r1, r0
	andsne.w	r1, r1, r2
	bne	.LBB4_16
.Ltmp114:
.LBB4_9:
	@DEBUG_VALUE: etharp_output:netif <- $r5
	@DEBUG_VALUE: etharp_output:dst_addr <- $r6
	.loc	3 950 24 is_stmt 1      @ ../Libraries/lwip-1.4.1/src/netif/etharp.c:950:24
	movw	r12, :lower16:etharp_cached_entry
	.loc	3 950 45 is_stmt 0      @ ../Libraries/lwip-1.4.1/src/netif/etharp.c:950:45
	movw	lr, :lower16:arp_table
	.loc	3 950 24                @ ../Libraries/lwip-1.4.1/src/netif/etharp.c:950:24
	movt	r12, :upper16:etharp_cached_entry
	.loc	3 950 45                @ ../Libraries/lwip-1.4.1/src/netif/etharp.c:950:45
	movt	lr, :upper16:arp_table
	.loc	3 950 24                @ ../Libraries/lwip-1.4.1/src/netif/etharp.c:950:24
	ldrb.w	r2, [r12]
	.loc	3 950 45                @ ../Libraries/lwip-1.4.1/src/netif/etharp.c:950:45
	add.w	r1, r2, r2, lsl #2
	add.w	r1, lr, r1, lsl #2
	ldrb	r3, [r1, #18]
	.loc	3 950 75                @ ../Libraries/lwip-1.4.1/src/netif/etharp.c:950:75
	cmp	r3, #1
	bls	.LBB4_11
.Ltmp115:
@ %bb.10:
	@DEBUG_VALUE: etharp_output:netif <- $r5
	@DEBUG_VALUE: etharp_output:dst_addr <- $r6
	.loc	3 951 14 is_stmt 1      @ ../Libraries/lwip-1.4.1/src/netif/etharp.c:951:14
	ldr	r1, [r1, #4]
.Ltmp116:
	.loc	3 950 13                @ ../Libraries/lwip-1.4.1/src/netif/etharp.c:950:13
	cmp	r0, r1
	beq	.LBB4_19
.Ltmp117:
.LBB4_11:
	@DEBUG_VALUE: etharp_output:netif <- $r5
	@DEBUG_VALUE: etharp_output:dst_addr <- $r6
	.loc	3 0 13 is_stmt 0        @ ../Libraries/lwip-1.4.1/src/netif/etharp.c:0:13
	add.w	r3, lr, #18
	movs	r2, #0
.Ltmp118:
	.p2align	2
.LBB4_12:                               @ =>This Inner Loop Header: Depth=1
	@DEBUG_VALUE: etharp_output:netif <- $r5
	@DEBUG_VALUE: etharp_output:dst_addr <- $r6
	@DEBUG_VALUE: i <- $r2
	.loc	3 964 25 is_stmt 1      @ ../Libraries/lwip-1.4.1/src/netif/etharp.c:964:25
	ldrb	r1, [r3]
	.loc	3 964 55 is_stmt 0      @ ../Libraries/lwip-1.4.1/src/netif/etharp.c:964:55
	cmp	r1, #2
	blo	.LBB4_14
.Ltmp119:
@ %bb.13:                               @   in Loop: Header=BB4_12 Depth=1
	@DEBUG_VALUE: i <- $r2
	@DEBUG_VALUE: etharp_output:netif <- $r5
	@DEBUG_VALUE: etharp_output:dst_addr <- $r6
	.loc	3 965 12 is_stmt 1      @ ../Libraries/lwip-1.4.1/src/netif/etharp.c:965:12
	ldr	r1, [r3, #-14]
.Ltmp120:
	.loc	3 964 11                @ ../Libraries/lwip-1.4.1/src/netif/etharp.c:964:11
	cmp	r0, r1
	beq	.LBB4_18
.Ltmp121:
.LBB4_14:                               @   in Loop: Header=BB4_12 Depth=1
	@DEBUG_VALUE: i <- $r2
	@DEBUG_VALUE: etharp_output:netif <- $r5
	@DEBUG_VALUE: etharp_output:dst_addr <- $r6
	@DEBUG_VALUE: i <- [DW_OP_plus_uconst 1, DW_OP_stack_value] undef
	.loc	3 963 38                @ ../Libraries/lwip-1.4.1/src/netif/etharp.c:963:38
	adds	r2, #1
	.loc	3 963 19 is_stmt 0      @ ../Libraries/lwip-1.4.1/src/netif/etharp.c:963:19
	adds	r3, #20
.Ltmp122:
	.loc	3 963 5                 @ ../Libraries/lwip-1.4.1/src/netif/etharp.c:963:5
	cmp	r2, #10
	blo	.LBB4_12
.Ltmp123:
@ %bb.15:
	@DEBUG_VALUE: etharp_output:netif <- $r5
	@DEBUG_VALUE: etharp_output:dst_addr <- $r6
	.loc	3 973 12 is_stmt 1      @ ../Libraries/lwip-1.4.1/src/netif/etharp.c:973:12
	mov	r0, r5
	mov	r1, r6
	mov	r2, r4
	bl	etharp_query
	b	.LBB4_7
.Ltmp124:
.LBB4_16:
	@DEBUG_VALUE: etharp_output:netif <- $r5
	.loc	3 934 14                @ ../Libraries/lwip-1.4.1/src/netif/etharp.c:934:14
	mov	r6, r5
	ldr	r0, [r6, #12]!
.Ltmp125:
	.loc	3 934 13 is_stmt 0      @ ../Libraries/lwip-1.4.1/src/netif/etharp.c:934:13
	cmp	r0, #0
	bne	.LBB4_9
.Ltmp126:
@ %bb.17:
	@DEBUG_VALUE: etharp_output:netif <- $r5
	.loc	3 0 13                  @ ../Libraries/lwip-1.4.1/src/netif/etharp.c:0:13
	movs	r0, #252
	b	.LBB4_7
.Ltmp127:
.LBB4_18:
	@DEBUG_VALUE: i <- $r2
	@DEBUG_VALUE: etharp_output:netif <- $r5
	@DEBUG_VALUE: etharp_output:dst_addr <- $r6
	.loc	3 967 9 is_stmt 1       @ ../Libraries/lwip-1.4.1/src/netif/etharp.c:967:9
	strb.w	r2, [r12]
	.loc	3 968 16                @ ../Libraries/lwip-1.4.1/src/netif/etharp.c:968:16
	uxtb	r2, r2
.Ltmp128:
.LBB4_19:
	@DEBUG_VALUE: etharp_output:netif <- $r5
	@DEBUG_VALUE: etharp_output:dst_addr <- $r6
	.loc	3 0 0 is_stmt 0         @ ../Libraries/lwip-1.4.1/src/netif/etharp.c:0:0
	mov	r0, r5
	mov	r1, r4
	bl	etharp_output_to_arp_index
	b	.LBB4_7
.Ltmp129:
.Lfunc_end4:
	.size	etharp_output, .Lfunc_end4-etharp_output
	.cfi_endproc
	.cantunwind
	.fnend
                                        @ -- End function
	.section	.text.etharp_output_to_arp_index,"ax",%progbits
	.p2align	1               @ -- Begin function etharp_output_to_arp_index
	.type	etharp_output_to_arp_index,%function
	.code	16                      @ @etharp_output_to_arp_index
	.thumb_func
etharp_output_to_arp_index:
.Lfunc_begin5:
	.loc	3 843 0 is_stmt 1       @ ../Libraries/lwip-1.4.1/src/netif/etharp.c:843:0
	.fnstart
	.cfi_startproc
@ %bb.0:
	.save	{r4, r5, r6, r7, lr}
	push	{r4, r5, r6, r7, lr}
	.cfi_def_cfa_offset 20
	.cfi_offset lr, -4
	.cfi_offset r7, -8
	.cfi_offset r6, -12
	.cfi_offset r5, -16
	.cfi_offset r4, -20
	.pad	#4
	sub	sp, #4
	.cfi_def_cfa_offset 24
	@DEBUG_VALUE: etharp_output_to_arp_index:netif <- $r0
	@DEBUG_VALUE: etharp_output_to_arp_index:q <- $r1
	@DEBUG_VALUE: etharp_output_to_arp_index:arp_idx <- $r2
.Ltmp130:
	@DEBUG_VALUE: etharp_send_ip:p <- $r1
	@DEBUG_VALUE: etharp_send_ip:netif <- $r0
	mov	r4, r1
.Ltmp131:
	@DEBUG_VALUE: etharp_send_ip:p <- $r4
	.loc	3 844 3 prologue_end    @ ../Libraries/lwip-1.4.1/src/netif/etharp.c:844:3
	movw	r1, :lower16:arp_table
.Ltmp132:
	.loc	3 0 3 is_stmt 0         @ ../Libraries/lwip-1.4.1/src/netif/etharp.c:0:3
	mov	r5, r0
.Ltmp133:
	@DEBUG_VALUE: etharp_send_ip:netif <- $r5
	@DEBUG_VALUE: etharp_output_to_arp_index:arp_idx <- $r2
	@DEBUG_VALUE: etharp_output_to_arp_index:q <- $r4
	@DEBUG_VALUE: etharp_output_to_arp_index:netif <- $r5
	.loc	3 844 3                 @ ../Libraries/lwip-1.4.1/src/netif/etharp.c:844:3
	add.w	r0, r2, r2, lsl #2
	movt	r1, :upper16:arp_table
	add.w	r6, r1, r0, lsl #2
	mov	r7, r6
	ldrb	r0, [r7, #18]!
.Ltmp134:
	.loc	3 849 57 is_stmt 1      @ ../Libraries/lwip-1.4.1/src/netif/etharp.c:849:57
	cmp	r0, #2
	bne	.LBB5_4
.Ltmp135:
@ %bb.1:
	@DEBUG_VALUE: etharp_output_to_arp_index:netif <- $r5
	@DEBUG_VALUE: etharp_output_to_arp_index:q <- $r4
	@DEBUG_VALUE: etharp_output_to_arp_index:arp_idx <- $r2
	.loc	3 850 27                @ ../Libraries/lwip-1.4.1/src/netif/etharp.c:850:27
	ldrb	r0, [r6, #19]
.Ltmp136:
	.loc	3 849 7                 @ ../Libraries/lwip-1.4.1/src/netif/etharp.c:849:7
	cmp	r0, #228
	blo	.LBB5_4
.Ltmp137:
@ %bb.2:
	@DEBUG_VALUE: etharp_output_to_arp_index:netif <- $r5
	@DEBUG_VALUE: etharp_output_to_arp_index:q <- $r4
	@DEBUG_VALUE: etharp_output_to_arp_index:arp_idx <- $r2
	.loc	3 851 51                @ ../Libraries/lwip-1.4.1/src/netif/etharp.c:851:51
	adds	r1, r6, #4
	.loc	3 851 9 is_stmt 0       @ ../Libraries/lwip-1.4.1/src/netif/etharp.c:851:9
	mov	r0, r5
	bl	etharp_request
.Ltmp138:
	.loc	3 851 9                 @ ../Libraries/lwip-1.4.1/src/netif/etharp.c:851:9
	cbnz	r0, .LBB5_4
.Ltmp139:
@ %bb.3:
	@DEBUG_VALUE: etharp_output_to_arp_index:netif <- $r5
	@DEBUG_VALUE: etharp_output_to_arp_index:q <- $r4
	.loc	3 0 9                   @ ../Libraries/lwip-1.4.1/src/netif/etharp.c:0:9
	movs	r0, #3
.Ltmp140:
	.loc	3 852 32 is_stmt 1      @ ../Libraries/lwip-1.4.1/src/netif/etharp.c:852:32
	strb	r0, [r7]
.Ltmp141:
.LBB5_4:
	@DEBUG_VALUE: etharp_output_to_arp_index:netif <- $r5
	@DEBUG_VALUE: etharp_output_to_arp_index:q <- $r4
	.loc	3 421 3                 @ ../Libraries/lwip-1.4.1/src/netif/etharp.c:421:3
	ldrh	r0, [r6, #16]
	.loc	3 417 49                @ ../Libraries/lwip-1.4.1/src/netif/etharp.c:417:49
	ldr	r1, [r4, #4]
.Ltmp142:
	@DEBUG_VALUE: etharp_send_ip:ethhdr <- $r1
	.loc	3 0 49 is_stmt 0        @ ../Libraries/lwip-1.4.1/src/netif/etharp.c:0:49
	movs	r3, #8
	.loc	3 421 3 is_stmt 1       @ ../Libraries/lwip-1.4.1/src/netif/etharp.c:421:3
	strh	r0, [r1, #4]
	ldr	r0, [r6, #12]
	str	r0, [r1]
.Ltmp143:
	@DEBUG_VALUE: etharp_send_ip:src <- [DW_OP_plus_uconst 39, DW_OP_stack_value] $r5
	.loc	3 422 3                 @ ../Libraries/lwip-1.4.1/src/netif/etharp.c:422:3
	ldr.w	r0, [r5, #39]
	ldrh.w	r2, [r5, #43]
	.loc	3 423 16                @ ../Libraries/lwip-1.4.1/src/netif/etharp.c:423:16
	strh	r3, [r1, #12]
	.loc	3 422 3                 @ ../Libraries/lwip-1.4.1/src/netif/etharp.c:422:3
	str.w	r0, [r1, #6]
	strh	r2, [r1, #10]
	.loc	3 426 10                @ ../Libraries/lwip-1.4.1/src/netif/etharp.c:426:10
	mov	r0, r5
	mov	r1, r4
.Ltmp144:
	.loc	3 426 17 is_stmt 0      @ ../Libraries/lwip-1.4.1/src/netif/etharp.c:426:17
	ldr	r2, [r5, #24]
	.loc	3 426 10                @ ../Libraries/lwip-1.4.1/src/netif/etharp.c:426:10
	add	sp, #4
	pop.w	{r4, r5, r6, r7, lr}
.Ltmp145:
	bx	r2
.Ltmp146:
.Lfunc_end5:
	.size	etharp_output_to_arp_index, .Lfunc_end5-etharp_output_to_arp_index
	.cfi_endproc
	.cantunwind
	.fnend
                                        @ -- End function
	.section	.text.etharp_query,"ax",%progbits
	.hidden	etharp_query            @ -- Begin function etharp_query
	.globl	etharp_query
	.p2align	1
	.type	etharp_query,%function
	.code	16                      @ @etharp_query
	.thumb_func
etharp_query:
.Lfunc_begin6:
	.loc	3 1017 0 is_stmt 1      @ ../Libraries/lwip-1.4.1/src/netif/etharp.c:1017:0
	.fnstart
	.cfi_startproc
@ %bb.0:
	.save	{r4, r5, r6, r7, r8, r9, lr}
	push.w	{r4, r5, r6, r7, r8, r9, lr}
	.cfi_def_cfa_offset 28
	.cfi_offset lr, -4
	.cfi_offset r9, -8
	.cfi_offset r8, -12
	.cfi_offset r7, -16
	.cfi_offset r6, -20
	.cfi_offset r5, -24
	.cfi_offset r4, -28
	.pad	#4
	sub	sp, #4
	.cfi_def_cfa_offset 32
	@DEBUG_VALUE: etharp_query:netif <- $r0
	@DEBUG_VALUE: etharp_query:ipaddr <- $r1
	@DEBUG_VALUE: etharp_query:q <- $r2
.Ltmp147:
	@DEBUG_VALUE: p <- $r2
	@DEBUG_VALUE: etharp_send_ip:p <- $r2
	@DEBUG_VALUE: etharp_send_ip:netif <- $r0
	mov	r6, r0
.Ltmp148:
	@DEBUG_VALUE: etharp_query:result <- -1
	@DEBUG_VALUE: etharp_send_ip:netif <- $r6
	@DEBUG_VALUE: etharp_query:q <- $r4
	@DEBUG_VALUE: etharp_query:ipaddr <- $r7
	@DEBUG_VALUE: etharp_query:netif <- $r6
	.loc	3 1023 7 prologue_end   @ ../Libraries/lwip-1.4.1/src/netif/etharp.c:1023:7
	ldr	r0, [r1]
	mov	r7, r1
.Ltmp149:
	.loc	3 0 7 is_stmt 0         @ ../Libraries/lwip-1.4.1/src/netif/etharp.c:0:7
	mov	r4, r2
.Ltmp150:
	@DEBUG_VALUE: etharp_send_ip:p <- $r4
	@DEBUG_VALUE: p <- $r4
	.loc	3 1023 7                @ ../Libraries/lwip-1.4.1/src/netif/etharp.c:1023:7
	mov	r1, r6
	bl	ip4_addr_isbroadcast
	.loc	3 1023 42               @ ../Libraries/lwip-1.4.1/src/netif/etharp.c:1023:42
	cbz	r0, .LBB6_3
.Ltmp151:
@ %bb.1:
	@DEBUG_VALUE: p <- $r4
	@DEBUG_VALUE: etharp_send_ip:p <- $r4
	@DEBUG_VALUE: etharp_query:netif <- $r6
	@DEBUG_VALUE: etharp_send_ip:netif <- $r6
	.loc	3 0 42                  @ ../Libraries/lwip-1.4.1/src/netif/etharp.c:0:42
	movs	r0, #242
.Ltmp152:
.LBB6_2:
	.loc	3 1154 1 is_stmt 1      @ ../Libraries/lwip-1.4.1/src/netif/etharp.c:1154:1
	sxtb	r0, r0
	add	sp, #4
	pop.w	{r4, r5, r6, r7, r8, r9, pc}
.LBB6_3:
.Ltmp153:
	@DEBUG_VALUE: etharp_query:netif <- $r6
	.loc	3 1024 7                @ ../Libraries/lwip-1.4.1/src/netif/etharp.c:1024:7
	ldr	r1, [r7]
	movs	r0, #242
	.loc	3 1024 35 is_stmt 0     @ ../Libraries/lwip-1.4.1/src/netif/etharp.c:1024:35
	cmp	r1, #0
	beq	.LBB6_2
.Ltmp154:
@ %bb.4:
	@DEBUG_VALUE: etharp_query:netif <- $r6
	.loc	3 0 0                   @ ../Libraries/lwip-1.4.1/src/netif/etharp.c:0:0
	and	r1, r1, #240
	.loc	3 1024 35               @ ../Libraries/lwip-1.4.1/src/netif/etharp.c:1024:35
	cmp	r1, #224
	beq	.LBB6_2
.Ltmp155:
@ %bb.5:
	@DEBUG_VALUE: etharp_query:netif <- $r6
	.loc	3 1031 7 is_stmt 1      @ ../Libraries/lwip-1.4.1/src/netif/etharp.c:1031:7
	mov	r0, r7
	movs	r1, #1
	bl	etharp_find_entry
	mov	r9, r0
.Ltmp156:
	@DEBUG_VALUE: etharp_query:i <- $r9
	.loc	3 1034 7                @ ../Libraries/lwip-1.4.1/src/netif/etharp.c:1034:7
	cmp	r0, #0
	blt	.LBB6_9
.Ltmp157:
@ %bb.6:
	@DEBUG_VALUE: etharp_query:i <- $r9
	@DEBUG_VALUE: etharp_query:netif <- $r6
	.loc	3 1044 20               @ ../Libraries/lwip-1.4.1/src/netif/etharp.c:1044:20
	movw	r8, :lower16:arp_table
	add.w	r0, r9, r9, lsl #2
	movt	r8, :upper16:arp_table
	add.w	r5, r8, r0, lsl #2
	ldrb	r0, [r5, #18]!
.Ltmp158:
	.loc	3 1044 7 is_stmt 0      @ ../Libraries/lwip-1.4.1/src/netif/etharp.c:1044:7
	cbz	r0, .LBB6_10
.Ltmp159:
@ %bb.7:
	@DEBUG_VALUE: etharp_query:i <- $r9
	@DEBUG_VALUE: etharp_query:netif <- $r6
	.loc	3 1054 52 is_stmt 1     @ ../Libraries/lwip-1.4.1/src/netif/etharp.c:1054:52
	cbz	r4, .LBB6_11
.Ltmp160:
@ %bb.8:
	@DEBUG_VALUE: etharp_query:i <- $r9
	@DEBUG_VALUE: etharp_query:netif <- $r6
	cmp	r0, #1
	bne	.LBB6_13
	b	.LBB6_11
.Ltmp161:
.LBB6_9:
	@DEBUG_VALUE: etharp_query:i <- $r9
	@DEBUG_VALUE: etharp_query:netif <- $r6
	.loc	3 0 0 is_stmt 0         @ ../Libraries/lwip-1.4.1/src/netif/etharp.c:0:0
	mov	r0, r9
	b	.LBB6_2
.Ltmp162:
.LBB6_10:
	@DEBUG_VALUE: etharp_query:i <- $r9
	@DEBUG_VALUE: etharp_query:netif <- $r6
	movs	r0, #1
.Ltmp163:
	.loc	3 1045 24 is_stmt 1     @ ../Libraries/lwip-1.4.1/src/netif/etharp.c:1045:24
	strb	r0, [r5]
.Ltmp164:
.LBB6_11:
	@DEBUG_VALUE: etharp_query:i <- $r9
	@DEBUG_VALUE: etharp_query:netif <- $r6
	.loc	3 1056 14               @ ../Libraries/lwip-1.4.1/src/netif/etharp.c:1056:14
	mov	r0, r6
	mov	r1, r7
	bl	etharp_request
.Ltmp165:
	@DEBUG_VALUE: etharp_query:result <- undef
	.loc	3 1063 9                @ ../Libraries/lwip-1.4.1/src/netif/etharp.c:1063:9
	cmp	r4, #0
	beq	.LBB6_2
.Ltmp166:
@ %bb.12:
	@DEBUG_VALUE: etharp_query:i <- $r9
	@DEBUG_VALUE: etharp_query:netif <- $r6
	@DEBUG_VALUE: etharp_query:result <- $r0
	.loc	3 1071 20               @ ../Libraries/lwip-1.4.1/src/netif/etharp.c:1071:20
	ldrb	r1, [r5]
.Ltmp167:
	.loc	3 1071 7 is_stmt 0      @ ../Libraries/lwip-1.4.1/src/netif/etharp.c:1071:7
	cmp	r1, #2
	blo	.LBB6_14
.Ltmp168:
.LBB6_13:
	@DEBUG_VALUE: etharp_query:i <- $r9
	@DEBUG_VALUE: etharp_query:netif <- $r6
	.loc	3 1073 5 is_stmt 1      @ ../Libraries/lwip-1.4.1/src/netif/etharp.c:1073:5
	movw	r1, :lower16:etharp_cached_entry
.Ltmp169:
	.loc	3 0 0 is_stmt 0         @ ../Libraries/lwip-1.4.1/src/netif/etharp.c:0:0
	add.w	r0, r6, #39
.Ltmp170:
	@DEBUG_VALUE: etharp_query:srcaddr <- $r0
	.loc	3 1073 5                @ ../Libraries/lwip-1.4.1/src/netif/etharp.c:1073:5
	movt	r1, :upper16:etharp_cached_entry
	strb.w	r9, [r1]
.Ltmp171:
	@DEBUG_VALUE: etharp_send_ip:src <- $r0
	.loc	3 421 3 is_stmt 1       @ ../Libraries/lwip-1.4.1/src/netif/etharp.c:421:3
	add.w	r1, r9, r9, lsl #2
	add.w	r1, r8, r1, lsl #2
	.loc	3 417 49                @ ../Libraries/lwip-1.4.1/src/netif/etharp.c:417:49
	ldr	r3, [r4, #4]
.Ltmp172:
	@DEBUG_VALUE: etharp_send_ip:ethhdr <- $r3
	.loc	3 421 3                 @ ../Libraries/lwip-1.4.1/src/netif/etharp.c:421:3
	ldrh	r2, [r1, #16]
	strh	r2, [r3, #4]
	movs	r2, #8
	ldr	r1, [r1, #12]
	str	r1, [r3]
	.loc	3 422 3                 @ ../Libraries/lwip-1.4.1/src/netif/etharp.c:422:3
	ldr	r1, [r0]
	ldrh	r0, [r0, #4]
.Ltmp173:
	.loc	3 423 16                @ ../Libraries/lwip-1.4.1/src/netif/etharp.c:423:16
	strh	r2, [r3, #12]
	.loc	3 422 3                 @ ../Libraries/lwip-1.4.1/src/netif/etharp.c:422:3
	strh	r0, [r3, #10]
	str.w	r1, [r3, #6]
	.loc	3 426 10                @ ../Libraries/lwip-1.4.1/src/netif/etharp.c:426:10
	mov	r0, r6
	mov	r1, r4
	.loc	3 426 17 is_stmt 0      @ ../Libraries/lwip-1.4.1/src/netif/etharp.c:426:17
	ldr	r2, [r6, #24]
	.loc	3 426 10                @ ../Libraries/lwip-1.4.1/src/netif/etharp.c:426:10
	add	sp, #4
	pop.w	{r4, r5, r6, r7, r8, r9, lr}
.Ltmp174:
	bx	r2
.Ltmp175:
.LBB6_14:
	@DEBUG_VALUE: etharp_query:result <- $r0
	@DEBUG_VALUE: etharp_query:i <- $r9
	@DEBUG_VALUE: etharp_query:netif <- $r6
	.loc	3 1077 14 is_stmt 1     @ ../Libraries/lwip-1.4.1/src/netif/etharp.c:1077:14
	cmp	r1, #1
	bne	.LBB6_2
.Ltmp176:
@ %bb.15:
	@DEBUG_VALUE: etharp_query:result <- $r0
	@DEBUG_VALUE: etharp_query:i <- $r9
	@DEBUG_VALUE: etharp_query:netif <- $r6
	.loc	3 0 14 is_stmt 0        @ ../Libraries/lwip-1.4.1/src/netif/etharp.c:0:14
	mov	r0, r4
.Ltmp177:
	.p2align	2
.LBB6_16:                               @ =>This Inner Loop Header: Depth=1
	@DEBUG_VALUE: etharp_query:i <- $r9
	@DEBUG_VALUE: etharp_query:netif <- $r6
	@DEBUG_VALUE: p <- $r0
	.loc	3 1087 13 is_stmt 1     @ ../Libraries/lwip-1.4.1/src/netif/etharp.c:1087:13
	ldrb	r1, [r0, #12]
.Ltmp178:
	.loc	3 1087 10 is_stmt 0     @ ../Libraries/lwip-1.4.1/src/netif/etharp.c:1087:10
	cmp	r1, #1
	bne	.LBB6_19
.Ltmp179:
@ %bb.17:                               @   in Loop: Header=BB6_16 Depth=1
	@DEBUG_VALUE: p <- $r0
	@DEBUG_VALUE: etharp_query:i <- $r9
	@DEBUG_VALUE: etharp_query:netif <- $r6
	.loc	3 1091 14 is_stmt 1     @ ../Libraries/lwip-1.4.1/src/netif/etharp.c:1091:14
	ldr	r0, [r0]
.Ltmp180:
	@DEBUG_VALUE: p <- $r0
	.loc	3 1085 5                @ ../Libraries/lwip-1.4.1/src/netif/etharp.c:1085:5
	cmp	r0, #0
	bne	.LBB6_16
.Ltmp181:
@ %bb.18:
	@DEBUG_VALUE: p <- $r0
	@DEBUG_VALUE: etharp_query:i <- $r9
	@DEBUG_VALUE: etharp_query:netif <- $r6
	.loc	3 1105 7                @ ../Libraries/lwip-1.4.1/src/netif/etharp.c:1105:7
	mov	r0, r4
.Ltmp182:
	bl	pbuf_ref
	b	.LBB6_24
.Ltmp183:
.LBB6_19:
	@DEBUG_VALUE: p <- $r0
	@DEBUG_VALUE: etharp_query:i <- $r9
	@DEBUG_VALUE: etharp_query:netif <- $r6
	.loc	3 1095 35               @ ../Libraries/lwip-1.4.1/src/netif/etharp.c:1095:35
	ldrh	r1, [r0, #8]
	.loc	3 1095 11 is_stmt 0     @ ../Libraries/lwip-1.4.1/src/netif/etharp.c:1095:11
	movs	r0, #3
.Ltmp184:
	movs	r2, #0
	bl	pbuf_alloc
	.loc	3 1096 10 is_stmt 1     @ ../Libraries/lwip-1.4.1/src/netif/etharp.c:1096:10
	cbz	r0, .LBB6_22
.Ltmp185:
@ %bb.20:
	@DEBUG_VALUE: etharp_query:i <- $r9
	@DEBUG_VALUE: etharp_query:netif <- $r6
	.loc	3 1097 13               @ ../Libraries/lwip-1.4.1/src/netif/etharp.c:1097:13
	mov	r1, r4
.Ltmp186:
	.loc	3 0 0 is_stmt 0         @ ../Libraries/lwip-1.4.1/src/netif/etharp.c:0:0
	mov	r6, r0
.Ltmp187:
	@DEBUG_VALUE: p <- $r6
	.loc	3 1097 13               @ ../Libraries/lwip-1.4.1/src/netif/etharp.c:1097:13
	bl	pbuf_copy
.Ltmp188:
	.loc	3 1097 13               @ ../Libraries/lwip-1.4.1/src/netif/etharp.c:1097:13
	cbz	r0, .LBB6_23
.Ltmp189:
@ %bb.21:
	@DEBUG_VALUE: p <- $r6
	@DEBUG_VALUE: etharp_query:i <- $r9
	.loc	3 1098 11 is_stmt 1     @ ../Libraries/lwip-1.4.1/src/netif/etharp.c:1098:11
	mov	r0, r6
	bl	pbuf_free
.Ltmp190:
.LBB6_22:
	@DEBUG_VALUE: etharp_query:i <- $r9
	.loc	3 0 11 is_stmt 0        @ ../Libraries/lwip-1.4.1/src/netif/etharp.c:0:11
	movs	r0, #255
	b	.LBB6_2
.Ltmp191:
.LBB6_23:
	@DEBUG_VALUE: p <- $r6
	@DEBUG_VALUE: etharp_query:i <- $r9
	mov	r4, r6
.Ltmp192:
	@DEBUG_VALUE: p <- $r4
.LBB6_24:
	@DEBUG_VALUE: etharp_query:i <- $r9
	.loc	3 1139 24 is_stmt 1     @ ../Libraries/lwip-1.4.1/src/netif/etharp.c:1139:24
	add.w	r0, r9, r9, lsl #2
	add.w	r5, r8, r0, lsl #2
	ldr.w	r0, [r8, r0, lsl #2]
	cbz	r0, .LBB6_26
.Ltmp193:
@ %bb.25:
	@DEBUG_VALUE: etharp_query:i <- $r9
	.loc	3 1141 9                @ ../Libraries/lwip-1.4.1/src/netif/etharp.c:1141:9
	bl	pbuf_free
.Ltmp194:
.LBB6_26:
	@DEBUG_VALUE: etharp_query:i <- $r9
	.loc	3 0 9 is_stmt 0         @ ../Libraries/lwip-1.4.1/src/netif/etharp.c:0:9
	movs	r0, #0
.Ltmp195:
	@DEBUG_VALUE: etharp_query:result <- 0
	.loc	3 1143 22 is_stmt 1     @ ../Libraries/lwip-1.4.1/src/netif/etharp.c:1143:22
	str	r4, [r5]
	b	.LBB6_2
.Ltmp196:
.Lfunc_end6:
	.size	etharp_query, .Lfunc_end6-etharp_query
	.cfi_endproc
	.cantunwind
	.fnend
                                        @ -- End function
	.section	.text.etharp_request,"ax",%progbits
	.hidden	etharp_request          @ -- Begin function etharp_request
	.globl	etharp_request
	.p2align	1
	.type	etharp_request,%function
	.code	16                      @ @etharp_request
	.thumb_func
etharp_request:
.Lfunc_begin7:
	.loc	3 1260 0                @ ../Libraries/lwip-1.4.1/src/netif/etharp.c:1260:0
	.fnstart
	.cfi_startproc
@ %bb.0:
	.save	{r4, r5, r6, r7, r8, lr}
	push.w	{r4, r5, r6, r7, r8, lr}
	.cfi_def_cfa_offset 24
	.cfi_offset lr, -4
	.cfi_offset r8, -8
	.cfi_offset r7, -12
	.cfi_offset r6, -16
	.cfi_offset r5, -20
	.cfi_offset r4, -24
	@DEBUG_VALUE: etharp_request:netif <- $r0
	@DEBUG_VALUE: etharp_request:ipaddr <- $r1
.Ltmp197:
	@DEBUG_VALUE: etharp_raw:netif <- $r0
	@DEBUG_VALUE: etharp_raw:ipdst_addr <- $r1
	@DEBUG_VALUE: etharp_raw:ipsrc_addr <- [DW_OP_plus_uconst 4, DW_OP_stack_value] $r0
	mov	r6, r1
	mov	r4, r0
.Ltmp198:
	@DEBUG_VALUE: etharp_raw:result <- 0
	@DEBUG_VALUE: etharp_raw:opcode <- 1
	@DEBUG_VALUE: etharp_raw:ipsrc_addr <- [DW_OP_plus_uconst 4, DW_OP_stack_value] $r4
	@DEBUG_VALUE: etharp_raw:ipdst_addr <- $r6
	@DEBUG_VALUE: etharp_raw:netif <- $r4
	@DEBUG_VALUE: etharp_request:ipaddr <- $r6
	@DEBUG_VALUE: etharp_request:netif <- $r4
	.loc	3 1192 7 prologue_end   @ ../Libraries/lwip-1.4.1/src/netif/etharp.c:1192:7
	movs	r0, #3
	movs	r1, #42
	movs	r2, #0
	mov.w	r8, #0
	bl	pbuf_alloc
	.loc	3 1194 7                @ ../Libraries/lwip-1.4.1/src/netif/etharp.c:1194:7
	cbz	r0, .LBB7_2
.Ltmp199:
@ %bb.1:
	@DEBUG_VALUE: etharp_request:netif <- $r4
	@DEBUG_VALUE: etharp_request:ipaddr <- $r6
	@DEBUG_VALUE: etharp_raw:netif <- $r4
	@DEBUG_VALUE: etharp_raw:ipdst_addr <- $r6
	@DEBUG_VALUE: etharp_raw:ipsrc_addr <- [DW_OP_plus_uconst 4, DW_OP_stack_value] $r4
	.loc	3 0 0 is_stmt 0         @ ../Libraries/lwip-1.4.1/src/netif/etharp.c:0:0
	mov	r5, r0
.Ltmp200:
	@DEBUG_VALUE: etharp_raw:p <- $r5
	.loc	3 1203 33 is_stmt 1     @ ../Libraries/lwip-1.4.1/src/netif/etharp.c:1203:33
	ldr	r7, [r0, #4]
.Ltmp201:
	@DEBUG_VALUE: etharp_raw:hdr <- undef
	@DEBUG_VALUE: etharp_raw:ethhdr <- $r7
	.loc	3 1206 17               @ ../Libraries/lwip-1.4.1/src/netif/etharp.c:1206:17
	movs	r0, #1
	bl	lwip_htons
	.loc	3 1206 15 is_stmt 0     @ ../Libraries/lwip-1.4.1/src/netif/etharp.c:1206:15
	strh	r0, [r7, #20]
.Ltmp202:
	@DEBUG_VALUE: etharp_raw:ethsrc_addr <- [DW_OP_plus_uconst 39, DW_OP_stack_value] $r4
	@DEBUG_VALUE: etharp_raw:hwsrc_addr <- [DW_OP_plus_uconst 39, DW_OP_stack_value] $r4
	.loc	3 0 15                  @ ../Libraries/lwip-1.4.1/src/netif/etharp.c:0:15
	mov.w	r2, #-1
	.loc	3 1217 3 is_stmt 1      @ ../Libraries/lwip-1.4.1/src/netif/etharp.c:1217:3
	ldr.w	r0, [r4, #39]
	ldrh.w	r1, [r4, #43]
	.loc	3 1223 3                @ ../Libraries/lwip-1.4.1/src/netif/etharp.c:1223:3
	strh	r2, [r7, #4]
	str	r2, [r7]
	.loc	3 1218 3                @ ../Libraries/lwip-1.4.1/src/netif/etharp.c:1218:3
	strh.w	r8, [r7, #36]
	str.w	r8, [r7, #32]
	.loc	3 1217 3                @ ../Libraries/lwip-1.4.1/src/netif/etharp.c:1217:3
	strh	r1, [r7, #26]
	str.w	r0, [r7, #22]
	movw	r1, #1544
	.loc	3 1225 3                @ ../Libraries/lwip-1.4.1/src/netif/etharp.c:1225:3
	ldrh.w	r0, [r4, #43]
	movt	r1, #256
	strh	r0, [r7, #10]
	ldr.w	r0, [r4, #39]
	str.w	r0, [r7, #6]
	.loc	3 1228 3                @ ../Libraries/lwip-1.4.1/src/netif/etharp.c:1228:3
	ldr	r0, [r4, #4]
	str	r0, [r7, #28]
	.loc	3 1229 3                @ ../Libraries/lwip-1.4.1/src/netif/etharp.c:1229:3
	ldr	r0, [r6]
	.loc	3 1237 16               @ ../Libraries/lwip-1.4.1/src/netif/etharp.c:1237:16
	str	r1, [r7, #12]
	movs	r1, #8
	movt	r1, #1030
	.loc	3 1232 14               @ ../Libraries/lwip-1.4.1/src/netif/etharp.c:1232:14
	str	r1, [r7, #16]
	.loc	3 1229 3                @ ../Libraries/lwip-1.4.1/src/netif/etharp.c:1229:3
	str.w	r0, [r7, #38]
	.loc	3 1239 12               @ ../Libraries/lwip-1.4.1/src/netif/etharp.c:1239:12
	mov	r0, r4
	mov	r1, r5
	.loc	3 1239 19 is_stmt 0     @ ../Libraries/lwip-1.4.1/src/netif/etharp.c:1239:19
	ldr	r2, [r4, #24]
	.loc	3 1239 12               @ ../Libraries/lwip-1.4.1/src/netif/etharp.c:1239:12
	blx	r2
	mov	r4, r0
.Ltmp203:
	@DEBUG_VALUE: etharp_raw:result <- undef
	.loc	3 1242 3 is_stmt 1      @ ../Libraries/lwip-1.4.1/src/netif/etharp.c:1242:3
	mov	r0, r5
	bl	pbuf_free
.Ltmp204:
	@DEBUG_VALUE: etharp_raw:p <- 0
	.loc	3 1262 3                @ ../Libraries/lwip-1.4.1/src/netif/etharp.c:1262:3
	mov	r0, r4
	pop.w	{r4, r5, r6, r7, r8, pc}
.Ltmp205:
.LBB7_2:
	@DEBUG_VALUE: etharp_request:netif <- $r4
	@DEBUG_VALUE: etharp_request:ipaddr <- $r6
	mov.w	r0, #-1
	pop.w	{r4, r5, r6, r7, r8, pc}
.Ltmp206:
.Lfunc_end7:
	.size	etharp_request, .Lfunc_end7-etharp_request
	.cfi_endproc
	.cantunwind
	.fnend
                                        @ -- End function
	.section	.text.ethernet_input,"ax",%progbits
	.hidden	ethernet_input          @ -- Begin function ethernet_input
	.globl	ethernet_input
	.p2align	1
	.type	ethernet_input,%function
	.code	16                      @ @ethernet_input
	.thumb_func
ethernet_input:
.Lfunc_begin8:
	.loc	3 1278 0                @ ../Libraries/lwip-1.4.1/src/netif/etharp.c:1278:0
	.fnstart
	.cfi_startproc
@ %bb.0:
	.save	{r4, r5, r6, r7, r8, r9, r10, r11, lr}
	push.w	{r4, r5, r6, r7, r8, r9, r10, r11, lr}
	.cfi_def_cfa_offset 36
	.cfi_offset lr, -4
	.cfi_offset r11, -8
	.cfi_offset r10, -12
	.cfi_offset r9, -16
	.cfi_offset r8, -20
	.cfi_offset r7, -24
	.cfi_offset r6, -28
	.cfi_offset r5, -32
	.cfi_offset r4, -36
	.pad	#4
	sub	sp, #4
	.cfi_def_cfa_offset 40
	@DEBUG_VALUE: ethernet_input:p <- $r0
	@DEBUG_VALUE: ethernet_input:netif <- $r1
.Ltmp207:
	@DEBUG_VALUE: etharp_arp_input:p <- $r0
	@DEBUG_VALUE: etharp_arp_input:netif <- $r1
	@DEBUG_VALUE: etharp_update_arp_entry:netif <- $r1
	@DEBUG_VALUE: etharp_send_ip:netif <- $r1
	.loc	3 1285 10 prologue_end  @ ../Libraries/lwip-1.4.1/src/netif/etharp.c:1285:10
	ldrh	r7, [r0, #10]
	mov	r4, r0
.Ltmp208:
	@DEBUG_VALUE: ethernet_input:ip_hdr_offset <- 14
	@DEBUG_VALUE: etharp_arp_input:p <- $r4
	@DEBUG_VALUE: ethernet_input:p <- $r4
	.loc	3 1285 7 is_stmt 0      @ ../Libraries/lwip-1.4.1/src/netif/etharp.c:1285:7
	cmp	r7, #15
	blo.w	.LBB8_31
.Ltmp209:
@ %bb.1:
	@DEBUG_VALUE: ethernet_input:p <- $r4
	@DEBUG_VALUE: etharp_arp_input:p <- $r4
	@DEBUG_VALUE: etharp_send_ip:netif <- $r1
	@DEBUG_VALUE: etharp_update_arp_entry:netif <- $r1
	@DEBUG_VALUE: etharp_arp_input:netif <- $r1
	@DEBUG_VALUE: ethernet_input:netif <- $r1
	.loc	3 1293 33 is_stmt 1     @ ../Libraries/lwip-1.4.1/src/netif/etharp.c:1293:33
	ldr	r6, [r4, #4]
.Ltmp210:
	@DEBUG_VALUE: ethernet_input:type <- [DW_OP_plus_uconst 12, DW_OP_deref, DW_OP_stack_value] $r6
	@DEBUG_VALUE: ethernet_input:ethhdr <- $r6
	@DEBUG_VALUE: etharp_arp_input:ethhdr <- $r6
	.loc	3 0 33 is_stmt 0        @ ../Libraries/lwip-1.4.1/src/netif/etharp.c:0:33
	mov	r11, r1
.Ltmp211:
	@DEBUG_VALUE: ethernet_input:netif <- $r11
	@DEBUG_VALUE: ethernet_input:netif <- $r11
	@DEBUG_VALUE: etharp_arp_input:netif <- $r11
	@DEBUG_VALUE: etharp_update_arp_entry:netif <- $r11
	@DEBUG_VALUE: etharp_send_ip:netif <- $r11
	.loc	3 1332 7 is_stmt 1      @ ../Libraries/lwip-1.4.1/src/netif/etharp.c:1332:7
	ldrb	r0, [r6]
.Ltmp212:
	.loc	3 1302 18               @ ../Libraries/lwip-1.4.1/src/netif/etharp.c:1302:18
	ldrh	r5, [r6, #12]
	.loc	3 1332 7                @ ../Libraries/lwip-1.4.1/src/netif/etharp.c:1332:7
	lsls	r1, r0, #31
	beq	.LBB8_9
.Ltmp213:
@ %bb.2:
	@DEBUG_VALUE: ethernet_input:netif <- $r11
	@DEBUG_VALUE: ethernet_input:ethhdr <- $r6
	@DEBUG_VALUE: ethernet_input:type <- [DW_OP_plus_uconst 12, DW_OP_deref, DW_OP_stack_value] $r6
	@DEBUG_VALUE: ethernet_input:p <- $r4
	.loc	3 1334 9                @ ../Libraries/lwip-1.4.1/src/netif/etharp.c:1334:9
	cmp	r0, #1
	bne	.LBB8_6
.Ltmp214:
@ %bb.3:
	@DEBUG_VALUE: ethernet_input:netif <- $r11
	@DEBUG_VALUE: ethernet_input:ethhdr <- $r6
	@DEBUG_VALUE: ethernet_input:type <- [DW_OP_plus_uconst 12, DW_OP_deref, DW_OP_stack_value] $r6
	@DEBUG_VALUE: ethernet_input:p <- $r4
	.loc	3 1335 12               @ ../Libraries/lwip-1.4.1/src/netif/etharp.c:1335:12
	ldrb	r0, [r6, #1]
	.loc	3 1335 57 is_stmt 0     @ ../Libraries/lwip-1.4.1/src/netif/etharp.c:1335:57
	cbnz	r0, .LBB8_9
.Ltmp215:
@ %bb.4:
	@DEBUG_VALUE: ethernet_input:netif <- $r11
	@DEBUG_VALUE: ethernet_input:ethhdr <- $r6
	@DEBUG_VALUE: ethernet_input:type <- [DW_OP_plus_uconst 12, DW_OP_deref, DW_OP_stack_value] $r6
	@DEBUG_VALUE: ethernet_input:p <- $r4
	.loc	3 1336 12 is_stmt 1     @ ../Libraries/lwip-1.4.1/src/netif/etharp.c:1336:12
	ldrb	r0, [r6, #2]
.Ltmp216:
	.loc	3 1335 11               @ ../Libraries/lwip-1.4.1/src/netif/etharp.c:1335:11
	cmp	r0, #94
	bne	.LBB8_9
.Ltmp217:
@ %bb.5:
	@DEBUG_VALUE: ethernet_input:netif <- $r11
	@DEBUG_VALUE: ethernet_input:ethhdr <- $r6
	@DEBUG_VALUE: ethernet_input:type <- [DW_OP_plus_uconst 12, DW_OP_deref, DW_OP_stack_value] $r6
	@DEBUG_VALUE: ethernet_input:p <- $r4
	.loc	3 1338 18               @ ../Libraries/lwip-1.4.1/src/netif/etharp.c:1338:18
	ldrb	r0, [r4, #13]
	orr	r0, r0, #16
	b	.LBB8_8
.Ltmp218:
.LBB8_6:
	@DEBUG_VALUE: ethernet_input:netif <- $r11
	@DEBUG_VALUE: ethernet_input:ethhdr <- $r6
	@DEBUG_VALUE: ethernet_input:type <- [DW_OP_plus_uconst 12, DW_OP_deref, DW_OP_stack_value] $r6
	@DEBUG_VALUE: ethernet_input:p <- $r4
	.loc	3 1340 16               @ ../Libraries/lwip-1.4.1/src/netif/etharp.c:1340:16
	movw	r1, :lower16:ethbroadcast
	mov	r0, r6
	movs	r2, #6
	movt	r1, :upper16:ethbroadcast
	bl	memcmp
.Ltmp219:
	.loc	3 1340 16 is_stmt 0     @ ../Libraries/lwip-1.4.1/src/netif/etharp.c:1340:16
	cbnz	r0, .LBB8_9
.Ltmp220:
@ %bb.7:
	@DEBUG_VALUE: ethernet_input:netif <- $r11
	@DEBUG_VALUE: ethernet_input:ethhdr <- $r6
	@DEBUG_VALUE: ethernet_input:type <- [DW_OP_plus_uconst 12, DW_OP_deref, DW_OP_stack_value] $r6
	@DEBUG_VALUE: ethernet_input:p <- $r4
	.loc	3 1342 16 is_stmt 1     @ ../Libraries/lwip-1.4.1/src/netif/etharp.c:1342:16
	ldrb	r0, [r4, #13]
	orr	r0, r0, #8
.Ltmp221:
.LBB8_8:
	@DEBUG_VALUE: ethernet_input:netif <- $r11
	@DEBUG_VALUE: ethernet_input:ethhdr <- $r6
	@DEBUG_VALUE: ethernet_input:type <- [DW_OP_plus_uconst 12, DW_OP_deref, DW_OP_stack_value] $r6
	@DEBUG_VALUE: ethernet_input:p <- $r4
	.loc	3 0 0 is_stmt 0         @ ../Libraries/lwip-1.4.1/src/netif/etharp.c:0:0
	strb	r0, [r4, #13]
.Ltmp222:
.LBB8_9:
	@DEBUG_VALUE: ethernet_input:netif <- $r11
	@DEBUG_VALUE: ethernet_input:ethhdr <- $r6
	@DEBUG_VALUE: ethernet_input:type <- [DW_OP_plus_uconst 12, DW_OP_deref, DW_OP_stack_value] $r6
	@DEBUG_VALUE: ethernet_input:p <- $r4
	.loc	3 1346 3 is_stmt 1      @ ../Libraries/lwip-1.4.1/src/netif/etharp.c:1346:3
	cmp.w	r5, #1544
	beq	.LBB8_14
.Ltmp223:
@ %bb.10:
	@DEBUG_VALUE: ethernet_input:netif <- $r11
	@DEBUG_VALUE: ethernet_input:ethhdr <- $r6
	@DEBUG_VALUE: ethernet_input:type <- [DW_OP_plus_uconst 12, DW_OP_deref, DW_OP_stack_value] $r6
	@DEBUG_VALUE: ethernet_input:p <- $r4
	cmp	r5, #8
	bne.w	.LBB8_31
.Ltmp224:
@ %bb.11:
	@DEBUG_VALUE: ethernet_input:netif <- $r11
	@DEBUG_VALUE: ethernet_input:ethhdr <- $r6
	@DEBUG_VALUE: ethernet_input:type <- [DW_OP_plus_uconst 12, DW_OP_deref, DW_OP_stack_value] $r6
	@DEBUG_VALUE: ethernet_input:p <- $r4
	.loc	3 1350 20               @ ../Libraries/lwip-1.4.1/src/netif/etharp.c:1350:20
	ldrb.w	r0, [r11, #45]
.Ltmp225:
	.loc	3 1350 11 is_stmt 0     @ ../Libraries/lwip-1.4.1/src/netif/etharp.c:1350:11
	lsls	r0, r0, #26
	bpl.w	.LBB8_31
.Ltmp226:
@ %bb.12:
	@DEBUG_VALUE: ethernet_input:netif <- $r11
	@DEBUG_VALUE: ethernet_input:ethhdr <- $r6
	@DEBUG_VALUE: ethernet_input:type <- [DW_OP_plus_uconst 12, DW_OP_deref, DW_OP_stack_value] $r6
	@DEBUG_VALUE: ethernet_input:p <- $r4
	.loc	3 1358 10 is_stmt 1     @ ../Libraries/lwip-1.4.1/src/netif/etharp.c:1358:10
	mov	r0, r4
	mvn	r1, #13
	bl	pbuf_header
.Ltmp227:
	.loc	3 1358 10 is_stmt 0     @ ../Libraries/lwip-1.4.1/src/netif/etharp.c:1358:10
	cmp	r0, #0
	bne.w	.LBB8_31
.Ltmp228:
@ %bb.13:
	@DEBUG_VALUE: ethernet_input:netif <- $r11
	@DEBUG_VALUE: ethernet_input:ethhdr <- $r6
	@DEBUG_VALUE: ethernet_input:type <- [DW_OP_plus_uconst 12, DW_OP_deref, DW_OP_stack_value] $r6
	@DEBUG_VALUE: ethernet_input:p <- $r4
	.loc	3 1363 9 is_stmt 1      @ ../Libraries/lwip-1.4.1/src/netif/etharp.c:1363:9
	mov	r0, r4
	mov	r1, r11
	bl	ip_input
	b	.LBB8_32
.Ltmp229:
.LBB8_14:
	@DEBUG_VALUE: ethernet_input:netif <- $r11
	@DEBUG_VALUE: ethernet_input:ethhdr <- $r6
	@DEBUG_VALUE: ethernet_input:type <- [DW_OP_plus_uconst 12, DW_OP_deref, DW_OP_stack_value] $r6
	@DEBUG_VALUE: ethernet_input:p <- $r4
	.loc	3 1368 20               @ ../Libraries/lwip-1.4.1/src/netif/etharp.c:1368:20
	ldrb.w	r0, [r11, #45]
.Ltmp230:
	.loc	3 1368 11 is_stmt 0     @ ../Libraries/lwip-1.4.1/src/netif/etharp.c:1368:11
	lsls	r0, r0, #26
	bpl.w	.LBB8_31
.Ltmp231:
@ %bb.15:
	@DEBUG_VALUE: ethernet_input:netif <- $r11
	@DEBUG_VALUE: ethernet_input:ethhdr <- $r6
	@DEBUG_VALUE: ethernet_input:type <- [DW_OP_plus_uconst 12, DW_OP_deref, DW_OP_stack_value] $r6
	@DEBUG_VALUE: ethernet_input:p <- $r4
	.loc	3 703 7 is_stmt 1       @ ../Libraries/lwip-1.4.1/src/netif/etharp.c:703:7
	cmp	r7, #41
	bls.w	.LBB8_31
.Ltmp232:
@ %bb.16:
	@DEBUG_VALUE: ethernet_input:netif <- $r11
	@DEBUG_VALUE: ethernet_input:ethhdr <- $r6
	@DEBUG_VALUE: ethernet_input:type <- [DW_OP_plus_uconst 12, DW_OP_deref, DW_OP_stack_value] $r6
	@DEBUG_VALUE: ethernet_input:p <- $r4
	@DEBUG_VALUE: etharp_arp_input:hdr <- [DW_OP_plus_uconst 14, DW_OP_stack_value] $r6
	.loc	3 722 13                @ ../Libraries/lwip-1.4.1/src/netif/etharp.c:722:13
	ldrh	r0, [r6, #14]
	.loc	3 722 50 is_stmt 0      @ ../Libraries/lwip-1.4.1/src/netif/etharp.c:722:50
	cmp.w	r0, #256
	bne.w	.LBB8_31
.Ltmp233:
@ %bb.17:
	@DEBUG_VALUE: etharp_arp_input:hdr <- [DW_OP_plus_uconst 14, DW_OP_stack_value] $r6
	@DEBUG_VALUE: ethernet_input:netif <- $r11
	@DEBUG_VALUE: ethernet_input:ethhdr <- $r6
	@DEBUG_VALUE: ethernet_input:type <- [DW_OP_plus_uconst 12, DW_OP_deref, DW_OP_stack_value] $r6
	@DEBUG_VALUE: ethernet_input:p <- $r4
	.loc	3 723 13 is_stmt 1      @ ../Libraries/lwip-1.4.1/src/netif/etharp.c:723:13
	ldrb	r0, [r6, #18]
	.loc	3 723 41 is_stmt 0      @ ../Libraries/lwip-1.4.1/src/netif/etharp.c:723:41
	cmp	r0, #6
	bne.w	.LBB8_31
.Ltmp234:
@ %bb.18:
	@DEBUG_VALUE: etharp_arp_input:hdr <- [DW_OP_plus_uconst 14, DW_OP_stack_value] $r6
	@DEBUG_VALUE: ethernet_input:netif <- $r11
	@DEBUG_VALUE: ethernet_input:ethhdr <- $r6
	@DEBUG_VALUE: ethernet_input:type <- [DW_OP_plus_uconst 12, DW_OP_deref, DW_OP_stack_value] $r6
	@DEBUG_VALUE: ethernet_input:p <- $r4
	.loc	3 724 13 is_stmt 1      @ ../Libraries/lwip-1.4.1/src/netif/etharp.c:724:13
	ldrb	r0, [r6, #19]
	.loc	3 724 44 is_stmt 0      @ ../Libraries/lwip-1.4.1/src/netif/etharp.c:724:44
	cmp	r0, #4
	bne.w	.LBB8_31
.Ltmp235:
@ %bb.19:
	@DEBUG_VALUE: etharp_arp_input:hdr <- [DW_OP_plus_uconst 14, DW_OP_stack_value] $r6
	@DEBUG_VALUE: ethernet_input:netif <- $r11
	@DEBUG_VALUE: ethernet_input:ethhdr <- $r6
	@DEBUG_VALUE: ethernet_input:type <- [DW_OP_plus_uconst 12, DW_OP_deref, DW_OP_stack_value] $r6
	@DEBUG_VALUE: ethernet_input:p <- $r4
	.loc	3 725 13 is_stmt 1      @ ../Libraries/lwip-1.4.1/src/netif/etharp.c:725:13
	ldrh	r0, [r6, #16]
.Ltmp236:
	.loc	3 722 7                 @ ../Libraries/lwip-1.4.1/src/netif/etharp.c:722:7
	cmp	r0, #8
	bne.w	.LBB8_31
.Ltmp237:
@ %bb.20:
	@DEBUG_VALUE: etharp_arp_input:hdr <- [DW_OP_plus_uconst 14, DW_OP_stack_value] $r6
	@DEBUG_VALUE: ethernet_input:netif <- $r11
	@DEBUG_VALUE: ethernet_input:ethhdr <- $r6
	@DEBUG_VALUE: ethernet_input:type <- [DW_OP_plus_uconst 12, DW_OP_deref, DW_OP_stack_value] $r6
	@DEBUG_VALUE: ethernet_input:p <- $r4
	.loc	3 745 3                 @ ../Libraries/lwip-1.4.1/src/netif/etharp.c:745:3
	ldr	r7, [r6, #28]
.Ltmp238:
	.loc	3 0 0 is_stmt 0         @ ../Libraries/lwip-1.4.1/src/netif/etharp.c:0:0
	add.w	r9, r11, #39
.Ltmp239:
	@DEBUG_VALUE: etharp_arp_input:ethaddr <- $r9
	@DEBUG_VALUE: etharp_send_ip:src <- $r9
	mov.w	r8, #2
.Ltmp240:
	.loc	3 745 3                 @ ../Libraries/lwip-1.4.1/src/netif/etharp.c:745:3
	str	r7, [sp]
.Ltmp241:
	.loc	3 749 7 is_stmt 1       @ ../Libraries/lwip-1.4.1/src/netif/etharp.c:749:7
	ldr.w	r0, [r11, #4]
.Ltmp242:
	.loc	3 749 7 is_stmt 0       @ ../Libraries/lwip-1.4.1/src/netif/etharp.c:749:7
	cbz	r0, .LBB8_22
.Ltmp243:
@ %bb.21:
	@DEBUG_VALUE: etharp_arp_input:ethaddr <- $r9
	@DEBUG_VALUE: etharp_arp_input:hdr <- [DW_OP_plus_uconst 14, DW_OP_stack_value] $r6
	@DEBUG_VALUE: ethernet_input:netif <- $r11
	@DEBUG_VALUE: ethernet_input:ethhdr <- $r6
	@DEBUG_VALUE: ethernet_input:type <- [DW_OP_plus_uconst 12, DW_OP_deref, DW_OP_stack_value] $r6
	@DEBUG_VALUE: ethernet_input:p <- $r4
	.loc	3 746 3 is_stmt 1       @ ../Libraries/lwip-1.4.1/src/netif/etharp.c:746:3
	ldr.w	r1, [r6, #38]
.Ltmp244:
	@DEBUG_VALUE: etharp_arp_input:dipaddr <- $r1
	.loc	3 762 20                @ ../Libraries/lwip-1.4.1/src/netif/etharp.c:762:20
	cmp	r1, r0
.Ltmp245:
	.loc	3 753 20                @ ../Libraries/lwip-1.4.1/src/netif/etharp.c:753:20
	sub.w	r0, r1, r0
.Ltmp246:
	.loc	3 762 20                @ ../Libraries/lwip-1.4.1/src/netif/etharp.c:762:20
	it	eq
	moveq.w	r8, #1
.Ltmp247:
	.loc	3 753 20                @ ../Libraries/lwip-1.4.1/src/netif/etharp.c:753:20
	clz	r0, r0
	lsrs	r5, r0, #5
	b	.LBB8_23
.Ltmp248:
.LBB8_22:
	@DEBUG_VALUE: etharp_send_ip:src <- $r9
	@DEBUG_VALUE: etharp_arp_input:ethaddr <- $r9
	@DEBUG_VALUE: etharp_arp_input:hdr <- [DW_OP_plus_uconst 14, DW_OP_stack_value] $r6
	@DEBUG_VALUE: ethernet_input:netif <- $r11
	@DEBUG_VALUE: ethernet_input:ethhdr <- $r6
	@DEBUG_VALUE: ethernet_input:type <- [DW_OP_plus_uconst 12, DW_OP_deref, DW_OP_stack_value] $r6
	@DEBUG_VALUE: ethernet_input:p <- $r4
	.loc	3 0 20 is_stmt 0        @ ../Libraries/lwip-1.4.1/src/netif/etharp.c:0:20
	movs	r5, #0
.Ltmp249:
.LBB8_23:
	@DEBUG_VALUE: etharp_arp_input:ethaddr <- $r9
	@DEBUG_VALUE: etharp_arp_input:hdr <- [DW_OP_plus_uconst 14, DW_OP_stack_value] $r6
	@DEBUG_VALUE: ethernet_input:netif <- $r11
	@DEBUG_VALUE: ethernet_input:ethhdr <- $r6
	@DEBUG_VALUE: ethernet_input:type <- [DW_OP_plus_uconst 12, DW_OP_deref, DW_OP_stack_value] $r6
	@DEBUG_VALUE: ethernet_input:p <- $r4
	.loc	3 761 51 is_stmt 1      @ ../Libraries/lwip-1.4.1/src/netif/etharp.c:761:51
	add.w	r10, r6, #22
.Ltmp250:
	@DEBUG_VALUE: etharp_update_arp_entry:ipaddr <- $sp
	@DEBUG_VALUE: etharp_arp_input:sipaddr <- [DW_OP_deref] $sp
	@DEBUG_VALUE: etharp_update_arp_entry:ethaddr <- $r10
	@DEBUG_VALUE: etharp_send_ip:dst <- $r10
	@DEBUG_VALUE: etharp_update_arp_entry:flags <- $r8
	.loc	3 457 29                @ ../Libraries/lwip-1.4.1/src/netif/etharp.c:457:29
	cmp	r7, #0
	beq	.LBB8_29
.Ltmp251:
@ %bb.24:
	@DEBUG_VALUE: etharp_update_arp_entry:flags <- $r8
	@DEBUG_VALUE: etharp_update_arp_entry:ethaddr <- $r10
	@DEBUG_VALUE: etharp_arp_input:sipaddr <- [DW_OP_deref] $sp
	@DEBUG_VALUE: etharp_update_arp_entry:ipaddr <- $sp
	@DEBUG_VALUE: etharp_arp_input:ethaddr <- $r9
	@DEBUG_VALUE: etharp_arp_input:hdr <- [DW_OP_plus_uconst 14, DW_OP_stack_value] $r6
	@DEBUG_VALUE: ethernet_input:netif <- $r11
	@DEBUG_VALUE: ethernet_input:ethhdr <- $r6
	@DEBUG_VALUE: ethernet_input:type <- [DW_OP_plus_uconst 12, DW_OP_deref, DW_OP_stack_value] $r6
	@DEBUG_VALUE: ethernet_input:p <- $r4
	.loc	3 458 7                 @ ../Libraries/lwip-1.4.1/src/netif/etharp.c:458:7
	mov	r0, r7
	mov	r1, r11
	bl	ip4_addr_isbroadcast
	.loc	3 459 7                 @ ../Libraries/lwip-1.4.1/src/netif/etharp.c:459:7
	and	r1, r7, #240
	.loc	3 458 42                @ ../Libraries/lwip-1.4.1/src/netif/etharp.c:458:42
	cmp	r1, #224
	beq	.LBB8_29
.Ltmp252:
@ %bb.25:
	@DEBUG_VALUE: etharp_update_arp_entry:flags <- $r8
	@DEBUG_VALUE: etharp_update_arp_entry:ethaddr <- $r10
	@DEBUG_VALUE: etharp_arp_input:sipaddr <- [DW_OP_deref] $sp
	@DEBUG_VALUE: etharp_update_arp_entry:ipaddr <- $sp
	@DEBUG_VALUE: etharp_arp_input:ethaddr <- $r9
	@DEBUG_VALUE: etharp_arp_input:hdr <- [DW_OP_plus_uconst 14, DW_OP_stack_value] $r6
	@DEBUG_VALUE: ethernet_input:netif <- $r11
	@DEBUG_VALUE: ethernet_input:ethhdr <- $r6
	@DEBUG_VALUE: ethernet_input:type <- [DW_OP_plus_uconst 12, DW_OP_deref, DW_OP_stack_value] $r6
	@DEBUG_VALUE: ethernet_input:p <- $r4
	cbnz	r0, .LBB8_29
.Ltmp253:
@ %bb.26:
	@DEBUG_VALUE: etharp_update_arp_entry:flags <- $r8
	@DEBUG_VALUE: etharp_update_arp_entry:ethaddr <- $r10
	@DEBUG_VALUE: etharp_arp_input:sipaddr <- [DW_OP_deref] $sp
	@DEBUG_VALUE: etharp_update_arp_entry:ipaddr <- $sp
	@DEBUG_VALUE: etharp_arp_input:ethaddr <- $r9
	@DEBUG_VALUE: etharp_arp_input:hdr <- [DW_OP_plus_uconst 14, DW_OP_stack_value] $r6
	@DEBUG_VALUE: ethernet_input:netif <- $r11
	@DEBUG_VALUE: ethernet_input:ethhdr <- $r6
	@DEBUG_VALUE: ethernet_input:type <- [DW_OP_plus_uconst 12, DW_OP_deref, DW_OP_stack_value] $r6
	@DEBUG_VALUE: ethernet_input:p <- $r4
	.loc	3 0 42 is_stmt 0        @ ../Libraries/lwip-1.4.1/src/netif/etharp.c:0:42
	mov	r0, sp
	.loc	3 464 7 is_stmt 1       @ ../Libraries/lwip-1.4.1/src/netif/etharp.c:464:7
	mov	r1, r8
	bl	etharp_find_entry
.Ltmp254:
	@DEBUG_VALUE: etharp_update_arp_entry:i <- $r0
	.loc	3 466 7                 @ ../Libraries/lwip-1.4.1/src/netif/etharp.c:466:7
	cmp	r0, #0
	blt	.LBB8_29
.Ltmp255:
@ %bb.27:
	@DEBUG_VALUE: etharp_update_arp_entry:i <- $r0
	@DEBUG_VALUE: etharp_update_arp_entry:flags <- $r8
	@DEBUG_VALUE: etharp_update_arp_entry:ethaddr <- $r10
	@DEBUG_VALUE: etharp_arp_input:sipaddr <- [DW_OP_deref] $sp
	@DEBUG_VALUE: etharp_update_arp_entry:ipaddr <- $sp
	@DEBUG_VALUE: etharp_arp_input:ethaddr <- $r9
	@DEBUG_VALUE: etharp_arp_input:hdr <- [DW_OP_plus_uconst 14, DW_OP_stack_value] $r6
	@DEBUG_VALUE: ethernet_input:netif <- $r11
	@DEBUG_VALUE: ethernet_input:ethhdr <- $r6
	@DEBUG_VALUE: ethernet_input:type <- [DW_OP_plus_uconst 12, DW_OP_deref, DW_OP_stack_value] $r6
	@DEBUG_VALUE: ethernet_input:p <- $r4
	.loc	3 478 18                @ ../Libraries/lwip-1.4.1/src/netif/etharp.c:478:18
	movw	r3, :lower16:arp_table
	add.w	r2, r0, r0, lsl #2
	movs	r1, #2
	mov.w	r12, #0
	movt	r3, :upper16:arp_table
	add.w	r0, r3, r2, lsl #2
.Ltmp256:
	.loc	3 482 22                @ ../Libraries/lwip-1.4.1/src/netif/etharp.c:482:22
	str.w	r11, [r0, #8]
.Ltmp257:
	.loc	3 478 24                @ ../Libraries/lwip-1.4.1/src/netif/etharp.c:478:24
	strb	r1, [r0, #18]
.Ltmp258:
	.loc	3 488 3                 @ ../Libraries/lwip-1.4.1/src/netif/etharp.c:488:3
	ldr.w	r7, [r10]
	ldrh.w	r1, [r10, #4]
	.loc	3 490 22                @ ../Libraries/lwip-1.4.1/src/netif/etharp.c:490:22
	strb.w	r12, [r0, #19]
	.loc	3 488 3                 @ ../Libraries/lwip-1.4.1/src/netif/etharp.c:488:3
	strh	r1, [r0, #16]
	str	r7, [r0, #12]
.Ltmp259:
	.loc	3 504 20                @ ../Libraries/lwip-1.4.1/src/netif/etharp.c:504:20
	ldr.w	r7, [r3, r2, lsl #2]
.Ltmp260:
	@DEBUG_VALUE: p <- $r7
	@DEBUG_VALUE: etharp_send_ip:p <- $r7
	.loc	3 504 7 is_stmt 0       @ ../Libraries/lwip-1.4.1/src/netif/etharp.c:504:7
	cbz	r7, .LBB8_29
.Ltmp261:
@ %bb.28:
	@DEBUG_VALUE: etharp_send_ip:p <- $r7
	@DEBUG_VALUE: p <- $r7
	@DEBUG_VALUE: etharp_update_arp_entry:flags <- $r8
	@DEBUG_VALUE: etharp_update_arp_entry:ethaddr <- $r10
	@DEBUG_VALUE: etharp_arp_input:sipaddr <- [DW_OP_deref] $sp
	@DEBUG_VALUE: etharp_update_arp_entry:ipaddr <- $sp
	@DEBUG_VALUE: etharp_arp_input:ethaddr <- $r9
	@DEBUG_VALUE: etharp_arp_input:hdr <- [DW_OP_plus_uconst 14, DW_OP_stack_value] $r6
	@DEBUG_VALUE: ethernet_input:netif <- $r11
	@DEBUG_VALUE: ethernet_input:ethhdr <- $r6
	@DEBUG_VALUE: ethernet_input:type <- [DW_OP_plus_uconst 12, DW_OP_deref, DW_OP_stack_value] $r6
	@DEBUG_VALUE: ethernet_input:p <- $r4
	.loc	3 506 20 is_stmt 1      @ ../Libraries/lwip-1.4.1/src/netif/etharp.c:506:20
	str.w	r12, [r0]
	movs	r3, #8
.Ltmp262:
	.loc	3 417 49                @ ../Libraries/lwip-1.4.1/src/netif/etharp.c:417:49
	ldr	r0, [r7, #4]
.Ltmp263:
	@DEBUG_VALUE: etharp_send_ip:ethhdr <- $r0
	.loc	3 421 3                 @ ../Libraries/lwip-1.4.1/src/netif/etharp.c:421:3
	ldrh.w	r1, [r10, #4]
	strh	r1, [r0, #4]
	ldr.w	r1, [r10]
	str	r1, [r0]
	.loc	3 422 3                 @ ../Libraries/lwip-1.4.1/src/netif/etharp.c:422:3
	ldr.w	r1, [r9]
	ldrh.w	r2, [r9, #4]
	.loc	3 423 16                @ ../Libraries/lwip-1.4.1/src/netif/etharp.c:423:16
	strh	r3, [r0, #12]
	.loc	3 422 3                 @ ../Libraries/lwip-1.4.1/src/netif/etharp.c:422:3
	str.w	r1, [r0, #6]
	strh	r2, [r0, #10]
	.loc	3 426 10                @ ../Libraries/lwip-1.4.1/src/netif/etharp.c:426:10
	mov	r0, r11
.Ltmp264:
	mov	r1, r7
	.loc	3 426 17 is_stmt 0      @ ../Libraries/lwip-1.4.1/src/netif/etharp.c:426:17
	ldr.w	r2, [r11, #24]
	.loc	3 426 10                @ ../Libraries/lwip-1.4.1/src/netif/etharp.c:426:10
	blx	r2
.Ltmp265:
	.loc	3 511 5 is_stmt 1       @ ../Libraries/lwip-1.4.1/src/netif/etharp.c:511:5
	mov	r0, r7
	bl	pbuf_free
.Ltmp266:
.LBB8_29:
	@DEBUG_VALUE: etharp_arp_input:sipaddr <- [DW_OP_deref] $sp
	@DEBUG_VALUE: etharp_arp_input:ethaddr <- $r9
	@DEBUG_VALUE: etharp_arp_input:hdr <- [DW_OP_plus_uconst 14, DW_OP_stack_value] $r6
	@DEBUG_VALUE: ethernet_input:netif <- $r11
	@DEBUG_VALUE: ethernet_input:ethhdr <- $r6
	@DEBUG_VALUE: ethernet_input:type <- [DW_OP_plus_uconst 12, DW_OP_deref, DW_OP_stack_value] $r6
	@DEBUG_VALUE: ethernet_input:p <- $r4
	.loc	3 765 16                @ ../Libraries/lwip-1.4.1/src/netif/etharp.c:765:16
	ldrh	r0, [r6, #20]
	.loc	3 765 3 is_stmt 0       @ ../Libraries/lwip-1.4.1/src/netif/etharp.c:765:3
	eor	r1, r5, #1
	subs.w	r0, r0, #256
	it	ne
	movne	r0, #1
	orrs	r0, r1
	bne	.LBB8_31
.Ltmp267:
@ %bb.30:
	@DEBUG_VALUE: etharp_arp_input:sipaddr <- [DW_OP_deref] $sp
	@DEBUG_VALUE: etharp_arp_input:ethaddr <- $r9
	@DEBUG_VALUE: etharp_arp_input:hdr <- [DW_OP_plus_uconst 14, DW_OP_stack_value] $r6
	@DEBUG_VALUE: ethernet_input:netif <- $r11
	@DEBUG_VALUE: ethernet_input:ethhdr <- $r6
	@DEBUG_VALUE: ethernet_input:type <- [DW_OP_plus_uconst 12, DW_OP_deref, DW_OP_stack_value] $r6
	@DEBUG_VALUE: ethernet_input:p <- $r4
	.loc	3 780 21 is_stmt 1      @ ../Libraries/lwip-1.4.1/src/netif/etharp.c:780:21
	movs	r0, #2
	bl	lwip_htons
	.loc	3 780 19 is_stmt 0      @ ../Libraries/lwip-1.4.1/src/netif/etharp.c:780:19
	strh	r0, [r6, #20]
	.loc	3 807 7 is_stmt 1       @ ../Libraries/lwip-1.4.1/src/netif/etharp.c:807:7
	mov	r1, r4
	.loc	3 782 7                 @ ../Libraries/lwip-1.4.1/src/netif/etharp.c:782:7
	ldr	r0, [r6, #28]
	str.w	r0, [r6, #38]
	.loc	3 783 7                 @ ../Libraries/lwip-1.4.1/src/netif/etharp.c:783:7
	ldr.w	r0, [r11, #4]
	str	r0, [r6, #28]
	.loc	3 794 7                 @ ../Libraries/lwip-1.4.1/src/netif/etharp.c:794:7
	ldrh.w	r0, [r10, #4]
	strh	r0, [r6, #36]
	ldr.w	r0, [r10]
	str	r0, [r6, #32]
	.loc	3 798 7                 @ ../Libraries/lwip-1.4.1/src/netif/etharp.c:798:7
	ldr.w	r0, [r10]
	str	r0, [r6]
	ldrh.w	r0, [r10, #4]
	strh	r0, [r6, #4]
	.loc	3 800 7                 @ ../Libraries/lwip-1.4.1/src/netif/etharp.c:800:7
	ldrh.w	r0, [r9, #4]
	strh.w	r0, [r10, #4]
	ldr.w	r0, [r9]
	str.w	r0, [r10]
	.loc	3 801 7                 @ ../Libraries/lwip-1.4.1/src/netif/etharp.c:801:7
	ldrh.w	r0, [r9, #4]
	strh	r0, [r6, #10]
	ldr.w	r0, [r9]
	str.w	r0, [r6, #6]
	.loc	3 807 7                 @ ../Libraries/lwip-1.4.1/src/netif/etharp.c:807:7
	mov	r0, r11
	.loc	3 807 14 is_stmt 0      @ ../Libraries/lwip-1.4.1/src/netif/etharp.c:807:14
	ldr.w	r2, [r11, #24]
	.loc	3 807 7                 @ ../Libraries/lwip-1.4.1/src/netif/etharp.c:807:7
	blx	r2
.Ltmp268:
.LBB8_31:
	@DEBUG_VALUE: ethernet_input:p <- $r4
	@DEBUG_LABEL: ethernet_input:free_and_return
	.loc	3 0 0                   @ ../Libraries/lwip-1.4.1/src/netif/etharp.c:0:0
	mov	r0, r4
	bl	pbuf_free
.Ltmp269:
.LBB8_32:
	@DEBUG_VALUE: ethernet_input:p <- $r4
	.loc	3 1398 1 is_stmt 1      @ ../Libraries/lwip-1.4.1/src/netif/etharp.c:1398:1
	movs	r0, #0
	add	sp, #4
	pop.w	{r4, r5, r6, r7, r8, r9, r10, r11, pc}
.Ltmp270:
.Lfunc_end8:
	.size	ethernet_input, .Lfunc_end8-ethernet_input
	.cfi_endproc
	.cantunwind
	.fnend
                                        @ -- End function
	.hidden	ethbroadcast            @ @ethbroadcast
	.type	ethbroadcast,%object
	.section	.rodata.ethbroadcast,"a",%progbits
	.globl	ethbroadcast
ethbroadcast:
	.zero	6,255
	.size	ethbroadcast, 6

	.hidden	ethzero                 @ @ethzero
	.type	ethzero,%object
	.section	.rodata.ethzero,"a",%progbits
	.globl	ethzero
ethzero:
	.zero	6
	.size	ethzero, 6

	.type	arp_table,%object       @ @arp_table
	.section	.bss.arp_table,"aw",%nobits
	.p2align	2
arp_table:
	.zero	200
	.size	arp_table, 200

	.type	etharp_cached_entry,%object @ @etharp_cached_entry
	.section	.bss.etharp_cached_entry,"aw",%nobits
etharp_cached_entry:
	.byte	0                       @ 0x0
	.size	etharp_cached_entry, 1

	.section	".note.GNU-stack","",%progbits
	.eabi_attribute	30, 3	@ Tag_ABI_optimization_goals
	.ARM_attribute	16, 1	@ Tag_AV_eba