	.text
	.syntax unified
	.eabi_attribute	67, "2.09"	@ Tag_conformance
	.cpu	cortex-m4
	.eabi_attribute	6, 13	@ Tag_CPU_arch
	.eabi_attribute	7, 77	@ Tag_CPU_arch_profile
	.eabi_attribute	8, 0	@ Tag_ARM_ISA_use
	.eabi_attribute	9, 2	@ Tag_THUMB_ISA_use
	.fpu	fpv4-sp-d16
	.eabi_attribute	27, 1	@ Tag_ABI_HardFP_use
	.eabi_attribute	36, 1	@ Tag_FP_HP_extension
	.eabi_attribute	34, 1	@ Tag_CPU_unaligned_access
	.eabi_attribute	17, 1	@ Tag_ABI_PCS_GOT_use
	.eabi_attribute	20, 2	@ Tag_ABI_FP_denormal
	.eabi_attribute	21, 0	@ Tag_ABI_FP_exceptions
	.eabi_attribute	23, 1	@ Tag_ABI_FP_number_model
	.eabi_attribute	24, 1	@ Tag_ABI_align_needed
	.eabi_attribute	25, 1	@ Tag_ABI_align_preserved
	.eabi_attribute	28, 1	@ Tag_ABI_VFP_args
	.eabi_attribute	38, 1	@ Tag_ABI_FP_16bit_format
	.eabi_attribute	18, 2	@ Tag_ABI_PCS_wchar_t
	.eabi_attribute	26, 1	@ Tag_ABI_enum_size
	.eabi_attribute	14, 0	@ Tag_ABI_PCS_R9_use
	.file	"Gpio.c"
	.file	1 "F:\\SkyDrive\\OtvoreniProjekti\\HotelSaplast\\fw\\KontrolerHotela\\HC070318\\Project" "../Libraries/STM32F4xx_StdPeriph_Driver/inc\\stm32f4xx_gpio.h"
	.file	2 "F:\\SkyDrive\\OtvoreniProjekti\\HotelSaplast\\fw\\KontrolerHotela\\HC070318\\Project" "../Libraries/CMSIS/Device/ST/STM32F4xx/Include\\stm32f4xx.h"
	.file	3 "F:\\SkyDrive\\OtvoreniProjekti\\HotelSaplast\\fw\\KontrolerHotela\\HC070318\\Project" "../Libraries/STM32F4xx_StdPeriph_Driver/inc\\stm32f4xx_exti.h"
	.file	4 "C:\\Keil\\ARM\\ARMCLANG\\Bin\\..\\include" "stdint.h"
	.section	.text.LED_Init,"ax",%progbits
	.hidden	LED_Init                @ -- Begin function LED_Init
	.globl	LED_Init
	.p2align	1
	.type	LED_Init,%function
	.code	16                      @ @LED_Init
	.thumb_func
LED_Init:
.Lfunc_begin0:
	.file	5 "F:\\SkyDrive\\OtvoreniProjekti\\HotelSaplast\\fw\\KontrolerHotela\\HC070318\\Project" "../Driver/Gpio.c"
	.loc	5 16 0                  @ ../Driver/Gpio.c:16:0
	.fnstart
	.cfi_sections .debug_frame
	.cfi_startproc
@ %bb.0:
	.save	{r4, r5, r7, lr}
	push	{r4, r5, r7, lr}
	.cfi_def_cfa_offset 16
	.cfi_offset lr, -4
	.cfi_offset r7, -8
	.cfi_offset r5, -12
	.cfi_offset r4, -16
	.pad	#8
	sub	sp, #8
	.cfi_def_cfa_offset 24
.Ltmp0:
	.loc	5 19 2 prologue_end     @ ../Driver/Gpio.c:19:2
	movs	r0, #8
	movs	r1, #1
	bl	RCC_AHB1PeriphClockCmd
	movw	r0, #513
	movw	r4, #3072
	mov	r5, sp
	movt	r0, #256
	movt	r4, #16386
	.loc	5 26 2                  @ ../Driver/Gpio.c:26:2
	mov	r1, r5
	.loc	5 20 31                 @ ../Driver/Gpio.c:20:31
	str	r0, [sp, #4]
	mov.w	r0, #2048
	.loc	5 25 30                 @ ../Driver/Gpio.c:25:30
	str	r0, [sp]
.Ltmp1:
	@DEBUG_VALUE: LED_Init:GPIO_InitStructure <- [DW_OP_deref] $sp
	.loc	5 26 2                  @ ../Driver/Gpio.c:26:2
	mov	r0, r4
	bl	GPIO_Init
	mov.w	r0, #4096
	.loc	5 29 2                  @ ../Driver/Gpio.c:29:2
	mov	r1, r5
	.loc	5 28 30                 @ ../Driver/Gpio.c:28:30
	str	r0, [sp]
	.loc	5 29 2                  @ ../Driver/Gpio.c:29:2
	mov	r0, r4
	bl	GPIO_Init
	.loc	5 30 2                  @ ../Driver/Gpio.c:30:2
	mov	r0, r4
	mov.w	r1, #6144
	bl	GPIO_SetBits
	.loc	5 31 1                  @ ../Driver/Gpio.c:31:1
	add	sp, #8
.Ltmp2:
	pop	{r4, r5, r7, pc}
.Ltmp3:
.Lfunc_end0:
	.size	LED_Init, .Lfunc_end0-LED_Init
	.cfi_endproc
	.cantunwind
	.fnend
                                        @ -- End function
	.section	.text.LED_Toggle,"ax",%progbits
	.hidden	LED_Toggle              @ -- Begin function LED_Toggle
	.globl	LED_Toggle
	.p2align	1
	.type	LED_Toggle,%function
	.code	16                      @ @LED_Toggle
	.thumb_func
LED_Toggle:
.Lfunc_begin1:
	.loc	5 39 0                  @ ../Driver/Gpio.c:39:0
	.fnstart
	.cfi_startproc
@ %bb.0:
	@DEBUG_VALUE: LED_Toggle:led <- $r0
	@DEBUG_VALUE: LED_Toggle:led <- $r0
	.loc	5 40 7 prologue_end     @ ../Driver/Gpio.c:40:7
	cmp	r0, #1
	beq	.LBB1_2
.Ltmp4:
@ %bb.1:
	@DEBUG_VALUE: LED_Toggle:led <- $r0
	cmp	r0, #2
	.loc	5 45 1                  @ ../Driver/Gpio.c:45:1
	it	ne
	bxne	lr
	mov.w	r0, #4096
.Ltmp5:
	.loc	5 0 1 is_stmt 0         @ ../Driver/Gpio.c:0:1
	b	.LBB1_3
.LBB1_2:
.Ltmp6:
	@DEBUG_VALUE: LED_Toggle:led <- $r0
	mov.w	r0, #2048
.Ltmp7:
.LBB1_3:
	movw	r1, #3092
	movt	r1, #16386
.Ltmp8:
	ldr	r2, [r1]
	eors	r0, r2
	str	r0, [r1]
.Ltmp9:
	.loc	5 45 1                  @ ../Driver/Gpio.c:45:1
	bx	lr
.Ltmp10:
.Lfunc_end1:
	.size	LED_Toggle, .Lfunc_end1-LED_Toggle
	.cfi_endproc
	.cantunwind
	.fnend
                                        @ -- End function
	.section	.text.BEEP_Init,"ax",%progbits
	.hidden	BEEP_Init               @ -- Begin function BEEP_Init
	.globl	BEEP_Init
	.p2align	1
	.type	BEEP_Init,%function
	.code	16                      @ @BEEP_Init
	.thumb_func
BEEP_Init:
.Lfunc_begin2:
	.loc	5 53 0 is_stmt 1        @ ../Driver/Gpio.c:53:0
	.fnstart
	.cfi_startproc
@ %bb.0:
	.save	{r4, lr}
	push	{r4, lr}
	.cfi_def_cfa_offset 8
	.cfi_offset lr, -4
	.cfi_offset r4, -8
	.pad	#8
	sub	sp, #8
	.cfi_def_cfa_offset 16
.Ltmp11:
	.loc	5 56 2 prologue_end     @ ../Driver/Gpio.c:56:2
	movs	r0, #8
	movs	r1, #1
	movs	r4, #8
	bl	RCC_AHB1PeriphClockCmd
	movw	r0, #513
	mov	r1, sp
	movt	r0, #256
	.loc	5 62 30                 @ ../Driver/Gpio.c:62:30
	strd	r4, r0, [sp]
.Ltmp12:
	@DEBUG_VALUE: BEEP_Init:GPIO_InitStructure <- [DW_OP_deref] $sp
	.loc	5 0 30 is_stmt 0        @ ../Driver/Gpio.c:0:30
	movw	r4, #3072
	movt	r4, #16386
	.loc	5 63 2 is_stmt 1        @ ../Driver/Gpio.c:63:2
	mov	r0, r4
	bl	GPIO_Init
	.loc	5 64 2                  @ ../Driver/Gpio.c:64:2
	mov	r0, r4
	movs	r1, #8
	bl	GPIO_ResetBits
	.loc	5 66 1                  @ ../Driver/Gpio.c:66:1
	add	sp, #8
.Ltmp13:
	pop	{r4, pc}
.Ltmp14:
.Lfunc_end2:
	.size	BEEP_Init, .Lfunc_end2-BEEP_Init
	.cfi_endproc
	.cantunwind
	.fnend
                                        @ -- End function
	.section	.text.Key_Init,"ax",%progbits
	.hidden	Key_Init                @ -- Begin function Key_Init
	.globl	Key_Init
	.p2align	1
	.type	Key_Init,%function
	.code	16                      @ @Key_Init
	.thumb_func
Key_Init:
.Lfunc_begin3:
	.loc	5 74 0                  @ ../Driver/Gpio.c:74:0
	.fnstart
	.cfi_startproc
@ %bb.0:
	.save	{r4, r5, r6, r7, lr}
	push	{r4, r5, r6, r7, lr}
	.cfi_def_cfa_offset 20
	.cfi_offset lr, -4
	.cfi_offset r7, -8
	.cfi_offset r6, -12
	.cfi_offset r5, -16
	.cfi_offset r4, -20
	.pad	#20
	sub	sp, #20
	.cfi_def_cfa_offset 40
.Ltmp15:
	.loc	5 79 2 prologue_end     @ ../Driver/Gpio.c:79:2
	movs	r0, #9
	movs	r1, #1
	movs	r6, #1
	bl	RCC_AHB1PeriphClockCmd
	.loc	5 80 2                  @ ../Driver/Gpio.c:80:2
	mov.w	r0, #16384
	movs	r1, #1
	bl	RCC_APB2PeriphClockCmd
	.loc	5 82 2                  @ ../Driver/Gpio.c:82:2
	mov.w	r0, #1280
	bl	NVIC_PriorityGroupConfig
	movs	r4, #0
	add	r5, sp, #12
	movs	r7, #0
	movt	r4, #16386
	.loc	5 87 2                  @ ../Driver/Gpio.c:87:2
	mov	r1, r5
	.loc	5 85 31                 @ ../Driver/Gpio.c:85:31
	strb.w	r7, [sp, #19]
	.loc	5 84 31                 @ ../Driver/Gpio.c:84:31
	strb.w	r7, [sp, #16]
	.loc	5 86 30                 @ ../Driver/Gpio.c:86:30
	str	r6, [sp, #12]
.Ltmp16:
	@DEBUG_VALUE: Key_Init:GPIO_InitStructure <- [DW_OP_plus_uconst 12, DW_OP_deref] $sp
	.loc	5 87 2                  @ ../Driver/Gpio.c:87:2
	mov	r0, r4
	bl	GPIO_Init
	.loc	5 90 31                 @ ../Driver/Gpio.c:90:31
	strb.w	r7, [sp, #19]
	.loc	5 89 31                 @ ../Driver/Gpio.c:89:31
	strb.w	r7, [sp, #16]
	mov.w	r7, #2048
	.loc	5 92 2                  @ ../Driver/Gpio.c:92:2
	add.w	r0, r4, #3072
	mov	r1, r5
	.loc	5 91 30                 @ ../Driver/Gpio.c:91:30
	str	r7, [sp, #12]
	.loc	5 92 2                  @ ../Driver/Gpio.c:92:2
	bl	GPIO_Init
	.loc	5 94 2                  @ ../Driver/Gpio.c:94:2
	movs	r0, #3
	movs	r1, #11
	bl	SYSCFG_EXTILineConfig
	mov.w	r0, #3072
	add	r4, sp, #4
	.loc	5 99 34                 @ ../Driver/Gpio.c:99:34
	strb.w	r6, [sp, #10]
	.loc	5 96 31                 @ ../Driver/Gpio.c:96:31
	strh.w	r0, [sp, #8]
	.loc	5 100 2                 @ ../Driver/Gpio.c:100:2
	mov	r0, r4
	.loc	5 95 31                 @ ../Driver/Gpio.c:95:31
	str	r7, [sp, #4]
.Ltmp17:
	@DEBUG_VALUE: Key_Init:EXTI_InitStructure <- [DW_OP_plus_uconst 4, DW_OP_deref] $sp
	.loc	5 100 2                 @ ../Driver/Gpio.c:100:2
	bl	EXTI_Init
	movs	r0, #40
	mov	r5, sp
	movt	r0, #258
	.loc	5 103 37                @ ../Driver/Gpio.c:103:37
	str	r0, [sp]
.Ltmp18:
	@DEBUG_VALUE: Key_Init:NVIC_InitStructure <- [DW_OP_deref] $sp
	.loc	5 107 2                 @ ../Driver/Gpio.c:107:2
	mov	r0, r5
	bl	NVIC_Init
	.loc	5 110 2                 @ ../Driver/Gpio.c:110:2
	movs	r0, #0
	movs	r1, #0
	bl	SYSCFG_EXTILineConfig
	.loc	5 116 2                 @ ../Driver/Gpio.c:116:2
	mov	r0, r4
	.loc	5 115 34                @ ../Driver/Gpio.c:115:34
	strb.w	r6, [sp, #10]
	.loc	5 112 31                @ ../Driver/Gpio.c:112:31
	strh.w	r7, [sp, #8]
	.loc	5 111 31                @ ../Driver/Gpio.c:111:31
	str	r6, [sp, #4]
	.loc	5 116 2                 @ ../Driver/Gpio.c:116:2
	bl	EXTI_Init
	movs	r0, #6
	movt	r0, #259
	.loc	5 118 37                @ ../Driver/Gpio.c:118:37
	str	r0, [sp]
	.loc	5 122 2                 @ ../Driver/Gpio.c:122:2
	mov	r0, r5
	bl	NVIC_Init
	.loc	5 123 1                 @ ../Driver/Gpio.c:123:1
	add	sp, #20
.Ltmp19:
	pop	{r4, r5, r6, r7, pc}
.Ltmp20:
.Lfunc_end3:
	.size	Key_Init, .Lfunc_end3-Key_Init
	.cfi_endproc
	.cantunwind
	.fnend
                                        @ -- End function
	.file	6 "F:\\SkyDrive\\OtvoreniProjekti\\HotelSaplast\\fw\\KontrolerHotela\\HC070318\\Project" "../Libraries/STM32F4xx_StdPeriph_Driver/inc\\misc.h"
	.section	".note.GNU-stack","",%progbits
	.eabi_attribute	30, 3	@ Tag_ABI_optimization_goals
	.ARM_attribute	16, 1	@ Tag_AV_eba