	.text
	.syntax unified
	.eabi_attribute	67, "2.09"	@ Tag_conformance
	.cpu	cortex-m4
	.eabi_attribute	6, 13	@ Tag_CPU_arch
	.eabi_attribute	7, 77	@ Tag_CPU_arch_profile
	.eabi_attribute	8, 0	@ Tag_ARM_ISA_use
	.eabi_attribute	9, 2	@ Tag_THUMB_ISA_use
	.fpu	fpv4-sp-d16
	.eabi_attribute	27, 1	@ Tag_ABI_HardFP_use
	.eabi_attribute	36, 1	@ Tag_FP_HP_extension
	.eabi_attribute	34, 1	@ Tag_CPU_unaligned_access
	.eabi_attribute	17, 1	@ Tag_ABI_PCS_GOT_use
	.eabi_attribute	20, 2	@ Tag_ABI_FP_denormal
	.eabi_attribute	21, 0	@ Tag_ABI_FP_exceptions
	.eabi_attribute	23, 1	@ Tag_ABI_FP_number_model
	.eabi_attribute	24, 1	@ Tag_ABI_align_needed
	.eabi_attribute	25, 1	@ Tag_ABI_align_preserved
	.eabi_attribute	28, 1	@ Tag_ABI_VFP_args
	.eabi_attribute	38, 1	@ Tag_ABI_FP_16bit_format
	.eabi_attribute	18, 2	@ Tag_ABI_PCS_wchar_t
	.eabi_attribute	26, 1	@ Tag_ABI_enum_size
	.eabi_attribute	14, 0	@ Tag_ABI_PCS_R9_use
	.file	"GUI_X_Touch.c"
	.section	.text.GUI_TOUCH_X_ActivateX,"ax",%progbits
	.hidden	GUI_TOUCH_X_ActivateX   @ -- Begin function GUI_TOUCH_X_ActivateX
	.globl	GUI_TOUCH_X_ActivateX
	.p2align	1
	.type	GUI_TOUCH_X_ActivateX,%function
	.code	16                      @ @GUI_TOUCH_X_ActivateX
	.thumb_func
GUI_TOUCH_X_ActivateX:
.Lfunc_begin0:
	.file	1 "F:\\SkyDrive\\OtvoreniProjekti\\HotelSaplast\\fw\\KontrolerHotela\\HC070318\\Project" "../Libraries/Config/GUI_X_Touch.c"
	.loc	1 39 0                  @ ../Libraries/Config/GUI_X_Touch.c:39:0
	.fnstart
	.cfi_sections .debug_frame
	.cfi_startproc
@ %bb.0:
	.loc	1 40 1 prologue_end     @ ../Libraries/Config/GUI_X_Touch.c:40:1
	bx	lr
.Ltmp0:
.Lfunc_end0:
	.size	GUI_TOUCH_X_ActivateX, .Lfunc_end0-GUI_TOUCH_X_ActivateX
	.cfi_endproc
	.cantunwind
	.fnend
                                        @ -- End function
	.section	.text.GUI_TOUCH_X_ActivateY,"ax",%progbits
	.hidden	GUI_TOUCH_X_ActivateY   @ -- Begin function GUI_TOUCH_X_ActivateY
	.globl	GUI_TOUCH_X_ActivateY
	.p2align	1
	.type	GUI_TOUCH_X_ActivateY,%function
	.code	16                      @ @GUI_TOUCH_X_ActivateY
	.thumb_func
GUI_TOUCH_X_ActivateY:
.Lfunc_begin1:
	.loc	1 42 0                  @ ../Libraries/Config/GUI_X_Touch.c:42:0
	.fnstart
	.cfi_startproc
@ %bb.0:
	.loc	1 43 1 prologue_end     @ ../Libraries/Config/GUI_X_Touch.c:43:1
	bx	lr
.Ltmp1:
.Lfunc_end1:
	.size	GUI_TOUCH_X_ActivateY, .Lfunc_end1-GUI_TOUCH_X_ActivateY
	.cfi_endproc
	.cantunwind
	.fnend
                                        @ -- End function
	.section	.text.GUI_TOUCH_X_MeasureX,"ax",%progbits
	.hidden	GUI_TOUCH_X_MeasureX    @ -- Begin function GUI_TOUCH_X_MeasureX
	.globl	GUI_TOUCH_X_MeasureX
	.p2align	1
	.type	GUI_TOUCH_X_MeasureX,%function
	.code	16                      @ @GUI_TOUCH_X_MeasureX
	.thumb_func
GUI_TOUCH_X_MeasureX:
.Lfunc_begin2:
	.loc	1 46 0                  @ ../Libraries/Config/GUI_X_Touch.c:46:0
	.fnstart
	.cfi_startproc
@ %bb.0:
	.save	{r4, lr}
	push	{r4, lr}
	.cfi_def_cfa_offset 8
	.cfi_offset lr, -4
	.cfi_offset r4, -8
.Ltmp2:
	.loc	1 47 5 prologue_end     @ ../Libraries/Config/GUI_X_Touch.c:47:5
	bl	FS5206_ReadXY
.Ltmp3:
	.loc	1 47 5 is_stmt 0        @ ../Libraries/Config/GUI_X_Touch.c:47:5
	cbz	r0, .LBB2_2
@ %bb.1:
.Ltmp4:
	.loc	1 49 11 is_stmt 1       @ ../Libraries/Config/GUI_X_Touch.c:49:11
	movw	r4, :lower16:State
	movw	r0, #257
	movt	r4, :upper16:State
	.loc	1 52 17                 @ ../Libraries/Config/GUI_X_Touch.c:52:17
	strh	r0, [r4, #8]
	.loc	1 49 22                 @ ../Libraries/Config/GUI_X_Touch.c:49:22
	movw	r0, :lower16:ts_event
	movt	r0, :upper16:ts_event
	ldrh	r1, [r0, #2]
	.loc	1 50 22                 @ ../Libraries/Config/GUI_X_Touch.c:50:22
	ldrh	r0, [r0]
	.loc	1 49 11                 @ ../Libraries/Config/GUI_X_Touch.c:49:11
	strd	r1, r0, [r4]
	.loc	1 53 3                  @ ../Libraries/Config/GUI_X_Touch.c:53:3
	mov	r0, r4
	bl	GUI_TOUCH_StoreStateEx
	.loc	1 54 17                 @ ../Libraries/Config/GUI_X_Touch.c:54:17
	ldr	r0, [r4]
.Ltmp5:
	.loc	1 63 1                  @ ../Libraries/Config/GUI_X_Touch.c:63:1
	pop	{r4, pc}
.LBB2_2:
.Ltmp6:
	.loc	1 58 15                 @ ../Libraries/Config/GUI_X_Touch.c:58:15
	movw	r0, :lower16:State
	mov.w	r1, #256
	movt	r0, :upper16:State
	.loc	1 59 17                 @ ../Libraries/Config/GUI_X_Touch.c:59:17
	strh	r1, [r0, #8]
	.loc	1 60 3                  @ ../Libraries/Config/GUI_X_Touch.c:60:3
	bl	GUI_TOUCH_StoreStateEx
	movs	r0, #0
.Ltmp7:
	.loc	1 63 1                  @ ../Libraries/Config/GUI_X_Touch.c:63:1
	pop	{r4, pc}
.Ltmp8:
.Lfunc_end2:
	.size	GUI_TOUCH_X_MeasureX, .Lfunc_end2-GUI_TOUCH_X_MeasureX
	.cfi_endproc
	.cantunwind
	.fnend
                                        @ -- End function
	.section	.text.GUI_TOUCH_X_MeasureY,"ax",%progbits
	.hidden	GUI_TOUCH_X_MeasureY    @ -- Begin function GUI_TOUCH_X_MeasureY
	.globl	GUI_TOUCH_X_MeasureY
	.p2align	1
	.type	GUI_TOUCH_X_MeasureY,%function
	.code	16                      @ @GUI_TOUCH_X_MeasureY
	.thumb_func
GUI_TOUCH_X_MeasureY:
.Lfunc_begin3:
	.loc	1 66 0                  @ ../Libraries/Config/GUI_X_Touch.c:66:0
	.fnstart
	.cfi_startproc
@ %bb.0:
	.save	{r4, lr}
	push	{r4, lr}
	.cfi_def_cfa_offset 8
	.cfi_offset lr, -4
	.cfi_offset r4, -8
.Ltmp9:
	.loc	1 67 5 prologue_end     @ ../Libraries/Config/GUI_X_Touch.c:67:5
	bl	FS5206_ReadXY
.Ltmp10:
	.loc	1 67 5 is_stmt 0        @ ../Libraries/Config/GUI_X_Touch.c:67:5
	cbz	r0, .LBB3_2
@ %bb.1:
.Ltmp11:
	.loc	1 69 11 is_stmt 1       @ ../Libraries/Config/GUI_X_Touch.c:69:11
	movw	r4, :lower16:State
	movw	r0, #257
	movt	r4, :upper16:State
	.loc	1 72 17                 @ ../Libraries/Config/GUI_X_Touch.c:72:17
	strh	r0, [r4, #8]
	.loc	1 69 22                 @ ../Libraries/Config/GUI_X_Touch.c:69:22
	movw	r0, :lower16:ts_event
	movt	r0, :upper16:ts_event
	ldrh	r1, [r0, #2]
	.loc	1 70 22                 @ ../Libraries/Config/GUI_X_Touch.c:70:22
	ldrh	r0, [r0]
	.loc	1 69 11                 @ ../Libraries/Config/GUI_X_Touch.c:69:11
	strd	r1, r0, [r4]
	.loc	1 73 3                  @ ../Libraries/Config/GUI_X_Touch.c:73:3
	mov	r0, r4
	bl	GUI_TOUCH_StoreStateEx
	.loc	1 74 17                 @ ../Libraries/Config/GUI_X_Touch.c:74:17
	ldr	r0, [r4, #4]
.Ltmp12:
	.loc	1 83 1                  @ ../Libraries/Config/GUI_X_Touch.c:83:1
	pop	{r4, pc}
.LBB3_2:
.Ltmp13:
	.loc	1 78 15                 @ ../Libraries/Config/GUI_X_Touch.c:78:15
	movw	r0, :lower16:State
	mov.w	r1, #256
	movt	r0, :upper16:State
	.loc	1 79 17                 @ ../Libraries/Config/GUI_X_Touch.c:79:17
	strh	r1, [r0, #8]
	.loc	1 80 3                  @ ../Libraries/Config/GUI_X_Touch.c:80:3
	bl	GUI_TOUCH_StoreStateEx
	movs	r0, #0
.Ltmp14:
	.loc	1 83 1                  @ ../Libraries/Config/GUI_X_Touch.c:83:1
	pop	{r4, pc}
.Ltmp15:
.Lfunc_end3:
	.size	GUI_TOUCH_X_MeasureY, .Lfunc_end3-GUI_TOUCH_X_MeasureY
	.cfi_endproc
	.cantunwind
	.fnend
                                        @ -- End function
	.section	".note.GNU-stack","",%progbits
	.eabi_attribute	30, 3	@ Tag_ABI_optimization_goals
	.ARM_attribute	16, 1	@ Tag_AV_eba