	.text
	.syntax unified
	.eabi_attribute	67, "2.09"	@ Tag_conformance
	.cpu	cortex-m4
	.eabi_attribute	6, 13	@ Tag_CPU_arch
	.eabi_attribute	7, 77	@ Tag_CPU_arch_profile
	.eabi_attribute	8, 0	@ Tag_ARM_ISA_use
	.eabi_attribute	9, 2	@ Tag_THUMB_ISA_use
	.fpu	fpv4-sp-d16
	.eabi_attribute	27, 1	@ Tag_ABI_HardFP_use
	.eabi_attribute	36, 1	@ Tag_FP_HP_extension
	.eabi_attribute	34, 1	@ Tag_CPU_unaligned_access
	.eabi_attribute	17, 1	@ Tag_ABI_PCS_GOT_use
	.eabi_attribute	20, 2	@ Tag_ABI_FP_denormal
	.eabi_attribute	21, 0	@ Tag_ABI_FP_exceptions
	.eabi_attribute	23, 1	@ Tag_ABI_FP_number_model
	.eabi_attribute	24, 1	@ Tag_ABI_align_needed
	.eabi_attribute	25, 1	@ Tag_ABI_align_preserved
	.eabi_attribute	28, 1	@ Tag_ABI_VFP_args
	.eabi_attribute	38, 1	@ Tag_ABI_FP_16bit_format
	.eabi_attribute	18, 2	@ Tag_ABI_PCS_wchar_t
	.eabi_attribute	26, 1	@ Tag_ABI_enum_size
	.eabi_attribute	14, 0	@ Tag_ABI_PCS_R9_use
	.file	"GUIDRV_stm32f429i.c"
	.file	1 "F:\\SkyDrive\\OtvoreniProjekti\\HotelSaplast\\fw\\KontrolerHotela\\HC070318\\Project" "../Libraries/Config/GUIDRV_stm32f429i.c"
	.file	2 "C:\\Keil\\ARM\\ARMCLANG\\Bin\\..\\include" "stdint.h"
	.file	3 "F:\\SkyDrive\\OtvoreniProjekti\\HotelSaplast\\fw\\KontrolerHotela\\HC070318\\Project" "../Libraries/CMSIS/Device/ST/STM32F4xx/Include\\stm32f4xx.h"
	.file	4 "F:\\SkyDrive\\OtvoreniProjekti\\HotelSaplast\\fw\\KontrolerHotela\\HC070318\\Project" "../Libraries/STemWinLibrary532/inc/LCD.h"
	.file	5 "C:/Keil\\ARM\\CMSIS\\Include" "core_cm4.h"
	.section	.text.DMA2D_ISR_Handler,"ax",%progbits
	.hidden	DMA2D_ISR_Handler       @ -- Begin function DMA2D_ISR_Handler
	.globl	DMA2D_ISR_Handler
	.p2align	1
	.type	DMA2D_ISR_Handler,%function
	.code	16                      @ @DMA2D_ISR_Handler
	.thumb_func
DMA2D_ISR_Handler:
.Lfunc_begin0:
	.loc	1 1156 0                @ ../Libraries/Config/GUIDRV_stm32f429i.c:1156:0
	.fnstart
	.cfi_sections .debug_frame
	.cfi_startproc
@ %bb.0:
	movw	r0, #45064
	movs	r1, #2
	movt	r0, #16386
.Ltmp0:
	.loc	1 1157 15 prologue_end  @ ../Libraries/Config/GUIDRV_stm32f429i.c:1157:15
	str	r1, [r0]
	.loc	1 1158 1                @ ../Libraries/Config/GUIDRV_stm32f429i.c:1158:1
	bx	lr
.Ltmp1:
.Lfunc_end0:
	.size	DMA2D_ISR_Handler, .Lfunc_end0-DMA2D_ISR_Handler
	.cfi_endproc
	.cantunwind
	.fnend
                                        @ -- End function
	.section	.text.LTDC_ISR_Handler,"ax",%progbits
	.hidden	LTDC_ISR_Handler        @ -- Begin function LTDC_ISR_Handler
	.globl	LTDC_ISR_Handler
	.p2align	1
	.type	LTDC_ISR_Handler,%function
	.code	16                      @ @LTDC_ISR_Handler
	.thumb_func
LTDC_ISR_Handler:
.Lfunc_begin1:
	.loc	1 1167 0                @ ../Libraries/Config/GUIDRV_stm32f429i.c:1167:0
	.fnstart
	.cfi_startproc
@ %bb.0:
	.save	{r4, r5, r6, r7, r8, r9, r10, r11, lr}
	push.w	{r4, r5, r6, r7, r8, r9, r10, r11, lr}
	.cfi_def_cfa_offset 36
	.cfi_offset lr, -4
	.cfi_offset r11, -8
	.cfi_offset r10, -12
	.cfi_offset r9, -16
	.cfi_offset r8, -20
	.cfi_offset r7, -24
	.cfi_offset r6, -28
	.cfi_offset r5, -32
	.cfi_offset r4, -36
	.pad	#4
	sub	sp, #4
	.cfi_def_cfa_offset 40
	movw	r0, #26684
	movw	r6, :lower16:_aPendingBuffer
	movw	r10, :lower16:_apLayer
	movw	r11, :lower16:_aAddr
	movw	r8, :lower16:_aBufferIndex
	movs	r1, #1
	mov.w	r9, #-1
	movs	r4, #0
	movt	r0, #16385
	movt	r6, :upper16:_aPendingBuffer
	movt	r10, :upper16:_apLayer
	movt	r11, :upper16:_aAddr
	movt	r8, :upper16:_aBufferIndex
.Ltmp2:
	.loc	1 1171 13 prologue_end  @ ../Libraries/Config/GUIDRV_stm32f429i.c:1171:13
	str	r1, [r0]
.Ltmp3:
	@DEBUG_VALUE: LTDC_ISR_Handler:i <- 0
	.p2align	2
.LBB1_1:                                @ =>This Inner Loop Header: Depth=1
	@DEBUG_VALUE: LTDC_ISR_Handler:i <- $r4
	.loc	1 1173 9                @ ../Libraries/Config/GUIDRV_stm32f429i.c:1173:9
	ldr.w	r0, [r6, r4, lsl #2]
.Ltmp4:
	.loc	1 1173 9 is_stmt 0      @ ../Libraries/Config/GUIDRV_stm32f429i.c:1173:9
	cmp	r0, #0
	blt	.LBB1_3
.Ltmp5:
@ %bb.2:                                @   in Loop: Header=BB1_1 Depth=1
	@DEBUG_VALUE: LTDC_ISR_Handler:i <- $r4
	.loc	1 1177 26 is_stmt 1     @ ../Libraries/Config/GUIDRV_stm32f429i.c:1177:26
	movw	r3, :lower16:_axSize
	.loc	1 1177 39 is_stmt 0     @ ../Libraries/Config/GUIDRV_stm32f429i.c:1177:39
	movw	r2, :lower16:_aySize
	.loc	1 1177 73               @ ../Libraries/Config/GUIDRV_stm32f429i.c:1177:73
	movw	r1, :lower16:_aBytesPerPixels
	.loc	1 1181 7 is_stmt 1      @ ../Libraries/Config/GUIDRV_stm32f429i.c:1181:7
	ldr.w	r5, [r10, r4, lsl #2]
	.loc	1 1177 26               @ ../Libraries/Config/GUIDRV_stm32f429i.c:1177:26
	movt	r3, :upper16:_axSize
	.loc	1 1177 39 is_stmt 0     @ ../Libraries/Config/GUIDRV_stm32f429i.c:1177:39
	movt	r2, :upper16:_aySize
	.loc	1 1177 73               @ ../Libraries/Config/GUIDRV_stm32f429i.c:1177:73
	movt	r1, :upper16:_aBytesPerPixels
	.loc	1 1177 26               @ ../Libraries/Config/GUIDRV_stm32f429i.c:1177:26
	ldr.w	r3, [r3, r4, lsl #2]
	.loc	1 1177 39               @ ../Libraries/Config/GUIDRV_stm32f429i.c:1177:39
	ldr.w	r2, [r2, r4, lsl #2]
	.loc	1 1177 73               @ ../Libraries/Config/GUIDRV_stm32f429i.c:1177:73
	ldr.w	r1, [r1, r4, lsl #2]
	.loc	1 1181 26 is_stmt 1     @ ../Libraries/Config/GUIDRV_stm32f429i.c:1181:26
	ldr	r7, [r5, #40]
	movs	r7, #0
	.loc	1 1177 37               @ ../Libraries/Config/GUIDRV_stm32f429i.c:1177:37
	muls	r0, r3, r0
	.loc	1 1181 26               @ ../Libraries/Config/GUIDRV_stm32f429i.c:1181:26
	str	r7, [r5, #40]
	.loc	1 1177 50               @ ../Libraries/Config/GUIDRV_stm32f429i.c:1177:50
	muls	r0, r2, r0
	.loc	1 1177 14 is_stmt 0     @ ../Libraries/Config/GUIDRV_stm32f429i.c:1177:14
	ldr.w	r2, [r11, r4, lsl #2]
	.loc	1 1177 24               @ ../Libraries/Config/GUIDRV_stm32f429i.c:1177:24
	mla	r0, r0, r1, r2
.Ltmp6:
	@DEBUG_VALUE: LTDC_ISR_Handler:Addr <- $r0
	.loc	1 1182 26 is_stmt 1     @ ../Libraries/Config/GUIDRV_stm32f429i.c:1182:26
	str	r0, [r5, #40]
	.loc	1 1186 7                @ ../Libraries/Config/GUIDRV_stm32f429i.c:1186:7
	movs	r0, #1
.Ltmp7:
	bl	LTDC_ReloadConfig
	.loc	1 1190 33               @ ../Libraries/Config/GUIDRV_stm32f429i.c:1190:33
	ldr.w	r1, [r6, r4, lsl #2]
	.loc	1 1190 7 is_stmt 0      @ ../Libraries/Config/GUIDRV_stm32f429i.c:1190:7
	mov	r0, r4
	bl	GUI_MULTIBUF_ConfirmEx
	.loc	1 1194 26 is_stmt 1     @ ../Libraries/Config/GUIDRV_stm32f429i.c:1194:26
	ldr.w	r0, [r6, r4, lsl #2]
	.loc	1 1195 26               @ ../Libraries/Config/GUIDRV_stm32f429i.c:1195:26
	str.w	r9, [r6, r4, lsl #2]
	.loc	1 1194 24               @ ../Libraries/Config/GUIDRV_stm32f429i.c:1194:24
	str.w	r0, [r8, r4, lsl #2]
.Ltmp8:
.LBB1_3:                                @   in Loop: Header=BB1_1 Depth=1
	@DEBUG_VALUE: LTDC_ISR_Handler:i <- $r4
	.loc	1 1172 36               @ ../Libraries/Config/GUIDRV_stm32f429i.c:1172:36
	adds	r4, #1
.Ltmp9:
	@DEBUG_VALUE: LTDC_ISR_Handler:i <- $r4
	.loc	1 1172 3 is_stmt 0      @ ../Libraries/Config/GUIDRV_stm32f429i.c:1172:3
	cmp	r4, #2
.Ltmp10:
	.loc	1 1198 1 is_stmt 1      @ ../Libraries/Config/GUIDRV_stm32f429i.c:1198:1
	itt	eq
	addeq	sp, #4
	popeq.w	{r4, r5, r6, r7, r8, r9, r10, r11, pc}
.Ltmp11:
	.loc	1 0 1 is_stmt 0         @ ../Libraries/Config/GUIDRV_stm32f429i.c:0:1
	b	.LBB1_1
.Ltmp12:
.Lfunc_end1:
	.size	LTDC_ISR_Handler, .Lfunc_end1-LTDC_ISR_Handler
	.cfi_endproc
	.cantunwind
	.fnend
                                        @ -- End function
	.section	.text.LCD_X_DisplayDriver,"ax",%progbits
	.hidden	LCD_X_DisplayDriver     @ -- Begin function LCD_X_DisplayDriver
	.globl	LCD_X_DisplayDriver
	.p2align	2
	.type	LCD_X_DisplayDriver,%function
	.code	16                      @ @LCD_X_DisplayDriver
	.thumb_func
LCD_X_DisplayDriver:
.Lfunc_begin2:
	.loc	1 1221 0 is_stmt 1      @ ../Libraries/Config/GUIDRV_stm32f429i.c:1221:0
	.fnstart
	.cfi_startproc
@ %bb.0:
	.save	{r4, r5, r6, lr}
	push	{r4, r5, r6, lr}
	.cfi_def_cfa_offset 16
	.cfi_offset lr, -4
	.cfi_offset r6, -8
	.cfi_offset r5, -12
	.cfi_offset r4, -16
	.pad	#72
	sub	sp, #72
	.cfi_def_cfa_offset 88
	@DEBUG_VALUE: LCD_X_DisplayDriver:LayerIndex <- $r0
	@DEBUG_VALUE: LCD_X_DisplayDriver:Cmd <- $r1
	@DEBUG_VALUE: LCD_X_DisplayDriver:pData <- $r2
.Ltmp13:
	@DEBUG_VALUE: p <- $r2
	@DEBUG_VALUE: p <- $r2
	@DEBUG_VALUE: p <- $r2
	@DEBUG_VALUE: _LTDC_SetLayerAlpha:LayerIndex <- $r0
	@DEBUG_VALUE: p <- $r2
	@DEBUG_VALUE: p <- $r2
	@DEBUG_VALUE: p <- $r2
	@DEBUG_VALUE: p <- $r2
	@DEBUG_VALUE: _LTDC_SetLUTEntry:LayerIndex <- $r0
	@DEBUG_VALUE: p <- $r2
	@DEBUG_VALUE: p <- $r2
	@DEBUG_VALUE: _LCD_InitController:LayerIndex <- $r0
	@DEBUG_VALUE: _GetPixelformat:LayerIndex <- $r0
	@DEBUG_VALUE: _GetBytesPerLine:LayerIndex <- $r0
	mov	r4, r0
.Ltmp14:
	@DEBUG_VALUE: LCD_X_DisplayDriver:r <- 0
	@DEBUG_VALUE: _GetBytesPerLine:LayerIndex <- $r4
	@DEBUG_VALUE: _GetPixelformat:LayerIndex <- $r4
	@DEBUG_VALUE: _LCD_InitController:LayerIndex <- $r4
	@DEBUG_VALUE: _LTDC_SetLUTEntry:LayerIndex <- $r4
	@DEBUG_VALUE: _LTDC_SetLayerAlpha:LayerIndex <- $r4
	@DEBUG_VALUE: LCD_X_DisplayDriver:Cmd <- $r1
	@DEBUG_VALUE: LCD_X_DisplayDriver:LayerIndex <- $r4
	.loc	1 1224 3 prologue_end   @ ../Libraries/Config/GUIDRV_stm32f429i.c:1224:3
	subs	r0, r1, #1
	cmp	r0, #13
	bhi.w	.LBB2_10
.Ltmp15:
@ %bb.1:
	@DEBUG_VALUE: LCD_X_DisplayDriver:LayerIndex <- $r4
	@DEBUG_VALUE: p <- $r2
	@DEBUG_VALUE: p <- $r2
	@DEBUG_VALUE: p <- $r2
	@DEBUG_VALUE: p <- $r2
	@DEBUG_VALUE: p <- $r2
	@DEBUG_VALUE: p <- $r2
	@DEBUG_VALUE: p <- $r2
	@DEBUG_VALUE: p <- $r2
	@DEBUG_VALUE: p <- $r2
	@DEBUG_VALUE: LCD_X_DisplayDriver:pData <- $r2
	@DEBUG_VALUE: LCD_X_DisplayDriver:Cmd <- $r1
	.loc	1 0 3 is_stmt 0         @ ../Libraries/Config/GUIDRV_stm32f429i.c:0:3
	mov	r6, r2
.Ltmp16:
	@DEBUG_VALUE: LCD_X_DisplayDriver:pData <- $r6
	@DEBUG_VALUE: LCD_X_DisplayDriver:pData <- $r6
	@DEBUG_VALUE: p <- $r6
	@DEBUG_VALUE: p <- $r6
	@DEBUG_VALUE: p <- $r6
	@DEBUG_VALUE: p <- $r6
	@DEBUG_VALUE: p <- $r6
	@DEBUG_VALUE: p <- $r6
	@DEBUG_VALUE: p <- $r6
	@DEBUG_VALUE: p <- $r6
	@DEBUG_VALUE: p <- $r6
	movs	r5, #0
.LCPI2_0:
	tbh	[pc, r0, lsl #1]
.Ltmp17:
@ %bb.2:
.LJTI2_0:
	.short	(.LBB2_3-(.LCPI2_0+4))/2
	.short	(.LBB2_10-(.LCPI2_0+4))/2
	.short	(.LBB2_11-(.LCPI2_0+4))/2
	.short	(.LBB2_13-(.LCPI2_0+4))/2
	.short	(.LBB2_23-(.LCPI2_0+4))/2
	.short	(.LBB2_23-(.LCPI2_0+4))/2
	.short	(.LBB2_14-(.LCPI2_0+4))/2
	.short	(.LBB2_15-(.LCPI2_0+4))/2
	.short	(.LBB2_17-(.LCPI2_0+4))/2
	.short	(.LBB2_19-(.LCPI2_0+4))/2
	.short	(.LBB2_10-(.LCPI2_0+4))/2
	.short	(.LBB2_24-(.LCPI2_0+4))/2
	.short	(.LBB2_9-(.LCPI2_0+4))/2
	.short	(.LBB2_25-(.LCPI2_0+4))/2
	.p2align	1
.LBB2_3:
.Ltmp18:
	@DEBUG_VALUE: LCD_X_DisplayDriver:pData <- $r6
	@DEBUG_VALUE: LCD_X_DisplayDriver:LayerIndex <- $r4
	@DEBUG_VALUE: LCD_X_DisplayDriver:Cmd <- $r1
	add	r0, sp, #8
.Ltmp19:
	.loc	1 912 25 is_stmt 1      @ ../Libraries/Config/GUIDRV_stm32f429i.c:912:25
	movs	r1, #64
.Ltmp20:
	bl	__aeabi_memclr4
	.loc	1 917 6                 @ ../Libraries/Config/GUIDRV_stm32f429i.c:917:6
	cmp	r4, #1
	bhi.w	.LBB2_22
.Ltmp21:
@ %bb.4:
	@DEBUG_VALUE: LCD_X_DisplayDriver:pData <- $r6
	@DEBUG_VALUE: LCD_X_DisplayDriver:LayerIndex <- $r4
	.loc	1 920 6                 @ ../Libraries/Config/GUIDRV_stm32f429i.c:920:6
	movw	r0, :lower16:_LCD_InitController.Done
	movt	r0, :upper16:_LCD_InitController.Done
	ldrb	r1, [r0]
.Ltmp22:
	.loc	1 920 6 is_stmt 0       @ ../Libraries/Config/GUIDRV_stm32f429i.c:920:6
	cbnz	r1, .LBB2_6
.Ltmp23:
@ %bb.5:
	@DEBUG_VALUE: LCD_X_DisplayDriver:pData <- $r6
	@DEBUG_VALUE: LCD_X_DisplayDriver:LayerIndex <- $r4
	.loc	1 0 6                   @ ../Libraries/Config/GUIDRV_stm32f429i.c:0:6
	movs	r1, #1
.Ltmp24:
	.loc	1 921 8 is_stmt 1       @ ../Libraries/Config/GUIDRV_stm32f429i.c:921:8
	strb	r1, [r0]
	.loc	1 923 3                 @ ../Libraries/Config/GUIDRV_stm32f429i.c:923:3
	bl	LCD_Init
	.loc	1 927 3                 @ ../Libraries/Config/GUIDRV_stm32f429i.c:927:3
	movs	r0, #1
	movs	r1, #1
	bl	LTDC_ITConfig
	movw	r5, #57608
	movs	r0, #16
.Ltmp25:
	@DEBUG_VALUE: NVIC_SetPriority:priority <- 1
	@DEBUG_VALUE: NVIC_SetPriority:IRQn <- 88
	.loc	1 934 3                 @ ../Libraries/Config/GUIDRV_stm32f429i.c:934:3
	movs	r1, #1
	movt	r5, #57344
.Ltmp26:
	.loc	5 1540 32               @ C:/Keil\ARM\CMSIS\Include\core_cm4.h:1540:32
	strb.w	r0, [r5, #848]
	mov.w	r0, #16777216
.Ltmp27:
	@DEBUG_VALUE: NVIC_EnableIRQ:IRQn <- 88
	.loc	5 1455 46               @ C:/Keil\ARM\CMSIS\Include\core_cm4.h:1455:46
	str	r0, [r5]
.Ltmp28:
	.loc	1 934 3                 @ ../Libraries/Config/GUIDRV_stm32f429i.c:934:3
	mov.w	r0, #512
	bl	DMA2D_ITConfig
	movw	r0, #58458
	movs	r1, #0
.Ltmp29:
	@DEBUG_VALUE: NVIC_SetPriority:priority <- 0
	@DEBUG_VALUE: NVIC_SetPriority:IRQn <- 90
	.loc	1 0 3 is_stmt 0         @ ../Libraries/Config/GUIDRV_stm32f429i.c:0:3
	movt	r0, #57344
.Ltmp30:
	.loc	5 1540 32 is_stmt 1     @ C:/Keil\ARM\CMSIS\Include\core_cm4.h:1540:32
	strb	r1, [r0]
	mov.w	r0, #67108864
.Ltmp31:
	@DEBUG_VALUE: NVIC_EnableIRQ:IRQn <- 90
	.loc	5 0 32 is_stmt 0        @ C:/Keil\ARM\CMSIS\Include\core_cm4.h:0:32
	movs	r1, #2
.Ltmp32:
	.loc	5 1455 46 is_stmt 1     @ C:/Keil\ARM\CMSIS\Include\core_cm4.h:1455:46
	str	r0, [r5]
	movw	r0, #45064
	movt	r0, #16386
.Ltmp33:
	.loc	1 941 15                @ ../Libraries/Config/GUIDRV_stm32f429i.c:941:15
	str	r1, [r0]
.Ltmp34:
.LBB2_6:
	@DEBUG_VALUE: LCD_X_DisplayDriver:pData <- $r6
	@DEBUG_VALUE: LCD_X_DisplayDriver:LayerIndex <- $r4
	.loc	1 946 10                @ ../Libraries/Config/GUIDRV_stm32f429i.c:946:10
	mov	r0, r4
	bl	LCD_GetXSizeEx
	.loc	1 946 8 is_stmt 0       @ ../Libraries/Config/GUIDRV_stm32f429i.c:946:8
	movw	r6, :lower16:_LCD_InitController.xSize
.Ltmp35:
	movt	r6, :upper16:_LCD_InitController.xSize
	str	r0, [r6]
	.loc	1 947 10 is_stmt 1      @ ../Libraries/Config/GUIDRV_stm32f429i.c:947:10
	mov	r0, r4
	bl	LCD_GetYSizeEx
	movs	r1, #43
	.loc	1 947 8 is_stmt 0       @ ../Libraries/Config/GUIDRV_stm32f429i.c:947:8
	movw	r5, :lower16:_LCD_InitController.ySize
	.loc	1 949 45 is_stmt 1      @ ../Libraries/Config/GUIDRV_stm32f429i.c:949:45
	str	r1, [sp, #8]
	movs	r1, #255
	.loc	1 947 8                 @ ../Libraries/Config/GUIDRV_stm32f429i.c:947:8
	movt	r5, :upper16:_LCD_InitController.ySize
	.loc	1 961 43                @ ../Libraries/Config/GUIDRV_stm32f429i.c:961:43
	str	r1, [sp, #28]
	.loc	1 946 10                @ ../Libraries/Config/GUIDRV_stm32f429i.c:946:10
	clz	r1, r4
	.loc	1 947 8                 @ ../Libraries/Config/GUIDRV_stm32f429i.c:947:8
	str	r0, [r5]
	.loc	1 952 59                @ ../Libraries/Config/GUIDRV_stm32f429i.c:952:59
	adds	r0, #11
	.loc	1 946 10                @ ../Libraries/Config/GUIDRV_stm32f429i.c:946:10
	lsrs	r1, r1, #5
.Ltmp36:
	.loc	1 346 7                 @ ../Libraries/Config/GUIDRV_stm32f429i.c:346:7
	lsls	r1, r1, #1
.Ltmp37:
	.loc	1 957 41                @ ../Libraries/Config/GUIDRV_stm32f429i.c:957:41
	str	r1, [sp, #24]
	movs	r1, #12
	.loc	1 951 45                @ ../Libraries/Config/GUIDRV_stm32f429i.c:951:45
	str	r1, [sp, #16]
	movs	r1, #0
	.loc	1 966 47                @ ../Libraries/Config/GUIDRV_stm32f429i.c:966:47
	strd	r1, r1, [sp, #40]
	strd	r1, r1, [sp, #32]
	.loc	1 952 45                @ ../Libraries/Config/GUIDRV_stm32f429i.c:952:45
	str	r0, [sp, #20]
	.loc	1 950 48                @ ../Libraries/Config/GUIDRV_stm32f429i.c:950:48
	ldr	r6, [r6]
	.loc	1 950 59 is_stmt 0      @ ../Libraries/Config/GUIDRV_stm32f429i.c:950:59
	add.w	r0, r6, #42
	.loc	1 950 45                @ ../Libraries/Config/GUIDRV_stm32f429i.c:950:45
	str	r0, [sp, #12]
.Ltmp38:
	@DEBUG_VALUE: _GetBytesPerLine:xSize <- $r6
	.loc	1 377 19 is_stmt 1      @ ../Libraries/Config/GUIDRV_stm32f429i.c:377:19
	mov	r0, r4
	bl	LCD_GetBitsPerPixelEx
.Ltmp39:
	@DEBUG_VALUE: _GetBytesPerLine:BitsPerPixel <- $r0
	.loc	1 0 19 is_stmt 0        @ ../Libraries/Config/GUIDRV_stm32f429i.c:0:19
	movs	r1, #7
	.loc	1 378 32 is_stmt 1      @ ../Libraries/Config/GUIDRV_stm32f429i.c:378:32
	muls	r0, r6, r0
.Ltmp40:
	@DEBUG_VALUE: _GetBytesPerLine:BitsPerPixel <- $r0
	@DEBUG_VALUE: _GetBytesPerLine:xSize <- $r6
	.loc	1 974 46                @ ../Libraries/Config/GUIDRV_stm32f429i.c:974:46
	str	r1, [sp, #52]
	mov.w	r1, #1536
.Ltmp41:
	.loc	1 378 40                @ ../Libraries/Config/GUIDRV_stm32f429i.c:378:40
	adds	r0, #7
.Ltmp42:
	.loc	1 973 46                @ ../Libraries/Config/GUIDRV_stm32f429i.c:973:46
	str	r1, [sp, #48]
	.loc	1 981 46                @ ../Libraries/Config/GUIDRV_stm32f429i.c:981:46
	movw	r1, :lower16:_aAddr
	movt	r1, :upper16:_aAddr
	ldr.w	r1, [r1, r4, lsl #2]
	.loc	1 981 44 is_stmt 0      @ ../Libraries/Config/GUIDRV_stm32f429i.c:981:44
	str	r1, [sp, #56]
	.loc	1 977 48 is_stmt 1      @ ../Libraries/Config/GUIDRV_stm32f429i.c:977:48
	ldr	r1, [r5]
	.loc	1 977 46 is_stmt 0      @ ../Libraries/Config/GUIDRV_stm32f429i.c:977:46
	str	r1, [sp, #68]
.Ltmp43:
	.loc	1 378 45 is_stmt 1      @ ../Libraries/Config/GUIDRV_stm32f429i.c:378:45
	asrs	r1, r0, #31
	add.w	r0, r0, r1, lsr #29
	asrs	r1, r0, #3
.Ltmp44:
	@DEBUG_VALUE: _GetBytesPerLine:BytesPerLine <- $r1
	.loc	1 976 46                @ ../Libraries/Config/GUIDRV_stm32f429i.c:976:46
	str	r1, [sp, #64]
	movs	r1, #3
.Ltmp45:
	.loc	1 975 61                @ ../Libraries/Config/GUIDRV_stm32f429i.c:975:61
	add.w	r0, r1, r0, asr #3
	add	r1, sp, #8
	.loc	1 975 46 is_stmt 0      @ ../Libraries/Config/GUIDRV_stm32f429i.c:975:46
	str	r0, [sp, #60]
	.loc	1 982 17 is_stmt 1      @ ../Libraries/Config/GUIDRV_stm32f429i.c:982:17
	movw	r0, :lower16:_apLayer
	movt	r0, :upper16:_apLayer
	ldr.w	r5, [r0, r4, lsl #2]
.Ltmp46:
	@DEBUG_VALUE: _LCD_InitController:LTDC_Layer_InitStruct <- [DW_OP_plus_uconst 8, DW_OP_deref] $sp
	@DEBUG_VALUE: _LTDC_LayerEnableLUT:LTDC_Layerx <- $r5
	.loc	1 982 2 is_stmt 0       @ ../Libraries/Config/GUIDRV_stm32f429i.c:982:2
	mov	r0, r5
	bl	LTDC_LayerInit
	.loc	1 986 17 is_stmt 1      @ ../Libraries/Config/GUIDRV_stm32f429i.c:986:17
	mov	r0, r4
	bl	LCD_GetBitsPerPixelEx
	.loc	1 987 6                 @ ../Libraries/Config/GUIDRV_stm32f429i.c:987:6
	cmp	r0, #8
	bgt	.LBB2_8
.Ltmp47:
@ %bb.7:
	@DEBUG_VALUE: _LTDC_LayerEnableLUT:LTDC_Layerx <- $r5
	@DEBUG_VALUE: _LCD_InitController:LTDC_Layer_InitStruct <- [DW_OP_plus_uconst 8, DW_OP_deref] $sp
	@DEBUG_VALUE: LCD_X_DisplayDriver:LayerIndex <- $r4
	@DEBUG_VALUE: _LTDC_LayerEnableLUT:NewState <- 1
	.loc	1 0 0 is_stmt 0         @ ../Libraries/Config/GUIDRV_stm32f429i.c:0:0
	ldr	r0, [r5]
	movs	r1, #2
.Ltmp48:
	.loc	1 780 21 is_stmt 1      @ ../Libraries/Config/GUIDRV_stm32f429i.c:780:21
	orr	r0, r0, #16
	str	r0, [r5]
	movw	r0, #26660
	movt	r0, #16385
.Ltmp49:
	.loc	1 784 14                @ ../Libraries/Config/GUIDRV_stm32f429i.c:784:14
	str	r1, [r0]
.Ltmp50:
.LBB2_8:
	@DEBUG_VALUE: _LCD_InitController:LTDC_Layer_InitStruct <- [DW_OP_plus_uconst 8, DW_OP_deref] $sp
	@DEBUG_VALUE: LCD_X_DisplayDriver:LayerIndex <- $r4
	.loc	1 1007 2                @ ../Libraries/Config/GUIDRV_stm32f429i.c:1007:2
	mov	r0, r5
	movs	r1, #1
	b	.LBB2_18
.Ltmp51:
.LBB2_9:
	@DEBUG_VALUE: p <- $r6
	@DEBUG_VALUE: LCD_X_DisplayDriver:pData <- $r6
	@DEBUG_VALUE: LCD_X_DisplayDriver:LayerIndex <- $r4
	@DEBUG_VALUE: LCD_X_DisplayDriver:Cmd <- $r1
	.loc	1 1342 18               @ ../Libraries/Config/GUIDRV_stm32f429i.c:1342:18
	ldr	r1, [r6]
.Ltmp52:
	.loc	1 1343 5                @ ../Libraries/Config/GUIDRV_stm32f429i.c:1343:5
	movw	r0, :lower16:_apLayer
	movt	r0, :upper16:_apLayer
	.loc	1 1342 63               @ ../Libraries/Config/GUIDRV_stm32f429i.c:1342:63
	and	r2, r1, #65280
	.loc	1 1342 40 is_stmt 0     @ ../Libraries/Config/GUIDRV_stm32f429i.c:1342:40
	ubfx	r3, r1, #16, #8
	.loc	1 1343 5 is_stmt 1      @ ../Libraries/Config/GUIDRV_stm32f429i.c:1343:5
	ldr.w	r0, [r0, r4, lsl #2]
	.loc	1 1342 104              @ ../Libraries/Config/GUIDRV_stm32f429i.c:1342:104
	uxtb	r1, r1
	.loc	1 1342 47 is_stmt 0     @ ../Libraries/Config/GUIDRV_stm32f429i.c:1342:47
	add	r2, r3
	.loc	1 1342 75               @ ../Libraries/Config/GUIDRV_stm32f429i.c:1342:75
	orr.w	r1, r2, r1, lsl #16
.Ltmp53:
	@DEBUG_VALUE: Color <- $r1
	.loc	1 1343 32 is_stmt 1     @ ../Libraries/Config/GUIDRV_stm32f429i.c:1343:32
	str	r1, [r0, #12]
	b	.LBB2_12
.Ltmp54:
.LBB2_10:
	@DEBUG_VALUE: LCD_X_DisplayDriver:LayerIndex <- $r4
	@DEBUG_VALUE: LCD_X_DisplayDriver:Cmd <- $r1
	.loc	1 0 32 is_stmt 0        @ ../Libraries/Config/GUIDRV_stm32f429i.c:0:32
	mov.w	r5, #-1
.Ltmp55:
	@DEBUG_VALUE: LCD_X_DisplayDriver:r <- -1
	b	.LBB2_23
.Ltmp56:
.LBB2_11:
	@DEBUG_VALUE: p <- $r6
	@DEBUG_VALUE: LCD_X_DisplayDriver:pData <- $r6
	@DEBUG_VALUE: LCD_X_DisplayDriver:LayerIndex <- $r4
	@DEBUG_VALUE: LCD_X_DisplayDriver:Cmd <- $r1
	.loc	1 1239 66 is_stmt 1     @ ../Libraries/Config/GUIDRV_stm32f429i.c:1239:66
	movw	r2, :lower16:_axSize
	.loc	1 1239 35 is_stmt 0     @ ../Libraries/Config/GUIDRV_stm32f429i.c:1239:35
	movw	r0, :lower16:_aAddr
	.loc	1 1239 88               @ ../Libraries/Config/GUIDRV_stm32f429i.c:1239:88
	movw	r1, :lower16:_aBytesPerPixels
.Ltmp57:
	.loc	1 1239 59               @ ../Libraries/Config/GUIDRV_stm32f429i.c:1239:59
	ldr	r3, [r6, #4]
	.loc	1 1239 66               @ ../Libraries/Config/GUIDRV_stm32f429i.c:1239:66
	movt	r2, :upper16:_axSize
	.loc	1 1239 35               @ ../Libraries/Config/GUIDRV_stm32f429i.c:1239:35
	movt	r0, :upper16:_aAddr
	.loc	1 1239 88               @ ../Libraries/Config/GUIDRV_stm32f429i.c:1239:88
	movt	r1, :upper16:_aBytesPerPixels
	.loc	1 1239 66               @ ../Libraries/Config/GUIDRV_stm32f429i.c:1239:66
	ldr.w	r2, [r2, r4, lsl #2]
	.loc	1 1239 35               @ ../Libraries/Config/GUIDRV_stm32f429i.c:1239:35
	ldr.w	r0, [r0, r4, lsl #2]
	.loc	1 1239 88               @ ../Libraries/Config/GUIDRV_stm32f429i.c:1239:88
	ldr.w	r1, [r1, r4, lsl #2]
	.loc	1 1239 64               @ ../Libraries/Config/GUIDRV_stm32f429i.c:1239:64
	muls	r2, r3, r2
	.loc	1 1239 54               @ ../Libraries/Config/GUIDRV_stm32f429i.c:1239:54
	mla	r0, r2, r1, r0
	.loc	1 1239 5                @ ../Libraries/Config/GUIDRV_stm32f429i.c:1239:5
	movw	r1, :lower16:_apLayer
	movt	r1, :upper16:_apLayer
	ldr.w	r1, [r1, r4, lsl #2]
	.loc	1 1239 33               @ ../Libraries/Config/GUIDRV_stm32f429i.c:1239:33
	str	r0, [r1, #40]
.Ltmp58:
.LBB2_12:
	@DEBUG_VALUE: LCD_X_DisplayDriver:pData <- $r6
	@DEBUG_VALUE: LCD_X_DisplayDriver:LayerIndex <- $r4
	.loc	1 0 0                   @ ../Libraries/Config/GUIDRV_stm32f429i.c:0:0
	movs	r0, #2
	b	.LBB2_21
.Ltmp59:
.LBB2_13:
	@DEBUG_VALUE: p <- $r6
	@DEBUG_VALUE: LCD_X_DisplayDriver:pData <- $r6
	@DEBUG_VALUE: LCD_X_DisplayDriver:LayerIndex <- $r4
	@DEBUG_VALUE: LCD_X_DisplayDriver:Cmd <- $r1
	@DEBUG_VALUE: _LTDC_SetLUTEntry:a <- undef
	.loc	1 842 3 is_stmt 1       @ ../Libraries/Config/GUIDRV_stm32f429i.c:842:3
	movw	r0, :lower16:_apLayer
.Ltmp60:
	.loc	1 1260 38               @ ../Libraries/Config/GUIDRV_stm32f429i.c:1260:38
	ldr	r2, [r6]
.Ltmp61:
	@DEBUG_VALUE: _LTDC_SetLUTEntry:Color <- $r2
	@DEBUG_VALUE: _LTDC_SetLUTEntry:Pos <- $r1
	.loc	1 1260 45 is_stmt 0     @ ../Libraries/Config/GUIDRV_stm32f429i.c:1260:45
	ldrb	r1, [r6, #4]
.Ltmp62:
	.loc	1 0 45                  @ ../Libraries/Config/GUIDRV_stm32f429i.c:0:45
	movs	r5, #0
.Ltmp63:
	.loc	1 842 3 is_stmt 1       @ ../Libraries/Config/GUIDRV_stm32f429i.c:842:3
	movt	r0, :upper16:_apLayer
	ldr.w	r0, [r0, r4, lsl #2]
	.loc	1 842 32 is_stmt 0      @ ../Libraries/Config/GUIDRV_stm32f429i.c:842:32
	ldr	r3, [r0, #64]
	str	r5, [r0, #64]
.Ltmp64:
	@DEBUG_VALUE: _LTDC_SetLUTEntry:r <- undef
	.loc	1 839 22 is_stmt 1      @ ../Libraries/Config/GUIDRV_stm32f429i.c:839:22
	and	r3, r2, #65280
.Ltmp65:
	@DEBUG_VALUE: _LTDC_SetLUTEntry:g <- $r3
	.loc	1 843 37                @ ../Libraries/Config/GUIDRV_stm32f429i.c:843:37
	bfi	r3, r2, #16, #8
.Ltmp66:
	.loc	1 840 22                @ ../Libraries/Config/GUIDRV_stm32f429i.c:840:22
	ubfx	r2, r2, #16, #8
.Ltmp67:
	@DEBUG_VALUE: _LTDC_SetLUTEntry:b <- $r2
	.loc	1 843 41                @ ../Libraries/Config/GUIDRV_stm32f429i.c:843:41
	add	r2, r3
.Ltmp68:
	.loc	1 843 45 is_stmt 0      @ ../Libraries/Config/GUIDRV_stm32f429i.c:843:45
	orr.w	r1, r2, r1, lsl #24
	.loc	1 843 33                @ ../Libraries/Config/GUIDRV_stm32f429i.c:843:33
	str	r1, [r0, #64]
	.loc	1 847 3 is_stmt 1       @ ../Libraries/Config/GUIDRV_stm32f429i.c:847:3
	movs	r0, #1
	bl	LTDC_ReloadConfig
	b	.LBB2_23
.Ltmp69:
.LBB2_14:
	@DEBUG_VALUE: p <- $r6
	@DEBUG_VALUE: LCD_X_DisplayDriver:pData <- $r6
	@DEBUG_VALUE: LCD_X_DisplayDriver:LayerIndex <- $r4
	@DEBUG_VALUE: LCD_X_DisplayDriver:Cmd <- $r1
	@DEBUG_VALUE: xPos <- [DW_OP_plus_uconst 8, DW_OP_deref] $sp
	@DEBUG_VALUE: yPos <- [DW_OP_plus_uconst 4, DW_OP_deref] $sp
	.loc	1 0 3 is_stmt 0         @ ../Libraries/Config/GUIDRV_stm32f429i.c:0:3
	add	r1, sp, #8
.Ltmp70:
	add	r2, sp, #4
.Ltmp71:
	.loc	1 1307 5 is_stmt 1      @ ../Libraries/Config/GUIDRV_stm32f429i.c:1307:5
	mov	r0, r4
	bl	GUI_GetLayerPosEx
	.loc	1 1309 5                @ ../Libraries/Config/GUIDRV_stm32f429i.c:1309:5
	movw	r1, :lower16:_axSize
	.loc	1 1309 30 is_stmt 0     @ ../Libraries/Config/GUIDRV_stm32f429i.c:1309:30
	ldr	r0, [r6]
	.loc	1 1309 5                @ ../Libraries/Config/GUIDRV_stm32f429i.c:1309:5
	movt	r1, :upper16:_axSize
	.loc	1 1309 25               @ ../Libraries/Config/GUIDRV_stm32f429i.c:1309:25
	str.w	r0, [r1, r4, lsl #2]
	.loc	1 1310 5 is_stmt 1      @ ../Libraries/Config/GUIDRV_stm32f429i.c:1310:5
	movw	r1, :lower16:_aySize
	.loc	1 1310 30 is_stmt 0     @ ../Libraries/Config/GUIDRV_stm32f429i.c:1310:30
	ldr	r0, [r6, #4]
	.loc	1 1310 5                @ ../Libraries/Config/GUIDRV_stm32f429i.c:1310:5
	movt	r1, :upper16:_aySize
	.loc	1 1310 25               @ ../Libraries/Config/GUIDRV_stm32f429i.c:1310:25
	str.w	r0, [r1, r4, lsl #2]
.Ltmp72:
	@DEBUG_VALUE: xPos <- $r1
	.loc	1 1311 41 is_stmt 1     @ ../Libraries/Config/GUIDRV_stm32f429i.c:1311:41
	ldrd	r2, r1, [sp, #4]
.Ltmp73:
	.loc	1 0 41 is_stmt 0        @ ../Libraries/Config/GUIDRV_stm32f429i.c:0:41
	b	.LBB2_16
.Ltmp74:
.LBB2_15:
	@DEBUG_VALUE: p <- $r6
	@DEBUG_VALUE: LCD_X_DisplayDriver:pData <- $r6
	@DEBUG_VALUE: LCD_X_DisplayDriver:LayerIndex <- $r4
	@DEBUG_VALUE: LCD_X_DisplayDriver:Cmd <- $r1
	.loc	1 1297 38 is_stmt 1     @ ../Libraries/Config/GUIDRV_stm32f429i.c:1297:38
	ldrd	r1, r2, [r6]
.Ltmp75:
.LBB2_16:
	@DEBUG_VALUE: LCD_X_DisplayDriver:pData <- $r6
	@DEBUG_VALUE: LCD_X_DisplayDriver:LayerIndex <- $r4
	.loc	1 0 0 is_stmt 0         @ ../Libraries/Config/GUIDRV_stm32f429i.c:0:0
	mov	r0, r4
	bl	_LTDC_SetLayerPos
	b	.LBB2_22
.Ltmp76:
.LBB2_17:
	@DEBUG_VALUE: p <- $r6
	@DEBUG_VALUE: LCD_X_DisplayDriver:pData <- $r6
	@DEBUG_VALUE: LCD_X_DisplayDriver:LayerIndex <- $r4
	@DEBUG_VALUE: LCD_X_DisplayDriver:Cmd <- $r1
	.loc	1 1284 19 is_stmt 1     @ ../Libraries/Config/GUIDRV_stm32f429i.c:1284:19
	movw	r0, :lower16:_apLayer
	.loc	1 1284 44 is_stmt 0     @ ../Libraries/Config/GUIDRV_stm32f429i.c:1284:44
	ldr	r1, [r6]
.Ltmp77:
	.loc	1 1284 19               @ ../Libraries/Config/GUIDRV_stm32f429i.c:1284:19
	movt	r0, :upper16:_apLayer
	ldr.w	r0, [r0, r4, lsl #2]
	.loc	1 1284 41               @ ../Libraries/Config/GUIDRV_stm32f429i.c:1284:41
	cmp	r1, #0
	it	ne
	movne	r1, #1
.Ltmp78:
.LBB2_18:
	@DEBUG_VALUE: LCD_X_DisplayDriver:LayerIndex <- $r4
	.loc	1 0 0                   @ ../Libraries/Config/GUIDRV_stm32f429i.c:0:0
	bl	LTDC_LayerCmd
	b	.LBB2_20
.Ltmp79:
.LBB2_19:
	@DEBUG_VALUE: p <- $r6
	@DEBUG_VALUE: LCD_X_DisplayDriver:pData <- $r6
	@DEBUG_VALUE: LCD_X_DisplayDriver:LayerIndex <- $r4
	@DEBUG_VALUE: LCD_X_DisplayDriver:Cmd <- $r1
	.loc	1 823 3 is_stmt 1       @ ../Libraries/Config/GUIDRV_stm32f429i.c:823:3
	movw	r0, :lower16:_apLayer
.Ltmp80:
	.loc	1 1321 40               @ ../Libraries/Config/GUIDRV_stm32f429i.c:1321:40
	ldr	r1, [r6]
.Ltmp81:
	@DEBUG_VALUE: _LTDC_SetLayerAlpha:Alpha <- $r1
	.loc	1 823 3                 @ ../Libraries/Config/GUIDRV_stm32f429i.c:823:3
	movt	r0, :upper16:_apLayer
	ldr.w	r0, [r0, r4, lsl #2]
	.loc	1 824 37                @ ../Libraries/Config/GUIDRV_stm32f429i.c:824:37
	rsb.w	r1, r1, #255
.Ltmp82:
	.loc	1 823 30                @ ../Libraries/Config/GUIDRV_stm32f429i.c:823:30
	ldr	r2, [r0, #20]
	bic	r2, r2, #255
	str	r2, [r0, #20]
	.loc	1 824 31                @ ../Libraries/Config/GUIDRV_stm32f429i.c:824:31
	str	r1, [r0, #20]
.Ltmp83:
.LBB2_20:
	@DEBUG_VALUE: LCD_X_DisplayDriver:LayerIndex <- $r4
	.loc	1 0 0 is_stmt 0         @ ../Libraries/Config/GUIDRV_stm32f429i.c:0:0
	movs	r0, #1
.Ltmp84:
.LBB2_21:
	@DEBUG_VALUE: LCD_X_DisplayDriver:LayerIndex <- $r4
	bl	LTDC_ReloadConfig
.Ltmp85:
.LBB2_22:
	@DEBUG_VALUE: LCD_X_DisplayDriver:LayerIndex <- $r4
	movs	r5, #0
.Ltmp86:
.LBB2_23:
	@DEBUG_VALUE: LCD_X_DisplayDriver:LayerIndex <- $r4
	@DEBUG_VALUE: LCD_X_DisplayDriver:r <- $r5
	.loc	1 1350 3 is_stmt 1      @ ../Libraries/Config/GUIDRV_stm32f429i.c:1350:3
	mov	r0, r5
	add	sp, #72
	pop	{r4, r5, r6, pc}
.Ltmp87:
.LBB2_24:
	@DEBUG_VALUE: p <- $r6
	@DEBUG_VALUE: LCD_X_DisplayDriver:pData <- $r6
	@DEBUG_VALUE: LCD_X_DisplayDriver:LayerIndex <- $r4
	@DEBUG_VALUE: LCD_X_DisplayDriver:Cmd <- $r1
	.loc	1 1331 34               @ ../Libraries/Config/GUIDRV_stm32f429i.c:1331:34
	movw	r0, :lower16:_apLayer
	.loc	1 1331 60 is_stmt 0     @ ../Libraries/Config/GUIDRV_stm32f429i.c:1331:60
	ldr	r1, [r6]
.Ltmp88:
	@DEBUG_VALUE: _LTDC_LayerEnableColorKeying:LTDC_Layerx <- $r0
	.loc	1 1331 34               @ ../Libraries/Config/GUIDRV_stm32f429i.c:1331:34
	movt	r0, :upper16:_apLayer
.Ltmp89:
	ldr.w	r0, [r0, r4, lsl #2]
.Ltmp90:
	.loc	1 766 7 is_stmt 1       @ ../Libraries/Config/GUIDRV_stm32f429i.c:766:7
	cmp	r1, #0
	mov.w	r1, #2
.Ltmp91:
	.loc	1 0 0 is_stmt 0         @ ../Libraries/Config/GUIDRV_stm32f429i.c:0:0
	ldr	r2, [r0]
.Ltmp92:
	.loc	1 766 7                 @ ../Libraries/Config/GUIDRV_stm32f429i.c:766:7
	orr	r3, r2, #2
	it	eq
	biceq	r3, r2, #2
.Ltmp93:
	.loc	1 0 0                   @ ../Libraries/Config/GUIDRV_stm32f429i.c:0:0
	str	r3, [r0]
	movw	r0, #26660
	movt	r0, #16385
.Ltmp94:
	.loc	1 771 14 is_stmt 1      @ ../Libraries/Config/GUIDRV_stm32f429i.c:771:14
	str	r1, [r0]
	b	.LBB2_22
.Ltmp95:
.LBB2_25:
	@DEBUG_VALUE: p <- $r6
	@DEBUG_VALUE: LCD_X_DisplayDriver:pData <- $r6
	@DEBUG_VALUE: LCD_X_DisplayDriver:LayerIndex <- $r4
	@DEBUG_VALUE: LCD_X_DisplayDriver:Cmd <- $r1
	.loc	1 1250 5                @ ../Libraries/Config/GUIDRV_stm32f429i.c:1250:5
	movw	r1, :lower16:_aPendingBuffer
.Ltmp96:
	.loc	1 1250 38 is_stmt 0     @ ../Libraries/Config/GUIDRV_stm32f429i.c:1250:38
	ldr	r0, [r6]
	.loc	1 1250 5                @ ../Libraries/Config/GUIDRV_stm32f429i.c:1250:5
	movt	r1, :upper16:_aPendingBuffer
	.loc	1 1250 33               @ ../Libraries/Config/GUIDRV_stm32f429i.c:1250:33
	str.w	r0, [r1, r4, lsl #2]
	b	.LBB2_22
.Ltmp97:
.Lfunc_end2:
	.size	LCD_X_DisplayDriver, .Lfunc_end2-LCD_X_DisplayDriver
	.cfi_endproc
	.file	6 "F:\\SkyDrive\\OtvoreniProjekti\\HotelSaplast\\fw\\KontrolerHotela\\HC070318\\Project" "../Libraries/STM32F4xx_StdPeriph_Driver/inc\\stm32f4xx_ltdc.h"
	.cantunwind
	.fnend
                                        @ -- End function
	.section	.text._LTDC_SetLayerPos,"ax",%progbits
	.p2align	1               @ -- Begin function _LTDC_SetLayerPos
	.type	_LTDC_SetLayerPos,%function
	.code	16                      @ @_LTDC_SetLayerPos
	.thumb_func
_LTDC_SetLayerPos:
.Lfunc_begin3:
	.loc	1 791 0 is_stmt 1       @ ../Libraries/Config/GUIDRV_stm32f429i.c:791:0
	.fnstart
	.cfi_startproc
@ %bb.0:
	.save	{r4, r5, r6, r7, r8, lr}
	push.w	{r4, r5, r6, r7, r8, lr}
	.cfi_def_cfa_offset 24
	.cfi_offset lr, -4
	.cfi_offset r8, -8
	.cfi_offset r7, -12
	.cfi_offset r6, -16
	.cfi_offset r5, -20
	.cfi_offset r4, -24
	@DEBUG_VALUE: _LTDC_SetLayerPos:LayerIndex <- $r0
	@DEBUG_VALUE: _LTDC_SetLayerPos:xPos <- $r1
	@DEBUG_VALUE: _LTDC_SetLayerPos:yPos <- $r2
	mov	r6, r0
.Ltmp98:
	@DEBUG_VALUE: _LTDC_SetLayerPos:VerticalStop <- undef
	@DEBUG_VALUE: _LTDC_SetLayerPos:yPos <- $r8
	@DEBUG_VALUE: _LTDC_SetLayerPos:xPos <- $r5
	@DEBUG_VALUE: _LTDC_SetLayerPos:LayerIndex <- $r6
	.loc	1 803 3 prologue_end    @ ../Libraries/Config/GUIDRV_stm32f429i.c:803:3
	movw	r0, :lower16:_apLayer
	mov	r8, r2
.Ltmp99:
	.loc	1 0 3 is_stmt 0         @ ../Libraries/Config/GUIDRV_stm32f429i.c:0:3
	mov	r5, r1
.Ltmp100:
	.loc	1 803 3                 @ ../Libraries/Config/GUIDRV_stm32f429i.c:803:3
	movt	r0, :upper16:_apLayer
	ldr.w	r4, [r0, r6, lsl #2]
	.loc	1 795 11 is_stmt 1      @ ../Libraries/Config/GUIDRV_stm32f429i.c:795:11
	mov	r0, r6
	bl	LCD_GetXSizeEx
	mov	r7, r0
.Ltmp101:
	@DEBUG_VALUE: _LTDC_SetLayerPos:xSize <- $r7
	.loc	1 796 11                @ ../Libraries/Config/GUIDRV_stm32f429i.c:796:11
	mov	r0, r6
	bl	LCD_GetYSizeEx
.Ltmp102:
	@DEBUG_VALUE: _LTDC_SetLayerPos:ySize <- $r0
	.loc	1 803 31                @ ../Libraries/Config/GUIDRV_stm32f429i.c:803:31
	ldr	r1, [r4, #4]
	.loc	1 797 32                @ ../Libraries/Config/GUIDRV_stm32f429i.c:797:32
	add.w	r2, r5, #44
.Ltmp103:
	@DEBUG_VALUE: _LTDC_SetLayerPos:HorizontalStart <- $r2
	.loc	1 799 26                @ ../Libraries/Config/GUIDRV_stm32f429i.c:799:26
	add	r0, r8
.Ltmp104:
	.loc	1 808 65                @ ../Libraries/Config/GUIDRV_stm32f429i.c:808:65
	adds	r0, #12
	.loc	1 803 31                @ ../Libraries/Config/GUIDRV_stm32f429i.c:803:31
	and	r1, r1, #61440
	str	r1, [r4, #4]
	.loc	1 797 26                @ ../Libraries/Config/GUIDRV_stm32f429i.c:797:26
	adds	r1, r5, r7
	.loc	1 804 68                @ ../Libraries/Config/GUIDRV_stm32f429i.c:804:68
	adds	r1, #43
	.loc	1 804 50 is_stmt 0      @ ../Libraries/Config/GUIDRV_stm32f429i.c:804:50
	orr.w	r1, r2, r1, lsl #16
	.loc	1 804 31                @ ../Libraries/Config/GUIDRV_stm32f429i.c:804:31
	str	r1, [r4, #4]
	.loc	1 807 31 is_stmt 1      @ ../Libraries/Config/GUIDRV_stm32f429i.c:807:31
	ldr	r1, [r4, #8]
	and	r1, r1, #61440
	str	r1, [r4, #8]
.Ltmp105:
	@DEBUG_VALUE: _LTDC_SetLayerPos:HorizontalStop <- undef
	.loc	1 799 32                @ ../Libraries/Config/GUIDRV_stm32f429i.c:799:32
	add.w	r1, r8, #13
.Ltmp106:
	@DEBUG_VALUE: _LTDC_SetLayerPos:VerticalStart <- $r1
	.loc	1 808 49                @ ../Libraries/Config/GUIDRV_stm32f429i.c:808:49
	orr.w	r0, r1, r0, lsl #16
	.loc	1 808 32 is_stmt 0      @ ../Libraries/Config/GUIDRV_stm32f429i.c:808:32
	str	r0, [r4, #8]
	.loc	1 812 3 is_stmt 1       @ ../Libraries/Config/GUIDRV_stm32f429i.c:812:3
	movs	r0, #2
	pop.w	{r4, r5, r6, r7, r8, lr}
.Ltmp107:
	b	LTDC_ReloadConfig
.Ltmp108:
.Lfunc_end3:
	.size	_LTDC_SetLayerPos, .Lfunc_end3-_LTDC_SetLayerPos
	.cfi_endproc
	.cantunwind
	.fnend
                                        @ -- End function
	.section	.text.LCD_X_Config,"ax",%progbits
	.hidden	LCD_X_Config            @ -- Begin function LCD_X_Config
	.globl	LCD_X_Config
	.p2align	1
	.type	LCD_X_Config,%function
	.code	16                      @ @LCD_X_Config
	.thumb_func
LCD_X_Config:
.Lfunc_begin4:
	.loc	1 1363 0                @ ../Libraries/Config/GUIDRV_stm32f429i.c:1363:0
	.fnstart
	.cfi_startproc
@ %bb.0:
	.save	{r4, r5, r6, r7, r8, r9, r10, r11, lr}
	push.w	{r4, r5, r6, r7, r8, r9, r10, r11, lr}
	.cfi_def_cfa_offset 36
	.cfi_offset lr, -4
	.cfi_offset r11, -8
	.cfi_offset r10, -12
	.cfi_offset r9, -16
	.cfi_offset r8, -20
	.cfi_offset r7, -24
	.cfi_offset r6, -28
	.cfi_offset r5, -32
	.cfi_offset r4, -36
	.pad	#4
	sub	sp, #4
	.cfi_def_cfa_offset 40
.Ltmp109:
	.loc	1 1376 2 prologue_end   @ ../Libraries/Config/GUIDRV_stm32f429i.c:1376:2
	movw	r0, :lower16:GUIDRV_Lin_16_API
	movw	r1, :lower16:LCD_API_ColorConv_M565
	movs	r2, #0
	movs	r3, #0
	movs	r4, #0
	movt	r0, :upper16:GUIDRV_Lin_16_API
	movt	r1, :upper16:LCD_API_ColorConv_M565
	bl	GUI_DEVICE_CreateAndLink
	.loc	1 1380 2                @ ../Libraries/Config/GUIDRV_stm32f429i.c:1380:2
	movs	r0, #0
	mov.w	r1, #480
	mov.w	r2, #272
	mov.w	r5, #480
	mov.w	r6, #272
	bl	LCD_SetSizeEx
	.loc	1 1381 2                @ ../Libraries/Config/GUIDRV_stm32f429i.c:1381:2
	movs	r0, #0
	mov.w	r1, #480
	mov.w	r2, #272
	bl	LCD_SetVSizeEx
	.loc	1 1382 2                @ ../Libraries/Config/GUIDRV_stm32f429i.c:1382:2
	movs	r0, #0
	movs	r1, #0
	mov.w	r2, #480
	movs	r3, #0
	str	r6, [sp]
	bl	GUI_TOUCH_Calibrate
	.loc	1 1383 2                @ ../Libraries/Config/GUIDRV_stm32f429i.c:1383:2
	movs	r0, #1
	movs	r1, #0
	mov.w	r2, #272
	movs	r3, #0
	str	r5, [sp]
	bl	GUI_TOUCH_Calibrate
	.loc	1 1388 5                @ ../Libraries/Config/GUIDRV_stm32f429i.c:1388:5
	movw	r0, :lower16:GUIDRV_Lin_32_API
	movw	r1, :lower16:LCD_API_ColorConv_M8888I
	movs	r2, #0
	movs	r3, #1
	movt	r0, :upper16:GUIDRV_Lin_32_API
	movt	r1, :upper16:LCD_API_ColorConv_M8888I
	bl	GUI_DEVICE_CreateAndLink
	.loc	1 1392 5                @ ../Libraries/Config/GUIDRV_stm32f429i.c:1392:5
	movs	r0, #1
	mov.w	r1, #480
	mov.w	r2, #272
	bl	LCD_SetSizeEx
	.loc	1 1393 5                @ ../Libraries/Config/GUIDRV_stm32f429i.c:1393:5
	movs	r0, #1
	mov.w	r1, #480
	mov.w	r2, #272
	bl	LCD_SetVSizeEx
.Ltmp110:
	@DEBUG_VALUE: LCD_X_Config:i <- 0
	.loc	1 0 5 is_stmt 0         @ ../Libraries/Config/GUIDRV_stm32f429i.c:0:5
	movw	r6, :lower16:_Index2ColorBulk_M888_DMA2D
	movw	r7, :lower16:_Color2IndexBulk_M8888I_DMA2D
	movw	r9, :lower16:_Index2ColorBulk_M8888I_DMA2D
	movw	r8, :lower16:_DMA_AlphaBlending
	movw	r10, :lower16:_LCD_GetpPalConvTable
	movw	r11, :lower16:_DMA_MixColors
	movw	r5, :lower16:_LCD_MixColorsBulk
	movt	r6, :upper16:_Index2ColorBulk_M888_DMA2D
	movt	r7, :upper16:_Color2IndexBulk_M8888I_DMA2D
	movt	r9, :upper16:_Index2ColorBulk_M8888I_DMA2D
	movt	r8, :upper16:_DMA_AlphaBlending
	movt	r10, :upper16:_LCD_GetpPalConvTable
	movt	r11, :upper16:_DMA_MixColors
	movt	r5, :upper16:_LCD_MixColorsBulk
	.p2align	2
.LBB4_1:                                @ =>This Inner Loop Header: Depth=1
.Ltmp111:
	@DEBUG_VALUE: LCD_X_Config:i <- $r4
	@DEBUG_VALUE: _GetPixelformat:LayerIndex <- $r4
	@DEBUG_VALUE: _GetPixelformat:LayerIndex <- $r4
	.loc	1 1403 22 is_stmt 1     @ ../Libraries/Config/GUIDRV_stm32f429i.c:1403:22
	movw	r0, :lower16:_aPendingBuffer
	mov.w	r1, #-1
	movt	r0, :upper16:_aPendingBuffer
	str.w	r1, [r0, r4, lsl #2]
	.loc	1 1407 33               @ ../Libraries/Config/GUIDRV_stm32f429i.c:1407:33
	movw	r0, :lower16:_aAddr
	movt	r0, :upper16:_aAddr
	ldr.w	r1, [r0, r4, lsl #2]
	.loc	1 1407 3 is_stmt 0      @ ../Libraries/Config/GUIDRV_stm32f429i.c:1407:3
	mov	r0, r4
	bl	LCD_SetVRAMAddrEx
	.loc	1 1411 25 is_stmt 1     @ ../Libraries/Config/GUIDRV_stm32f429i.c:1411:25
	mov	r0, r4
	bl	LCD_GetBitsPerPixelEx
	.loc	1 1411 23 is_stmt 0     @ ../Libraries/Config/GUIDRV_stm32f429i.c:1411:23
	movw	r1, :lower16:_aBytesPerPixels
	.loc	1 1415 3 is_stmt 1      @ ../Libraries/Config/GUIDRV_stm32f429i.c:1415:3
	movw	r2, :lower16:_LCD_CopyBuffer
	.loc	1 1411 50               @ ../Libraries/Config/GUIDRV_stm32f429i.c:1411:50
	asrs	r0, r0, #3
	.loc	1 1411 23 is_stmt 0     @ ../Libraries/Config/GUIDRV_stm32f429i.c:1411:23
	movt	r1, :upper16:_aBytesPerPixels
	.loc	1 1415 3 is_stmt 1      @ ../Libraries/Config/GUIDRV_stm32f429i.c:1415:3
	movt	r2, :upper16:_LCD_CopyBuffer
	.loc	1 1411 23               @ ../Libraries/Config/GUIDRV_stm32f429i.c:1411:23
	str.w	r0, [r1, r4, lsl #2]
	.loc	1 1415 3                @ ../Libraries/Config/GUIDRV_stm32f429i.c:1415:3
	mov	r0, r4
	movs	r1, #33
	bl	LCD_SetDevFunc
	.loc	1 1416 3                @ ../Libraries/Config/GUIDRV_stm32f429i.c:1416:3
	movw	r2, :lower16:_LCD_CopyRect
	mov	r0, r4
	movs	r1, #35
	movt	r2, :upper16:_LCD_CopyRect
	bl	LCD_SetDevFunc
.Ltmp112:
	.loc	1 1421 3                @ ../Libraries/Config/GUIDRV_stm32f429i.c:1421:3
	movw	r2, :lower16:_LCD_FillRect
	mov	r0, r4
	movs	r1, #25
	movt	r2, :upper16:_LCD_FillRect
	bl	LCD_SetDevFunc
	.loc	1 1422 3                @ ../Libraries/Config/GUIDRV_stm32f429i.c:1422:3
	movw	r2, :lower16:_LCD_DrawBitmap8bpp
	mov	r0, r4
	movs	r1, #37
	movt	r2, :upper16:_LCD_DrawBitmap8bpp
	bl	LCD_SetDevFunc
.Ltmp113:
	.loc	1 1427 6                @ ../Libraries/Config/GUIDRV_stm32f429i.c:1427:6
	cbnz	r4, .LBB4_3
.Ltmp114:
@ %bb.2:                                @   in Loop: Header=BB4_1 Depth=1
	@DEBUG_VALUE: LCD_X_Config:i <- $r4
	.loc	1 1428 4                @ ../Libraries/Config/GUIDRV_stm32f429i.c:1428:4
	movw	r2, :lower16:_LCD_DrawBitmap16bpp
	movs	r0, #0
	movs	r1, #36
	movt	r2, :upper16:_LCD_DrawBitmap16bpp
	bl	LCD_SetDevFunc
.Ltmp115:
.LBB4_3:                                @   in Loop: Header=BB4_1 Depth=1
	@DEBUG_VALUE: LCD_X_Config:i <- $r4
	.loc	1 1434 3                @ ../Libraries/Config/GUIDRV_stm32f429i.c:1434:3
	movw	r0, :lower16:_Color2IndexBulk_M1555I_DMA2D
	movw	r1, :lower16:_Index2ColorBulk_M1555I_DMA2D
	movt	r0, :upper16:_Color2IndexBulk_M1555I_DMA2D
	movt	r1, :upper16:_Index2ColorBulk_M1555I_DMA2D
	bl	GUICC_M1555I_SetCustColorConv
	.loc	1 1435 3                @ ../Libraries/Config/GUIDRV_stm32f429i.c:1435:3
	movw	r0, :lower16:_Color2IndexBulk_M565_DMA2D
	movw	r1, :lower16:_Index2ColorBulk_M565_DMA2D
	movt	r0, :upper16:_Color2IndexBulk_M565_DMA2D
	movt	r1, :upper16:_Index2ColorBulk_M565_DMA2D
	bl	GUICC_M565_SetCustColorConv
	.loc	1 1436 3                @ ../Libraries/Config/GUIDRV_stm32f429i.c:1436:3
	movw	r0, :lower16:_Color2IndexBulk_M4444I_DMA2D
	movw	r1, :lower16:_Index2ColorBulk_M4444I_DMA2D
	movt	r0, :upper16:_Color2IndexBulk_M4444I_DMA2D
	movt	r1, :upper16:_Index2ColorBulk_M4444I_DMA2D
	bl	GUICC_M4444I_SetCustColorConv
	.loc	1 1437 3                @ ../Libraries/Config/GUIDRV_stm32f429i.c:1437:3
	movw	r0, :lower16:_Color2IndexBulk_M888_DMA2D
	mov	r1, r6
	movt	r0, :upper16:_Color2IndexBulk_M888_DMA2D
	bl	GUICC_M888_SetCustColorConv
	.loc	1 1438 3                @ ../Libraries/Config/GUIDRV_stm32f429i.c:1438:3
	mov	r0, r7
	mov	r1, r9
	bl	GUICC_M8888I_SetCustColorConv
	.loc	1 1444 3                @ ../Libraries/Config/GUIDRV_stm32f429i.c:1444:3
	mov	r0, r8
	bl	GUI_SetFuncAlphaBlending
	.loc	1 1449 3                @ ../Libraries/Config/GUIDRV_stm32f429i.c:1449:3
	mov	r0, r10
	bl	GUI_SetFuncGetpPalConvTable
	.loc	1 1453 3                @ ../Libraries/Config/GUIDRV_stm32f429i.c:1453:3
	mov	r0, r11
	bl	GUI_SetFuncMixColors
	.loc	1 1457 3                @ ../Libraries/Config/GUIDRV_stm32f429i.c:1457:3
	mov	r0, r5
	bl	GUI_SetFuncMixColorsBulk
.Ltmp116:
	.loc	1 1401 35               @ ../Libraries/Config/GUIDRV_stm32f429i.c:1401:35
	adds	r4, #1
.Ltmp117:
	@DEBUG_VALUE: LCD_X_Config:i <- $r4
	.loc	1 1401 2 is_stmt 0      @ ../Libraries/Config/GUIDRV_stm32f429i.c:1401:2
	cmp	r4, #2
.Ltmp118:
	.loc	1 1459 1 is_stmt 1      @ ../Libraries/Config/GUIDRV_stm32f429i.c:1459:1
	itt	eq
	addeq	sp, #4
	popeq.w	{r4, r5, r6, r7, r8, r9, r10, r11, pc}
.Ltmp119:
	.loc	1 0 1 is_stmt 0         @ ../Libraries/Config/GUIDRV_stm32f429i.c:0:1
	b	.LBB4_1
.Ltmp120:
.Lfunc_end4:
	.size	LCD_X_Config, .Lfunc_end4-LCD_X_Config
	.cfi_endproc
	.cantunwind
	.fnend
                                        @ -- End function
	.section	.text._LCD_CopyBuffer,"ax",%progbits
	.p2align	1               @ -- Begin function _LCD_CopyBuffer
	.type	_LCD_CopyBuffer,%function
	.code	16                      @ @_LCD_CopyBuffer
	.thumb_func
_LCD_CopyBuffer:
.Lfunc_begin5:
	.loc	1 1068 0 is_stmt 1      @ ../Libraries/Config/GUIDRV_stm32f429i.c:1068:0
	.fnstart
	.cfi_startproc
@ %bb.0:
	.save	{r4, r5, r6, lr}
	push	{r4, r5, r6, lr}
	.cfi_def_cfa_offset 16
	.cfi_offset lr, -4
	.cfi_offset r6, -8
	.cfi_offset r5, -12
	.cfi_offset r4, -16
	@DEBUG_VALUE: _LCD_CopyBuffer:LayerIndex <- $r0
	@DEBUG_VALUE: _LCD_CopyBuffer:LayerIndex <- $r0
	@DEBUG_VALUE: _LCD_CopyBuffer:IndexSrc <- $r1
	@DEBUG_VALUE: _LCD_CopyBuffer:IndexSrc <- $r1
	@DEBUG_VALUE: _LCD_CopyBuffer:IndexDst <- $r2
	@DEBUG_VALUE: _LCD_CopyBuffer:IndexDst <- $r2
.Ltmp121:
	@DEBUG_VALUE: _GetBufferSize:LayerIndex <- $r0
	@DEBUG_VALUE: _GetBufferSize:LayerIndex <- $r0
	@DEBUG_VALUE: _DMA_Copy:LayerIndex <- $r0
	@DEBUG_VALUE: _GetPixelformat:LayerIndex <- $r0
	@DEBUG_VALUE: _GetPixelformat:LayerIndex <- $r0
	.loc	1 1021 60 prologue_end  @ ../Libraries/Config/GUIDRV_stm32f429i.c:1021:60
	movw	r3, :lower16:_aBytesPerPixels
.Ltmp122:
	.loc	1 1072 16               @ ../Libraries/Config/GUIDRV_stm32f429i.c:1072:16
	movw	r4, :lower16:_aAddr
	mov.w	r5, #512
.Ltmp123:
	@DEBUG_VALUE: _DMA_Copy:xSize <- $r6
	@DEBUG_VALUE: _DMA_Copy:ySize <- $lr
	@DEBUG_VALUE: _DMA_Copy:LayerIndex <- $r0
	.loc	1 1021 60               @ ../Libraries/Config/GUIDRV_stm32f429i.c:1021:60
	movt	r3, :upper16:_aBytesPerPixels
.Ltmp124:
	.loc	1 1072 16               @ ../Libraries/Config/GUIDRV_stm32f429i.c:1072:16
	movt	r4, :upper16:_aAddr
.Ltmp125:
	.loc	1 1021 60               @ ../Libraries/Config/GUIDRV_stm32f429i.c:1021:60
	ldr.w	r12, [r3, r0, lsl #2]
	.loc	1 1021 38 is_stmt 0     @ ../Libraries/Config/GUIDRV_stm32f429i.c:1021:38
	movw	r3, :lower16:_aySize
.Ltmp126:
	.loc	1 1072 16 is_stmt 1     @ ../Libraries/Config/GUIDRV_stm32f429i.c:1072:16
	ldr.w	r4, [r4, r0, lsl #2]
.Ltmp127:
	.loc	1 1021 38               @ ../Libraries/Config/GUIDRV_stm32f429i.c:1021:38
	movt	r3, :upper16:_aySize
	ldr.w	lr, [r3, r0, lsl #2]
.Ltmp128:
	.loc	1 1021 16 is_stmt 0     @ ../Libraries/Config/GUIDRV_stm32f429i.c:1021:16
	movw	r3, :lower16:_axSize
	movt	r3, :upper16:_axSize
	ldr.w	r6, [r3, r0, lsl #2]
.Ltmp129:
	.loc	1 0 16                  @ ../Libraries/Config/GUIDRV_stm32f429i.c:0:16
	movw	r3, #45056
	clz	r0, r0
.Ltmp130:
	movt	r3, #16386
	lsrs	r0, r0, #5
.Ltmp131:
	@DEBUG_VALUE: _DMA_Copy:OffLineDst <- 0
	@DEBUG_VALUE: _DMA_Copy:OffLineSrc <- 0
	.loc	1 858 18 is_stmt 1      @ ../Libraries/Config/GUIDRV_stm32f429i.c:858:18
	str	r5, [r3]
.Ltmp132:
	.loc	1 1021 36               @ ../Libraries/Config/GUIDRV_stm32f429i.c:1021:36
	mul	r5, lr, r6
.Ltmp133:
	@DEBUG_VALUE: _GetBufferSize:LayerIndex <- $r0
	.loc	1 346 7                 @ ../Libraries/Config/GUIDRV_stm32f429i.c:346:7
	lsls	r0, r0, #1
.Ltmp134:
	@DEBUG_VALUE: _DMA_Copy:PixelFormat <- $r0
	.loc	1 1021 58               @ ../Libraries/Config/GUIDRV_stm32f429i.c:1021:58
	mul	r5, r5, r12
.Ltmp135:
	@DEBUG_VALUE: _LCD_CopyBuffer:BufferSize <- $r5
	@DEBUG_VALUE: _GetBufferSize:BufferSize <- $r5
	.loc	1 1072 35               @ ../Libraries/Config/GUIDRV_stm32f429i.c:1072:35
	mla	r1, r5, r1, r4
.Ltmp136:
	@DEBUG_VALUE: _LCD_CopyBuffer:AddrSrc <- $r1
	@DEBUG_VALUE: _DMA_Copy:pSrc <- $r1
	.loc	1 859 18                @ ../Libraries/Config/GUIDRV_stm32f429i.c:859:18
	str	r1, [r3, #12]
.Ltmp137:
	@DEBUG_VALUE: _DMA_Copy:xSize <- $r6
	@DEBUG_VALUE: _DMA_Copy:ySize <- $lr
	@DEBUG_VALUE: _DMA_Copy:LayerIndex <- $r0
	.loc	1 1073 35               @ ../Libraries/Config/GUIDRV_stm32f429i.c:1073:35
	mla	r1, r5, r2, r4
.Ltmp138:
	@DEBUG_VALUE: _DMA_Copy:pDst <- $r1
	@DEBUG_VALUE: _LCD_CopyBuffer:AddrDst <- $r1
	.loc	1 860 18                @ ../Libraries/Config/GUIDRV_stm32f429i.c:860:18
	str	r1, [r3, #60]
	@DEBUG_VALUE: _DMA_Copy:xSize <- $r6
	@DEBUG_VALUE: _DMA_Copy:ySize <- $lr
	@DEBUG_VALUE: _DMA_Copy:LayerIndex <- $r0
	movs	r1, #0
.Ltmp139:
	.loc	1 861 18                @ ../Libraries/Config/GUIDRV_stm32f429i.c:861:18
	str	r1, [r3, #16]
	.loc	1 862 18                @ ../Libraries/Config/GUIDRV_stm32f429i.c:862:18
	str	r1, [r3, #64]
	.loc	1 863 18                @ ../Libraries/Config/GUIDRV_stm32f429i.c:863:18
	str	r0, [r3, #28]
	.loc	1 864 39                @ ../Libraries/Config/GUIDRV_stm32f429i.c:864:39
	pkhbt	r0, lr, r6, lsl #16
.Ltmp140:
	.loc	1 864 18 is_stmt 0      @ ../Libraries/Config/GUIDRV_stm32f429i.c:864:18
	str	r0, [r3, #68]
	.loc	1 865 17 is_stmt 1      @ ../Libraries/Config/GUIDRV_stm32f429i.c:865:17
	ldr	r0, [r3]
	orr	r0, r0, #1
	str	r0, [r3]
.Ltmp141:
	.p2align	2
.LBB5_1:                                @ =>This Inner Loop Header: Depth=1
	@DEBUG_VALUE: _LCD_CopyBuffer:BufferSize <- $r5
	@DEBUG_VALUE: _DMA_Copy:ySize <- $lr
	@DEBUG_VALUE: _DMA_Copy:xSize <- $r6
	@DEBUG_VALUE: _LCD_CopyBuffer:IndexDst <- $r2
	.loc	1 869 17                @ ../Libraries/Config/GUIDRV_stm32f429i.c:869:17
	ldr	r0, [r3]
	.loc	1 869 3 is_stmt 0       @ ../Libraries/Config/GUIDRV_stm32f429i.c:869:3
	lsls	r0, r0, #31
	bne	.LBB5_1
.Ltmp142:
@ %bb.2:
	@DEBUG_VALUE: _LCD_CopyBuffer:BufferSize <- $r5
	@DEBUG_VALUE: _LCD_CopyBuffer:IndexDst <- $r2
	.loc	1 1075 1 is_stmt 1      @ ../Libraries/Config/GUIDRV_stm32f429i.c:1075:1
	pop	{r4, r5, r6, pc}
.Ltmp143:
.Lfunc_end5:
	.size	_LCD_CopyBuffer, .Lfunc_end5-_LCD_CopyBuffer
	.cfi_endproc
	.cantunwind
	.fnend
                                        @ -- End function
	.section	.text._LCD_CopyRect,"ax",%progbits
	.p2align	1               @ -- Begin function _LCD_CopyRect
	.type	_LCD_CopyRect,%function
	.code	16                      @ @_LCD_CopyRect
	.thumb_func
_LCD_CopyRect:
.Lfunc_begin6:
	.loc	1 1081 0                @ ../Libraries/Config/GUIDRV_stm32f429i.c:1081:0
	.fnstart
	.cfi_startproc
@ %bb.0:
	.save	{r4, r5, r6, r7, lr}
	push	{r4, r5, r6, r7, lr}
	.cfi_def_cfa_offset 20
	.cfi_offset lr, -4
	.cfi_offset r7, -8
	.cfi_offset r6, -12
	.cfi_offset r5, -16
	.cfi_offset r4, -20
	@DEBUG_VALUE: _LCD_CopyRect:LayerIndex <- $r0
	@DEBUG_VALUE: _LCD_CopyRect:LayerIndex <- $r0
	@DEBUG_VALUE: _LCD_CopyRect:x0 <- $r1
	@DEBUG_VALUE: _LCD_CopyRect:x0 <- $r1
	@DEBUG_VALUE: _LCD_CopyRect:y0 <- $r2
	@DEBUG_VALUE: _LCD_CopyRect:y0 <- $r2
	@DEBUG_VALUE: _LCD_CopyRect:x1 <- $r3
	@DEBUG_VALUE: _LCD_CopyRect:x1 <- $r3
	@DEBUG_VALUE: _LCD_CopyRect:y1 <- [DW_OP_plus_uconst 20] [$sp+0]
	@DEBUG_VALUE: _LCD_CopyRect:xSize <- [DW_OP_plus_uconst 24] [$sp+0]
	@DEBUG_VALUE: _LCD_CopyRect:ySize <- [DW_OP_plus_uconst 28] [$sp+0]
.Ltmp144:
	@DEBUG_VALUE: _GetBufferSize:LayerIndex <- $r0
	@DEBUG_VALUE: _DMA_Copy:LayerIndex <- $r0
	@DEBUG_VALUE: _GetPixelformat:LayerIndex <- $r0
	@DEBUG_VALUE: _GetPixelformat:LayerIndex <- $r0
	.loc	1 1085 47 prologue_end  @ ../Libraries/Config/GUIDRV_stm32f429i.c:1085:47
	movw	r12, :lower16:_aBufferIndex
.Ltmp145:
	.loc	1 1021 38               @ ../Libraries/Config/GUIDRV_stm32f429i.c:1021:38
	movw	r4, :lower16:_aySize
	mov.w	r7, #512
.Ltmp146:
	@DEBUG_VALUE: _DMA_Copy:ySize <- [DW_OP_plus_uconst 28] [$sp+0]
	@DEBUG_VALUE: _DMA_Copy:xSize <- [DW_OP_plus_uconst 24] [$sp+0]
	@DEBUG_VALUE: _DMA_Copy:LayerIndex <- $r0
	.loc	1 1085 47               @ ../Libraries/Config/GUIDRV_stm32f429i.c:1085:47
	movt	r12, :upper16:_aBufferIndex
.Ltmp147:
	.loc	1 1021 38               @ ../Libraries/Config/GUIDRV_stm32f429i.c:1021:38
	movt	r4, :upper16:_aySize
.Ltmp148:
	.loc	1 1085 47               @ ../Libraries/Config/GUIDRV_stm32f429i.c:1085:47
	ldr.w	lr, [r12, r0, lsl #2]
	@DEBUG_VALUE: _GetBufferSize:LayerIndex <- $r0
.Ltmp149:
	.loc	1 1021 60               @ ../Libraries/Config/GUIDRV_stm32f429i.c:1021:60
	movw	r12, :lower16:_aBytesPerPixels
	.loc	1 1021 38 is_stmt 0     @ ../Libraries/Config/GUIDRV_stm32f429i.c:1021:38
	ldr.w	r6, [r4, r0, lsl #2]
	.loc	1 1021 16               @ ../Libraries/Config/GUIDRV_stm32f429i.c:1021:16
	movw	r4, :lower16:_axSize
	.loc	1 1021 60               @ ../Libraries/Config/GUIDRV_stm32f429i.c:1021:60
	movt	r12, :upper16:_aBytesPerPixels
	.loc	1 1021 16               @ ../Libraries/Config/GUIDRV_stm32f429i.c:1021:16
	movt	r4, :upper16:_axSize
	.loc	1 1021 60               @ ../Libraries/Config/GUIDRV_stm32f429i.c:1021:60
	ldr.w	r5, [r12, r0, lsl #2]
	movw	r12, #45056
	.loc	1 1021 16               @ ../Libraries/Config/GUIDRV_stm32f429i.c:1021:16
	ldr.w	r4, [r4, r0, lsl #2]
	movt	r12, #16386
.Ltmp150:
	.loc	1 858 18 is_stmt 1      @ ../Libraries/Config/GUIDRV_stm32f429i.c:858:18
	str.w	r7, [r12]
.Ltmp151:
	.loc	1 1085 13               @ ../Libraries/Config/GUIDRV_stm32f429i.c:1085:13
	movw	r7, :lower16:_aAddr
.Ltmp152:
	.loc	1 1021 36               @ ../Libraries/Config/GUIDRV_stm32f429i.c:1021:36
	muls	r6, r4, r6
.Ltmp153:
	@DEBUG_VALUE: _GetBufferSize:LayerIndex <- $r0
	.loc	1 1085 101              @ ../Libraries/Config/GUIDRV_stm32f429i.c:1085:101
	mla	r1, r4, r2, r1
.Ltmp154:
	.loc	1 1085 13 is_stmt 0     @ ../Libraries/Config/GUIDRV_stm32f429i.c:1085:13
	movt	r7, :upper16:_aAddr
.Ltmp155:
	.loc	1 1021 58 is_stmt 1     @ ../Libraries/Config/GUIDRV_stm32f429i.c:1021:58
	muls	r6, r5, r6
.Ltmp156:
	@DEBUG_VALUE: _LCD_CopyRect:BufferSize <- $r6
	@DEBUG_VALUE: _GetBufferSize:BufferSize <- $r6
	.loc	1 1085 13               @ ../Libraries/Config/GUIDRV_stm32f429i.c:1085:13
	ldr.w	r7, [r7, r0, lsl #2]
	clz	r0, r0
.Ltmp157:
	.loc	1 0 13 is_stmt 0        @ ../Libraries/Config/GUIDRV_stm32f429i.c:0:13
	lsrs	r0, r0, #5
.Ltmp158:
	@DEBUG_VALUE: _DMA_Copy:OffLineDst <- 0
	.loc	1 1085 32               @ ../Libraries/Config/GUIDRV_stm32f429i.c:1085:32
	mla	r7, r6, lr, r7
.Ltmp159:
	.loc	1 346 7 is_stmt 1       @ ../Libraries/Config/GUIDRV_stm32f429i.c:346:7
	lsls	r0, r0, #1
.Ltmp160:
	@DEBUG_VALUE: _DMA_Copy:PixelFormat <- $r0
	.loc	1 1085 73               @ ../Libraries/Config/GUIDRV_stm32f429i.c:1085:73
	mla	r1, r1, r5, r7
.Ltmp161:
	@DEBUG_VALUE: _LCD_CopyRect:AddrSrc <- $r1
	@DEBUG_VALUE: _DMA_Copy:pSrc <- $r1
	.loc	1 859 18                @ ../Libraries/Config/GUIDRV_stm32f429i.c:859:18
	str.w	r1, [r12, #12]
	@DEBUG_VALUE: _DMA_Copy:ySize <- [DW_OP_plus_uconst 28] [$sp+0]
	@DEBUG_VALUE: _DMA_Copy:xSize <- [DW_OP_plus_uconst 24] [$sp+0]
.Ltmp162:
	@DEBUG_VALUE: _DMA_Copy:LayerIndex <- $r0
	.loc	1 0 18 is_stmt 0        @ ../Libraries/Config/GUIDRV_stm32f429i.c:0:18
	ldr	r1, [sp, #20]
.Ltmp163:
	.loc	1 1086 101 is_stmt 1    @ ../Libraries/Config/GUIDRV_stm32f429i.c:1086:101
	mla	r1, r4, r1, r3
	.loc	1 1086 73 is_stmt 0     @ ../Libraries/Config/GUIDRV_stm32f429i.c:1086:73
	mla	r1, r1, r5, r7
.Ltmp164:
	@DEBUG_VALUE: _LCD_CopyRect:AddrDst <- $r1
	@DEBUG_VALUE: _DMA_Copy:pDst <- $r1
	.loc	1 860 18 is_stmt 1      @ ../Libraries/Config/GUIDRV_stm32f429i.c:860:18
	str.w	r1, [r12, #60]
	@DEBUG_VALUE: _DMA_Copy:ySize <- [DW_OP_plus_uconst 28] [$sp+0]
	@DEBUG_VALUE: _DMA_Copy:xSize <- [DW_OP_plus_uconst 24] [$sp+0]
	@DEBUG_VALUE: _DMA_Copy:LayerIndex <- $r0
	ldr	r1, [sp, #24]
.Ltmp165:
	.loc	1 1087 93               @ ../Libraries/Config/GUIDRV_stm32f429i.c:1087:93
	subs	r2, r4, r1
.Ltmp166:
	@DEBUG_VALUE: _DMA_Copy:OffLineSrc <- $r2
	.loc	1 861 18                @ ../Libraries/Config/GUIDRV_stm32f429i.c:861:18
	str.w	r2, [r12, #16]
	@DEBUG_VALUE: _DMA_Copy:ySize <- [DW_OP_plus_uconst 28] [$sp+0]
	@DEBUG_VALUE: _DMA_Copy:xSize <- [DW_OP_plus_uconst 24] [$sp+0]
	@DEBUG_VALUE: _DMA_Copy:LayerIndex <- $r0
	movs	r2, #0
.Ltmp167:
	.loc	1 862 18                @ ../Libraries/Config/GUIDRV_stm32f429i.c:862:18
	str.w	r2, [r12, #64]
	.loc	1 863 18                @ ../Libraries/Config/GUIDRV_stm32f429i.c:863:18
	str.w	r0, [r12, #28]
	ldrh.w	r0, [sp, #28]
.Ltmp168:
	.loc	1 864 39                @ ../Libraries/Config/GUIDRV_stm32f429i.c:864:39
	orr.w	r0, r0, r1, lsl #16
	.loc	1 864 18 is_stmt 0      @ ../Libraries/Config/GUIDRV_stm32f429i.c:864:18
	str.w	r0, [r12, #68]
	.loc	1 865 17 is_stmt 1      @ ../Libraries/Config/GUIDRV_stm32f429i.c:865:17
	ldr.w	r0, [r12]
	orr	r0, r0, #1
	str.w	r0, [r12]
.Ltmp169:
	.p2align	2
.LBB6_1:                                @ =>This Inner Loop Header: Depth=1
	@DEBUG_VALUE: _LCD_CopyRect:BufferSize <- $r6
	@DEBUG_VALUE: _DMA_Copy:xSize <- [DW_OP_plus_uconst 24] [$sp+0]
	@DEBUG_VALUE: _DMA_Copy:ySize <- [DW_OP_plus_uconst 28] [$sp+0]
	@DEBUG_VALUE: _LCD_CopyRect:ySize <- [DW_OP_plus_uconst 28] [$sp+0]
	@DEBUG_VALUE: _LCD_CopyRect:xSize <- [DW_OP_plus_uconst 24] [$sp+0]
	@DEBUG_VALUE: _LCD_CopyRect:y1 <- [DW_OP_plus_uconst 20] [$sp+0]
	@DEBUG_VALUE: _LCD_CopyRect:x1 <- $r3
	.loc	1 869 17                @ ../Libraries/Config/GUIDRV_stm32f429i.c:869:17
	ldr.w	r0, [r12]
	.loc	1 869 3 is_stmt 0       @ ../Libraries/Config/GUIDRV_stm32f429i.c:869:3
	lsls	r0, r0, #31
	bne	.LBB6_1
.Ltmp170:
@ %bb.2:
	@DEBUG_VALUE: _LCD_CopyRect:BufferSize <- $r6
	@DEBUG_VALUE: _LCD_CopyRect:ySize <- [DW_OP_plus_uconst 28] [$sp+0]
	@DEBUG_VALUE: _LCD_CopyRect:xSize <- [DW_OP_plus_uconst 24] [$sp+0]
	@DEBUG_VALUE: _LCD_CopyRect:y1 <- [DW_OP_plus_uconst 20] [$sp+0]
	@DEBUG_VALUE: _LCD_CopyRect:x1 <- $r3
	.loc	1 1088 1 is_stmt 1      @ ../Libraries/Config/GUIDRV_stm32f429i.c:1088:1
	pop	{r4, r5, r6, r7, pc}
.Ltmp171:
.Lfunc_end6:
	.size	_LCD_CopyRect, .Lfunc_end6-_LCD_CopyRect
	.cfi_endproc
	.cantunwind
	.fnend
                                        @ -- End function
	.section	.text._LCD_FillRect,"ax",%progbits
	.p2align	1               @ -- Begin function _LCD_FillRect
	.type	_LCD_FillRect,%function
	.code	16                      @ @_LCD_FillRect
	.thumb_func
_LCD_FillRect:
.Lfunc_begin7:
	.loc	1 1094 0                @ ../Libraries/Config/GUIDRV_stm32f429i.c:1094:0
	.fnstart
	.cfi_startproc
@ %bb.0:
	.save	{r4, r5, r6, r7, r8, r9, lr}
	push.w	{r4, r5, r6, r7, r8, r9, lr}
	.cfi_def_cfa_offset 28
	.cfi_offset lr, -4
	.cfi_offset r9, -8
	.cfi_offset r8, -12
	.cfi_offset r7, -16
	.cfi_offset r6, -20
	.cfi_offset r5, -24
	.cfi_offset r4, -28
	.pad	#4
	sub	sp, #4
	.cfi_def_cfa_offset 32
	@DEBUG_VALUE: _LCD_FillRect:LayerIndex <- $r0
	@DEBUG_VALUE: _LCD_FillRect:x0 <- $r1
	@DEBUG_VALUE: _LCD_FillRect:y0 <- $r2
	@DEBUG_VALUE: _LCD_FillRect:x1 <- $r3
.Ltmp172:
	@DEBUG_VALUE: _GetBufferSize:LayerIndex <- $r0
	@DEBUG_VALUE: _DMA_Fill:LayerIndex <- $r0
	@DEBUG_VALUE: _GetPixelformat:LayerIndex <- $r0
	ldrd	r8, r7, [sp, #32]
	mov	r9, r3
	mov	r5, r2
	mov	r6, r1
	mov	r4, r0
.Ltmp173:
	@DEBUG_VALUE: _GetPixelformat:LayerIndex <- $r4
	@DEBUG_VALUE: _DMA_Fill:LayerIndex <- $r4
	@DEBUG_VALUE: _GetBufferSize:LayerIndex <- $r4
	@DEBUG_VALUE: _LCD_FillRect:PixelIndex <- [DW_OP_plus_uconst 36] [$sp+0]
	@DEBUG_VALUE: _LCD_FillRect:y1 <- [DW_OP_plus_uconst 32] [$sp+0]
	@DEBUG_VALUE: _LCD_FillRect:x1 <- $r9
	@DEBUG_VALUE: _LCD_FillRect:y0 <- $r5
	@DEBUG_VALUE: _LCD_FillRect:x0 <- $r6
	@DEBUG_VALUE: _LCD_FillRect:LayerIndex <- $r4
	@DEBUG_VALUE: _DMA_Fill:ColorIndex <- $r7
	.loc	1 1098 7 prologue_end   @ ../Libraries/Config/GUIDRV_stm32f429i.c:1098:7
	bl	GUI_GetDrawMode
.Ltmp174:
	.loc	1 1098 7 is_stmt 0      @ ../Libraries/Config/GUIDRV_stm32f429i.c:1098:7
	cmp	r0, #1
	bne	.LBB7_2
.Ltmp175:
@ %bb.1:
	@DEBUG_VALUE: _LCD_FillRect:LayerIndex <- $r4
	@DEBUG_VALUE: _LCD_FillRect:x0 <- $r6
	@DEBUG_VALUE: _LCD_FillRect:y0 <- $r5
	@DEBUG_VALUE: _LCD_FillRect:x1 <- $r9
	@DEBUG_VALUE: _LCD_FillRect:y1 <- [DW_OP_plus_uconst 32] [$sp+0]
	@DEBUG_VALUE: _LCD_FillRect:PixelIndex <- [DW_OP_plus_uconst 36] [$sp+0]
	.loc	1 1099 5 is_stmt 1      @ ../Libraries/Config/GUIDRV_stm32f429i.c:1099:5
	mov	r0, r4
	movs	r1, #25
	movs	r2, #0
	bl	LCD_SetDevFunc
	.loc	1 1100 5                @ ../Libraries/Config/GUIDRV_stm32f429i.c:1100:5
	mov	r0, r6
	mov	r1, r5
	mov	r2, r9
	mov	r3, r8
	bl	LCD_FillRect
	.loc	1 1101 5                @ ../Libraries/Config/GUIDRV_stm32f429i.c:1101:5
	movw	r2, :lower16:_LCD_FillRect
	mov	r0, r4
	movs	r1, #25
	movt	r2, :upper16:_LCD_FillRect
	add	sp, #4
.Ltmp176:
	pop.w	{r4, r5, r6, r7, r8, r9, lr}
.Ltmp177:
	b	LCD_SetDevFunc
.Ltmp178:
.LBB7_2:
	@DEBUG_VALUE: _DMA_Fill:ColorIndex <- $r7
	@DEBUG_VALUE: _LCD_FillRect:LayerIndex <- $r4
	@DEBUG_VALUE: _LCD_FillRect:x0 <- $r6
	@DEBUG_VALUE: _LCD_FillRect:y0 <- $r5
	@DEBUG_VALUE: _LCD_FillRect:x1 <- $r9
	@DEBUG_VALUE: _LCD_FillRect:y1 <- [DW_OP_plus_uconst 32] [$sp+0]
	@DEBUG_VALUE: _LCD_FillRect:PixelIndex <- [DW_OP_plus_uconst 36] [$sp+0]
	@DEBUG_VALUE: _GetBufferSize:LayerIndex <- $r4
	@DEBUG_VALUE: _DMA_Fill:LayerIndex <- $r4
	@DEBUG_VALUE: _GetPixelformat:LayerIndex <- $r4
	.loc	1 1021 60               @ ../Libraries/Config/GUIDRV_stm32f429i.c:1021:60
	movw	r0, :lower16:_aBytesPerPixels
	movw	r3, #512
	movt	r0, :upper16:_aBytesPerPixels
	movt	r3, #3
	ldr.w	r12, [r0, r4, lsl #2]
	.loc	1 1021 16 is_stmt 0     @ ../Libraries/Config/GUIDRV_stm32f429i.c:1021:16
	movw	r0, :lower16:_axSize
	movt	r0, :upper16:_axSize
	ldr.w	r2, [r0, r4, lsl #2]
.Ltmp179:
	.loc	1 1106 49 is_stmt 1     @ ../Libraries/Config/GUIDRV_stm32f429i.c:1106:49
	movw	r0, :lower16:_aBufferIndex
	movt	r0, :upper16:_aBufferIndex
	ldr.w	lr, [r0, r4, lsl #2]
.Ltmp180:
	.loc	1 1021 38               @ ../Libraries/Config/GUIDRV_stm32f429i.c:1021:38
	movw	r0, :lower16:_aySize
	movt	r0, :upper16:_aySize
	ldr.w	r1, [r0, r4, lsl #2]
	movw	r0, #45056
	movt	r0, #16386
.Ltmp181:
	.loc	1 882 18                @ ../Libraries/Config/GUIDRV_stm32f429i.c:882:18
	str	r3, [r0]
.Ltmp182:
	.loc	1 1106 15               @ ../Libraries/Config/GUIDRV_stm32f429i.c:1106:15
	movw	r3, :lower16:_aAddr
	mla	r1, lr, r1, r5
.Ltmp183:
	.loc	1 883 18                @ ../Libraries/Config/GUIDRV_stm32f429i.c:883:18
	str	r7, [r0, #56]
.Ltmp184:
	.loc	1 1106 15               @ ../Libraries/Config/GUIDRV_stm32f429i.c:1106:15
	movt	r3, :upper16:_aAddr
	mla	r1, r1, r2, r6
.Ltmp185:
	@DEBUG_VALUE: _LCD_FillRect:BufferSize <- undef
	@DEBUG_VALUE: _GetBufferSize:BufferSize <- undef
	ldr.w	r3, [r3, r4, lsl #2]
	.loc	1 1106 75 is_stmt 0     @ ../Libraries/Config/GUIDRV_stm32f429i.c:1106:75
	mla	r1, r1, r12, r3
.Ltmp186:
	@DEBUG_VALUE: _LCD_FillRect:AddrDst <- $r1
	@DEBUG_VALUE: _DMA_Fill:pDst <- $r1
	.loc	1 884 18 is_stmt 1      @ ../Libraries/Config/GUIDRV_stm32f429i.c:884:18
	str	r1, [r0, #60]
.Ltmp187:
	.loc	1 1103 16               @ ../Libraries/Config/GUIDRV_stm32f429i.c:1103:16
	sub.w	r1, r9, r6
.Ltmp188:
	.loc	1 1103 21 is_stmt 0     @ ../Libraries/Config/GUIDRV_stm32f429i.c:1103:21
	adds	r1, #1
.Ltmp189:
	@DEBUG_VALUE: _LCD_FillRect:xSize <- $r1
	.loc	1 1107 78 is_stmt 1     @ ../Libraries/Config/GUIDRV_stm32f429i.c:1107:78
	subs	r2, r2, r1
.Ltmp190:
	@DEBUG_VALUE: _DMA_Fill:OffLine <- $r2
	@DEBUG_VALUE: _DMA_Fill:xSize <- $r1
	.loc	1 885 18                @ ../Libraries/Config/GUIDRV_stm32f429i.c:885:18
	str	r2, [r0, #64]
.Ltmp191:
	.loc	1 1021 16               @ ../Libraries/Config/GUIDRV_stm32f429i.c:1021:16
	clz	r2, r4
.Ltmp192:
	lsrs	r2, r2, #5
.Ltmp193:
	.loc	1 346 7                 @ ../Libraries/Config/GUIDRV_stm32f429i.c:346:7
	lsls	r2, r2, #1
.Ltmp194:
	@DEBUG_VALUE: _DMA_Fill:PixelFormat <- $r2
	@DEBUG_VALUE: _DMA_Fill:xSize <- $r1
	.loc	1 886 18                @ ../Libraries/Config/GUIDRV_stm32f429i.c:886:18
	str	r2, [r0, #52]
.Ltmp195:
	.loc	1 1104 16               @ ../Libraries/Config/GUIDRV_stm32f429i.c:1104:16
	rsb.w	r2, r5, #1
.Ltmp196:
	.loc	1 1104 21 is_stmt 0     @ ../Libraries/Config/GUIDRV_stm32f429i.c:1104:21
	add	r2, r8
.Ltmp197:
	@DEBUG_VALUE: _LCD_FillRect:ySize <- $r2
	@DEBUG_VALUE: _DMA_Fill:ySize <- $r2
	.loc	1 887 39 is_stmt 1      @ ../Libraries/Config/GUIDRV_stm32f429i.c:887:39
	pkhbt	r1, r2, r1, lsl #16
.Ltmp198:
	@DEBUG_VALUE: _DMA_Fill:xSize <- $r1
	.loc	1 887 18 is_stmt 0      @ ../Libraries/Config/GUIDRV_stm32f429i.c:887:18
	str	r1, [r0, #68]
	.loc	1 888 17 is_stmt 1      @ ../Libraries/Config/GUIDRV_stm32f429i.c:888:17
	ldr	r1, [r0]
.Ltmp199:
	orr	r1, r1, #1
	str	r1, [r0]
.Ltmp200:
	.p2align	2
.LBB7_3:                                @ =>This Inner Loop Header: Depth=1
	@DEBUG_VALUE: _DMA_Fill:ySize <- $r2
	@DEBUG_VALUE: _LCD_FillRect:ySize <- $r2
	@DEBUG_VALUE: _DMA_Fill:ColorIndex <- $r7
	@DEBUG_VALUE: _LCD_FillRect:LayerIndex <- $r4
	@DEBUG_VALUE: _LCD_FillRect:x0 <- $r6
	@DEBUG_VALUE: _LCD_FillRect:y0 <- $r5
	@DEBUG_VALUE: _LCD_FillRect:x1 <- $r9
	@DEBUG_VALUE: _LCD_FillRect:y1 <- [DW_OP_plus_uconst 32] [$sp+0]
	@DEBUG_VALUE: _LCD_FillRect:PixelIndex <- [DW_OP_plus_uconst 36] [$sp+0]
	@DEBUG_VALUE: _DMA_Fill:LayerIndex <- $r4
	.loc	1 892 17                @ ../Libraries/Config/GUIDRV_stm32f429i.c:892:17
	ldr	r1, [r0]
	.loc	1 892 3 is_stmt 0       @ ../Libraries/Config/GUIDRV_stm32f429i.c:892:3
	lsls	r1, r1, #31
	bne	.LBB7_3
.Ltmp201:
@ %bb.4:
	@DEBUG_VALUE: _LCD_FillRect:ySize <- $r2
	@DEBUG_VALUE: _LCD_FillRect:LayerIndex <- $r4
	@DEBUG_VALUE: _LCD_FillRect:x0 <- $r6
	@DEBUG_VALUE: _LCD_FillRect:y0 <- $r5
	@DEBUG_VALUE: _LCD_FillRect:x1 <- $r9
	@DEBUG_VALUE: _LCD_FillRect:y1 <- [DW_OP_plus_uconst 32] [$sp+0]
	@DEBUG_VALUE: _LCD_FillRect:PixelIndex <- [DW_OP_plus_uconst 36] [$sp+0]
	.loc	1 1109 1 is_stmt 1      @ ../Libraries/Config/GUIDRV_stm32f429i.c:1109:1
	add	sp, #4
.Ltmp202:
	pop.w	{r4, r5, r6, r7, r8, r9, pc}
.Ltmp203:
.Lfunc_end7:
	.size	_LCD_FillRect, .Lfunc_end7-_LCD_FillRect
	.cfi_endproc
	.cantunwind
	.fnend
                                        @ -- End function
	.section	.text._LCD_DrawBitmap8bpp,"ax",%progbits
	.p2align	1               @ -- Begin function _LCD_DrawBitmap8bpp
	.type	_LCD_DrawBitmap8bpp,%function
	.code	16                      @ @_LCD_DrawBitmap8bpp
	.thumb_func
_LCD_DrawBitmap8bpp:
.Lfunc_begin8:
	.loc	1 1131 0                @ ../Libraries/Config/GUIDRV_stm32f429i.c:1131:0
	.fnstart
	.cfi_startproc
@ %bb.0:
	.save	{r4, r5, r6, r7, lr}
	push	{r4, r5, r6, r7, lr}
	.cfi_def_cfa_offset 20
	.cfi_offset lr, -4
	.cfi_offset r7, -8
	.cfi_offset r6, -12
	.cfi_offset r5, -16
	.cfi_offset r4, -20
	@DEBUG_VALUE: _LCD_DrawBitmap8bpp:LayerIndex <- $r0
	@DEBUG_VALUE: _LCD_DrawBitmap8bpp:LayerIndex <- $r0
	@DEBUG_VALUE: _LCD_DrawBitmap8bpp:x <- $r1
	@DEBUG_VALUE: _LCD_DrawBitmap8bpp:x <- $r1
	@DEBUG_VALUE: _LCD_DrawBitmap8bpp:y <- $r2
	@DEBUG_VALUE: _LCD_DrawBitmap8bpp:y <- $r2
	@DEBUG_VALUE: _LCD_DrawBitmap8bpp:p <- $r3
	@DEBUG_VALUE: _LCD_DrawBitmap8bpp:p <- $r3
	@DEBUG_VALUE: _LCD_DrawBitmap8bpp:xSize <- [DW_OP_plus_uconst 20] [$sp+0]
	@DEBUG_VALUE: _LCD_DrawBitmap8bpp:ySize <- [DW_OP_plus_uconst 24] [$sp+0]
	@DEBUG_VALUE: _LCD_DrawBitmap8bpp:BytesPerLine <- [DW_OP_plus_uconst 28] [$sp+0]
.Ltmp204:
	@DEBUG_VALUE: _GetBufferSize:LayerIndex <- $r0
	@DEBUG_VALUE: _GetBufferSize:LayerIndex <- $r0
	@DEBUG_VALUE: _GetPixelformat:LayerIndex <- $r0
	@DEBUG_VALUE: _GetPixelformat:LayerIndex <- $r0
	@DEBUG_VALUE: _DMA_DrawBitmapL8:pSrc <- $r3
	.loc	1 1137 47 prologue_end  @ ../Libraries/Config/GUIDRV_stm32f429i.c:1137:47
	movw	r4, :lower16:_aBufferIndex
.Ltmp205:
	.loc	1 1021 60               @ ../Libraries/Config/GUIDRV_stm32f429i.c:1021:60
	movw	r12, :lower16:_aBytesPerPixels
	mov.w	r7, #66048
.Ltmp206:
	@DEBUG_VALUE: _DMA_DrawBitmapL8:ySize <- [DW_OP_plus_uconst 24] [$sp+0]
	@DEBUG_VALUE: _DMA_DrawBitmapL8:xSize <- [DW_OP_plus_uconst 20] [$sp+0]
	@DEBUG_VALUE: _DMA_DrawBitmapL8:pSrc <- $r3
	.loc	1 1137 47               @ ../Libraries/Config/GUIDRV_stm32f429i.c:1137:47
	movt	r4, :upper16:_aBufferIndex
.Ltmp207:
	.loc	1 1021 60               @ ../Libraries/Config/GUIDRV_stm32f429i.c:1021:60
	movt	r12, :upper16:_aBytesPerPixels
.Ltmp208:
	.loc	1 1137 47               @ ../Libraries/Config/GUIDRV_stm32f429i.c:1137:47
	ldr.w	r6, [r4, r0, lsl #2]
.Ltmp209:
	.loc	1 1021 38               @ ../Libraries/Config/GUIDRV_stm32f429i.c:1021:38
	movw	r4, :lower16:_aySize
	.loc	1 1021 60 is_stmt 0     @ ../Libraries/Config/GUIDRV_stm32f429i.c:1021:60
	ldr.w	lr, [r12, r0, lsl #2]
	.loc	1 1021 16               @ ../Libraries/Config/GUIDRV_stm32f429i.c:1021:16
	movw	r12, :lower16:_axSize
	.loc	1 1021 38               @ ../Libraries/Config/GUIDRV_stm32f429i.c:1021:38
	movt	r4, :upper16:_aySize
	@DEBUG_VALUE: _GetBufferSize:LayerIndex <- $r0
	.loc	1 1021 16               @ ../Libraries/Config/GUIDRV_stm32f429i.c:1021:16
	movt	r12, :upper16:_axSize
	.loc	1 1021 38               @ ../Libraries/Config/GUIDRV_stm32f429i.c:1021:38
	ldr.w	r4, [r4, r0, lsl #2]
	.loc	1 1021 16               @ ../Libraries/Config/GUIDRV_stm32f429i.c:1021:16
	ldr.w	r5, [r12, r0, lsl #2]
	movw	r12, #45056
	movt	r12, #16386
	mla	r2, r6, r4, r2
.Ltmp210:
	.loc	1 1033 18 is_stmt 1     @ ../Libraries/Config/GUIDRV_stm32f429i.c:1033:18
	str.w	r7, [r12]
	.loc	1 1037 18               @ ../Libraries/Config/GUIDRV_stm32f429i.c:1037:18
	str.w	r3, [r12, #12]
	mla	r1, r2, r5, r1
.Ltmp211:
	@DEBUG_VALUE: _LCD_DrawBitmap8bpp:BufferSize <- undef
	@DEBUG_VALUE: _GetBufferSize:BufferSize <- undef
	.loc	1 1137 13               @ ../Libraries/Config/GUIDRV_stm32f429i.c:1137:13
	movw	r2, :lower16:_aAddr
	movt	r2, :upper16:_aAddr
	ldr.w	r2, [r2, r0, lsl #2]
	clz	r0, r0
.Ltmp212:
	.loc	1 0 13 is_stmt 0        @ ../Libraries/Config/GUIDRV_stm32f429i.c:0:13
	lsrs	r0, r0, #5
	.loc	1 1137 73               @ ../Libraries/Config/GUIDRV_stm32f429i.c:1137:73
	mla	r1, r1, lr, r2
.Ltmp213:
	@DEBUG_VALUE: _LCD_DrawBitmap8bpp:AddrDst <- $r1
	@DEBUG_VALUE: _DMA_DrawBitmapL8:pDst <- $r1
	.loc	1 0 73                  @ ../Libraries/Config/GUIDRV_stm32f429i.c:0:73
	ldr	r2, [sp, #28]
.Ltmp214:
	.loc	1 346 7 is_stmt 1       @ ../Libraries/Config/GUIDRV_stm32f429i.c:346:7
	lsls	r0, r0, #1
.Ltmp215:
	@DEBUG_VALUE: _DMA_DrawBitmapL8:PixelFormatDst <- $r0
	@DEBUG_VALUE: _LCD_DrawBitmap8bpp:PixelFormat <- $r0
	.loc	1 1038 18               @ ../Libraries/Config/GUIDRV_stm32f429i.c:1038:18
	str.w	r1, [r12, #60]
	@DEBUG_VALUE: _DMA_DrawBitmapL8:ySize <- [DW_OP_plus_uconst 24] [$sp+0]
	@DEBUG_VALUE: _DMA_DrawBitmapL8:xSize <- [DW_OP_plus_uconst 20] [$sp+0]
	ldr	r1, [sp, #20]
.Ltmp216:
	.loc	1 1138 29               @ ../Libraries/Config/GUIDRV_stm32f429i.c:1138:29
	subs	r2, r2, r1
.Ltmp217:
	@DEBUG_VALUE: _LCD_DrawBitmap8bpp:OffLineSrc <- $r2
	@DEBUG_VALUE: _DMA_DrawBitmapL8:OffSrc <- $r2
	.loc	1 1042 18               @ ../Libraries/Config/GUIDRV_stm32f429i.c:1042:18
	str.w	r2, [r12, #16]
.Ltmp218:
	@DEBUG_VALUE: _DMA_DrawBitmapL8:ySize <- [DW_OP_plus_uconst 24] [$sp+0]
	@DEBUG_VALUE: _DMA_DrawBitmapL8:xSize <- [DW_OP_plus_uconst 20] [$sp+0]
	.loc	1 1139 36               @ ../Libraries/Config/GUIDRV_stm32f429i.c:1139:36
	subs	r2, r5, r1
.Ltmp219:
	@DEBUG_VALUE: _LCD_DrawBitmap8bpp:OffLineDst <- $r2
	@DEBUG_VALUE: _DMA_DrawBitmapL8:OffDst <- $r2
	.loc	1 1043 18               @ ../Libraries/Config/GUIDRV_stm32f429i.c:1043:18
	str.w	r2, [r12, #64]
	@DEBUG_VALUE: _DMA_DrawBitmapL8:ySize <- [DW_OP_plus_uconst 24] [$sp+0]
	@DEBUG_VALUE: _DMA_DrawBitmapL8:xSize <- [DW_OP_plus_uconst 20] [$sp+0]
	movs	r2, #5
.Ltmp220:
	.loc	1 1047 18               @ ../Libraries/Config/GUIDRV_stm32f429i.c:1047:18
	str.w	r2, [r12, #28]
	.loc	1 1048 18               @ ../Libraries/Config/GUIDRV_stm32f429i.c:1048:18
	str.w	r0, [r12, #52]
	@DEBUG_VALUE: _DMA_DrawBitmapL8:ySize <- [DW_OP_plus_uconst 24] [$sp+0]
	@DEBUG_VALUE: _DMA_DrawBitmapL8:xSize <- [DW_OP_plus_uconst 20] [$sp+0]
	ldr	r0, [sp, #24]
.Ltmp221:
	.loc	1 1052 39               @ ../Libraries/Config/GUIDRV_stm32f429i.c:1052:39
	orr.w	r0, r0, r1, lsl #16
	.loc	1 1052 18 is_stmt 0     @ ../Libraries/Config/GUIDRV_stm32f429i.c:1052:18
	str.w	r0, [r12, #68]
	.loc	1 1056 17 is_stmt 1     @ ../Libraries/Config/GUIDRV_stm32f429i.c:1056:17
	ldr.w	r0, [r12]
	orr	r0, r0, #1
	str.w	r0, [r12]
	.p2align	2
.LBB8_1:                                @ =>This Inner Loop Header: Depth=1
	@DEBUG_VALUE: _DMA_DrawBitmapL8:xSize <- [DW_OP_plus_uconst 20] [$sp+0]
	@DEBUG_VALUE: _DMA_DrawBitmapL8:ySize <- [DW_OP_plus_uconst 24] [$sp+0]
	@DEBUG_VALUE: _DMA_DrawBitmapL8:pSrc <- $r3
	@DEBUG_VALUE: _LCD_DrawBitmap8bpp:BytesPerLine <- [DW_OP_plus_uconst 28] [$sp+0]
	@DEBUG_VALUE: _LCD_DrawBitmap8bpp:ySize <- [DW_OP_plus_uconst 24] [$sp+0]
	@DEBUG_VALUE: _LCD_DrawBitmap8bpp:xSize <- [DW_OP_plus_uconst 20] [$sp+0]
	@DEBUG_VALUE: _LCD_DrawBitmap8bpp:p <- $r3
	.loc	1 1060 17               @ ../Libraries/Config/GUIDRV_stm32f429i.c:1060:17
	ldr.w	r0, [r12]
	.loc	1 1060 3 is_stmt 0      @ ../Libraries/Config/GUIDRV_stm32f429i.c:1060:3
	lsls	r0, r0, #31
	bne	.LBB8_1
.Ltmp222:
@ %bb.2:
	@DEBUG_VALUE: _LCD_DrawBitmap8bpp:BytesPerLine <- [DW_OP_plus_uconst 28] [$sp+0]
	@DEBUG_VALUE: _LCD_DrawBitmap8bpp:ySize <- [DW_OP_plus_uconst 24] [$sp+0]
	@DEBUG_VALUE: _LCD_DrawBitmap8bpp:xSize <- [DW_OP_plus_uconst 20] [$sp+0]
	@DEBUG_VALUE: _LCD_DrawBitmap8bpp:p <- $r3
	.loc	1 1142 1 is_stmt 1      @ ../Libraries/Config/GUIDRV_stm32f429i.c:1142:1
	pop	{r4, r5, r6, r7, pc}
.Ltmp223:
.Lfunc_end8:
	.size	_LCD_DrawBitmap8bpp, .Lfunc_end8-_LCD_DrawBitmap8bpp
	.cfi_endproc
	.cantunwind
	.fnend
                                        @ -- End function
	.section	.text._LCD_DrawBitmap16bpp,"ax",%progbits
	.p2align	1               @ -- Begin function _LCD_DrawBitmap16bpp
	.type	_LCD_DrawBitmap16bpp,%function
	.code	16                      @ @_LCD_DrawBitmap16bpp
	.thumb_func
_LCD_DrawBitmap16bpp:
.Lfunc_begin9:
	.loc	1 1115 0                @ ../Libraries/Config/GUIDRV_stm32f429i.c:1115:0
	.fnstart
	.cfi_startproc
@ %bb.0:
	.save	{r4, r5, r6, r7, lr}
	push	{r4, r5, r6, r7, lr}
	.cfi_def_cfa_offset 20
	.cfi_offset lr, -4
	.cfi_offset r7, -8
	.cfi_offset r6, -12
	.cfi_offset r5, -16
	.cfi_offset r4, -20
	@DEBUG_VALUE: _LCD_DrawBitmap16bpp:LayerIndex <- $r0
	@DEBUG_VALUE: _LCD_DrawBitmap16bpp:LayerIndex <- $r0
	@DEBUG_VALUE: _LCD_DrawBitmap16bpp:x <- $r1
	@DEBUG_VALUE: _LCD_DrawBitmap16bpp:x <- $r1
	@DEBUG_VALUE: _LCD_DrawBitmap16bpp:y <- $r2
	@DEBUG_VALUE: _LCD_DrawBitmap16bpp:y <- $r2
	@DEBUG_VALUE: _LCD_DrawBitmap16bpp:p <- $r3
	@DEBUG_VALUE: _LCD_DrawBitmap16bpp:p <- $r3
	@DEBUG_VALUE: _LCD_DrawBitmap16bpp:xSize <- [DW_OP_plus_uconst 20] [$sp+0]
	@DEBUG_VALUE: _LCD_DrawBitmap16bpp:ySize <- [DW_OP_plus_uconst 24] [$sp+0]
	@DEBUG_VALUE: _LCD_DrawBitmap16bpp:BytesPerLine <- [DW_OP_plus_uconst 28] [$sp+0]
.Ltmp224:
	@DEBUG_VALUE: _GetBufferSize:LayerIndex <- $r0
	@DEBUG_VALUE: _GetBufferSize:LayerIndex <- $r0
	@DEBUG_VALUE: _DMA_Copy:LayerIndex <- $r0
	@DEBUG_VALUE: _DMA_Copy:pSrc <- $r3
	@DEBUG_VALUE: _GetPixelformat:LayerIndex <- $r0
	@DEBUG_VALUE: _GetPixelformat:LayerIndex <- $r0
	.loc	1 1120 47 prologue_end  @ ../Libraries/Config/GUIDRV_stm32f429i.c:1120:47
	movw	r4, :lower16:_aBufferIndex
.Ltmp225:
	.loc	1 1021 60               @ ../Libraries/Config/GUIDRV_stm32f429i.c:1021:60
	movw	r12, :lower16:_aBytesPerPixels
	mov.w	r7, #512
.Ltmp226:
	@DEBUG_VALUE: _DMA_Copy:ySize <- [DW_OP_plus_uconst 24] [$sp+0]
	@DEBUG_VALUE: _DMA_Copy:xSize <- [DW_OP_plus_uconst 20] [$sp+0]
	@DEBUG_VALUE: _DMA_Copy:pSrc <- $r3
	@DEBUG_VALUE: _DMA_Copy:LayerIndex <- $r0
	.loc	1 1120 47               @ ../Libraries/Config/GUIDRV_stm32f429i.c:1120:47
	movt	r4, :upper16:_aBufferIndex
.Ltmp227:
	.loc	1 1021 60               @ ../Libraries/Config/GUIDRV_stm32f429i.c:1021:60
	movt	r12, :upper16:_aBytesPerPixels
.Ltmp228:
	.loc	1 1120 47               @ ../Libraries/Config/GUIDRV_stm32f429i.c:1120:47
	ldr.w	r6, [r4, r0, lsl #2]
.Ltmp229:
	.loc	1 1021 38               @ ../Libraries/Config/GUIDRV_stm32f429i.c:1021:38
	movw	r4, :lower16:_aySize
	.loc	1 1021 60 is_stmt 0     @ ../Libraries/Config/GUIDRV_stm32f429i.c:1021:60
	ldr.w	lr, [r12, r0, lsl #2]
	.loc	1 1021 16               @ ../Libraries/Config/GUIDRV_stm32f429i.c:1021:16
	movw	r12, :lower16:_axSize
	.loc	1 1021 38               @ ../Libraries/Config/GUIDRV_stm32f429i.c:1021:38
	movt	r4, :upper16:_aySize
	@DEBUG_VALUE: _GetBufferSize:LayerIndex <- $r0
	.loc	1 1021 16               @ ../Libraries/Config/GUIDRV_stm32f429i.c:1021:16
	movt	r12, :upper16:_axSize
	.loc	1 1021 38               @ ../Libraries/Config/GUIDRV_stm32f429i.c:1021:38
	ldr.w	r4, [r4, r0, lsl #2]
	.loc	1 1021 16               @ ../Libraries/Config/GUIDRV_stm32f429i.c:1021:16
	ldr.w	r5, [r12, r0, lsl #2]
	movw	r12, #45056
	movt	r12, #16386
	mla	r2, r6, r4, r2
.Ltmp230:
	.loc	1 858 18 is_stmt 1      @ ../Libraries/Config/GUIDRV_stm32f429i.c:858:18
	str.w	r7, [r12]
	.loc	1 859 18                @ ../Libraries/Config/GUIDRV_stm32f429i.c:859:18
	str.w	r3, [r12, #12]
	mla	r1, r2, r5, r1
.Ltmp231:
	@DEBUG_VALUE: _LCD_DrawBitmap16bpp:BufferSize <- undef
	@DEBUG_VALUE: _GetBufferSize:BufferSize <- undef
	.loc	1 1120 13               @ ../Libraries/Config/GUIDRV_stm32f429i.c:1120:13
	movw	r2, :lower16:_aAddr
	movt	r2, :upper16:_aAddr
	ldr.w	r2, [r2, r0, lsl #2]
	clz	r0, r0
.Ltmp232:
	.loc	1 0 13 is_stmt 0        @ ../Libraries/Config/GUIDRV_stm32f429i.c:0:13
	lsrs	r0, r0, #5
	.loc	1 1120 73               @ ../Libraries/Config/GUIDRV_stm32f429i.c:1120:73
	mla	r1, r1, lr, r2
.Ltmp233:
	@DEBUG_VALUE: _LCD_DrawBitmap16bpp:AddrDst <- $r1
	@DEBUG_VALUE: _DMA_Copy:pDst <- $r1
	.loc	1 0 73                  @ ../Libraries/Config/GUIDRV_stm32f429i.c:0:73
	ldr	r2, [sp, #20]
.Ltmp234:
	.loc	1 346 7 is_stmt 1       @ ../Libraries/Config/GUIDRV_stm32f429i.c:346:7
	lsls	r0, r0, #1
.Ltmp235:
	@DEBUG_VALUE: _DMA_Copy:PixelFormat <- $r0
	.loc	1 860 18                @ ../Libraries/Config/GUIDRV_stm32f429i.c:860:18
	str.w	r1, [r12, #60]
	@DEBUG_VALUE: _DMA_Copy:ySize <- [DW_OP_plus_uconst 24] [$sp+0]
	@DEBUG_VALUE: _DMA_Copy:xSize <- [DW_OP_plus_uconst 20] [$sp+0]
.Ltmp236:
	@DEBUG_VALUE: _DMA_Copy:LayerIndex <- $r0
	.loc	1 0 18 is_stmt 0        @ ../Libraries/Config/GUIDRV_stm32f429i.c:0:18
	ldr	r1, [sp, #28]
.Ltmp237:
	.loc	1 1121 30 is_stmt 1     @ ../Libraries/Config/GUIDRV_stm32f429i.c:1121:30
	add.w	r1, r1, r1, lsr #31
	.loc	1 1121 35 is_stmt 0     @ ../Libraries/Config/GUIDRV_stm32f429i.c:1121:35
	rsb	r1, r2, r1, asr #1
.Ltmp238:
	@DEBUG_VALUE: _LCD_DrawBitmap16bpp:OffLineSrc <- $r1
	@DEBUG_VALUE: _DMA_Copy:OffLineSrc <- $r1
	.loc	1 861 18 is_stmt 1      @ ../Libraries/Config/GUIDRV_stm32f429i.c:861:18
	str.w	r1, [r12, #16]
.Ltmp239:
	@DEBUG_VALUE: _DMA_Copy:ySize <- [DW_OP_plus_uconst 24] [$sp+0]
	@DEBUG_VALUE: _DMA_Copy:xSize <- [DW_OP_plus_uconst 20] [$sp+0]
	@DEBUG_VALUE: _DMA_Copy:LayerIndex <- $r0
	.loc	1 1122 36               @ ../Libraries/Config/GUIDRV_stm32f429i.c:1122:36
	subs	r1, r5, r2
.Ltmp240:
	@DEBUG_VALUE: _DMA_Copy:OffLineDst <- $r1
	@DEBUG_VALUE: _LCD_DrawBitmap16bpp:OffLineDst <- $r1
	.loc	1 862 18                @ ../Libraries/Config/GUIDRV_stm32f429i.c:862:18
	str.w	r1, [r12, #64]
	@DEBUG_VALUE: _DMA_Copy:ySize <- [DW_OP_plus_uconst 24] [$sp+0]
	@DEBUG_VALUE: _DMA_Copy:xSize <- [DW_OP_plus_uconst 20] [$sp+0]
	@DEBUG_VALUE: _DMA_Copy:LayerIndex <- $r0
	.loc	1 863 18                @ ../Libraries/Config/GUIDRV_stm32f429i.c:863:18
	str.w	r0, [r12, #28]
	ldrh.w	r0, [sp, #24]
.Ltmp241:
	.loc	1 864 39                @ ../Libraries/Config/GUIDRV_stm32f429i.c:864:39
	orr.w	r0, r0, r2, lsl #16
	.loc	1 864 18 is_stmt 0      @ ../Libraries/Config/GUIDRV_stm32f429i.c:864:18
	str.w	r0, [r12, #68]
	.loc	1 865 17 is_stmt 1      @ ../Libraries/Config/GUIDRV_stm32f429i.c:865:17
	ldr.w	r0, [r12]
	orr	r0, r0, #1
	str.w	r0, [r12]
.Ltmp242:
	.p2align	2
.LBB9_1:                                @ =>This Inner Loop Header: Depth=1
	@DEBUG_VALUE: _LCD_DrawBitmap16bpp:OffLineDst <- $r1
	@DEBUG_VALUE: _DMA_Copy:OffLineDst <- $r1
	@DEBUG_VALUE: _DMA_Copy:xSize <- [DW_OP_plus_uconst 20] [$sp+0]
	@DEBUG_VALUE: _DMA_Copy:ySize <- [DW_OP_plus_uconst 24] [$sp+0]
	@DEBUG_VALUE: _DMA_Copy:pSrc <- $r3
	@DEBUG_VALUE: _LCD_DrawBitmap16bpp:BytesPerLine <- [DW_OP_plus_uconst 28] [$sp+0]
	@DEBUG_VALUE: _LCD_DrawBitmap16bpp:ySize <- [DW_OP_plus_uconst 24] [$sp+0]
	@DEBUG_VALUE: _LCD_DrawBitmap16bpp:xSize <- [DW_OP_plus_uconst 20] [$sp+0]
	@DEBUG_VALUE: _LCD_DrawBitmap16bpp:p <- $r3
	.loc	1 869 17                @ ../Libraries/Config/GUIDRV_stm32f429i.c:869:17
	ldr.w	r0, [r12]
	.loc	1 869 3 is_stmt 0       @ ../Libraries/Config/GUIDRV_stm32f429i.c:869:3
	lsls	r0, r0, #31
	bne	.LBB9_1
.Ltmp243:
@ %bb.2:
	@DEBUG_VALUE: _LCD_DrawBitmap16bpp:OffLineDst <- $r1
	@DEBUG_VALUE: _LCD_DrawBitmap16bpp:BytesPerLine <- [DW_OP_plus_uconst 28] [$sp+0]
	@DEBUG_VALUE: _LCD_DrawBitmap16bpp:ySize <- [DW_OP_plus_uconst 24] [$sp+0]
	@DEBUG_VALUE: _LCD_DrawBitmap16bpp:xSize <- [DW_OP_plus_uconst 20] [$sp+0]
	@DEBUG_VALUE: _LCD_DrawBitmap16bpp:p <- $r3
	.loc	1 1124 1 is_stmt 1      @ ../Libraries/Config/GUIDRV_stm32f429i.c:1124:1
	pop	{r4, r5, r6, r7, pc}
.Ltmp244:
.Lfunc_end9:
	.size	_LCD_DrawBitmap16bpp, .Lfunc_end9-_LCD_DrawBitmap16bpp
	.cfi_endproc
	.cantunwind
	.fnend
                                        @ -- End function
	.section	.text._Color2IndexBulk_M1555I_DMA2D,"ax",%progbits
	.p2align	1               @ -- Begin function _Color2IndexBulk_M1555I_DMA2D
	.type	_Color2IndexBulk_M1555I_DMA2D,%function
	.code	16                      @ @_Color2IndexBulk_M1555I_DMA2D
	.thumb_func
_Color2IndexBulk_M1555I_DMA2D:
.Lfunc_begin10:
	.loc	1 314 0                 @ ../Libraries/Config/GUIDRV_stm32f429i.c:314:0
	.fnstart
	.cfi_startproc
@ %bb.0:
	.save	{r4, r5, r7, lr}
	push	{r4, r5, r7, lr}
	.cfi_def_cfa_offset 16
	.cfi_offset lr, -4
	.cfi_offset r7, -8
	.cfi_offset r5, -12
	.cfi_offset r4, -16
	@DEBUG_VALUE: _Color2IndexBulk_M1555I_DMA2D:pColor <- $r0
	@DEBUG_VALUE: _Color2IndexBulk_M1555I_DMA2D:pColor <- $r0
	@DEBUG_VALUE: _Color2IndexBulk_M1555I_DMA2D:pIndex <- $r1
	@DEBUG_VALUE: _Color2IndexBulk_M1555I_DMA2D:pIndex <- $r1
	@DEBUG_VALUE: _Color2IndexBulk_M1555I_DMA2D:NumItems <- $r2
	@DEBUG_VALUE: _Color2IndexBulk_M1555I_DMA2D:NumItems <- $r2
	@DEBUG_VALUE: _Color2IndexBulk_M1555I_DMA2D:SizeOfIndex <- $r3
.Ltmp245:
	@DEBUG_VALUE: _DMA_Color2IndexBulk:pColor <- $r0
	@DEBUG_VALUE: _DMA_Color2IndexBulk:pColor <- $r0
	@DEBUG_VALUE: _DMA_Color2IndexBulk:pIndex <- $r1
	@DEBUG_VALUE: _DMA_Color2IndexBulk:pIndex <- $r1
	@DEBUG_VALUE: _DMA_Color2IndexBulk:NumItems <- $r2
	@DEBUG_VALUE: _DMA_Color2IndexBulk:NumItems <- $r2
	@DEBUG_VALUE: _InvertAlpha_SwapRB:pColorSrc <- $r0
	@DEBUG_VALUE: _InvertAlpha_SwapRB:NumItems <- $r2
	@DEBUG_VALUE: _InvertAlpha_SwapRB:NumItems <- $r2
	@DEBUG_VALUE: _DMA_ConvertColor:pDst <- $r1
	@DEBUG_VALUE: _DMA_ConvertColor:pDst <- $r1
	@DEBUG_VALUE: _DMA_ConvertColor:NumItems <- $r2
	@DEBUG_VALUE: _DMA_ConvertColor:NumItems <- $r2
	movw	r12, :lower16:_aBuffer_DMA2D
	mov	r3, r2
.Ltmp246:
	movt	r12, :upper16:_aBuffer_DMA2D
.Ltmp247:
	@DEBUG_VALUE: _DMA_Color2IndexBulk:PixelFormat <- 3
	@DEBUG_VALUE: _DMA_Color2IndexBulk:SizeOfIndex <- undef
	@DEBUG_VALUE: _InvertAlpha_SwapRB:pColorDst <- $r12
	mov	lr, r12
.Ltmp248:
	.p2align	2
.LBB10_1:                               @ =>This Inner Loop Header: Depth=1
	@DEBUG_VALUE: _InvertAlpha_SwapRB:pColorDst <- $r12
	@DEBUG_VALUE: _InvertAlpha_SwapRB:NumItems <- $r2
	@DEBUG_VALUE: _InvertAlpha_SwapRB:pColorSrc <- $r0
	@DEBUG_VALUE: _DMA_Color2IndexBulk:NumItems <- $r2
	@DEBUG_VALUE: _DMA_Color2IndexBulk:pIndex <- $r1
	@DEBUG_VALUE: _DMA_Color2IndexBulk:pColor <- $r0
	@DEBUG_VALUE: _Color2IndexBulk_M1555I_DMA2D:NumItems <- $r2
	@DEBUG_VALUE: _Color2IndexBulk_M1555I_DMA2D:pIndex <- $r1
	@DEBUG_VALUE: _Color2IndexBulk_M1555I_DMA2D:pColor <- $r0
	@DEBUG_VALUE: _InvertAlpha_SwapRB:pColorSrc <- $r0
	@DEBUG_VALUE: _InvertAlpha_SwapRB:NumItems <- $r3
	@DEBUG_VALUE: _InvertAlpha_SwapRB:pColorDst <- $lr
	.loc	1 411 13 prologue_end   @ ../Libraries/Config/GUIDRV_stm32f429i.c:411:13
	ldr	r4, [r0], #4
.Ltmp249:
	@DEBUG_VALUE: _InvertAlpha_SwapRB:Color <- $r4
	.loc	1 416 12                @ ../Libraries/Config/GUIDRV_stm32f429i.c:416:12
	subs	r3, #1
.Ltmp250:
	@DEBUG_VALUE: _InvertAlpha_SwapRB:NumItems <- $r3
	.loc	1 413 18                @ ../Libraries/Config/GUIDRV_stm32f429i.c:413:18
	bic	r5, r4, #16711935
	.loc	1 414 18                @ ../Libraries/Config/GUIDRV_stm32f429i.c:414:18
	bfi	r5, r4, #16, #8
	.loc	1 414 42 is_stmt 0      @ ../Libraries/Config/GUIDRV_stm32f429i.c:414:42
	ubfx	r4, r4, #16, #8
.Ltmp251:
	.loc	1 415 18 is_stmt 1      @ ../Libraries/Config/GUIDRV_stm32f429i.c:415:18
	add	r4, r5
	eor	r4, r4, #-16777216
	.loc	1 412 18                @ ../Libraries/Config/GUIDRV_stm32f429i.c:412:18
	str	r4, [lr], #4
.Ltmp252:
	.loc	1 416 3                 @ ../Libraries/Config/GUIDRV_stm32f429i.c:416:3
	bne	.LBB10_1
.Ltmp253:
@ %bb.2:
	@DEBUG_VALUE: _DMA_Color2IndexBulk:NumItems <- $r2
	@DEBUG_VALUE: _DMA_Color2IndexBulk:pIndex <- $r1
	@DEBUG_VALUE: _Color2IndexBulk_M1555I_DMA2D:NumItems <- $r2
	@DEBUG_VALUE: _Color2IndexBulk_M1555I_DMA2D:pIndex <- $r1
	.loc	1 0 3 is_stmt 0         @ ../Libraries/Config/GUIDRV_stm32f429i.c:0:3
	movw	r0, #45056
	mov.w	r3, #66048
.Ltmp254:
	@DEBUG_VALUE: _DMA_ConvertColor:PixelFormatDst <- 3
	@DEBUG_VALUE: _DMA_ConvertColor:PixelFormatSrc <- 0
	movt	r0, #16386
.Ltmp255:
	.loc	1 544 18 is_stmt 1      @ ../Libraries/Config/GUIDRV_stm32f429i.c:544:18
	str	r3, [r0]
	.loc	1 548 18                @ ../Libraries/Config/GUIDRV_stm32f429i.c:548:18
	str.w	r12, [r0, #12]
	.loc	1 549 18                @ ../Libraries/Config/GUIDRV_stm32f429i.c:549:18
	str	r1, [r0, #60]
	movs	r1, #0
.Ltmp256:
	.loc	1 553 18                @ ../Libraries/Config/GUIDRV_stm32f429i.c:553:18
	str	r1, [r0, #16]
	.loc	1 554 18                @ ../Libraries/Config/GUIDRV_stm32f429i.c:554:18
	str	r1, [r0, #64]
	.loc	1 558 18                @ ../Libraries/Config/GUIDRV_stm32f429i.c:558:18
	str	r1, [r0, #28]
	movs	r1, #3
	.loc	1 559 18                @ ../Libraries/Config/GUIDRV_stm32f429i.c:559:18
	str	r1, [r0, #52]
	.loc	1 563 35                @ ../Libraries/Config/GUIDRV_stm32f429i.c:563:35
	lsls	r1, r2, #16
	.loc	1 563 42 is_stmt 0      @ ../Libraries/Config/GUIDRV_stm32f429i.c:563:42
	adds	r1, #1
	.loc	1 563 18                @ ../Libraries/Config/GUIDRV_stm32f429i.c:563:18
	str	r1, [r0, #68]
	.loc	1 567 17 is_stmt 1      @ ../Libraries/Config/GUIDRV_stm32f429i.c:567:17
	ldr	r1, [r0]
	orr	r1, r1, #1
	str	r1, [r0]
	.p2align	2
.LBB10_3:                               @ =>This Inner Loop Header: Depth=1
	@DEBUG_VALUE: _DMA_Color2IndexBulk:NumItems <- $r2
	@DEBUG_VALUE: _Color2IndexBulk_M1555I_DMA2D:NumItems <- $r2
	.loc	1 569 17                @ ../Libraries/Config/GUIDRV_stm32f429i.c:569:17
	ldr	r1, [r0]
	.loc	1 569 3 is_stmt 0       @ ../Libraries/Config/GUIDRV_stm32f429i.c:569:3
	lsls	r1, r1, #31
	bne	.LBB10_3
.Ltmp257:
@ %bb.4:
	@DEBUG_VALUE: _Color2IndexBulk_M1555I_DMA2D:NumItems <- $r2
	.loc	1 314 1 is_stmt 1       @ ../Libraries/Config/GUIDRV_stm32f429i.c:314:1
	pop	{r4, r5, r7, pc}
.Ltmp258:
.Lfunc_end10:
	.size	_Color2IndexBulk_M1555I_DMA2D, .Lfunc_end10-_Color2IndexBulk_M1555I_DMA2D
	.cfi_endproc
	.cantunwind
	.fnend
                                        @ -- End function
	.section	.text._Index2ColorBulk_M1555I_DMA2D,"ax",%progbits
	.p2align	1               @ -- Begin function _Index2ColorBulk_M1555I_DMA2D
	.type	_Index2ColorBulk_M1555I_DMA2D,%function
	.code	16                      @ @_Index2ColorBulk_M1555I_DMA2D
	.thumb_func
_Index2ColorBulk_M1555I_DMA2D:
.Lfunc_begin11:
	.loc	1 314 0                 @ ../Libraries/Config/GUIDRV_stm32f429i.c:314:0
	.fnstart
	.cfi_startproc
@ %bb.0:
	@DEBUG_VALUE: _Index2ColorBulk_M1555I_DMA2D:pIndex <- $r0
	@DEBUG_VALUE: _Index2ColorBulk_M1555I_DMA2D:pColor <- $r1
	@DEBUG_VALUE: _Index2ColorBulk_M1555I_DMA2D:NumItems <- $r2
	@DEBUG_VALUE: _Index2ColorBulk_M1555I_DMA2D:SizeOfIndex <- $r3
	@DEBUG_VALUE: _DMA_Index2ColorBulk:pIndex <- $r1
	@DEBUG_VALUE: _DMA_Index2ColorBulk:NumItems <- $r2
	@DEBUG_VALUE: _DMA_ConvertColor:pSrc <- $r1
	@DEBUG_VALUE: _DMA_ConvertColor:NumItems <- $r2
	movw	r12, #45056
	mov.w	r3, #66048
.Ltmp259:
	@DEBUG_VALUE: _DMA_ConvertColor:PixelFormatDst <- 0
	@DEBUG_VALUE: _DMA_ConvertColor:PixelFormatSrc <- 3
	@DEBUG_VALUE: _DMA_Index2ColorBulk:PixelFormat <- 3
	@DEBUG_VALUE: _DMA_Index2ColorBulk:SizeOfIndex <- undef
	@DEBUG_VALUE: _DMA_ConvertColor:NumItems <- $r2
	@DEBUG_VALUE: _DMA_ConvertColor:pSrc <- $r1
	@DEBUG_VALUE: _DMA_Index2ColorBulk:NumItems <- $r2
	@DEBUG_VALUE: _DMA_Index2ColorBulk:pIndex <- $r1
	@DEBUG_VALUE: _Index2ColorBulk_M1555I_DMA2D:NumItems <- $r2
	@DEBUG_VALUE: _Index2ColorBulk_M1555I_DMA2D:pColor <- $r1
	@DEBUG_VALUE: _Index2ColorBulk_M1555I_DMA2D:pIndex <- $r0
	movt	r12, #16386
.Ltmp260:
	.loc	1 544 18 prologue_end   @ ../Libraries/Config/GUIDRV_stm32f429i.c:544:18
	str.w	r3, [r12]
	.loc	1 548 18                @ ../Libraries/Config/GUIDRV_stm32f429i.c:548:18
	str.w	r1, [r12, #12]
	.loc	1 549 18                @ ../Libraries/Config/GUIDRV_stm32f429i.c:549:18
	movw	r1, :lower16:_aBuffer_DMA2D
.Ltmp261:
	.loc	1 0 18 is_stmt 0        @ ../Libraries/Config/GUIDRV_stm32f429i.c:0:18
	movs	r3, #3
	.loc	1 549 18                @ ../Libraries/Config/GUIDRV_stm32f429i.c:549:18
	movt	r1, :upper16:_aBuffer_DMA2D
	str.w	r1, [r12, #60]
	movs	r1, #0
	.loc	1 553 18 is_stmt 1      @ ../Libraries/Config/GUIDRV_stm32f429i.c:553:18
	str.w	r1, [r12, #16]
	.loc	1 554 18                @ ../Libraries/Config/GUIDRV_stm32f429i.c:554:18
	str.w	r1, [r12, #64]
	.loc	1 558 18                @ ../Libraries/Config/GUIDRV_stm32f429i.c:558:18
	str.w	r3, [r12, #28]
	.loc	1 559 18                @ ../Libraries/Config/GUIDRV_stm32f429i.c:559:18
	str.w	r1, [r12, #52]
	.loc	1 563 35                @ ../Libraries/Config/GUIDRV_stm32f429i.c:563:35
	lsls	r1, r2, #16
	.loc	1 563 42 is_stmt 0      @ ../Libraries/Config/GUIDRV_stm32f429i.c:563:42
	adds	r1, #1
	.loc	1 563 18                @ ../Libraries/Config/GUIDRV_stm32f429i.c:563:18
	str.w	r1, [r12, #68]
	.loc	1 567 17 is_stmt 1      @ ../Libraries/Config/GUIDRV_stm32f429i.c:567:17
	ldr.w	r1, [r12]
	orr	r1, r1, #1
	str.w	r1, [r12]
.Ltmp262:
	.p2align	2
.LBB11_1:                               @ =>This Inner Loop Header: Depth=1
	@DEBUG_VALUE: _DMA_ConvertColor:NumItems <- $r2
	@DEBUG_VALUE: _DMA_Index2ColorBulk:NumItems <- $r2
	@DEBUG_VALUE: _Index2ColorBulk_M1555I_DMA2D:NumItems <- $r2
	@DEBUG_VALUE: _Index2ColorBulk_M1555I_DMA2D:pIndex <- $r0
	.loc	1 569 17                @ ../Libraries/Config/GUIDRV_stm32f429i.c:569:17
	ldr.w	r1, [r12]
	.loc	1 569 3 is_stmt 0       @ ../Libraries/Config/GUIDRV_stm32f429i.c:569:3
	lsls	r1, r1, #31
	bne	.LBB11_1
.Ltmp263:
@ %bb.2:
	@DEBUG_VALUE: _DMA_Index2ColorBulk:NumItems <- $r2
	@DEBUG_VALUE: _Index2ColorBulk_M1555I_DMA2D:NumItems <- $r2
	@DEBUG_VALUE: _Index2ColorBulk_M1555I_DMA2D:pIndex <- $r0
	.loc	1 0 3                   @ ../Libraries/Config/GUIDRV_stm32f429i.c:0:3
	movw	r12, :lower16:_aBuffer_DMA2D
	movt	r12, :upper16:_aBuffer_DMA2D
.Ltmp264:
	@DEBUG_VALUE: _DMA_Index2ColorBulk:pColor <- $r0
	.p2align	2
.LBB11_3:                               @ =>This Inner Loop Header: Depth=1
	@DEBUG_VALUE: _DMA_Index2ColorBulk:pColor <- $r0
	@DEBUG_VALUE: _DMA_Index2ColorBulk:NumItems <- $r2
	@DEBUG_VALUE: _Index2ColorBulk_M1555I_DMA2D:NumItems <- $r2
	@DEBUG_VALUE: _Index2ColorBulk_M1555I_DMA2D:pIndex <- $r0
	@DEBUG_VALUE: _InvertAlpha_SwapRB:pColorDst <- $r0
	@DEBUG_VALUE: _InvertAlpha_SwapRB:NumItems <- $r2
	@DEBUG_VALUE: _InvertAlpha_SwapRB:pColorSrc <- $r12
	.loc	1 411 13 is_stmt 1      @ ../Libraries/Config/GUIDRV_stm32f429i.c:411:13
	ldr	r3, [r12], #4
.Ltmp265:
	@DEBUG_VALUE: _InvertAlpha_SwapRB:Color <- $r3
	.loc	1 416 12                @ ../Libraries/Config/GUIDRV_stm32f429i.c:416:12
	subs	r2, #1
.Ltmp266:
	@DEBUG_VALUE: _InvertAlpha_SwapRB:NumItems <- $r2
	.loc	1 413 18                @ ../Libraries/Config/GUIDRV_stm32f429i.c:413:18
	bic	r1, r3, #16711935
	.loc	1 414 18                @ ../Libraries/Config/GUIDRV_stm32f429i.c:414:18
	bfi	r1, r3, #16, #8
	.loc	1 414 42 is_stmt 0      @ ../Libraries/Config/GUIDRV_stm32f429i.c:414:42
	ubfx	r3, r3, #16, #8
.Ltmp267:
	.loc	1 415 18 is_stmt 1      @ ../Libraries/Config/GUIDRV_stm32f429i.c:415:18
	add	r1, r3
	eor	r1, r1, #-16777216
	.loc	1 412 18                @ ../Libraries/Config/GUIDRV_stm32f429i.c:412:18
	str	r1, [r0], #4
.Ltmp268:
	.loc	1 416 3                 @ ../Libraries/Config/GUIDRV_stm32f429i.c:416:3
	bne	.LBB11_3
.Ltmp269:
@ %bb.4:
	.loc	1 314 1                 @ ../Libraries/Config/GUIDRV_stm32f429i.c:314:1
	bx	lr
.Ltmp270:
.Lfunc_end11:
	.size	_Index2ColorBulk_M1555I_DMA2D, .Lfunc_end11-_Index2ColorBulk_M1555I_DMA2D
	.cfi_endproc
	.cantunwind
	.fnend
                                        @ -- End function
	.section	.text._Color2IndexBulk_M565_DMA2D,"ax",%progbits
	.p2align	1               @ -- Begin function _Color2IndexBulk_M565_DMA2D
	.type	_Color2IndexBulk_M565_DMA2D,%function
	.code	16                      @ @_Color2IndexBulk_M565_DMA2D
	.thumb_func
_Color2IndexBulk_M565_DMA2D:
.Lfunc_begin12:
	.loc	1 313 0                 @ ../Libraries/Config/GUIDRV_stm32f429i.c:313:0
	.fnstart
	.cfi_startproc
@ %bb.0:
	.save	{r4, r5, r7, lr}
	push	{r4, r5, r7, lr}
	.cfi_def_cfa_offset 16
	.cfi_offset lr, -4
	.cfi_offset r7, -8
	.cfi_offset r5, -12
	.cfi_offset r4, -16
	@DEBUG_VALUE: _Color2IndexBulk_M565_DMA2D:pColor <- $r0
	@DEBUG_VALUE: _Color2IndexBulk_M565_DMA2D:pColor <- $r0
	@DEBUG_VALUE: _Color2IndexBulk_M565_DMA2D:pIndex <- $r1
	@DEBUG_VALUE: _Color2IndexBulk_M565_DMA2D:pIndex <- $r1
	@DEBUG_VALUE: _Color2IndexBulk_M565_DMA2D:NumItems <- $r2
	@DEBUG_VALUE: _Color2IndexBulk_M565_DMA2D:NumItems <- $r2
	@DEBUG_VALUE: _Color2IndexBulk_M565_DMA2D:SizeOfIndex <- $r3
.Ltmp271:
	@DEBUG_VALUE: _DMA_Color2IndexBulk:pColor <- $r0
	@DEBUG_VALUE: _DMA_Color2IndexBulk:pColor <- $r0
	@DEBUG_VALUE: _DMA_Color2IndexBulk:pIndex <- $r1
	@DEBUG_VALUE: _DMA_Color2IndexBulk:pIndex <- $r1
	@DEBUG_VALUE: _DMA_Color2IndexBulk:NumItems <- $r2
	@DEBUG_VALUE: _DMA_Color2IndexBulk:NumItems <- $r2
	@DEBUG_VALUE: _InvertAlpha_SwapRB:pColorSrc <- $r0
	@DEBUG_VALUE: _InvertAlpha_SwapRB:NumItems <- $r2
	@DEBUG_VALUE: _InvertAlpha_SwapRB:NumItems <- $r2
	@DEBUG_VALUE: _DMA_ConvertColor:pDst <- $r1
	@DEBUG_VALUE: _DMA_ConvertColor:pDst <- $r1
	@DEBUG_VALUE: _DMA_ConvertColor:NumItems <- $r2
	@DEBUG_VALUE: _DMA_ConvertColor:NumItems <- $r2
	movw	r12, :lower16:_aBuffer_DMA2D
	mov	r3, r2
.Ltmp272:
	movt	r12, :upper16:_aBuffer_DMA2D
.Ltmp273:
	@DEBUG_VALUE: _DMA_Color2IndexBulk:PixelFormat <- 2
	@DEBUG_VALUE: _DMA_Color2IndexBulk:SizeOfIndex <- undef
	@DEBUG_VALUE: _InvertAlpha_SwapRB:pColorDst <- $r12
	mov	lr, r12
.Ltmp274:
	.p2align	2
.LBB12_1:                               @ =>This Inner Loop Header: Depth=1
	@DEBUG_VALUE: _InvertAlpha_SwapRB:pColorDst <- $r12
	@DEBUG_VALUE: _InvertAlpha_SwapRB:NumItems <- $r2
	@DEBUG_VALUE: _InvertAlpha_SwapRB:pColorSrc <- $r0
	@DEBUG_VALUE: _DMA_Color2IndexBulk:NumItems <- $r2
	@DEBUG_VALUE: _DMA_Color2IndexBulk:pIndex <- $r1
	@DEBUG_VALUE: _DMA_Color2IndexBulk:pColor <- $r0
	@DEBUG_VALUE: _Color2IndexBulk_M565_DMA2D:NumItems <- $r2
	@DEBUG_VALUE: _Color2IndexBulk_M565_DMA2D:pIndex <- $r1
	@DEBUG_VALUE: _Color2IndexBulk_M565_DMA2D:pColor <- $r0
	@DEBUG_VALUE: _InvertAlpha_SwapRB:pColorSrc <- $r0
	@DEBUG_VALUE: _InvertAlpha_SwapRB:NumItems <- $r3
	@DEBUG_VALUE: _InvertAlpha_SwapRB:pColorDst <- $lr
	.loc	1 411 13 prologue_end   @ ../Libraries/Config/GUIDRV_stm32f429i.c:411:13
	ldr	r4, [r0], #4
.Ltmp275:
	@DEBUG_VALUE: _InvertAlpha_SwapRB:Color <- $r4
	.loc	1 416 12                @ ../Libraries/Config/GUIDRV_stm32f429i.c:416:12
	subs	r3, #1
.Ltmp276:
	@DEBUG_VALUE: _InvertAlpha_SwapRB:NumItems <- $r3
	.loc	1 413 18                @ ../Libraries/Config/GUIDRV_stm32f429i.c:413:18
	bic	r5, r4, #16711935
	.loc	1 414 18                @ ../Libraries/Config/GUIDRV_stm32f429i.c:414:18
	bfi	r5, r4, #16, #8
	.loc	1 414 42 is_stmt 0      @ ../Libraries/Config/GUIDRV_stm32f429i.c:414:42
	ubfx	r4, r4, #16, #8
.Ltmp277:
	.loc	1 415 18 is_stmt 1      @ ../Libraries/Config/GUIDRV_stm32f429i.c:415:18
	add	r4, r5
	eor	r4, r4, #-16777216
	.loc	1 412 18                @ ../Libraries/Config/GUIDRV_stm32f429i.c:412:18
	str	r4, [lr], #4
.Ltmp278:
	.loc	1 416 3                 @ ../Libraries/Config/GUIDRV_stm32f429i.c:416:3
	bne	.LBB12_1
.Ltmp279:
@ %bb.2:
	@DEBUG_VALUE: _DMA_Color2IndexBulk:NumItems <- $r2
	@DEBUG_VALUE: _DMA_Color2IndexBulk:pIndex <- $r1
	@DEBUG_VALUE: _Color2IndexBulk_M565_DMA2D:NumItems <- $r2
	@DEBUG_VALUE: _Color2IndexBulk_M565_DMA2D:pIndex <- $r1
	.loc	1 0 3 is_stmt 0         @ ../Libraries/Config/GUIDRV_stm32f429i.c:0:3
	movw	r0, #45056
	mov.w	r3, #66048
.Ltmp280:
	@DEBUG_VALUE: _DMA_ConvertColor:PixelFormatDst <- 2
	@DEBUG_VALUE: _DMA_ConvertColor:PixelFormatSrc <- 0
	movt	r0, #16386
.Ltmp281:
	.loc	1 544 18 is_stmt 1      @ ../Libraries/Config/GUIDRV_stm32f429i.c:544:18
	str	r3, [r0]
	.loc	1 548 18                @ ../Libraries/Config/GUIDRV_stm32f429i.c:548:18
	str.w	r12, [r0, #12]
	.loc	1 549 18                @ ../Libraries/Config/GUIDRV_stm32f429i.c:549:18
	str	r1, [r0, #60]
	movs	r1, #0
.Ltmp282:
	.loc	1 553 18                @ ../Libraries/Config/GUIDRV_stm32f429i.c:553:18
	str	r1, [r0, #16]
	.loc	1 554 18                @ ../Libraries/Config/GUIDRV_stm32f429i.c:554:18
	str	r1, [r0, #64]
	.loc	1 558 18                @ ../Libraries/Config/GUIDRV_stm32f429i.c:558:18
	str	r1, [r0, #28]
	movs	r1, #2
	.loc	1 559 18                @ ../Libraries/Config/GUIDRV_stm32f429i.c:559:18
	str	r1, [r0, #52]
	.loc	1 563 35                @ ../Libraries/Config/GUIDRV_stm32f429i.c:563:35
	lsls	r1, r2, #16
	.loc	1 563 42 is_stmt 0      @ ../Libraries/Config/GUIDRV_stm32f429i.c:563:42
	adds	r1, #1
	.loc	1 563 18                @ ../Libraries/Config/GUIDRV_stm32f429i.c:563:18
	str	r1, [r0, #68]
	.loc	1 567 17 is_stmt 1      @ ../Libraries/Config/GUIDRV_stm32f429i.c:567:17
	ldr	r1, [r0]
	orr	r1, r1, #1
	str	r1, [r0]
	.p2align	2
.LBB12_3:                               @ =>This Inner Loop Header: Depth=1
	@DEBUG_VALUE: _DMA_Color2IndexBulk:NumItems <- $r2
	@DEBUG_VALUE: _Color2IndexBulk_M565_DMA2D:NumItems <- $r2
	.loc	1 569 17                @ ../Libraries/Config/GUIDRV_stm32f429i.c:569:17
	ldr	r1, [r0]
	.loc	1 569 3 is_stmt 0       @ ../Libraries/Config/GUIDRV_stm32f429i.c:569:3
	lsls	r1, r1, #31
	bne	.LBB12_3
.Ltmp283:
@ %bb.4:
	@DEBUG_VALUE: _Color2IndexBulk_M565_DMA2D:NumItems <- $r2
	.loc	1 313 1 is_stmt 1       @ ../Libraries/Config/GUIDRV_stm32f429i.c:313:1
	pop	{r4, r5, r7, pc}
.Ltmp284:
.Lfunc_end12:
	.size	_Color2IndexBulk_M565_DMA2D, .Lfunc_end12-_Color2IndexBulk_M565_DMA2D
	.cfi_endproc
	.cantunwind
	.fnend
                                        @ -- End function
	.section	.text._Index2ColorBulk_M565_DMA2D,"ax",%progbits
	.p2align	1               @ -- Begin function _Index2ColorBulk_M565_DMA2D
	.type	_Index2ColorBulk_M565_DMA2D,%function
	.code	16                      @ @_Index2ColorBulk_M565_DMA2D
	.thumb_func
_Index2ColorBulk_M565_DMA2D:
.Lfunc_begin13:
	.loc	1 313 0                 @ ../Libraries/Config/GUIDRV_stm32f429i.c:313:0
	.fnstart
	.cfi_startproc
@ %bb.0:
	@DEBUG_VALUE: _Index2ColorBulk_M565_DMA2D:pIndex <- $r0
	@DEBUG_VALUE: _Index2ColorBulk_M565_DMA2D:pColor <- $r1
	@DEBUG_VALUE: _Index2ColorBulk_M565_DMA2D:NumItems <- $r2
	@DEBUG_VALUE: _Index2ColorBulk_M565_DMA2D:SizeOfIndex <- $r3
	@DEBUG_VALUE: _DMA_Index2ColorBulk:pIndex <- $r1
	@DEBUG_VALUE: _DMA_Index2ColorBulk:NumItems <- $r2
	@DEBUG_VALUE: _DMA_ConvertColor:pSrc <- $r1
	@DEBUG_VALUE: _DMA_ConvertColor:NumItems <- $r2
	movw	r12, #45056
	mov.w	r3, #66048
.Ltmp285:
	@DEBUG_VALUE: _DMA_ConvertColor:PixelFormatDst <- 0
	@DEBUG_VALUE: _DMA_ConvertColor:PixelFormatSrc <- 2
	@DEBUG_VALUE: _DMA_Index2ColorBulk:PixelFormat <- 2
	@DEBUG_VALUE: _DMA_Index2ColorBulk:SizeOfIndex <- undef
	@DEBUG_VALUE: _DMA_ConvertColor:NumItems <- $r2
	@DEBUG_VALUE: _DMA_ConvertColor:pSrc <- $r1
	@DEBUG_VALUE: _DMA_Index2ColorBulk:NumItems <- $r2
	@DEBUG_VALUE: _DMA_Index2ColorBulk:pIndex <- $r1
	@DEBUG_VALUE: _Index2ColorBulk_M565_DMA2D:NumItems <- $r2
	@DEBUG_VALUE: _Index2ColorBulk_M565_DMA2D:pColor <- $r1
	@DEBUG_VALUE: _Index2ColorBulk_M565_DMA2D:pIndex <- $r0
	movt	r12, #16386
.Ltmp286:
	.loc	1 544 18 prologue_end   @ ../Libraries/Config/GUIDRV_stm32f429i.c:544:18
	str.w	r3, [r12]
	.loc	1 548 18                @ ../Libraries/Config/GUIDRV_stm32f429i.c:548:18
	str.w	r1, [r12, #12]
	.loc	1 549 18                @ ../Libraries/Config/GUIDRV_stm32f429i.c:549:18
	movw	r1, :lower16:_aBuffer_DMA2D
.Ltmp287:
	.loc	1 0 18 is_stmt 0        @ ../Libraries/Config/GUIDRV_stm32f429i.c:0:18
	movs	r3, #2
	.loc	1 549 18                @ ../Libraries/Config/GUIDRV_stm32f429i.c:549:18
	movt	r1, :upper16:_aBuffer_DMA2D
	str.w	r1, [r12, #60]
	movs	r1, #0
	.loc	1 553 18 is_stmt 1      @ ../Libraries/Config/GUIDRV_stm32f429i.c:553:18
	str.w	r1, [r12, #16]
	.loc	1 554 18                @ ../Libraries/Config/GUIDRV_stm32f429i.c:554:18
	str.w	r1, [r12, #64]
	.loc	1 558 18                @ ../Libraries/Config/GUIDRV_stm32f429i.c:558:18
	str.w	r3, [r12, #28]
	.loc	1 559 18                @ ../Libraries/Config/GUIDRV_stm32f429i.c:559:18
	str.w	r1, [r12, #52]
	.loc	1 563 35                @ ../Libraries/Config/GUIDRV_stm32f429i.c:563:35
	lsls	r1, r2, #16
	.loc	1 563 42 is_stmt 0      @ ../Libraries/Config/GUIDRV_stm32f429i.c:563:42
	adds	r1, #1
	.loc	1 563 18                @ ../Libraries/Config/GUIDRV_stm32f429i.c:563:18
	str.w	r1, [r12, #68]
	.loc	1 567 17 is_stmt 1      @ ../Libraries/Config/GUIDRV_stm32f429i.c:567:17
	ldr.w	r1, [r12]
	orr	r1, r1, #1
	str.w	r1, [r12]
.Ltmp288:
	.p2align	2
.LBB13_1:                               @ =>This Inner Loop Header: Depth=1
	@DEBUG_VALUE: _DMA_ConvertColor:NumItems <- $r2
	@DEBUG_VALUE: _DMA_Index2ColorBulk:NumItems <- $r2
	@DEBUG_VALUE: _Index2ColorBulk_M565_DMA2D:NumItems <- $r2
	@DEBUG_VALUE: _Index2ColorBulk_M565_DMA2D:pIndex <- $r0
	.loc	1 569 17                @ ../Libraries/Config/GUIDRV_stm32f429i.c:569:17
	ldr.w	r1, [r12]
	.loc	1 569 3 is_stmt 0       @ ../Libraries/Config/GUIDRV_stm32f429i.c:569:3
	lsls	r1, r1, #31
	bne	.LBB13_1
.Ltmp289:
@ %bb.2:
	@DEBUG_VALUE: _DMA_Index2ColorBulk:NumItems <- $r2
	@DEBUG_VALUE: _Index2ColorBulk_M565_DMA2D:NumItems <- $r2
	@DEBUG_VALUE: _Index2ColorBulk_M565_DMA2D:pIndex <- $r0
	.loc	1 0 3                   @ ../Libraries/Config/GUIDRV_stm32f429i.c:0:3
	movw	r12, :lower16:_aBuffer_DMA2D
	movt	r12, :upper16:_aBuffer_DMA2D
.Ltmp290:
	@DEBUG_VALUE: _DMA_Index2ColorBulk:pColor <- $r0
	.p2align	2
.LBB13_3:                               @ =>This Inner Loop Header: Depth=1
	@DEBUG_VALUE: _DMA_Index2ColorBulk:pColor <- $r0
	@DEBUG_VALUE: _DMA_Index2ColorBulk:NumItems <- $r2
	@DEBUG_VALUE: _Index2ColorBulk_M565_DMA2D:NumItems <- $r2
	@DEBUG_VALUE: _Index2ColorBulk_M565_DMA2D:pIndex <- $r0
	@DEBUG_VALUE: _InvertAlpha_SwapRB:pColorDst <- $r0
	@DEBUG_VALUE: _InvertAlpha_SwapRB:NumItems <- $r2
	@DEBUG_VALUE: _InvertAlpha_SwapRB:pColorSrc <- $r12
	.loc	1 411 13 is_stmt 1      @ ../Libraries/Config/GUIDRV_stm32f429i.c:411:13
	ldr	r3, [r12], #4
.Ltmp291:
	@DEBUG_VALUE: _InvertAlpha_SwapRB:Color <- $r3
	.loc	1 416 12                @ ../Libraries/Config/GUIDRV_stm32f429i.c:416:12
	subs	r2, #1
.Ltmp292:
	@DEBUG_VALUE: _InvertAlpha_SwapRB:NumItems <- $r2
	.loc	1 413 18                @ ../Libraries/Config/GUIDRV_stm32f429i.c:413:18
	bic	r1, r3, #16711935
	.loc	1 414 18                @ ../Libraries/Config/GUIDRV_stm32f429i.c:414:18
	bfi	r1, r3, #16, #8
	.loc	1 414 42 is_stmt 0      @ ../Libraries/Config/GUIDRV_stm32f429i.c:414:42
	ubfx	r3, r3, #16, #8
.Ltmp293:
	.loc	1 415 18 is_stmt 1      @ ../Libraries/Config/GUIDRV_stm32f429i.c:415:18
	add	r1, r3
	eor	r1, r1, #-16777216
	.loc	1 412 18                @ ../Libraries/Config/GUIDRV_stm32f429i.c:412:18
	str	r1, [r0], #4
.Ltmp294:
	.loc	1 416 3                 @ ../Libraries/Config/GUIDRV_stm32f429i.c:416:3
	bne	.LBB13_3
.Ltmp295:
@ %bb.4:
	.loc	1 313 1                 @ ../Libraries/Config/GUIDRV_stm32f429i.c:313:1
	bx	lr
.Ltmp296:
.Lfunc_end13:
	.size	_Index2ColorBulk_M565_DMA2D, .Lfunc_end13-_Index2ColorBulk_M565_DMA2D
	.cfi_endproc
	.cantunwind
	.fnend
                                        @ -- End function
	.section	.text._Color2IndexBulk_M4444I_DMA2D,"ax",%progbits
	.p2align	1               @ -- Begin function _Color2IndexBulk_M4444I_DMA2D
	.type	_Color2IndexBulk_M4444I_DMA2D,%function
	.code	16                      @ @_Color2IndexBulk_M4444I_DMA2D
	.thumb_func
_Color2IndexBulk_M4444I_DMA2D:
.Lfunc_begin14:
	.loc	1 315 0                 @ ../Libraries/Config/GUIDRV_stm32f429i.c:315:0
	.fnstart
	.cfi_startproc
@ %bb.0:
	.save	{r4, r5, r7, lr}
	push	{r4, r5, r7, lr}
	.cfi_def_cfa_offset 16
	.cfi_offset lr, -4
	.cfi_offset r7, -8
	.cfi_offset r5, -12
	.cfi_offset r4, -16
	@DEBUG_VALUE: _Color2IndexBulk_M4444I_DMA2D:pColor <- $r0
	@DEBUG_VALUE: _Color2IndexBulk_M4444I_DMA2D:pColor <- $r0
	@DEBUG_VALUE: _Color2IndexBulk_M4444I_DMA2D:pIndex <- $r1
	@DEBUG_VALUE: _Color2IndexBulk_M4444I_DMA2D:pIndex <- $r1
	@DEBUG_VALUE: _Color2IndexBulk_M4444I_DMA2D:NumItems <- $r2
	@DEBUG_VALUE: _Color2IndexBulk_M4444I_DMA2D:NumItems <- $r2
	@DEBUG_VALUE: _Color2IndexBulk_M4444I_DMA2D:SizeOfIndex <- $r3
.Ltmp297:
	@DEBUG_VALUE: _DMA_Color2IndexBulk:pColor <- $r0
	@DEBUG_VALUE: _DMA_Color2IndexBulk:pColor <- $r0
	@DEBUG_VALUE: _DMA_Color2IndexBulk:pIndex <- $r1
	@DEBUG_VALUE: _DMA_Color2IndexBulk:pIndex <- $r1
	@DEBUG_VALUE: _DMA_Color2IndexBulk:NumItems <- $r2
	@DEBUG_VALUE: _DMA_Color2IndexBulk:NumItems <- $r2
	@DEBUG_VALUE: _InvertAlpha_SwapRB:pColorSrc <- $r0
	@DEBUG_VALUE: _InvertAlpha_SwapRB:NumItems <- $r2
	@DEBUG_VALUE: _InvertAlpha_SwapRB:NumItems <- $r2
	@DEBUG_VALUE: _DMA_ConvertColor:pDst <- $r1
	@DEBUG_VALUE: _DMA_ConvertColor:pDst <- $r1
	@DEBUG_VALUE: _DMA_ConvertColor:NumItems <- $r2
	@DEBUG_VALUE: _DMA_ConvertColor:NumItems <- $r2
	movw	r12, :lower16:_aBuffer_DMA2D
	mov	r3, r2
.Ltmp298:
	movt	r12, :upper16:_aBuffer_DMA2D
.Ltmp299:
	@DEBUG_VALUE: _DMA_Color2IndexBulk:PixelFormat <- 4
	@DEBUG_VALUE: _DMA_Color2IndexBulk:SizeOfIndex <- undef
	@DEBUG_VALUE: _InvertAlpha_SwapRB:pColorDst <- $r12
	mov	lr, r12
.Ltmp300:
	.p2align	2
.LBB14_1:                               @ =>This Inner Loop Header: Depth=1
	@DEBUG_VALUE: _InvertAlpha_SwapRB:pColorDst <- $r12
	@DEBUG_VALUE: _InvertAlpha_SwapRB:NumItems <- $r2
	@DEBUG_VALUE: _InvertAlpha_SwapRB:pColorSrc <- $r0
	@DEBUG_VALUE: _DMA_Color2IndexBulk:NumItems <- $r2
	@DEBUG_VALUE: _DMA_Color2IndexBulk:pIndex <- $r1
	@DEBUG_VALUE: _DMA_Color2IndexBulk:pColor <- $r0
	@DEBUG_VALUE: _Color2IndexBulk_M4444I_DMA2D:NumItems <- $r2
	@DEBUG_VALUE: _Color2IndexBulk_M4444I_DMA2D:pIndex <- $r1
	@DEBUG_VALUE: _Color2IndexBulk_M4444I_DMA2D:pColor <- $r0
	@DEBUG_VALUE: _InvertAlpha_SwapRB:pColorSrc <- $r0
	@DEBUG_VALUE: _InvertAlpha_SwapRB:NumItems <- $r3
	@DEBUG_VALUE: _InvertAlpha_SwapRB:pColorDst <- $lr
	.loc	1 411 13 prologue_end   @ ../Libraries/Config/GUIDRV_stm32f429i.c:411:13
	ldr	r4, [r0], #4
.Ltmp301:
	@DEBUG_VALUE: _InvertAlpha_SwapRB:Color <- $r4
	.loc	1 416 12                @ ../Libraries/Config/GUIDRV_stm32f429i.c:416:12
	subs	r3, #1
.Ltmp302:
	@DEBUG_VALUE: _InvertAlpha_SwapRB:NumItems <- $r3
	.loc	1 413 18                @ ../Libraries/Config/GUIDRV_stm32f429i.c:413:18
	bic	r5, r4, #16711935
	.loc	1 414 18                @ ../Libraries/Config/GUIDRV_stm32f429i.c:414:18
	bfi	r5, r4, #16, #8
	.loc	1 414 42 is_stmt 0      @ ../Libraries/Config/GUIDRV_stm32f429i.c:414:42
	ubfx	r4, r4, #16, #8
.Ltmp303:
	.loc	1 415 18 is_stmt 1      @ ../Libraries/Config/GUIDRV_stm32f429i.c:415:18
	add	r4, r5
	eor	r4, r4, #-16777216
	.loc	1 412 18                @ ../Libraries/Config/GUIDRV_stm32f429i.c:412:18
	str	r4, [lr], #4
.Ltmp304:
	.loc	1 416 3                 @ ../Libraries/Config/GUIDRV_stm32f429i.c:416:3
	bne	.LBB14_1
.Ltmp305:
@ %bb.2:
	@DEBUG_VALUE: _DMA_Color2IndexBulk:NumItems <- $r2
	@DEBUG_VALUE: _DMA_Color2IndexBulk:pIndex <- $r1
	@DEBUG_VALUE: _Color2IndexBulk_M4444I_DMA2D:NumItems <- $r2
	@DEBUG_VALUE: _Color2IndexBulk_M4444I_DMA2D:pIndex <- $r1
	.loc	1 0 3 is_stmt 0         @ ../Libraries/Config/GUIDRV_stm32f429i.c:0:3
	movw	r0, #45056
	mov.w	r3, #66048
.Ltmp306:
	@DEBUG_VALUE: _DMA_ConvertColor:PixelFormatDst <- 4
	@DEBUG_VALUE: _DMA_ConvertColor:PixelFormatSrc <- 0
	movt	r0, #16386
.Ltmp307:
	.loc	1 544 18 is_stmt 1      @ ../Libraries/Config/GUIDRV_stm32f429i.c:544:18
	str	r3, [r0]
	.loc	1 548 18                @ ../Libraries/Config/GUIDRV_stm32f429i.c:548:18
	str.w	r12, [r0, #12]
	.loc	1 549 18                @ ../Libraries/Config/GUIDRV_stm32f429i.c:549:18
	str	r1, [r0, #60]
	movs	r1, #0
.Ltmp308:
	.loc	1 553 18                @ ../Libraries/Config/GUIDRV_stm32f429i.c:553:18
	str	r1, [r0, #16]
	.loc	1 554 18                @ ../Libraries/Config/GUIDRV_stm32f429i.c:554:18
	str	r1, [r0, #64]
	.loc	1 558 18                @ ../Libraries/Config/GUIDRV_stm32f429i.c:558:18
	str	r1, [r0, #28]
	movs	r1, #4
	.loc	1 559 18                @ ../Libraries/Config/GUIDRV_stm32f429i.c:559:18
	str	r1, [r0, #52]
	.loc	1 563 35                @ ../Libraries/Config/GUIDRV_stm32f429i.c:563:35
	lsls	r1, r2, #16
	.loc	1 563 42 is_stmt 0      @ ../Libraries/Config/GUIDRV_stm32f429i.c:563:42
	adds	r1, #1
	.loc	1 563 18                @ ../Libraries/Config/GUIDRV_stm32f429i.c:563:18
	str	r1, [r0, #68]
	.loc	1 567 17 is_stmt 1      @ ../Libraries/Config/GUIDRV_stm32f429i.c:567:17
	ldr	r1, [r0]
	orr	r1, r1, #1
	str	r1, [r0]
	.p2align	2
.LBB14_3:                               @ =>This Inner Loop Header: Depth=1
	@DEBUG_VALUE: _DMA_Color2IndexBulk:NumItems <- $r2
	@DEBUG_VALUE: _Color2IndexBulk_M4444I_DMA2D:NumItems <- $r2
	.loc	1 569 17                @ ../Libraries/Config/GUIDRV_stm32f429i.c:569:17
	ldr	r1, [r0]
	.loc	1 569 3 is_stmt 0       @ ../Libraries/Config/GUIDRV_stm32f429i.c:569:3
	lsls	r1, r1, #31
	bne	.LBB14_3
.Ltmp309:
@ %bb.4:
	@DEBUG_VALUE: _Color2IndexBulk_M4444I_DMA2D:NumItems <- $r2
	.loc	1 315 1 is_stmt 1       @ ../Libraries/Config/GUIDRV_stm32f429i.c:315:1
	pop	{r4, r5, r7, pc}
.Ltmp310:
.Lfunc_end14:
	.size	_Color2IndexBulk_M4444I_DMA2D, .Lfunc_end14-_Color2IndexBulk_M4444I_DMA2D
	.cfi_endproc
	.cantunwind
	.fnend
                                        @ -- End function
	.section	.text._Index2ColorBulk_M4444I_DMA2D,"ax",%progbits
	.p2align	1               @ -- Begin function _Index2ColorBulk_M4444I_DMA2D
	.type	_Index2ColorBulk_M4444I_DMA2D,%function
	.code	16                      @ @_Index2ColorBulk_M4444I_DMA2D
	.thumb_func
_Index2ColorBulk_M4444I_DMA2D:
.Lfunc_begin15:
	.loc	1 315 0                 @ ../Libraries/Config/GUIDRV_stm32f429i.c:315:0
	.fnstart
	.cfi_startproc
@ %bb.0:
	@DEBUG_VALUE: _Index2ColorBulk_M4444I_DMA2D:pIndex <- $r0
	@DEBUG_VALUE: _Index2ColorBulk_M4444I_DMA2D:pColor <- $r1
	@DEBUG_VALUE: _Index2ColorBulk_M4444I_DMA2D:NumItems <- $r2
	@DEBUG_VALUE: _Index2ColorBulk_M4444I_DMA2D:SizeOfIndex <- $r3
	@DEBUG_VALUE: _DMA_Index2ColorBulk:pIndex <- $r1
	@DEBUG_VALUE: _DMA_Index2ColorBulk:NumItems <- $r2
	@DEBUG_VALUE: _DMA_ConvertColor:pSrc <- $r1
	@DEBUG_VALUE: _DMA_ConvertColor:NumItems <- $r2
	movw	r12, #45056
	mov.w	r3, #66048
.Ltmp311:
	@DEBUG_VALUE: _DMA_ConvertColor:PixelFormatDst <- 0
	@DEBUG_VALUE: _DMA_ConvertColor:PixelFormatSrc <- 4
	@DEBUG_VALUE: _DMA_Index2ColorBulk:PixelFormat <- 4
	@DEBUG_VALUE: _DMA_Index2ColorBulk:SizeOfIndex <- undef
	@DEBUG_VALUE: _DMA_ConvertColor:NumItems <- $r2
	@DEBUG_VALUE: _DMA_ConvertColor:pSrc <- $r1
	@DEBUG_VALUE: _DMA_Index2ColorBulk:NumItems <- $r2
	@DEBUG_VALUE: _DMA_Index2ColorBulk:pIndex <- $r1
	@DEBUG_VALUE: _Index2ColorBulk_M4444I_DMA2D:NumItems <- $r2
	@DEBUG_VALUE: _Index2ColorBulk_M4444I_DMA2D:pColor <- $r1
	@DEBUG_VALUE: _Index2ColorBulk_M4444I_DMA2D:pIndex <- $r0
	movt	r12, #16386
.Ltmp312:
	.loc	1 544 18 prologue_end   @ ../Libraries/Config/GUIDRV_stm32f429i.c:544:18
	str.w	r3, [r12]
	.loc	1 548 18                @ ../Libraries/Config/GUIDRV_stm32f429i.c:548:18
	str.w	r1, [r12, #12]
	.loc	1 549 18                @ ../Libraries/Config/GUIDRV_stm32f429i.c:549:18
	movw	r1, :lower16:_aBuffer_DMA2D
.Ltmp313:
	.loc	1 0 18 is_stmt 0        @ ../Libraries/Config/GUIDRV_stm32f429i.c:0:18
	movs	r3, #4
	.loc	1 549 18                @ ../Libraries/Config/GUIDRV_stm32f429i.c:549:18
	movt	r1, :upper16:_aBuffer_DMA2D
	str.w	r1, [r12, #60]
	movs	r1, #0
	.loc	1 553 18 is_stmt 1      @ ../Libraries/Config/GUIDRV_stm32f429i.c:553:18
	str.w	r1, [r12, #16]
	.loc	1 554 18                @ ../Libraries/Config/GUIDRV_stm32f429i.c:554:18
	str.w	r1, [r12, #64]
	.loc	1 558 18                @ ../Libraries/Config/GUIDRV_stm32f429i.c:558:18
	str.w	r3, [r12, #28]
	.loc	1 559 18                @ ../Libraries/Config/GUIDRV_stm32f429i.c:559:18
	str.w	r1, [r12, #52]
	.loc	1 563 35                @ ../Libraries/Config/GUIDRV_stm32f429i.c:563:35
	lsls	r1, r2, #16
	.loc	1 563 42 is_stmt 0      @ ../Libraries/Config/GUIDRV_stm32f429i.c:563:42
	adds	r1, #1
	.loc	1 563 18                @ ../Libraries/Config/GUIDRV_stm32f429i.c:563:18
	str.w	r1, [r12, #68]
	.loc	1 567 17 is_stmt 1      @ ../Libraries/Config/GUIDRV_stm32f429i.c:567:17
	ldr.w	r1, [r12]
	orr	r1, r1, #1
	str.w	r1, [r12]
.Ltmp314:
	.p2align	2
.LBB15_1:                               @ =>This Inner Loop Header: Depth=1
	@DEBUG_VALUE: _DMA_ConvertColor:NumItems <- $r2
	@DEBUG_VALUE: _DMA_Index2ColorBulk:NumItems <- $r2
	@DEBUG_VALUE: _Index2ColorBulk_M4444I_DMA2D:NumItems <- $r2
	@DEBUG_VALUE: _Index2ColorBulk_M4444I_DMA2D:pIndex <- $r0
	.loc	1 569 17                @ ../Libraries/Config/GUIDRV_stm32f429i.c:569:17
	ldr.w	r1, [r12]
	.loc	1 569 3 is_stmt 0       @ ../Libraries/Config/GUIDRV_stm32f429i.c:569:3
	lsls	r1, r1, #31
	bne	.LBB15_1
.Ltmp315:
@ %bb.2:
	@DEBUG_VALUE: _DMA_Index2ColorBulk:NumItems <- $r2
	@DEBUG_VALUE: _Index2ColorBulk_M4444I_DMA2D:NumItems <- $r2
	@DEBUG_VALUE: _Index2ColorBulk_M4444I_DMA2D:pIndex <- $r0
	.loc	1 0 3                   @ ../Libraries/Config/GUIDRV_stm32f429i.c:0:3
	movw	r12, :lower16:_aBuffer_DMA2D
	movt	r12, :upper16:_aBuffer_DMA2D
.Ltmp316:
	@DEBUG_VALUE: _DMA_Index2ColorBulk:pColor <- $r0
	.p2align	2
.LBB15_3:                               @ =>This Inner Loop Header: Depth=1
	@DEBUG_VALUE: _DMA_Index2ColorBulk:pColor <- $r0
	@DEBUG_VALUE: _DMA_Index2ColorBulk:NumItems <- $r2
	@DEBUG_VALUE: _Index2ColorBulk_M4444I_DMA2D:NumItems <- $r2
	@DEBUG_VALUE: _Index2ColorBulk_M4444I_DMA2D:pIndex <- $r0
	@DEBUG_VALUE: _InvertAlpha_SwapRB:pColorDst <- $r0
	@DEBUG_VALUE: _InvertAlpha_SwapRB:NumItems <- $r2
	@DEBUG_VALUE: _InvertAlpha_SwapRB:pColorSrc <- $r12
	.loc	1 411 13 is_stmt 1      @ ../Libraries/Config/GUIDRV_stm32f429i.c:411:13
	ldr	r3, [r12], #4
.Ltmp317:
	@DEBUG_VALUE: _InvertAlpha_SwapRB:Color <- $r3
	.loc	1 416 12                @ ../Libraries/Config/GUIDRV_stm32f429i.c:416:12
	subs	r2, #1
.Ltmp318:
	@DEBUG_VALUE: _InvertAlpha_SwapRB:NumItems <- $r2
	.loc	1 413 18                @ ../Libraries/Config/GUIDRV_stm32f429i.c:413:18
	bic	r1, r3, #16711935
	.loc	1 414 18                @ ../Libraries/Config/GUIDRV_stm32f429i.c:414:18
	bfi	r1, r3, #16, #8
	.loc	1 414 42 is_stmt 0      @ ../Libraries/Config/GUIDRV_stm32f429i.c:414:42
	ubfx	r3, r3, #16, #8
.Ltmp319:
	.loc	1 415 18 is_stmt 1      @ ../Libraries/Config/GUIDRV_stm32f429i.c:415:18
	add	r1, r3
	eor	r1, r1, #-16777216
	.loc	1 412 18                @ ../Libraries/Config/GUIDRV_stm32f429i.c:412:18
	str	r1, [r0], #4
.Ltmp320:
	.loc	1 416 3                 @ ../Libraries/Config/GUIDRV_stm32f429i.c:416:3
	bne	.LBB15_3
.Ltmp321:
@ %bb.4:
	.loc	1 315 1                 @ ../Libraries/Config/GUIDRV_stm32f429i.c:315:1
	bx	lr
.Ltmp322:
.Lfunc_end15:
	.size	_Index2ColorBulk_M4444I_DMA2D, .Lfunc_end15-_Index2ColorBulk_M4444I_DMA2D
	.cfi_endproc
	.cantunwind
	.fnend
                                        @ -- End function
	.section	.text._Color2IndexBulk_M888_DMA2D,"ax",%progbits
	.p2align	1               @ -- Begin function _Color2IndexBulk_M888_DMA2D
	.type	_Color2IndexBulk_M888_DMA2D,%function
	.code	16                      @ @_Color2IndexBulk_M888_DMA2D
	.thumb_func
_Color2IndexBulk_M888_DMA2D:
.Lfunc_begin16:
	.loc	1 312 0                 @ ../Libraries/Config/GUIDRV_stm32f429i.c:312:0
	.fnstart
	.cfi_startproc
@ %bb.0:
	.save	{r4, r5, r7, lr}
	push	{r4, r5, r7, lr}
	.cfi_def_cfa_offset 16
	.cfi_offset lr, -4
	.cfi_offset r7, -8
	.cfi_offset r5, -12
	.cfi_offset r4, -16
	@DEBUG_VALUE: _Color2IndexBulk_M888_DMA2D:pColor <- $r0
	@DEBUG_VALUE: _Color2IndexBulk_M888_DMA2D:pColor <- $r0
	@DEBUG_VALUE: _Color2IndexBulk_M888_DMA2D:pIndex <- $r1
	@DEBUG_VALUE: _Color2IndexBulk_M888_DMA2D:pIndex <- $r1
	@DEBUG_VALUE: _Color2IndexBulk_M888_DMA2D:NumItems <- $r2
	@DEBUG_VALUE: _Color2IndexBulk_M888_DMA2D:NumItems <- $r2
	@DEBUG_VALUE: _Color2IndexBulk_M888_DMA2D:SizeOfIndex <- $r3
.Ltmp323:
	@DEBUG_VALUE: _DMA_Color2IndexBulk:pColor <- $r0
	@DEBUG_VALUE: _DMA_Color2IndexBulk:pColor <- $r0
	@DEBUG_VALUE: _DMA_Color2IndexBulk:pIndex <- $r1
	@DEBUG_VALUE: _DMA_Color2IndexBulk:pIndex <- $r1
	@DEBUG_VALUE: _DMA_Color2IndexBulk:NumItems <- $r2
	@DEBUG_VALUE: _DMA_Color2IndexBulk:NumItems <- $r2
	@DEBUG_VALUE: _InvertAlpha_SwapRB:pColorSrc <- $r0
	@DEBUG_VALUE: _InvertAlpha_SwapRB:NumItems <- $r2
	@DEBUG_VALUE: _InvertAlpha_SwapRB:NumItems <- $r2
	@DEBUG_VALUE: _DMA_ConvertColor:pDst <- $r1
	@DEBUG_VALUE: _DMA_ConvertColor:pDst <- $r1
	@DEBUG_VALUE: _DMA_ConvertColor:NumItems <- $r2
	@DEBUG_VALUE: _DMA_ConvertColor:NumItems <- $r2
	movw	r12, :lower16:_aBuffer_DMA2D
	mov	r3, r2
.Ltmp324:
	movt	r12, :upper16:_aBuffer_DMA2D
.Ltmp325:
	@DEBUG_VALUE: _DMA_Color2IndexBulk:PixelFormat <- 0
	@DEBUG_VALUE: _DMA_Color2IndexBulk:SizeOfIndex <- undef
	@DEBUG_VALUE: _InvertAlpha_SwapRB:pColorDst <- $r12
	mov	lr, r12
.Ltmp326:
	.p2align	2
.LBB16_1:                               @ =>This Inner Loop Header: Depth=1
	@DEBUG_VALUE: _InvertAlpha_SwapRB:pColorDst <- $r12
	@DEBUG_VALUE: _InvertAlpha_SwapRB:NumItems <- $r2
	@DEBUG_VALUE: _InvertAlpha_SwapRB:pColorSrc <- $r0
	@DEBUG_VALUE: _DMA_Color2IndexBulk:NumItems <- $r2
	@DEBUG_VALUE: _DMA_Color2IndexBulk:pIndex <- $r1
	@DEBUG_VALUE: _DMA_Color2IndexBulk:pColor <- $r0
	@DEBUG_VALUE: _Color2IndexBulk_M888_DMA2D:NumItems <- $r2
	@DEBUG_VALUE: _Color2IndexBulk_M888_DMA2D:pIndex <- $r1
	@DEBUG_VALUE: _Color2IndexBulk_M888_DMA2D:pColor <- $r0
	@DEBUG_VALUE: _InvertAlpha_SwapRB:pColorSrc <- $r0
	@DEBUG_VALUE: _InvertAlpha_SwapRB:NumItems <- $r3
	@DEBUG_VALUE: _InvertAlpha_SwapRB:pColorDst <- $lr
	.loc	1 411 13 prologue_end   @ ../Libraries/Config/GUIDRV_stm32f429i.c:411:13
	ldr	r4, [r0], #4
.Ltmp327:
	@DEBUG_VALUE: _InvertAlpha_SwapRB:Color <- $r4
	.loc	1 416 12                @ ../Libraries/Config/GUIDRV_stm32f429i.c:416:12
	subs	r3, #1
.Ltmp328:
	@DEBUG_VALUE: _InvertAlpha_SwapRB:NumItems <- $r3
	.loc	1 413 18                @ ../Libraries/Config/GUIDRV_stm32f429i.c:413:18
	bic	r5, r4, #16711935
	.loc	1 414 18                @ ../Libraries/Config/GUIDRV_stm32f429i.c:414:18
	bfi	r5, r4, #16, #8
	.loc	1 414 42 is_stmt 0      @ ../Libraries/Config/GUIDRV_stm32f429i.c:414:42
	ubfx	r4, r4, #16, #8
.Ltmp329:
	.loc	1 415 18 is_stmt 1      @ ../Libraries/Config/GUIDRV_stm32f429i.c:415:18
	add	r4, r5
	eor	r4, r4, #-16777216
	.loc	1 412 18                @ ../Libraries/Config/GUIDRV_stm32f429i.c:412:18
	str	r4, [lr], #4
.Ltmp330:
	.loc	1 416 3                 @ ../Libraries/Config/GUIDRV_stm32f429i.c:416:3
	bne	.LBB16_1
.Ltmp331:
@ %bb.2:
	@DEBUG_VALUE: _DMA_Color2IndexBulk:NumItems <- $r2
	@DEBUG_VALUE: _DMA_Color2IndexBulk:pIndex <- $r1
	@DEBUG_VALUE: _Color2IndexBulk_M888_DMA2D:NumItems <- $r2
	@DEBUG_VALUE: _Color2IndexBulk_M888_DMA2D:pIndex <- $r1
	.loc	1 0 3 is_stmt 0         @ ../Libraries/Config/GUIDRV_stm32f429i.c:0:3
	movw	r0, #45056
	mov.w	r3, #66048
.Ltmp332:
	@DEBUG_VALUE: _DMA_ConvertColor:PixelFormatDst <- 0
	@DEBUG_VALUE: _DMA_ConvertColor:PixelFormatSrc <- 0
	movt	r0, #16386
.Ltmp333:
	.loc	1 544 18 is_stmt 1      @ ../Libraries/Config/GUIDRV_stm32f429i.c:544:18
	str	r3, [r0]
	.loc	1 548 18                @ ../Libraries/Config/GUIDRV_stm32f429i.c:548:18
	str.w	r12, [r0, #12]
	.loc	1 549 18                @ ../Libraries/Config/GUIDRV_stm32f429i.c:549:18
	str	r1, [r0, #60]
	movs	r1, #0
.Ltmp334:
	.loc	1 553 18                @ ../Libraries/Config/GUIDRV_stm32f429i.c:553:18
	str	r1, [r0, #16]
	.loc	1 554 18                @ ../Libraries/Config/GUIDRV_stm32f429i.c:554:18
	str	r1, [r0, #64]
	.loc	1 558 18                @ ../Libraries/Config/GUIDRV_stm32f429i.c:558:18
	str	r1, [r0, #28]
	.loc	1 559 18                @ ../Libraries/Config/GUIDRV_stm32f429i.c:559:18
	str	r1, [r0, #52]
	.loc	1 563 35                @ ../Libraries/Config/GUIDRV_stm32f429i.c:563:35
	lsls	r1, r2, #16
	.loc	1 563 42 is_stmt 0      @ ../Libraries/Config/GUIDRV_stm32f429i.c:563:42
	adds	r1, #1
	.loc	1 563 18                @ ../Libraries/Config/GUIDRV_stm32f429i.c:563:18
	str	r1, [r0, #68]
	.loc	1 567 17 is_stmt 1      @ ../Libraries/Config/GUIDRV_stm32f429i.c:567:17
	ldr	r1, [r0]
	orr	r1, r1, #1
	str	r1, [r0]
	.p2align	2
.LBB16_3:                               @ =>This Inner Loop Header: Depth=1
	@DEBUG_VALUE: _DMA_Color2IndexBulk:NumItems <- $r2
	@DEBUG_VALUE: _Color2IndexBulk_M888_DMA2D:NumItems <- $r2
	.loc	1 569 17                @ ../Libraries/Config/GUIDRV_stm32f429i.c:569:17
	ldr	r1, [r0]
	.loc	1 569 3 is_stmt 0       @ ../Libraries/Config/GUIDRV_stm32f429i.c:569:3
	lsls	r1, r1, #31
	bne	.LBB16_3
.Ltmp335:
@ %bb.4:
	@DEBUG_VALUE: _Color2IndexBulk_M888_DMA2D:NumItems <- $r2
	.loc	1 312 1 is_stmt 1       @ ../Libraries/Config/GUIDRV_stm32f429i.c:312:1
	pop	{r4, r5, r7, pc}
.Ltmp336:
.Lfunc_end16:
	.size	_Color2IndexBulk_M888_DMA2D, .Lfunc_end16-_Color2IndexBulk_M888_DMA2D
	.cfi_endproc
	.cantunwind
	.fnend
                                        @ -- End function
	.section	.text._Index2ColorBulk_M888_DMA2D,"ax",%progbits
	.p2align	1               @ -- Begin function _Index2ColorBulk_M888_DMA2D
	.type	_Index2ColorBulk_M888_DMA2D,%function
	.code	16                      @ @_Index2ColorBulk_M888_DMA2D
	.thumb_func
_Index2ColorBulk_M888_DMA2D:
.Lfunc_begin17:
	.loc	1 312 0                 @ ../Libraries/Config/GUIDRV_stm32f429i.c:312:0
	.fnstart
	.cfi_startproc
@ %bb.0:
	@DEBUG_VALUE: _Index2ColorBulk_M888_DMA2D:pIndex <- $r0
	@DEBUG_VALUE: _Index2ColorBulk_M888_DMA2D:pColor <- $r1
	@DEBUG_VALUE: _Index2ColorBulk_M888_DMA2D:NumItems <- $r2
	@DEBUG_VALUE: _Index2ColorBulk_M888_DMA2D:SizeOfIndex <- $r3
	@DEBUG_VALUE: _DMA_Index2ColorBulk:pIndex <- $r1
	@DEBUG_VALUE: _DMA_Index2ColorBulk:NumItems <- $r2
	@DEBUG_VALUE: _DMA_ConvertColor:pSrc <- $r1
	@DEBUG_VALUE: _DMA_ConvertColor:NumItems <- $r2
	movw	r12, #45056
	mov.w	r3, #66048
.Ltmp337:
	@DEBUG_VALUE: _DMA_ConvertColor:PixelFormatDst <- 0
	@DEBUG_VALUE: _DMA_ConvertColor:PixelFormatSrc <- 0
	@DEBUG_VALUE: _DMA_Index2ColorBulk:PixelFormat <- 0
	@DEBUG_VALUE: _DMA_Index2ColorBulk:SizeOfIndex <- undef
	@DEBUG_VALUE: _DMA_ConvertColor:NumItems <- $r2
	@DEBUG_VALUE: _DMA_ConvertColor:pSrc <- $r1
	@DEBUG_VALUE: _DMA_Index2ColorBulk:NumItems <- $r2
	@DEBUG_VALUE: _DMA_Index2ColorBulk:pIndex <- $r1
	@DEBUG_VALUE: _Index2ColorBulk_M888_DMA2D:NumItems <- $r2
	@DEBUG_VALUE: _Index2ColorBulk_M888_DMA2D:pColor <- $r1
	@DEBUG_VALUE: _Index2ColorBulk_M888_DMA2D:pIndex <- $r0
	movt	r12, #16386
.Ltmp338:
	.loc	1 544 18 prologue_end   @ ../Libraries/Config/GUIDRV_stm32f429i.c:544:18
	str.w	r3, [r12]
	.loc	1 548 18                @ ../Libraries/Config/GUIDRV_stm32f429i.c:548:18
	str.w	r1, [r12, #12]
	.loc	1 549 18                @ ../Libraries/Config/GUIDRV_stm32f429i.c:549:18
	movw	r1, :lower16:_aBuffer_DMA2D
.Ltmp339:
	movt	r1, :upper16:_aBuffer_DMA2D
	str.w	r1, [r12, #60]
	movs	r1, #0
	.loc	1 553 18                @ ../Libraries/Config/GUIDRV_stm32f429i.c:553:18
	str.w	r1, [r12, #16]
	.loc	1 554 18                @ ../Libraries/Config/GUIDRV_stm32f429i.c:554:18
	str.w	r1, [r12, #64]
	.loc	1 558 18                @ ../Libraries/Config/GUIDRV_stm32f429i.c:558:18
	str.w	r1, [r12, #28]
	.loc	1 559 18                @ ../Libraries/Config/GUIDRV_stm32f429i.c:559:18
	str.w	r1, [r12, #52]
	.loc	1 563 35                @ ../Libraries/Config/GUIDRV_stm32f429i.c:563:35
	lsls	r1, r2, #16
	.loc	1 563 42 is_stmt 0      @ ../Libraries/Config/GUIDRV_stm32f429i.c:563:42
	adds	r1, #1
	.loc	1 563 18                @ ../Libraries/Config/GUIDRV_stm32f429i.c:563:18
	str.w	r1, [r12, #68]
	.loc	1 567 17 is_stmt 1      @ ../Libraries/Config/GUIDRV_stm32f429i.c:567:17
	ldr.w	r1, [r12]
	orr	r1, r1, #1
	str.w	r1, [r12]
.Ltmp340:
	.p2align	2
.LBB17_1:                               @ =>This Inner Loop Header: Depth=1
	@DEBUG_VALUE: _DMA_ConvertColor:NumItems <- $r2
	@DEBUG_VALUE: _DMA_Index2ColorBulk:NumItems <- $r2
	@DEBUG_VALUE: _Index2ColorBulk_M888_DMA2D:NumItems <- $r2
	@DEBUG_VALUE: _Index2ColorBulk_M888_DMA2D:pIndex <- $r0
	.loc	1 569 17                @ ../Libraries/Config/GUIDRV_stm32f429i.c:569:17
	ldr.w	r1, [r12]
	.loc	1 569 3 is_stmt 0       @ ../Libraries/Config/GUIDRV_stm32f429i.c:569:3
	lsls	r1, r1, #31
	bne	.LBB17_1
.Ltmp341:
@ %bb.2:
	@DEBUG_VALUE: _DMA_Index2ColorBulk:NumItems <- $r2
	@DEBUG_VALUE: _Index2ColorBulk_M888_DMA2D:NumItems <- $r2
	@DEBUG_VALUE: _Index2ColorBulk_M888_DMA2D:pIndex <- $r0
	.loc	1 0 3                   @ ../Libraries/Config/GUIDRV_stm32f429i.c:0:3
	movw	r12, :lower16:_aBuffer_DMA2D
	movt	r12, :upper16:_aBuffer_DMA2D
.Ltmp342:
	@DEBUG_VALUE: _DMA_Index2ColorBulk:pColor <- $r0
	.p2align	2
.LBB17_3:                               @ =>This Inner Loop Header: Depth=1
	@DEBUG_VALUE: _DMA_Index2ColorBulk:pColor <- $r0
	@DEBUG_VALUE: _DMA_Index2ColorBulk:NumItems <- $r2
	@DEBUG_VALUE: _Index2ColorBulk_M888_DMA2D:NumItems <- $r2
	@DEBUG_VALUE: _Index2ColorBulk_M888_DMA2D:pIndex <- $r0
	@DEBUG_VALUE: _InvertAlpha_SwapRB:pColorDst <- $r0
	@DEBUG_VALUE: _InvertAlpha_SwapRB:NumItems <- $r2
	@DEBUG_VALUE: _InvertAlpha_SwapRB:pColorSrc <- $r12
	.loc	1 411 13 is_stmt 1      @ ../Libraries/Config/GUIDRV_stm32f429i.c:411:13
	ldr	r3, [r12], #4
.Ltmp343:
	@DEBUG_VALUE: _InvertAlpha_SwapRB:Color <- $r3
	.loc	1 416 12                @ ../Libraries/Config/GUIDRV_stm32f429i.c:416:12
	subs	r2, #1
.Ltmp344:
	@DEBUG_VALUE: _InvertAlpha_SwapRB:NumItems <- $r2
	.loc	1 413 18                @ ../Libraries/Config/GUIDRV_stm32f429i.c:413:18
	bic	r1, r3, #16711935
	.loc	1 414 18                @ ../Libraries/Config/GUIDRV_stm32f429i.c:414:18
	bfi	r1, r3, #16, #8
	.loc	1 414 42 is_stmt 0      @ ../Libraries/Config/GUIDRV_stm32f429i.c:414:42
	ubfx	r3, r3, #16, #8
.Ltmp345:
	.loc	1 415 18 is_stmt 1      @ ../Libraries/Config/GUIDRV_stm32f429i.c:415:18
	add	r1, r3
	eor	r1, r1, #-16777216
	.loc	1 412 18                @ ../Libraries/Config/GUIDRV_stm32f429i.c:412:18
	str	r1, [r0], #4
.Ltmp346:
	.loc	1 416 3                 @ ../Libraries/Config/GUIDRV_stm32f429i.c:416:3
	bne	.LBB17_3
.Ltmp347:
@ %bb.4:
	.loc	1 312 1                 @ ../Libraries/Config/GUIDRV_stm32f429i.c:312:1
	bx	lr
.Ltmp348:
.Lfunc_end17:
	.size	_Index2ColorBulk_M888_DMA2D, .Lfunc_end17-_Index2ColorBulk_M888_DMA2D
	.cfi_endproc
	.cantunwind
	.fnend
                                        @ -- End function
	.section	.text._Color2IndexBulk_M8888I_DMA2D,"ax",%progbits
	.p2align	1               @ -- Begin function _Color2IndexBulk_M8888I_DMA2D
	.type	_Color2IndexBulk_M8888I_DMA2D,%function
	.code	16                      @ @_Color2IndexBulk_M8888I_DMA2D
	.thumb_func
_Color2IndexBulk_M8888I_DMA2D:
.Lfunc_begin18:
	.loc	1 311 0                 @ ../Libraries/Config/GUIDRV_stm32f429i.c:311:0
	.fnstart
	.cfi_startproc
@ %bb.0:
	.save	{r4, r5, r7, lr}
	push	{r4, r5, r7, lr}
	.cfi_def_cfa_offset 16
	.cfi_offset lr, -4
	.cfi_offset r7, -8
	.cfi_offset r5, -12
	.cfi_offset r4, -16
	@DEBUG_VALUE: _Color2IndexBulk_M8888I_DMA2D:pColor <- $r0
	@DEBUG_VALUE: _Color2IndexBulk_M8888I_DMA2D:pColor <- $r0
	@DEBUG_VALUE: _Color2IndexBulk_M8888I_DMA2D:pIndex <- $r1
	@DEBUG_VALUE: _Color2IndexBulk_M8888I_DMA2D:pIndex <- $r1
	@DEBUG_VALUE: _Color2IndexBulk_M8888I_DMA2D:NumItems <- $r2
	@DEBUG_VALUE: _Color2IndexBulk_M8888I_DMA2D:NumItems <- $r2
	@DEBUG_VALUE: _Color2IndexBulk_M8888I_DMA2D:SizeOfIndex <- $r3
.Ltmp349:
	@DEBUG_VALUE: _DMA_Color2IndexBulk:pColor <- $r0
	@DEBUG_VALUE: _DMA_Color2IndexBulk:pColor <- $r0
	@DEBUG_VALUE: _DMA_Color2IndexBulk:pIndex <- $r1
	@DEBUG_VALUE: _DMA_Color2IndexBulk:pIndex <- $r1
	@DEBUG_VALUE: _DMA_Color2IndexBulk:NumItems <- $r2
	@DEBUG_VALUE: _DMA_Color2IndexBulk:NumItems <- $r2
	@DEBUG_VALUE: _InvertAlpha_SwapRB:pColorSrc <- $r0
	@DEBUG_VALUE: _InvertAlpha_SwapRB:NumItems <- $r2
	@DEBUG_VALUE: _InvertAlpha_SwapRB:NumItems <- $r2
	@DEBUG_VALUE: _DMA_ConvertColor:pDst <- $r1
	@DEBUG_VALUE: _DMA_ConvertColor:pDst <- $r1
	@DEBUG_VALUE: _DMA_ConvertColor:NumItems <- $r2
	@DEBUG_VALUE: _DMA_ConvertColor:NumItems <- $r2
	movw	r12, :lower16:_aBuffer_DMA2D
	mov	r3, r2
.Ltmp350:
	movt	r12, :upper16:_aBuffer_DMA2D
.Ltmp351:
	@DEBUG_VALUE: _DMA_Color2IndexBulk:PixelFormat <- 0
	@DEBUG_VALUE: _DMA_Color2IndexBulk:SizeOfIndex <- undef
	@DEBUG_VALUE: _InvertAlpha_SwapRB:pColorDst <- $r12
	mov	lr, r12
.Ltmp352:
	.p2align	2
.LBB18_1:                               @ =>This Inner Loop Header: Depth=1
	@DEBUG_VALUE: _InvertAlpha_SwapRB:pColorDst <- $r12
	@DEBUG_VALUE: _InvertAlpha_SwapRB:NumItems <- $r2
	@DEBUG_VALUE: _InvertAlpha_SwapRB:pColorSrc <- $r0
	@DEBUG_VALUE: _DMA_Color2IndexBulk:NumItems <- $r2
	@DEBUG_VALUE: _DMA_Color2IndexBulk:pIndex <- $r1
	@DEBUG_VALUE: _DMA_Color2IndexBulk:pColor <- $r0
	@DEBUG_VALUE: _Color2IndexBulk_M8888I_DMA2D:NumItems <- $r2
	@DEBUG_VALUE: _Color2IndexBulk_M8888I_DMA2D:pIndex <- $r1
	@DEBUG_VALUE: _Color2IndexBulk_M8888I_DMA2D:pColor <- $r0
	@DEBUG_VALUE: _InvertAlpha_SwapRB:pColorSrc <- $r0
	@DEBUG_VALUE: _InvertAlpha_SwapRB:NumItems <- $r3
	@DEBUG_VALUE: _InvertAlpha_SwapRB:pColorDst <- $lr
	.loc	1 411 13 prologue_end   @ ../Libraries/Config/GUIDRV_stm32f429i.c:411:13
	ldr	r4, [r0], #4
.Ltmp353:
	@DEBUG_VALUE: _InvertAlpha_SwapRB:Color <- $r4
	.loc	1 416 12                @ ../Libraries/Config/GUIDRV_stm32f429i.c:416:12
	subs	r3, #1
.Ltmp354:
	@DEBUG_VALUE: _InvertAlpha_SwapRB:NumItems <- $r3
	.loc	1 413 18                @ ../Libraries/Config/GUIDRV_stm32f429i.c:413:18
	bic	r5, r4, #16711935
	.loc	1 414 18                @ ../Libraries/Config/GUIDRV_stm32f429i.c:414:18
	bfi	r5, r4, #16, #8
	.loc	1 414 42 is_stmt 0      @ ../Libraries/Config/GUIDRV_stm32f429i.c:414:42
	ubfx	r4, r4, #16, #8
.Ltmp355:
	.loc	1 415 18 is_stmt 1      @ ../Libraries/Config/GUIDRV_stm32f429i.c:415:18
	add	r4, r5
	eor	r4, r4, #-16777216
	.loc	1 412 18                @ ../Libraries/Config/GUIDRV_stm32f429i.c:412:18
	str	r4, [lr], #4
.Ltmp356:
	.loc	1 416 3                 @ ../Libraries/Config/GUIDRV_stm32f429i.c:416:3
	bne	.LBB18_1
.Ltmp357:
@ %bb.2:
	@DEBUG_VALUE: _DMA_Color2IndexBulk:NumItems <- $r2
	@DEBUG_VALUE: _DMA_Color2IndexBulk:pIndex <- $r1
	@DEBUG_VALUE: _Color2IndexBulk_M8888I_DMA2D:NumItems <- $r2
	@DEBUG_VALUE: _Color2IndexBulk_M8888I_DMA2D:pIndex <- $r1
	.loc	1 0 3 is_stmt 0         @ ../Libraries/Config/GUIDRV_stm32f429i.c:0:3
	movw	r0, #45056
	mov.w	r3, #66048
.Ltmp358:
	@DEBUG_VALUE: _DMA_ConvertColor:PixelFormatDst <- 0
	@DEBUG_VALUE: _DMA_ConvertColor:PixelFormatSrc <- 0
	movt	r0, #16386
.Ltmp359:
	.loc	1 544 18 is_stmt 1      @ ../Libraries/Config/GUIDRV_stm32f429i.c:544:18
	str	r3, [r0]
	.loc	1 548 18                @ ../Libraries/Config/GUIDRV_stm32f429i.c:548:18
	str.w	r12, [r0, #12]
	.loc	1 549 18                @ ../Libraries/Config/GUIDRV_stm32f429i.c:549:18
	str	r1, [r0, #60]
	movs	r1, #0
.Ltmp360:
	.loc	1 553 18                @ ../Libraries/Config/GUIDRV_stm32f429i.c:553:18
	str	r1, [r0, #16]
	.loc	1 554 18                @ ../Libraries/Config/GUIDRV_stm32f429i.c:554:18
	str	r1, [r0, #64]
	.loc	1 558 18                @ ../Libraries/Config/GUIDRV_stm32f429i.c:558:18
	str	r1, [r0, #28]
	.loc	1 559 18                @ ../Libraries/Config/GUIDRV_stm32f429i.c:559:18
	str	r1, [r0, #52]
	.loc	1 563 35                @ ../Libraries/Config/GUIDRV_stm32f429i.c:563:35
	lsls	r1, r2, #16
	.loc	1 563 42 is_stmt 0      @ ../Libraries/Config/GUIDRV_stm32f429i.c:563:42
	adds	r1, #1
	.loc	1 563 18                @ ../Libraries/Config/GUIDRV_stm32f429i.c:563:18
	str	r1, [r0, #68]
	.loc	1 567 17 is_stmt 1      @ ../Libraries/Config/GUIDRV_stm32f429i.c:567:17
	ldr	r1, [r0]
	orr	r1, r1, #1
	str	r1, [r0]
	.p2align	2
.LBB18_3:                               @ =>This Inner Loop Header: Depth=1
	@DEBUG_VALUE: _DMA_Color2IndexBulk:NumItems <- $r2
	@DEBUG_VALUE: _Color2IndexBulk_M8888I_DMA2D:NumItems <- $r2
	.loc	1 569 17                @ ../Libraries/Config/GUIDRV_stm32f429i.c:569:17
	ldr	r1, [r0]
	.loc	1 569 3 is_stmt 0       @ ../Libraries/Config/GUIDRV_stm32f429i.c:569:3
	lsls	r1, r1, #31
	bne	.LBB18_3
.Ltmp361:
@ %bb.4:
	@DEBUG_VALUE: _Color2IndexBulk_M8888I_DMA2D:NumItems <- $r2
	.loc	1 311 1 is_stmt 1       @ ../Libraries/Config/GUIDRV_stm32f429i.c:311:1
	pop	{r4, r5, r7, pc}
.Ltmp362:
.Lfunc_end18:
	.size	_Color2IndexBulk_M8888I_DMA2D, .Lfunc_end18-_Color2IndexBulk_M8888I_DMA2D
	.cfi_endproc
	.cantunwind
	.fnend
                                        @ -- End function
	.section	.text._Index2ColorBulk_M8888I_DMA2D,"ax",%progbits
	.p2align	1               @ -- Begin function _Index2ColorBulk_M8888I_DMA2D
	.type	_Index2ColorBulk_M8888I_DMA2D,%function
	.code	16                      @ @_Index2ColorBulk_M8888I_DMA2D
	.thumb_func
_Index2ColorBulk_M8888I_DMA2D:
.Lfunc_begin19:
	.loc	1 311 0                 @ ../Libraries/Config/GUIDRV_stm32f429i.c:311:0
	.fnstart
	.cfi_startproc
@ %bb.0:
	@DEBUG_VALUE: _Index2ColorBulk_M8888I_DMA2D:pIndex <- $r0
	@DEBUG_VALUE: _Index2ColorBulk_M8888I_DMA2D:pColor <- $r1
	@DEBUG_VALUE: _Index2ColorBulk_M8888I_DMA2D:NumItems <- $r2
	@DEBUG_VALUE: _Index2ColorBulk_M8888I_DMA2D:SizeOfIndex <- $r3
	@DEBUG_VALUE: _DMA_Index2ColorBulk:pIndex <- $r1
	@DEBUG_VALUE: _DMA_Index2ColorBulk:NumItems <- $r2
	@DEBUG_VALUE: _DMA_ConvertColor:pSrc <- $r1
	@DEBUG_VALUE: _DMA_ConvertColor:NumItems <- $r2
	movw	r12, #45056
	mov.w	r3, #66048
.Ltmp363:
	@DEBUG_VALUE: _DMA_ConvertColor:PixelFormatDst <- 0
	@DEBUG_VALUE: _DMA_ConvertColor:PixelFormatSrc <- 0
	@DEBUG_VALUE: _DMA_Index2ColorBulk:PixelFormat <- 0
	@DEBUG_VALUE: _DMA_Index2ColorBulk:SizeOfIndex <- undef
	@DEBUG_VALUE: _DMA_ConvertColor:NumItems <- $r2
	@DEBUG_VALUE: _DMA_ConvertColor:pSrc <- $r1
	@DEBUG_VALUE: _DMA_Index2ColorBulk:NumItems <- $r2
	@DEBUG_VALUE: _DMA_Index2ColorBulk:pIndex <- $r1
	@DEBUG_VALUE: _Index2ColorBulk_M8888I_DMA2D:NumItems <- $r2
	@DEBUG_VALUE: _Index2ColorBulk_M8888I_DMA2D:pColor <- $r1
	@DEBUG_VALUE: _Index2ColorBulk_M8888I_DMA2D:pIndex <- $r0
	movt	r12, #16386
.Ltmp364:
	.loc	1 544 18 prologue_end   @ ../Libraries/Config/GUIDRV_stm32f429i.c:544:18
	str.w	r3, [r12]
	.loc	1 548 18                @ ../Libraries/Config/GUIDRV_stm32f429i.c:548:18
	str.w	r1, [r12, #12]
	.loc	1 549 18                @ ../Libraries/Config/GUIDRV_stm32f429i.c:549:18
	movw	r1, :lower16:_aBuffer_DMA2D
.Ltmp365:
	movt	r1, :upper16:_aBuffer_DMA2D
	str.w	r1, [r12, #60]
	movs	r1, #0
	.loc	1 553 18                @ ../Libraries/Config/GUIDRV_stm32f429i.c:553:18
	str.w	r1, [r12, #16]
	.loc	1 554 18                @ ../Libraries/Config/GUIDRV_stm32f429i.c:554:18
	str.w	r1, [r12, #64]
	.loc	1 558 18                @ ../Libraries/Config/GUIDRV_stm32f429i.c:558:18
	str.w	r1, [r12, #28]
	.loc	1 559 18                @ ../Libraries/Config/GUIDRV_stm32f429i.c:559:18
	str.w	r1, [r12, #52]
	.loc	1 563 35                @ ../Libraries/Config/GUIDRV_stm32f429i.c:563:35
	lsls	r1, r2, #16
	.loc	1 563 42 is_stmt 0      @ ../Libraries/Config/GUIDRV_stm32f429i.c:563:42
	adds	r1, #1
	.loc	1 563 18                @ ../Libraries/Config/GUIDRV_stm32f429i.c:563:18
	str.w	r1, [r12, #68]
	.loc	1 567 17 is_stmt 1      @ ../Libraries/Config/GUIDRV_stm32f429i.c:567:17
	ldr.w	r1, [r12]
	orr	r1, r1, #1
	str.w	r1, [r12]
.Ltmp366:
	.p2align	2
.LBB19_1:                               @ =>This Inner Loop Header: Depth=1
	@DEBUG_VALUE: _DMA_ConvertColor:NumItems <- $r2
	@DEBUG_VALUE: _DMA_Index2ColorBulk:NumItems <- $r2
	@DEBUG_VALUE: _Index2ColorBulk_M8888I_DMA2D:NumItems <- $r2
	@DEBUG_VALUE: _Index2ColorBulk_M8888I_DMA2D:pIndex <- $r0
	.loc	1 569 17                @ ../Libraries/Config/GUIDRV_stm32f429i.c:569:17
	ldr.w	r1, [r12]
	.loc	1 569 3 is_stmt 0       @ ../Libraries/Config/GUIDRV_stm32f429i.c:569:3
	lsls	r1, r1, #31
	bne	.LBB19_1
.Ltmp367:
@ %bb.2:
	@DEBUG_VALUE: _DMA_Index2ColorBulk:NumItems <- $r2
	@DEBUG_VALUE: _Index2ColorBulk_M8888I_DMA2D:NumItems <- $r2
	@DEBUG_VALUE: _Index2ColorBulk_M8888I_DMA2D:pIndex <- $r0
	.loc	1 0 3                   @ ../Libraries/Config/GUIDRV_stm32f429i.c:0:3
	movw	r12, :lower16:_aBuffer_DMA2D
	movt	r12, :upper16:_aBuffer_DMA2D
.Ltmp368:
	@DEBUG_VALUE: _DMA_Index2ColorBulk:pColor <- $r0
	.p2align	2
.LBB19_3:                               @ =>This Inner Loop Header: Depth=1
	@DEBUG_VALUE: _DMA_Index2ColorBulk:pColor <- $r0
	@DEBUG_VALUE: _DMA_Index2ColorBulk:NumItems <- $r2
	@DEBUG_VALUE: _Index2ColorBulk_M8888I_DMA2D:NumItems <- $r2
	@DEBUG_VALUE: _Index2ColorBulk_M8888I_DMA2D:pIndex <- $r0
	@DEBUG_VALUE: _InvertAlpha_SwapRB:pColorDst <- $r0
	@DEBUG_VALUE: _InvertAlpha_SwapRB:NumItems <- $r2
	@DEBUG_VALUE: _InvertAlpha_SwapRB:pColorSrc <- $r12
	.loc	1 411 13 is_stmt 1      @ ../Libraries/Config/GUIDRV_stm32f429i.c:411:13
	ldr	r3, [r12], #4
.Ltmp369:
	@DEBUG_VALUE: _InvertAlpha_SwapRB:Color <- $r3
	.loc	1 416 12                @ ../Libraries/Config/GUIDRV_stm32f429i.c:416:12
	subs	r2, #1
.Ltmp370:
	@DEBUG_VALUE: _InvertAlpha_SwapRB:NumItems <- $r2
	.loc	1 413 18                @ ../Libraries/Config/GUIDRV_stm32f429i.c:413:18
	bic	r1, r3, #16711935
	.loc	1 414 18                @ ../Libraries/Config/GUIDRV_stm32f429i.c:414:18
	bfi	r1, r3, #16, #8
	.loc	1 414 42 is_stmt 0      @ ../Libraries/Config/GUIDRV_stm32f429i.c:414:42
	ubfx	r3, r3, #16, #8
.Ltmp371:
	.loc	1 415 18 is_stmt 1      @ ../Libraries/Config/GUIDRV_stm32f429i.c:415:18
	add	r1, r3
	eor	r1, r1, #-16777216
	.loc	1 412 18                @ ../Libraries/Config/GUIDRV_stm32f429i.c:412:18
	str	r1, [r0], #4
.Ltmp372:
	.loc	1 416 3                 @ ../Libraries/Config/GUIDRV_stm32f429i.c:416:3
	bne	.LBB19_3
.Ltmp373:
@ %bb.4:
	.loc	1 311 1                 @ ../Libraries/Config/GUIDRV_stm32f429i.c:311:1
	bx	lr
.Ltmp374:
.Lfunc_end19:
	.size	_Index2ColorBulk_M8888I_DMA2D, .Lfunc_end19-_Index2ColorBulk_M8888I_DMA2D
	.cfi_endproc
	.cantunwind
	.fnend
                                        @ -- End function
	.section	.text._DMA_AlphaBlending,"ax",%progbits
	.p2align	1               @ -- Begin function _DMA_AlphaBlending
	.type	_DMA_AlphaBlending,%function
	.code	16                      @ @_DMA_AlphaBlending
	.thumb_func
_DMA_AlphaBlending:
.Lfunc_begin20:
	.loc	1 673 0                 @ ../Libraries/Config/GUIDRV_stm32f429i.c:673:0
	.fnstart
	.cfi_startproc
@ %bb.0:
	.save	{r4, r5, r7, lr}
	push	{r4, r5, r7, lr}
	.cfi_def_cfa_offset 16
	.cfi_offset lr, -4
	.cfi_offset r7, -8
	.cfi_offset r5, -12
	.cfi_offset r4, -16
	@DEBUG_VALUE: _DMA_AlphaBlending:pColorFG <- $r0
	@DEBUG_VALUE: _DMA_AlphaBlending:pColorFG <- $r0
	@DEBUG_VALUE: _DMA_AlphaBlending:pColorBG <- $r1
	@DEBUG_VALUE: _DMA_AlphaBlending:pColorBG <- $r1
	@DEBUG_VALUE: _DMA_AlphaBlending:pColorDst <- $r2
	@DEBUG_VALUE: _DMA_AlphaBlending:pColorDst <- $r2
	@DEBUG_VALUE: _DMA_AlphaBlending:NumItems <- $r3
	@DEBUG_VALUE: _DMA_AlphaBlending:NumItems <- $r3
.Ltmp375:
	@DEBUG_VALUE: _InvertAlpha:pColorSrc <- $r0
	@DEBUG_VALUE: _InvertAlpha:NumItems <- $r3
	@DEBUG_VALUE: _InvertAlpha:NumItems <- $r3
	@DEBUG_VALUE: _DMA_AlphaBlendingBulk:NumItems <- $r3
	@DEBUG_VALUE: _DMA_AlphaBlendingBulk:NumItems <- $r3
	movw	r12, :lower16:_aBuffer_FG
	mov	r4, r3
	movt	r12, :upper16:_aBuffer_FG
.Ltmp376:
	@DEBUG_VALUE: _InvertAlpha:pColorDst <- $r12
	mov	lr, r12
.Ltmp377:
	.p2align	2
.LBB20_1:                               @ =>This Inner Loop Header: Depth=1
	@DEBUG_VALUE: _InvertAlpha:pColorDst <- $r12
	@DEBUG_VALUE: _InvertAlpha:NumItems <- $r3
	@DEBUG_VALUE: _InvertAlpha:pColorSrc <- $r0
	@DEBUG_VALUE: _DMA_AlphaBlending:NumItems <- $r3
	@DEBUG_VALUE: _DMA_AlphaBlending:pColorDst <- $r2
	@DEBUG_VALUE: _DMA_AlphaBlending:pColorBG <- $r1
	@DEBUG_VALUE: _DMA_AlphaBlending:pColorFG <- $r0
	@DEBUG_VALUE: _InvertAlpha:pColorSrc <- $r0
	@DEBUG_VALUE: _InvertAlpha:NumItems <- $r4
	@DEBUG_VALUE: _InvertAlpha:pColorDst <- $lr
	.loc	1 432 13 prologue_end   @ ../Libraries/Config/GUIDRV_stm32f429i.c:432:13
	ldr	r5, [r0], #4
.Ltmp378:
	@DEBUG_VALUE: _InvertAlpha:Color <- $r5
	.loc	1 434 12                @ ../Libraries/Config/GUIDRV_stm32f429i.c:434:12
	subs	r4, #1
.Ltmp379:
	@DEBUG_VALUE: _InvertAlpha:NumItems <- $r4
	.loc	1 433 26                @ ../Libraries/Config/GUIDRV_stm32f429i.c:433:26
	eor	r5, r5, #-16777216
.Ltmp380:
	.loc	1 433 18 is_stmt 0      @ ../Libraries/Config/GUIDRV_stm32f429i.c:433:18
	str	r5, [lr], #4
.Ltmp381:
	.loc	1 434 3 is_stmt 1       @ ../Libraries/Config/GUIDRV_stm32f429i.c:434:3
	bne	.LBB20_1
.Ltmp382:
@ %bb.2:
	@DEBUG_VALUE: _InvertAlpha:NumItems <- $r4
	@DEBUG_VALUE: _DMA_AlphaBlending:NumItems <- $r3
	@DEBUG_VALUE: _DMA_AlphaBlending:pColorDst <- $r2
	@DEBUG_VALUE: _DMA_AlphaBlending:pColorBG <- $r1
	.loc	1 0 3 is_stmt 0         @ ../Libraries/Config/GUIDRV_stm32f429i.c:0:3
	movw	lr, :lower16:_aBuffer_BG
	mov	r4, r3
.Ltmp383:
	movt	lr, :upper16:_aBuffer_BG
	mov	r0, lr
.Ltmp384:
	.p2align	2
.LBB20_3:                               @ =>This Inner Loop Header: Depth=1
	@DEBUG_VALUE: _DMA_AlphaBlending:NumItems <- $r3
	@DEBUG_VALUE: _DMA_AlphaBlending:pColorDst <- $r2
	@DEBUG_VALUE: _DMA_AlphaBlending:pColorBG <- $r1
	@DEBUG_VALUE: _InvertAlpha:pColorDst <- $r0
	@DEBUG_VALUE: _InvertAlpha:NumItems <- $r4
	@DEBUG_VALUE: _InvertAlpha:pColorSrc <- $r1
	.loc	1 432 13 is_stmt 1      @ ../Libraries/Config/GUIDRV_stm32f429i.c:432:13
	ldr	r5, [r1], #4
.Ltmp385:
	@DEBUG_VALUE: _InvertAlpha:Color <- $r5
	.loc	1 434 12                @ ../Libraries/Config/GUIDRV_stm32f429i.c:434:12
	subs	r4, #1
.Ltmp386:
	@DEBUG_VALUE: _InvertAlpha:NumItems <- $r4
	.loc	1 433 26                @ ../Libraries/Config/GUIDRV_stm32f429i.c:433:26
	eor	r5, r5, #-16777216
.Ltmp387:
	.loc	1 433 18 is_stmt 0      @ ../Libraries/Config/GUIDRV_stm32f429i.c:433:18
	str	r5, [r0], #4
.Ltmp388:
	.loc	1 434 3 is_stmt 1       @ ../Libraries/Config/GUIDRV_stm32f429i.c:434:3
	bne	.LBB20_3
.Ltmp389:
@ %bb.4:
	@DEBUG_VALUE: _DMA_AlphaBlending:NumItems <- $r3
	@DEBUG_VALUE: _DMA_AlphaBlending:pColorDst <- $r2
	.loc	1 0 3 is_stmt 0         @ ../Libraries/Config/GUIDRV_stm32f429i.c:0:3
	movw	r1, #45056
	movw	r0, #512
	movt	r1, #16386
	movt	r0, #2
.Ltmp390:
	.loc	1 445 18 is_stmt 1      @ ../Libraries/Config/GUIDRV_stm32f429i.c:445:18
	str	r0, [r1]
	.loc	1 451 18                @ ../Libraries/Config/GUIDRV_stm32f429i.c:451:18
	movw	r0, :lower16:_aBuffer_DMA2D
	.loc	1 449 18                @ ../Libraries/Config/GUIDRV_stm32f429i.c:449:18
	str.w	r12, [r1, #12]
	.loc	1 450 18                @ ../Libraries/Config/GUIDRV_stm32f429i.c:450:18
	str.w	lr, [r1, #20]
	.loc	1 451 18                @ ../Libraries/Config/GUIDRV_stm32f429i.c:451:18
	movt	r0, :upper16:_aBuffer_DMA2D
	str	r0, [r1, #60]
	movs	r0, #0
	.loc	1 455 18                @ ../Libraries/Config/GUIDRV_stm32f429i.c:455:18
	str	r0, [r1, #16]
	.loc	1 456 18                @ ../Libraries/Config/GUIDRV_stm32f429i.c:456:18
	str	r0, [r1, #24]
	.loc	1 457 18                @ ../Libraries/Config/GUIDRV_stm32f429i.c:457:18
	str	r0, [r1, #64]
	.loc	1 461 18                @ ../Libraries/Config/GUIDRV_stm32f429i.c:461:18
	str	r0, [r1, #28]
	.loc	1 462 18                @ ../Libraries/Config/GUIDRV_stm32f429i.c:462:18
	str	r0, [r1, #36]
	.loc	1 463 18                @ ../Libraries/Config/GUIDRV_stm32f429i.c:463:18
	str	r0, [r1, #52]
	.loc	1 467 35                @ ../Libraries/Config/GUIDRV_stm32f429i.c:467:35
	lsls	r0, r3, #16
	.loc	1 467 42 is_stmt 0      @ ../Libraries/Config/GUIDRV_stm32f429i.c:467:42
	adds	r0, #1
	.loc	1 467 18                @ ../Libraries/Config/GUIDRV_stm32f429i.c:467:18
	str	r0, [r1, #68]
	.loc	1 472 17 is_stmt 1      @ ../Libraries/Config/GUIDRV_stm32f429i.c:472:17
	ldr	r0, [r1]
	orr	r0, r0, #1
	str	r0, [r1]
.Ltmp391:
	.p2align	2
.LBB20_5:                               @ =>This Inner Loop Header: Depth=1
	@DEBUG_VALUE: _DMA_AlphaBlending:NumItems <- $r3
	@DEBUG_VALUE: _DMA_AlphaBlending:pColorDst <- $r2
	.loc	1 474 17                @ ../Libraries/Config/GUIDRV_stm32f429i.c:474:17
	ldr	r0, [r1]
	.loc	1 474 3 is_stmt 0       @ ../Libraries/Config/GUIDRV_stm32f429i.c:474:3
	lsls	r0, r0, #31
	bne	.LBB20_5
.Ltmp392:
@ %bb.6:
	@DEBUG_VALUE: _DMA_AlphaBlending:NumItems <- $r3
	@DEBUG_VALUE: _DMA_AlphaBlending:pColorDst <- $r2
	.loc	1 0 3                   @ ../Libraries/Config/GUIDRV_stm32f429i.c:0:3
	movw	r0, :lower16:_aBuffer_DMA2D
	movt	r0, :upper16:_aBuffer_DMA2D
.Ltmp393:
	@DEBUG_VALUE: _DMA_AlphaBlendingBulk:pColorDst <- $r0
	.p2align	2
.LBB20_7:                               @ =>This Inner Loop Header: Depth=1
	@DEBUG_VALUE: _DMA_AlphaBlending:NumItems <- $r3
	@DEBUG_VALUE: _DMA_AlphaBlending:pColorDst <- $r2
	@DEBUG_VALUE: _InvertAlpha:pColorDst <- $r2
	@DEBUG_VALUE: _InvertAlpha:NumItems <- $r3
	@DEBUG_VALUE: _InvertAlpha:pColorSrc <- $r0
	.loc	1 432 13 is_stmt 1      @ ../Libraries/Config/GUIDRV_stm32f429i.c:432:13
	ldr	r1, [r0], #4
.Ltmp394:
	@DEBUG_VALUE: _InvertAlpha:Color <- $r1
	.loc	1 434 12                @ ../Libraries/Config/GUIDRV_stm32f429i.c:434:12
	subs	r3, #1
.Ltmp395:
	@DEBUG_VALUE: _InvertAlpha:NumItems <- $r3
	.loc	1 433 26                @ ../Libraries/Config/GUIDRV_stm32f429i.c:433:26
	eor	r1, r1, #-16777216
.Ltmp396:
	.loc	1 433 18 is_stmt 0      @ ../Libraries/Config/GUIDRV_stm32f429i.c:433:18
	str	r1, [r2], #4
.Ltmp397:
	.loc	1 434 3 is_stmt 1       @ ../Libraries/Config/GUIDRV_stm32f429i.c:434:3
	bne	.LBB20_7
.Ltmp398:
@ %bb.8:
	.loc	1 687 1                 @ ../Libraries/Config/GUIDRV_stm32f429i.c:687:1
	pop	{r4, r5, r7, pc}
.Ltmp399:
.Lfunc_end20:
	.size	_DMA_AlphaBlending, .Lfunc_end20-_DMA_AlphaBlending
	.cfi_endproc
	.cantunwind
	.fnend
                                        @ -- End function
	.section	.text._LCD_GetpPalConvTable,"ax",%progbits
	.p2align	1               @ -- Begin function _LCD_GetpPalConvTable
	.type	_LCD_GetpPalConvTable,%function
	.code	16                      @ @_LCD_GetpPalConvTable
	.thumb_func
_LCD_GetpPalConvTable:
.Lfunc_begin21:
	.loc	1 584 0                 @ ../Libraries/Config/GUIDRV_stm32f429i.c:584:0
	.fnstart
	.cfi_startproc
@ %bb.0:
	.save	{r4, r5, r7, lr}
	push	{r4, r5, r7, lr}
	.cfi_def_cfa_offset 16
	.cfi_offset lr, -4
	.cfi_offset r7, -8
	.cfi_offset r5, -12
	.cfi_offset r4, -16
	@DEBUG_VALUE: _LCD_GetpPalConvTable:pLogPal <- $r0
	@DEBUG_VALUE: _LCD_GetpPalConvTable:pBitmap <- $r1
	@DEBUG_VALUE: _LCD_GetpPalConvTable:LayerIndex <- $r2
	mov	r4, r0
.Ltmp400:
	@DEBUG_VALUE: _LCD_GetpPalConvTable:DoDefault <- 0
	@DEBUG_VALUE: _LCD_GetpPalConvTable:LayerIndex <- $r2
	@DEBUG_VALUE: _LCD_GetpPalConvTable:pLogPal <- $r4
	.loc	1 591 16 prologue_end   @ ../Libraries/Config/GUIDRV_stm32f429i.c:591:16
	ldrh	r0, [r1, #6]
.Ltmp401:
	.loc	1 591 7 is_stmt 0       @ ../Libraries/Config/GUIDRV_stm32f429i.c:591:7
	cmp	r0, #8
	bne	.LBB21_4
.Ltmp402:
@ %bb.1:
	@DEBUG_VALUE: _LCD_GetpPalConvTable:pLogPal <- $r4
	@DEBUG_VALUE: _LCD_GetpPalConvTable:LayerIndex <- $r2
	@DEBUG_VALUE: _LCD_GetpPalConvTable:pBitmap <- $r1
	.loc	1 0 7                   @ ../Libraries/Config/GUIDRV_stm32f429i.c:0:7
	mov	r5, r1
.Ltmp403:
	@DEBUG_VALUE: _LCD_GetpPalConvTable:pBitmap <- $r5
	@DEBUG_VALUE: _LCD_GetpPalConvTable:pBitmap <- $r5
	.loc	1 592 13 is_stmt 1      @ ../Libraries/Config/GUIDRV_stm32f429i.c:592:13
	mov	r0, r2
	movs	r1, #37
	bl	LCD_GetDevFunc
.Ltmp404:
	@DEBUG_VALUE: _LCD_GetpPalConvTable:pFunc <- $r0
	.loc	1 593 9                 @ ../Libraries/Config/GUIDRV_stm32f429i.c:593:9
	cbz	r0, .LBB21_4
.Ltmp405:
@ %bb.2:
	@DEBUG_VALUE: _LCD_GetpPalConvTable:pFunc <- $r0
	@DEBUG_VALUE: _LCD_GetpPalConvTable:pBitmap <- $r5
	@DEBUG_VALUE: _LCD_GetpPalConvTable:pLogPal <- $r4
	.loc	1 594 20                @ ../Libraries/Config/GUIDRV_stm32f429i.c:594:20
	ldr	r0, [r5, #12]
.Ltmp406:
	.loc	1 594 11 is_stmt 0      @ ../Libraries/Config/GUIDRV_stm32f429i.c:594:11
	cbz	r0, .LBB21_4
.Ltmp407:
@ %bb.3:
	@DEBUG_VALUE: _LCD_GetpPalConvTable:pBitmap <- $r5
	@DEBUG_VALUE: _LCD_GetpPalConvTable:pLogPal <- $r4
	.loc	1 595 28 is_stmt 1      @ ../Libraries/Config/GUIDRV_stm32f429i.c:595:28
	ldrb	r0, [r0, #4]
.Ltmp408:
	.loc	1 595 13 is_stmt 0      @ ../Libraries/Config/GUIDRV_stm32f429i.c:595:13
	cbz	r0, .LBB21_5
.Ltmp409:
.LBB21_4:
	@DEBUG_VALUE: _LCD_GetpPalConvTable:pLogPal <- $r4
	.loc	1 614 12 is_stmt 1      @ ../Libraries/Config/GUIDRV_stm32f429i.c:614:12
	mov	r0, r4
	pop.w	{r4, r5, r7, lr}
.Ltmp410:
	b	LCD_GetpPalConvTable
.Ltmp411:
.LBB21_5:
	@DEBUG_VALUE: _LCD_GetpPalConvTable:pBitmap <- $r5
	@DEBUG_VALUE: _LCD_GetpPalConvTable:pLogPal <- $r4
	.loc	1 0 12 is_stmt 0        @ ../Libraries/Config/GUIDRV_stm32f429i.c:0:12
	movw	r0, :lower16:_aBuffer_DMA2D
	.loc	1 619 77 is_stmt 1      @ ../Libraries/Config/GUIDRV_stm32f429i.c:619:77
	ldr.w	r12, [r4]
.Ltmp412:
	@DEBUG_VALUE: _InvertAlpha_SwapRB:NumItems <- $r12
	@DEBUG_VALUE: _DMA_LoadLUT:NumItems <- $r12
	.loc	1 619 39 is_stmt 0      @ ../Libraries/Config/GUIDRV_stm32f429i.c:619:39
	ldr	r2, [r4, #8]
	movt	r0, :upper16:_aBuffer_DMA2D
.Ltmp413:
	@DEBUG_VALUE: _InvertAlpha_SwapRB:pColorDst <- $r0
	.loc	1 0 39                  @ ../Libraries/Config/GUIDRV_stm32f429i.c:0:39
	mov	r3, r0
	mov	r1, r12
.Ltmp414:
	.p2align	2
.LBB21_6:                               @ =>This Inner Loop Header: Depth=1
	@DEBUG_VALUE: _InvertAlpha_SwapRB:pColorDst <- $r0
	@DEBUG_VALUE: _InvertAlpha_SwapRB:NumItems <- $r12
	@DEBUG_VALUE: _LCD_GetpPalConvTable:pBitmap <- $r5
	@DEBUG_VALUE: _LCD_GetpPalConvTable:pLogPal <- $r4
	@DEBUG_VALUE: _InvertAlpha_SwapRB:NumItems <- $r1
	@DEBUG_VALUE: _InvertAlpha_SwapRB:pColorSrc <- $r2
	@DEBUG_VALUE: _InvertAlpha_SwapRB:pColorDst <- $r3
	.loc	1 411 13 is_stmt 1      @ ../Libraries/Config/GUIDRV_stm32f429i.c:411:13
	ldr	r4, [r2], #4
.Ltmp415:
	@DEBUG_VALUE: _InvertAlpha_SwapRB:Color <- $r4
	.loc	1 416 12                @ ../Libraries/Config/GUIDRV_stm32f429i.c:416:12
	subs	r1, #1
.Ltmp416:
	@DEBUG_VALUE: _InvertAlpha_SwapRB:NumItems <- $r1
	.loc	1 413 18                @ ../Libraries/Config/GUIDRV_stm32f429i.c:413:18
	bic	r5, r4, #16711935
.Ltmp417:
	.loc	1 414 18                @ ../Libraries/Config/GUIDRV_stm32f429i.c:414:18
	bfi	r5, r4, #16, #8
	.loc	1 414 42 is_stmt 0      @ ../Libraries/Config/GUIDRV_stm32f429i.c:414:42
	ubfx	r4, r4, #16, #8
.Ltmp418:
	.loc	1 415 18 is_stmt 1      @ ../Libraries/Config/GUIDRV_stm32f429i.c:415:18
	add	r5, r4
	eor	r5, r5, #-16777216
	.loc	1 412 18                @ ../Libraries/Config/GUIDRV_stm32f429i.c:412:18
	str	r5, [r3], #4
.Ltmp419:
	.loc	1 416 3                 @ ../Libraries/Config/GUIDRV_stm32f429i.c:416:3
	bne	.LBB21_6
.Ltmp420:
@ %bb.7:
	.loc	1 0 3 is_stmt 0         @ ../Libraries/Config/GUIDRV_stm32f429i.c:0:3
	mov.w	r2, #65280
	movw	r1, #45084
.Ltmp421:
	.loc	1 392 45 is_stmt 1      @ ../Libraries/Config/GUIDRV_stm32f429i.c:392:45
	add.w	r2, r2, r12, lsl #8
	movt	r1, #16386
.Ltmp422:
	@DEBUG_VALUE: _DMA_LoadLUT:pColor <- $r0
	adds	r2, #2
	.loc	1 387 18                @ ../Libraries/Config/GUIDRV_stm32f429i.c:387:18
	str	r0, [r1, #16]
	.loc	1 392 19                @ ../Libraries/Config/GUIDRV_stm32f429i.c:392:19
	uxth	r2, r2
	.loc	1 391 19                @ ../Libraries/Config/GUIDRV_stm32f429i.c:391:19
	str	r2, [r1]
	.loc	1 393 18                @ ../Libraries/Config/GUIDRV_stm32f429i.c:393:18
	ldr	r2, [r1]
	orr	r2, r2, #32
	str	r2, [r1]
.Ltmp423:
	.loc	1 628 1                 @ ../Libraries/Config/GUIDRV_stm32f429i.c:628:1
	pop	{r4, r5, r7, pc}
.Ltmp424:
.Lfunc_end21:
	.size	_LCD_GetpPalConvTable, .Lfunc_end21-_LCD_GetpPalConvTable
	.cfi_endproc
	.cantunwind
	.fnend
                                        @ -- End function
	.section	.text._DMA_MixColors,"ax",%progbits
	.p2align	1               @ -- Begin function _DMA_MixColors
	.type	_DMA_MixColors,%function
	.code	16                      @ @_DMA_MixColors
	.thumb_func
_DMA_MixColors:
.Lfunc_begin22:
	.loc	1 488 0                 @ ../Libraries/Config/GUIDRV_stm32f429i.c:488:0
	.fnstart
	.cfi_startproc
@ %bb.0:
	.pad	#12
	sub	sp, #12
	.cfi_def_cfa_offset 12
	@DEBUG_VALUE: _DMA_MixColors:Color <- $r0
	@DEBUG_VALUE: _DMA_MixColors:Color <- $r0
	@DEBUG_VALUE: _DMA_MixColors:BkColor <- $r1
	@DEBUG_VALUE: _DMA_MixColors:BkColor <- $r1
	@DEBUG_VALUE: _DMA_MixColors:Intens <- $r2
	@DEBUG_VALUE: _DMA_MixColors:Intens <- $r2
.Ltmp425:
	.loc	1 491 7 prologue_end    @ ../Libraries/Config/GUIDRV_stm32f429i.c:491:7
	lsrs	r3, r1, #24
	cmp	r3, #254
	bhi	.LBB22_4
.Ltmp426:
@ %bb.1:
	@DEBUG_VALUE: _DMA_MixColors:Intens <- $r2
	@DEBUG_VALUE: _DMA_MixColors:BkColor <- $r1
	@DEBUG_VALUE: _DMA_MixColors:Color <- $r0
	.loc	1 495 21                @ ../Libraries/Config/GUIDRV_stm32f429i.c:495:21
	eor	r1, r1, #-16777216
.Ltmp427:
	@DEBUG_VALUE: _DMA_MixColors:ColorBG <- $r1
	.loc	1 494 21                @ ../Libraries/Config/GUIDRV_stm32f429i.c:494:21
	eor	r0, r0, #-16777216
.Ltmp428:
	@DEBUG_VALUE: _DMA_MixColors:ColorFG <- $r0
	.loc	1 495 11                @ ../Libraries/Config/GUIDRV_stm32f429i.c:495:11
	str	r1, [sp, #4]
	movw	r1, #45056
.Ltmp429:
	.loc	1 494 11                @ ../Libraries/Config/GUIDRV_stm32f429i.c:494:11
	str	r0, [sp, #8]
	movw	r0, #512
.Ltmp430:
	.loc	1 0 11 is_stmt 0        @ ../Libraries/Config/GUIDRV_stm32f429i.c:0:11
	movt	r1, #16386
	movt	r0, #2
	.loc	1 499 18 is_stmt 1      @ ../Libraries/Config/GUIDRV_stm32f429i.c:499:18
	str	r0, [r1]
	add	r0, sp, #8
	.loc	1 503 18                @ ../Libraries/Config/GUIDRV_stm32f429i.c:503:18
	str	r0, [r1, #12]
	add	r0, sp, #4
	.loc	1 504 18                @ ../Libraries/Config/GUIDRV_stm32f429i.c:504:18
	str	r0, [r1, #20]
	mov	r0, sp
	.loc	1 505 18                @ ../Libraries/Config/GUIDRV_stm32f429i.c:505:18
	str	r0, [r1, #60]
	.loc	1 511 33                @ ../Libraries/Config/GUIDRV_stm32f429i.c:511:33
	lsls	r0, r2, #24
	.loc	1 511 18 is_stmt 0      @ ../Libraries/Config/GUIDRV_stm32f429i.c:511:18
	add.w	r0, r0, #65536
	.loc	1 509 18 is_stmt 1      @ ../Libraries/Config/GUIDRV_stm32f429i.c:509:18
	str	r0, [r1, #28]
	mov.w	r0, #-16777216
	.loc	1 514 41                @ ../Libraries/Config/GUIDRV_stm32f429i.c:514:41
	eor.w	r0, r0, r2, lsl #24
	.loc	1 512 18                @ ../Libraries/Config/GUIDRV_stm32f429i.c:512:18
	str	r0, [r1, #36]
	movs	r0, #0
	.loc	1 515 18                @ ../Libraries/Config/GUIDRV_stm32f429i.c:515:18
	str	r0, [r1, #52]
	mov.w	r0, #65537
	.loc	1 519 18                @ ../Libraries/Config/GUIDRV_stm32f429i.c:519:18
	str	r0, [r1, #68]
	.loc	1 525 17                @ ../Libraries/Config/GUIDRV_stm32f429i.c:525:17
	ldr	r0, [r1]
	orr	r0, r0, #1
	str	r0, [r1]
	.loc	1 529 17                @ ../Libraries/Config/GUIDRV_stm32f429i.c:529:17
	ldr	r0, [r1]
	.loc	1 529 3 is_stmt 0       @ ../Libraries/Config/GUIDRV_stm32f429i.c:529:3
	lsls	r0, r0, #31
                                        @ implicit-def: $r0
	beq	.LBB22_4
	.p2align	2
.LBB22_2:                               @ =>This Inner Loop Header: Depth=1
	@DEBUG_VALUE: _DMA_MixColors:Intens <- $r2
.Ltmp431:
	.file	7 "C:/Keil\\ARM\\CMSIS\\Include" "core_cmInstr.h"
	.loc	7 302 3 is_stmt 1       @ C:/Keil\ARM\CMSIS\Include\core_cmInstr.h:302:3
	@APP
	wfi
	@NO_APP
.Ltmp432:
	.loc	1 529 17                @ ../Libraries/Config/GUIDRV_stm32f429i.c:529:17
	ldr	r0, [r1]
	.loc	1 529 3 is_stmt 0       @ ../Libraries/Config/GUIDRV_stm32f429i.c:529:3
	lsls	r0, r0, #31
	bne	.LBB22_2
@ %bb.3:
	@DEBUG_VALUE: _DMA_MixColors:Intens <- $r2
	.loc	1 533 10 is_stmt 1      @ ../Libraries/Config/GUIDRV_stm32f429i.c:533:10
	ldr	r0, [sp]
	eor	r0, r0, #-16777216
.LBB22_4:
	@DEBUG_VALUE: _DMA_MixColors:Intens <- $r2
	.loc	1 534 1                 @ ../Libraries/Config/GUIDRV_stm32f429i.c:534:1
	add	sp, #12
	bx	lr
.Ltmp433:
.Lfunc_end22:
	.size	_DMA_MixColors, .Lfunc_end22-_DMA_MixColors
	.cfi_endproc
	.cantunwind
	.fnend
                                        @ -- End function
	.section	.text._LCD_MixColorsBulk,"ax",%progbits
	.p2align	1               @ -- Begin function _LCD_MixColorsBulk
	.type	_LCD_MixColorsBulk,%function
	.code	16                      @ @_LCD_MixColorsBulk
	.thumb_func
_LCD_MixColorsBulk:
.Lfunc_begin23:
	.loc	1 735 0                 @ ../Libraries/Config/GUIDRV_stm32f429i.c:735:0
	.fnstart
	.cfi_startproc
@ %bb.0:
	.save	{r4, r5, r6, r7, r8, r9, r10, r11, lr}
	push.w	{r4, r5, r6, r7, r8, r9, r10, r11, lr}
	.cfi_def_cfa_offset 36
	.cfi_offset lr, -4
	.cfi_offset r11, -8
	.cfi_offset r10, -12
	.cfi_offset r9, -16
	.cfi_offset r8, -20
	.cfi_offset r7, -24
	.cfi_offset r6, -28
	.cfi_offset r5, -32
	.cfi_offset r4, -36
	.pad	#16
	sub	sp, #16
	.cfi_def_cfa_offset 52
	@DEBUG_VALUE: _LCD_MixColorsBulk:pFG <- $r0
	@DEBUG_VALUE: _LCD_MixColorsBulk:pBG <- $r1
	@DEBUG_VALUE: _LCD_MixColorsBulk:pDst <- $r2
	@DEBUG_VALUE: _LCD_MixColorsBulk:OffFG <- $r3
	ldr	r7, [sp, #64]
.Ltmp434:
	@DEBUG_VALUE: _LCD_MixColorsBulk:y <- 0
	@DEBUG_VALUE: _LCD_MixColorsBulk:ySize <- [DW_OP_plus_uconst 64] [$sp+0]
	@DEBUG_VALUE: _LCD_MixColorsBulk:xSize <- [DW_OP_plus_uconst 60] [$sp+0]
	@DEBUG_VALUE: _LCD_MixColorsBulk:OffDest <- [DW_OP_plus_uconst 56] [$sp+0]
	@DEBUG_VALUE: _LCD_MixColorsBulk:OffBG <- [DW_OP_plus_uconst 52] [$sp+0]
	@DEBUG_VALUE: _LCD_MixColorsBulk:OffFG <- $r3
	@DEBUG_VALUE: _LCD_MixColorsBulk:pDst <- $r2
	@DEBUG_VALUE: _LCD_MixColorsBulk:pBG <- $r1
	@DEBUG_VALUE: _LCD_MixColorsBulk:pFG <- $r0
	.loc	1 740 3 prologue_end    @ ../Libraries/Config/GUIDRV_stm32f429i.c:740:3
	cmp	r7, #0
	beq	.LBB23_11
.Ltmp435:
@ %bb.1:
	@DEBUG_VALUE: _LCD_MixColorsBulk:OffBG <- [DW_OP_plus_uconst 52] [$sp+0]
	@DEBUG_VALUE: _LCD_MixColorsBulk:OffDest <- [DW_OP_plus_uconst 56] [$sp+0]
	@DEBUG_VALUE: _LCD_MixColorsBulk:xSize <- [DW_OP_plus_uconst 60] [$sp+0]
	@DEBUG_VALUE: _LCD_MixColorsBulk:ySize <- [DW_OP_plus_uconst 64] [$sp+0]
	@DEBUG_VALUE: _LCD_MixColorsBulk:OffFG <- $r3
	@DEBUG_VALUE: _LCD_MixColorsBulk:pDst <- $r2
	@DEBUG_VALUE: _LCD_MixColorsBulk:pBG <- $r1
	@DEBUG_VALUE: _LCD_MixColorsBulk:pFG <- $r0
	.loc	1 0 3 is_stmt 0         @ ../Libraries/Config/GUIDRV_stm32f429i.c:0:3
	add.w	lr, sp, #52
	ldr	r6, [sp, #68]
	@DEBUG_VALUE: _LCD_MixColorsBulk:Intens <- $r6
.Ltmp436:
	@DEBUG_VALUE: _DMA_MixColorsBulk:NumItems <- $lr
	mov.w	r4, #-16777216
	movw	r12, :lower16:_aBuffer_BG
	movw	r9, :lower16:_aBuffer_DMA2D
	mov.w	r8, #0
	ldm.w	lr, {r5, r7, lr}
.Ltmp437:
	add	r3, lr
.Ltmp438:
	movt	r12, :upper16:_aBuffer_BG
	movt	r9, :upper16:_aBuffer_DMA2D
	add	r7, lr
	.loc	1 740 3                 @ ../Libraries/Config/GUIDRV_stm32f429i.c:740:3
	lsls	r3, r3, #2
	eor.w	r4, r4, r6, lsl #24
	lsls	r7, r7, #2
	str	r3, [sp]                @ 4-byte Spill
	lsl.w	r3, lr, #16
	str	r4, [sp, #12]           @ 4-byte Spill
	str	r7, [sp, #8]            @ 4-byte Spill
	add.w	r7, lr, r5
	movw	r5, #45056
	add.w	r11, r3, #1
	lsls	r3, r6, #24
	movw	r6, :lower16:_aBuffer_FG
.Ltmp439:
	lsls	r7, r7, #2
	add.w	r4, r3, #65536
	movt	r5, #16386
	movt	r6, :upper16:_aBuffer_FG
	str	r7, [sp, #4]            @ 4-byte Spill
.Ltmp440:
	.p2align	2
.LBB23_2:                               @ =>This Loop Header: Depth=1
                                        @     Child Loop BB23_3 Depth 2
                                        @     Child Loop BB23_5 Depth 2
                                        @     Child Loop BB23_7 Depth 2
                                        @     Child Loop BB23_9 Depth 2
	@DEBUG_VALUE: _LCD_MixColorsBulk:OffBG <- [DW_OP_plus_uconst 52] [$sp+0]
	@DEBUG_VALUE: _LCD_MixColorsBulk:OffDest <- [DW_OP_plus_uconst 56] [$sp+0]
	@DEBUG_VALUE: _LCD_MixColorsBulk:xSize <- [DW_OP_plus_uconst 60] [$sp+0]
	@DEBUG_VALUE: _LCD_MixColorsBulk:ySize <- [DW_OP_plus_uconst 64] [$sp+0]
	@DEBUG_VALUE: _LCD_MixColorsBulk:pDst <- $r2
	@DEBUG_VALUE: _LCD_MixColorsBulk:pBG <- $r1
	@DEBUG_VALUE: _LCD_MixColorsBulk:pFG <- $r0
	.loc	1 0 3                   @ ../Libraries/Config/GUIDRV_stm32f429i.c:0:3
	mov.w	r10, #0
.Ltmp441:
	@DEBUG_VALUE: _LCD_MixColorsBulk:y <- $r8
	@DEBUG_VALUE: _LCD_MixColorsBulk:pDst <- undef
	@DEBUG_VALUE: _LCD_MixColorsBulk:pBG <- undef
	@DEBUG_VALUE: _LCD_MixColorsBulk:pFG <- undef
	.p2align	2
.LBB23_3:                               @   Parent Loop BB23_2 Depth=1
                                        @ =>  This Inner Loop Header: Depth=2
	@DEBUG_VALUE: _LCD_MixColorsBulk:y <- $r8
	@DEBUG_VALUE: _LCD_MixColorsBulk:OffBG <- [DW_OP_plus_uconst 52] [$sp+0]
	@DEBUG_VALUE: _LCD_MixColorsBulk:OffDest <- [DW_OP_plus_uconst 56] [$sp+0]
	@DEBUG_VALUE: _LCD_MixColorsBulk:xSize <- [DW_OP_plus_uconst 60] [$sp+0]
	@DEBUG_VALUE: _LCD_MixColorsBulk:ySize <- [DW_OP_plus_uconst 64] [$sp+0]
	@DEBUG_VALUE: _InvertAlpha:pColorSrc <- undef
	@DEBUG_VALUE: _InvertAlpha:NumItems <- undef
	@DEBUG_VALUE: _InvertAlpha:pColorDst <- undef
	@DEBUG_VALUE: _InvertAlpha:pColorSrc <- [DW_OP_plus_uconst 4, DW_OP_stack_value] undef
	.loc	1 432 13 is_stmt 1      @ ../Libraries/Config/GUIDRV_stm32f429i.c:432:13
	ldr.w	r3, [r0, r10, lsl #2]
.Ltmp442:
	@DEBUG_VALUE: _InvertAlpha:Color <- $r3
	.loc	1 433 26                @ ../Libraries/Config/GUIDRV_stm32f429i.c:433:26
	eor	r3, r3, #-16777216
.Ltmp443:
	@DEBUG_VALUE: _InvertAlpha:pColorDst <- [DW_OP_plus_uconst 4, DW_OP_stack_value] undef
	.loc	1 433 18 is_stmt 0      @ ../Libraries/Config/GUIDRV_stm32f429i.c:433:18
	str.w	r3, [r6, r10, lsl #2]
.Ltmp444:
	@DEBUG_VALUE: _InvertAlpha:NumItems <- [DW_OP_constu 1, DW_OP_minus, DW_OP_stack_value] undef
	.loc	1 434 3 is_stmt 1       @ ../Libraries/Config/GUIDRV_stm32f429i.c:434:3
	add.w	r10, r10, #1
	cmp	lr, r10
	bne	.LBB23_3
.Ltmp445:
@ %bb.4:                                @   in Loop: Header=BB23_2 Depth=1
	@DEBUG_VALUE: _LCD_MixColorsBulk:y <- $r8
	@DEBUG_VALUE: _LCD_MixColorsBulk:OffBG <- [DW_OP_plus_uconst 52] [$sp+0]
	@DEBUG_VALUE: _LCD_MixColorsBulk:OffDest <- [DW_OP_plus_uconst 56] [$sp+0]
	@DEBUG_VALUE: _LCD_MixColorsBulk:xSize <- [DW_OP_plus_uconst 60] [$sp+0]
	@DEBUG_VALUE: _LCD_MixColorsBulk:ySize <- [DW_OP_plus_uconst 64] [$sp+0]
	.loc	1 0 3 is_stmt 0         @ ../Libraries/Config/GUIDRV_stm32f429i.c:0:3
	movs	r3, #0
.Ltmp446:
	.p2align	2
.LBB23_5:                               @   Parent Loop BB23_2 Depth=1
                                        @ =>  This Inner Loop Header: Depth=2
	@DEBUG_VALUE: _LCD_MixColorsBulk:y <- $r8
	@DEBUG_VALUE: _LCD_MixColorsBulk:OffBG <- [DW_OP_plus_uconst 52] [$sp+0]
	@DEBUG_VALUE: _LCD_MixColorsBulk:OffDest <- [DW_OP_plus_uconst 56] [$sp+0]
	@DEBUG_VALUE: _LCD_MixColorsBulk:xSize <- [DW_OP_plus_uconst 60] [$sp+0]
	@DEBUG_VALUE: _LCD_MixColorsBulk:ySize <- [DW_OP_plus_uconst 64] [$sp+0]
	@DEBUG_VALUE: _InvertAlpha:pColorSrc <- undef
	@DEBUG_VALUE: _InvertAlpha:NumItems <- undef
	@DEBUG_VALUE: _InvertAlpha:pColorDst <- undef
	@DEBUG_VALUE: _InvertAlpha:pColorSrc <- [DW_OP_plus_uconst 4, DW_OP_stack_value] undef
	.loc	1 432 13 is_stmt 1      @ ../Libraries/Config/GUIDRV_stm32f429i.c:432:13
	ldr.w	r7, [r1, r3, lsl #2]
.Ltmp447:
	@DEBUG_VALUE: _InvertAlpha:Color <- $r7
	.loc	1 433 26                @ ../Libraries/Config/GUIDRV_stm32f429i.c:433:26
	eor	r7, r7, #-16777216
.Ltmp448:
	@DEBUG_VALUE: _InvertAlpha:pColorDst <- [DW_OP_plus_uconst 4, DW_OP_stack_value] undef
	.loc	1 433 18 is_stmt 0      @ ../Libraries/Config/GUIDRV_stm32f429i.c:433:18
	str.w	r7, [r12, r3, lsl #2]
.Ltmp449:
	@DEBUG_VALUE: _InvertAlpha:NumItems <- [DW_OP_constu 1, DW_OP_minus, DW_OP_stack_value] undef
	.loc	1 434 3 is_stmt 1       @ ../Libraries/Config/GUIDRV_stm32f429i.c:434:3
	adds	r3, #1
	cmp	lr, r3
	bne	.LBB23_5
.Ltmp450:
@ %bb.6:                                @   in Loop: Header=BB23_2 Depth=1
	@DEBUG_VALUE: _LCD_MixColorsBulk:y <- $r8
	@DEBUG_VALUE: _LCD_MixColorsBulk:OffBG <- [DW_OP_plus_uconst 52] [$sp+0]
	@DEBUG_VALUE: _LCD_MixColorsBulk:OffDest <- [DW_OP_plus_uconst 56] [$sp+0]
	@DEBUG_VALUE: _LCD_MixColorsBulk:xSize <- [DW_OP_plus_uconst 60] [$sp+0]
	@DEBUG_VALUE: _LCD_MixColorsBulk:ySize <- [DW_OP_plus_uconst 64] [$sp+0]
	.loc	1 639 18                @ ../Libraries/Config/GUIDRV_stm32f429i.c:639:18
	movw	r3, #512
	movt	r3, #2
	str	r3, [r5]
	.loc	1 643 18                @ ../Libraries/Config/GUIDRV_stm32f429i.c:643:18
	str	r6, [r5, #12]
	.loc	1 644 18                @ ../Libraries/Config/GUIDRV_stm32f429i.c:644:18
	str.w	r12, [r5, #20]
	.loc	1 645 18                @ ../Libraries/Config/GUIDRV_stm32f429i.c:645:18
	str.w	r9, [r5, #60]
	.loc	1 649 18                @ ../Libraries/Config/GUIDRV_stm32f429i.c:649:18
	str	r4, [r5, #28]
	.loc	1 652 18                @ ../Libraries/Config/GUIDRV_stm32f429i.c:652:18
	ldr	r3, [sp, #12]           @ 4-byte Reload
	str	r3, [r5, #36]
	.loc	1 655 18                @ ../Libraries/Config/GUIDRV_stm32f429i.c:655:18
	movs	r3, #0
	str	r3, [r5, #52]
	.loc	1 659 18                @ ../Libraries/Config/GUIDRV_stm32f429i.c:659:18
	str.w	r11, [r5, #68]
	.loc	1 663 17                @ ../Libraries/Config/GUIDRV_stm32f429i.c:663:17
	ldr	r3, [r5]
	orr	r3, r3, #1
	str	r3, [r5]
.Ltmp451:
	.p2align	2
.LBB23_7:                               @   Parent Loop BB23_2 Depth=1
                                        @ =>  This Inner Loop Header: Depth=2
	@DEBUG_VALUE: _LCD_MixColorsBulk:y <- $r8
	@DEBUG_VALUE: _LCD_MixColorsBulk:OffBG <- [DW_OP_plus_uconst 52] [$sp+0]
	@DEBUG_VALUE: _LCD_MixColorsBulk:OffDest <- [DW_OP_plus_uconst 56] [$sp+0]
	@DEBUG_VALUE: _LCD_MixColorsBulk:xSize <- [DW_OP_plus_uconst 60] [$sp+0]
	@DEBUG_VALUE: _LCD_MixColorsBulk:ySize <- [DW_OP_plus_uconst 64] [$sp+0]
	.loc	1 665 17                @ ../Libraries/Config/GUIDRV_stm32f429i.c:665:17
	ldr	r3, [r5]
	.loc	1 665 3 is_stmt 0       @ ../Libraries/Config/GUIDRV_stm32f429i.c:665:3
	lsls	r3, r3, #31
	bne	.LBB23_7
.Ltmp452:
@ %bb.8:                                @   in Loop: Header=BB23_2 Depth=1
	@DEBUG_VALUE: _LCD_MixColorsBulk:y <- $r8
	@DEBUG_VALUE: _LCD_MixColorsBulk:OffBG <- [DW_OP_plus_uconst 52] [$sp+0]
	@DEBUG_VALUE: _LCD_MixColorsBulk:OffDest <- [DW_OP_plus_uconst 56] [$sp+0]
	@DEBUG_VALUE: _LCD_MixColorsBulk:xSize <- [DW_OP_plus_uconst 60] [$sp+0]
	@DEBUG_VALUE: _LCD_MixColorsBulk:ySize <- [DW_OP_plus_uconst 64] [$sp+0]
	.loc	1 0 3                   @ ../Libraries/Config/GUIDRV_stm32f429i.c:0:3
	movs	r3, #0
.Ltmp453:
	.p2align	2
.LBB23_9:                               @   Parent Loop BB23_2 Depth=1
                                        @ =>  This Inner Loop Header: Depth=2
	@DEBUG_VALUE: _LCD_MixColorsBulk:y <- $r8
	@DEBUG_VALUE: _LCD_MixColorsBulk:OffBG <- [DW_OP_plus_uconst 52] [$sp+0]
	@DEBUG_VALUE: _LCD_MixColorsBulk:OffDest <- [DW_OP_plus_uconst 56] [$sp+0]
	@DEBUG_VALUE: _LCD_MixColorsBulk:xSize <- [DW_OP_plus_uconst 60] [$sp+0]
	@DEBUG_VALUE: _LCD_MixColorsBulk:ySize <- [DW_OP_plus_uconst 64] [$sp+0]
	@DEBUG_VALUE: _InvertAlpha:pColorSrc <- undef
	@DEBUG_VALUE: _InvertAlpha:NumItems <- undef
	@DEBUG_VALUE: _InvertAlpha:pColorDst <- undef
	@DEBUG_VALUE: _InvertAlpha:pColorSrc <- [DW_OP_plus_uconst 4, DW_OP_stack_value] undef
	.loc	1 432 13 is_stmt 1      @ ../Libraries/Config/GUIDRV_stm32f429i.c:432:13
	ldr.w	r7, [r9, r3, lsl #2]
.Ltmp454:
	@DEBUG_VALUE: _InvertAlpha:Color <- $r7
	.loc	1 433 26                @ ../Libraries/Config/GUIDRV_stm32f429i.c:433:26
	eor	r7, r7, #-16777216
.Ltmp455:
	@DEBUG_VALUE: _InvertAlpha:pColorDst <- [DW_OP_plus_uconst 4, DW_OP_stack_value] undef
	.loc	1 433 18 is_stmt 0      @ ../Libraries/Config/GUIDRV_stm32f429i.c:433:18
	str.w	r7, [r2, r3, lsl #2]
.Ltmp456:
	@DEBUG_VALUE: _InvertAlpha:NumItems <- [DW_OP_constu 1, DW_OP_minus, DW_OP_stack_value] undef
	.loc	1 434 3 is_stmt 1       @ ../Libraries/Config/GUIDRV_stm32f429i.c:434:3
	adds	r3, #1
	cmp	lr, r3
	bne	.LBB23_9
.Ltmp457:
@ %bb.10:                               @   in Loop: Header=BB23_2 Depth=1
	@DEBUG_VALUE: _LCD_MixColorsBulk:y <- $r8
	@DEBUG_VALUE: _LCD_MixColorsBulk:OffBG <- [DW_OP_plus_uconst 52] [$sp+0]
	@DEBUG_VALUE: _LCD_MixColorsBulk:OffDest <- [DW_OP_plus_uconst 56] [$sp+0]
	@DEBUG_VALUE: _LCD_MixColorsBulk:xSize <- [DW_OP_plus_uconst 60] [$sp+0]
	@DEBUG_VALUE: _LCD_MixColorsBulk:ySize <- [DW_OP_plus_uconst 64] [$sp+0]
	.loc	1 740 3                 @ ../Libraries/Config/GUIDRV_stm32f429i.c:740:3
	ldr	r3, [sp, #8]            @ 4-byte Reload
.Ltmp458:
	.loc	1 740 27 is_stmt 0      @ ../Libraries/Config/GUIDRV_stm32f429i.c:740:27
	add.w	r8, r8, #1
.Ltmp459:
	@DEBUG_VALUE: _LCD_MixColorsBulk:y <- $r8
	.loc	1 740 3                 @ ../Libraries/Config/GUIDRV_stm32f429i.c:740:3
	add	r2, r3
	ldr	r3, [sp, #4]            @ 4-byte Reload
	add	r1, r3
	ldr	r3, [sp]                @ 4-byte Reload
	add	r0, r3
	ldr	r3, [sp, #64]
	cmp	r8, r3
	bne	.LBB23_2
.Ltmp460:
.LBB23_11:
	@DEBUG_VALUE: _LCD_MixColorsBulk:OffBG <- [DW_OP_plus_uconst 52] [$sp+0]
	@DEBUG_VALUE: _LCD_MixColorsBulk:OffDest <- [DW_OP_plus_uconst 56] [$sp+0]
	@DEBUG_VALUE: _LCD_MixColorsBulk:xSize <- [DW_OP_plus_uconst 60] [$sp+0]
	@DEBUG_VALUE: _LCD_MixColorsBulk:ySize <- [DW_OP_plus_uconst 64] [$sp+0]
	.loc	1 758 1 is_stmt 1       @ ../Libraries/Config/GUIDRV_stm32f429i.c:758:1
	add	sp, #16
	pop.w	{r4, r5, r6, r7, r8, r9, r10, r11, pc}
.Ltmp461:
.Lfunc_end23:
	.size	_LCD_MixColorsBulk, .Lfunc_end23-_LCD_MixColorsBulk
	.cfi_endproc
	.cantunwind
	.fnend
                                        @ -- End function
	.type	_aPendingBuffer,%object @ @_aPendingBuffer
	.section	.bss._aPendingBuffer,"aw",%nobits
	.p2align	2
_aPendingBuffer:
	.zero	8
	.size	_aPendingBuffer, 8

	.type	_aAddr,%object          @ @_aAddr
	.section	.rodata.cst8,"aM",%progbits,8
	.p2align	2
_aAddr:
	.long	3489660928              @ 0xd0000000
	.long	3490183168              @ 0xd007f800
	.size	_aAddr, 8

	.type	_axSize,%object         @ @_axSize
	.section	.bss._axSize,"aw",%nobits
	.p2align	2
_axSize:
	.zero	8
	.size	_axSize, 8

	.type	_aySize,%object         @ @_aySize
	.section	.bss._aySize,"aw",%nobits
	.p2align	2
_aySize:
	.zero	8
	.size	_aySize, 8

	.type	_aBytesPerPixels,%object @ @_aBytesPerPixels
	.section	.bss._aBytesPerPixels,"aw",%nobits
	.p2align	2
_aBytesPerPixels:
	.zero	8
	.size	_aBytesPerPixels, 8

	.type	_apLayer,%object        @ @_apLayer
	.section	.rodata.cst8,"aM",%progbits,8
	.p2align	2
_apLayer:
	.long	1073834116
	.long	1073834244
	.size	_apLayer, 8

	.type	_aBufferIndex,%object   @ @_aBufferIndex
	.section	.bss._aBufferIndex,"aw",%nobits
	.p2align	2
_aBufferIndex:
	.zero	8
	.size	_aBufferIndex, 8

	.type	_LCD_InitController.xSize,%object @ @_LCD_InitController.xSize
	.section	.bss._LCD_InitController.xSize,"aw",%nobits
	.p2align	2
_LCD_InitController.xSize:
	.long	0                       @ 0x0
	.size	_LCD_InitController.xSize, 4

	.type	_LCD_InitController.ySize,%object @ @_LCD_InitController.ySize
	.section	.bss._LCD_InitController.ySize,"aw",%nobits
	.p2align	2
_LCD_InitController.ySize:
	.long	0                       @ 0x0
	.size	_LCD_InitController.ySize, 4

	.type	_LCD_InitController.Done,%object @ @_LCD_InitController.Done
	.section	.bss._LCD_InitController.Done,"aw",%nobits
	.p2align	2
_LCD_InitController.Done:
	.byte	0                       @ 0x0
	.size	_LCD_InitController.Done, 1

	.type	_aBuffer_DMA2D,%object  @ @_aBuffer_DMA2D
	.section	.bss._aBuffer_DMA2D,"aw",%nobits
	.p2align	2
_aBuffer_DMA2D:
	.zero	7680
	.size	_aBuffer_DMA2D, 7680

	.type	_aBuffer_FG,%object     @ @_aBuffer_FG
	.section	.bss._aBuffer_FG,"aw",%nobits
	.p2align	2
_aBuffer_FG:
	.zero	7680
	.size	_aBuffer_FG, 7680

	.type	_aBuffer_BG,%object     @ @_aBuffer_BG
	.section	.bss._aBuffer_BG,"aw",%nobits
	.p2align	2
_aBuffer_BG:
	.zero	7680
	.size	_aBuffer_BG, 7680

	.file	8 "F:\\SkyDrive\\OtvoreniProjekti\\HotelSaplast\\fw\\KontrolerHotela\\HC070318\\Project" "../Libraries/STemWinLibrary532/inc/GUI_Type.h"
	.section	".note.GNU-stack","",%progbits
	.eabi_attribute	30, 3	@ Tag_ABI_optimization_goals
	.ARM_attribute	16, 1	@ Tag_AV_eba