	.text
	.syntax unified
	.eabi_attribute	67, "2.09"	@ Tag_conformance
	.cpu	cortex-m4
	.eabi_attribute	6, 13	@ Tag_CPU_arch
	.eabi_attribute	7, 77	@ Tag_CPU_arch_profile
	.eabi_attribute	8, 0	@ Tag_ARM_ISA_use
	.eabi_attribute	9, 2	@ Tag_THUMB_ISA_use
	.fpu	fpv4-sp-d16
	.eabi_attribute	27, 1	@ Tag_ABI_HardFP_use
	.eabi_attribute	36, 1	@ Tag_FP_HP_extension
	.eabi_attribute	34, 1	@ Tag_CPU_unaligned_access
	.eabi_attribute	17, 1	@ Tag_ABI_PCS_GOT_use
	.eabi_attribute	20, 2	@ Tag_ABI_FP_denormal
	.eabi_attribute	21, 0	@ Tag_ABI_FP_exceptions
	.eabi_attribute	23, 1	@ Tag_ABI_FP_number_model
	.eabi_attribute	24, 1	@ Tag_ABI_align_needed
	.eabi_attribute	25, 1	@ Tag_ABI_align_preserved
	.eabi_attribute	28, 1	@ Tag_ABI_VFP_args
	.eabi_attribute	38, 1	@ Tag_ABI_FP_16bit_format
	.eabi_attribute	18, 2	@ Tag_ABI_PCS_wchar_t
	.eabi_attribute	26, 1	@ Tag_ABI_enum_size
	.eabi_attribute	14, 0	@ Tag_ABI_PCS_R9_use
	.file	"hotel_room_controller.c"
	.file	1 "F:\\SkyDrive\\OtvoreniProjekti\\HotelSaplast\\fw\\KontrolerHotela\\HC070318\\Project" "../Application/hotel_room_controller.h"
	.file	2 "F:\\SkyDrive\\OtvoreniProjekti\\HotelSaplast\\fw\\KontrolerHotela\\HC070318\\Project" "../Application/hotel_room_controller.c"
	.file	3 "C:\\Keil\\ARM\\ARMCLANG\\Bin\\..\\include" "stdint.h"
	.file	4 "F:\\SkyDrive\\OtvoreniProjekti\\HotelSaplast\\fw\\KontrolerHotela\\HC070318\\Project" "../Libraries/STM32F4xx_StdPeriph_Driver/inc\\stm32f4xx_gpio.h"
	.file	5 "F:\\SkyDrive\\OtvoreniProjekti\\HotelSaplast\\fw\\KontrolerHotela\\HC070318\\Project" "../User/FATFS\\ff.h"
	.file	6 "F:\\SkyDrive\\OtvoreniProjekti\\HotelSaplast\\fw\\KontrolerHotela\\HC070318\\Project" "../Libraries/CMSIS/Device/ST/STM32F4xx/Include\\stm32f4xx.h"
	.file	7 "F:\\SkyDrive\\OtvoreniProjekti\\HotelSaplast\\fw\\KontrolerHotela\\HC070318\\Project" "../User/FATFS/integer.h"
	.file	8 "F:\\SkyDrive\\OtvoreniProjekti\\HotelSaplast\\fw\\KontrolerHotela\\HC070318\\Project" "../Driver/fonts.h"
	.section	.text.delay,"ax",%progbits
	.hidden	delay                   @ -- Begin function delay
	.globl	delay
	.p2align	1
	.type	delay,%function
	.code	16                      @ @delay
	.thumb_func
delay:
.Lfunc_begin0:
	.loc	2 100 0                 @ ../Application/hotel_room_controller.c:100:0
	.fnstart
	.cfi_sections .debug_frame
	.cfi_startproc
@ %bb.0:
	.pad	#8
	sub	sp, #8
	.cfi_def_cfa_offset 8
	str	r0, [sp, #4]
	movs	r0, #0
	movw	r1, #14464
.Ltmp0:
	.loc	2 101 19 prologue_end   @ ../Application/hotel_room_controller.c:101:19
	str	r0, [sp]
	movt	r1, #1
.Ltmp1:
	.loc	2 103 26                @ ../Application/hotel_room_controller.c:103:26
	ldr	r0, [sp, #4]
	.loc	2 103 24 is_stmt 0      @ ../Application/hotel_room_controller.c:103:24
	muls	r0, r1, r0
	b	.LBB0_2
	.p2align	2
.LBB0_1:                                @   in Loop: Header=BB0_2 Depth=1
.Ltmp2:
	.loc	2 103 51                @ ../Application/hotel_room_controller.c:103:51
	ldr	r0, [sp]
	subs	r0, #1
.Ltmp3:
.LBB0_2:                                @ =>This Inner Loop Header: Depth=1
	.loc	2 0 0                   @ ../Application/hotel_room_controller.c:0:0
	str	r0, [sp]
.Ltmp4:
	.loc	2 103 34                @ ../Application/hotel_room_controller.c:103:34
	ldr	r0, [sp]
.Ltmp5:
	.loc	2 103 5                 @ ../Application/hotel_room_controller.c:103:5
	cmp	r0, #0
	bne	.LBB0_1
.Ltmp6:
@ %bb.3:
	.loc	2 106 1 is_stmt 1       @ ../Application/hotel_room_controller.c:106:1
	add	sp, #8
	bx	lr
.Ltmp7:
.Lfunc_end0:
	.size	delay, .Lfunc_end0-delay
	.cfi_endproc
	.cantunwind
	.fnend
                                        @ -- End function
	.section	.text.RUBICON_Init,"ax",%progbits
	.hidden	RUBICON_Init            @ -- Begin function RUBICON_Init
	.globl	RUBICON_Init
	.p2align	1
	.type	RUBICON_Init,%function
	.code	16                      @ @RUBICON_Init
	.thumb_func
RUBICON_Init:
.Lfunc_begin1:
	.loc	2 109 0                 @ ../Application/hotel_room_controller.c:109:0
	.fnstart
	.cfi_startproc
@ %bb.0:
	.save	{r4, r5, r6, r7, r8, r9, r10, lr}
	push.w	{r4, r5, r6, r7, r8, r9, r10, lr}
	.cfi_def_cfa_offset 32
	.cfi_offset lr, -4
	.cfi_offset r10, -8
	.cfi_offset r9, -12
	.cfi_offset r8, -16
	.cfi_offset r7, -20
	.cfi_offset r6, -24
	.cfi_offset r5, -28
	.cfi_offset r4, -32
.Ltmp8:
	.loc	2 116 2 prologue_end    @ ../Application/hotel_room_controller.c:116:2
	bl	RS485ModeGpio_Init
	movw	r0, #4096
	.loc	2 117 2                 @ ../Application/hotel_room_controller.c:117:2
	movs	r1, #16
	movs	r2, #0
	movs	r5, #16
	movs	r6, #0
	movt	r0, #16386
	bl	GPIO_WriteBit
	.loc	2 119 19                @ ../Application/hotel_room_controller.c:119:19
	movw	r4, :lower16:rs485_bus_status
	mov.w	r8, #1
	movt	r4, :upper16:rs485_bus_status
	strb.w	r8, [r4]
	.loc	2 120 21                @ ../Application/hotel_room_controller.c:120:21
	bl	RUBICON_CreateAddressList
	.loc	2 121 5                 @ ../Application/hotel_room_controller.c:121:5
	cmp	r0, #1
	mov.w	r0, #1
	.loc	2 124 2                 @ ../Application/hotel_room_controller.c:124:2
	mov.w	r1, #256
	mov.w	r7, #256
	.loc	2 121 5                 @ ../Application/hotel_room_controller.c:121:5
	it	eq
	moveq	r0, #3
.Ltmp9:
	.loc	2 0 0 is_stmt 0         @ ../Application/hotel_room_controller.c:0:0
	strb	r0, [r4]
.Ltmp10:
	.loc	2 124 2 is_stmt 1       @ ../Application/hotel_room_controller.c:124:2
	movw	r0, :lower16:rx_buffer
	movt	r0, :upper16:rx_buffer
	bl	ClearBuffer
	.loc	2 125 2                 @ ../Application/hotel_room_controller.c:125:2
	movw	r0, :lower16:tx_buffer
	mov.w	r1, #256
	movt	r0, :upper16:tx_buffer
	bl	ClearBuffer
	.loc	2 126 2                 @ ../Application/hotel_room_controller.c:126:2
	movw	r4, :lower16:i2c_ee_buffer
	mov.w	r1, #512
	movt	r4, :upper16:i2c_ee_buffer
	mov	r0, r4
	bl	ClearBuffer
	.loc	2 127 2                 @ ../Application/hotel_room_controller.c:127:2
	movw	r0, :lower16:rubicon_ctrl_buffer
	mov.w	r1, #512
	movt	r0, :upper16:rubicon_ctrl_buffer
	bl	ClearBuffer
	.loc	2 131 24                @ ../Application/hotel_room_controller.c:131:24
	movw	r0, :lower16:eRubiconTransferState
	movs	r1, #8
	.loc	2 150 39                @ ../Application/hotel_room_controller.c:150:39
	movw	r10, :lower16:RUBICON_LogMemory
	.loc	2 177 2                 @ ../Application/hotel_room_controller.c:177:2
	movs	r2, #16
	.loc	2 131 24                @ ../Application/hotel_room_controller.c:131:24
	movt	r0, :upper16:eRubiconTransferState
	.loc	2 150 39                @ ../Application/hotel_room_controller.c:150:39
	movt	r10, :upper16:RUBICON_LogMemory
	.loc	2 131 24                @ ../Application/hotel_room_controller.c:131:24
	strb.w	r8, [r0]
	.loc	2 128 27                @ ../Application/hotel_room_controller.c:128:27
	movw	r0, :lower16:rubicon_address_list_cnt
	movt	r0, :upper16:rubicon_address_list_cnt
	strh	r6, [r0]
	.loc	2 132 17                @ ../Application/hotel_room_controller.c:132:17
	movw	r0, :lower16:eRubiconUpdate
	movt	r0, :upper16:eRubiconUpdate
	strb	r1, [r0]
	.loc	2 133 21                @ ../Application/hotel_room_controller.c:133:21
	movw	r0, :lower16:eRubiconTimeUpdate
	movs	r1, #3
	movt	r0, :upper16:eRubiconTimeUpdate
	strb	r1, [r0]
	.loc	2 136 40                @ ../Application/hotel_room_controller.c:136:40
	movw	r0, :lower16:RUBICON_FileUpdatePacket
	movs	r1, #40
	movt	r0, :upper16:RUBICON_FileUpdatePacket
	strb	r1, [r0, #1]
	.loc	2 138 44                @ ../Application/hotel_room_controller.c:138:44
	movw	r0, :lower16:RUBICON_FirmwareUpdatePacket
	movs	r1, #30
	movt	r0, :upper16:RUBICON_FirmwareUpdatePacket
	strh.w	r5, [r0, #1]
	.loc	2 140 48                @ ../Application/hotel_room_controller.c:140:48
	strd	r6, r6, [r0, #4]
	strd	r6, r6, [r0, #12]
	.loc	2 145 45                @ ../Application/hotel_room_controller.c:145:45
	movw	r0, :lower16:RUBICON_LogListTransfer
	.loc	2 150 39                @ ../Application/hotel_room_controller.c:150:39
	strb.w	r6, [r10]
.Ltmp11:
	@DEBUG_VALUE: RUBICON_Init:temp_log_list_scan <- 256
	.loc	2 151 33                @ ../Application/hotel_room_controller.c:151:33
	strh.w	r6, [r10, #14]
	str.w	r6, [r10, #10]
	str.w	r6, [r10, #6]
	str.w	r6, [r10, #2]
	.loc	2 145 45                @ ../Application/hotel_room_controller.c:145:45
	movt	r0, :upper16:RUBICON_LogListTransfer
	.loc	2 148 51                @ ../Application/hotel_room_controller.c:148:51
	str	r6, [r0, #4]
	.loc	2 147 39                @ ../Application/hotel_room_controller.c:147:39
	strb	r6, [r0, #2]
	.loc	2 145 45                @ ../Application/hotel_room_controller.c:145:45
	strh	r1, [r0]
	.loc	2 177 2                 @ ../Application/hotel_room_controller.c:177:2
	movs	r0, #161
	mov.w	r1, #256
	bl	I2C_EERPOM_ReadBytes16
.Ltmp12:
	.loc	2 180 6                 @ ../Application/hotel_room_controller.c:180:6
	ldrb	r0, [r4]
	.loc	2 180 36 is_stmt 0      @ ../Application/hotel_room_controller.c:180:36
	ldrb	r1, [r4, #1]
	.loc	2 180 32                @ ../Application/hotel_room_controller.c:180:32
	orrs	r0, r1
	beq	.LBB1_5
@ %bb.1:
	.loc	2 0 32                  @ ../Application/hotel_room_controller.c:0:32
	movw	r8, #65520
	movs	r0, #4
.Ltmp13:
	.loc	2 268 3 is_stmt 1       @ ../Application/hotel_room_controller.c:268:3
	mov.w	r1, #272
	movs	r2, #16
	movt	r8, #1
	.loc	2 262 39                @ ../Application/hotel_room_controller.c:262:39
	strd	r7, r8, [r10, #4]
	.loc	2 264 38                @ ../Application/hotel_room_controller.c:264:38
	str.w	r7, [r10, #12]
	.loc	2 261 40                @ ../Application/hotel_room_controller.c:261:40
	strb.w	r0, [r10]
	.loc	2 265 3                 @ ../Application/hotel_room_controller.c:265:3
	ldrh.w	r0, [r10, #2]
	adds	r0, #1
	strh.w	r0, [r10, #2]
.Ltmp14:
	@DEBUG_VALUE: RUBICON_Init:temp_log_list_scan <- 272
	.loc	2 268 3                 @ ../Application/hotel_room_controller.c:268:3
	movs	r0, #161
	bl	I2C_EERPOM_ReadBytes16
	.p2align	2
.LBB1_2:                                @ =>This Inner Loop Header: Depth=1
.Ltmp15:
	@DEBUG_VALUE: RUBICON_Init:temp_log_list_scan <- undef
	.loc	2 273 8                 @ ../Application/hotel_room_controller.c:273:8
	ldrb	r0, [r4]
	.loc	2 273 38 is_stmt 0      @ ../Application/hotel_room_controller.c:273:38
	ldrb	r1, [r4, #1]
	.loc	2 273 34                @ ../Application/hotel_room_controller.c:273:34
	orrs	r0, r1
	beq	.LBB1_9
@ %bb.3:                                @   in Loop: Header=BB1_2 Depth=1
.Ltmp16:
	.loc	2 283 5 is_stmt 1       @ ../Application/hotel_room_controller.c:283:5
	ldrh.w	r0, [r10, #2]
	add.w	r5, r7, #32
.Ltmp17:
	.loc	2 0 0 is_stmt 0         @ ../Application/hotel_room_controller.c:0:0
	movs	r2, #16
.Ltmp18:
	.loc	2 291 6 is_stmt 1       @ ../Application/hotel_room_controller.c:291:6
	uxth	r1, r5
.Ltmp19:
	.loc	2 285 8                 @ ../Application/hotel_room_controller.c:285:8
	cmp.w	r6, r5, lsr #16
	.loc	2 283 5                 @ ../Application/hotel_room_controller.c:283:5
	add.w	r0, r0, #1
	strh.w	r0, [r10, #2]
.Ltmp20:
	.loc	2 291 6                 @ ../Application/hotel_room_controller.c:291:6
	ite	ne
	movne	r0, #163
.Ltmp21:
	.loc	2 287 6                 @ ../Application/hotel_room_controller.c:287:6
	moveq	r0, #161
.Ltmp22:
	.loc	2 0 0 is_stmt 0         @ ../Application/hotel_room_controller.c:0:0
	bl	I2C_EERPOM_ReadBytes16
.Ltmp23:
	@DEBUG_VALUE: RUBICON_Init:temp_log_list_scan <- [DW_OP_plus_uconst 16, DW_OP_stack_value] undef
	.loc	2 271 28 is_stmt 1      @ ../Application/hotel_room_controller.c:271:28
	add.w	r0, r8, #1
	adds	r7, #16
	.loc	2 271 3 is_stmt 0       @ ../Application/hotel_room_controller.c:271:3
	cmp	r5, r0
	blo	.LBB1_2
@ %bb.4:
	@DEBUG_VALUE: RUBICON_Init:temp_log_list_scan <- [DW_OP_plus_uconst 16, DW_OP_stack_value] undef
.Ltmp24:
	.loc	2 296 24 is_stmt 1      @ ../Application/hotel_room_controller.c:296:24
	ldrb.w	r0, [r10]
.Ltmp25:
	.loc	2 296 6 is_stmt 0       @ ../Application/hotel_room_controller.c:296:6
	cmp	r0, #5
.Ltmp26:
	.loc	2 337 1 is_stmt 1       @ ../Application/hotel_room_controller.c:337:1
	it	ne
	popne.w	{r4, r5, r6, r7, r8, r9, r10, pc}
	add.w	r6, r7, #16
	b	.LBB1_10
.LBB1_5:
.Ltmp27:
	.loc	2 188 3                 @ ../Application/hotel_room_controller.c:188:3
	movs	r0, #161
	mov.w	r1, #272
	movs	r2, #16
	.loc	2 183 39                @ ../Application/hotel_room_controller.c:183:39
	strd	r7, r7, [r10, #4]
	.loc	2 185 38                @ ../Application/hotel_room_controller.c:185:38
	str.w	r7, [r10, #12]
	.loc	2 182 40                @ ../Application/hotel_room_controller.c:182:40
	strb.w	r8, [r10]
.Ltmp28:
	@DEBUG_VALUE: RUBICON_Init:temp_log_list_scan <- 272
	.loc	2 0 40 is_stmt 0        @ ../Application/hotel_room_controller.c:0:40
	mov.w	r7, #272
	.loc	2 188 3 is_stmt 1       @ ../Application/hotel_room_controller.c:188:3
	bl	I2C_EERPOM_ReadBytes16
	movw	r8, #65520
	movt	r8, #1
	.p2align	2
.LBB1_6:                                @ =>This Inner Loop Header: Depth=1
.Ltmp29:
	@DEBUG_VALUE: RUBICON_Init:temp_log_list_scan <- $r7
	.loc	2 193 8                 @ ../Application/hotel_room_controller.c:193:8
	ldrb	r0, [r4]
	.loc	2 193 38 is_stmt 0      @ ../Application/hotel_room_controller.c:193:38
	ldrb	r1, [r4, #1]
	.loc	2 193 34                @ ../Application/hotel_room_controller.c:193:34
	orrs	r0, r1
	bne	.LBB1_14
.Ltmp30:
@ %bb.7:                                @   in Loop: Header=BB1_6 Depth=1
	@DEBUG_VALUE: RUBICON_Init:temp_log_list_scan <- $r7
	.loc	2 203 24 is_stmt 1      @ ../Application/hotel_room_controller.c:203:24
	adds	r7, #16
.Ltmp31:
	@DEBUG_VALUE: RUBICON_Init:temp_log_list_scan <- $r7
	.loc	2 0 0 is_stmt 0         @ ../Application/hotel_room_controller.c:0:0
	movs	r2, #16
.Ltmp32:
	.loc	2 211 6 is_stmt 1       @ ../Application/hotel_room_controller.c:211:6
	uxth	r1, r7
.Ltmp33:
	.loc	2 205 8                 @ ../Application/hotel_room_controller.c:205:8
	cmp.w	r6, r7, lsr #16
.Ltmp34:
	.loc	2 211 6                 @ ../Application/hotel_room_controller.c:211:6
	ite	ne
	movne	r0, #163
.Ltmp35:
	.loc	2 207 6                 @ ../Application/hotel_room_controller.c:207:6
	moveq	r0, #161
.Ltmp36:
	.loc	2 0 0 is_stmt 0         @ ../Application/hotel_room_controller.c:0:0
	bl	I2C_EERPOM_ReadBytes16
.Ltmp37:
	.loc	2 191 28 is_stmt 1      @ ../Application/hotel_room_controller.c:191:28
	add.w	r0, r8, #1
	.loc	2 191 3 is_stmt 0       @ ../Application/hotel_room_controller.c:191:3
	cmp	r7, r0
	blo	.LBB1_6
.Ltmp38:
@ %bb.8:
	@DEBUG_VALUE: RUBICON_Init:temp_log_list_scan <- $r7
	.loc	2 216 24 is_stmt 1      @ ../Application/hotel_room_controller.c:216:24
	ldrb.w	r0, [r10]
.Ltmp39:
	.loc	2 216 6 is_stmt 0       @ ../Application/hotel_room_controller.c:216:6
	cmp	r0, #2
	beq	.LBB1_15
	b	.LBB1_19
.Ltmp40:
.LBB1_9:
	@DEBUG_VALUE: RUBICON_Init:temp_log_list_scan <- undef
	.loc	2 0 6                   @ ../Application/hotel_room_controller.c:0:6
	movs	r0, #5
.Ltmp41:
	.loc	2 277 40 is_stmt 1      @ ../Application/hotel_room_controller.c:277:40
	add.w	r6, r7, #16
	.loc	2 275 42                @ ../Application/hotel_room_controller.c:275:42
	strb.w	r0, [r10]
	.loc	2 276 40                @ ../Application/hotel_room_controller.c:276:40
	strd	r7, r6, [r10, #8]
.Ltmp42:
.LBB1_10:
	.loc	2 298 23                @ ../Application/hotel_room_controller.c:298:23
	add.w	r0, r6, #16
.Ltmp43:
	@DEBUG_VALUE: RUBICON_Init:temp_log_list_scan <- $r0
	.loc	2 300 26                @ ../Application/hotel_room_controller.c:300:26
	add.w	r7, r8, #1
.Ltmp44:
	.loc	2 300 7 is_stmt 0       @ ../Application/hotel_room_controller.c:300:7
	cmp	r0, r7
	bhs	.LBB1_19
.Ltmp45:
@ %bb.11:
	@DEBUG_VALUE: RUBICON_Init:temp_log_list_scan <- $r0
	.loc	2 0 7                   @ ../Application/hotel_room_controller.c:0:7
	movs	r1, #0
.Ltmp46:
	movs	r2, #16
.Ltmp47:
	.loc	2 302 8 is_stmt 1       @ ../Application/hotel_room_controller.c:302:8
	cmp.w	r1, r0, lsr #16
.Ltmp48:
	.loc	2 308 6                 @ ../Application/hotel_room_controller.c:308:6
	uxth	r1, r0
	ite	ne
	movne	r0, #163
.Ltmp49:
	.loc	2 304 6                 @ ../Application/hotel_room_controller.c:304:6
	moveq	r0, #161
.Ltmp50:
	.loc	2 0 0 is_stmt 0         @ ../Application/hotel_room_controller.c:0:0
	bl	I2C_EERPOM_ReadBytes16
	mov.w	r9, #0
.Ltmp51:
	.p2align	2
.LBB1_12:                               @ =>This Inner Loop Header: Depth=1
	@DEBUG_VALUE: RUBICON_Init:temp_log_list_scan <- undef
	.loc	2 313 10 is_stmt 1      @ ../Application/hotel_room_controller.c:313:10
	ldrb	r0, [r4]
	.loc	2 313 40 is_stmt 0      @ ../Application/hotel_room_controller.c:313:40
	ldrb	r1, [r4, #1]
	.loc	2 313 36                @ ../Application/hotel_room_controller.c:313:36
	orrs	r0, r1
	bne	.LBB1_20
@ %bb.13:                               @   in Loop: Header=BB1_12 Depth=1
.Ltmp52:
	.loc	2 324 29 is_stmt 1      @ ../Application/hotel_room_controller.c:324:29
	add.w	r5, r6, #32
	.loc	2 0 0 is_stmt 0         @ ../Application/hotel_room_controller.c:0:0
	movs	r2, #16
.Ltmp53:
	.loc	2 330 8 is_stmt 1       @ ../Application/hotel_room_controller.c:330:8
	uxth	r1, r5
.Ltmp54:
	.loc	2 324 10                @ ../Application/hotel_room_controller.c:324:10
	cmp.w	r9, r5, lsr #16
.Ltmp55:
	.loc	2 330 8                 @ ../Application/hotel_room_controller.c:330:8
	ite	ne
	movne	r0, #163
.Ltmp56:
	.loc	2 326 8                 @ ../Application/hotel_room_controller.c:326:8
	moveq	r0, #161
.Ltmp57:
	.loc	2 0 0 is_stmt 0         @ ../Application/hotel_room_controller.c:0:0
	bl	I2C_EERPOM_ReadBytes16
.Ltmp58:
	@DEBUG_VALUE: RUBICON_Init:temp_log_list_scan <- [DW_OP_plus_uconst 16, DW_OP_stack_value] undef
	.loc	2 311 30 is_stmt 1      @ ../Application/hotel_room_controller.c:311:30
	adds	r6, #16
	.loc	2 311 5 is_stmt 0       @ ../Application/hotel_room_controller.c:311:5
	cmp	r5, r7
	blo	.LBB1_12
	b	.LBB1_19
.Ltmp59:
.LBB1_14:
	@DEBUG_VALUE: RUBICON_Init:temp_log_list_scan <- $r7
	.loc	2 0 5                   @ ../Application/hotel_room_controller.c:0:5
	movs	r0, #2
.Ltmp60:
	.loc	2 196 41 is_stmt 1      @ ../Application/hotel_room_controller.c:196:41
	strd	r7, r8, [r10, #4]
	.loc	2 195 42                @ ../Application/hotel_room_controller.c:195:42
	strb.w	r0, [r10]
	.loc	2 198 5                 @ ../Application/hotel_room_controller.c:198:5
	ldrh.w	r0, [r10, #2]
	adds	r0, #1
	strh.w	r0, [r10, #2]
.Ltmp61:
.LBB1_15:
	@DEBUG_VALUE: RUBICON_Init:temp_log_list_scan <- $r7
	.loc	2 218 23                @ ../Application/hotel_room_controller.c:218:23
	add.w	r0, r7, #16
.Ltmp62:
	@DEBUG_VALUE: RUBICON_Init:temp_log_list_scan <- $r0
	.loc	2 220 26                @ ../Application/hotel_room_controller.c:220:26
	add.w	r6, r8, #1
.Ltmp63:
	.loc	2 220 7 is_stmt 0       @ ../Application/hotel_room_controller.c:220:7
	cmp	r0, r6
	bhs	.LBB1_19
.Ltmp64:
@ %bb.16:
	@DEBUG_VALUE: RUBICON_Init:temp_log_list_scan <- $r0
	.loc	2 0 7                   @ ../Application/hotel_room_controller.c:0:7
	movs	r1, #0
.Ltmp65:
	movs	r2, #16
.Ltmp66:
	.loc	2 222 8 is_stmt 1       @ ../Application/hotel_room_controller.c:222:8
	cmp.w	r1, r0, lsr #16
.Ltmp67:
	.loc	2 228 6                 @ ../Application/hotel_room_controller.c:228:6
	uxth	r1, r0
	ite	ne
	movne	r0, #163
.Ltmp68:
	.loc	2 224 6                 @ ../Application/hotel_room_controller.c:224:6
	moveq	r0, #161
.Ltmp69:
	.loc	2 0 0 is_stmt 0         @ ../Application/hotel_room_controller.c:0:0
	bl	I2C_EERPOM_ReadBytes16
	mov.w	r8, #0
.Ltmp70:
	.p2align	2
.LBB1_17:                               @ =>This Inner Loop Header: Depth=1
	@DEBUG_VALUE: RUBICON_Init:temp_log_list_scan <- undef
	.loc	2 233 10 is_stmt 1      @ ../Application/hotel_room_controller.c:233:10
	ldrb	r0, [r4]
	.loc	2 233 40 is_stmt 0      @ ../Application/hotel_room_controller.c:233:40
	ldrb	r1, [r4, #1]
	.loc	2 233 36                @ ../Application/hotel_room_controller.c:233:36
	orrs	r0, r1
	beq	.LBB1_21
@ %bb.18:                               @   in Loop: Header=BB1_17 Depth=1
.Ltmp71:
	.loc	2 243 7 is_stmt 1       @ ../Application/hotel_room_controller.c:243:7
	ldrh.w	r0, [r10, #2]
	add.w	r5, r7, #32
.Ltmp72:
	.loc	2 0 0 is_stmt 0         @ ../Application/hotel_room_controller.c:0:0
	movs	r2, #16
.Ltmp73:
	.loc	2 251 8 is_stmt 1       @ ../Application/hotel_room_controller.c:251:8
	uxth	r1, r5
.Ltmp74:
	.loc	2 245 10                @ ../Application/hotel_room_controller.c:245:10
	cmp.w	r8, r5, lsr #16
	.loc	2 243 7                 @ ../Application/hotel_room_controller.c:243:7
	add.w	r0, r0, #1
	strh.w	r0, [r10, #2]
.Ltmp75:
	.loc	2 251 8                 @ ../Application/hotel_room_controller.c:251:8
	ite	ne
	movne	r0, #163
.Ltmp76:
	.loc	2 247 8                 @ ../Application/hotel_room_controller.c:247:8
	moveq	r0, #161
.Ltmp77:
	.loc	2 0 0 is_stmt 0         @ ../Application/hotel_room_controller.c:0:0
	bl	I2C_EERPOM_ReadBytes16
.Ltmp78:
	@DEBUG_VALUE: RUBICON_Init:temp_log_list_scan <- [DW_OP_plus_uconst 16, DW_OP_stack_value] undef
	.loc	2 231 30 is_stmt 1      @ ../Application/hotel_room_controller.c:231:30
	adds	r7, #16
	.loc	2 231 5 is_stmt 0       @ ../Application/hotel_room_controller.c:231:5
	cmp	r5, r6
	blo	.LBB1_17
.Ltmp79:
.LBB1_19:
	.loc	2 337 1 is_stmt 1       @ ../Application/hotel_room_controller.c:337:1
	pop.w	{r4, r5, r6, r7, r8, r9, r10, pc}
.LBB1_20:
.Ltmp80:
	@DEBUG_VALUE: RUBICON_Init:temp_log_list_scan <- undef
	.loc	2 0 1 is_stmt 0         @ ../Application/hotel_room_controller.c:0:1
	movs	r0, #6
.Ltmp81:
	.loc	2 315 44 is_stmt 1      @ ../Application/hotel_room_controller.c:315:44
	strb.w	r0, [r10]
	.loc	2 316 43                @ ../Application/hotel_room_controller.c:316:43
	add.w	r0, r6, #16
	str.w	r0, [r10, #4]
	.loc	2 317 93                @ ../Application/hotel_room_controller.c:317:93
	sub.w	r0, r8, r6
	.loc	2 317 38 is_stmt 0      @ ../Application/hotel_room_controller.c:317:38
	ldrh.w	r1, [r10, #2]
	add.w	r0, r1, r0, lsr #4
	strh.w	r0, [r10, #2]
.Ltmp82:
	.loc	2 337 1 is_stmt 1       @ ../Application/hotel_room_controller.c:337:1
	pop.w	{r4, r5, r6, r7, r8, r9, r10, pc}
.LBB1_21:
	@DEBUG_VALUE: RUBICON_Init:temp_log_list_scan <- undef
	.loc	2 0 1 is_stmt 0         @ ../Application/hotel_room_controller.c:0:1
	movs	r0, #3
.Ltmp83:
	.loc	2 235 44 is_stmt 1      @ ../Application/hotel_room_controller.c:235:44
	strb.w	r0, [r10]
	.loc	2 237 42                @ ../Application/hotel_room_controller.c:237:42
	add.w	r0, r7, #16
	.loc	2 236 42                @ ../Application/hotel_room_controller.c:236:42
	strd	r7, r0, [r10, #8]
.Ltmp84:
	.loc	2 337 1                 @ ../Application/hotel_room_controller.c:337:1
	pop.w	{r4, r5, r6, r7, r8, r9, r10, pc}
.Ltmp85:
.Lfunc_end1:
	.size	RUBICON_Init, .Lfunc_end1-RUBICON_Init
	.cfi_endproc
	.cantunwind
	.fnend
                                        @ -- End function
	.section	.text.RUBICON_CreateAddressList,"ax",%progbits
	.hidden	RUBICON_CreateAddressList @ -- Begin function RUBICON_CreateAddressList
	.globl	RUBICON_CreateAddressList
	.p2align	1
	.type	RUBICON_CreateAddressList,%function
	.code	16                      @ @RUBICON_CreateAddressList
	.thumb_func
RUBICON_CreateAddressList:
.Lfunc_begin2:
	.loc	2 1509 0                @ ../Application/hotel_room_controller.c:1509:0
	.fnstart
	.cfi_startproc
@ %bb.0:
	.save	{r4, r5, r6, r7, r8, r9, r10, r11, lr}
	push.w	{r4, r5, r6, r7, r8, r9, r10, r11, lr}
	.cfi_def_cfa_offset 36
	.cfi_offset lr, -4
	.cfi_offset r11, -8
	.cfi_offset r10, -12
	.cfi_offset r9, -16
	.cfi_offset r8, -20
	.cfi_offset r7, -24
	.cfi_offset r6, -28
	.cfi_offset r5, -32
	.cfi_offset r4, -36
	.pad	#12
	sub	sp, #12
	.cfi_def_cfa_offset 48
.Ltmp86:
	.loc	2 1519 27 prologue_end  @ ../Application/hotel_room_controller.c:1519:27
	movw	r1, :lower16:rubicon_address_list_cnt
	movs	r0, #0
	.loc	2 1518 28               @ ../Application/hotel_room_controller.c:1518:28
	movw	r9, :lower16:rubicon_address_list_size
	.loc	2 1517 23               @ ../Application/hotel_room_controller.c:1517:23
	movw	r5, :lower16:rubicon_address_list
	.loc	2 1521 39               @ ../Application/hotel_room_controller.c:1521:39
	movw	r10, :lower16:rubicon_firmware_update_address_list
	.loc	2 1522 44               @ ../Application/hotel_room_controller.c:1522:44
	movw	r8, :lower16:rubicon_firmware_update_address_list_size
	.loc	2 1525 36               @ ../Application/hotel_room_controller.c:1525:36
	movw	r7, :lower16:rubicon_image_update_address_list
	.loc	2 1534 2                @ ../Application/hotel_room_controller.c:1534:2
	movs	r2, #4
	.loc	2 1519 27               @ ../Application/hotel_room_controller.c:1519:27
	movt	r1, :upper16:rubicon_address_list_cnt
	.loc	2 1518 28               @ ../Application/hotel_room_controller.c:1518:28
	movt	r9, :upper16:rubicon_address_list_size
	.loc	2 1517 23               @ ../Application/hotel_room_controller.c:1517:23
	movt	r5, :upper16:rubicon_address_list
	.loc	2 1521 39               @ ../Application/hotel_room_controller.c:1521:39
	movt	r10, :upper16:rubicon_firmware_update_address_list
	.loc	2 1522 44               @ ../Application/hotel_room_controller.c:1522:44
	movt	r8, :upper16:rubicon_firmware_update_address_list_size
	.loc	2 1525 36               @ ../Application/hotel_room_controller.c:1525:36
	movt	r7, :upper16:rubicon_image_update_address_list
	.loc	2 1519 27               @ ../Application/hotel_room_controller.c:1519:27
	strh	r0, [r1]
	.loc	2 1523 35               @ ../Application/hotel_room_controller.c:1523:35
	movw	r1, :lower16:rubicon_firmware_update_list_cnt
	.loc	2 1518 28               @ ../Application/hotel_room_controller.c:1518:28
	strh.w	r0, [r9]
	.loc	2 1517 23               @ ../Application/hotel_room_controller.c:1517:23
	str	r0, [r5]
	.loc	2 1521 39               @ ../Application/hotel_room_controller.c:1521:39
	str.w	r0, [r10]
	.loc	2 1522 44               @ ../Application/hotel_room_controller.c:1522:44
	strh.w	r0, [r8]
	.loc	2 1525 36               @ ../Application/hotel_room_controller.c:1525:36
	str	r0, [r7]
	.loc	2 1523 35               @ ../Application/hotel_room_controller.c:1523:35
	movt	r1, :upper16:rubicon_firmware_update_list_cnt
	strh	r0, [r1]
	.loc	2 1526 41               @ ../Application/hotel_room_controller.c:1526:41
	movw	r1, :lower16:rubicon_image_update_address_list_size
	movt	r1, :upper16:rubicon_image_update_address_list_size
	strh	r0, [r1]
	.loc	2 1527 32               @ ../Application/hotel_room_controller.c:1527:32
	movw	r1, :lower16:rubicon_image_update_list_cnt
	movt	r1, :upper16:rubicon_image_update_list_cnt
	strh	r0, [r1]
.Ltmp87:
	@DEBUG_VALUE: RUBICON_CreateAddressList:bufcnt <- 0
	.loc	2 1530 37               @ ../Application/hotel_room_controller.c:1530:37
	strd	r0, r0, [sp]
.Ltmp88:
	@DEBUG_VALUE: RUBICON_CreateAddressList:flashadd <- 65532
	@DEBUG_VALUE: RUBICON_CreateAddressList:bufcnt <- [DW_OP_plus_uconst 1, DW_OP_stack_value] undef
	.loc	2 0 37 is_stmt 0        @ ../Application/hotel_room_controller.c:0:37
	mov	r1, sp
	.loc	2 1534 2 is_stmt 1      @ ../Application/hotel_room_controller.c:1534:2
	movw	r0, #65532
	bl	W25Qxx_Read
	.loc	2 1535 70               @ ../Application/hotel_room_controller.c:1535:70
	ldr	r0, [sp]
	rev.w	r11, r0
.Ltmp89:
	@DEBUG_VALUE: RUBICON_CreateAddressList:rcaddcnt <- $r11
	.loc	2 1537 36               @ ../Application/hotel_room_controller.c:1537:36
	lsl.w	r0, r11, #1
	.loc	2 1537 25 is_stmt 0     @ ../Application/hotel_room_controller.c:1537:25
	uxth	r6, r0
	mov	r0, r6
	bl	mem_malloc
	.loc	2 1538 5 is_stmt 1      @ ../Application/hotel_room_controller.c:1538:5
	cmp	r0, #0
	.loc	2 1537 23               @ ../Application/hotel_room_controller.c:1537:23
	str	r0, [r5]
	.loc	2 1538 5                @ ../Application/hotel_room_controller.c:1538:5
	beq	.LBB2_10
.Ltmp90:
@ %bb.1:
	@DEBUG_VALUE: RUBICON_CreateAddressList:rcaddcnt <- $r11
	.loc	2 0 0 is_stmt 0         @ ../Application/hotel_room_controller.c:0:0
	mov	r4, r0
.Ltmp91:
	@DEBUG_VALUE: RUBICON_CreateAddressList:rubiconAddListTmp <- $r4
	.loc	2 1542 41 is_stmt 1     @ ../Application/hotel_room_controller.c:1542:41
	mov	r0, r6
	.loc	2 1539 28               @ ../Application/hotel_room_controller.c:1539:28
	strh.w	r11, [r9]
	.loc	2 1542 41               @ ../Application/hotel_room_controller.c:1542:41
	bl	mem_malloc
	.loc	2 1543 5                @ ../Application/hotel_room_controller.c:1543:5
	cmp	r0, #0
	.loc	2 1542 39               @ ../Application/hotel_room_controller.c:1542:39
	str.w	r0, [r10]
	.loc	2 1543 5                @ ../Application/hotel_room_controller.c:1543:5
	beq	.LBB2_10
.Ltmp92:
@ %bb.2:
	@DEBUG_VALUE: RUBICON_CreateAddressList:rubiconAddListTmp <- $r4
	@DEBUG_VALUE: RUBICON_CreateAddressList:rcaddcnt <- $r11
	.loc	2 0 0 is_stmt 0         @ ../Application/hotel_room_controller.c:0:0
	mov	r5, r0
.Ltmp93:
	@DEBUG_VALUE: RUBICON_CreateAddressList:rubiconFwUpdateAddListTmp <- $r5
	.loc	2 1547 38 is_stmt 1     @ ../Application/hotel_room_controller.c:1547:38
	mov	r0, r6
	.loc	2 1544 44               @ ../Application/hotel_room_controller.c:1544:44
	strh.w	r11, [r8]
	.loc	2 1547 38               @ ../Application/hotel_room_controller.c:1547:38
	bl	mem_malloc
	.loc	2 1548 5                @ ../Application/hotel_room_controller.c:1548:5
	cmp	r0, #0
	.loc	2 1547 36               @ ../Application/hotel_room_controller.c:1547:36
	str	r0, [r7]
	.loc	2 1548 5                @ ../Application/hotel_room_controller.c:1548:5
	beq	.LBB2_10
.Ltmp94:
@ %bb.3:
	@DEBUG_VALUE: RUBICON_CreateAddressList:rubiconFwUpdateAddListTmp <- $r5
	@DEBUG_VALUE: RUBICON_CreateAddressList:rubiconAddListTmp <- $r4
	@DEBUG_VALUE: RUBICON_CreateAddressList:rcaddcnt <- $r11
	.loc	2 1549 41               @ ../Application/hotel_room_controller.c:1549:41
	movw	r1, :lower16:rubicon_image_update_address_list_size
	movt	r1, :upper16:rubicon_image_update_address_list_size
	strh.w	r11, [r1]
.Ltmp95:
	@DEBUG_VALUE: RUBICON_CreateAddressList:bcnt <- 0
	.loc	2 1553 15               @ ../Application/hotel_room_controller.c:1553:15
	ldrh.w	r1, [r9]
	.loc	2 1553 2 is_stmt 0      @ ../Application/hotel_room_controller.c:1553:2
	cbz	r1, .LBB2_6
.Ltmp96:
@ %bb.4:
	@DEBUG_VALUE: RUBICON_CreateAddressList:rubiconFwUpdateAddListTmp <- $r5
	@DEBUG_VALUE: RUBICON_CreateAddressList:rubiconAddListTmp <- $r4
	@DEBUG_VALUE: RUBICON_CreateAddressList:rcaddcnt <- $r11
	.loc	2 0 2                   @ ../Application/hotel_room_controller.c:0:2
	movs	r1, #0
.Ltmp97:
	@DEBUG_VALUE: RUBICON_CreateAddressList:rubiconImgUpdateAddListTmp <- $r0
	movs	r2, #0
.Ltmp98:
	.p2align	2
.LBB2_5:                                @ =>This Inner Loop Header: Depth=1
	@DEBUG_VALUE: RUBICON_CreateAddressList:rubiconImgUpdateAddListTmp <- $r0
	@DEBUG_VALUE: RUBICON_CreateAddressList:rubiconFwUpdateAddListTmp <- $r5
	@DEBUG_VALUE: RUBICON_CreateAddressList:rubiconAddListTmp <- $r4
	@DEBUG_VALUE: RUBICON_CreateAddressList:rcaddcnt <- $r11
	@DEBUG_VALUE: RUBICON_CreateAddressList:rubiconAddListTmp <- $r4
	@DEBUG_VALUE: RUBICON_CreateAddressList:rubiconFwUpdateAddListTmp <- $r5
	@DEBUG_VALUE: RUBICON_CreateAddressList:bcnt <- $r2
	@DEBUG_VALUE: RUBICON_CreateAddressList:rubiconImgUpdateAddListTmp <- $r0
	.loc	2 1555 24 is_stmt 1     @ ../Application/hotel_room_controller.c:1555:24
	strh	r1, [r4], #2
.Ltmp99:
	.loc	2 1556 32               @ ../Application/hotel_room_controller.c:1556:32
	strh	r1, [r5], #2
.Ltmp100:
	.loc	2 1557 33               @ ../Application/hotel_room_controller.c:1557:33
	strh	r1, [r0], #2
.Ltmp101:
	.loc	2 1558 7                @ ../Application/hotel_room_controller.c:1558:7
	adds	r2, #1
.Ltmp102:
	@DEBUG_VALUE: RUBICON_CreateAddressList:bcnt <- $r2
	.loc	2 1553 15               @ ../Application/hotel_room_controller.c:1553:15
	ldrh.w	r3, [r9]
	.loc	2 1553 2 is_stmt 0      @ ../Application/hotel_room_controller.c:1553:2
	cmp	r2, r3
	blo	.LBB2_5
.Ltmp103:
.LBB2_6:
	@DEBUG_VALUE: RUBICON_CreateAddressList:rcaddcnt <- $r11
	@DEBUG_VALUE: RUBICON_CreateAddressList:flashadd <- 0
	@DEBUG_VALUE: RUBICON_CreateAddressList:bcnt <- 0
	.loc	2 1565 2 is_stmt 1      @ ../Application/hotel_room_controller.c:1565:2
	cmp.w	r11, #0
	beq	.LBB2_9
.Ltmp104:
@ %bb.7:
	@DEBUG_VALUE: RUBICON_CreateAddressList:rcaddcnt <- $r11
	.loc	2 1562 22               @ ../Application/hotel_room_controller.c:1562:22
	movw	r0, :lower16:rubicon_address_list
	movs	r4, #0
	mov	r8, sp
	movs	r5, #0
	movs	r7, #0
	movt	r0, :upper16:rubicon_address_list
	ldr	r6, [r0]
.Ltmp105:
	@DEBUG_VALUE: RUBICON_CreateAddressList:rubiconAddListTmp <- $r6
	.p2align	2
.LBB2_8:                                @ =>This Inner Loop Header: Depth=1
	@DEBUG_VALUE: RUBICON_CreateAddressList:rubiconAddListTmp <- $r6
	@DEBUG_VALUE: RUBICON_CreateAddressList:rcaddcnt <- $r11
	@DEBUG_VALUE: RUBICON_CreateAddressList:bufcnt <- 0
	@DEBUG_VALUE: RUBICON_CreateAddressList:flashadd <- $r5
	@DEBUG_VALUE: RUBICON_CreateAddressList:rubiconAddListTmp <- undef
	@DEBUG_VALUE: RUBICON_CreateAddressList:bcnt <- $r7
	.loc	2 1570 3                @ ../Application/hotel_room_controller.c:1570:3
	mov	r0, r5
	mov	r1, r8
	movs	r2, #2
	.loc	2 1568 38               @ ../Application/hotel_room_controller.c:1568:38
	strd	r4, r4, [sp]
.Ltmp106:
	@DEBUG_VALUE: RUBICON_CreateAddressList:bufcnt <- [DW_OP_plus_uconst 1, DW_OP_stack_value] undef
	.loc	2 1570 3                @ ../Application/hotel_room_controller.c:1570:3
	bl	W25Qxx_Read
	.loc	2 1571 44               @ ../Application/hotel_room_controller.c:1571:44
	ldrh.w	r0, [sp]
	.loc	2 1573 7                @ ../Application/hotel_room_controller.c:1573:7
	adds	r7, #1
.Ltmp107:
	@DEBUG_VALUE: RUBICON_CreateAddressList:rubiconAddListTmp <- [DW_OP_plus_uconst 2, DW_OP_stack_value] undef
	@DEBUG_VALUE: RUBICON_CreateAddressList:bcnt <- $r7
	.loc	2 1571 44               @ ../Application/hotel_room_controller.c:1571:44
	rev	r0, r0
	lsrs	r0, r0, #16
	.loc	2 1571 24 is_stmt 0     @ ../Application/hotel_room_controller.c:1571:24
	strh	r0, [r6, r5]
.Ltmp108:
	.loc	2 1565 8 is_stmt 1      @ ../Application/hotel_room_controller.c:1565:8
	uxth	r0, r7
.Ltmp109:
	.loc	2 1572 12               @ ../Application/hotel_room_controller.c:1572:12
	adds	r5, #2
.Ltmp110:
	@DEBUG_VALUE: RUBICON_CreateAddressList:flashadd <- $r5
	.loc	2 1565 2                @ ../Application/hotel_room_controller.c:1565:2
	cmp	r11, r0
	bhi	.LBB2_8
.Ltmp111:
.LBB2_9:
	@DEBUG_VALUE: RUBICON_CreateAddressList:rcaddcnt <- $r11
	.loc	2 0 2 is_stmt 0         @ ../Application/hotel_room_controller.c:0:2
	movs	r0, #1
	b	.LBB2_11
.Ltmp112:
.LBB2_10:
	@DEBUG_VALUE: RUBICON_CreateAddressList:rcaddcnt <- $r11
	movs	r0, #5
.Ltmp113:
.LBB2_11:
	@DEBUG_VALUE: RUBICON_CreateAddressList:rcaddcnt <- $r11
	.loc	2 1577 1 is_stmt 1      @ ../Application/hotel_room_controller.c:1577:1
	add	sp, #12
	pop.w	{r4, r5, r6, r7, r8, r9, r10, r11, pc}
.Ltmp114:
.Lfunc_end2:
	.size	RUBICON_CreateAddressList, .Lfunc_end2-RUBICON_CreateAddressList
	.cfi_endproc
	.cantunwind
	.fnend
                                        @ -- End function
	.section	.text.RUBICON_ProcessService,"ax",%progbits
	.hidden	RUBICON_ProcessService  @ -- Begin function RUBICON_ProcessService
	.globl	RUBICON_ProcessService
	.p2align	2
	.type	RUBICON_ProcessService,%function
	.code	16                      @ @RUBICON_ProcessService
	.thumb_func
RUBICON_ProcessService:
.Lfunc_begin3:
	.loc	2 340 0                 @ ../Application/hotel_room_controller.c:340:0
	.fnstart
	.cfi_startproc
@ %bb.0:
	.save	{r4, r5, r6, r7, r8, r9, lr}
	push.w	{r4, r5, r6, r7, r8, r9, lr}
	.cfi_def_cfa_offset 28
	.cfi_offset lr, -4
	.cfi_offset r9, -8
	.cfi_offset r8, -12
	.cfi_offset r7, -16
	.cfi_offset r6, -20
	.cfi_offset r5, -24
	.cfi_offset r4, -28
	.pad	#4
	sub	sp, #4
	.cfi_def_cfa_offset 32
.Ltmp115:
	.loc	2 344 13 prologue_end   @ ../Application/hotel_room_controller.c:344:13
	movw	r5, :lower16:eRubiconTransferState
	movt	r5, :upper16:eRubiconTransferState
	ldrb	r0, [r5]
	.loc	2 344 5 is_stmt 0       @ ../Application/hotel_room_controller.c:344:5
	cmp	r0, #6
	bhi.w	.LBB3_177
@ %bb.1:
	.loc	2 0 5                   @ ../Application/hotel_room_controller.c:0:5
.LCPI3_0:
	tbh	[pc, r0, lsl #1]
@ %bb.2:
.LJTI3_0:
	.short	(.LBB3_3-(.LCPI3_0+4))/2
	.short	(.LBB3_4-(.LCPI3_0+4))/2
	.short	(.LBB3_8-(.LCPI3_0+4))/2
	.short	(.LBB3_17-(.LCPI3_0+4))/2
	.short	(.LBB3_21-(.LCPI3_0+4))/2
	.short	(.LBB3_33-(.LCPI3_0+4))/2
	.short	(.LBB3_177-(.LCPI3_0+4))/2
	.p2align	1
.LBB3_3:
	movs	r0, #1
	b	.LBB3_65
.LBB3_4:
.Ltmp116:
	.loc	2 356 38 is_stmt 1      @ ../Application/hotel_room_controller.c:356:38
	movw	r7, :lower16:RUBICON_FirmwareUpdatePacket
	movt	r7, :upper16:RUBICON_FirmwareUpdatePacket
	ldrb	r0, [r7, #1]
	.loc	2 356 76 is_stmt 0      @ ../Application/hotel_room_controller.c:356:76
	sub.w	r1, r0, #18
	cmp	r1, #2
	blo.w	.LBB3_43
@ %bb.5:
	cmp	r0, #20
	beq.w	.LBB3_58
@ %bb.6:
	cmp	r0, #21
	bne.w	.LBB3_66
@ %bb.7:
.Ltmp117:
	.loc	2 387 38 is_stmt 1      @ ../Application/hotel_room_controller.c:387:38
	ldr	r0, [r7, #12]
.Ltmp118:
	.loc	2 387 9 is_stmt 0       @ ../Application/hotel_room_controller.c:387:9
	cmp	r0, #3
.Ltmp119:
	.loc	2 388 11 is_stmt 1      @ ../Application/hotel_room_controller.c:388:11
	mov.w	r0, #215
	ite	lo
	movlo	r1, #191
	.loc	2 387 60                @ ../Application/hotel_room_controller.c:387:60
	movhs	r1, #202
	.loc	2 0 0 is_stmt 0         @ ../Application/hotel_room_controller.c:0:0
	bl	CONTROLLER_WriteLogEvent
.Ltmp120:
	.loc	2 389 6 is_stmt 1       @ ../Application/hotel_room_controller.c:389:6
	bl	RUBICON_PrepareFirmwareUpdatePacket
	movs	r0, #16
	.loc	2 390 48                @ ../Application/hotel_room_controller.c:390:48
	strb	r0, [r7, #1]
	movs	r0, #8
	b	.LBB3_59
.Ltmp121:
.LBB3_8:
	.loc	2 727 8                 @ ../Application/hotel_room_controller.c:727:8
	movw	r4, :lower16:rubicon_flags
	movt	r4, :upper16:rubicon_flags
	ldr	r0, [r4]
.Ltmp122:
	.loc	2 727 7 is_stmt 0       @ ../Application/hotel_room_controller.c:727:7
	lsls	r0, r0, #29
	bpl.w	.LBB3_181
@ %bb.9:
	.loc	2 730 66 is_stmt 1      @ ../Application/hotel_room_controller.c:730:66
	movw	r0, :lower16:rx_buffer
	mov.w	r1, #256
	movt	r0, :upper16:rx_buffer
	bl	__aeabi_memclr
	.loc	2 732 15                @ ../Application/hotel_room_controller.c:732:15
	movw	r0, :lower16:RUBICON_ProcessService.old_rx_cnt
	movs	r1, #0
	movt	r0, :upper16:RUBICON_ProcessService.old_rx_cnt
	strb	r1, [r0]
	.loc	2 731 17                @ ../Application/hotel_room_controller.c:731:17
	movw	r0, :lower16:rs485_rx_cnt
	movt	r0, :upper16:rs485_rx_cnt
	strh	r1, [r0]
	.loc	2 733 32                @ ../Application/hotel_room_controller.c:733:32
	movw	r0, :lower16:tx_buffer
	movt	r0, :upper16:tx_buffer
	ldrb	r1, [r0, #5]
	.loc	2 733 45 is_stmt 0      @ ../Application/hotel_room_controller.c:733:45
	adds	r1, #9
	.loc	2 733 4                 @ ../Application/hotel_room_controller.c:733:4
	bl	RS485_Send_Data
	.loc	2 734 4 is_stmt 1       @ ../Application/hotel_room_controller.c:734:4
	movw	r6, :lower16:rubicon_rx_timer
	movs	r0, #78
	movt	r6, :upper16:rubicon_rx_timer
	str	r0, [r6]
	movs	r0, #3
	.loc	2 735 26                @ ../Application/hotel_room_controller.c:735:26
	strb	r0, [r5]
	.loc	2 734 4                 @ ../Application/hotel_room_controller.c:734:4
	ldr	r0, [r4]
	bic	r0, r0, #4
	str	r0, [r4]
	.loc	2 737 12                @ ../Application/hotel_room_controller.c:737:12
	movw	r0, :lower16:eRubiconUpdate
	movt	r0, :upper16:eRubiconUpdate
	ldrb	r0, [r0]
	.loc	2 737 4 is_stmt 0       @ ../Application/hotel_room_controller.c:737:4
	subs	r0, #1
	cmp	r0, #7
	bhi	.LBB3_15
@ %bb.10:
	.loc	2 0 4                   @ ../Application/hotel_room_controller.c:0:4
.LCPI3_1:
	tbh	[pc, r0, lsl #1]
@ %bb.11:
.LJTI3_2:
	.short	(.LBB3_12-(.LCPI3_1+4))/2
	.short	(.LBB3_181-(.LCPI3_1+4))/2
	.short	(.LBB3_181-(.LCPI3_1+4))/2
	.short	(.LBB3_114-(.LCPI3_1+4))/2
	.short	(.LBB3_119-(.LCPI3_1+4))/2
	.short	(.LBB3_181-(.LCPI3_1+4))/2
	.short	(.LBB3_122-(.LCPI3_1+4))/2
	.short	(.LBB3_15-(.LCPI3_1+4))/2
	.p2align	1
.LBB3_12:
.Ltmp123:
	.loc	2 741 14 is_stmt 1      @ ../Application/hotel_room_controller.c:741:14
	movw	r0, :lower16:eRubiconTimeUpdate
	movt	r0, :upper16:eRubiconTimeUpdate
	ldrb	r0, [r0]
	.loc	2 741 6 is_stmt 0       @ ../Application/hotel_room_controller.c:741:6
	subs	r0, #1
	cmp	r0, #3
	bhi	.LBB3_15
.Ltmp124:
@ %bb.13:
	.loc	2 0 6                   @ ../Application/hotel_room_controller.c:0:6
.LCPI3_2:
	tbh	[pc, r0, lsl #1]
@ %bb.14:
.LJTI3_3:
	.short	(.LBB3_181-(.LCPI3_2+4))/2
	.short	(.LBB3_15-(.LCPI3_2+4))/2
	.short	(.LBB3_15-(.LCPI3_2+4))/2
	.short	(.LBB3_15-(.LCPI3_2+4))/2
	.p2align	1
.LBB3_15:
	movs	r0, #10
	str	r0, [r6]
.Ltmp125:
.LBB3_16:
	movs	r0, #1
	strb	r0, [r5]
	b	.LBB3_120
.LBB3_17:
.Ltmp126:
	.loc	2 881 8 is_stmt 1       @ ../Application/hotel_room_controller.c:881:8
	movw	r2, :lower16:rs485_rx_cnt
	.loc	2 0 0 is_stmt 0         @ ../Application/hotel_room_controller.c:0:0
	movw	r1, :lower16:rx_buffer
	.loc	2 881 8                 @ ../Application/hotel_room_controller.c:881:8
	movt	r2, :upper16:rs485_rx_cnt
	.loc	2 0 0                   @ ../Application/hotel_room_controller.c:0:0
	movt	r1, :upper16:rx_buffer
	.loc	2 881 8                 @ ../Application/hotel_room_controller.c:881:8
	ldrh	r0, [r2]
	.loc	2 0 0                   @ ../Application/hotel_room_controller.c:0:0
	ldrb	r3, [r1]
	.loc	2 881 27                @ ../Application/hotel_room_controller.c:881:27
	cmp	r0, #0
	beq.w	.LBB3_47
@ %bb.18:
	.loc	2 881 61                @ ../Application/hotel_room_controller.c:881:61
	cmp	r3, #6
	beq.w	.LBB3_48
.Ltmp127:
@ %bb.19:
	.loc	2 881 7                 @ ../Application/hotel_room_controller.c:881:7
	cmp	r3, #21
	beq.w	.LBB3_72
@ %bb.20:
.Ltmp128:
	.loc	2 885 5 is_stmt 1       @ ../Application/hotel_room_controller.c:885:5
	movw	r0, :lower16:rubicon_rx_timer
	movs	r3, #3
	movt	r0, :upper16:rubicon_rx_timer
	str	r3, [r0]
	movs	r0, #0
	.loc	2 884 18                @ ../Application/hotel_room_controller.c:884:18
	strb	r0, [r1]
	.loc	2 883 18                @ ../Application/hotel_room_controller.c:883:18
	strh	r0, [r2]
	b.w	.LBB3_179
.Ltmp129:
.LBB3_21:
	.loc	2 967 26                @ ../Application/hotel_room_controller.c:967:26
	movw	r0, :lower16:rs485_interface_address
	movt	r0, :upper16:rs485_interface_address
	ldrh	r1, [r0]
	.loc	2 967 9 is_stmt 0       @ ../Application/hotel_room_controller.c:967:9
	movw	r0, :lower16:rx_buffer
	movt	r0, :upper16:rx_buffer
	ldrb	r2, [r0, #1]
	.loc	2 967 58                @ ../Application/hotel_room_controller.c:967:58
	cmp.w	r2, r1, lsr #8
	bne.w	.LBB3_40
@ %bb.22:
	.loc	2 968 6 is_stmt 1       @ ../Application/hotel_room_controller.c:968:6
	ldrb	r2, [r0, #2]
	.loc	2 968 19 is_stmt 0      @ ../Application/hotel_room_controller.c:968:19
	uxtb	r1, r1
	.loc	2 968 57                @ ../Application/hotel_room_controller.c:968:57
	cmp	r2, r1
	bne.w	.LBB3_40
@ %bb.23:
	.loc	2 969 24 is_stmt 1      @ ../Application/hotel_room_controller.c:969:24
	movw	r1, :lower16:rs485_rubicon_address
	.loc	2 969 7 is_stmt 0       @ ../Application/hotel_room_controller.c:969:7
	ldrb	r2, [r0, #3]
	.loc	2 969 24                @ ../Application/hotel_room_controller.c:969:24
	movt	r1, :upper16:rs485_rubicon_address
	ldrh	r1, [r1]
	.loc	2 969 54                @ ../Application/hotel_room_controller.c:969:54
	cmp.w	r2, r1, lsr #8
	bne.w	.LBB3_40
@ %bb.24:
	.loc	2 970 6 is_stmt 1       @ ../Application/hotel_room_controller.c:970:6
	ldrb	r2, [r0, #4]
	.loc	2 970 19 is_stmt 0      @ ../Application/hotel_room_controller.c:970:19
	uxtb	r1, r1
	.loc	2 970 56                @ ../Application/hotel_room_controller.c:970:56
	cmp	r2, r1
	bne.w	.LBB3_40
@ %bb.25:
	.loc	2 971 16 is_stmt 1      @ ../Application/hotel_room_controller.c:971:16
	ldrb	r6, [r0, #5]
	adds	r1, r0, r6
	.loc	2 971 6 is_stmt 0       @ ../Application/hotel_room_controller.c:971:6
	ldrb	r2, [r1, #8]
.Ltmp130:
	.loc	2 967 7 is_stmt 1       @ ../Application/hotel_room_controller.c:967:7
	cmp	r2, #4
	bne.w	.LBB3_40
@ %bb.26:
.Ltmp131:
	.loc	2 973 31                @ ../Application/hotel_room_controller.c:973:31
	movw	r7, :lower16:rs485_packet_checksum
	movs	r2, #0
.Ltmp132:
	.loc	2 975 36                @ ../Application/hotel_room_controller.c:975:36
	adds	r3, r6, #6
.Ltmp133:
	.loc	2 975 6 is_stmt 0       @ ../Application/hotel_room_controller.c:975:6
	cmp	r6, #0
.Ltmp134:
	.loc	2 973 31 is_stmt 1      @ ../Application/hotel_room_controller.c:973:31
	movt	r7, :upper16:rs485_packet_checksum
	strh	r2, [r7]
.Ltmp135:
	@DEBUG_VALUE: RUBICON_ProcessService:j <- 6
	.loc	2 975 6                 @ ../Application/hotel_room_controller.c:975:6
	beq	.LBB3_30
@ %bb.27:
	.loc	2 0 6 is_stmt 0         @ ../Application/hotel_room_controller.c:0:6
	movs	r6, #6
	movs	r2, #0
	movs	r4, #6
.LBB3_28:                               @ =>This Inner Loop Header: Depth=1
.Ltmp136:
	@DEBUG_VALUE: RUBICON_ProcessService:j <- $r4
	.loc	2 977 32 is_stmt 1      @ ../Application/hotel_room_controller.c:977:32
	ldrb	r6, [r0, r6]
.Ltmp137:
	.loc	2 975 43                @ ../Application/hotel_room_controller.c:975:43
	adds	r4, #1
.Ltmp138:
	@DEBUG_VALUE: RUBICON_ProcessService:j <- $r4
	.loc	2 977 29                @ ../Application/hotel_room_controller.c:977:29
	add	r2, r6
.Ltmp139:
	.loc	2 975 18                @ ../Application/hotel_room_controller.c:975:18
	uxtb	r6, r4
.Ltmp140:
	.loc	2 975 6 is_stmt 0       @ ../Application/hotel_room_controller.c:975:6
	cmp	r3, r6
	bhi	.LBB3_28
.Ltmp141:
@ %bb.29:
	@DEBUG_VALUE: RUBICON_ProcessService:j <- $r4
	.loc	2 977 29 is_stmt 1      @ ../Application/hotel_room_controller.c:977:29
	strh	r2, [r7]
.Ltmp142:
.LBB3_30:
	.loc	2 980 11                @ ../Application/hotel_room_controller.c:980:11
	ldrb	r0, [r0, r3]
	.loc	2 980 65 is_stmt 0      @ ../Application/hotel_room_controller.c:980:65
	uxth	r3, r2
	.loc	2 980 72                @ ../Application/hotel_room_controller.c:980:72
	cmp.w	r0, r3, lsr #8
	bne.w	.LBB3_164
@ %bb.31:
	.loc	2 981 8 is_stmt 1       @ ../Application/hotel_room_controller.c:981:8
	ldrb	r0, [r1, #7]
	.loc	2 981 36 is_stmt 0      @ ../Application/hotel_room_controller.c:981:36
	uxtb	r1, r2
.Ltmp143:
	.loc	2 980 10 is_stmt 1      @ ../Application/hotel_room_controller.c:980:10
	cmp	r0, r1
	bne.w	.LBB3_164
.Ltmp144:
@ %bb.32:
	.loc	2 0 10 is_stmt 0        @ ../Application/hotel_room_controller.c:0:10
	movs	r0, #5
	b	.LBB3_54
.LBB3_33:
.Ltmp145:
	.loc	2 1039 12 is_stmt 1     @ ../Application/hotel_room_controller.c:1039:12
	movw	r6, :lower16:eRubiconUpdate
	movt	r6, :upper16:eRubiconUpdate
	ldrb	r0, [r6]
	.loc	2 1039 4 is_stmt 0      @ ../Application/hotel_room_controller.c:1039:4
	subs	r0, #2
	cmp	r0, #5
	bhi.w	.LBB3_177
@ %bb.34:
	.loc	2 0 4                   @ ../Application/hotel_room_controller.c:0:4
.LCPI3_3:
	tbh	[pc, r0, lsl #1]
@ %bb.35:
.LJTI3_1:
	.short	(.LBB3_36-(.LCPI3_3+4))/2
	.short	(.LBB3_77-(.LCPI3_3+4))/2
	.short	(.LBB3_85-(.LCPI3_3+4))/2
	.short	(.LBB3_87-(.LCPI3_3+4))/2
	.short	(.LBB3_91-(.LCPI3_3+4))/2
	.short	(.LBB3_96-(.LCPI3_3+4))/2
	.p2align	1
.LBB3_36:
.Ltmp146:
	.loc	2 1058 9 is_stmt 1      @ ../Application/hotel_room_controller.c:1058:9
	movw	r0, :lower16:rx_buffer
	movt	r0, :upper16:rx_buffer
	ldrb	r1, [r0, #13]
.Ltmp147:
	.loc	2 1058 9 is_stmt 0      @ ../Application/hotel_room_controller.c:1058:9
	cmp	r1, #49
	bne.w	.LBB3_107
@ %bb.37:
.Ltmp148:
	.loc	2 1063 50 is_stmt 1     @ ../Application/hotel_room_controller.c:1063:50
	movw	r1, :lower16:RUBICON_LogListTransfer
	movs	r0, #0
	movs	r3, #99
	.loc	2 1064 37               @ ../Application/hotel_room_controller.c:1064:37
	movw	r2, :lower16:rubicon_image_update_list_cnt
	.loc	2 1063 50               @ ../Application/hotel_room_controller.c:1063:50
	movt	r1, :upper16:RUBICON_LogListTransfer
	.loc	2 1064 37               @ ../Application/hotel_room_controller.c:1064:37
	movt	r2, :upper16:rubicon_image_update_list_cnt
	.loc	2 1063 50               @ ../Application/hotel_room_controller.c:1063:50
	strb	r0, [r1]
	.loc	2 1062 47               @ ../Application/hotel_room_controller.c:1062:47
	movw	r1, :lower16:RUBICON_FileUpdatePacket
	.loc	2 1064 37               @ ../Application/hotel_room_controller.c:1064:37
	strh	r0, [r2]
	.loc	2 1062 47               @ ../Application/hotel_room_controller.c:1062:47
	movt	r1, :upper16:RUBICON_FileUpdatePacket
	strb	r3, [r1]
	.loc	2 1061 28               @ ../Application/hotel_room_controller.c:1061:28
	movw	r1, :lower16:rubicon_ctrl_request
	movt	r1, :upper16:rubicon_ctrl_request
	strb	r3, [r1]
	.loc	2 1060 51               @ ../Application/hotel_room_controller.c:1060:51
	movw	r1, :lower16:RUBICON_FirmwareUpdatePacket
	.loc	2 1065 7                @ ../Application/hotel_room_controller.c:1065:7
	movw	r3, :lower16:rubicon_image_update_address_list
	.loc	2 1060 51               @ ../Application/hotel_room_controller.c:1060:51
	movt	r1, :upper16:RUBICON_FirmwareUpdatePacket
	.loc	2 1065 7                @ ../Application/hotel_room_controller.c:1065:7
	movt	r3, :upper16:rubicon_image_update_address_list
	.loc	2 1060 51               @ ../Application/hotel_room_controller.c:1060:51
	strb	r0, [r1]
	.loc	2 1065 74               @ ../Application/hotel_room_controller.c:1065:74
	movw	r1, :lower16:rs485_rubicon_address
	.loc	2 1065 7 is_stmt 0      @ ../Application/hotel_room_controller.c:1065:7
	ldr	r3, [r3]
	.loc	2 1065 74               @ ../Application/hotel_room_controller.c:1065:74
	movt	r1, :upper16:rs485_rubicon_address
	ldrh	r1, [r1]
	.loc	2 1065 72               @ ../Application/hotel_room_controller.c:1065:72
	strh	r1, [r3]
	.loc	2 1066 36 is_stmt 1     @ ../Application/hotel_room_controller.c:1066:36
	ldrh	r1, [r2]
	adds	r1, #1
	.loc	2 1067 7                @ ../Application/hotel_room_controller.c:1067:7
	uxth	r1, r1
	.loc	2 1067 72 is_stmt 0     @ ../Application/hotel_room_controller.c:1067:72
	strh.w	r0, [r3, r1, lsl #1]
	.loc	2 1069 36 is_stmt 1     @ ../Application/hotel_room_controller.c:1069:36
	movw	r1, :lower16:rubicon_file_update_list_cnt
	.loc	2 1068 37               @ ../Application/hotel_room_controller.c:1068:37
	strh	r0, [r2]
	movw	r2, :lower16:rubicon_file_update_list
	movs	r3, #1
.Ltmp149:
	@DEBUG_VALUE: RUBICON_ProcessService:j <- 1
	.loc	2 1069 36               @ ../Application/hotel_room_controller.c:1069:36
	movt	r1, :upper16:rubicon_file_update_list_cnt
	movt	r2, :upper16:rubicon_file_update_list
	strh	r0, [r1]
	.p2align	2
.LBB3_38:                               @ =>This Inner Loop Header: Depth=1
.Ltmp150:
	@DEBUG_VALUE: RUBICON_ProcessService:j <- $r3
	.loc	2 1071 79               @ ../Application/hotel_room_controller.c:1071:79
	strb	r3, [r2, r0]
	.loc	2 1071 75 is_stmt 0     @ ../Application/hotel_room_controller.c:1071:75
	adds	r0, #1
	.loc	2 1071 82               @ ../Application/hotel_room_controller.c:1071:82
	adds	r3, #1
.Ltmp151:
	@DEBUG_VALUE: RUBICON_ProcessService:j <- $r3
	.loc	2 1071 7                @ ../Application/hotel_room_controller.c:1071:7
	cmp	r0, #14
	bne	.LBB3_38
.Ltmp152:
@ %bb.39:
	@DEBUG_VALUE: RUBICON_ProcessService:j <- $r3
	.loc	2 0 7                   @ ../Application/hotel_room_controller.c:0:7
	movs	r0, #0
	.loc	2 1073 36 is_stmt 1     @ ../Application/hotel_room_controller.c:1073:36
	strh	r0, [r1]
	.loc	2 1072 62               @ ../Application/hotel_room_controller.c:1072:62
	strb	r0, [r2, #14]
	b.w	.LBB3_177
.Ltmp153:
.LBB3_40:
	.loc	2 1006 13               @ ../Application/hotel_room_controller.c:1006:13
	movw	r0, :lower16:rubicon_flags
	movt	r0, :upper16:rubicon_flags
	ldr	r0, [r0]
.Ltmp154:
	.loc	2 1006 13 is_stmt 0     @ ../Application/hotel_room_controller.c:1006:13
	lsls	r0, r0, #29
	bpl	.LBB3_55
@ %bb.41:
.Ltmp155:
	.loc	2 1008 34 is_stmt 1     @ ../Application/hotel_room_controller.c:1008:34
	movw	r0, :lower16:RUBICON_LogListTransfer
	movt	r0, :upper16:RUBICON_LogListTransfer
	ldrb	r1, [r0]
	.loc	2 1008 81 is_stmt 0     @ ../Application/hotel_room_controller.c:1008:81
	subs	r1, #31
	cmp	r1, #1
	bhi	.LBB3_51
.Ltmp156:
.LBB3_42:
	.loc	2 0 0                   @ ../Application/hotel_room_controller.c:0:0
	ldrb	r1, [r0, #2]
	adds	r1, #1
	strb	r1, [r0, #2]
	b	.LBB3_53
.Ltmp157:
.LBB3_43:
	.loc	2 359 57 is_stmt 1      @ ../Application/hotel_room_controller.c:359:57
	cmp	r0, #18
	beq	.LBB3_61
@ %bb.44:
	.loc	2 0 0 is_stmt 0         @ ../Application/hotel_room_controller.c:0:0
	ldrb	r0, [r7, #2]
	.loc	2 359 57                @ ../Application/hotel_room_controller.c:359:57
	cmp	r0, #1
	bls	.LBB3_61
@ %bb.45:
	.loc	2 366 13 is_stmt 1      @ ../Application/hotel_room_controller.c:366:13
	cmp	r0, #10
	blo	.LBB3_62
@ %bb.46:
.Ltmp158:
	.loc	2 368 38                @ ../Application/hotel_room_controller.c:368:38
	ldr	r0, [r7, #12]
.Ltmp159:
	.loc	2 368 9 is_stmt 0       @ ../Application/hotel_room_controller.c:368:9
	cmp	r0, #3
.Ltmp160:
	.loc	2 369 11 is_stmt 1      @ ../Application/hotel_room_controller.c:369:11
	mov.w	r0, #215
	ite	lo
	movlo	r1, #191
	.loc	2 368 60                @ ../Application/hotel_room_controller.c:368:60
	movhs	r1, #202
	.loc	2 0 0 is_stmt 0         @ ../Application/hotel_room_controller.c:0:0
	bl	CONTROLLER_WriteLogEvent
.Ltmp161:
	.loc	2 371 6 is_stmt 1       @ ../Application/hotel_room_controller.c:371:6
	bl	RUBICON_PrepareFirmwareUpdatePacket
	.loc	2 373 21                @ ../Application/hotel_room_controller.c:373:21
	movw	r0, :lower16:eRubiconUpdate
	movs	r1, #8
	movt	r0, :upper16:eRubiconUpdate
	strb	r1, [r0]
	movs	r0, #1
	.loc	2 372 28                @ ../Application/hotel_room_controller.c:372:28
	strb	r0, [r5]
	b	.LBB3_60
.Ltmp162:
.LBB3_47:
	.loc	2 887 12                @ ../Application/hotel_room_controller.c:887:12
	cmp	r3, #6
	bne.w	.LBB3_71
.LBB3_48:
.Ltmp163:
	.loc	2 889 39                @ ../Application/hotel_room_controller.c:889:39
	movw	r1, :lower16:RUBICON_FirmwareUpdatePacket
	movt	r1, :upper16:RUBICON_FirmwareUpdatePacket
	ldrb	r1, [r1, #1]
	.loc	2 889 77 is_stmt 0      @ ../Application/hotel_room_controller.c:889:77
	and	r1, r1, #254
	cmp	r1, #18
	beq	.LBB3_50
@ %bb.49:
	.loc	2 891 33 is_stmt 1      @ ../Application/hotel_room_controller.c:891:33
	movw	r1, :lower16:RUBICON_FileUpdatePacket
	movt	r1, :upper16:RUBICON_FileUpdatePacket
	ldrb	r1, [r1, #1]
	.loc	2 891 70 is_stmt 0      @ ../Application/hotel_room_controller.c:891:70
	subs	r1, #41
	cmp	r1, #28
	bhi.w	.LBB3_98
.Ltmp164:
.LBB3_50:
	.loc	2 0 70                  @ ../Application/hotel_room_controller.c:0:70
	movs	r0, #5
	b	.LBB3_65
.LBB3_51:
.Ltmp165:
	.loc	2 1013 13 is_stmt 1     @ ../Application/hotel_room_controller.c:1013:13
	movw	r0, :lower16:rubicon_http_cmd_state
	movt	r0, :upper16:rubicon_http_cmd_state
	ldrb	r1, [r0]
.Ltmp166:
	.loc	2 1013 13 is_stmt 0     @ ../Application/hotel_room_controller.c:1013:13
	cmp	r1, #54
	it	ne
	cmpne	r1, #50
	bne.w	.LBB3_167
.Ltmp167:
.LBB3_52:
	.loc	2 0 13                  @ ../Application/hotel_room_controller.c:0:13
	movs	r1, #0
	strb	r1, [r0]
.LBB3_53:
	movw	r0, :lower16:rubicon_rx_timer
	movs	r1, #10
	movt	r0, :upper16:rubicon_rx_timer
	str	r1, [r0]
	movw	r0, :lower16:rubicon_flags
	movt	r0, :upper16:rubicon_flags
	ldr	r1, [r0]
	bic	r1, r1, #4
	str	r1, [r0]
	movs	r0, #1
.LBB3_54:
	strb	r0, [r5]
.Ltmp168:
.LBB3_55:
	.loc	2 1030 21 is_stmt 1     @ ../Application/hotel_room_controller.c:1030:21
	movw	r0, :lower16:rs485_rx_cnt
	.loc	2 1030 7 is_stmt 0      @ ../Application/hotel_room_controller.c:1030:7
	movw	r1, :lower16:RUBICON_ProcessService.old_rx_cnt
	.loc	2 1030 21               @ ../Application/hotel_room_controller.c:1030:21
	movt	r0, :upper16:rs485_rx_cnt
	.loc	2 1030 7                @ ../Application/hotel_room_controller.c:1030:7
	movt	r1, :upper16:RUBICON_ProcessService.old_rx_cnt
	.loc	2 1030 21               @ ../Application/hotel_room_controller.c:1030:21
	ldrh	r0, [r0]
	.loc	2 1030 7                @ ../Application/hotel_room_controller.c:1030:7
	ldrb	r2, [r1]
.Ltmp169:
	.loc	2 1030 7                @ ../Application/hotel_room_controller.c:1030:7
	cmp	r2, r0
	beq.w	.LBB3_181
@ %bb.56:
.Ltmp170:
	.loc	2 1033 5 is_stmt 1      @ ../Application/hotel_room_controller.c:1033:5
	movw	r2, :lower16:rubicon_rx_timer
	movs	r3, #3
	movt	r2, :upper16:rubicon_rx_timer
	str	r3, [r2]
.Ltmp171:
.LBB3_57:
	.loc	2 0 0 is_stmt 0         @ ../Application/hotel_room_controller.c:0:0
	strb	r0, [r1]
	b	.LBB3_179
.LBB3_58:
.Ltmp172:
	.loc	2 395 6 is_stmt 1       @ ../Application/hotel_room_controller.c:395:6
	movs	r0, #214
	movs	r1, #193
	bl	CONTROLLER_WriteLogEvent
	.loc	2 396 6                 @ ../Application/hotel_room_controller.c:396:6
	movw	r1, :lower16:rubicon_ctrl_buffer
	movs	r0, #187
	movt	r1, :upper16:rubicon_ctrl_buffer
	bl	RUBICON_PrepareCommandPacket
	movs	r0, #2
	.loc	2 397 28                @ ../Application/hotel_room_controller.c:397:28
	strb	r0, [r5]
	movs	r0, #4
.Ltmp173:
.LBB3_59:
	.loc	2 0 0 is_stmt 0         @ ../Application/hotel_room_controller.c:0:0
	movw	r1, :lower16:eRubiconUpdate
	movt	r1, :upper16:eRubiconUpdate
	strb	r0, [r1]
.Ltmp174:
.LBB3_60:
	movw	r0, :lower16:display_flags
	movt	r0, :upper16:display_flags
	ldr	r1, [r0]
	orr	r1, r1, #2
	b	.LBB3_180
.LBB3_61:
.Ltmp175:
	.loc	2 362 6 is_stmt 1       @ ../Application/hotel_room_controller.c:362:6
	bl	RUBICON_PrepareFirmwareUpdatePacket
.Ltmp176:
.LBB3_62:
	.loc	2 0 0 is_stmt 0         @ ../Application/hotel_room_controller.c:0:0
	movw	r0, :lower16:eRubiconUpdate
	movs	r1, #4
.Ltmp177:
.LBB3_63:
	movt	r0, :upper16:eRubiconUpdate
	strb	r1, [r0]
.Ltmp178:
.LBB3_64:
	movs	r0, #2
.LBB3_65:
	strb	r0, [r5]
	b	.LBB3_181
.LBB3_66:
.Ltmp179:
	.loc	2 404 38 is_stmt 1      @ ../Application/hotel_room_controller.c:404:38
	movw	r0, :lower16:RUBICON_LogListTransfer
	movt	r0, :upper16:RUBICON_LogListTransfer
	ldrb	r2, [r0]
	.loc	2 404 85 is_stmt 0      @ ../Application/hotel_room_controller.c:404:85
	sub.w	r1, r2, #31
	cmp	r1, #1
	bhi.w	.LBB3_99
@ %bb.67:
.Ltmp180:
	.loc	2 407 33 is_stmt 1      @ ../Application/hotel_room_controller.c:407:33
	ldrb	r1, [r0, #2]
.Ltmp181:
	.loc	2 407 9 is_stmt 0       @ ../Application/hotel_room_controller.c:407:9
	cmp	r1, #0
	beq.w	.LBB3_128
@ %bb.68:
.Ltmp182:
	.loc	2 0 0                   @ ../Application/hotel_room_controller.c:0:0
	ldrb	r3, [r0, #1]
	.loc	2 412 86 is_stmt 1      @ ../Application/hotel_room_controller.c:412:86
	cmp	r2, #31
	bne.w	.LBB3_139
.Ltmp183:
@ %bb.69:
	.loc	2 412 14 is_stmt 0      @ ../Application/hotel_room_controller.c:412:14
	cmp	r1, r3
	bne.w	.LBB3_142
.Ltmp184:
@ %bb.70:
	.loc	2 0 14                  @ ../Application/hotel_room_controller.c:0:14
	movs	r1, #1
	movs	r2, #32
	b	.LBB3_141
.LBB3_71:
.Ltmp185:
	.loc	2 903 12 is_stmt 1      @ ../Application/hotel_room_controller.c:903:12
	cmp	r3, #21
	bne.w	.LBB3_102
.LBB3_72:
.Ltmp186:
	.loc	2 905 39                @ ../Application/hotel_room_controller.c:905:39
	movw	r0, :lower16:RUBICON_FirmwareUpdatePacket
	movt	r0, :upper16:RUBICON_FirmwareUpdatePacket
	ldrb	r1, [r0, #1]
	.loc	2 905 77 is_stmt 0      @ ../Application/hotel_room_controller.c:905:77
	and	r1, r1, #254
	cmp	r1, #18
	beq.w	.LBB3_133
@ %bb.73:
.Ltmp187:
	.loc	2 910 39 is_stmt 1      @ ../Application/hotel_room_controller.c:910:39
	movw	r0, :lower16:RUBICON_LogListTransfer
	movt	r0, :upper16:RUBICON_LogListTransfer
	ldrb	r1, [r0]
	.loc	2 910 86 is_stmt 0      @ ../Application/hotel_room_controller.c:910:86
	subs	r1, #31
	cmp	r1, #1
	bls.w	.LBB3_133
@ %bb.74:
.Ltmp188:
	.loc	2 915 40 is_stmt 1      @ ../Application/hotel_room_controller.c:915:40
	movw	r0, :lower16:RUBICON_FileUpdatePacket
	movt	r0, :upper16:RUBICON_FileUpdatePacket
	ldrb	r1, [r0, #1]
	.loc	2 915 77 is_stmt 0      @ ../Application/hotel_room_controller.c:915:77
	subs	r1, #41
	cmp	r1, #28
	bls.w	.LBB3_133
@ %bb.75:
.Ltmp189:
	.loc	2 920 13 is_stmt 1      @ ../Application/hotel_room_controller.c:920:13
	movw	r0, :lower16:rubicon_http_cmd_state
	movt	r0, :upper16:rubicon_http_cmd_state
	ldrb	r1, [r0]
.Ltmp190:
	.loc	2 920 13 is_stmt 0      @ ../Application/hotel_room_controller.c:920:13
	cmp	r1, #46
	bne.w	.LBB3_177
.Ltmp191:
@ %bb.76:
	.loc	2 0 13                  @ ../Application/hotel_room_controller.c:0:13
	movs	r1, #0
	b	.LBB3_176
.LBB3_77:
.Ltmp192:
	.loc	2 1113 11 is_stmt 1     @ ../Application/hotel_room_controller.c:1113:11
	movw	r1, :lower16:rx_buffer
	movt	r1, :upper16:rx_buffer
	ldrb	r0, [r1]
	.loc	2 1113 33 is_stmt 0     @ ../Application/hotel_room_controller.c:1113:33
	cmp	r0, #6
	bne.w	.LBB3_177
@ %bb.78:
	.loc	2 0 0                   @ ../Application/hotel_room_controller.c:0:0
	ldrb	r0, [r1, #6]
	.loc	2 1113 33               @ ../Application/hotel_room_controller.c:1113:33
	cmp	r0, #161
	bne.w	.LBB3_177
@ %bb.79:
.Ltmp193:
	.loc	2 0 0                   @ ../Application/hotel_room_controller.c:0:0
	movw	r2, :lower16:rubicon_journal_list_item
	.loc	2 1115 7 is_stmt 1      @ ../Application/hotel_room_controller.c:1115:7
	movw	r3, :lower16:rubicon_flags
	movs	r0, #0
	.loc	2 0 0 is_stmt 0         @ ../Application/hotel_room_controller.c:0:0
	movt	r2, :upper16:rubicon_journal_list_item
	.loc	2 1115 7                @ ../Application/hotel_room_controller.c:1115:7
	movt	r3, :upper16:rubicon_flags
	.loc	2 0 0                   @ ../Application/hotel_room_controller.c:0:0
	strb	r0, [r2]
	.loc	2 1115 7                @ ../Application/hotel_room_controller.c:1115:7
	ldr	r7, [r3]
	bic	r7, r7, #128
	str	r7, [r3]
	.loc	2 1119 13 is_stmt 1     @ ../Application/hotel_room_controller.c:1119:13
	movw	r3, :lower16:rs485_rubicon_address
	movt	r3, :upper16:rs485_rubicon_address
	ldrh	r7, [r3]
	.loc	2 1119 7 is_stmt 0      @ ../Application/hotel_room_controller.c:1119:7
	cmp	r7, #200
	blo	.LBB3_81
@ %bb.80:
.Ltmp194:
	.loc	2 1121 30 is_stmt 1     @ ../Application/hotel_room_controller.c:1121:30
	sub.w	r0, r7, #200
	movw	r6, #34079
	uxth	r0, r0
	movt	r6, #20971
	umull	r0, r6, r0, r6
	movs	r0, #1
	add.w	r0, r0, r6, lsr #5
.Ltmp195:
	.loc	2 0 0 is_stmt 0         @ ../Application/hotel_room_controller.c:0:0
	strb	r0, [r2]
.Ltmp196:
	.loc	2 1121 30               @ ../Application/hotel_room_controller.c:1121:30
	lsrs	r2, r6, #5
	mvn	r6, #99
.Ltmp197:
	.loc	2 1119 7 is_stmt 1      @ ../Application/hotel_room_controller.c:1119:7
	uxtb	r0, r0
.Ltmp198:
	.loc	2 1121 30               @ ../Application/hotel_room_controller.c:1121:30
	mla	r2, r2, r6, r7
.Ltmp199:
	.loc	2 1119 7                @ ../Application/hotel_room_controller.c:1119:7
	lsls	r0, r0, #2
.Ltmp200:
	.loc	2 1121 30               @ ../Application/hotel_room_controller.c:1121:30
	subs	r2, #100
	strh	r2, [r3]
.Ltmp201:
.LBB3_81:
	.loc	2 1125 14               @ ../Application/hotel_room_controller.c:1125:14
	ldrb	r1, [r1, #7]
	.loc	2 1125 7 is_stmt 0      @ ../Application/hotel_room_controller.c:1125:7
	cmp	r1, #53
	beq.w	.LBB3_172
@ %bb.82:
	cmp	r1, #52
	beq.w	.LBB3_173
@ %bb.83:
	cmp	r1, #51
	bne.w	.LBB3_177
@ %bb.84:
.Ltmp202:
	.loc	2 1129 9 is_stmt 1      @ ../Application/hotel_room_controller.c:1129:9
	movw	r1, :lower16:rubiconJournal_1
	movt	r1, :upper16:rubiconJournal_1
	.loc	2 1129 59 is_stmt 0     @ ../Application/hotel_room_controller.c:1129:59
	ldrh.w	r2, [r1, r0, lsl #1]
	adds	r2, #1
	strh.w	r2, [r1, r0, lsl #1]
	.loc	2 1130 9 is_stmt 1      @ ../Application/hotel_room_controller.c:1130:9
	orr	r0, r0, #3
	.loc	2 1130 63 is_stmt 0     @ ../Application/hotel_room_controller.c:1130:63
	ldrh.w	r2, [r1, r0, lsl #1]
	adds	r2, #1
	strh.w	r2, [r1, r0, lsl #1]
	.loc	2 1131 30 is_stmt 1     @ ../Application/hotel_room_controller.c:1131:30
	ldrh	r0, [r1, #40]
	adds	r0, #1
	strh	r0, [r1, #40]
	.loc	2 1132 30               @ ../Application/hotel_room_controller.c:1132:30
	ldrh	r0, [r1, #46]
	adds	r0, #1
	strh	r0, [r1, #46]
	.loc	2 1133 30               @ ../Application/hotel_room_controller.c:1133:30
	ldrh.w	r0, [r1, #88]
	adds	r0, #1
	strh.w	r0, [r1, #88]
	.loc	2 1134 30               @ ../Application/hotel_room_controller.c:1134:30
	ldrh.w	r0, [r1, #94]
	adds	r0, #1
	strh.w	r0, [r1, #94]
	b	.LBB3_177
.Ltmp203:
.LBB3_85:
	.loc	2 1172 39               @ ../Application/hotel_room_controller.c:1172:39
	movw	r0, :lower16:RUBICON_FirmwareUpdatePacket
	movt	r0, :upper16:RUBICON_FirmwareUpdatePacket
	.loc	2 1172 83 is_stmt 0     @ ../Application/hotel_room_controller.c:1172:83
	ldrd	r2, r1, [r0, #4]
.Ltmp204:
	.loc	2 1172 10               @ ../Application/hotel_room_controller.c:1172:10
	cmp	r1, r2
	bne.w	.LBB3_109
@ %bb.86:
	.loc	2 0 10                  @ ../Application/hotel_room_controller.c:0:10
	movs	r1, #20
.Ltmp205:
	.loc	2 1174 49 is_stmt 1     @ ../Application/hotel_room_controller.c:1174:49
	strb	r1, [r0, #1]
	.loc	2 1175 7                @ ../Application/hotel_room_controller.c:1175:7
	movw	r0, :lower16:display_flags
	movt	r0, :upper16:display_flags
	ldr	r1, [r0]
	orr	r1, r1, #2
	str	r1, [r0]
	.loc	2 1176 7                @ ../Application/hotel_room_controller.c:1176:7
	bl	UpdateFileTransferDisplay
	.loc	2 1177 7                @ ../Application/hotel_room_controller.c:1177:7
	movw	r0, :lower16:file_SD
	movt	r0, :upper16:file_SD
	bl	f_close
	.loc	2 1178 7                @ ../Application/hotel_room_controller.c:1178:7
	movw	r1, :lower16:.L.str
	movs	r0, #0
	movs	r2, #0
	movt	r1, :upper16:.L.str
	bl	f_mount
	b	.LBB3_177
.Ltmp206:
.LBB3_87:
	.loc	2 1201 35               @ ../Application/hotel_room_controller.c:1201:35
	movw	r4, :lower16:RUBICON_FileUpdatePacket
	movt	r4, :upper16:RUBICON_FileUpdatePacket
	.loc	2 1201 75 is_stmt 0     @ ../Application/hotel_room_controller.c:1201:75
	ldrd	r0, r1, [r4, #4]
.Ltmp207:
	.loc	2 1201 10               @ ../Application/hotel_room_controller.c:1201:10
	cmp	r1, r0
	bne.w	.LBB3_161
@ %bb.88:
	.loc	2 0 10                  @ ../Application/hotel_room_controller.c:0:10
	movs	r0, #71
.Ltmp208:
	.loc	2 1203 45 is_stmt 1     @ ../Application/hotel_room_controller.c:1203:45
	strb	r0, [r4, #1]
	.loc	2 1204 7                @ ../Application/hotel_room_controller.c:1204:7
	movw	r0, :lower16:display_flags
	movt	r0, :upper16:display_flags
	ldr	r1, [r0]
	orr	r1, r1, #2
	str	r1, [r0]
	.loc	2 1205 7                @ ../Application/hotel_room_controller.c:1205:7
	bl	UpdateFileTransferDisplay
	movs	r0, #40
	movs	r7, #1
	.loc	2 1206 45               @ ../Application/hotel_room_controller.c:1206:45
	strb	r0, [r4, #1]
	movs	r0, #8
	.loc	2 1207 29               @ ../Application/hotel_room_controller.c:1207:29
	strb	r7, [r5]
	.loc	2 1208 22               @ ../Application/hotel_room_controller.c:1208:22
	strb	r0, [r6]
	.loc	2 1209 28               @ ../Application/hotel_room_controller.c:1209:28
	movw	r6, :lower16:rubicon_ctrl_request
	movs	r0, #0
	movt	r6, :upper16:rubicon_ctrl_request
	strb	r0, [r6]
	.loc	2 1210 7                @ ../Application/hotel_room_controller.c:1210:7
	movw	r0, :lower16:file_SD
	movt	r0, :upper16:file_SD
	bl	f_close
	.loc	2 1211 7                @ ../Application/hotel_room_controller.c:1211:7
	movw	r1, :lower16:.L.str
	movs	r0, #0
	movs	r2, #0
	movt	r1, :upper16:.L.str
	bl	f_mount
.Ltmp209:
	.loc	2 1213 39               @ ../Application/hotel_room_controller.c:1213:39
	movw	r0, :lower16:RUBICON_FirmwareUpdatePacket
	movt	r0, :upper16:RUBICON_FirmwareUpdatePacket
	ldrb	r0, [r0]
.Ltmp210:
	.loc	2 1213 10 is_stmt 0     @ ../Application/hotel_room_controller.c:1213:10
	cmp	r0, #194
	beq.w	.LBB3_156
@ %bb.89:
	cmp	r0, #193
	bne.w	.LBB3_158
@ %bb.90:
.Ltmp211:
	.loc	2 1215 69 is_stmt 1     @ ../Application/hotel_room_controller.c:1215:69
	movw	r0, :lower16:rubicon_firmware_update_list_cnt
	.loc	2 1215 32 is_stmt 0     @ ../Application/hotel_room_controller.c:1215:32
	movw	r1, :lower16:rubicon_firmware_update_address_list
	mov.w	r2, #3456
	.loc	2 1215 69               @ ../Application/hotel_room_controller.c:1215:69
	movt	r0, :upper16:rubicon_firmware_update_list_cnt
	.loc	2 1215 32               @ ../Application/hotel_room_controller.c:1215:32
	movt	r1, :upper16:rubicon_firmware_update_address_list
	.loc	2 1215 69               @ ../Application/hotel_room_controller.c:1215:69
	ldrh	r0, [r0]
	.loc	2 1215 32               @ ../Application/hotel_room_controller.c:1215:32
	ldr	r1, [r1]
	ldrh.w	r0, [r1, r0, lsl #1]
	.loc	2 1217 8 is_stmt 1      @ ../Application/hotel_room_controller.c:1217:8
	movw	r1, :lower16:rubicon_rx_timer
	movt	r1, :upper16:rubicon_rx_timer
	str	r2, [r1]
	movs	r1, #188
	.loc	2 1216 29               @ ../Application/hotel_room_controller.c:1216:29
	strb	r1, [r6]
	movs	r1, #1
	.loc	2 1218 30               @ ../Application/hotel_room_controller.c:1218:30
	strb	r1, [r5]
	b	.LBB3_157
.Ltmp212:
.LBB3_91:
	.loc	2 1276 11               @ ../Application/hotel_room_controller.c:1276:11
	movw	r0, :lower16:rx_buffer
	movt	r0, :upper16:rx_buffer
	ldrb	r1, [r0]
	.loc	2 1276 33 is_stmt 0     @ ../Application/hotel_room_controller.c:1276:33
	cmp	r1, #6
	bne.w	.LBB3_132
@ %bb.92:
	.loc	2 1276 37               @ ../Application/hotel_room_controller.c:1276:37
	ldrb	r1, [r0, #5]
	.loc	2 1276 59               @ ../Application/hotel_room_controller.c:1276:59
	cmp	r1, #1
	bne.w	.LBB3_129
@ %bb.93:
	.loc	2 1276 63               @ ../Application/hotel_room_controller.c:1276:63
	ldrb	r0, [r0, #6]
.Ltmp213:
	.loc	2 1276 10               @ ../Application/hotel_room_controller.c:1276:10
	cmp	r0, #211
	beq.w	.LBB3_177
@ %bb.94:
	cmp	r0, #163
	bne.w	.LBB3_132
@ %bb.95:
.Ltmp214:
	.loc	2 1278 50 is_stmt 1     @ ../Application/hotel_room_controller.c:1278:50
	movw	r0, :lower16:RUBICON_LogListTransfer
	movs	r1, #30
	movt	r0, :upper16:RUBICON_LogListTransfer
	strb	r1, [r0]
.Ltmp215:
	.loc	2 1279 10               @ ../Application/hotel_room_controller.c:1279:10
	movw	r0, :lower16:rubicon_flags
	movt	r0, :upper16:rubicon_flags
	ldr	r0, [r0]
.Ltmp216:
	.loc	2 1279 10 is_stmt 0     @ ../Application/hotel_room_controller.c:1279:10
	lsls	r0, r0, #25
	itt	mi
	movmi	r0, #3
.Ltmp217:
	.loc	2 1279 58               @ ../Application/hotel_room_controller.c:1279:58
	strbmi	r0, [r6]
	b	.LBB3_177
.Ltmp218:
.LBB3_96:
	.loc	2 1390 9 is_stmt 1      @ ../Application/hotel_room_controller.c:1390:9
	movw	r0, :lower16:rubicon_http_cmd_state
	movt	r0, :upper16:rubicon_http_cmd_state
	ldrb	r1, [r0]
.Ltmp219:
	.loc	2 1390 9 is_stmt 0      @ ../Application/hotel_room_controller.c:1390:9
	cmp	r1, #50
	bne.w	.LBB3_177
.Ltmp220:
@ %bb.97:
	.loc	2 0 9                   @ ../Application/hotel_room_controller.c:0:9
	movs	r1, #51
	b	.LBB3_176
.LBB3_98:
.Ltmp221:
	.loc	2 900 6 is_stmt 1       @ ../Application/hotel_room_controller.c:900:6
	movw	r1, :lower16:rubicon_rx_timer
	movs	r2, #3
	movt	r1, :upper16:rubicon_rx_timer
	str	r2, [r1]
	movs	r1, #4
	.loc	2 899 28                @ ../Application/hotel_room_controller.c:899:28
	strb	r1, [r5]
	.loc	2 898 17                @ ../Application/hotel_room_controller.c:898:17
	movw	r1, :lower16:RUBICON_ProcessService.old_rx_cnt
	movt	r1, :upper16:RUBICON_ProcessService.old_rx_cnt
	b	.LBB3_57
.Ltmp222:
.LBB3_99:
	.loc	2 435 39                @ ../Application/hotel_room_controller.c:435:39
	movw	r9, :lower16:RUBICON_FileUpdatePacket
	movt	r9, :upper16:RUBICON_FileUpdatePacket
	ldrb.w	r0, [r9, #1]
	.loc	2 435 76 is_stmt 0      @ ../Application/hotel_room_controller.c:435:76
	subs	r0, #41
	cmp	r0, #28
	bhi.w	.LBB3_125
@ %bb.100:
.Ltmp223:
	.loc	2 438 33 is_stmt 1      @ ../Application/hotel_room_controller.c:438:33
	ldrb.w	r0, [r9, #2]
.Ltmp224:
	.loc	2 438 8 is_stmt 0       @ ../Application/hotel_room_controller.c:438:8
	cmp	r0, #1
	bhi.w	.LBB3_145
@ %bb.101:
.Ltmp225:
	.loc	2 440 6 is_stmt 1       @ ../Application/hotel_room_controller.c:440:6
	bl	RUBICON_PrepareFileUpdatePacket
	b	.LBB3_149
.Ltmp226:
.LBB3_102:
	.loc	2 928 12                @ ../Application/hotel_room_controller.c:928:12
	movw	r4, :lower16:rubicon_flags
	movt	r4, :upper16:rubicon_flags
	ldr	r0, [r4]
	.loc	2 928 46 is_stmt 0      @ ../Application/hotel_room_controller.c:928:46
	lsls	r0, r0, #29
	.loc	2 928 49                @ ../Application/hotel_room_controller.c:928:49
	itt	mi
	ldrmi	r0, [r4]
.Ltmp227:
	.loc	2 928 12                @ ../Application/hotel_room_controller.c:928:12
	lslsmi.w	r0, r0, #28
	bpl.w	.LBB3_181
@ %bb.103:
.Ltmp228:
	.loc	2 930 38 is_stmt 1      @ ../Application/hotel_room_controller.c:930:38
	movw	r0, :lower16:RUBICON_FirmwareUpdatePacket
	movt	r0, :upper16:RUBICON_FirmwareUpdatePacket
	ldrb	r1, [r0, #1]
.Ltmp229:
	.loc	2 930 9 is_stmt 0       @ ../Application/hotel_room_controller.c:930:9
	cmp	r1, #20
	beq.w	.LBB3_200
@ %bb.104:
	cmp	r1, #19
	beq.w	.LBB3_201
@ %bb.105:
	cmp	r1, #18
	bne.w	.LBB3_203
@ %bb.106:
	.loc	2 0 9                   @ ../Application/hotel_room_controller.c:0:9
	movs	r1, #21
.Ltmp230:
	.loc	2 932 48 is_stmt 1      @ ../Application/hotel_room_controller.c:932:48
	strb	r1, [r0, #1]
	.loc	2 933 6                 @ ../Application/hotel_room_controller.c:933:6
	movw	r0, :lower16:display_flags
	movt	r0, :upper16:display_flags
	ldr	r1, [r0]
	orr	r1, r1, #2
	str	r1, [r0]
	.loc	2 934 6                 @ ../Application/hotel_room_controller.c:934:6
	bl	UpdateFileTransferDisplay
	b	.LBB3_206
.Ltmp231:
.LBB3_107:
	.loc	2 1075 14               @ ../Application/hotel_room_controller.c:1075:14
	ldrb	r1, [r0, #14]
.Ltmp232:
	.loc	2 1075 14 is_stmt 0     @ ../Application/hotel_room_controller.c:1075:14
	cmp	r1, #49
	bne.w	.LBB3_134
@ %bb.108:
.Ltmp233:
	.loc	2 1080 35 is_stmt 1     @ ../Application/hotel_room_controller.c:1080:35
	movw	r0, :lower16:rubicon_file_update_list
	movs	r1, #20
	.loc	2 1084 80               @ ../Application/hotel_room_controller.c:1084:80
	movw	r2, :lower16:rs485_rubicon_address
	.loc	2 1084 7 is_stmt 0      @ ../Application/hotel_room_controller.c:1084:7
	movw	r3, :lower16:rubicon_firmware_update_address_list
	.loc	2 1080 35 is_stmt 1     @ ../Application/hotel_room_controller.c:1080:35
	movt	r0, :upper16:rubicon_file_update_list
	.loc	2 1084 80               @ ../Application/hotel_room_controller.c:1084:80
	movt	r2, :upper16:rs485_rubicon_address
	.loc	2 1084 7 is_stmt 0      @ ../Application/hotel_room_controller.c:1084:7
	movt	r3, :upper16:rubicon_firmware_update_address_list
	.loc	2 1080 35 is_stmt 1     @ ../Application/hotel_room_controller.c:1080:35
	strh	r1, [r0]
	.loc	2 1079 51               @ ../Application/hotel_room_controller.c:1079:51
	movw	r0, :lower16:RUBICON_FirmwareUpdatePacket
	movs	r1, #193
	.loc	2 1084 80               @ ../Application/hotel_room_controller.c:1084:80
	ldrh	r2, [r2]
	.loc	2 1084 7 is_stmt 0      @ ../Application/hotel_room_controller.c:1084:7
	ldr	r3, [r3]
	.loc	2 1079 51 is_stmt 1     @ ../Application/hotel_room_controller.c:1079:51
	movt	r0, :upper16:RUBICON_FirmwareUpdatePacket
	strb	r1, [r0]
	.loc	2 1078 28               @ ../Application/hotel_room_controller.c:1078:28
	movw	r0, :lower16:rubicon_ctrl_request
	movs	r1, #99
	movt	r0, :upper16:rubicon_ctrl_request
	strb	r1, [r0]
	.loc	2 1077 47               @ ../Application/hotel_room_controller.c:1077:47
	movw	r0, :lower16:RUBICON_FileUpdatePacket
	movs	r1, #0
	movt	r0, :upper16:RUBICON_FileUpdatePacket
	strb	r1, [r0]
	.loc	2 1082 36               @ ../Application/hotel_room_controller.c:1082:36
	movw	r0, :lower16:rubicon_file_update_list_cnt
	movt	r0, :upper16:rubicon_file_update_list_cnt
	strh	r1, [r0]
	.loc	2 1083 40               @ ../Application/hotel_room_controller.c:1083:40
	movw	r0, :lower16:rubicon_firmware_update_list_cnt
	movt	r0, :upper16:rubicon_firmware_update_list_cnt
	strh	r1, [r0]
	.loc	2 1084 78               @ ../Application/hotel_room_controller.c:1084:78
	strh	r2, [r3]
	.loc	2 1085 39               @ ../Application/hotel_room_controller.c:1085:39
	ldrh	r2, [r0]
	adds	r2, #1
	.loc	2 1086 7                @ ../Application/hotel_room_controller.c:1086:7
	uxth	r2, r2
	.loc	2 1086 78 is_stmt 0     @ ../Application/hotel_room_controller.c:1086:78
	strh.w	r1, [r3, r2, lsl #1]
	.loc	2 1087 40 is_stmt 1     @ ../Application/hotel_room_controller.c:1087:40
	strh	r1, [r0]
	b	.LBB3_177
.Ltmp234:
.LBB3_109:
	.loc	2 1180 44               @ ../Application/hotel_room_controller.c:1180:44
	ldrb	r2, [r0, #1]
.Ltmp235:
	.loc	2 1180 15 is_stmt 0     @ ../Application/hotel_room_controller.c:1180:15
	cmp	r2, #18
	beq.w	.LBB3_163
@ %bb.110:
	cmp	r2, #19
	bne.w	.LBB3_177
@ %bb.111:
.Ltmp236:
	.loc	2 1182 58 is_stmt 1     @ ../Application/hotel_room_controller.c:1182:58
	cbnz	r1, .LBB3_113
@ %bb.112:
	.loc	2 1182 63 is_stmt 0     @ ../Application/hotel_room_controller.c:1182:63
	movw	r2, :lower16:rubicon_flags
	movt	r2, :upper16:rubicon_flags
	ldr	r2, [r2]
.Ltmp237:
	.loc	2 1182 10               @ ../Application/hotel_room_controller.c:1182:10
	lsls	r2, r2, #28
	bpl.w	.LBB3_181
.LBB3_113:
	.loc	2 0 10                  @ ../Application/hotel_room_controller.c:0:10
	movs	r2, #1
	.loc	2 1189 49 is_stmt 1     @ ../Application/hotel_room_controller.c:1189:49
	strb	r2, [r0, #2]
	.loc	2 1188 7                @ ../Application/hotel_room_controller.c:1188:7
	adds	r2, r1, #1
	strd	r2, r1, [r0, #8]
	b	.LBB3_177
.Ltmp238:
.LBB3_114:
	.loc	2 793 39                @ ../Application/hotel_room_controller.c:793:39
	movw	r0, :lower16:RUBICON_FirmwareUpdatePacket
	movt	r0, :upper16:RUBICON_FirmwareUpdatePacket
	ldrb	r1, [r0, #1]
.Ltmp239:
	.loc	2 793 10 is_stmt 0      @ ../Application/hotel_room_controller.c:793:10
	cmp	r1, #18
	beq.w	.LBB3_182
@ %bb.115:
	cmp	r1, #20
	beq.w	.LBB3_183
@ %bb.116:
	cmp	r1, #19
	bne.w	.LBB3_181
@ %bb.117:
.Ltmp240:
	.loc	2 795 39 is_stmt 1      @ ../Application/hotel_room_controller.c:795:39
	ldr	r0, [r0, #8]
.Ltmp241:
	.loc	2 795 10 is_stmt 0      @ ../Application/hotel_room_controller.c:795:10
	cmp	r0, #0
	bne.w	.LBB3_181
@ %bb.118:
.Ltmp242:
	.loc	2 797 8 is_stmt 1       @ ../Application/hotel_room_controller.c:797:8
	movw	r0, :lower16:rubicon_fw_update_timer
	movw	r1, #2345
	b	.LBB3_184
.Ltmp243:
.LBB3_119:
	.loc	2 0 8 is_stmt 0         @ ../Application/hotel_room_controller.c:0:8
	movw	r0, #321
.Ltmp244:
	.loc	2 814 6 is_stmt 1       @ ../Application/hotel_room_controller.c:814:6
	str	r0, [r6]
.Ltmp245:
.LBB3_120:
	.loc	2 0 0 is_stmt 0         @ ../Application/hotel_room_controller.c:0:0
	ldr	r0, [r4]
	bic	r0, r0, #4
.LBB3_121:
	str	r0, [r4]
	b	.LBB3_181
.LBB3_122:
.Ltmp246:
	.loc	2 825 39 is_stmt 1      @ ../Application/hotel_room_controller.c:825:39
	movw	r7, :lower16:RUBICON_FirmwareUpdatePacket
	movt	r7, :upper16:RUBICON_FirmwareUpdatePacket
	ldrb	r0, [r7]
	.loc	2 825 82 is_stmt 0      @ ../Application/hotel_room_controller.c:825:82
	cmp	r0, #194
	beq.w	.LBB3_169
@ %bb.123:
	cmp	r0, #193
	bne.w	.LBB3_181
@ %bb.124:
.Ltmp247:
	.loc	2 829 83 is_stmt 1      @ ../Application/hotel_room_controller.c:829:83
	movw	r0, :lower16:rubicon_file_update_list_cnt
	.loc	2 829 58 is_stmt 0      @ ../Application/hotel_room_controller.c:829:58
	movw	r1, :lower16:rubicon_file_update_list
	.loc	2 829 83                @ ../Application/hotel_room_controller.c:829:83
	movt	r0, :upper16:rubicon_file_update_list_cnt
	.loc	2 829 58                @ ../Application/hotel_room_controller.c:829:58
	movt	r1, :upper16:rubicon_file_update_list
	.loc	2 829 83                @ ../Application/hotel_room_controller.c:829:83
	ldrh	r0, [r0]
	.loc	2 829 58                @ ../Application/hotel_room_controller.c:829:58
	ldrb	r1, [r1, r0]
	.loc	2 829 8                 @ ../Application/hotel_room_controller.c:829:8
	movs	r0, #214
	bl	CONTROLLER_WriteLogEvent
	.loc	2 830 60 is_stmt 1      @ ../Application/hotel_room_controller.c:830:60
	ldrb	r0, [r7, #1]
	movs	r1, #20
	.loc	2 831 50                @ ../Application/hotel_room_controller.c:831:50
	strb	r1, [r7, #1]
	b	.LBB3_170
.Ltmp248:
.LBB3_125:
	.loc	2 502 13                @ ../Application/hotel_room_controller.c:502:13
	movw	r8, :lower16:rubicon_ctrl_request
	movt	r8, :upper16:rubicon_ctrl_request
	ldrb.w	r4, [r8]
.Ltmp249:
	.loc	2 502 13 is_stmt 0      @ ../Application/hotel_room_controller.c:502:13
	cmp	r4, #192
	bgt	.LBB3_150
@ %bb.126:
	cmp	r4, #0
	beq.w	.LBB3_192
@ %bb.127:
	cmp	r4, #163
	beq.w	.LBB3_168
	b	.LBB3_186
.Ltmp250:
.LBB3_128:
	.loc	2 0 13                  @ ../Application/hotel_room_controller.c:0:13
	movs	r1, #1
.Ltmp251:
	.loc	2 409 43 is_stmt 1      @ ../Application/hotel_room_controller.c:409:43
	strb	r1, [r0, #2]
	b	.LBB3_142
.Ltmp252:
.LBB3_129:
	.loc	2 1281 64               @ ../Application/hotel_room_controller.c:1281:64
	cmp	r1, #18
	bne	.LBB3_132
@ %bb.130:
	.loc	2 0 0 is_stmt 0         @ ../Application/hotel_room_controller.c:0:0
	ldrb	r0, [r0, #6]
	.loc	2 1281 64               @ ../Application/hotel_room_controller.c:1281:64
	cmp	r0, #163
	bne	.LBB3_132
@ %bb.131:
.Ltmp253:
	.loc	2 1283 7 is_stmt 1      @ ../Application/hotel_room_controller.c:1283:7
	movs	r0, #0
	bl	RUBICON_WriteLogToList
	.loc	2 1284 7                @ ../Application/hotel_room_controller.c:1284:7
	bl	UpdateLogDisplay
	b	.LBB3_177
.Ltmp254:
.LBB3_132:
	.loc	2 1383 25               @ ../Application/hotel_room_controller.c:1383:25
	movw	r0, :lower16:RUBICON_LogListTransfer
	movt	r0, :upper16:RUBICON_LogListTransfer
.Ltmp255:
.LBB3_133:
	.loc	2 0 0 is_stmt 0         @ ../Application/hotel_room_controller.c:0:0
	ldrb	r1, [r0, #2]
	adds	r1, #1
	strb	r1, [r0, #2]
	b	.LBB3_177
.LBB3_134:
.Ltmp256:
	.loc	2 1089 16 is_stmt 1     @ ../Application/hotel_room_controller.c:1089:16
	ldrb	r1, [r0, #7]
	.loc	2 1089 37 is_stmt 0     @ ../Application/hotel_room_controller.c:1089:37
	cmp	r1, #49
	beq.w	.LBB3_175
@ %bb.135:
	.loc	2 0 0                   @ ../Application/hotel_room_controller.c:0:0
	ldrb	r0, [r0, #8]
	.loc	2 1089 37               @ ../Application/hotel_room_controller.c:1089:37
	cmp	r0, #49
	beq.w	.LBB3_175
@ %bb.136:
.Ltmp257:
	.loc	2 1099 10 is_stmt 1     @ ../Application/hotel_room_controller.c:1099:10
	movw	r0, :lower16:rubicon_flags
	movt	r0, :upper16:rubicon_flags
	ldr	r1, [r0]
	.loc	2 1099 42 is_stmt 0     @ ../Application/hotel_room_controller.c:1099:42
	lsls	r1, r1, #25
	bpl.w	.LBB3_177
@ %bb.137:
	.loc	2 1099 46               @ ../Application/hotel_room_controller.c:1099:46
	ldr	r1, [r0]
.Ltmp258:
	.loc	2 1099 10               @ ../Application/hotel_room_controller.c:1099:10
	lsls	r1, r1, #24
	bmi.w	.LBB3_177
@ %bb.138:
.Ltmp259:
	.loc	2 1102 35 is_stmt 1     @ ../Application/hotel_room_controller.c:1102:35
	movw	r1, :lower16:rubicon_status_request_cnt
	movs	r2, #0
	movt	r1, :upper16:rubicon_status_request_cnt
	strb	r2, [r1]
	.loc	2 1101 8                @ ../Application/hotel_room_controller.c:1101:8
	ldr	r1, [r0]
	orr	r1, r1, #128
	str	r1, [r0]
	b	.LBB3_177
.Ltmp260:
.LBB3_139:
	.loc	2 419 14                @ ../Application/hotel_room_controller.c:419:14
	cmp	r1, r3
	bne	.LBB3_142
@ %bb.140:
	.loc	2 0 14 is_stmt 0        @ ../Application/hotel_room_controller.c:0:14
	movs	r1, #1
	movs	r2, #31
.LBB3_141:
	strb	r1, [r0, #2]
	strb	r2, [r0]
.Ltmp261:
.LBB3_142:
	strb	r1, [r0, #1]
.Ltmp262:
	.loc	2 431 5 is_stmt 1       @ ../Application/hotel_room_controller.c:431:5
	bl	RUBICON_PrepareLogUpdatePacket
	movs	r0, #2
	movs	r1, #6
.Ltmp263:
.LBB3_143:
	.loc	2 0 0 is_stmt 0         @ ../Application/hotel_room_controller.c:0:0
	strb	r0, [r5]
	movw	r0, :lower16:eRubiconUpdate
	movt	r0, :upper16:eRubiconUpdate
.LBB3_144:
	strb	r1, [r0]
	b	.LBB3_181
.LBB3_145:
.Ltmp264:
	.loc	2 444 13 is_stmt 1      @ ../Application/hotel_room_controller.c:444:13
	cmp	r0, #10
	blo	.LBB3_149
@ %bb.146:
.Ltmp265:
	.loc	2 446 38                @ ../Application/hotel_room_controller.c:446:38
	ldrb	r0, [r7]
.Ltmp266:
	.loc	2 446 9 is_stmt 0       @ ../Application/hotel_room_controller.c:446:9
	cmp	r0, #194
	beq.w	.LBB3_209
@ %bb.147:
	cmp	r0, #193
	bne.w	.LBB3_210
@ %bb.148:
.Ltmp267:
	.loc	2 446 81                @ ../Application/hotel_room_controller.c:446:81
	movs	r0, #215
	b	.LBB3_212
.Ltmp268:
.LBB3_149:
	.loc	2 0 0                   @ ../Application/hotel_room_controller.c:0:0
	movw	r0, :lower16:eRubiconUpdate
	movs	r1, #5
	b	.LBB3_63
.Ltmp269:
.LBB3_150:
	.loc	2 502 13 is_stmt 1      @ ../Application/hotel_room_controller.c:502:13
	cmp	r4, #211
	beq.w	.LBB3_168
@ %bb.151:
	cmp	r4, #193
	bne.w	.LBB3_186
@ %bb.152:
.Ltmp270:
	.loc	2 507 19                @ ../Application/hotel_room_controller.c:507:19
	bl	RUBICON_CheckNewFirmwareFile
.Ltmp271:
	@DEBUG_VALUE: RUBICON_ProcessService:fw_status <- undef
	.loc	2 509 10                @ ../Application/hotel_room_controller.c:509:10
	subs	r0, #1
	cmp	r0, #3
	bhi.w	.LBB3_284
@ %bb.153:
	.loc	2 0 10 is_stmt 0        @ ../Application/hotel_room_controller.c:0:10
.LCPI3_4:
	tbh	[pc, r0, lsl #1]
@ %bb.154:
.LJTI3_4:
	.short	(.LBB3_155-(.LCPI3_4+4))/2
	.short	(.LBB3_239-(.LCPI3_4+4))/2
	.short	(.LBB3_240-(.LCPI3_4+4))/2
	.short	(.LBB3_241-(.LCPI3_4+4))/2
	.p2align	1
.LBB3_155:
.Ltmp272:
	.loc	2 511 11 is_stmt 1      @ ../Application/hotel_room_controller.c:511:11
	movw	r0, :lower16:display_flags
	movt	r0, :upper16:display_flags
	ldr	r1, [r0]
.Ltmp273:
	.loc	2 511 10 is_stmt 0      @ ../Application/hotel_room_controller.c:511:10
	lsls	r2, r1, #27
.Ltmp274:
	.loc	2 511 45                @ ../Application/hotel_room_controller.c:511:45
	itt	pl
	orrpl	r1, r1, #8
	strpl	r1, [r0]
.Ltmp275:
	.loc	2 512 7 is_stmt 1       @ ../Application/hotel_room_controller.c:512:7
	bl	RUBICON_PrepareFirmwareUpdatePacket
	.loc	2 515 7                 @ ../Application/hotel_room_controller.c:515:7
	movw	r0, :lower16:rubicon_flags
	movs	r2, #4
	movt	r0, :upper16:rubicon_flags
	ldr	r1, [r0]
	bic	r1, r1, #256
	str	r1, [r0]
	.loc	2 516 7                 @ ../Application/hotel_room_controller.c:516:7
	ldr	r1, [r0]
	bic	r1, r1, #64
	str	r1, [r0]
	.loc	2 514 22                @ ../Application/hotel_room_controller.c:514:22
	movw	r1, :lower16:eRubiconUpdate
	movt	r1, :upper16:eRubiconUpdate
	strb	r2, [r1]
	movs	r1, #2
	.loc	2 513 29                @ ../Application/hotel_room_controller.c:513:29
	strb	r1, [r5]
	.loc	2 517 7                 @ ../Application/hotel_room_controller.c:517:7
	ldr	r1, [r0]
	bic	r1, r1, #128
	str	r1, [r0]
	b	.LBB3_238
.Ltmp276:
.LBB3_156:
	.loc	2 1223 69               @ ../Application/hotel_room_controller.c:1223:69
	movw	r0, :lower16:rubicon_firmware_update_list_cnt
	.loc	2 1223 32 is_stmt 0     @ ../Application/hotel_room_controller.c:1223:32
	movw	r1, :lower16:rubicon_firmware_update_address_list
	mov.w	r2, #3456
	.loc	2 1223 69               @ ../Application/hotel_room_controller.c:1223:69
	movt	r0, :upper16:rubicon_firmware_update_list_cnt
	.loc	2 1223 32               @ ../Application/hotel_room_controller.c:1223:32
	movt	r1, :upper16:rubicon_firmware_update_address_list
	.loc	2 1223 69               @ ../Application/hotel_room_controller.c:1223:69
	ldrh	r0, [r0]
	.loc	2 1223 32               @ ../Application/hotel_room_controller.c:1223:32
	ldr	r1, [r1]
	ldrh.w	r0, [r1, r0, lsl #1]
	.loc	2 1225 8 is_stmt 1      @ ../Application/hotel_room_controller.c:1225:8
	movw	r1, :lower16:rubicon_rx_timer
	movt	r1, :upper16:rubicon_rx_timer
	str	r2, [r1]
	movs	r1, #194
	.loc	2 1226 30               @ ../Application/hotel_room_controller.c:1226:30
	strb	r7, [r5]
	.loc	2 1224 29               @ ../Application/hotel_room_controller.c:1224:29
	strb	r1, [r6]
.Ltmp277:
.LBB3_157:
	.loc	2 0 0 is_stmt 0         @ ../Application/hotel_room_controller.c:0:0
	movw	r1, :lower16:rs485_rubicon_address
	movt	r1, :upper16:rs485_rubicon_address
	strh	r0, [r1]
	b	.LBB3_179
.LBB3_158:
.Ltmp278:
	.loc	2 1229 40 is_stmt 1     @ ../Application/hotel_room_controller.c:1229:40
	ldrb	r0, [r4]
.Ltmp279:
	.loc	2 1229 15 is_stmt 0     @ ../Application/hotel_room_controller.c:1229:15
	cmp	r0, #99
	bne	.LBB3_161
@ %bb.159:
.Ltmp280:
	.loc	2 1231 81 is_stmt 1     @ ../Application/hotel_room_controller.c:1231:81
	movw	r7, :lower16:rubicon_file_update_list_cnt
	.loc	2 1231 56 is_stmt 0     @ ../Application/hotel_room_controller.c:1231:56
	movw	r8, :lower16:rubicon_file_update_list
	.loc	2 1231 81               @ ../Application/hotel_room_controller.c:1231:81
	movt	r7, :upper16:rubicon_file_update_list_cnt
	.loc	2 1231 56               @ ../Application/hotel_room_controller.c:1231:56
	movt	r8, :upper16:rubicon_file_update_list
	.loc	2 1231 81               @ ../Application/hotel_room_controller.c:1231:81
	ldrh	r0, [r7]
	.loc	2 1231 56               @ ../Application/hotel_room_controller.c:1231:56
	ldrb.w	r1, [r8, r0]
	.loc	2 1231 8                @ ../Application/hotel_room_controller.c:1231:8
	movs	r0, #218
	bl	CONTROLLER_WriteLogEvent
	.loc	2 1232 36 is_stmt 1     @ ../Application/hotel_room_controller.c:1232:36
	ldrh	r0, [r7]
	adds	r0, #1
	strh	r0, [r7]
.Ltmp281:
	.loc	2 1234 11               @ ../Application/hotel_room_controller.c:1234:11
	uxth	r0, r0
	ldrb.w	r0, [r8, r0]
.Ltmp282:
	.loc	2 1234 11 is_stmt 0     @ ../Application/hotel_room_controller.c:1234:11
	cmp	r0, #0
	beq.w	.LBB3_207
@ %bb.160:
.Ltmp283:
	.loc	2 1253 67 is_stmt 1     @ ../Application/hotel_room_controller.c:1253:67
	movw	r0, :lower16:rubicon_image_update_list_cnt
	.loc	2 1253 33 is_stmt 0     @ ../Application/hotel_room_controller.c:1253:33
	movw	r1, :lower16:rubicon_image_update_address_list
	.loc	2 1253 67               @ ../Application/hotel_room_controller.c:1253:67
	movt	r0, :upper16:rubicon_image_update_list_cnt
	.loc	2 1253 33               @ ../Application/hotel_room_controller.c:1253:33
	movt	r1, :upper16:rubicon_image_update_address_list
	.loc	2 1253 67               @ ../Application/hotel_room_controller.c:1253:67
	ldrh	r0, [r0]
	.loc	2 1253 33               @ ../Application/hotel_room_controller.c:1253:33
	ldr	r1, [r1]
	ldrh.w	r0, [r1, r0, lsl #1]
	movs	r1, #99
	.loc	2 1254 30 is_stmt 1     @ ../Application/hotel_room_controller.c:1254:30
	strb	r1, [r6]
	.loc	2 1253 31               @ ../Application/hotel_room_controller.c:1253:31
	movw	r1, :lower16:rs485_rubicon_address
	movt	r1, :upper16:rs485_rubicon_address
	strh	r0, [r1]
	b	.LBB3_208
.Ltmp284:
.LBB3_161:
	.loc	2 1264 36               @ ../Application/hotel_room_controller.c:1264:36
	ldrb	r0, [r4, #1]
	.loc	2 1264 73 is_stmt 0     @ ../Application/hotel_room_controller.c:1264:73
	subs	r0, #41
	cmp	r0, #28
	bhi.w	.LBB3_177
@ %bb.162:
	.loc	2 0 73                  @ ../Application/hotel_room_controller.c:0:73
	movs	r0, #1
.Ltmp285:
	.loc	2 1269 45 is_stmt 1     @ ../Application/hotel_room_controller.c:1269:45
	strb	r0, [r4, #2]
	.loc	2 1267 76               @ ../Application/hotel_room_controller.c:1267:76
	ldr	r0, [r4, #8]
	.loc	2 1268 7                @ ../Application/hotel_room_controller.c:1268:7
	adds	r1, r0, #1
	strd	r1, r0, [r4, #8]
	b	.LBB3_177
.Ltmp286:
.LBB3_163:
	.loc	2 1192 10               @ ../Application/hotel_room_controller.c:1192:10
	movw	r0, :lower16:rubicon_flags
	movt	r0, :upper16:rubicon_flags
	ldr	r0, [r0]
.Ltmp287:
	.loc	2 1191 15               @ ../Application/hotel_room_controller.c:1191:15
	lsls	r0, r0, #28
	bmi.w	.LBB3_177
	b	.LBB3_181
.Ltmp288:
.LBB3_164:
	.loc	2 987 40                @ ../Application/hotel_room_controller.c:987:40
	movw	r0, :lower16:RUBICON_FirmwareUpdatePacket
	movt	r0, :upper16:RUBICON_FirmwareUpdatePacket
	ldrb	r1, [r0, #1]
.Ltmp289:
	.loc	2 987 11 is_stmt 0      @ ../Application/hotel_room_controller.c:987:11
	cmp	r1, #19
	beq.w	.LBB3_42
@ %bb.165:
.Ltmp290:
	.loc	2 991 41 is_stmt 1      @ ../Application/hotel_room_controller.c:991:41
	movw	r0, :lower16:RUBICON_LogListTransfer
	movt	r0, :upper16:RUBICON_LogListTransfer
	ldrb	r1, [r0]
	.loc	2 991 88 is_stmt 0      @ ../Application/hotel_room_controller.c:991:88
	subs	r1, #31
	cmp	r1, #1
	bls.w	.LBB3_42
@ %bb.166:
.Ltmp291:
	.loc	2 996 15 is_stmt 1      @ ../Application/hotel_room_controller.c:996:15
	movw	r0, :lower16:rubicon_http_cmd_state
	movt	r0, :upper16:rubicon_http_cmd_state
	ldrb	r1, [r0]
.Ltmp292:
.LBB3_167:
	.loc	2 0 0 is_stmt 0         @ ../Application/hotel_room_controller.c:0:0
	cmp	r1, #46
	beq.w	.LBB3_52
	b	.LBB3_53
.Ltmp293:
.LBB3_168:
	.loc	2 556 21 is_stmt 1      @ ../Application/hotel_room_controller.c:556:21
	movw	r0, :lower16:eRubiconUpdate
	movs	r1, #8
	b	.LBB3_199
.Ltmp294:
.LBB3_169:
	.loc	2 837 86                @ ../Application/hotel_room_controller.c:837:86
	movw	r0, :lower16:rubicon_file_update_list_cnt
	.loc	2 837 61 is_stmt 0      @ ../Application/hotel_room_controller.c:837:61
	movw	r1, :lower16:rubicon_file_update_list
	mov.w	r8, #216
	.loc	2 837 86                @ ../Application/hotel_room_controller.c:837:86
	movt	r0, :upper16:rubicon_file_update_list_cnt
	.loc	2 837 61                @ ../Application/hotel_room_controller.c:837:61
	movt	r1, :upper16:rubicon_file_update_list
	.loc	2 837 86                @ ../Application/hotel_room_controller.c:837:86
	ldrh	r0, [r0]
	.loc	2 837 61                @ ../Application/hotel_room_controller.c:837:61
	ldrb	r1, [r1, r0]
	.loc	2 837 8                 @ ../Application/hotel_room_controller.c:837:8
	movs	r0, #216
	bl	CONTROLLER_WriteLogEvent
	.loc	2 838 60 is_stmt 1      @ ../Application/hotel_room_controller.c:838:60
	ldrb	r0, [r7, #1]
	.loc	2 839 50                @ ../Application/hotel_room_controller.c:839:50
	strb.w	r8, [r7, #1]
.Ltmp295:
.LBB3_170:
	.loc	2 0 0 is_stmt 0         @ ../Application/hotel_room_controller.c:0:0
	movw	r1, :lower16:rubicon_ctrl_request
	movt	r1, :upper16:rubicon_ctrl_request
	strb	r0, [r1]
	bl	UpdateFileTransferDisplay
	movw	r0, :lower16:rubicon_ctrl_request
	movt	r0, :upper16:rubicon_ctrl_request
	ldrb	r1, [r0]
	strb	r1, [r7, #1]
.Ltmp296:
	.loc	2 844 39 is_stmt 1      @ ../Application/hotel_room_controller.c:844:39
	movw	r1, :lower16:rubicon_firmware_update_list_cnt
	movt	r1, :upper16:rubicon_firmware_update_list_cnt
	ldrh	r2, [r1]
	adds	r2, #1
	strh	r2, [r1]
.Ltmp297:
	.loc	2 846 10                @ ../Application/hotel_room_controller.c:846:10
	movw	r1, :lower16:rubicon_firmware_update_address_list
	uxth	r2, r2
	movt	r1, :upper16:rubicon_firmware_update_address_list
	ldr	r1, [r1]
	ldrh.w	r1, [r1, r2, lsl #1]
.Ltmp298:
	.loc	2 846 10 is_stmt 0      @ ../Application/hotel_room_controller.c:846:10
	cmp	r1, #0
	beq	.LBB3_185
@ %bb.171:
	.loc	2 0 10                  @ ../Application/hotel_room_controller.c:0:10
	movw	r1, #12345
.Ltmp299:
	.loc	2 855 8 is_stmt 1       @ ../Application/hotel_room_controller.c:855:8
	str	r1, [r6]
	movs	r1, #99
	.loc	2 854 29                @ ../Application/hotel_room_controller.c:854:29
	strb	r1, [r0]
	b.w	.LBB3_16
.Ltmp300:
.LBB3_172:
	.loc	2 1151 9                @ ../Application/hotel_room_controller.c:1151:9
	movw	r2, :lower16:rubiconJournal_1
	orr	r1, r0, #2
	.loc	2 1152 9                @ ../Application/hotel_room_controller.c:1152:9
	orr	r0, r0, #3
	.loc	2 1151 9                @ ../Application/hotel_room_controller.c:1151:9
	movt	r2, :upper16:rubiconJournal_1
	.loc	2 1151 63 is_stmt 0     @ ../Application/hotel_room_controller.c:1151:63
	ldrh.w	r3, [r2, r1, lsl #1]
	adds	r3, #1
	strh.w	r3, [r2, r1, lsl #1]
	.loc	2 1152 63 is_stmt 1     @ ../Application/hotel_room_controller.c:1152:63
	ldrh.w	r1, [r2, r0, lsl #1]
	adds	r1, #1
	strh.w	r1, [r2, r0, lsl #1]
	.loc	2 1153 30               @ ../Application/hotel_room_controller.c:1153:30
	ldrh	r0, [r2, #44]
	adds	r0, #1
	strh	r0, [r2, #44]
	.loc	2 1154 30               @ ../Application/hotel_room_controller.c:1154:30
	ldrh	r0, [r2, #46]
	adds	r0, #1
	strh	r0, [r2, #46]
	.loc	2 1155 30               @ ../Application/hotel_room_controller.c:1155:30
	ldrh.w	r0, [r2, #92]
	adds	r0, #1
	strh.w	r0, [r2, #92]
	b	.LBB3_174
.Ltmp301:
.LBB3_173:
	.loc	2 1140 9                @ ../Application/hotel_room_controller.c:1140:9
	movw	r2, :lower16:rubiconJournal_1
	orr	r1, r0, #1
	.loc	2 1141 9                @ ../Application/hotel_room_controller.c:1141:9
	orr	r0, r0, #3
	.loc	2 1140 9                @ ../Application/hotel_room_controller.c:1140:9
	movt	r2, :upper16:rubiconJournal_1
	.loc	2 1140 63 is_stmt 0     @ ../Application/hotel_room_controller.c:1140:63
	ldrh.w	r3, [r2, r1, lsl #1]
	adds	r3, #1
	strh.w	r3, [r2, r1, lsl #1]
	.loc	2 1141 63 is_stmt 1     @ ../Application/hotel_room_controller.c:1141:63
	ldrh.w	r1, [r2, r0, lsl #1]
	adds	r1, #1
	strh.w	r1, [r2, r0, lsl #1]
	.loc	2 1142 30               @ ../Application/hotel_room_controller.c:1142:30
	ldrh	r0, [r2, #42]
	adds	r0, #1
	strh	r0, [r2, #42]
	.loc	2 1143 30               @ ../Application/hotel_room_controller.c:1143:30
	ldrh	r0, [r2, #46]
	adds	r0, #1
	strh	r0, [r2, #46]
	.loc	2 1144 30               @ ../Application/hotel_room_controller.c:1144:30
	ldrh.w	r0, [r2, #90]
	adds	r0, #1
	strh.w	r0, [r2, #90]
.Ltmp302:
.LBB3_174:
	.loc	2 0 0 is_stmt 0         @ ../Application/hotel_room_controller.c:0:0
	ldrh.w	r0, [r2, #94]
	adds	r0, #1
	strh.w	r0, [r2, #94]
	b	.LBB3_177
.Ltmp303:
.LBB3_175:
	.loc	2 1091 50 is_stmt 1     @ ../Application/hotel_room_controller.c:1091:50
	movw	r0, :lower16:RUBICON_LogListTransfer
	movs	r1, #0
	movt	r0, :upper16:RUBICON_LogListTransfer
	.loc	2 1092 44               @ ../Application/hotel_room_controller.c:1092:44
	strb	r1, [r0, #2]
	movs	r1, #31
.Ltmp304:
.LBB3_176:
	.loc	2 0 0 is_stmt 0         @ ../Application/hotel_room_controller.c:0:0
	strb	r1, [r0]
.LBB3_177:
	movw	r0, :lower16:rubicon_rx_timer
	movs	r1, #10
.LBB3_178:
	movt	r0, :upper16:rubicon_rx_timer
	str	r1, [r0]
	movs	r0, #1
	strb	r0, [r5]
.LBB3_179:
	movw	r0, :lower16:rubicon_flags
	movt	r0, :upper16:rubicon_flags
	ldr	r1, [r0]
	bic	r1, r1, #4
.LBB3_180:
	str	r1, [r0]
.Ltmp305:
.LBB3_181:
	.loc	2 1415 1 is_stmt 1      @ ../Application/hotel_room_controller.c:1415:1
	add	sp, #4
	pop.w	{r4, r5, r6, r7, r8, r9, pc}
.LBB3_182:
.Ltmp306:
	.loc	2 802 7                 @ ../Application/hotel_room_controller.c:802:7
	movw	r0, :lower16:rubicon_fw_update_timer
	mov.w	r1, #3456
	b	.LBB3_184
.Ltmp307:
.LBB3_183:
	.loc	2 807 7                 @ ../Application/hotel_room_controller.c:807:7
	movw	r0, :lower16:rubicon_fw_update_timer
	movw	r1, #12345
.Ltmp308:
.LBB3_184:
	.loc	2 0 0 is_stmt 0         @ ../Application/hotel_room_controller.c:0:0
	movt	r0, :upper16:rubicon_fw_update_timer
	str	r1, [r0]
	ldr	r0, [r4]
	bic	r0, r0, #8
	b	.LBB3_121
.Ltmp309:
.LBB3_185:
	movw	r0, #1567
.Ltmp310:
	.loc	2 850 8 is_stmt 1       @ ../Application/hotel_room_controller.c:850:8
	str	r0, [r6]
	movs	r0, #0
	.loc	2 849 52                @ ../Application/hotel_room_controller.c:849:52
	strb	r0, [r7]
	b	.LBB3_120
.Ltmp311:
.LBB3_186:
	.loc	2 0 0 is_stmt 0         @ ../Application/hotel_room_controller.c:0:0
	ldrb	r0, [r7]
.Ltmp312:
	.loc	2 558 14 is_stmt 1      @ ../Application/hotel_room_controller.c:558:14
	cmp	r4, #99
	bne	.LBB3_196
@ %bb.187:
.Ltmp313:
	.loc	2 560 82                @ ../Application/hotel_room_controller.c:560:82
	adds	r0, #63
	uxtb	r0, r0
	cmp	r0, #1
	bhi.w	.LBB3_228
@ %bb.188:
.Ltmp314:
	.loc	2 562 24                @ ../Application/hotel_room_controller.c:562:24
	movw	r4, :lower16:rubicon_ctrl_buffer
	movw	r0, :lower16:p_rubicon_buffer
	movs	r1, #0
	movt	r4, :upper16:rubicon_ctrl_buffer
	movt	r0, :upper16:p_rubicon_buffer
	add.w	r2, r4, #512
	mov	r3, r4
	str	r4, [r0]
.LBB3_189:                              @ =>This Inner Loop Header: Depth=1
	.loc	2 563 100               @ ../Application/hotel_room_controller.c:563:100
	adds	r6, r3, #1
	str	r6, [r0]
	.loc	2 563 103 is_stmt 0     @ ../Application/hotel_room_controller.c:563:103
	strb	r1, [r3]
	.loc	2 563 13                @ ../Application/hotel_room_controller.c:563:13
	ldr	r3, [r0]
	.loc	2 563 7                 @ ../Application/hotel_room_controller.c:563:7
	cmp	r3, r2
	blo	.LBB3_189
@ %bb.190:
	.loc	2 564 73 is_stmt 1      @ ../Application/hotel_room_controller.c:564:73
	movw	r0, :lower16:rubicon_firmware_update_list_cnt
	.loc	2 564 36 is_stmt 0      @ ../Application/hotel_room_controller.c:564:36
	movw	r1, :lower16:rubicon_firmware_update_address_list
	.loc	2 564 73                @ ../Application/hotel_room_controller.c:564:73
	movt	r0, :upper16:rubicon_firmware_update_list_cnt
	.loc	2 564 36                @ ../Application/hotel_room_controller.c:564:36
	movt	r1, :upper16:rubicon_firmware_update_address_list
	.loc	2 564 73                @ ../Application/hotel_room_controller.c:564:73
	ldrh	r0, [r0]
	.loc	2 564 36                @ ../Application/hotel_room_controller.c:564:36
	ldr	r1, [r1]
	ldrh.w	r1, [r1, r0, lsl #1]
	.loc	2 564 7                 @ ../Application/hotel_room_controller.c:564:7
	mov	r0, r4
	bl	Int2Str
	movs	r0, #0
.Ltmp315:
	@DEBUG_VALUE: RUBICON_ProcessService:t <- 0
.LBB3_191:                              @ =>This Inner Loop Header: Depth=1
	@DEBUG_VALUE: RUBICON_ProcessService:t <- $r0
	.loc	2 566 14 is_stmt 1      @ ../Application/hotel_room_controller.c:566:14
	uxtb	r1, r0
	.loc	2 0 0 is_stmt 0         @ ../Application/hotel_room_controller.c:0:0
	adds	r0, #1
.Ltmp316:
	@DEBUG_VALUE: RUBICON_ProcessService:t <- $r0
	.loc	2 566 14                @ ../Application/hotel_room_controller.c:566:14
	ldrb	r1, [r4, r1]
	.loc	2 566 7                 @ ../Application/hotel_room_controller.c:566:7
	cmp	r1, #0
	bne	.LBB3_191
	b	.LBB3_233
.Ltmp317:
.LBB3_192:
	.loc	2 650 12 is_stmt 1      @ ../Application/hotel_room_controller.c:650:12
	movw	r0, :lower16:rubicon_flags
	movt	r0, :upper16:rubicon_flags
	ldr	r1, [r0]
	.loc	2 650 44 is_stmt 0      @ ../Application/hotel_room_controller.c:650:44
	lsls	r1, r1, #25
	.loc	2 650 47                @ ../Application/hotel_room_controller.c:650:47
	itt	mi
	ldrmi	r1, [r0]
.Ltmp318:
	.loc	2 650 12                @ ../Application/hotel_room_controller.c:650:12
	lslsmi.w	r1, r1, #24
	bmi.w	.LBB3_243
@ %bb.193:
.Ltmp319:
	.loc	2 665 12 is_stmt 1      @ ../Application/hotel_room_controller.c:665:12
	ldr	r2, [r0]
	.loc	2 0 0 is_stmt 0         @ ../Application/hotel_room_controller.c:0:0
	ldr	r1, [r0]
.Ltmp320:
	.loc	2 665 12                @ ../Application/hotel_room_controller.c:665:12
	lsls	r2, r2, #23
	bmi.w	.LBB3_220
@ %bb.194:
.Ltmp321:
	.loc	2 704 12 is_stmt 1      @ ../Application/hotel_room_controller.c:704:12
	lsls	r1, r1, #31
	bne.w	.LBB3_245
@ %bb.195:
.Ltmp322:
	.loc	2 717 29                @ ../Application/hotel_room_controller.c:717:29
	bl	RUBICON_GetNextAddress
	.loc	2 717 27 is_stmt 0      @ ../Application/hotel_room_controller.c:717:27
	movw	r1, :lower16:rs485_rubicon_address
	movs	r2, #1
	movs	r3, #2
	movt	r1, :upper16:rs485_rubicon_address
	.loc	2 720 27 is_stmt 1      @ ../Application/hotel_room_controller.c:720:27
	strb	r3, [r5]
	.loc	2 717 27                @ ../Application/hotel_room_controller.c:717:27
	strh	r0, [r1]
.Ltmp323:
	.loc	2 1798 18               @ ../Application/hotel_room_controller.c:1798:18
	movw	r1, :lower16:tx_buffer
	movt	r1, :upper16:tx_buffer
	.loc	2 1800 18               @ ../Application/hotel_room_controller.c:1800:18
	strb	r0, [r1, #2]
	.loc	2 1798 18               @ ../Application/hotel_room_controller.c:1798:18
	strb	r2, [r1]
	movs	r2, #4
	.loc	2 1799 42               @ ../Application/hotel_room_controller.c:1799:42
	lsrs	r0, r0, #8
	.loc	2 1807 18               @ ../Application/hotel_room_controller.c:1807:18
	strb	r2, [r1, #9]
	movw	r2, #40961
	movt	r2, #40960
	.loc	2 1803 18               @ ../Application/hotel_room_controller.c:1803:18
	str.w	r2, [r1, #5]
	.loc	2 1799 18               @ ../Application/hotel_room_controller.c:1799:18
	strb	r0, [r1, #1]
	.loc	2 1801 20               @ ../Application/hotel_room_controller.c:1801:20
	movw	r0, :lower16:rs485_interface_address
.Ltmp324:
	.loc	2 719 20                @ ../Application/hotel_room_controller.c:719:20
	movw	r2, :lower16:eRubiconUpdate
.Ltmp325:
	.loc	2 1801 20               @ ../Application/hotel_room_controller.c:1801:20
	movt	r0, :upper16:rs485_interface_address
.Ltmp326:
	.loc	2 719 20                @ ../Application/hotel_room_controller.c:719:20
	movt	r2, :upper16:eRubiconUpdate
.Ltmp327:
	.loc	2 1801 20               @ ../Application/hotel_room_controller.c:1801:20
	ldrh	r0, [r0]
.Ltmp328:
	.loc	2 719 20                @ ../Application/hotel_room_controller.c:719:20
	strb	r3, [r2]
.Ltmp329:
	.loc	2 1802 18               @ ../Application/hotel_room_controller.c:1802:18
	strb	r0, [r1, #4]
	.loc	2 1801 44               @ ../Application/hotel_room_controller.c:1801:44
	lsrs	r0, r0, #8
	.loc	2 1801 18 is_stmt 0     @ ../Application/hotel_room_controller.c:1801:18
	strb	r0, [r1, #3]
	b	.LBB3_181
.Ltmp330:
.LBB3_196:
	.loc	2 638 9 is_stmt 1       @ ../Application/hotel_room_controller.c:638:9
	cbnz	r0, .LBB3_198
@ %bb.197:
.Ltmp331:
	.loc	2 640 31                @ ../Application/hotel_room_controller.c:640:31
	movw	r0, :lower16:rubicon_ctrl_buffer
	movt	r0, :upper16:rubicon_ctrl_buffer
	bl	atoi
	.loc	2 640 29 is_stmt 0      @ ../Application/hotel_room_controller.c:640:29
	movw	r1, :lower16:rs485_rubicon_address
	movt	r1, :upper16:rs485_rubicon_address
	strh	r0, [r1]
.Ltmp332:
.LBB3_198:
	.loc	2 643 6 is_stmt 1       @ ../Application/hotel_room_controller.c:643:6
	movw	r1, :lower16:rubicon_ctrl_buffer
	mov	r0, r4
	movt	r1, :upper16:rubicon_ctrl_buffer
	bl	RUBICON_PrepareCommandPacket
	movs	r0, #2
	movs	r1, #7
	.loc	2 645 28                @ ../Application/hotel_room_controller.c:645:28
	strb	r0, [r5]
	.loc	2 644 21                @ ../Application/hotel_room_controller.c:644:21
	movw	r0, :lower16:eRubiconUpdate
.Ltmp333:
.LBB3_199:
	.loc	2 0 0 is_stmt 0         @ ../Application/hotel_room_controller.c:0:0
	movt	r0, :upper16:eRubiconUpdate
	strb	r1, [r0]
	b	.LBB3_284
.Ltmp334:
.LBB3_200:
	movs	r1, #16
.Ltmp335:
	.loc	2 946 48 is_stmt 1      @ ../Application/hotel_room_controller.c:946:48
	strb	r1, [r0, #1]
	b	.LBB3_206
.Ltmp336:
.LBB3_201:
	.loc	2 938 38                @ ../Application/hotel_room_controller.c:938:38
	ldr	r1, [r0, #8]
.Ltmp337:
	.loc	2 938 9 is_stmt 0       @ ../Application/hotel_room_controller.c:938:9
	cbnz	r1, .LBB3_205
@ %bb.202:
	.loc	2 0 9                   @ ../Application/hotel_room_controller.c:0:9
	movs	r1, #18
.Ltmp338:
	.loc	2 940 49 is_stmt 1      @ ../Application/hotel_room_controller.c:940:49
	strb	r1, [r0, #1]
	b	.LBB3_205
.Ltmp339:
.LBB3_203:
	.loc	2 948 39                @ ../Application/hotel_room_controller.c:948:39
	movw	r0, :lower16:RUBICON_LogListTransfer
	movt	r0, :upper16:RUBICON_LogListTransfer
	ldrb	r1, [r0]
	.loc	2 948 86 is_stmt 0      @ ../Application/hotel_room_controller.c:948:86
	subs	r1, #31
	cmp	r1, #1
	bls	.LBB3_205
@ %bb.204:
.Ltmp340:
	.loc	2 953 40 is_stmt 1      @ ../Application/hotel_room_controller.c:953:40
	movw	r0, :lower16:RUBICON_FileUpdatePacket
	movt	r0, :upper16:RUBICON_FileUpdatePacket
	ldrb	r1, [r0, #1]
	.loc	2 953 77 is_stmt 0      @ ../Application/hotel_room_controller.c:953:77
	subs	r1, #41
	cmp	r1, #28
	bhi	.LBB3_206
.Ltmp341:
.LBB3_205:
	.loc	2 0 0                   @ ../Application/hotel_room_controller.c:0:0
	ldrb	r1, [r0, #2]
	adds	r1, #1
	strb	r1, [r0, #2]
.Ltmp342:
.LBB3_206:
	.loc	2 960 5 is_stmt 1       @ ../Application/hotel_room_controller.c:960:5
	movw	r0, :lower16:rubicon_rx_timer
	movs	r1, #10
	movt	r0, :upper16:rubicon_rx_timer
	str	r1, [r0]
	b.w	.LBB3_16
.Ltmp343:
.LBB3_207:
	.loc	2 1237 38               @ ../Application/hotel_room_controller.c:1237:38
	movw	r1, :lower16:rubicon_image_update_list_cnt
	movs	r0, #0
	movt	r1, :upper16:rubicon_image_update_list_cnt
	.loc	2 1236 38               @ ../Application/hotel_room_controller.c:1236:38
	strh	r0, [r7]
	.loc	2 1237 38               @ ../Application/hotel_room_controller.c:1237:38
	ldrh	r2, [r1]
	adds	r2, #1
	strh	r2, [r1]
.Ltmp344:
	.loc	2 1239 12               @ ../Application/hotel_room_controller.c:1239:12
	movw	r1, :lower16:rubicon_image_update_address_list
	uxth	r2, r2
	movt	r1, :upper16:rubicon_image_update_address_list
	ldr	r1, [r1]
	ldrh.w	r1, [r1, r2, lsl #1]
.Ltmp345:
	.loc	2 1239 12 is_stmt 0     @ ../Application/hotel_room_controller.c:1239:12
	cmp	r1, #0
.Ltmp346:
	.loc	2 1242 50 is_stmt 1     @ ../Application/hotel_room_controller.c:1242:50
	itee	eq
	strbeq	r0, [r4]
	movne	r0, #99
.Ltmp347:
	.loc	2 1247 31               @ ../Application/hotel_room_controller.c:1247:31
	strbne	r0, [r6]
.Ltmp348:
.LBB3_208:
	.loc	2 0 0 is_stmt 0         @ ../Application/hotel_room_controller.c:0:0
	movw	r0, :lower16:rubicon_rx_timer
	movw	r1, #4567
	b	.LBB3_178
.Ltmp349:
.LBB3_209:
	.loc	2 447 88 is_stmt 1      @ ../Application/hotel_room_controller.c:447:88
	movs	r0, #217
	b	.LBB3_212
.LBB3_210:
.Ltmp350:
	.loc	2 448 39                @ ../Application/hotel_room_controller.c:448:39
	ldrb.w	r0, [r9]
.Ltmp351:
	.loc	2 448 14 is_stmt 0      @ ../Application/hotel_room_controller.c:448:14
	cmp	r0, #99
	bne	.LBB3_213
@ %bb.211:
.Ltmp352:
	.loc	2 448 88                @ ../Application/hotel_room_controller.c:448:88
	movs	r0, #219
.Ltmp353:
.LBB3_212:
	.loc	2 0 0                   @ ../Application/hotel_room_controller.c:0:0
	movs	r1, #2
	bl	CONTROLLER_WriteLogEvent
.Ltmp354:
.LBB3_213:
	.loc	2 449 6 is_stmt 1       @ ../Application/hotel_room_controller.c:449:6
	bl	RUBICON_PrepareFileUpdatePacket
	.loc	2 451 21                @ ../Application/hotel_room_controller.c:451:21
	movw	r0, :lower16:eRubiconUpdate
	movs	r1, #8
.Ltmp355:
	.loc	2 454 39                @ ../Application/hotel_room_controller.c:454:39
	ldrb	r2, [r7]
.Ltmp356:
	.loc	2 451 21                @ ../Application/hotel_room_controller.c:451:21
	movt	r0, :upper16:eRubiconUpdate
	strb	r1, [r0]
	movs	r0, #1
.Ltmp357:
	.loc	2 454 82                @ ../Application/hotel_room_controller.c:454:82
	adds	r2, #63
.Ltmp358:
	.loc	2 450 28                @ ../Application/hotel_room_controller.c:450:28
	strb	r0, [r5]
	.loc	2 452 6                 @ ../Application/hotel_room_controller.c:452:6
	movw	r0, :lower16:display_flags
.Ltmp359:
	.loc	2 454 82                @ ../Application/hotel_room_controller.c:454:82
	uxtb	r2, r2
.Ltmp360:
	.loc	2 452 6                 @ ../Application/hotel_room_controller.c:452:6
	movt	r0, :upper16:display_flags
.Ltmp361:
	.loc	2 454 82                @ ../Application/hotel_room_controller.c:454:82
	cmp	r2, #1
.Ltmp362:
	.loc	2 452 6                 @ ../Application/hotel_room_controller.c:452:6
	ldr	r1, [r0]
	orr	r1, r1, #2
	str	r1, [r0]
.Ltmp363:
	.loc	2 454 82                @ ../Application/hotel_room_controller.c:454:82
	bhi	.LBB3_216
@ %bb.214:
.Ltmp364:
	.loc	2 457 39                @ ../Application/hotel_room_controller.c:457:39
	movw	r0, :lower16:rubicon_firmware_update_list_cnt
	movt	r0, :upper16:rubicon_firmware_update_list_cnt
	ldrh	r1, [r0]
	adds	r1, #1
	strh	r1, [r0]
.Ltmp365:
	.loc	2 459 10                @ ../Application/hotel_room_controller.c:459:10
	movw	r0, :lower16:rubicon_firmware_update_address_list
	uxth	r1, r1
	movt	r0, :upper16:rubicon_firmware_update_address_list
	ldr	r0, [r0]
	ldrh.w	r0, [r0, r1, lsl #1]
.Ltmp366:
	.loc	2 459 10 is_stmt 0      @ ../Application/hotel_room_controller.c:459:10
	cbnz	r0, .LBB3_219
@ %bb.215:
	.loc	2 0 10                  @ ../Application/hotel_room_controller.c:0:10
	movs	r0, #0
.Ltmp367:
	.loc	2 461 52 is_stmt 1      @ ../Application/hotel_room_controller.c:461:52
	strb	r0, [r7]
	b	.LBB3_181
.Ltmp368:
.LBB3_216:
	.loc	2 469 39                @ ../Application/hotel_room_controller.c:469:39
	ldrb.w	r2, [r9]
.Ltmp369:
	.loc	2 469 14 is_stmt 0      @ ../Application/hotel_room_controller.c:469:14
	cmp	r2, #99
	bne.w	.LBB3_181
@ %bb.217:
.Ltmp370:
	.loc	2 471 35 is_stmt 1      @ ../Application/hotel_room_controller.c:471:35
	movw	r3, :lower16:rubicon_file_update_list_cnt
.Ltmp371:
	.loc	2 473 10                @ ../Application/hotel_room_controller.c:473:10
	movw	r6, :lower16:rubicon_file_update_list
.Ltmp372:
	.loc	2 471 35                @ ../Application/hotel_room_controller.c:471:35
	movt	r3, :upper16:rubicon_file_update_list_cnt
.Ltmp373:
	.loc	2 473 10                @ ../Application/hotel_room_controller.c:473:10
	movt	r6, :upper16:rubicon_file_update_list
.Ltmp374:
	.loc	2 471 35                @ ../Application/hotel_room_controller.c:471:35
	ldrh	r2, [r3]
	adds	r2, #1
	strh	r2, [r3]
.Ltmp375:
	.loc	2 473 10                @ ../Application/hotel_room_controller.c:473:10
	uxth	r2, r2
	ldrb	r2, [r6, r2]
.Ltmp376:
	.loc	2 473 10 is_stmt 0      @ ../Application/hotel_room_controller.c:473:10
	cbnz	r2, .LBB3_219
@ %bb.218:
	.loc	2 0 10                  @ ../Application/hotel_room_controller.c:0:10
	movs	r2, #0
.Ltmp377:
	.loc	2 475 37 is_stmt 1      @ ../Application/hotel_room_controller.c:475:37
	strh	r2, [r3]
	.loc	2 476 37                @ ../Application/hotel_room_controller.c:476:37
	movw	r3, :lower16:rubicon_image_update_list_cnt
	movt	r3, :upper16:rubicon_image_update_list_cnt
	ldrh	r6, [r3]
	adds	r6, #1
	strh	r6, [r3]
.Ltmp378:
	.loc	2 478 11                @ ../Application/hotel_room_controller.c:478:11
	movw	r3, :lower16:rubicon_image_update_address_list
	uxth	r6, r6
	movt	r3, :upper16:rubicon_image_update_address_list
	ldr	r3, [r3]
	ldrh.w	r3, [r3, r6, lsl #1]
.Ltmp379:
	.loc	2 478 11 is_stmt 0      @ ../Application/hotel_room_controller.c:478:11
	cmp	r3, #0
	beq.w	.LBB3_266
.Ltmp380:
.LBB3_219:
	.loc	2 0 0                   @ ../Application/hotel_room_controller.c:0:0
	movw	r0, :lower16:rubicon_ctrl_request
	movs	r1, #99
	movt	r0, :upper16:rubicon_ctrl_request
	b	.LBB3_144
.Ltmp381:
.LBB3_220:
	.loc	2 668 5 is_stmt 1       @ ../Application/hotel_room_controller.c:668:5
	movw	r4, :lower16:tx_buffer
	.loc	2 667 5                 @ ../Application/hotel_room_controller.c:667:5
	bic	r1, r1, #256
	.loc	2 668 5                 @ ../Application/hotel_room_controller.c:668:5
	movt	r4, :upper16:tx_buffer
	.loc	2 667 5                 @ ../Application/hotel_room_controller.c:667:5
	str	r1, [r0]
	.loc	2 668 5                 @ ../Application/hotel_room_controller.c:668:5
	mov.w	r1, #256
	mov	r0, r4
	bl	ClearBuffer
	.loc	2 671 20                @ ../Application/hotel_room_controller.c:671:20
	movw	r1, :lower16:rs485_broadcast_address
	.loc	2 673 20                @ ../Application/hotel_room_controller.c:673:20
	movw	r2, :lower16:rs485_interface_address
	movs	r0, #1
	.loc	2 678 31                @ ../Application/hotel_room_controller.c:678:31
	movw	r6, :lower16:rubicon_journal_list_item
	movw	r8, :lower16:rubiconJournal_1
	movs	r7, #7
	mov.w	r9, #44
	.loc	2 671 20                @ ../Application/hotel_room_controller.c:671:20
	movt	r1, :upper16:rs485_broadcast_address
	.loc	2 673 20                @ ../Application/hotel_room_controller.c:673:20
	movt	r2, :upper16:rs485_interface_address
	.loc	2 670 18                @ ../Application/hotel_room_controller.c:670:18
	strb	r0, [r4]
	movs	r0, #133
	.loc	2 678 31                @ ../Application/hotel_room_controller.c:678:31
	movt	r6, :upper16:rubicon_journal_list_item
	movt	r8, :upper16:rubiconJournal_1
	.loc	2 671 20                @ ../Application/hotel_room_controller.c:671:20
	ldrh	r1, [r1]
	.loc	2 673 20                @ ../Application/hotel_room_controller.c:673:20
	ldrh	r2, [r2]
	.loc	2 675 18                @ ../Application/hotel_room_controller.c:675:18
	strb	r0, [r4, #6]
.Ltmp382:
	@DEBUG_VALUE: RUBICON_ProcessService:t <- 7
	.loc	2 0 18 is_stmt 0        @ ../Application/hotel_room_controller.c:0:18
	movs	r0, #0
	.loc	2 678 31 is_stmt 1      @ ../Application/hotel_room_controller.c:678:31
	strb	r0, [r6]
	.loc	2 672 18                @ ../Application/hotel_room_controller.c:672:18
	strb	r1, [r4, #2]
	.loc	2 671 44                @ ../Application/hotel_room_controller.c:671:44
	lsrs	r1, r1, #8
	.loc	2 674 18                @ ../Application/hotel_room_controller.c:674:18
	strb	r2, [r4, #4]
	.loc	2 671 18                @ ../Application/hotel_room_controller.c:671:18
	strb	r1, [r4, #1]
	.loc	2 673 44                @ ../Application/hotel_room_controller.c:673:44
	lsrs	r1, r2, #8
	.loc	2 673 18 is_stmt 0      @ ../Application/hotel_room_controller.c:673:18
	strb	r1, [r4, #3]
.LBB3_221:                              @ =>This Loop Header: Depth=1
                                        @     Child Loop BB3_222 Depth 2
.Ltmp383:
	@DEBUG_VALUE: RUBICON_ProcessService:t <- $r7
	.loc	2 679 11 is_stmt 1      @ ../Application/hotel_room_controller.c:679:11
	uxtb	r0, r0
.Ltmp384:
	.loc	2 681 28                @ ../Application/hotel_room_controller.c:681:28
	ldrh.w	r1, [r8, r0, lsl #1]
	.loc	2 681 15 is_stmt 0      @ ../Application/hotel_room_controller.c:681:15
	uxtab	r0, r4, r7
	.loc	2 681 6                 @ ../Application/hotel_room_controller.c:681:6
	bl	Int2Str
	.loc	2 682 31 is_stmt 1      @ ../Application/hotel_room_controller.c:682:31
	ldrb	r0, [r6]
	adds	r0, #1
	strb	r0, [r6]
.Ltmp385:
	.p2align	2
.LBB3_222:                              @   Parent Loop BB3_221 Depth=1
                                        @ =>  This Inner Loop Header: Depth=2
	@DEBUG_VALUE: RUBICON_ProcessService:t <- $r7
	.loc	2 683 12                @ ../Application/hotel_room_controller.c:683:12
	uxtb	r2, r7
.Ltmp386:
	.loc	2 0 0 is_stmt 0         @ ../Application/hotel_room_controller.c:0:0
	mov	r1, r7
.Ltmp387:
	@DEBUG_VALUE: RUBICON_ProcessService:t <- $r1
	.loc	2 683 35                @ ../Application/hotel_room_controller.c:683:35
	adds	r7, #1
.Ltmp388:
	@DEBUG_VALUE: RUBICON_ProcessService:t <- $r7
	.loc	2 683 12                @ ../Application/hotel_room_controller.c:683:12
	ldrb	r3, [r4, r2]
	.loc	2 683 6                 @ ../Application/hotel_room_controller.c:683:6
	cmp	r3, #0
	bne	.LBB3_222
.Ltmp389:
@ %bb.223:                              @   in Loop: Header=BB3_221 Depth=1
	@DEBUG_VALUE: RUBICON_ProcessService:t <- $r7
	.loc	2 679 37 is_stmt 1      @ ../Application/hotel_room_controller.c:679:37
	uxtb	r3, r0
.Ltmp390:
	.loc	2 684 19                @ ../Application/hotel_room_controller.c:684:19
	strb.w	r9, [r4, r2]
.Ltmp391:
	.loc	2 679 5                 @ ../Application/hotel_room_controller.c:679:5
	cmp	r3, #48
	blo	.LBB3_221
.Ltmp392:
@ %bb.224:
	@DEBUG_VALUE: RUBICON_ProcessService:t <- $r7
	.loc	2 0 5 is_stmt 0         @ ../Application/hotel_room_controller.c:0:5
	movs	r0, #59
	.loc	2 692 27 is_stmt 1      @ ../Application/hotel_room_controller.c:692:27
	movw	r3, :lower16:rs485_packet_checksum
	.loc	2 689 18                @ ../Application/hotel_room_controller.c:689:18
	strb	r0, [r4, r2]
	.loc	2 690 23                @ ../Application/hotel_room_controller.c:690:23
	subs	r2, r1, #5
	movs	r1, #6
	.loc	2 692 27                @ ../Application/hotel_room_controller.c:692:27
	movt	r3, :upper16:rs485_packet_checksum
	movs	r0, #0
	.loc	2 690 18                @ ../Application/hotel_room_controller.c:690:18
	strb	r2, [r4, #5]
.Ltmp393:
	.loc	2 694 35                @ ../Application/hotel_room_controller.c:694:35
	uxtab	r1, r1, r2
.Ltmp394:
	@DEBUG_VALUE: RUBICON_ProcessService:t <- 6
	.loc	2 690 23                @ ../Application/hotel_room_controller.c:690:23
	uxtb	r2, r2
	.loc	2 692 27                @ ../Application/hotel_room_controller.c:692:27
	strh	r0, [r3]
.Ltmp395:
	.loc	2 694 5                 @ ../Application/hotel_room_controller.c:694:5
	cmp	r2, #0
	beq.w	.LBB3_249
@ %bb.225:
	.loc	2 0 5 is_stmt 0         @ ../Application/hotel_room_controller.c:0:5
	movs	r7, #6
	movs	r0, #0
	movs	r6, #6
.LBB3_226:                              @ =>This Inner Loop Header: Depth=1
.Ltmp396:
	@DEBUG_VALUE: RUBICON_ProcessService:t <- $r6
	.loc	2 696 31 is_stmt 1      @ ../Application/hotel_room_controller.c:696:31
	ldrb	r7, [r4, r7]
.Ltmp397:
	.loc	2 694 42                @ ../Application/hotel_room_controller.c:694:42
	adds	r6, #1
.Ltmp398:
	@DEBUG_VALUE: RUBICON_ProcessService:t <- $r6
	.loc	2 696 28                @ ../Application/hotel_room_controller.c:696:28
	add	r0, r7
.Ltmp399:
	.loc	2 694 17                @ ../Application/hotel_room_controller.c:694:17
	uxtb	r7, r6
.Ltmp400:
	.loc	2 694 5 is_stmt 0       @ ../Application/hotel_room_controller.c:694:5
	cmp	r1, r7
	bhi	.LBB3_226
.Ltmp401:
@ %bb.227:
	@DEBUG_VALUE: RUBICON_ProcessService:t <- $r6
	.loc	2 696 28 is_stmt 1      @ ../Application/hotel_room_controller.c:696:28
	strh	r0, [r3]
	uxth	r3, r0
.Ltmp402:
	.loc	2 694 5                 @ ../Application/hotel_room_controller.c:694:5
	lsrs	r3, r3, #8
	b	.LBB3_250
.Ltmp403:
.LBB3_228:
	.loc	2 571 39                @ ../Application/hotel_room_controller.c:571:39
	ldrb.w	r0, [r9]
.Ltmp404:
	.loc	2 571 14 is_stmt 0      @ ../Application/hotel_room_controller.c:571:14
	cmp	r0, #99
	bne	.LBB3_234
@ %bb.229:
.Ltmp405:
	.loc	2 573 24 is_stmt 1      @ ../Application/hotel_room_controller.c:573:24
	movw	r4, :lower16:rubicon_ctrl_buffer
	movw	r0, :lower16:p_rubicon_buffer
	movs	r1, #0
	movt	r4, :upper16:rubicon_ctrl_buffer
	movt	r0, :upper16:p_rubicon_buffer
	add.w	r2, r4, #512
	mov	r3, r4
	str	r4, [r0]
.LBB3_230:                              @ =>This Inner Loop Header: Depth=1
	.loc	2 574 100               @ ../Application/hotel_room_controller.c:574:100
	adds	r6, r3, #1
	str	r6, [r0]
	.loc	2 574 103 is_stmt 0     @ ../Application/hotel_room_controller.c:574:103
	strb	r1, [r3]
	.loc	2 574 13                @ ../Application/hotel_room_controller.c:574:13
	ldr	r3, [r0]
	.loc	2 574 7                 @ ../Application/hotel_room_controller.c:574:7
	cmp	r3, r2
	blo	.LBB3_230
@ %bb.231:
	.loc	2 575 70 is_stmt 1      @ ../Application/hotel_room_controller.c:575:70
	movw	r0, :lower16:rubicon_image_update_list_cnt
	.loc	2 575 36 is_stmt 0      @ ../Application/hotel_room_controller.c:575:36
	movw	r1, :lower16:rubicon_image_update_address_list
	.loc	2 575 70                @ ../Application/hotel_room_controller.c:575:70
	movt	r0, :upper16:rubicon_image_update_list_cnt
	.loc	2 575 36                @ ../Application/hotel_room_controller.c:575:36
	movt	r1, :upper16:rubicon_image_update_address_list
	.loc	2 575 70                @ ../Application/hotel_room_controller.c:575:70
	ldrh	r0, [r0]
	.loc	2 575 36                @ ../Application/hotel_room_controller.c:575:36
	ldr	r1, [r1]
	ldrh.w	r1, [r1, r0, lsl #1]
	.loc	2 575 7                 @ ../Application/hotel_room_controller.c:575:7
	mov	r0, r4
	bl	Int2Str
	movs	r0, #0
.Ltmp406:
	@DEBUG_VALUE: RUBICON_ProcessService:t <- 0
.LBB3_232:                              @ =>This Inner Loop Header: Depth=1
	@DEBUG_VALUE: RUBICON_ProcessService:t <- $r0
	.loc	2 577 14 is_stmt 1      @ ../Application/hotel_room_controller.c:577:14
	uxtb	r1, r0
	.loc	2 0 0 is_stmt 0         @ ../Application/hotel_room_controller.c:0:0
	adds	r0, #1
.Ltmp407:
	@DEBUG_VALUE: RUBICON_ProcessService:t <- $r0
	.loc	2 577 14                @ ../Application/hotel_room_controller.c:577:14
	ldrb	r1, [r4, r1]
	.loc	2 577 7                 @ ../Application/hotel_room_controller.c:577:7
	cmp	r1, #0
	bne	.LBB3_232
.Ltmp408:
.LBB3_233:
	@DEBUG_VALUE: RUBICON_ProcessService:t <- $r0
	.loc	2 0 0                   @ ../Application/hotel_room_controller.c:0:0
	movw	r1, :lower16:rubicon_file_update_list_cnt
	movw	r2, :lower16:rubicon_file_update_list
	uxtab	r0, r4, r0
.Ltmp409:
	movt	r1, :upper16:rubicon_file_update_list_cnt
	movt	r2, :upper16:rubicon_file_update_list
	ldrh	r1, [r1]
	ldrb	r1, [r2, r1]
	bl	Int2Str
.Ltmp410:
.LBB3_234:
	.loc	2 582 18 is_stmt 1      @ ../Application/hotel_room_controller.c:582:18
	bl	RUBICON_CheckNewImageFile
.Ltmp411:
	@DEBUG_VALUE: RUBICON_ProcessService:fl_status <- undef
	.loc	2 584 10                @ ../Application/hotel_room_controller.c:584:10
	subs	r0, #1
	cmp	r0, #3
	bhi.w	.LBB3_284
@ %bb.235:
	.loc	2 0 10 is_stmt 0        @ ../Application/hotel_room_controller.c:0:10
.LCPI3_5:
	tbb	[pc, r0]
@ %bb.236:
.LJTI3_5:
	.byte	(.LBB3_237-(.LCPI3_5+4))/2
	.byte	(.LBB3_251-(.LCPI3_5+4))/2
	.byte	(.LBB3_254-(.LCPI3_5+4))/2
	.byte	(.LBB3_257-(.LCPI3_5+4))/2
	.p2align	1
.LBB3_237:
.Ltmp412:
	.loc	2 586 11 is_stmt 1      @ ../Application/hotel_room_controller.c:586:11
	movw	r0, :lower16:display_flags
	movt	r0, :upper16:display_flags
	ldr	r1, [r0]
.Ltmp413:
	.loc	2 586 10 is_stmt 0      @ ../Application/hotel_room_controller.c:586:10
	lsls	r2, r1, #27
.Ltmp414:
	.loc	2 586 45                @ ../Application/hotel_room_controller.c:586:45
	itt	pl
	orrpl	r1, r1, #8
	strpl	r1, [r0]
.Ltmp415:
	.loc	2 587 7 is_stmt 1       @ ../Application/hotel_room_controller.c:587:7
	bl	RUBICON_PrepareFileUpdatePacket
	.loc	2 589 22                @ ../Application/hotel_room_controller.c:589:22
	movw	r0, :lower16:eRubiconUpdate
	movs	r1, #5
	movt	r0, :upper16:eRubiconUpdate
	strb	r1, [r0]
	movs	r0, #2
	.loc	2 588 29                @ ../Application/hotel_room_controller.c:588:29
	strb	r0, [r5]
.Ltmp416:
.LBB3_238:
	.loc	2 0 0 is_stmt 0         @ ../Application/hotel_room_controller.c:0:0
	bl	UpdateFileTransferDisplay
	b	.LBB3_284
.LBB3_239:
	movs	r4, #2
.Ltmp417:
	.loc	2 522 7 is_stmt 1       @ ../Application/hotel_room_controller.c:522:7
	movs	r0, #215
	movs	r1, #2
	b	.LBB3_242
.Ltmp418:
.LBB3_240:
	.loc	2 0 7 is_stmt 0         @ ../Application/hotel_room_controller.c:0:7
	movs	r4, #3
.Ltmp419:
	.loc	2 533 7 is_stmt 1       @ ../Application/hotel_room_controller.c:533:7
	movs	r0, #215
	movs	r1, #3
	b	.LBB3_242
.Ltmp420:
.LBB3_241:
	.loc	2 0 7 is_stmt 0         @ ../Application/hotel_room_controller.c:0:7
	movs	r4, #4
.Ltmp421:
	.loc	2 544 7 is_stmt 1       @ ../Application/hotel_room_controller.c:544:7
	movs	r0, #215
	movs	r1, #4
.Ltmp422:
.LBB3_242:
	.loc	2 0 0 is_stmt 0         @ ../Application/hotel_room_controller.c:0:0
	bl	CONTROLLER_WriteLogEvent
	strb	r4, [r7, #1]
	bl	UpdateFileTransferDisplay
	movw	r0, :lower16:eRubiconUpdate
	movs	r1, #8
	movt	r0, :upper16:eRubiconUpdate
	strb	r1, [r0]
	movs	r0, #16
	strb	r0, [r7, #1]
	b	.LBB3_283
.Ltmp423:
.LBB3_243:
	.loc	2 652 8 is_stmt 1       @ ../Application/hotel_room_controller.c:652:8
	movw	r1, :lower16:rubicon_status_request_cnt
	movt	r1, :upper16:rubicon_status_request_cnt
	ldrb	r2, [r1]
	adds	r2, #1
	strb	r2, [r1]
	uxtb	r1, r2
.Ltmp424:
	.loc	2 652 8 is_stmt 0       @ ../Application/hotel_room_controller.c:652:8
	cmp	r1, #10
	blo	.LBB3_260
@ %bb.244:
.Ltmp425:
	.loc	2 654 6 is_stmt 1       @ ../Application/hotel_room_controller.c:654:6
	ldr	r1, [r0]
	bic	r1, r1, #128
	str	r1, [r0]
	.loc	2 655 6                 @ ../Application/hotel_room_controller.c:655:6
	ldr	r1, [r0]
	bic	r1, r1, #64
	b	.LBB3_180
.Ltmp426:
.LBB3_245:
	.loc	2 706 5                 @ ../Application/hotel_room_controller.c:706:5
	movw	r1, :lower16:rubicon_timer
	movw	r2, #6789
	movt	r1, :upper16:rubicon_timer
	str	r2, [r1]
	ldr	r1, [r0]
	bic	r1, r1, #1
	str	r1, [r0]
.Ltmp427:
	.loc	2 707 9                 @ ../Application/hotel_room_controller.c:707:9
	movw	r0, :lower16:eRubiconTimeUpdate
	movt	r0, :upper16:eRubiconTimeUpdate
	ldrb	r0, [r0]
.Ltmp428:
	.loc	2 707 9 is_stmt 0       @ ../Application/hotel_room_controller.c:707:9
	cmp	r0, #3
	beq	.LBB3_261
@ %bb.246:
	cmp	r0, #2
	beq	.LBB3_262
@ %bb.247:
	cmp	r0, #1
	bne	.LBB3_265
@ %bb.248:
.Ltmp429:
	.loc	2 707 80                @ ../Application/hotel_room_controller.c:707:80
	bl	RUBICON_GetNextAddress
	b	.LBB3_264
.Ltmp430:
.LBB3_249:
	.loc	2 0 80                  @ ../Application/hotel_room_controller.c:0:80
	movs	r3, #0
.LBB3_250:
.Ltmp431:
	.loc	2 699 33 is_stmt 1      @ ../Application/hotel_room_controller.c:699:33
	strb	r3, [r4, r1]
	.loc	2 699 5 is_stmt 0       @ ../Application/hotel_room_controller.c:699:5
	adds	r1, r4, r2
	movs	r2, #4
	.loc	2 701 33 is_stmt 1      @ ../Application/hotel_room_controller.c:701:33
	strb	r2, [r1, #8]
	.loc	2 700 33                @ ../Application/hotel_room_controller.c:700:33
	strb	r0, [r1, #7]
	b.w	.LBB3_64
.Ltmp432:
.LBB3_251:
	.loc	2 594 39                @ ../Application/hotel_room_controller.c:594:39
	ldrb	r0, [r7]
.Ltmp433:
	.loc	2 594 10 is_stmt 0      @ ../Application/hotel_room_controller.c:594:10
	cmp	r0, #194
	beq	.LBB3_267
@ %bb.252:
	cmp	r0, #193
	bne	.LBB3_278
@ %bb.253:
.Ltmp434:
	.loc	2 594 82                @ ../Application/hotel_room_controller.c:594:82
	movs	r0, #215
	b	.LBB3_280
.Ltmp435:
.LBB3_254:
	.loc	2 608 39 is_stmt 1      @ ../Application/hotel_room_controller.c:608:39
	ldrb	r0, [r7]
.Ltmp436:
	.loc	2 608 10 is_stmt 0      @ ../Application/hotel_room_controller.c:608:10
	cmp	r0, #194
	beq	.LBB3_268
@ %bb.255:
	cmp	r0, #193
	bne	.LBB3_269
@ %bb.256:
.Ltmp437:
	.loc	2 608 82                @ ../Application/hotel_room_controller.c:608:82
	movs	r0, #215
	b	.LBB3_271
.Ltmp438:
.LBB3_257:
	.loc	2 621 39 is_stmt 1      @ ../Application/hotel_room_controller.c:621:39
	ldrb	r0, [r7]
.Ltmp439:
	.loc	2 621 10 is_stmt 0      @ ../Application/hotel_room_controller.c:621:10
	cmp	r0, #194
	beq	.LBB3_273
@ %bb.258:
	cmp	r0, #193
	bne	.LBB3_274
@ %bb.259:
.Ltmp440:
	.loc	2 621 82                @ ../Application/hotel_room_controller.c:621:82
	movs	r0, #215
	b	.LBB3_276
.Ltmp441:
.LBB3_260:
	.loc	2 1813 18 is_stmt 1     @ ../Application/hotel_room_controller.c:1813:18
	movw	r0, :lower16:tx_buffer
	movs	r1, #1
	movs	r2, #3
	movt	r0, :upper16:tx_buffer
	strb	r1, [r0]
	movs	r1, #4
	.loc	2 1822 18               @ ../Application/hotel_room_controller.c:1822:18
	strb	r1, [r0, #9]
	movw	r1, #41217
	movt	r1, #41216
	.loc	2 1818 18               @ ../Application/hotel_room_controller.c:1818:18
	str.w	r1, [r0, #5]
.Ltmp442:
	.loc	2 660 21                @ ../Application/hotel_room_controller.c:660:21
	movw	r1, :lower16:eRubiconUpdate
	movt	r1, :upper16:eRubiconUpdate
	strb	r2, [r1]
	movs	r1, #2
.Ltmp443:
	.loc	2 1816 20               @ ../Application/hotel_room_controller.c:1816:20
	movw	r2, :lower16:rs485_interface_address
.Ltmp444:
	.loc	2 661 28                @ ../Application/hotel_room_controller.c:661:28
	strb	r1, [r5]
.Ltmp445:
	.loc	2 1814 20               @ ../Application/hotel_room_controller.c:1814:20
	movw	r1, :lower16:rs485_rubicon_address
	.loc	2 1816 20               @ ../Application/hotel_room_controller.c:1816:20
	movt	r2, :upper16:rs485_interface_address
	.loc	2 1814 20               @ ../Application/hotel_room_controller.c:1814:20
	movt	r1, :upper16:rs485_rubicon_address
	.loc	2 1816 20               @ ../Application/hotel_room_controller.c:1816:20
	ldrh	r2, [r2]
	.loc	2 1814 20               @ ../Application/hotel_room_controller.c:1814:20
	ldrh	r1, [r1]
	.loc	2 1815 18               @ ../Application/hotel_room_controller.c:1815:18
	strb	r1, [r0, #2]
	.loc	2 1814 42               @ ../Application/hotel_room_controller.c:1814:42
	lsrs	r1, r1, #8
	.loc	2 1817 18               @ ../Application/hotel_room_controller.c:1817:18
	strb	r2, [r0, #4]
	.loc	2 1814 18               @ ../Application/hotel_room_controller.c:1814:18
	strb	r1, [r0, #1]
	.loc	2 1816 44               @ ../Application/hotel_room_controller.c:1816:44
	lsrs	r1, r2, #8
	.loc	2 1816 18 is_stmt 0     @ ../Application/hotel_room_controller.c:1816:18
	strb	r1, [r0, #3]
	b	.LBB3_181
.Ltmp446:
.LBB3_261:
	.loc	2 709 91 is_stmt 1      @ ../Application/hotel_room_controller.c:709:91
	movw	r0, :lower16:rs485_broadcast_address
	movt	r0, :upper16:rs485_broadcast_address
	b	.LBB3_263
.Ltmp447:
.LBB3_262:
	.loc	2 708 87                @ ../Application/hotel_room_controller.c:708:87
	movw	r0, :lower16:rs485_group_address
	movt	r0, :upper16:rs485_group_address
.LBB3_263:
	.loc	2 0 0 is_stmt 0         @ ../Application/hotel_room_controller.c:0:0
	ldrh	r0, [r0]
.Ltmp448:
.LBB3_264:
	movw	r1, :lower16:rs485_rubicon_address
	movt	r1, :upper16:rs485_rubicon_address
	strh	r0, [r1]
.Ltmp449:
.LBB3_265:
	.loc	2 710 5 is_stmt 1       @ ../Application/hotel_room_controller.c:710:5
	bl	RUBICON_PrepareTimeUpdatePacket
	movs	r0, #2
	movs	r1, #1
	b.w	.LBB3_143
.Ltmp450:
.LBB3_266:
	.loc	2 481 9                 @ ../Application/hotel_room_controller.c:481:9
	str	r1, [r0]
	.loc	2 480 53                @ ../Application/hotel_room_controller.c:480:53
	strb	r2, [r7]
	b	.LBB3_181
.Ltmp451:
.LBB3_267:
	.loc	2 595 89                @ ../Application/hotel_room_controller.c:595:89
	movs	r0, #217
	b	.LBB3_280
.Ltmp452:
.LBB3_268:
	.loc	2 609 89                @ ../Application/hotel_room_controller.c:609:89
	movs	r0, #217
	b	.LBB3_271
.LBB3_269:
.Ltmp453:
	.loc	2 610 40                @ ../Application/hotel_room_controller.c:610:40
	ldrb.w	r0, [r9]
.Ltmp454:
	.loc	2 610 15 is_stmt 0      @ ../Application/hotel_room_controller.c:610:15
	cmp	r0, #99
	bne	.LBB3_272
@ %bb.270:
.Ltmp455:
	.loc	2 610 89                @ ../Application/hotel_room_controller.c:610:89
	movs	r0, #219
.Ltmp456:
.LBB3_271:
	.loc	2 0 0                   @ ../Application/hotel_room_controller.c:0:0
	movs	r1, #3
	bl	CONTROLLER_WriteLogEvent
.Ltmp457:
.LBB3_272:
	movs	r0, #3
	b	.LBB3_282
.LBB3_273:
.Ltmp458:
	.loc	2 622 89 is_stmt 1      @ ../Application/hotel_room_controller.c:622:89
	movs	r0, #217
	b	.LBB3_276
.LBB3_274:
.Ltmp459:
	.loc	2 623 40                @ ../Application/hotel_room_controller.c:623:40
	ldrb.w	r0, [r9]
.Ltmp460:
	.loc	2 623 15 is_stmt 0      @ ../Application/hotel_room_controller.c:623:15
	cmp	r0, #99
	bne	.LBB3_277
@ %bb.275:
.Ltmp461:
	.loc	2 623 89                @ ../Application/hotel_room_controller.c:623:89
	movs	r0, #219
.Ltmp462:
.LBB3_276:
	.loc	2 0 0                   @ ../Application/hotel_room_controller.c:0:0
	movs	r1, #4
	bl	CONTROLLER_WriteLogEvent
.Ltmp463:
.LBB3_277:
	movs	r0, #4
	b	.LBB3_282
.LBB3_278:
.Ltmp464:
	.loc	2 596 40 is_stmt 1      @ ../Application/hotel_room_controller.c:596:40
	ldrb.w	r0, [r9]
.Ltmp465:
	.loc	2 596 15 is_stmt 0      @ ../Application/hotel_room_controller.c:596:15
	cmp	r0, #99
	bne	.LBB3_281
@ %bb.279:
.Ltmp466:
	.loc	2 596 89                @ ../Application/hotel_room_controller.c:596:89
	movs	r0, #219
.Ltmp467:
.LBB3_280:
	.loc	2 0 0                   @ ../Application/hotel_room_controller.c:0:0
	movs	r1, #2
	bl	CONTROLLER_WriteLogEvent
.Ltmp468:
.LBB3_281:
	movs	r0, #2
.LBB3_282:
	strb.w	r0, [r9, #1]
	bl	UpdateFileTransferDisplay
	movw	r0, :lower16:eRubiconUpdate
	movs	r1, #8
	movt	r0, :upper16:eRubiconUpdate
	strb	r1, [r0]
	movs	r0, #40
	strb.w	r0, [r9, #1]
.Ltmp469:
.LBB3_283:
	movs	r0, #0
	strb.w	r0, [r8]
	movw	r0, :lower16:display_flags
	movt	r0, :upper16:display_flags
	ldr	r1, [r0]
	orr	r1, r1, #6
	str	r1, [r0]
.Ltmp470:
.LBB3_284:
	movs	r0, #0
	.loc	2 648 26 is_stmt 1      @ ../Application/hotel_room_controller.c:648:26
	strb.w	r0, [r8]
	b	.LBB3_181
.Ltmp471:
.Lfunc_end3:
	.size	RUBICON_ProcessService, .Lfunc_end3-RUBICON_ProcessService
	.cfi_endproc
	.cantunwind
	.fnend
                                        @ -- End function
	.section	.text.RUBICON_PrepareFirmwareUpdatePacket,"ax",%progbits
	.hidden	RUBICON_PrepareFirmwareUpdatePacket @ -- Begin function RUBICON_PrepareFirmwareUpdatePacket
	.globl	RUBICON_PrepareFirmwareUpdatePacket
	.p2align	2
	.type	RUBICON_PrepareFirmwareUpdatePacket,%function
	.code	16                      @ @RUBICON_PrepareFirmwareUpdatePacket
	.thumb_func
RUBICON_PrepareFirmwareUpdatePacket:
.Lfunc_begin4:
	.loc	2 2606 0                @ ../Application/hotel_room_controller.c:2606:0
	.fnstart
	.cfi_startproc
@ %bb.0:
	.save	{r4, r5, r6, lr}
	push	{r4, r5, r6, lr}
	.cfi_def_cfa_offset 16
	.cfi_offset lr, -4
	.cfi_offset r6, -8
	.cfi_offset r5, -12
	.cfi_offset r4, -16
	.pad	#8
	sub	sp, #8
	.cfi_def_cfa_offset 24
.Ltmp472:
	.loc	2 2609 38 prologue_end  @ ../Application/hotel_room_controller.c:2609:38
	movw	r6, :lower16:RUBICON_FirmwareUpdatePacket
	movt	r6, :upper16:RUBICON_FirmwareUpdatePacket
	ldrb	r0, [r6, #2]
.Ltmp473:
	.loc	2 2609 9 is_stmt 0      @ ../Application/hotel_room_controller.c:2609:9
	cmp	r0, #10
	blo	.LBB4_2
@ %bb.1:
	.loc	2 0 9                   @ ../Application/hotel_room_controller.c:0:9
	movs	r0, #21
.Ltmp474:
	.loc	2 2611 51 is_stmt 1     @ ../Application/hotel_room_controller.c:2611:51
	strb	r0, [r6, #1]
	b	.LBB4_5
.Ltmp475:
.LBB4_2:
	.loc	2 2614 39               @ ../Application/hotel_room_controller.c:2614:39
	ldrb	r0, [r6, #1]
	.loc	2 2614 71 is_stmt 0     @ ../Application/hotel_room_controller.c:2614:71
	subs	r0, #17
	cmp	r0, #4
	bhi	.LBB4_12
@ %bb.3:
	.loc	2 0 71                  @ ../Application/hotel_room_controller.c:0:71
.LCPI4_0:
	tbb	[pc, r0]
@ %bb.4:
.LJTI4_0:
	.byte	(.LBB4_10-(.LCPI4_0+4))/2
	.byte	(.LBB4_11-(.LCPI4_0+4))/2
	.byte	(.LBB4_6-(.LCPI4_0+4))/2
	.byte	(.LBB4_5-(.LCPI4_0+4))/2
	.byte	(.LBB4_5-(.LCPI4_0+4))/2
	.p2align	1
.LBB4_5:
	movs	r0, #16
.Ltmp476:
	.loc	2 2617 51 is_stmt 1     @ ../Application/hotel_room_controller.c:2617:51
	strb	r0, [r6, #1]
	.loc	2 2618 9                @ ../Application/hotel_room_controller.c:2618:9
	movw	r0, :lower16:file_SD
	movt	r0, :upper16:file_SD
	bl	f_close
	.loc	2 2619 3                @ ../Application/hotel_room_controller.c:2619:3
	movw	r1, :lower16:.L.str
	movs	r0, #0
	movs	r2, #0
	movt	r1, :upper16:.L.str
	add	sp, #8
	pop.w	{r4, r5, r6, lr}
	b	f_mount
.Ltmp477:
.LBB4_6:
	.loc	2 2640 22               @ ../Application/hotel_room_controller.c:2640:22
	movw	r0, :lower16:tx_buffer
	movs	r1, #66
	.loc	2 2645 9                @ ../Application/hotel_room_controller.c:2645:9
	add.w	r3, r6, #16
	movs	r2, #64
	.loc	2 2640 22               @ ../Application/hotel_room_controller.c:2640:22
	movt	r0, :upper16:tx_buffer
	.loc	2 2641 22               @ ../Application/hotel_room_controller.c:2641:22
	strb	r1, [r0, #5]
	movs	r1, #2
	.loc	2 2640 22               @ ../Application/hotel_room_controller.c:2640:22
	strb	r1, [r0]
	.loc	2 2642 53               @ ../Application/hotel_room_controller.c:2642:53
	ldr	r1, [r6, #8]
	.loc	2 2643 22               @ ../Application/hotel_room_controller.c:2643:22
	strb	r1, [r0, #7]
	.loc	2 2642 65               @ ../Application/hotel_room_controller.c:2642:65
	lsrs	r1, r1, #8
	.loc	2 2642 22 is_stmt 0     @ ../Application/hotel_room_controller.c:2642:22
	strb	r1, [r0, #6]
	.loc	2 2645 9 is_stmt 1      @ ../Application/hotel_room_controller.c:2645:9
	add.w	r1, r0, #8
	movw	r0, :lower16:file_SD
	movt	r0, :upper16:file_SD
	bl	f_read
.Ltmp478:
	.loc	2 2647 32               @ ../Application/hotel_room_controller.c:2647:32
	movw	r0, :lower16:RUBICON_FileUpdatePacket
	movt	r0, :upper16:RUBICON_FileUpdatePacket
	ldr	r0, [r0, #8]
.Ltmp479:
	.loc	2 2647 7 is_stmt 0      @ ../Application/hotel_room_controller.c:2647:7
	cmp	r0, #1
	bne	.LBB4_12
@ %bb.7:
	.loc	2 0 7                   @ ../Application/hotel_room_controller.c:0:7
	mov.w	r0, #500
	movw	r1, #14464
	str	r0, [sp, #4]
	movs	r0, #0
	movt	r1, #1
.Ltmp480:
	.loc	2 101 19 is_stmt 1      @ ../Application/hotel_room_controller.c:101:19
	str	r0, [sp]
.Ltmp481:
	.loc	2 103 26                @ ../Application/hotel_room_controller.c:103:26
	ldr	r0, [sp, #4]
	.loc	2 103 24 is_stmt 0      @ ../Application/hotel_room_controller.c:103:24
	muls	r0, r1, r0
	b	.LBB4_9
	.p2align	2
.LBB4_8:                                @   in Loop: Header=BB4_9 Depth=1
.Ltmp482:
	.loc	2 103 51                @ ../Application/hotel_room_controller.c:103:51
	ldr	r0, [sp]
	subs	r0, #1
.Ltmp483:
.LBB4_9:                                @ =>This Inner Loop Header: Depth=1
	.loc	2 0 0                   @ ../Application/hotel_room_controller.c:0:0
	str	r0, [sp]
.Ltmp484:
	.loc	2 103 34                @ ../Application/hotel_room_controller.c:103:34
	ldr	r0, [sp]
.Ltmp485:
	.loc	2 103 5                 @ ../Application/hotel_room_controller.c:103:5
	cmp	r0, #0
	bne	.LBB4_8
	b	.LBB4_12
.Ltmp486:
.LBB4_10:
	.loc	2 2624 22 is_stmt 1     @ ../Application/hotel_room_controller.c:2624:22
	movw	r0, :lower16:tx_buffer
	movw	r1, #48129
	movt	r0, :upper16:tx_buffer
	.loc	2 2625 22               @ ../Application/hotel_room_controller.c:2625:22
	strh.w	r1, [r0, #5]
	movs	r1, #1
	.loc	2 2624 22               @ ../Application/hotel_room_controller.c:2624:22
	strb	r1, [r0]
	movs	r0, #18
	.loc	2 2627 51               @ ../Application/hotel_room_controller.c:2627:51
	strb	r0, [r6, #1]
	b	.LBB4_12
.Ltmp487:
.LBB4_11:
	.loc	2 2631 22               @ ../Application/hotel_room_controller.c:2631:22
	movw	r0, :lower16:tx_buffer
	movw	r1, #48899
	movt	r0, :upper16:tx_buffer
	.loc	2 2632 22               @ ../Application/hotel_room_controller.c:2632:22
	strh.w	r1, [r0, #5]
	movs	r1, #1
	.loc	2 2631 22               @ ../Application/hotel_room_controller.c:2631:22
	strb	r1, [r0]
	movs	r1, #19
	.loc	2 2636 51               @ ../Application/hotel_room_controller.c:2636:51
	strb	r1, [r6, #1]
	.loc	2 2634 53               @ ../Application/hotel_room_controller.c:2634:53
	ldr	r1, [r6, #4]
	.loc	2 2635 22               @ ../Application/hotel_room_controller.c:2635:22
	strb	r1, [r0, #8]
	.loc	2 2634 66               @ ../Application/hotel_room_controller.c:2634:66
	lsrs	r1, r1, #8
	.loc	2 2634 22 is_stmt 0     @ ../Application/hotel_room_controller.c:2634:22
	strb	r1, [r0, #7]
.Ltmp488:
.LBB4_12:
	.loc	2 2650 20 is_stmt 1     @ ../Application/hotel_room_controller.c:2650:20
	movw	r1, :lower16:rs485_rubicon_address
	.loc	2 2652 20               @ ../Application/hotel_room_controller.c:2652:20
	movw	r3, :lower16:rs485_interface_address
	.loc	2 2655 27               @ ../Application/hotel_room_controller.c:2655:27
	movw	r12, :lower16:rs485_packet_checksum
	movs	r0, #0
	.loc	2 2650 20               @ ../Application/hotel_room_controller.c:2650:20
	movt	r1, :upper16:rs485_rubicon_address
	.loc	2 2652 20               @ ../Application/hotel_room_controller.c:2652:20
	movt	r3, :upper16:rs485_interface_address
	.loc	2 2655 27               @ ../Application/hotel_room_controller.c:2655:27
	movt	r12, :upper16:rs485_packet_checksum
	.loc	2 2650 20               @ ../Application/hotel_room_controller.c:2650:20
	ldrh	r2, [r1]
	.loc	2 2650 18 is_stmt 0     @ ../Application/hotel_room_controller.c:2650:18
	movw	r1, :lower16:tx_buffer
	.loc	2 2652 20 is_stmt 1     @ ../Application/hotel_room_controller.c:2652:20
	ldrh	r3, [r3]
	.loc	2 2655 27               @ ../Application/hotel_room_controller.c:2655:27
	strh.w	r0, [r12]
	.loc	2 2650 18               @ ../Application/hotel_room_controller.c:2650:18
	movt	r1, :upper16:tx_buffer
	.loc	2 2651 18               @ ../Application/hotel_room_controller.c:2651:18
	strb	r2, [r1, #2]
	.loc	2 2650 42               @ ../Application/hotel_room_controller.c:2650:42
	lsrs	r2, r2, #8
	.loc	2 2653 18               @ ../Application/hotel_room_controller.c:2653:18
	strb	r3, [r1, #4]
	.loc	2 2650 18               @ ../Application/hotel_room_controller.c:2650:18
	strb	r2, [r1, #1]
	.loc	2 2652 44               @ ../Application/hotel_room_controller.c:2652:44
	lsrs	r2, r3, #8
	.loc	2 2652 18 is_stmt 0     @ ../Application/hotel_room_controller.c:2652:18
	strb	r2, [r1, #3]
.Ltmp489:
	@DEBUG_VALUE: RUBICON_PrepareFirmwareUpdatePacket:i <- 6
	.loc	2 2657 22 is_stmt 1     @ ../Application/hotel_room_controller.c:2657:22
	ldrb	r2, [r1, #5]
	.loc	2 2657 35 is_stmt 0     @ ../Application/hotel_room_controller.c:2657:35
	adds	r3, r2, #6
.Ltmp490:
	.loc	2 2657 5                @ ../Application/hotel_room_controller.c:2657:5
	cbz	r2, .LBB4_16
@ %bb.13:
	.loc	2 0 5                   @ ../Application/hotel_room_controller.c:0:5
	movs	r4, #6
	movs	r0, #0
	.p2align	2
.LBB4_14:                               @ =>This Inner Loop Header: Depth=1
.Ltmp491:
	@DEBUG_VALUE: RUBICON_PrepareFirmwareUpdatePacket:i <- $r4
	.loc	2 2659 34 is_stmt 1     @ ../Application/hotel_room_controller.c:2659:34
	ldrb	r5, [r1, r4]
.Ltmp492:
	.loc	2 2657 42               @ ../Application/hotel_room_controller.c:2657:42
	adds	r4, #1
.Ltmp493:
	@DEBUG_VALUE: RUBICON_PrepareFirmwareUpdatePacket:i <- $r4
	.loc	2 2657 5 is_stmt 0      @ ../Application/hotel_room_controller.c:2657:5
	cmp	r4, r3
.Ltmp494:
	.loc	2 2659 31 is_stmt 1     @ ../Application/hotel_room_controller.c:2659:31
	add	r0, r5
.Ltmp495:
	.loc	2 2657 5                @ ../Application/hotel_room_controller.c:2657:5
	blo	.LBB4_14
.Ltmp496:
@ %bb.15:
	@DEBUG_VALUE: RUBICON_PrepareFirmwareUpdatePacket:i <- $r4
	.loc	2 2659 31               @ ../Application/hotel_room_controller.c:2659:31
	uxth	r5, r0
	strh.w	r0, [r12]
.Ltmp497:
	.loc	2 2657 5                @ ../Application/hotel_room_controller.c:2657:5
	lsrs	r4, r5, #8
.Ltmp498:
	.loc	2 0 5 is_stmt 0         @ ../Application/hotel_room_controller.c:0:5
	b	.LBB4_17
.Ltmp499:
.LBB4_16:
	movs	r4, #0
.LBB4_17:
	.loc	2 2662 33 is_stmt 1     @ ../Application/hotel_room_controller.c:2662:33
	strb	r4, [r1, r3]
	.loc	2 2662 5 is_stmt 0      @ ../Application/hotel_room_controller.c:2662:5
	add	r1, r2
	movs	r2, #4
	.loc	2 2664 33 is_stmt 1     @ ../Application/hotel_room_controller.c:2664:33
	strb	r2, [r1, #8]
	.loc	2 2663 33               @ ../Application/hotel_room_controller.c:2663:33
	strb	r0, [r1, #7]
	movs	r2, #100
	.loc	2 2666 107              @ ../Application/hotel_room_controller.c:2666:107
	ldrd	r0, r1, [r6, #4]
	.loc	2 2666 69 is_stmt 0     @ ../Application/hotel_room_controller.c:2666:69
	muls	r1, r2, r1
	.loc	2 2666 76               @ ../Application/hotel_room_controller.c:2666:76
	udiv	r1, r1, r0
	.loc	2 2666 24               @ ../Application/hotel_room_controller.c:2666:24
	movw	r0, :lower16:rubicon_file_progress
	movt	r0, :upper16:rubicon_file_progress
	str	r1, [r0]
	.loc	2 2667 19 is_stmt 1     @ ../Application/hotel_room_controller.c:2667:19
	movw	r0, :lower16:hPROGBAR_FileTransfer
	movt	r0, :upper16:hPROGBAR_FileTransfer
	ldr	r0, [r0]
	.loc	2 2667 2 is_stmt 0      @ ../Application/hotel_room_controller.c:2667:2
	add	sp, #8
	pop.w	{r4, r5, r6, lr}
	b	PROGBAR_SetValue
.Ltmp500:
.Lfunc_end4:
	.size	RUBICON_PrepareFirmwareUpdatePacket, .Lfunc_end4-RUBICON_PrepareFirmwareUpdatePacket
	.cfi_endproc
	.cantunwind
	.fnend
                                        @ -- End function
	.section	.text.CONTROLLER_WriteLogEvent,"ax",%progbits
	.hidden	CONTROLLER_WriteLogEvent @ -- Begin function CONTROLLER_WriteLogEvent
	.globl	CONTROLLER_WriteLogEvent
	.p2align	1
	.type	CONTROLLER_WriteLogEvent,%function
	.code	16                      @ @CONTROLLER_WriteLogEvent
	.thumb_func
CONTROLLER_WriteLogEvent:
.Lfunc_begin5:
	.loc	2 2987 0 is_stmt 1      @ ../Application/hotel_room_controller.c:2987:0
	.fnstart
	.cfi_startproc
@ %bb.0:
	.save	{r4, r5, r6, r7, lr}
	push	{r4, r5, r6, r7, lr}
	.cfi_def_cfa_offset 20
	.cfi_offset lr, -4
	.cfi_offset r7, -8
	.cfi_offset r6, -12
	.cfi_offset r5, -16
	.cfi_offset r4, -20
	.pad	#4
	sub	sp, #4
	.cfi_def_cfa_offset 24
	@DEBUG_VALUE: CONTROLLER_WriteLogEvent:log_event <- $r0
	@DEBUG_VALUE: CONTROLLER_WriteLogEvent:event_detail <- $r1
.Ltmp501:
	.loc	2 2990 2 prologue_end   @ ../Application/hotel_room_controller.c:2990:2
	movw	r6, :lower16:RTC_Date
	mov	r5, r0
.Ltmp502:
	@DEBUG_VALUE: CONTROLLER_WriteLogEvent:event_detail <- $r4
	@DEBUG_VALUE: CONTROLLER_WriteLogEvent:log_event <- $r5
	.loc	2 0 2 is_stmt 0         @ ../Application/hotel_room_controller.c:0:2
	mov	r4, r1
.Ltmp503:
	.loc	2 2990 2                @ ../Application/hotel_room_controller.c:2990:2
	movs	r0, #1
	movt	r6, :upper16:RTC_Date
	mov	r1, r6
	bl	RTC_GetDate
	.loc	2 2991 5 is_stmt 1      @ ../Application/hotel_room_controller.c:2991:5
	movw	r7, :lower16:RTC_Time
	movs	r0, #1
	movt	r7, :upper16:RTC_Time
	mov	r1, r7
	bl	RTC_GetTime
	.loc	2 2994 19               @ ../Application/hotel_room_controller.c:2994:19
	movw	r0, :lower16:i2c_ee_buffer
	movs	r1, #0
	.loc	2 3004 31               @ ../Application/hotel_room_controller.c:3004:31
	ldrb	r2, [r6, #2]
	.loc	2 3006 34               @ ../Application/hotel_room_controller.c:3006:34
	ldrb	r3, [r6, #3]
	.loc	2 2994 19               @ ../Application/hotel_room_controller.c:2994:19
	movt	r0, :upper16:i2c_ee_buffer
	.loc	2 3001 19               @ ../Application/hotel_room_controller.c:3001:19
	str.w	r1, [r0, #6]
	.loc	2 2999 19               @ ../Application/hotel_room_controller.c:2999:19
	strb	r4, [r0, #5]
	.loc	2 2997 19               @ ../Application/hotel_room_controller.c:2997:19
	strh.w	r1, [r0, #3]
	.loc	2 3005 34               @ ../Application/hotel_room_controller.c:3005:34
	ldrb	r1, [r6, #1]
	.loc	2 2996 19               @ ../Application/hotel_room_controller.c:2996:19
	strb	r5, [r0, #2]
	.loc	2 3004 20               @ ../Application/hotel_room_controller.c:3004:20
	strb	r2, [r0, #10]
	.loc	2 3005 23               @ ../Application/hotel_room_controller.c:3005:23
	strb	r1, [r0, #11]
	.loc	2 3007 34               @ ../Application/hotel_room_controller.c:3007:34
	ldrh	r1, [r7]
	.loc	2 3006 23               @ ../Application/hotel_room_controller.c:3006:23
	strb	r3, [r0, #12]
	.loc	2 3007 23               @ ../Application/hotel_room_controller.c:3007:23
	strh.w	r1, [r0, #13]
	.loc	2 3009 34               @ ../Application/hotel_room_controller.c:3009:34
	ldrb	r1, [r7, #2]
	.loc	2 3009 23 is_stmt 0     @ ../Application/hotel_room_controller.c:3009:23
	strb	r1, [r0, #15]
	.loc	2 2993 8 is_stmt 1      @ ../Application/hotel_room_controller.c:2993:8
	movw	r1, :lower16:CONTROLLER_WriteLogEvent.log_id
	movt	r1, :upper16:CONTROLLER_WriteLogEvent.log_id
	ldrh	r2, [r1]
	adds	r2, #1
	strh	r2, [r1]
	.loc	2 2994 29               @ ../Application/hotel_room_controller.c:2994:29
	lsrs	r1, r2, #8
	.loc	2 2995 19               @ ../Application/hotel_room_controller.c:2995:19
	strb	r2, [r0, #1]
	.loc	2 2994 19               @ ../Application/hotel_room_controller.c:2994:19
	strb	r1, [r0]
	.loc	2 3010 2                @ ../Application/hotel_room_controller.c:3010:2
	movs	r0, #1
	add	sp, #4
	pop.w	{r4, r5, r6, r7, lr}
.Ltmp504:
	b	RUBICON_WriteLogToList
.Ltmp505:
.Lfunc_end5:
	.size	CONTROLLER_WriteLogEvent, .Lfunc_end5-CONTROLLER_WriteLogEvent
	.cfi_endproc
	.cantunwind
	.fnend
                                        @ -- End function
	.section	.text.RUBICON_PrepareCommandPacket,"ax",%progbits
	.hidden	RUBICON_PrepareCommandPacket @ -- Begin function RUBICON_PrepareCommandPacket
	.globl	RUBICON_PrepareCommandPacket
	.p2align	2
	.type	RUBICON_PrepareCommandPacket,%function
	.code	16                      @ @RUBICON_PrepareCommandPacket
	.thumb_func
RUBICON_PrepareCommandPacket:
.Lfunc_begin6:
	.loc	2 2768 0                @ ../Application/hotel_room_controller.c:2768:0
	.fnstart
	.cfi_startproc
@ %bb.0:
	.save	{r4, r5, r7, lr}
	push	{r4, r5, r7, lr}
	.cfi_def_cfa_offset 16
	.cfi_offset lr, -4
	.cfi_offset r7, -8
	.cfi_offset r5, -12
	.cfi_offset r4, -16
	.pad	#8
	sub	sp, #8
	.cfi_def_cfa_offset 24
	@DEBUG_VALUE: RUBICON_PrepareCommandPacket:command <- $r0
	@DEBUG_VALUE: RUBICON_PrepareCommandPacket:ibuff <- $r1
.Ltmp506:
	.loc	2 2773 20 prologue_end  @ ../Application/hotel_room_controller.c:2773:20
	movw	r2, :lower16:rs485_rubicon_address
	.loc	2 2775 20               @ ../Application/hotel_room_controller.c:2775:20
	movw	r3, :lower16:rs485_interface_address
	.loc	2 2772 18               @ ../Application/hotel_room_controller.c:2772:18
	movw	r5, :lower16:tx_buffer
	mov	r4, r1
.Ltmp507:
	@DEBUG_VALUE: RUBICON_PrepareCommandPacket:ibuff <- $r4
	@DEBUG_VALUE: RUBICON_PrepareCommandPacket:command <- $r0
	.loc	2 0 18 is_stmt 0        @ ../Application/hotel_room_controller.c:0:18
	movs	r1, #1
	.loc	2 2773 20 is_stmt 1     @ ../Application/hotel_room_controller.c:2773:20
	movt	r2, :upper16:rs485_rubicon_address
	.loc	2 2775 20               @ ../Application/hotel_room_controller.c:2775:20
	movt	r3, :upper16:rs485_interface_address
	.loc	2 2772 18               @ ../Application/hotel_room_controller.c:2772:18
	movt	r5, :upper16:tx_buffer
	.loc	2 2773 20               @ ../Application/hotel_room_controller.c:2773:20
	ldrh	r2, [r2]
	.loc	2 2775 20               @ ../Application/hotel_room_controller.c:2775:20
	ldrh	r3, [r3]
	.loc	2 2772 18               @ ../Application/hotel_room_controller.c:2772:18
	strb	r1, [r5]
	.loc	2 2778 18               @ ../Application/hotel_room_controller.c:2778:18
	strb	r0, [r5, #6]
	.loc	2 2777 18               @ ../Application/hotel_room_controller.c:2777:18
	strb	r1, [r5, #5]
	.loc	2 2774 18               @ ../Application/hotel_room_controller.c:2774:18
	strb	r2, [r5, #2]
	.loc	2 2773 42               @ ../Application/hotel_room_controller.c:2773:42
	lsrs	r2, r2, #8
	.loc	2 2776 18               @ ../Application/hotel_room_controller.c:2776:18
	strb	r3, [r5, #4]
	.loc	2 2773 18               @ ../Application/hotel_room_controller.c:2773:18
	strb	r2, [r5, #1]
	.loc	2 2775 44               @ ../Application/hotel_room_controller.c:2775:44
	lsrs	r2, r3, #8
	.loc	2 2775 18 is_stmt 0     @ ../Application/hotel_room_controller.c:2775:18
	strb	r2, [r5, #3]
	.loc	2 2780 9 is_stmt 1      @ ../Application/hotel_room_controller.c:2780:9
	sub.w	r2, r0, #208
	cmp	r2, #14
	bhi	.LBB6_4
.Ltmp508:
@ %bb.1:
	@DEBUG_VALUE: RUBICON_PrepareCommandPacket:ibuff <- $r4
	@DEBUG_VALUE: RUBICON_PrepareCommandPacket:command <- $r0
	.loc	2 0 9 is_stmt 0         @ ../Application/hotel_room_controller.c:0:9
.LCPI6_0:
	tbb	[pc, r2]
.Ltmp509:
@ %bb.2:
.LJTI6_0:
	.byte	(.LBB6_10-(.LCPI6_0+4))/2
	.byte	(.LBB6_14-(.LCPI6_0+4))/2
	.byte	(.LBB6_23-(.LCPI6_0+4))/2
	.byte	(.LBB6_43-(.LCPI6_0+4))/2
	.byte	(.LBB6_27-(.LCPI6_0+4))/2
	.byte	(.LBB6_43-(.LCPI6_0+4))/2
	.byte	(.LBB6_28-(.LCPI6_0+4))/2
	.byte	(.LBB6_32-(.LCPI6_0+4))/2
	.byte	(.LBB6_34-(.LCPI6_0+4))/2
	.byte	(.LBB6_43-(.LCPI6_0+4))/2
	.byte	(.LBB6_37-(.LCPI6_0+4))/2
	.byte	(.LBB6_41-(.LCPI6_0+4))/2
	.byte	(.LBB6_3-(.LCPI6_0+4))/2
	.byte	(.LBB6_3-(.LCPI6_0+4))/2
	.byte	(.LBB6_44-(.LCPI6_0+4))/2
	.p2align	1
.LBB6_3:
.Ltmp510:
	@DEBUG_VALUE: RUBICON_PrepareCommandPacket:ibuff <- $r4
	@DEBUG_VALUE: RUBICON_PrepareCommandPacket:command <- $r0
	movs	r1, #13
	b	.LBB6_42
.Ltmp511:
.LBB6_4:
	@DEBUG_VALUE: RUBICON_PrepareCommandPacket:ibuff <- $r4
	@DEBUG_VALUE: RUBICON_PrepareCommandPacket:command <- $r0
	.loc	2 2780 9                @ ../Application/hotel_room_controller.c:2780:9
	subs	r0, #133
.Ltmp512:
	cmp	r0, #2
	bhs.w	.LBB6_43
.Ltmp513:
	.p2align	2
.LBB6_5:                                @ =>This Inner Loop Header: Depth=1
	@DEBUG_VALUE: RUBICON_PrepareCommandPacket:ibuff <- $r4
	@DEBUG_VALUE: RUBICON_PrepareCommandPacket:ibuff <- $r4
	.loc	2 2791 9 is_stmt 1      @ ../Application/hotel_room_controller.c:2791:9
	ldrb	r0, [r4], #1
.Ltmp514:
	@DEBUG_VALUE: RUBICON_PrepareCommandPacket:ibuff <- $r4
	.loc	2 2791 3 is_stmt 0      @ ../Application/hotel_room_controller.c:2791:3
	cmp	r0, #0
	bne	.LBB6_5
.Ltmp515:
@ %bb.6:
	@DEBUG_VALUE: RUBICON_PrepareCommandPacket:ibuff <- $r4
	.loc	2 0 3                   @ ../Application/hotel_room_controller.c:0:3
	movs	r0, #0
.Ltmp516:
	.p2align	2
.LBB6_7:                                @ =>This Inner Loop Header: Depth=1
	@DEBUG_VALUE: RUBICON_PrepareCommandPacket:ibuff <- $r4
	@DEBUG_VALUE: RUBICON_PrepareCommandPacket:ibuff <- undef
	@DEBUG_VALUE: RUBICON_PrepareCommandPacket:i <- undef
	.loc	2 2794 10 is_stmt 1     @ ../Application/hotel_room_controller.c:2794:10
	ldrb	r1, [r4, r0]
	.loc	2 2794 26 is_stmt 0     @ ../Application/hotel_room_controller.c:2794:26
	cmp	r1, #0
	beq.w	.LBB6_55
@ %bb.8:                                @   in Loop: Header=BB6_7 Depth=1
.Ltmp517:
	@DEBUG_VALUE: RUBICON_PrepareCommandPacket:ibuff <- [DW_OP_plus_uconst 1, DW_OP_stack_value] undef
	@DEBUG_VALUE: RUBICON_PrepareCommandPacket:i <- [DW_OP_plus_uconst 1, DW_OP_stack_value] undef
	.loc	2 0 0                   @ ../Application/hotel_room_controller.c:0:0
	adds	r2, r5, r0
	.loc	2 2794 3                @ ../Application/hotel_room_controller.c:2794:3
	adds	r0, #1
	cmp	r1, #59
	.loc	2 0 0                   @ ../Application/hotel_room_controller.c:0:0
	strb	r1, [r2, #7]
	bne	.LBB6_7
@ %bb.9:
	.loc	2 2797 3 is_stmt 1      @ ../Application/hotel_room_controller.c:2797:3
	adds	r0, #7
	b	.LBB6_56
.Ltmp518:
.LBB6_10:
	@DEBUG_VALUE: RUBICON_PrepareCommandPacket:ibuff <- $r4
	@DEBUG_VALUE: RUBICON_PrepareCommandPacket:command <- $r0
	.loc	2 0 3 is_stmt 0         @ ../Application/hotel_room_controller.c:0:3
	movs	r0, #2
.Ltmp519:
	.loc	2 2856 22 is_stmt 1     @ ../Application/hotel_room_controller.c:2856:22
	strb	r0, [r5, #5]
	.loc	2 2857 3                @ ../Application/hotel_room_controller.c:2857:3
	adds	r0, r4, #1
.Ltmp520:
	.p2align	2
.LBB6_11:                               @ =>This Inner Loop Header: Depth=1
	@DEBUG_VALUE: RUBICON_PrepareCommandPacket:ibuff <- $r4
	@DEBUG_VALUE: RUBICON_PrepareCommandPacket:ibuff <- undef
	.loc	2 2857 9 is_stmt 0      @ ../Application/hotel_room_controller.c:2857:9
	ldrb	r1, [r0, #-1]
.Ltmp521:
	@DEBUG_VALUE: RUBICON_PrepareCommandPacket:ibuff <- [DW_OP_plus_uconst 1, DW_OP_stack_value] undef
	.loc	2 2857 3                @ ../Application/hotel_room_controller.c:2857:3
	adds	r0, #1
	cmp	r1, #0
	bne	.LBB6_11
@ %bb.12:
.Ltmp522:
	@DEBUG_VALUE: RUBICON_PrepareCommandPacket:ibuff <- undef
	.loc	2 2859 24 is_stmt 1     @ ../Application/hotel_room_controller.c:2859:24
	ldrb	r1, [r0, #-1]
	.loc	2 2859 22 is_stmt 0     @ ../Application/hotel_room_controller.c:2859:22
	strb	r1, [r5, #7]
.Ltmp523:
	.loc	2 2861 6 is_stmt 1      @ ../Application/hotel_room_controller.c:2861:6
	ldrb	r1, [r0]
.Ltmp524:
	.loc	2 2861 6 is_stmt 0      @ ../Application/hotel_room_controller.c:2861:6
	cmp	r1, #0
	beq.w	.LBB6_74
@ %bb.13:
	.loc	2 0 6                   @ ../Application/hotel_room_controller.c:0:6
	movs	r1, #3
.Ltmp525:
	.loc	2 2863 17 is_stmt 1     @ ../Application/hotel_room_controller.c:2863:17
	strb	r1, [r5, #5]
	.loc	2 2864 19               @ ../Application/hotel_room_controller.c:2864:19
	ldrb	r0, [r0]
	.loc	2 2864 17 is_stmt 0     @ ../Application/hotel_room_controller.c:2864:17
	strb	r0, [r5, #8]
	b	.LBB6_43
.Ltmp526:
.LBB6_14:
	@DEBUG_VALUE: RUBICON_PrepareCommandPacket:ibuff <- $r4
	@DEBUG_VALUE: RUBICON_PrepareCommandPacket:command <- $r0
	.loc	2 0 17                  @ ../Application/hotel_room_controller.c:0:17
	movs	r0, #14
.Ltmp527:
	.loc	2 2802 22 is_stmt 1     @ ../Application/hotel_room_controller.c:2802:22
	strb	r0, [r5, #5]
.Ltmp528:
	.p2align	2
.LBB6_15:                               @ =>This Inner Loop Header: Depth=1
	@DEBUG_VALUE: RUBICON_PrepareCommandPacket:ibuff <- $r4
	@DEBUG_VALUE: RUBICON_PrepareCommandPacket:ibuff <- $r4
	.loc	2 2803 9                @ ../Application/hotel_room_controller.c:2803:9
	ldrb	r0, [r4], #1
.Ltmp529:
	@DEBUG_VALUE: RUBICON_PrepareCommandPacket:ibuff <- $r4
	.loc	2 2803 3 is_stmt 0      @ ../Application/hotel_room_controller.c:2803:3
	cmp	r0, #0
	bne	.LBB6_15
.Ltmp530:
@ %bb.16:
	@DEBUG_VALUE: RUBICON_PrepareCommandPacket:ibuff <- $r4
	.loc	2 2805 7 is_stmt 1      @ ../Application/hotel_room_controller.c:2805:7
	mov	r0, r4
	bl	atoi
.Ltmp531:
	@DEBUG_VALUE: RUBICON_PrepareCommandPacket:i <- $r0
	.loc	2 2807 10               @ ../Application/hotel_room_controller.c:2807:10
	strb.w	r0, [sp, #3]
	.loc	2 2806 14               @ ../Application/hotel_room_controller.c:2806:14
	lsrs	r0, r0, #8
.Ltmp532:
	.loc	2 2806 10 is_stmt 0     @ ../Application/hotel_room_controller.c:2806:10
	strb.w	r0, [sp, #2]
.Ltmp533:
	.p2align	2
.LBB6_17:                               @ =>This Inner Loop Header: Depth=1
	@DEBUG_VALUE: RUBICON_PrepareCommandPacket:ibuff <- $r4
	@DEBUG_VALUE: RUBICON_PrepareCommandPacket:ibuff <- $r4
	.loc	2 2808 9 is_stmt 1      @ ../Application/hotel_room_controller.c:2808:9
	ldrb	r0, [r4], #1
.Ltmp534:
	@DEBUG_VALUE: RUBICON_PrepareCommandPacket:ibuff <- $r4
	.loc	2 2808 3 is_stmt 0      @ ../Application/hotel_room_controller.c:2808:3
	cmp	r0, #0
	bne	.LBB6_17
.Ltmp535:
@ %bb.18:
	@DEBUG_VALUE: RUBICON_PrepareCommandPacket:ibuff <- $r4
	.loc	2 2810 7 is_stmt 1      @ ../Application/hotel_room_controller.c:2810:7
	mov	r0, r4
	bl	atoi
.Ltmp536:
	@DEBUG_VALUE: RUBICON_PrepareCommandPacket:i <- $r0
	.loc	2 2812 10               @ ../Application/hotel_room_controller.c:2812:10
	strb.w	r0, [sp, #5]
	.loc	2 2811 14               @ ../Application/hotel_room_controller.c:2811:14
	lsrs	r0, r0, #8
.Ltmp537:
	.loc	2 2811 10 is_stmt 0     @ ../Application/hotel_room_controller.c:2811:10
	strb.w	r0, [sp, #4]
.Ltmp538:
	.p2align	2
.LBB6_19:                               @ =>This Inner Loop Header: Depth=1
	@DEBUG_VALUE: RUBICON_PrepareCommandPacket:ibuff <- $r4
	@DEBUG_VALUE: RUBICON_PrepareCommandPacket:ibuff <- $r4
	.loc	2 2813 9 is_stmt 1      @ ../Application/hotel_room_controller.c:2813:9
	ldrb	r0, [r4], #1
.Ltmp539:
	@DEBUG_VALUE: RUBICON_PrepareCommandPacket:ibuff <- $r4
	.loc	2 2813 3 is_stmt 0      @ ../Application/hotel_room_controller.c:2813:3
	cmp	r0, #0
	bne	.LBB6_19
.Ltmp540:
@ %bb.20:
	@DEBUG_VALUE: RUBICON_PrepareCommandPacket:ibuff <- $r4
	.loc	2 2815 7 is_stmt 1      @ ../Application/hotel_room_controller.c:2815:7
	mov	r0, r4
	bl	atoi
.Ltmp541:
	@DEBUG_VALUE: RUBICON_PrepareCommandPacket:i <- $r0
	.loc	2 2817 10               @ ../Application/hotel_room_controller.c:2817:10
	strb.w	r0, [sp, #7]
	.loc	2 2816 14               @ ../Application/hotel_room_controller.c:2816:14
	lsrs	r0, r0, #8
.Ltmp542:
	.loc	2 2816 10 is_stmt 0     @ ../Application/hotel_room_controller.c:2816:10
	strb.w	r0, [sp, #6]
.Ltmp543:
	.p2align	2
.LBB6_21:                               @ =>This Inner Loop Header: Depth=1
	@DEBUG_VALUE: RUBICON_PrepareCommandPacket:ibuff <- $r4
	@DEBUG_VALUE: RUBICON_PrepareCommandPacket:ibuff <- $r4
	.loc	2 2818 9 is_stmt 1      @ ../Application/hotel_room_controller.c:2818:9
	ldrb	r0, [r4], #1
.Ltmp544:
	@DEBUG_VALUE: RUBICON_PrepareCommandPacket:ibuff <- $r4
	.loc	2 2818 3 is_stmt 0      @ ../Application/hotel_room_controller.c:2818:3
	cmp	r0, #0
	bne	.LBB6_21
.Ltmp545:
@ %bb.22:
	@DEBUG_VALUE: RUBICON_PrepareCommandPacket:ibuff <- $r4
	.loc	2 2820 3 is_stmt 1      @ ../Application/hotel_room_controller.c:2820:3
	adds	r2, r5, #7
	add.w	r0, sp, #2
	movs	r1, #6
	bl	Hex2Str
	.loc	2 2821 19               @ ../Application/hotel_room_controller.c:2821:19
	ldrb	r0, [r4]
	.loc	2 2821 17 is_stmt 0     @ ../Application/hotel_room_controller.c:2821:17
	strb	r0, [r5, #19]
	b	.LBB6_74
.Ltmp546:
.LBB6_23:
	@DEBUG_VALUE: RUBICON_PrepareCommandPacket:ibuff <- $r4
	@DEBUG_VALUE: RUBICON_PrepareCommandPacket:command <- $r0
	.loc	2 0 17                  @ ../Application/hotel_room_controller.c:0:17
	movs	r0, #10
.Ltmp547:
	.loc	2 2838 22 is_stmt 1     @ ../Application/hotel_room_controller.c:2838:22
	strb	r0, [r5, #5]
.Ltmp548:
	.p2align	2
.LBB6_24:                               @ =>This Inner Loop Header: Depth=1
	@DEBUG_VALUE: RUBICON_PrepareCommandPacket:ibuff <- $r4
	@DEBUG_VALUE: RUBICON_PrepareCommandPacket:ibuff <- $r4
	.loc	2 2840 9                @ ../Application/hotel_room_controller.c:2840:9
	ldrb	r0, [r4], #1
.Ltmp549:
	@DEBUG_VALUE: RUBICON_PrepareCommandPacket:ibuff <- $r4
	.loc	2 2840 3 is_stmt 0      @ ../Application/hotel_room_controller.c:2840:3
	cmp	r0, #0
	bne	.LBB6_24
.Ltmp550:
@ %bb.25:
	@DEBUG_VALUE: RUBICON_PrepareCommandPacket:ibuff <- $r4
	.loc	2 0 3                   @ ../Application/hotel_room_controller.c:0:3
	movs	r0, #0
.Ltmp551:
	.p2align	2
.LBB6_26:                               @ =>This Inner Loop Header: Depth=1
	@DEBUG_VALUE: RUBICON_PrepareCommandPacket:ibuff <- $r4
	@DEBUG_VALUE: RUBICON_PrepareCommandPacket:ibuff <- undef
	@DEBUG_VALUE: RUBICON_PrepareCommandPacket:i <- undef
	.loc	2 2844 41 is_stmt 1     @ ../Application/hotel_room_controller.c:2844:41
	ldrb	r1, [r4, r0]
	.loc	2 2844 39 is_stmt 0     @ ../Application/hotel_room_controller.c:2844:39
	adds	r2, r5, r0
	.loc	2 2844 18               @ ../Application/hotel_room_controller.c:2844:18
	adds	r0, #1
	.loc	2 2844 9                @ ../Application/hotel_room_controller.c:2844:9
	cmp	r0, #16
	.loc	2 2844 39               @ ../Application/hotel_room_controller.c:2844:39
	strb	r1, [r2, #7]
.Ltmp552:
	@DEBUG_VALUE: RUBICON_PrepareCommandPacket:i <- [DW_OP_plus_uconst 1, DW_OP_stack_value] undef
	@DEBUG_VALUE: RUBICON_PrepareCommandPacket:ibuff <- [DW_OP_plus_uconst 1, DW_OP_stack_value] undef
	.loc	2 2844 9                @ ../Application/hotel_room_controller.c:2844:9
	bne	.LBB6_26
	b	.LBB6_74
.Ltmp553:
.LBB6_27:
	@DEBUG_VALUE: RUBICON_PrepareCommandPacket:ibuff <- $r4
	@DEBUG_VALUE: RUBICON_PrepareCommandPacket:command <- $r0
	.loc	2 0 9                   @ ../Application/hotel_room_controller.c:0:9
	movs	r0, #49
.Ltmp554:
	movs	r1, #2
.Ltmp555:
	.loc	2 2870 16 is_stmt 1     @ ../Application/hotel_room_controller.c:2870:16
	strb	r0, [r5, #7]
	b	.LBB6_42
.Ltmp556:
.LBB6_28:
	@DEBUG_VALUE: RUBICON_PrepareCommandPacket:ibuff <- $r4
	@DEBUG_VALUE: RUBICON_PrepareCommandPacket:command <- $r0
	.loc	2 0 16 is_stmt 0        @ ../Application/hotel_room_controller.c:0:16
	movs	r0, #8
.Ltmp557:
	.loc	2 2874 22 is_stmt 1     @ ../Application/hotel_room_controller.c:2874:22
	strb	r0, [r5, #5]
.Ltmp558:
	.p2align	2
.LBB6_29:                               @ =>This Inner Loop Header: Depth=1
	@DEBUG_VALUE: RUBICON_PrepareCommandPacket:ibuff <- $r4
	@DEBUG_VALUE: RUBICON_PrepareCommandPacket:ibuff <- $r4
	.loc	2 2875 9                @ ../Application/hotel_room_controller.c:2875:9
	ldrb	r0, [r4], #1
.Ltmp559:
	@DEBUG_VALUE: RUBICON_PrepareCommandPacket:ibuff <- $r4
	.loc	2 2875 3 is_stmt 0      @ ../Application/hotel_room_controller.c:2875:3
	cmp	r0, #0
	bne	.LBB6_29
.Ltmp560:
@ %bb.30:
	@DEBUG_VALUE: RUBICON_PrepareCommandPacket:ibuff <- $r4
	.loc	2 2877 7 is_stmt 1      @ ../Application/hotel_room_controller.c:2877:7
	mov	r0, r4
	bl	atoi
.Ltmp561:
	@DEBUG_VALUE: RUBICON_PrepareCommandPacket:i <- $r0
	.loc	2 2879 7                @ ../Application/hotel_room_controller.c:2879:7
	cmp	r0, #128
	blo	.LBB6_57
.Ltmp562:
@ %bb.31:
	@DEBUG_VALUE: RUBICON_PrepareCommandPacket:i <- $r0
	@DEBUG_VALUE: RUBICON_PrepareCommandPacket:ibuff <- $r4
	.loc	2 0 7 is_stmt 0         @ ../Application/hotel_room_controller.c:0:7
	movs	r1, #69
.Ltmp563:
	.loc	2 2882 6 is_stmt 1      @ ../Application/hotel_room_controller.c:2882:6
	subs	r0, #128
.Ltmp564:
	.loc	2 0 6 is_stmt 0         @ ../Application/hotel_room_controller.c:0:6
	b	.LBB6_58
.Ltmp565:
.LBB6_32:
	@DEBUG_VALUE: RUBICON_PrepareCommandPacket:ibuff <- $r4
	@DEBUG_VALUE: RUBICON_PrepareCommandPacket:command <- $r0
	movs	r0, #3
.Ltmp566:
	.loc	2 2782 22 is_stmt 1     @ ../Application/hotel_room_controller.c:2782:22
	strb	r0, [r5, #5]
.Ltmp567:
	.p2align	2
.LBB6_33:                               @ =>This Inner Loop Header: Depth=1
	@DEBUG_VALUE: RUBICON_PrepareCommandPacket:ibuff <- $r4
	@DEBUG_VALUE: RUBICON_PrepareCommandPacket:ibuff <- $r4
	.loc	2 2783 9                @ ../Application/hotel_room_controller.c:2783:9
	ldrb	r0, [r4], #1
.Ltmp568:
	@DEBUG_VALUE: RUBICON_PrepareCommandPacket:ibuff <- $r4
	.loc	2 2783 3 is_stmt 0      @ ../Application/hotel_room_controller.c:2783:3
	cmp	r0, #0
	bne	.LBB6_33
	b	.LBB6_36
.Ltmp569:
.LBB6_34:
	@DEBUG_VALUE: RUBICON_PrepareCommandPacket:ibuff <- $r4
	@DEBUG_VALUE: RUBICON_PrepareCommandPacket:command <- $r0
	.loc	2 0 3                   @ ../Application/hotel_room_controller.c:0:3
	movs	r0, #3
.Ltmp570:
	.loc	2 2942 22 is_stmt 1     @ ../Application/hotel_room_controller.c:2942:22
	strb	r0, [r5, #5]
.Ltmp571:
	.p2align	2
.LBB6_35:                               @ =>This Inner Loop Header: Depth=1
	@DEBUG_VALUE: RUBICON_PrepareCommandPacket:ibuff <- $r4
	@DEBUG_VALUE: RUBICON_PrepareCommandPacket:ibuff <- $r4
	.loc	2 2943 9                @ ../Application/hotel_room_controller.c:2943:9
	ldrb	r0, [r4], #1
.Ltmp572:
	@DEBUG_VALUE: RUBICON_PrepareCommandPacket:ibuff <- $r4
	.loc	2 2943 3 is_stmt 0      @ ../Application/hotel_room_controller.c:2943:3
	cmp	r0, #0
	bne	.LBB6_35
.Ltmp573:
.LBB6_36:
	@DEBUG_VALUE: RUBICON_PrepareCommandPacket:ibuff <- $r4
	.loc	2 0 0                   @ ../Application/hotel_room_controller.c:0:0
	mov	r0, r4
	bl	atoi
.Ltmp574:
	@DEBUG_VALUE: RUBICON_PrepareCommandPacket:i <- $r0
	strb	r0, [r5, #8]
	lsrs	r0, r0, #8
.Ltmp575:
	strb	r0, [r5, #7]
	b	.LBB6_74
.Ltmp576:
.LBB6_37:
	@DEBUG_VALUE: RUBICON_PrepareCommandPacket:ibuff <- $r4
	@DEBUG_VALUE: RUBICON_PrepareCommandPacket:command <- $r0
	.loc	2 2825 9 is_stmt 1      @ ../Application/hotel_room_controller.c:2825:9
	adds	r0, r4, #1
.Ltmp577:
	.p2align	2
.LBB6_38:                               @ =>This Inner Loop Header: Depth=1
	@DEBUG_VALUE: RUBICON_PrepareCommandPacket:ibuff <- $r4
	@DEBUG_VALUE: RUBICON_PrepareCommandPacket:ibuff <- undef
	ldrb	r1, [r0, #-1]
.Ltmp578:
	@DEBUG_VALUE: RUBICON_PrepareCommandPacket:ibuff <- [DW_OP_plus_uconst 1, DW_OP_stack_value] undef
	.loc	2 2825 3 is_stmt 0      @ ../Application/hotel_room_controller.c:2825:3
	adds	r0, #1
	cmp	r1, #0
	bne	.LBB6_38
@ %bb.39:
.Ltmp579:
	@DEBUG_VALUE: RUBICON_PrepareCommandPacket:ibuff <- undef
	.loc	2 0 3                   @ ../Application/hotel_room_controller.c:0:3
	movs	r1, #3
	.loc	2 2827 22 is_stmt 1     @ ../Application/hotel_room_controller.c:2827:22
	strb	r1, [r5, #5]
	.loc	2 2828 18               @ ../Application/hotel_room_controller.c:2828:18
	ldrb	r1, [r0, #-1]
	.loc	2 2828 16 is_stmt 0     @ ../Application/hotel_room_controller.c:2828:16
	strb	r1, [r5, #7]
.Ltmp580:
	.loc	2 2829 6 is_stmt 1      @ ../Application/hotel_room_controller.c:2829:6
	ldrb	r0, [r0]
.Ltmp581:
	.loc	2 2829 6 is_stmt 0      @ ../Application/hotel_room_controller.c:2829:6
	cmp	r0, #0
	beq.w	.LBB6_73
@ %bb.40:
.Ltmp582:
	.loc	2 2834 21 is_stmt 1     @ ../Application/hotel_room_controller.c:2834:21
	strb	r0, [r5, #8]
	b	.LBB6_74
.Ltmp583:
.LBB6_41:
	@DEBUG_VALUE: RUBICON_PrepareCommandPacket:ibuff <- $r4
	@DEBUG_VALUE: RUBICON_PrepareCommandPacket:command <- $r0
	.loc	2 0 21 is_stmt 0        @ ../Application/hotel_room_controller.c:0:21
	movs	r1, #17
.Ltmp584:
.LBB6_42:
	@DEBUG_VALUE: RUBICON_PrepareCommandPacket:ibuff <- $r4
	strb	r1, [r5, #5]
.Ltmp585:
.LBB6_43:
	.loc	2 2974 27 is_stmt 1     @ ../Application/hotel_room_controller.c:2974:27
	movw	r0, :lower16:rs485_packet_checksum
	movs	r2, #0
	movt	r0, :upper16:rs485_packet_checksum
	strh	r2, [r0]
.Ltmp586:
	@DEBUG_VALUE: RUBICON_PrepareCommandPacket:i <- 6
	.loc	2 2976 35               @ ../Application/hotel_room_controller.c:2976:35
	adds	r0, r1, #6
	b	.LBB6_77
.Ltmp587:
.LBB6_44:
	@DEBUG_VALUE: RUBICON_PrepareCommandPacket:ibuff <- $r4
	@DEBUG_VALUE: RUBICON_PrepareCommandPacket:command <- $r0
	.loc	2 0 35 is_stmt 0        @ ../Application/hotel_room_controller.c:0:35
	movs	r0, #6
.Ltmp588:
	.loc	2 2951 22 is_stmt 1     @ ../Application/hotel_room_controller.c:2951:22
	strb	r0, [r5, #5]
.Ltmp589:
	.p2align	2
.LBB6_45:                               @ =>This Inner Loop Header: Depth=1
	@DEBUG_VALUE: RUBICON_PrepareCommandPacket:ibuff <- $r4
	@DEBUG_VALUE: RUBICON_PrepareCommandPacket:ibuff <- $r4
	.loc	2 2952 15               @ ../Application/hotel_room_controller.c:2952:15
	ldrb	r0, [r4], #1
.Ltmp590:
	@DEBUG_VALUE: RUBICON_PrepareCommandPacket:ibuff <- $r4
	.loc	2 2952 9 is_stmt 0      @ ../Application/hotel_room_controller.c:2952:9
	cmp	r0, #0
	bne	.LBB6_45
.Ltmp591:
@ %bb.46:
	@DEBUG_VALUE: RUBICON_PrepareCommandPacket:ibuff <- $r4
	.loc	2 2954 7 is_stmt 1      @ ../Application/hotel_room_controller.c:2954:7
	mov	r0, r4
	bl	atoi
.Ltmp592:
	@DEBUG_VALUE: RUBICON_PrepareCommandPacket:i <- $r0
	.loc	2 2955 22               @ ../Application/hotel_room_controller.c:2955:22
	strb	r0, [r5, #7]
.Ltmp593:
	.p2align	2
.LBB6_47:                               @ =>This Inner Loop Header: Depth=1
	@DEBUG_VALUE: RUBICON_PrepareCommandPacket:i <- $r0
	@DEBUG_VALUE: RUBICON_PrepareCommandPacket:ibuff <- $r4
	@DEBUG_VALUE: RUBICON_PrepareCommandPacket:ibuff <- $r4
	.loc	2 2956 9                @ ../Application/hotel_room_controller.c:2956:9
	ldrb	r0, [r4], #1
.Ltmp594:
	@DEBUG_VALUE: RUBICON_PrepareCommandPacket:ibuff <- $r4
	.loc	2 2956 3 is_stmt 0      @ ../Application/hotel_room_controller.c:2956:3
	cmp	r0, #0
	bne	.LBB6_47
.Ltmp595:
@ %bb.48:
	@DEBUG_VALUE: RUBICON_PrepareCommandPacket:ibuff <- $r4
	.loc	2 2958 7 is_stmt 1      @ ../Application/hotel_room_controller.c:2958:7
	mov	r0, r4
	bl	atoi
.Ltmp596:
	@DEBUG_VALUE: RUBICON_PrepareCommandPacket:i <- $r0
	.loc	2 2959 22               @ ../Application/hotel_room_controller.c:2959:22
	strb	r0, [r5, #8]
.Ltmp597:
	.p2align	2
.LBB6_49:                               @ =>This Inner Loop Header: Depth=1
	@DEBUG_VALUE: RUBICON_PrepareCommandPacket:i <- $r0
	@DEBUG_VALUE: RUBICON_PrepareCommandPacket:ibuff <- $r4
	@DEBUG_VALUE: RUBICON_PrepareCommandPacket:ibuff <- $r4
	.loc	2 2960 15               @ ../Application/hotel_room_controller.c:2960:15
	ldrb	r0, [r4], #1
.Ltmp598:
	@DEBUG_VALUE: RUBICON_PrepareCommandPacket:ibuff <- $r4
	.loc	2 2960 9 is_stmt 0      @ ../Application/hotel_room_controller.c:2960:9
	cmp	r0, #0
	bne	.LBB6_49
.Ltmp599:
@ %bb.50:
	@DEBUG_VALUE: RUBICON_PrepareCommandPacket:ibuff <- $r4
	.loc	2 2962 7 is_stmt 1      @ ../Application/hotel_room_controller.c:2962:7
	mov	r0, r4
	bl	atoi
.Ltmp600:
	@DEBUG_VALUE: RUBICON_PrepareCommandPacket:i <- $r0
	.loc	2 2963 22               @ ../Application/hotel_room_controller.c:2963:22
	strb	r0, [r5, #9]
.Ltmp601:
	.p2align	2
.LBB6_51:                               @ =>This Inner Loop Header: Depth=1
	@DEBUG_VALUE: RUBICON_PrepareCommandPacket:i <- $r0
	@DEBUG_VALUE: RUBICON_PrepareCommandPacket:ibuff <- $r4
	@DEBUG_VALUE: RUBICON_PrepareCommandPacket:ibuff <- $r4
	.loc	2 2964 15               @ ../Application/hotel_room_controller.c:2964:15
	ldrb	r0, [r4], #1
.Ltmp602:
	@DEBUG_VALUE: RUBICON_PrepareCommandPacket:ibuff <- $r4
	.loc	2 2964 9 is_stmt 0      @ ../Application/hotel_room_controller.c:2964:9
	cmp	r0, #0
	bne	.LBB6_51
.Ltmp603:
@ %bb.52:
	@DEBUG_VALUE: RUBICON_PrepareCommandPacket:ibuff <- $r4
	.loc	2 2966 7 is_stmt 1      @ ../Application/hotel_room_controller.c:2966:7
	mov	r0, r4
	bl	atoi
.Ltmp604:
	@DEBUG_VALUE: RUBICON_PrepareCommandPacket:i <- $r0
	.loc	2 2967 23               @ ../Application/hotel_room_controller.c:2967:23
	strb	r0, [r5, #10]
.Ltmp605:
	.p2align	2
.LBB6_53:                               @ =>This Inner Loop Header: Depth=1
	@DEBUG_VALUE: RUBICON_PrepareCommandPacket:i <- $r0
	@DEBUG_VALUE: RUBICON_PrepareCommandPacket:ibuff <- $r4
	@DEBUG_VALUE: RUBICON_PrepareCommandPacket:ibuff <- $r4
	.loc	2 2968 15               @ ../Application/hotel_room_controller.c:2968:15
	ldrb	r0, [r4], #1
.Ltmp606:
	@DEBUG_VALUE: RUBICON_PrepareCommandPacket:ibuff <- $r4
	.loc	2 2968 9 is_stmt 0      @ ../Application/hotel_room_controller.c:2968:9
	cmp	r0, #0
	bne	.LBB6_53
.Ltmp607:
@ %bb.54:
	@DEBUG_VALUE: RUBICON_PrepareCommandPacket:ibuff <- $r4
	.loc	2 2970 7 is_stmt 1      @ ../Application/hotel_room_controller.c:2970:7
	mov	r0, r4
	bl	atoi
.Ltmp608:
	@DEBUG_VALUE: RUBICON_PrepareCommandPacket:i <- $r0
	.loc	2 2971 23               @ ../Application/hotel_room_controller.c:2971:23
	strb	r0, [r5, #11]
	b	.LBB6_74
.Ltmp609:
.LBB6_55:
	@DEBUG_VALUE: RUBICON_PrepareCommandPacket:i <- undef
	@DEBUG_VALUE: RUBICON_PrepareCommandPacket:ibuff <- [DW_OP_plus_uconst 1, DW_OP_stack_value] undef
	.loc	2 0 0 is_stmt 0         @ ../Application/hotel_room_controller.c:0:0
	adds	r1, r5, r0
	movs	r2, #0
	adds	r0, #8
	strb	r2, [r1, #7]
.LBB6_56:
.Ltmp610:
	@DEBUG_VALUE: RUBICON_PrepareCommandPacket:i <- $r0
	movs	r1, #0
	.loc	2 2798 18 is_stmt 1     @ ../Application/hotel_room_controller.c:2798:18
	subs	r2, r0, #5
	.loc	2 2797 16               @ ../Application/hotel_room_controller.c:2797:16
	strb	r1, [r5, r0]
	.loc	2 2798 16               @ ../Application/hotel_room_controller.c:2798:16
	strb	r2, [r5, #5]
	b	.LBB6_75
.Ltmp611:
.LBB6_57:
	@DEBUG_VALUE: RUBICON_PrepareCommandPacket:i <- $r0
	@DEBUG_VALUE: RUBICON_PrepareCommandPacket:ibuff <- $r4
	.loc	2 0 16 is_stmt 0        @ ../Application/hotel_room_controller.c:0:16
	movs	r1, #68
.Ltmp612:
.LBB6_58:
	@DEBUG_VALUE: RUBICON_PrepareCommandPacket:ibuff <- $r4
	strb	r1, [r5, #7]
.Ltmp613:
	@DEBUG_VALUE: RUBICON_PrepareCommandPacket:i <- $r0
	.loc	2 2889 7 is_stmt 1      @ ../Application/hotel_room_controller.c:2889:7
	cmp	r0, #64
	blo	.LBB6_60
.Ltmp614:
@ %bb.59:
	@DEBUG_VALUE: RUBICON_PrepareCommandPacket:i <- $r0
	@DEBUG_VALUE: RUBICON_PrepareCommandPacket:ibuff <- $r4
	.loc	2 0 7 is_stmt 0         @ ../Application/hotel_room_controller.c:0:7
	movs	r1, #72
.Ltmp615:
	.loc	2 2892 6 is_stmt 1      @ ../Application/hotel_room_controller.c:2892:6
	subs	r0, #64
.Ltmp616:
	.loc	2 0 6 is_stmt 0         @ ../Application/hotel_room_controller.c:0:6
	b	.LBB6_61
.Ltmp617:
.LBB6_60:
	@DEBUG_VALUE: RUBICON_PrepareCommandPacket:i <- $r0
	@DEBUG_VALUE: RUBICON_PrepareCommandPacket:ibuff <- $r4
	movs	r1, #67
.Ltmp618:
.LBB6_61:
	@DEBUG_VALUE: RUBICON_PrepareCommandPacket:ibuff <- $r4
	strb	r1, [r5, #8]
.Ltmp619:
	@DEBUG_VALUE: RUBICON_PrepareCommandPacket:i <- $r0
	movs	r1, #0
.Ltmp620:
	.loc	2 2902 3 is_stmt 1      @ ../Application/hotel_room_controller.c:2902:3
	cmp	r0, #10
	.loc	2 2899 16               @ ../Application/hotel_room_controller.c:2899:16
	strh.w	r1, [r5, #9]
	.loc	2 2902 3                @ ../Application/hotel_room_controller.c:2902:3
	blo	.LBB6_63
.Ltmp621:
@ %bb.62:
	@DEBUG_VALUE: RUBICON_PrepareCommandPacket:i <- $r0
	@DEBUG_VALUE: RUBICON_PrepareCommandPacket:ibuff <- $r4
	.loc	2 0 3 is_stmt 0         @ ../Application/hotel_room_controller.c:0:3
	movw	r1, #52429
.Ltmp622:
	.loc	2 2904 4 is_stmt 1      @ ../Application/hotel_room_controller.c:2904:4
	subs	r0, #10
.Ltmp623:
	.loc	2 0 4 is_stmt 0         @ ../Application/hotel_room_controller.c:0:4
	movt	r1, #52428
	.loc	2 2904 4                @ ../Application/hotel_room_controller.c:2904:4
	umull	r1, r2, r0, r1
	movs	r1, #1
.Ltmp624:
	@DEBUG_VALUE: RUBICON_PrepareCommandPacket:i <- undef
	add.w	r1, r1, r2, lsr #3
	strb	r1, [r5, #9]
	movs	r1, #49
.Ltmp625:
	.loc	2 2902 3 is_stmt 1      @ ../Application/hotel_room_controller.c:2902:3
	add.w	r1, r1, r2, lsr #3
.Ltmp626:
	.loc	2 2904 4                @ ../Application/hotel_room_controller.c:2904:4
	lsrs	r2, r2, #3
	add.w	r2, r2, r2, lsl #2
	sub.w	r0, r0, r2, lsl #1
	b	.LBB6_64
.Ltmp627:
.LBB6_63:
	@DEBUG_VALUE: RUBICON_PrepareCommandPacket:i <- $r0
	@DEBUG_VALUE: RUBICON_PrepareCommandPacket:ibuff <- $r4
	.loc	2 0 4 is_stmt 0         @ ../Application/hotel_room_controller.c:0:4
	movs	r1, #48
.Ltmp628:
.LBB6_64:
	@DEBUG_VALUE: RUBICON_PrepareCommandPacket:ibuff <- $r4
	@DEBUG_VALUE: RUBICON_PrepareCommandPacket:i <- $r0
	.loc	2 2909 19 is_stmt 1     @ ../Application/hotel_room_controller.c:2909:19
	adds	r0, #48
.Ltmp629:
	.loc	2 2908 16               @ ../Application/hotel_room_controller.c:2908:16
	strb	r1, [r5, #9]
	.loc	2 2909 17               @ ../Application/hotel_room_controller.c:2909:17
	strb	r0, [r5, #10]
.Ltmp630:
	.p2align	2
.LBB6_65:                               @ =>This Inner Loop Header: Depth=1
	@DEBUG_VALUE: RUBICON_PrepareCommandPacket:ibuff <- $r4
	@DEBUG_VALUE: RUBICON_PrepareCommandPacket:ibuff <- $r4
	.loc	2 2910 9                @ ../Application/hotel_room_controller.c:2910:9
	ldrb	r0, [r4], #1
.Ltmp631:
	@DEBUG_VALUE: RUBICON_PrepareCommandPacket:ibuff <- $r4
	.loc	2 2910 3 is_stmt 0      @ ../Application/hotel_room_controller.c:2910:3
	cmp	r0, #0
	bne	.LBB6_65
.Ltmp632:
@ %bb.66:
	@DEBUG_VALUE: RUBICON_PrepareCommandPacket:ibuff <- $r4
	.loc	2 2912 7 is_stmt 1      @ ../Application/hotel_room_controller.c:2912:7
	mov	r0, r4
	bl	atoi
.Ltmp633:
	@DEBUG_VALUE: RUBICON_PrepareCommandPacket:i <- $r0
	.loc	2 2914 7                @ ../Application/hotel_room_controller.c:2914:7
	cmp	r0, #128
	ittt	hs
	movhs	r1, #79
.Ltmp634:
	.loc	2 2916 17               @ ../Application/hotel_room_controller.c:2916:17
	strbhs	r1, [r5, #7]
	.loc	2 2917 6                @ ../Application/hotel_room_controller.c:2917:6
	subhs	r0, #128
.Ltmp635:
	@DEBUG_VALUE: RUBICON_PrepareCommandPacket:i <- $r0
	.loc	2 0 6 is_stmt 0         @ ../Application/hotel_room_controller.c:0:6
	movs	r1, #0
.Ltmp636:
	.loc	2 2923 3 is_stmt 1      @ ../Application/hotel_room_controller.c:2923:3
	cmp	r0, #100
	.loc	2 2921 17               @ ../Application/hotel_room_controller.c:2921:17
	strb	r1, [r5, #13]
	.loc	2 2919 17               @ ../Application/hotel_room_controller.c:2919:17
	strh.w	r1, [r5, #11]
	.loc	2 2923 3                @ ../Application/hotel_room_controller.c:2923:3
	blo	.LBB6_68
.Ltmp637:
@ %bb.67:
	@DEBUG_VALUE: RUBICON_PrepareCommandPacket:i <- $r0
	@DEBUG_VALUE: RUBICON_PrepareCommandPacket:ibuff <- $r4
	.loc	2 0 3 is_stmt 0         @ ../Application/hotel_room_controller.c:0:3
	movw	r1, #34079
.Ltmp638:
	.loc	2 2925 4 is_stmt 1      @ ../Application/hotel_room_controller.c:2925:4
	subs	r0, #100
.Ltmp639:
	.loc	2 0 4 is_stmt 0         @ ../Application/hotel_room_controller.c:0:4
	mvn	r3, #99
	movt	r1, #20971
	.loc	2 2925 4                @ ../Application/hotel_room_controller.c:2925:4
	umull	r1, r2, r0, r1
	movs	r1, #1
.Ltmp640:
	@DEBUG_VALUE: RUBICON_PrepareCommandPacket:i <- undef
	add.w	r1, r1, r2, lsr #5
	strb	r1, [r5, #11]
	lsrs	r1, r2, #5
	mla	r0, r1, r3, r0
	movs	r1, #49
.Ltmp641:
	.loc	2 2923 3 is_stmt 1      @ ../Application/hotel_room_controller.c:2923:3
	add.w	r1, r1, r2, lsr #5
	b	.LBB6_69
.Ltmp642:
.LBB6_68:
	@DEBUG_VALUE: RUBICON_PrepareCommandPacket:i <- $r0
	@DEBUG_VALUE: RUBICON_PrepareCommandPacket:ibuff <- $r4
	.loc	2 0 3 is_stmt 0         @ ../Application/hotel_room_controller.c:0:3
	movs	r1, #48
.Ltmp643:
.LBB6_69:
	@DEBUG_VALUE: RUBICON_PrepareCommandPacket:ibuff <- $r4
	@DEBUG_VALUE: RUBICON_PrepareCommandPacket:i <- $r0
	.loc	2 2931 3 is_stmt 1      @ ../Application/hotel_room_controller.c:2931:3
	cmp	r0, #10
	.loc	2 2929 17               @ ../Application/hotel_room_controller.c:2929:17
	strb	r1, [r5, #11]
	.loc	2 2931 3                @ ../Application/hotel_room_controller.c:2931:3
	blo	.LBB6_71
.Ltmp644:
@ %bb.70:
	@DEBUG_VALUE: RUBICON_PrepareCommandPacket:i <- $r0
	@DEBUG_VALUE: RUBICON_PrepareCommandPacket:ibuff <- $r4
	.loc	2 0 3 is_stmt 0         @ ../Application/hotel_room_controller.c:0:3
	movw	r1, #52429
.Ltmp645:
	.loc	2 2933 4 is_stmt 1      @ ../Application/hotel_room_controller.c:2933:4
	subs	r0, #10
.Ltmp646:
	.loc	2 0 4 is_stmt 0         @ ../Application/hotel_room_controller.c:0:4
	movt	r1, #52428
	.loc	2 2933 4                @ ../Application/hotel_room_controller.c:2933:4
	umull	r1, r2, r0, r1
	movs	r1, #1
.Ltmp647:
	@DEBUG_VALUE: RUBICON_PrepareCommandPacket:i <- undef
	add.w	r1, r1, r2, lsr #3
	strb	r1, [r5, #12]
	movs	r1, #49
.Ltmp648:
	.loc	2 2931 3 is_stmt 1      @ ../Application/hotel_room_controller.c:2931:3
	add.w	r1, r1, r2, lsr #3
.Ltmp649:
	.loc	2 2933 4                @ ../Application/hotel_room_controller.c:2933:4
	lsrs	r2, r2, #3
	add.w	r2, r2, r2, lsl #2
	sub.w	r0, r0, r2, lsl #1
	b	.LBB6_72
.Ltmp650:
.LBB6_71:
	@DEBUG_VALUE: RUBICON_PrepareCommandPacket:i <- $r0
	@DEBUG_VALUE: RUBICON_PrepareCommandPacket:ibuff <- $r4
	.loc	2 0 4 is_stmt 0         @ ../Application/hotel_room_controller.c:0:4
	movs	r1, #48
.Ltmp651:
.LBB6_72:
	@DEBUG_VALUE: RUBICON_PrepareCommandPacket:ibuff <- $r4
	@DEBUG_VALUE: RUBICON_PrepareCommandPacket:i <- $r0
	.loc	2 2938 19 is_stmt 1     @ ../Application/hotel_room_controller.c:2938:19
	adds	r0, #48
.Ltmp652:
	.loc	2 2937 17               @ ../Application/hotel_room_controller.c:2937:17
	strb	r1, [r5, #12]
	.loc	2 2938 17               @ ../Application/hotel_room_controller.c:2938:17
	strb	r0, [r5, #13]
	b	.LBB6_74
.Ltmp653:
.LBB6_73:
	.loc	2 0 17 is_stmt 0        @ ../Application/hotel_room_controller.c:0:17
	movs	r0, #48
.Ltmp654:
	.loc	2 2832 17 is_stmt 1     @ ../Application/hotel_room_controller.c:2832:17
	strb	r0, [r5, #7]
	.loc	2 2831 17               @ ../Application/hotel_room_controller.c:2831:17
	strb	r1, [r5, #8]
.Ltmp655:
.LBB6_74:
	.loc	2 2976 22               @ ../Application/hotel_room_controller.c:2976:22
	ldrb	r2, [r5, #5]
.Ltmp656:
.LBB6_75:
	.loc	2 2974 27               @ ../Application/hotel_room_controller.c:2974:27
	movw	r0, :lower16:rs485_packet_checksum
	movs	r1, #0
	movt	r0, :upper16:rs485_packet_checksum
	strh	r1, [r0]
	movs	r0, #6
.Ltmp657:
	.loc	2 2976 35               @ ../Application/hotel_room_controller.c:2976:35
	uxtab	r0, r0, r2
.Ltmp658:
	@DEBUG_VALUE: RUBICON_PrepareCommandPacket:i <- 6
	.loc	2 2976 22 is_stmt 0     @ ../Application/hotel_room_controller.c:2976:22
	uxtb	r2, r2
	cbz	r2, .LBB6_80
@ %bb.76:
	.loc	2 0 22                  @ ../Application/hotel_room_controller.c:0:22
	mov	r1, r2
.LBB6_77:
	movs	r3, #6
	movs	r2, #0
	.p2align	2
.LBB6_78:                               @ =>This Inner Loop Header: Depth=1
.Ltmp659:
	@DEBUG_VALUE: RUBICON_PrepareCommandPacket:i <- $r3
	.loc	2 2978 34 is_stmt 1     @ ../Application/hotel_room_controller.c:2978:34
	ldrb	r4, [r5, r3]
.Ltmp660:
	.loc	2 2976 42               @ ../Application/hotel_room_controller.c:2976:42
	adds	r3, #1
.Ltmp661:
	@DEBUG_VALUE: RUBICON_PrepareCommandPacket:i <- $r3
	.loc	2 2976 5 is_stmt 0      @ ../Application/hotel_room_controller.c:2976:5
	cmp	r3, r0
.Ltmp662:
	.loc	2 2978 31 is_stmt 1     @ ../Application/hotel_room_controller.c:2978:31
	add	r2, r4
.Ltmp663:
	.loc	2 2976 5                @ ../Application/hotel_room_controller.c:2976:5
	blo	.LBB6_78
.Ltmp664:
@ %bb.79:
	@DEBUG_VALUE: RUBICON_PrepareCommandPacket:i <- $r3
	.loc	2 2978 31               @ ../Application/hotel_room_controller.c:2978:31
	movw	r3, :lower16:rs485_packet_checksum
.Ltmp665:
	movt	r3, :upper16:rs485_packet_checksum
	strh	r2, [r3]
	uxth	r3, r2
.Ltmp666:
	.loc	2 2976 5                @ ../Application/hotel_room_controller.c:2976:5
	lsrs	r3, r3, #8
	b	.LBB6_81
.Ltmp667:
.LBB6_80:
	.loc	2 0 5 is_stmt 0         @ ../Application/hotel_room_controller.c:0:5
	movs	r2, #0
	movs	r3, #0
.LBB6_81:
	.loc	2 2981 33 is_stmt 1     @ ../Application/hotel_room_controller.c:2981:33
	strb	r3, [r5, r0]
	.loc	2 2981 5 is_stmt 0      @ ../Application/hotel_room_controller.c:2981:5
	adds	r0, r5, r1
	movs	r1, #4
	.loc	2 2983 33 is_stmt 1     @ ../Application/hotel_room_controller.c:2983:33
	strb	r1, [r0, #8]
	.loc	2 2982 33               @ ../Application/hotel_room_controller.c:2982:33
	strb	r2, [r0, #7]
	.loc	2 2984 1                @ ../Application/hotel_room_controller.c:2984:1
	add	sp, #8
	pop	{r4, r5, r7, pc}
.Ltmp668:
.Lfunc_end6:
	.size	RUBICON_PrepareCommandPacket, .Lfunc_end6-RUBICON_PrepareCommandPacket
	.cfi_endproc
	.cantunwind
	.fnend
                                        @ -- End function
	.section	.text.RUBICON_PrepareLogUpdatePacket,"ax",%progbits
	.hidden	RUBICON_PrepareLogUpdatePacket @ -- Begin function RUBICON_PrepareLogUpdatePacket
	.globl	RUBICON_PrepareLogUpdatePacket
	.p2align	1
	.type	RUBICON_PrepareLogUpdatePacket,%function
	.code	16                      @ @RUBICON_PrepareLogUpdatePacket
	.thumb_func
RUBICON_PrepareLogUpdatePacket:
.Lfunc_begin7:
	.loc	2 3014 0                @ ../Application/hotel_room_controller.c:3014:0
	.fnstart
	.cfi_startproc
@ %bb.0:
	.loc	2 3015 33 prologue_end  @ ../Application/hotel_room_controller.c:3015:33
	movw	r0, :lower16:RUBICON_LogListTransfer
	movt	r0, :upper16:RUBICON_LogListTransfer
	ldrb	r1, [r0, #2]
.Ltmp669:
	.loc	2 3015 9 is_stmt 0      @ ../Application/hotel_room_controller.c:3015:9
	cmp	r1, #10
	ittt	hs
	movhs	r1, #30
.Ltmp670:
	.loc	2 3017 52 is_stmt 1     @ ../Application/hotel_room_controller.c:3017:52
	strbhs	r1, [r0]
.Ltmp671:
	.loc	2 3038 1                @ ../Application/hotel_room_controller.c:3038:1
	bxhs	lr
.Ltmp672:
	.loc	2 3020 38               @ ../Application/hotel_room_controller.c:3020:38
	ldrb	r0, [r0]
.Ltmp673:
	.loc	2 3020 14 is_stmt 0     @ ../Application/hotel_room_controller.c:3020:14
	cmp	r0, #31
	beq	.LBB7_3
@ %bb.1:
	cmp	r0, #32
	bne	.LBB7_5
@ %bb.2:
.Ltmp674:
	.loc	2 3026 22 is_stmt 1     @ ../Application/hotel_room_controller.c:3026:22
	movw	r1, :lower16:tx_buffer
	movs	r0, #211
	b	.LBB7_4
.Ltmp675:
.LBB7_3:
	.loc	2 3022 22               @ ../Application/hotel_room_controller.c:3022:22
	movw	r1, :lower16:tx_buffer
	movs	r0, #163
.Ltmp676:
.LBB7_4:
	.loc	2 0 0 is_stmt 0         @ ../Application/hotel_room_controller.c:0:0
	movt	r1, :upper16:tx_buffer
	strb	r0, [r1, #6]
	b	.LBB7_6
.Ltmp677:
.LBB7_5:
	.loc	2 3036 20 is_stmt 1     @ ../Application/hotel_room_controller.c:3036:20
	movw	r0, :lower16:tx_buffer
	movt	r0, :upper16:tx_buffer
	ldrb	r0, [r0, #6]
.LBB7_6:
	.loc	2 3029 18               @ ../Application/hotel_room_controller.c:3029:18
	movw	r1, :lower16:tx_buffer
	movs	r2, #1
	movs	r3, #4
	movt	r1, :upper16:tx_buffer
	strb	r2, [r1]
	.loc	2 3037 18               @ ../Application/hotel_room_controller.c:3037:18
	strb	r3, [r1, #9]
	.loc	2 3036 18               @ ../Application/hotel_room_controller.c:3036:18
	strb	r0, [r1, #8]
	movs	r0, #0
	.loc	2 3035 18               @ ../Application/hotel_room_controller.c:3035:18
	strb	r0, [r1, #7]
	.loc	2 3030 20               @ ../Application/hotel_room_controller.c:3030:20
	movw	r0, :lower16:rs485_rubicon_address
	.loc	2 3034 18               @ ../Application/hotel_room_controller.c:3034:18
	strb	r2, [r1, #5]
	.loc	2 3032 20               @ ../Application/hotel_room_controller.c:3032:20
	movw	r2, :lower16:rs485_interface_address
	.loc	2 3030 20               @ ../Application/hotel_room_controller.c:3030:20
	movt	r0, :upper16:rs485_rubicon_address
	.loc	2 3032 20               @ ../Application/hotel_room_controller.c:3032:20
	movt	r2, :upper16:rs485_interface_address
	.loc	2 3030 20               @ ../Application/hotel_room_controller.c:3030:20
	ldrh	r0, [r0]
	.loc	2 3032 20               @ ../Application/hotel_room_controller.c:3032:20
	ldrh	r2, [r2]
	.loc	2 3031 18               @ ../Application/hotel_room_controller.c:3031:18
	strb	r0, [r1, #2]
	.loc	2 3030 42               @ ../Application/hotel_room_controller.c:3030:42
	lsrs	r0, r0, #8
	.loc	2 3033 18               @ ../Application/hotel_room_controller.c:3033:18
	strb	r2, [r1, #4]
	.loc	2 3030 18               @ ../Application/hotel_room_controller.c:3030:18
	strb	r0, [r1, #1]
	.loc	2 3032 44               @ ../Application/hotel_room_controller.c:3032:44
	lsrs	r0, r2, #8
	.loc	2 3032 18 is_stmt 0     @ ../Application/hotel_room_controller.c:3032:18
	strb	r0, [r1, #3]
	.loc	2 3038 1 is_stmt 1      @ ../Application/hotel_room_controller.c:3038:1
	bx	lr
.Ltmp678:
.Lfunc_end7:
	.size	RUBICON_PrepareLogUpdatePacket, .Lfunc_end7-RUBICON_PrepareLogUpdatePacket
	.cfi_endproc
	.cantunwind
	.fnend
                                        @ -- End function
	.section	.text.RUBICON_PrepareFileUpdatePacket,"ax",%progbits
	.hidden	RUBICON_PrepareFileUpdatePacket @ -- Begin function RUBICON_PrepareFileUpdatePacket
	.globl	RUBICON_PrepareFileUpdatePacket
	.p2align	2
	.type	RUBICON_PrepareFileUpdatePacket,%function
	.code	16                      @ @RUBICON_PrepareFileUpdatePacket
	.thumb_func
RUBICON_PrepareFileUpdatePacket:
.Lfunc_begin8:
	.loc	2 2671 0                @ ../Application/hotel_room_controller.c:2671:0
	.fnstart
	.cfi_startproc
@ %bb.0:
	.save	{r4, r5, r6, r7, lr}
	push	{r4, r5, r6, r7, lr}
	.cfi_def_cfa_offset 20
	.cfi_offset lr, -4
	.cfi_offset r7, -8
	.cfi_offset r6, -12
	.cfi_offset r5, -16
	.cfi_offset r4, -20
	.pad	#12
	sub	sp, #12
	.cfi_def_cfa_offset 32
.Ltmp679:
	.loc	2 2675 34 prologue_end  @ ../Application/hotel_room_controller.c:2675:34
	movw	r7, :lower16:RUBICON_FileUpdatePacket
	movt	r7, :upper16:RUBICON_FileUpdatePacket
	ldrb	r0, [r7, #2]
.Ltmp680:
	.loc	2 2675 9 is_stmt 0      @ ../Application/hotel_room_controller.c:2675:9
	cmp	r0, #10
	blo	.LBB8_2
@ %bb.1:
	.loc	2 0 9                   @ ../Application/hotel_room_controller.c:0:9
	movs	r0, #72
.Ltmp681:
	.loc	2 2677 47 is_stmt 1     @ ../Application/hotel_room_controller.c:2677:47
	strb	r0, [r7, #1]
	b	.LBB8_3
.Ltmp682:
.LBB8_2:
	.loc	2 2680 35               @ ../Application/hotel_room_controller.c:2680:35
	ldrb	r1, [r7, #1]
	.loc	2 2680 69 is_stmt 0     @ ../Application/hotel_room_controller.c:2680:69
	sub.w	r0, r1, #71
	cmp	r0, #1
	bhi	.LBB8_4
.LBB8_3:
.Ltmp683:
	.loc	2 2683 3 is_stmt 1      @ ../Application/hotel_room_controller.c:2683:3
	bl	UpdateFileTransferDisplay
	movs	r0, #40
	.loc	2 2684 47               @ ../Application/hotel_room_controller.c:2684:47
	strb	r0, [r7, #1]
	.loc	2 2685 3                @ ../Application/hotel_room_controller.c:2685:3
	movw	r0, :lower16:file_SD
	movt	r0, :upper16:file_SD
	bl	f_close
	.loc	2 2686 3                @ ../Application/hotel_room_controller.c:2686:3
	movw	r1, :lower16:.L.str
	movs	r0, #0
	movs	r2, #0
	movt	r1, :upper16:.L.str
	bl	f_mount
	b	.LBB8_49
.Ltmp684:
.LBB8_4:
	.loc	2 2689 36               @ ../Application/hotel_room_controller.c:2689:36
	ldr	r0, [r7, #8]
.Ltmp685:
	.loc	2 2689 11 is_stmt 0     @ ../Application/hotel_room_controller.c:2689:11
	cbz	r0, .LBB8_10
@ %bb.5:
.Ltmp686:
	@DEBUG_VALUE: RUBICON_PrepareFileUpdatePacket:rd <- [DW_OP_deref] $sp
	.loc	2 2737 9 is_stmt 1      @ ../Application/hotel_room_controller.c:2737:9
	movw	r4, :lower16:tx_buffer
	movw	r0, :lower16:file_SD
	mov	r3, sp
	movs	r2, #64
	movt	r4, :upper16:tx_buffer
	movt	r0, :upper16:file_SD
	add.w	r1, r4, #8
	bl	f_read
	movs	r0, #2
	.loc	2 2739 25               @ ../Application/hotel_room_controller.c:2739:25
	ldrb.w	r1, [sp]
.Ltmp687:
	@DEBUG_VALUE: RUBICON_PrepareFileUpdatePacket:rd <- undef
	.loc	2 2738 16               @ ../Application/hotel_room_controller.c:2738:16
	strb	r0, [r4]
	.loc	2 2740 49               @ ../Application/hotel_room_controller.c:2740:49
	ldr	r0, [r7, #8]
	.loc	2 2739 24               @ ../Application/hotel_room_controller.c:2739:24
	adds	r1, #2
	.loc	2 2744 7                @ ../Application/hotel_room_controller.c:2744:7
	cmp	r0, #1
	.loc	2 2740 61               @ ../Application/hotel_room_controller.c:2740:61
	lsr.w	r2, r0, #8
	.loc	2 2741 22               @ ../Application/hotel_room_controller.c:2741:22
	strb	r0, [r4, #7]
	.loc	2 2739 22               @ ../Application/hotel_room_controller.c:2739:22
	strb	r1, [r4, #5]
	.loc	2 2740 22               @ ../Application/hotel_room_controller.c:2740:22
	strb	r2, [r4, #6]
	.loc	2 2744 7                @ ../Application/hotel_room_controller.c:2744:7
	bne.w	.LBB8_43
@ %bb.6:
	.loc	2 0 7 is_stmt 0         @ ../Application/hotel_room_controller.c:0:7
	mov.w	r0, #500
	movw	r2, #14464
	str	r0, [sp, #8]
	movs	r0, #0
	movt	r2, #1
.Ltmp688:
	.loc	2 101 19 is_stmt 1      @ ../Application/hotel_room_controller.c:101:19
	str	r0, [sp, #4]
.Ltmp689:
	.loc	2 103 26                @ ../Application/hotel_room_controller.c:103:26
	ldr	r0, [sp, #8]
	.loc	2 103 24 is_stmt 0      @ ../Application/hotel_room_controller.c:103:24
	muls	r0, r2, r0
	b	.LBB8_8
	.p2align	2
.LBB8_7:                                @   in Loop: Header=BB8_8 Depth=1
.Ltmp690:
	.loc	2 103 51                @ ../Application/hotel_room_controller.c:103:51
	ldr	r0, [sp, #4]
	subs	r0, #1
.Ltmp691:
.LBB8_8:                                @ =>This Inner Loop Header: Depth=1
	.loc	2 0 0                   @ ../Application/hotel_room_controller.c:0:0
	str	r0, [sp, #4]
.Ltmp692:
	.loc	2 103 34                @ ../Application/hotel_room_controller.c:103:34
	ldr	r0, [sp, #4]
.Ltmp693:
	.loc	2 103 5                 @ ../Application/hotel_room_controller.c:103:5
	cmp	r0, #0
	bne	.LBB8_7
.Ltmp694:
@ %bb.9:
	.loc	2 0 5                   @ ../Application/hotel_room_controller.c:0:5
	movs	r0, #1
	b	.LBB8_43
.LBB8_10:
.Ltmp695:
	.loc	2 2691 22 is_stmt 1     @ ../Application/hotel_room_controller.c:2691:22
	movw	r0, :lower16:tx_buffer
	movs	r2, #11
	movt	r0, :upper16:tx_buffer
	.loc	2 2692 22               @ ../Application/hotel_room_controller.c:2692:22
	strb	r2, [r0, #5]
	movs	r2, #1
	.loc	2 2691 22               @ ../Application/hotel_room_controller.c:2691:22
	strb	r2, [r0]
	.loc	2 2694 12               @ ../Application/hotel_room_controller.c:2694:12
	sub.w	r2, r1, #41
	cmp	r2, #28
	bhi	.LBB8_42
@ %bb.11:
	.loc	2 0 12 is_stmt 0        @ ../Application/hotel_room_controller.c:0:12
	movs	r1, #100
.LCPI8_0:
	tbb	[pc, r2]
@ %bb.12:
.LJTI8_0:
	.byte	(.LBB8_41-(.LCPI8_0+4))/2
	.byte	(.LBB8_13-(.LCPI8_0+4))/2
	.byte	(.LBB8_14-(.LCPI8_0+4))/2
	.byte	(.LBB8_15-(.LCPI8_0+4))/2
	.byte	(.LBB8_16-(.LCPI8_0+4))/2
	.byte	(.LBB8_17-(.LCPI8_0+4))/2
	.byte	(.LBB8_18-(.LCPI8_0+4))/2
	.byte	(.LBB8_19-(.LCPI8_0+4))/2
	.byte	(.LBB8_20-(.LCPI8_0+4))/2
	.byte	(.LBB8_21-(.LCPI8_0+4))/2
	.byte	(.LBB8_22-(.LCPI8_0+4))/2
	.byte	(.LBB8_23-(.LCPI8_0+4))/2
	.byte	(.LBB8_24-(.LCPI8_0+4))/2
	.byte	(.LBB8_25-(.LCPI8_0+4))/2
	.byte	(.LBB8_26-(.LCPI8_0+4))/2
	.byte	(.LBB8_27-(.LCPI8_0+4))/2
	.byte	(.LBB8_28-(.LCPI8_0+4))/2
	.byte	(.LBB8_29-(.LCPI8_0+4))/2
	.byte	(.LBB8_30-(.LCPI8_0+4))/2
	.byte	(.LBB8_31-(.LCPI8_0+4))/2
	.byte	(.LBB8_32-(.LCPI8_0+4))/2
	.byte	(.LBB8_33-(.LCPI8_0+4))/2
	.byte	(.LBB8_34-(.LCPI8_0+4))/2
	.byte	(.LBB8_35-(.LCPI8_0+4))/2
	.byte	(.LBB8_36-(.LCPI8_0+4))/2
	.byte	(.LBB8_37-(.LCPI8_0+4))/2
	.byte	(.LBB8_38-(.LCPI8_0+4))/2
	.byte	(.LBB8_39-(.LCPI8_0+4))/2
	.byte	(.LBB8_40-(.LCPI8_0+4))/2
	.p2align	1
.LBB8_13:
	movs	r1, #101
	b	.LBB8_41
.LBB8_14:
	movs	r1, #102
	b	.LBB8_41
.LBB8_15:
	movs	r1, #103
	b	.LBB8_41
.LBB8_16:
	movs	r1, #104
	b	.LBB8_41
.LBB8_17:
	movs	r1, #105
	b	.LBB8_41
.LBB8_18:
	movs	r1, #106
	b	.LBB8_41
.LBB8_19:
	movs	r1, #107
	b	.LBB8_41
.LBB8_20:
	movs	r1, #108
	b	.LBB8_41
.LBB8_21:
	movs	r1, #109
	b	.LBB8_41
.LBB8_22:
	movs	r1, #110
	b	.LBB8_41
.LBB8_23:
	movs	r1, #111
	b	.LBB8_41
.LBB8_24:
	movs	r1, #112
	b	.LBB8_41
.LBB8_25:
	movs	r1, #113
	b	.LBB8_41
.LBB8_26:
	movs	r1, #114
	b	.LBB8_41
.LBB8_27:
	movs	r1, #115
	b	.LBB8_41
.LBB8_28:
	movs	r1, #116
	b	.LBB8_41
.LBB8_29:
	movs	r1, #117
	b	.LBB8_41
.LBB8_30:
	movs	r1, #118
	b	.LBB8_41
.LBB8_31:
	movs	r1, #119
	b	.LBB8_41
.LBB8_32:
	movs	r1, #120
	b	.LBB8_41
.LBB8_33:
	movs	r1, #121
	b	.LBB8_41
.LBB8_34:
	movs	r1, #122
	b	.LBB8_41
.LBB8_35:
	movs	r1, #123
	b	.LBB8_41
.LBB8_36:
	movs	r1, #124
	b	.LBB8_41
.LBB8_37:
	movs	r1, #125
	b	.LBB8_41
.LBB8_38:
	movs	r1, #126
	b	.LBB8_41
.LBB8_39:
	movs	r1, #127
	b	.LBB8_41
.LBB8_40:
	movs	r1, #128
.LBB8_41:
.Ltmp696:
	strb	r1, [r0, #6]
.Ltmp697:
.LBB8_42:
	.loc	2 2726 31 is_stmt 1     @ ../Application/hotel_room_controller.c:2726:31
	movw	r2, :lower16:file_SD
	.loc	2 2730 20               @ ../Application/hotel_room_controller.c:2730:20
	movw	r3, :lower16:crc_32_file
	.loc	2 2724 49               @ ../Application/hotel_room_controller.c:2724:49
	ldr	r1, [r7, #4]
	.loc	2 2726 31               @ ../Application/hotel_room_controller.c:2726:31
	movt	r2, :upper16:file_SD
	.loc	2 2730 20               @ ../Application/hotel_room_controller.c:2730:20
	movt	r3, :upper16:crc_32_file
	.loc	2 2726 31               @ ../Application/hotel_room_controller.c:2726:31
	ldr	r2, [r2, #12]
	.loc	2 2730 20               @ ../Application/hotel_room_controller.c:2730:20
	ldr	r3, [r3]
	.loc	2 2725 22               @ ../Application/hotel_room_controller.c:2725:22
	strb	r1, [r0, #8]
	.loc	2 2724 62               @ ../Application/hotel_room_controller.c:2724:62
	lsrs	r1, r1, #8
	.loc	2 2729 17               @ ../Application/hotel_room_controller.c:2729:17
	strb	r2, [r0, #12]
	.loc	2 2733 17               @ ../Application/hotel_room_controller.c:2733:17
	strb	r3, [r0, #16]
	.loc	2 2724 22               @ ../Application/hotel_room_controller.c:2724:22
	strb	r1, [r0, #7]
	.loc	2 2728 40               @ ../Application/hotel_room_controller.c:2728:40
	lsrs	r1, r2, #8
	.loc	2 2728 17 is_stmt 0     @ ../Application/hotel_room_controller.c:2728:17
	strb	r1, [r0, #11]
	.loc	2 2727 40 is_stmt 1     @ ../Application/hotel_room_controller.c:2727:40
	lsrs	r1, r2, #16
	.loc	2 2727 17 is_stmt 0     @ ../Application/hotel_room_controller.c:2727:17
	strb	r1, [r0, #10]
	.loc	2 2726 39 is_stmt 1     @ ../Application/hotel_room_controller.c:2726:39
	lsrs	r1, r2, #24
	.loc	2 2726 16 is_stmt 0     @ ../Application/hotel_room_controller.c:2726:16
	strb	r1, [r0, #9]
	.loc	2 2732 32 is_stmt 1     @ ../Application/hotel_room_controller.c:2732:32
	lsrs	r1, r3, #8
	.loc	2 2732 17 is_stmt 0     @ ../Application/hotel_room_controller.c:2732:17
	strb	r1, [r0, #15]
	.loc	2 2731 32 is_stmt 1     @ ../Application/hotel_room_controller.c:2731:32
	lsrs	r1, r3, #16
	.loc	2 2731 17 is_stmt 0     @ ../Application/hotel_room_controller.c:2731:17
	strb	r1, [r0, #14]
	.loc	2 2730 32 is_stmt 1     @ ../Application/hotel_room_controller.c:2730:32
	lsrs	r1, r3, #24
	.loc	2 2730 17 is_stmt 0     @ ../Application/hotel_room_controller.c:2730:17
	strb	r1, [r0, #13]
	movs	r1, #11
	movs	r0, #0
.Ltmp698:
.LBB8_43:
	.loc	2 2747 20 is_stmt 1     @ ../Application/hotel_room_controller.c:2747:20
	movw	r3, :lower16:rs485_rubicon_address
	.loc	2 2749 20               @ ../Application/hotel_room_controller.c:2749:20
	movw	r4, :lower16:rs485_interface_address
	.loc	2 2752 27               @ ../Application/hotel_room_controller.c:2752:27
	movw	r12, :lower16:rs485_packet_checksum
	movs	r2, #0
	.loc	2 2747 20               @ ../Application/hotel_room_controller.c:2747:20
	movt	r3, :upper16:rs485_rubicon_address
	.loc	2 2749 20               @ ../Application/hotel_room_controller.c:2749:20
	movt	r4, :upper16:rs485_interface_address
	.loc	2 2752 27               @ ../Application/hotel_room_controller.c:2752:27
	movt	r12, :upper16:rs485_packet_checksum
	.loc	2 2747 20               @ ../Application/hotel_room_controller.c:2747:20
	ldrh	r5, [r3]
	.loc	2 2747 18 is_stmt 0     @ ../Application/hotel_room_controller.c:2747:18
	movw	r3, :lower16:tx_buffer
	.loc	2 2749 20 is_stmt 1     @ ../Application/hotel_room_controller.c:2749:20
	ldrh	r4, [r4]
	.loc	2 2752 27               @ ../Application/hotel_room_controller.c:2752:27
	strh.w	r2, [r12]
	.loc	2 2747 18               @ ../Application/hotel_room_controller.c:2747:18
	movt	r3, :upper16:tx_buffer
	.loc	2 2748 18               @ ../Application/hotel_room_controller.c:2748:18
	strb	r5, [r3, #2]
	.loc	2 2747 42               @ ../Application/hotel_room_controller.c:2747:42
	lsrs	r5, r5, #8
	.loc	2 2750 18               @ ../Application/hotel_room_controller.c:2750:18
	strb	r4, [r3, #4]
	.loc	2 2747 18               @ ../Application/hotel_room_controller.c:2747:18
	strb	r5, [r3, #1]
	.loc	2 2749 44               @ ../Application/hotel_room_controller.c:2749:44
	lsrs	r5, r4, #8
	.loc	2 2749 18 is_stmt 0     @ ../Application/hotel_room_controller.c:2749:18
	strb	r5, [r3, #3]
	movs	r5, #6
.Ltmp699:
	.loc	2 2754 35 is_stmt 1     @ ../Application/hotel_room_controller.c:2754:35
	uxtab	r4, r5, r1
.Ltmp700:
	@DEBUG_VALUE: RUBICON_PrepareFileUpdatePacket:i <- 6
	.loc	2 2754 22 is_stmt 0     @ ../Application/hotel_room_controller.c:2754:22
	uxtb	r1, r1
.Ltmp701:
	.loc	2 2754 5                @ ../Application/hotel_room_controller.c:2754:5
	cbz	r1, .LBB8_47
@ %bb.44:
	.loc	2 0 5                   @ ../Application/hotel_room_controller.c:0:5
	movs	r5, #6
	movs	r2, #0
	.p2align	2
.LBB8_45:                               @ =>This Inner Loop Header: Depth=1
.Ltmp702:
	@DEBUG_VALUE: RUBICON_PrepareFileUpdatePacket:i <- $r5
	.loc	2 2756 34 is_stmt 1     @ ../Application/hotel_room_controller.c:2756:34
	ldrb	r6, [r3, r5]
.Ltmp703:
	.loc	2 2754 42               @ ../Application/hotel_room_controller.c:2754:42
	adds	r5, #1
.Ltmp704:
	@DEBUG_VALUE: RUBICON_PrepareFileUpdatePacket:i <- $r5
	.loc	2 2754 5 is_stmt 0      @ ../Application/hotel_room_controller.c:2754:5
	cmp	r5, r4
.Ltmp705:
	.loc	2 2756 31 is_stmt 1     @ ../Application/hotel_room_controller.c:2756:31
	add	r2, r6
.Ltmp706:
	.loc	2 2754 5                @ ../Application/hotel_room_controller.c:2754:5
	blo	.LBB8_45
.Ltmp707:
@ %bb.46:
	@DEBUG_VALUE: RUBICON_PrepareFileUpdatePacket:i <- $r5
	.loc	2 2756 31               @ ../Application/hotel_room_controller.c:2756:31
	uxth	r6, r2
	strh.w	r2, [r12]
.Ltmp708:
	.loc	2 2754 5                @ ../Application/hotel_room_controller.c:2754:5
	lsrs	r5, r6, #8
.Ltmp709:
	.loc	2 0 5 is_stmt 0         @ ../Application/hotel_room_controller.c:0:5
	b	.LBB8_48
.Ltmp710:
.LBB8_47:
	movs	r5, #0
.LBB8_48:
	.loc	2 2759 33 is_stmt 1     @ ../Application/hotel_room_controller.c:2759:33
	strb	r5, [r3, r4]
	.loc	2 2759 5 is_stmt 0      @ ../Application/hotel_room_controller.c:2759:5
	add	r1, r3
	movs	r3, #4
	.loc	2 2761 33 is_stmt 1     @ ../Application/hotel_room_controller.c:2761:33
	strb	r3, [r1, #8]
	.loc	2 2760 33               @ ../Application/hotel_room_controller.c:2760:33
	strb	r2, [r1, #7]
	movs	r1, #100
	.loc	2 2763 65               @ ../Application/hotel_room_controller.c:2763:65
	muls	r0, r1, r0
	.loc	2 2763 99 is_stmt 0     @ ../Application/hotel_room_controller.c:2763:99
	ldr	r1, [r7, #4]
	.loc	2 2763 72               @ ../Application/hotel_room_controller.c:2763:72
	udiv	r1, r0, r1
	.loc	2 2763 24               @ ../Application/hotel_room_controller.c:2763:24
	movw	r0, :lower16:rubicon_file_progress
	movt	r0, :upper16:rubicon_file_progress
	str	r1, [r0]
	.loc	2 2764 19 is_stmt 1     @ ../Application/hotel_room_controller.c:2764:19
	movw	r0, :lower16:hPROGBAR_FileTransfer
	movt	r0, :upper16:hPROGBAR_FileTransfer
	ldr	r0, [r0]
	.loc	2 2764 2 is_stmt 0      @ ../Application/hotel_room_controller.c:2764:2
	bl	PROGBAR_SetValue
.LBB8_49:
	.loc	2 2765 1 is_stmt 1      @ ../Application/hotel_room_controller.c:2765:1
	add	sp, #12
	pop	{r4, r5, r6, r7, pc}
.Ltmp711:
.Lfunc_end8:
	.size	RUBICON_PrepareFileUpdatePacket, .Lfunc_end8-RUBICON_PrepareFileUpdatePacket
	.cfi_endproc
	.cantunwind
	.fnend
                                        @ -- End function
	.section	.text.RUBICON_CheckNewFirmwareFile,"ax",%progbits
	.hidden	RUBICON_CheckNewFirmwareFile @ -- Begin function RUBICON_CheckNewFirmwareFile
	.globl	RUBICON_CheckNewFirmwareFile
	.p2align	2
	.type	RUBICON_CheckNewFirmwareFile,%function
	.code	16                      @ @RUBICON_CheckNewFirmwareFile
	.thumb_func
RUBICON_CheckNewFirmwareFile:
.Lfunc_begin9:
	.loc	2 2062 0                @ ../Application/hotel_room_controller.c:2062:0
	.fnstart
	.cfi_startproc
@ %bb.0:
	.save	{r4, r5, r7, lr}
	push	{r4, r5, r7, lr}
	.cfi_def_cfa_offset 16
	.cfi_offset lr, -4
	.cfi_offset r7, -8
	.cfi_offset r5, -12
	.cfi_offset r4, -16
.Ltmp712:
	.loc	2 2063 6 prologue_end   @ ../Application/hotel_room_controller.c:2063:6
	movw	r0, :lower16:filesystem
	movw	r1, :lower16:.L.str
	movs	r2, #0
	movt	r0, :upper16:filesystem
	movt	r1, :upper16:.L.str
	bl	f_mount
.Ltmp713:
	.loc	2 2063 6 is_stmt 0      @ ../Application/hotel_room_controller.c:2063:6
	cbz	r0, .LBB9_2
@ %bb.1:
	.loc	2 0 6                   @ ../Application/hotel_room_controller.c:0:6
	movs	r4, #2
	b	.LBB9_7
.LBB9_2:
.Ltmp714:
	.loc	2 2068 6 is_stmt 1      @ ../Application/hotel_room_controller.c:2068:6
	movw	r0, :lower16:dir_1
	movw	r1, :lower16:.L.str.2
	movt	r0, :upper16:dir_1
	movt	r1, :upper16:.L.str.2
	bl	f_opendir
.Ltmp715:
	.loc	2 2068 6 is_stmt 0      @ ../Application/hotel_room_controller.c:2068:6
	cbz	r0, .LBB9_4
@ %bb.3:
.Ltmp716:
	.loc	2 2070 3 is_stmt 1      @ ../Application/hotel_room_controller.c:2070:3
	movw	r1, :lower16:.L.str
	movs	r0, #0
	movs	r2, #0
	movt	r1, :upper16:.L.str
	bl	f_mount
	movs	r4, #3
	b	.LBB9_7
.Ltmp717:
.LBB9_4:
	.loc	2 2074 6                @ ../Application/hotel_room_controller.c:2074:6
	movw	r5, :lower16:file_SD
	adr	r1, .LCPI9_0
	movs	r2, #1
	movs	r4, #1
	movt	r5, :upper16:file_SD
	mov	r0, r5
	bl	f_open
.Ltmp718:
	.loc	2 2074 6 is_stmt 0      @ ../Application/hotel_room_controller.c:2074:6
	cbz	r0, .LBB9_6
@ %bb.5:
.Ltmp719:
	.loc	2 2076 3 is_stmt 1      @ ../Application/hotel_room_controller.c:2076:3
	movw	r1, :lower16:.L.str
	movs	r0, #0
	movs	r2, #0
	movt	r1, :upper16:.L.str
	bl	f_mount
	movs	r4, #4
	b	.LBB9_7
.Ltmp720:
.LBB9_6:
	.loc	2 2080 29               @ ../Application/hotel_room_controller.c:2080:29
	movw	r0, :lower16:rubicon_ctrl_buffer
	movt	r0, :upper16:rubicon_ctrl_buffer
	bl	atoi
	.loc	2 2080 27 is_stmt 0     @ ../Application/hotel_room_controller.c:2080:27
	movw	r1, :lower16:rs485_rubicon_address
	movt	r1, :upper16:rs485_rubicon_address
	strh	r0, [r1]
	.loc	2 2083 47 is_stmt 1     @ ../Application/hotel_room_controller.c:2083:47
	movw	r0, :lower16:RUBICON_FirmwareUpdatePacket
	movs	r1, #0
	movt	r0, :upper16:RUBICON_FirmwareUpdatePacket
	.loc	2 2085 46               @ ../Application/hotel_room_controller.c:2085:46
	strd	r1, r1, [r0, #8]
	movs	r1, #17
	.loc	2 2083 47               @ ../Application/hotel_room_controller.c:2083:47
	strh.w	r1, [r0, #1]
	.loc	2 2094 2                @ ../Application/hotel_room_controller.c:2094:2
	movw	r1, :lower16:display_flags
	movt	r1, :upper16:display_flags
	ldr	r2, [r1]
	orr	r2, r2, #1
	str	r2, [r1]
	.loc	2 2087 58               @ ../Application/hotel_room_controller.c:2087:58
	ldr	r1, [r5, #12]
.Ltmp721:
	.loc	2 2089 52               @ ../Application/hotel_room_controller.c:2089:52
	bic	r2, r1, #63
.Ltmp722:
	.loc	2 2087 66               @ ../Application/hotel_room_controller.c:2087:66
	lsrs	r3, r1, #6
	.loc	2 2089 9                @ ../Application/hotel_room_controller.c:2089:9
	cmp	r2, r1
	it	lo
	addlo.w	r3, r4, r1, lsr #6
	.loc	2 0 0 is_stmt 0         @ ../Application/hotel_room_controller.c:0:0
	str	r3, [r0, #4]
.LBB9_7:
	.loc	2 2096 1 is_stmt 1      @ ../Application/hotel_room_controller.c:2096:1
	mov	r0, r4
	pop	{r4, r5, r7, pc}
.Ltmp723:
	.p2align	2
@ %bb.8:
	.loc	2 0 1 is_stmt 0         @ ../Application/hotel_room_controller.c:0:1
.LCPI9_0:
.L.str.9:
	.asciz	"NEW.BIN"
.Lfunc_end9:
	.size	RUBICON_CheckNewFirmwareFile, .Lfunc_end9-RUBICON_CheckNewFirmwareFile
	.cfi_endproc
	.cantunwind
	.fnend
                                        @ -- End function
	.section	.text.RUBICON_CheckNewImageFile,"ax",%progbits
	.hidden	RUBICON_CheckNewImageFile @ -- Begin function RUBICON_CheckNewImageFile
	.globl	RUBICON_CheckNewImageFile
	.p2align	2
	.type	RUBICON_CheckNewImageFile,%function
	.code	16                      @ @RUBICON_CheckNewImageFile
	.thumb_func
RUBICON_CheckNewImageFile:
.Lfunc_begin10:
	.loc	2 2099 0 is_stmt 1      @ ../Application/hotel_room_controller.c:2099:0
	.fnstart
	.cfi_startproc
@ %bb.0:
	.save	{r4, r5, r6, r7, r8, r9, r10, r11, lr}
	push.w	{r4, r5, r6, r7, r8, r9, r10, r11, lr}
	.cfi_def_cfa_offset 36
	.cfi_offset lr, -4
	.cfi_offset r11, -8
	.cfi_offset r10, -12
	.cfi_offset r9, -16
	.cfi_offset r8, -20
	.cfi_offset r7, -24
	.cfi_offset r6, -28
	.cfi_offset r5, -32
	.cfi_offset r4, -36
	.pad	#36
	sub	sp, #36
	.cfi_def_cfa_offset 72
.Ltmp724:
	.loc	2 2105 6 prologue_end   @ ../Application/hotel_room_controller.c:2105:6
	movw	r0, :lower16:filesystem
	movw	r1, :lower16:.L.str
	movs	r2, #0
	movs	r4, #0
	movt	r0, :upper16:filesystem
	movt	r1, :upper16:.L.str
	bl	f_mount
.Ltmp725:
	.loc	2 2105 6 is_stmt 0      @ ../Application/hotel_room_controller.c:2105:6
	cbz	r0, .LBB10_2
@ %bb.1:
	.loc	2 0 6                   @ ../Application/hotel_room_controller.c:0:6
	movs	r4, #2
	b	.LBB10_44
.LBB10_2:
.Ltmp726:
	.loc	2 2117 16 is_stmt 1     @ ../Application/hotel_room_controller.c:2117:16
	strd	r4, r4, [sp, #24]
	strd	r4, r4, [sp, #16]
	.loc	2 2118 21               @ ../Application/hotel_room_controller.c:2118:21
	strd	r4, r4, [sp, #8]
	strd	r4, r4, [sp]
.Ltmp727:
	@DEBUG_VALUE: RUBICON_CheckNewImageFile:i <- undef
	.loc	2 2126 26               @ ../Application/hotel_room_controller.c:2126:26
	movw	r4, :lower16:rubicon_ctrl_buffer
	movt	r4, :upper16:rubicon_ctrl_buffer
	mov	r0, r4
	bl	atoi
	.loc	2 2126 24 is_stmt 0     @ ../Application/hotel_room_controller.c:2126:24
	movw	r1, :lower16:rs485_rubicon_address
.Ltmp728:
	.loc	2 2129 30 is_stmt 1     @ ../Application/hotel_room_controller.c:2129:30
	movw	r10, :lower16:RUBICON_FileUpdatePacket
.Ltmp729:
	.loc	2 2126 24               @ ../Application/hotel_room_controller.c:2126:24
	movt	r1, :upper16:rs485_rubicon_address
.Ltmp730:
	.loc	2 2129 30               @ ../Application/hotel_room_controller.c:2129:30
	movt	r10, :upper16:RUBICON_FileUpdatePacket
.Ltmp731:
	.loc	2 2126 24               @ ../Application/hotel_room_controller.c:2126:24
	strh	r0, [r1]
.Ltmp732:
	.loc	2 2129 30               @ ../Application/hotel_room_controller.c:2129:30
	ldrb.w	r0, [r10]
.Ltmp733:
	.loc	2 2129 5 is_stmt 0      @ ../Application/hotel_room_controller.c:2129:5
	cmp	r0, #99
	bne	.LBB10_5
@ %bb.3:
.Ltmp734:
	.loc	2 2132 67 is_stmt 1     @ ../Application/hotel_room_controller.c:2132:67
	movw	r7, :lower16:rubicon_image_update_list_cnt
	.loc	2 2132 33 is_stmt 0     @ ../Application/hotel_room_controller.c:2132:33
	movw	r5, :lower16:rubicon_image_update_address_list
	movs	r6, #47
	add	r4, sp, #16
	.loc	2 2132 67               @ ../Application/hotel_room_controller.c:2132:67
	movt	r7, :upper16:rubicon_image_update_list_cnt
	.loc	2 2132 33               @ ../Application/hotel_room_controller.c:2132:33
	movt	r5, :upper16:rubicon_image_update_address_list
	.loc	2 2131 21 is_stmt 1     @ ../Application/hotel_room_controller.c:2131:21
	strb.w	r6, [sp]
	.loc	2 2132 67               @ ../Application/hotel_room_controller.c:2132:67
	ldrh	r0, [r7]
	.loc	2 2132 33 is_stmt 0     @ ../Application/hotel_room_controller.c:2132:33
	ldr	r1, [r5]
	ldrh.w	r1, [r1, r0, lsl #1]
	.loc	2 2132 3                @ ../Application/hotel_room_controller.c:2132:3
	mov	r0, r4
	bl	Int2Str
	.loc	2 2133 76 is_stmt 1     @ ../Application/hotel_room_controller.c:2133:76
	ldrh	r0, [r7]
	.loc	2 2133 42 is_stmt 0     @ ../Application/hotel_room_controller.c:2133:42
	ldr	r1, [r5]
	mov	r11, sp
	ldrh.w	r1, [r1, r0, lsl #1]
	.loc	2 2133 23               @ ../Application/hotel_room_controller.c:2133:23
	add.w	r0, r11, #1
	.loc	2 2133 3                @ ../Application/hotel_room_controller.c:2133:3
	bl	Int2Str
	.loc	2 2134 7 is_stmt 1      @ ../Application/hotel_room_controller.c:2134:7
	mov	r0, r4
	bl	strlen
	@DEBUG_VALUE: RUBICON_CheckNewImageFile:i <- undef
	.loc	2 2135 3                @ ../Application/hotel_room_controller.c:2135:3
	add	r0, r4
	.loc	2 2136 71               @ ../Application/hotel_room_controller.c:2136:71
	ldrh	r1, [r7]
	.loc	2 2136 37 is_stmt 0     @ ../Application/hotel_room_controller.c:2136:37
	ldr	r2, [r5]
	.loc	2 2135 18 is_stmt 1     @ ../Application/hotel_room_controller.c:2135:18
	strb	r6, [r0], #1
	.loc	2 2136 37               @ ../Application/hotel_room_controller.c:2136:37
	ldrh.w	r1, [r2, r1, lsl #1]
	.loc	2 2136 3 is_stmt 0      @ ../Application/hotel_room_controller.c:2136:3
	bl	Int2Str
	.loc	2 2137 7 is_stmt 1      @ ../Application/hotel_room_controller.c:2137:7
	mov	r0, r4
	bl	strlen
	@DEBUG_VALUE: RUBICON_CheckNewImageFile:i <- undef
	.loc	2 2140 62               @ ../Application/hotel_room_controller.c:2140:62
	movw	r8, :lower16:rubicon_file_update_list_cnt
	.loc	2 2138 3                @ ../Application/hotel_room_controller.c:2138:3
	add	r0, r4
	movs	r1, #95
	.loc	2 2140 37               @ ../Application/hotel_room_controller.c:2140:37
	movw	r9, :lower16:rubicon_file_update_list
	.loc	2 2140 62 is_stmt 0     @ ../Application/hotel_room_controller.c:2140:62
	movt	r8, :upper16:rubicon_file_update_list_cnt
	.loc	2 2138 18 is_stmt 1     @ ../Application/hotel_room_controller.c:2138:18
	strh	r1, [r0], #1
	.loc	2 2140 37               @ ../Application/hotel_room_controller.c:2140:37
	movt	r9, :upper16:rubicon_file_update_list
	.loc	2 2140 62 is_stmt 0     @ ../Application/hotel_room_controller.c:2140:62
	ldrh.w	r1, [r8]
	.loc	2 2140 37               @ ../Application/hotel_room_controller.c:2140:37
	ldrb.w	r1, [r9, r1]
	.loc	2 2140 3                @ ../Application/hotel_room_controller.c:2140:3
	bl	Int2Str
	.loc	2 2141 7 is_stmt 1      @ ../Application/hotel_room_controller.c:2141:7
	mov	r0, r4
	bl	strlen
	mov	r6, r0
.Ltmp735:
	@DEBUG_VALUE: RUBICON_CheckNewImageFile:i <- $r6
	.loc	2 2143 7                @ ../Application/hotel_room_controller.c:2143:7
	movw	r0, :lower16:dir_1
	mov	r1, r11
	movt	r0, :upper16:dir_1
	bl	f_opendir
.Ltmp736:
	.loc	2 2143 7 is_stmt 0      @ ../Application/hotel_room_controller.c:2143:7
	cmp	r0, #0
	beq	.LBB10_16
.Ltmp737:
@ %bb.4:
	@DEBUG_VALUE: RUBICON_CheckNewImageFile:i <- $r6
	.loc	2 2145 4 is_stmt 1      @ ../Application/hotel_room_controller.c:2145:4
	movw	r1, :lower16:.L.str
	movs	r0, #0
	movs	r2, #0
	movt	r1, :upper16:.L.str
	bl	f_mount
	movs	r4, #3
	b	.LBB10_44
.Ltmp738:
.LBB10_5:
	.loc	2 0 4 is_stmt 0         @ ../Application/hotel_room_controller.c:0:4
	movs	r0, #0
	.p2align	2
.LBB10_6:                               @ =>This Inner Loop Header: Depth=1
.Ltmp739:
	@DEBUG_VALUE: RUBICON_CheckNewImageFile:k <- $r0
	.loc	2 2167 7 is_stmt 1      @ ../Application/hotel_room_controller.c:2167:7
	ldrb	r1, [r4, r0]
	cbz	r1, .LBB10_8
.Ltmp740:
@ %bb.7:                                @   in Loop: Header=BB10_6 Depth=1
	@DEBUG_VALUE: RUBICON_CheckNewImageFile:k <- $r0
	.loc	2 2168 10               @ ../Application/hotel_room_controller.c:2168:10
	adds	r0, #1
.Ltmp741:
	@DEBUG_VALUE: RUBICON_CheckNewImageFile:k <- $r0
	.loc	2 2165 3                @ ../Application/hotel_room_controller.c:2165:3
	cmp.w	r0, #512
	blo	.LBB10_6
.Ltmp742:
.LBB10_8:
	@DEBUG_VALUE: RUBICON_CheckNewImageFile:k <- $r0
	@DEBUG_VALUE: RUBICON_CheckNewImageFile:k <- undef
	.loc	2 2172 6                @ ../Application/hotel_room_controller.c:2172:6
	add	r0, r4
	ldrb	r1, [r0, #1]
.Ltmp743:
	.loc	2 2172 6 is_stmt 0      @ ../Application/hotel_room_controller.c:2172:6
	subs	r1, #49
	cmp	r1, #8
	bhi.w	.LBB10_43
@ %bb.9:
	.loc	2 0 6                   @ ../Application/hotel_room_controller.c:0:6
.LCPI10_9:
	tbh	[pc, r1, lsl #1]
@ %bb.10:
.LJTI10_0:
	.short	(.LBB10_11-(.LCPI10_9+4))/2
	.short	(.LBB10_20-(.LCPI10_9+4))/2
	.short	(.LBB10_25-(.LCPI10_9+4))/2
	.short	(.LBB10_27-(.LCPI10_9+4))/2
	.short	(.LBB10_18-(.LCPI10_9+4))/2
	.short	(.LBB10_29-(.LCPI10_9+4))/2
	.short	(.LBB10_31-(.LCPI10_9+4))/2
	.short	(.LBB10_33-(.LCPI10_9+4))/2
	.short	(.LBB10_35-(.LCPI10_9+4))/2
	.p2align	1
.LBB10_11:
	@DEBUG_VALUE: RUBICON_CheckNewImageFile:k <- undef
.Ltmp744:
	.loc	2 2176 7 is_stmt 1      @ ../Application/hotel_room_controller.c:2176:7
	ldrb	r1, [r0, #2]
.Ltmp745:
	.loc	2 2176 7 is_stmt 0      @ ../Application/hotel_room_controller.c:2176:7
	sub.w	r0, r1, #48
	cmp	r0, #9
	bhi.w	.LBB10_46
@ %bb.12:
	.loc	2 0 7                   @ ../Application/hotel_room_controller.c:0:7
.LCPI10_10:
	tbh	[pc, r0, lsl #1]
@ %bb.13:
.LJTI10_2:
	.short	(.LBB10_14-(.LCPI10_10+4))/2
	.short	(.LBB10_52-(.LCPI10_10+4))/2
	.short	(.LBB10_54-(.LCPI10_10+4))/2
	.short	(.LBB10_56-(.LCPI10_10+4))/2
	.short	(.LBB10_58-(.LCPI10_10+4))/2
	.short	(.LBB10_60-(.LCPI10_10+4))/2
	.short	(.LBB10_62-(.LCPI10_10+4))/2
	.short	(.LBB10_64-(.LCPI10_10+4))/2
	.short	(.LBB10_66-(.LCPI10_10+4))/2
	.short	(.LBB10_68-(.LCPI10_10+4))/2
	.p2align	1
.LBB10_14:
.Ltmp746:
	.loc	2 2191 9 is_stmt 1      @ ../Application/hotel_room_controller.c:2191:9
	movw	r4, :lower16:.L.str.12
	movw	r0, :lower16:file_SD
	movs	r2, #1
	movt	r4, :upper16:.L.str.12
	movt	r0, :upper16:file_SD
	mov	r1, r4
	bl	f_open
.Ltmp747:
	.loc	2 2191 9 is_stmt 0      @ ../Application/hotel_room_controller.c:2191:9
	cmp	r0, #0
	bne.w	.LBB10_42
.Ltmp748:
@ %bb.15:
	.loc	2 0 9                   @ ../Application/hotel_room_controller.c:0:9
	movs	r0, #50
	b	.LBB10_88
.LBB10_16:
.Ltmp749:
	@DEBUG_VALUE: RUBICON_CheckNewImageFile:i <- $r6
	.loc	2 2149 12 is_stmt 1     @ ../Application/hotel_room_controller.c:2149:12
	adds	r5, r4, r6
	.loc	2 2149 3 is_stmt 0      @ ../Application/hotel_room_controller.c:2149:3
	mov	r0, r5
	bl	strlen
	movw	r1, #21038
.Ltmp750:
	.loc	2 2151 7 is_stmt 1      @ ../Application/hotel_room_controller.c:2151:7
	movs	r2, #1
	movt	r1, #22337
.Ltmp751:
	.loc	2 2149 3                @ ../Application/hotel_room_controller.c:2149:3
	str	r1, [r5, r0]
	add	r0, r5
	movs	r1, #0
	strb	r1, [r0, #4]
.Ltmp752:
	.loc	2 2151 7                @ ../Application/hotel_room_controller.c:2151:7
	movw	r0, :lower16:file_SD
	mov	r1, r4
	movt	r0, :upper16:file_SD
	bl	f_open
.Ltmp753:
	.loc	2 2151 7 is_stmt 0      @ ../Application/hotel_room_controller.c:2151:7
	cmp	r0, #0
	bne.w	.LBB10_42
.Ltmp754:
@ %bb.17:
	@DEBUG_VALUE: RUBICON_CheckNewImageFile:i <- $r6
	.loc	2 2153 88 is_stmt 1     @ ../Application/hotel_room_controller.c:2153:88
	ldrh.w	r0, [r8]
	.loc	2 2153 63 is_stmt 0     @ ../Application/hotel_room_controller.c:2153:63
	ldrb.w	r0, [r9, r0]
	.loc	2 2153 61               @ ../Application/hotel_room_controller.c:2153:61
	adds	r0, #40
	.loc	2 2153 42               @ ../Application/hotel_room_controller.c:2153:42
	strb.w	r0, [r10, #1]
	b	.LBB10_38
.Ltmp755:
.LBB10_18:
	.loc	2 2496 8 is_stmt 1      @ ../Application/hotel_room_controller.c:2496:8
	movw	r0, :lower16:file_SD
	adr.w	r1, .LCPI10_4
	movs	r2, #1
	movt	r0, :upper16:file_SD
	bl	f_open
.Ltmp756:
	.loc	2 2496 8 is_stmt 0      @ ../Application/hotel_room_controller.c:2496:8
	cmp	r0, #0
	bne.w	.LBB10_42
@ %bb.19:
	.loc	2 0 8                   @ ../Application/hotel_room_controller.c:0:8
	movs	r0, #45
.Ltmp757:
	.loc	2 2503 43 is_stmt 1     @ ../Application/hotel_room_controller.c:2503:43
	strb.w	r0, [r10, #1]
	movw	r0, #21038
	movt	r0, #22337
	.loc	2 2504 5                @ ../Application/hotel_room_controller.c:2504:5
	str	r0, [sp, #20]
	movw	r0, #19785
	movt	r0, #12615
	add.w	r0, r0, #67108864
	b	.LBB10_37
.Ltmp758:
.LBB10_20:
	@DEBUG_VALUE: RUBICON_CheckNewImageFile:k <- undef
	.loc	2 2324 7                @ ../Application/hotel_room_controller.c:2324:7
	ldrb	r1, [r0, #2]
.Ltmp759:
	.loc	2 2324 7 is_stmt 0      @ ../Application/hotel_room_controller.c:2324:7
	sub.w	r0, r1, #48
	cmp	r0, #9
	bhi.w	.LBB10_49
@ %bb.21:
	.loc	2 0 7                   @ ../Application/hotel_room_controller.c:0:7
.LCPI10_11:
	tbh	[pc, r0, lsl #1]
@ %bb.22:
.LJTI10_1:
	.short	(.LBB10_23-(.LCPI10_11+4))/2
	.short	(.LBB10_70-(.LCPI10_11+4))/2
	.short	(.LBB10_72-(.LCPI10_11+4))/2
	.short	(.LBB10_74-(.LCPI10_11+4))/2
	.short	(.LBB10_76-(.LCPI10_11+4))/2
	.short	(.LBB10_78-(.LCPI10_11+4))/2
	.short	(.LBB10_80-(.LCPI10_11+4))/2
	.short	(.LBB10_82-(.LCPI10_11+4))/2
	.short	(.LBB10_84-(.LCPI10_11+4))/2
	.short	(.LBB10_86-(.LCPI10_11+4))/2
	.p2align	1
.LBB10_23:
.Ltmp760:
	.loc	2 2339 9 is_stmt 1      @ ../Application/hotel_room_controller.c:2339:9
	movw	r4, :lower16:.L.str.23
	movw	r0, :lower16:file_SD
	movs	r2, #1
	movt	r4, :upper16:.L.str.23
	movt	r0, :upper16:file_SD
	mov	r1, r4
	bl	f_open
.Ltmp761:
	.loc	2 2339 9 is_stmt 0      @ ../Application/hotel_room_controller.c:2339:9
	cmp	r0, #0
	bne.w	.LBB10_42
.Ltmp762:
@ %bb.24:
	.loc	2 0 9                   @ ../Application/hotel_room_controller.c:0:9
	movs	r0, #60
	b	.LBB10_88
.LBB10_25:
.Ltmp763:
	.loc	2 2470 8 is_stmt 1      @ ../Application/hotel_room_controller.c:2470:8
	movw	r0, :lower16:file_SD
	adr.w	r1, .LCPI10_6
	movs	r2, #1
	movt	r0, :upper16:file_SD
	bl	f_open
.Ltmp764:
	.loc	2 2470 8 is_stmt 0      @ ../Application/hotel_room_controller.c:2470:8
	cmp	r0, #0
	bne.w	.LBB10_42
@ %bb.26:
	.loc	2 0 8                   @ ../Application/hotel_room_controller.c:0:8
	movs	r0, #43
.Ltmp765:
	.loc	2 2477 43 is_stmt 1     @ ../Application/hotel_room_controller.c:2477:43
	strb.w	r0, [r10, #1]
	movw	r0, #21038
	movt	r0, #22337
	.loc	2 2478 5                @ ../Application/hotel_room_controller.c:2478:5
	str	r0, [sp, #20]
	movw	r0, #19785
	movt	r0, #12615
	add.w	r0, r0, #33554432
	b	.LBB10_37
.Ltmp766:
.LBB10_27:
	.loc	2 2483 8                @ ../Application/hotel_room_controller.c:2483:8
	movw	r0, :lower16:file_SD
	adr.w	r1, .LCPI10_5
	movs	r2, #1
	movt	r0, :upper16:file_SD
	bl	f_open
.Ltmp767:
	.loc	2 2483 8 is_stmt 0      @ ../Application/hotel_room_controller.c:2483:8
	cmp	r0, #0
	bne.w	.LBB10_42
@ %bb.28:
	.loc	2 0 8                   @ ../Application/hotel_room_controller.c:0:8
	movs	r0, #44
.Ltmp768:
	.loc	2 2490 43 is_stmt 1     @ ../Application/hotel_room_controller.c:2490:43
	strb.w	r0, [r10, #1]
	movw	r0, #21038
	movt	r0, #22337
	.loc	2 2491 5                @ ../Application/hotel_room_controller.c:2491:5
	str	r0, [sp, #20]
	movw	r0, #19785
	movt	r0, #12615
	add.w	r0, r0, #50331648
	b	.LBB10_37
.Ltmp769:
.LBB10_29:
	.loc	2 2509 8                @ ../Application/hotel_room_controller.c:2509:8
	movw	r0, :lower16:file_SD
	adr.w	r1, .LCPI10_3
	movs	r2, #1
	movt	r0, :upper16:file_SD
	bl	f_open
.Ltmp770:
	.loc	2 2509 8 is_stmt 0      @ ../Application/hotel_room_controller.c:2509:8
	cmp	r0, #0
	bne.w	.LBB10_42
@ %bb.30:
	.loc	2 0 8                   @ ../Application/hotel_room_controller.c:0:8
	movs	r0, #46
.Ltmp771:
	.loc	2 2516 43 is_stmt 1     @ ../Application/hotel_room_controller.c:2516:43
	strb.w	r0, [r10, #1]
	movw	r0, #21038
	movt	r0, #22337
	.loc	2 2517 5                @ ../Application/hotel_room_controller.c:2517:5
	str	r0, [sp, #20]
	movw	r0, #19785
	movt	r0, #12615
	add.w	r0, r0, #83886080
	b	.LBB10_37
.Ltmp772:
.LBB10_31:
	.loc	2 2522 8                @ ../Application/hotel_room_controller.c:2522:8
	movw	r0, :lower16:file_SD
	adr.w	r1, .LCPI10_2
	movs	r2, #1
	movt	r0, :upper16:file_SD
	bl	f_open
.Ltmp773:
	.loc	2 2522 8 is_stmt 0      @ ../Application/hotel_room_controller.c:2522:8
	cmp	r0, #0
	bne	.LBB10_42
@ %bb.32:
	.loc	2 0 8                   @ ../Application/hotel_room_controller.c:0:8
	movs	r0, #47
.Ltmp774:
	.loc	2 2529 43 is_stmt 1     @ ../Application/hotel_room_controller.c:2529:43
	strb.w	r0, [r10, #1]
	movw	r0, #21038
	movt	r0, #22337
	.loc	2 2530 5                @ ../Application/hotel_room_controller.c:2530:5
	str	r0, [sp, #20]
	movw	r0, #19785
	movt	r0, #12615
	add.w	r0, r0, #100663296
	b	.LBB10_37
.Ltmp775:
.LBB10_33:
	.loc	2 2535 8                @ ../Application/hotel_room_controller.c:2535:8
	movw	r0, :lower16:file_SD
	adr.w	r1, .LCPI10_1
	movs	r2, #1
	movt	r0, :upper16:file_SD
	bl	f_open
.Ltmp776:
	.loc	2 2535 8 is_stmt 0      @ ../Application/hotel_room_controller.c:2535:8
	cmp	r0, #0
	bne	.LBB10_42
@ %bb.34:
	.loc	2 0 8                   @ ../Application/hotel_room_controller.c:0:8
	movs	r0, #48
.Ltmp777:
	.loc	2 2542 43 is_stmt 1     @ ../Application/hotel_room_controller.c:2542:43
	strb.w	r0, [r10, #1]
	movw	r0, #21038
	movt	r0, #22337
	.loc	2 2543 5                @ ../Application/hotel_room_controller.c:2543:5
	str	r0, [sp, #20]
	movw	r0, #19785
	movt	r0, #12615
	add.w	r0, r0, #117440512
	b	.LBB10_37
.Ltmp778:
.LBB10_35:
	.loc	2 2548 8                @ ../Application/hotel_room_controller.c:2548:8
	movw	r0, :lower16:file_SD
	adr.w	r1, .LCPI10_0
	movs	r2, #1
	movt	r0, :upper16:file_SD
	bl	f_open
.Ltmp779:
	.loc	2 2548 8 is_stmt 0      @ ../Application/hotel_room_controller.c:2548:8
	cmp	r0, #0
	bne	.LBB10_42
@ %bb.36:
	.loc	2 0 8                   @ ../Application/hotel_room_controller.c:0:8
	movs	r0, #49
.Ltmp780:
	.loc	2 2555 43 is_stmt 1     @ ../Application/hotel_room_controller.c:2555:43
	strb.w	r0, [r10, #1]
	movw	r0, #21038
	movt	r0, #22337
	.loc	2 2556 5                @ ../Application/hotel_room_controller.c:2556:5
	str	r0, [sp, #20]
	movw	r0, #19785
	movt	r0, #12615
	add.w	r0, r0, #134217728
.Ltmp781:
.LBB10_37:
	.loc	2 0 0 is_stmt 0         @ ../Application/hotel_room_controller.c:0:0
	str	r0, [sp, #16]
.Ltmp782:
.LBB10_38:
	.loc	2 2567 2 is_stmt 1      @ ../Application/hotel_room_controller.c:2567:2
	bl	CRC_ResetDR
	.loc	2 2568 14               @ ../Application/hotel_room_controller.c:2568:14
	movw	r7, :lower16:crc_32_file
	.loc	2 2572 63               @ ../Application/hotel_room_controller.c:2572:63
	movw	r4, :lower16:file_SD
	movs	r0, #0
	.loc	2 2568 14               @ ../Application/hotel_room_controller.c:2568:14
	movt	r7, :upper16:crc_32_file
	.loc	2 2572 63               @ ../Application/hotel_room_controller.c:2572:63
	movt	r4, :upper16:file_SD
	.loc	2 2570 42               @ ../Application/hotel_room_controller.c:2570:42
	str.w	r0, [r10, #16]
.Ltmp783:
	@DEBUG_VALUE: RUBICON_CheckNewImageFile:dr <- 0
	.loc	2 2569 5                @ ../Application/hotel_room_controller.c:2569:5
	str	r0, [sp, #32]
	.loc	2 2568 14               @ ../Application/hotel_room_controller.c:2568:14
	str	r0, [r7]
	.loc	2 2572 63               @ ../Application/hotel_room_controller.c:2572:63
	ldr	r0, [r4, #12]
	.loc	2 2572 2 is_stmt 0      @ ../Application/hotel_room_controller.c:2572:2
	cbz	r0, .LBB10_41
@ %bb.39:
	.loc	2 0 2                   @ ../Application/hotel_room_controller.c:0:2
	movw	r5, :lower16:rubicon_ctrl_buffer
	add	r6, sp, #32
	movt	r5, :upper16:rubicon_ctrl_buffer
	.p2align	2
.LBB10_40:                              @ =>This Inner Loop Header: Depth=1
.Ltmp784:
	@DEBUG_VALUE: RUBICON_CheckNewImageFile:dr <- [DW_OP_plus_uconst 32, DW_OP_deref] $sp
	.loc	2 2574 3 is_stmt 1      @ ../Application/hotel_room_controller.c:2574:3
	mov	r0, r4
	mov	r1, r5
	mov.w	r2, #512
	mov	r3, r6
	bl	f_read
	.loc	2 2575 43               @ ../Application/hotel_room_controller.c:2575:43
	ldr.w	r0, [r10, #16]
	.loc	2 2575 46 is_stmt 0     @ ../Application/hotel_room_controller.c:2575:46
	ldr	r1, [sp, #32]
.Ltmp785:
	@DEBUG_VALUE: RUBICON_CheckNewImageFile:dr <- $r1
	.loc	2 2575 43               @ ../Application/hotel_room_controller.c:2575:43
	add	r0, r1
	str.w	r0, [r10, #16]
	.loc	2 2576 17 is_stmt 1     @ ../Application/hotel_room_controller.c:2576:17
	mov	r0, r5
	bl	CRC_Calculate8
.Ltmp786:
	.loc	2 2576 15 is_stmt 0     @ ../Application/hotel_room_controller.c:2576:15
	str	r0, [r7]
.Ltmp787:
	.loc	2 2572 63 is_stmt 1     @ ../Application/hotel_room_controller.c:2572:63
	ldr	r0, [r4, #12]
	.loc	2 2572 33 is_stmt 0     @ ../Application/hotel_room_controller.c:2572:33
	ldr.w	r1, [r10, #16]
	.loc	2 2572 2                @ ../Application/hotel_room_controller.c:2572:2
	cmp	r1, r0
	bne	.LBB10_40
.LBB10_41:
	.loc	2 2582 2 is_stmt 1      @ ../Application/hotel_room_controller.c:2582:2
	movw	r5, :lower16:file_SD
	movt	r5, :upper16:file_SD
	mov	r0, r5
	bl	f_close
	add	r1, sp, #16
.Ltmp788:
	.loc	2 2584 6                @ ../Application/hotel_room_controller.c:2584:6
	mov	r0, r5
	movs	r2, #1
	movs	r4, #1
	bl	f_open
.Ltmp789:
	.loc	2 2584 6 is_stmt 0      @ ../Application/hotel_room_controller.c:2584:6
	cbz	r0, .LBB10_45
.LBB10_42:
	.loc	2 0 0                   @ ../Application/hotel_room_controller.c:0:0
	movw	r1, :lower16:.L.str
	movs	r0, #0
	movs	r2, #0
	movt	r1, :upper16:.L.str
	bl	f_mount
.LBB10_43:
	movs	r4, #4
.LBB10_44:
	.loc	2 2603 1 is_stmt 1      @ ../Application/hotel_room_controller.c:2603:1
	mov	r0, r4
	add	sp, #36
	pop.w	{r4, r5, r6, r7, r8, r9, r10, r11, pc}
.LBB10_45:
	.loc	2 2600 24               @ ../Application/hotel_room_controller.c:2600:24
	movw	r1, :lower16:rubicon_file_progress
	movs	r0, #0
	movt	r1, :upper16:rubicon_file_progress
	.loc	2 2591 42               @ ../Application/hotel_room_controller.c:2591:42
	strd	r0, r0, [r10, #8]
	.loc	2 2590 40               @ ../Application/hotel_room_controller.c:2590:40
	strb.w	r0, [r10, #2]
	.loc	2 2600 24               @ ../Application/hotel_room_controller.c:2600:24
	str	r0, [r1]
	.loc	2 2601 2                @ ../Application/hotel_room_controller.c:2601:2
	movw	r0, :lower16:display_flags
	movt	r0, :upper16:display_flags
	ldr	r1, [r0]
	orr	r1, r1, #1
	str	r1, [r0]
	.loc	2 2593 54               @ ../Application/hotel_room_controller.c:2593:54
	ldr	r0, [r5, #12]
.Ltmp790:
	.loc	2 2595 45               @ ../Application/hotel_room_controller.c:2595:45
	bic	r1, r0, #63
.Ltmp791:
	.loc	2 2593 62               @ ../Application/hotel_room_controller.c:2593:62
	lsrs	r2, r0, #6
	.loc	2 2595 6                @ ../Application/hotel_room_controller.c:2595:6
	cmp	r1, r0
	it	lo
	addlo.w	r2, r4, r0, lsr #6
	.loc	2 0 0 is_stmt 0         @ ../Application/hotel_room_controller.c:0:0
	str.w	r2, [r10, #4]
	b	.LBB10_44
.LBB10_46:
.Ltmp792:
	.loc	2 2176 7 is_stmt 1      @ ../Application/hotel_room_controller.c:2176:7
	cmp	r1, #0
	bne	.LBB10_38
@ %bb.47:
.Ltmp793:
	.loc	2 2178 9                @ ../Application/hotel_room_controller.c:2178:9
	movw	r0, :lower16:file_SD
	adr	r1, .LCPI10_8
	movs	r2, #1
	movt	r0, :upper16:file_SD
	bl	f_open
.Ltmp794:
	.loc	2 2178 9 is_stmt 0      @ ../Application/hotel_room_controller.c:2178:9
	cmp	r0, #0
	bne	.LBB10_42
@ %bb.48:
	.loc	2 0 9                   @ ../Application/hotel_room_controller.c:0:9
	movs	r0, #41
.Ltmp795:
	.loc	2 2185 44 is_stmt 1     @ ../Application/hotel_room_controller.c:2185:44
	strb.w	r0, [r10, #1]
	movw	r0, #21038
	movt	r0, #22337
	.loc	2 2186 6                @ ../Application/hotel_room_controller.c:2186:6
	str	r0, [sp, #20]
	movw	r0, #19785
	movt	r0, #12615
	b	.LBB10_37
.Ltmp796:
.LBB10_49:
	.loc	2 2324 7                @ ../Application/hotel_room_controller.c:2324:7
	cmp	r1, #0
	bne.w	.LBB10_38
@ %bb.50:
.Ltmp797:
	.loc	2 2326 9                @ ../Application/hotel_room_controller.c:2326:9
	movw	r0, :lower16:file_SD
	adr	r1, .LCPI10_7
	movs	r2, #1
	movt	r0, :upper16:file_SD
	bl	f_open
.Ltmp798:
	.loc	2 2326 9 is_stmt 0      @ ../Application/hotel_room_controller.c:2326:9
	cmp	r0, #0
	bne	.LBB10_42
@ %bb.51:
	.loc	2 0 9                   @ ../Application/hotel_room_controller.c:0:9
	movs	r0, #42
.Ltmp799:
	.loc	2 2333 44 is_stmt 1     @ ../Application/hotel_room_controller.c:2333:44
	strb.w	r0, [r10, #1]
	movw	r0, #21038
	movt	r0, #22337
	.loc	2 2334 6                @ ../Application/hotel_room_controller.c:2334:6
	str	r0, [sp, #20]
	movw	r0, #19785
	movt	r0, #12615
	add.w	r0, r0, #16777216
	b	.LBB10_37
.Ltmp800:
.LBB10_52:
	.loc	2 2204 9                @ ../Application/hotel_room_controller.c:2204:9
	movw	r4, :lower16:.L.str.13
	movw	r0, :lower16:file_SD
	movs	r2, #1
	movt	r4, :upper16:.L.str.13
	movt	r0, :upper16:file_SD
	mov	r1, r4
	bl	f_open
.Ltmp801:
	.loc	2 2204 9 is_stmt 0      @ ../Application/hotel_room_controller.c:2204:9
	cmp	r0, #0
	bne	.LBB10_42
.Ltmp802:
@ %bb.53:
	.loc	2 0 9                   @ ../Application/hotel_room_controller.c:0:9
	movs	r0, #51
	b	.LBB10_88
.LBB10_54:
.Ltmp803:
	.loc	2 2217 9 is_stmt 1      @ ../Application/hotel_room_controller.c:2217:9
	movw	r4, :lower16:.L.str.14
	movw	r0, :lower16:file_SD
	movs	r2, #1
	movt	r4, :upper16:.L.str.14
	movt	r0, :upper16:file_SD
	mov	r1, r4
	bl	f_open
.Ltmp804:
	.loc	2 2217 9 is_stmt 0      @ ../Application/hotel_room_controller.c:2217:9
	cmp	r0, #0
	bne.w	.LBB10_42
.Ltmp805:
@ %bb.55:
	.loc	2 0 9                   @ ../Application/hotel_room_controller.c:0:9
	movs	r0, #52
	b	.LBB10_88
.LBB10_56:
.Ltmp806:
	.loc	2 2230 9 is_stmt 1      @ ../Application/hotel_room_controller.c:2230:9
	movw	r4, :lower16:.L.str.15
	movw	r0, :lower16:file_SD
	movs	r2, #1
	movt	r4, :upper16:.L.str.15
	movt	r0, :upper16:file_SD
	mov	r1, r4
	bl	f_open
.Ltmp807:
	.loc	2 2230 9 is_stmt 0      @ ../Application/hotel_room_controller.c:2230:9
	cmp	r0, #0
	bne.w	.LBB10_42
.Ltmp808:
@ %bb.57:
	.loc	2 0 9                   @ ../Application/hotel_room_controller.c:0:9
	movs	r0, #53
	b	.LBB10_88
.LBB10_58:
.Ltmp809:
	.loc	2 2243 9 is_stmt 1      @ ../Application/hotel_room_controller.c:2243:9
	movw	r4, :lower16:.L.str.16
	movw	r0, :lower16:file_SD
	movs	r2, #1
	movt	r4, :upper16:.L.str.16
	movt	r0, :upper16:file_SD
	mov	r1, r4
	bl	f_open
.Ltmp810:
	.loc	2 2243 9 is_stmt 0      @ ../Application/hotel_room_controller.c:2243:9
	cmp	r0, #0
	bne.w	.LBB10_42
.Ltmp811:
@ %bb.59:
	.loc	2 0 9                   @ ../Application/hotel_room_controller.c:0:9
	movs	r0, #54
	b	.LBB10_88
.LBB10_60:
.Ltmp812:
	.loc	2 2256 9 is_stmt 1      @ ../Application/hotel_room_controller.c:2256:9
	movw	r4, :lower16:.L.str.17
	movw	r0, :lower16:file_SD
	movs	r2, #1
	movt	r4, :upper16:.L.str.17
	movt	r0, :upper16:file_SD
	mov	r1, r4
	bl	f_open
.Ltmp813:
	.loc	2 2256 9 is_stmt 0      @ ../Application/hotel_room_controller.c:2256:9
	cmp	r0, #0
	bne.w	.LBB10_42
.Ltmp814:
@ %bb.61:
	.loc	2 0 9                   @ ../Application/hotel_room_controller.c:0:9
	movs	r0, #55
	b	.LBB10_88
.LBB10_62:
.Ltmp815:
	.loc	2 2269 9 is_stmt 1      @ ../Application/hotel_room_controller.c:2269:9
	movw	r4, :lower16:.L.str.18
	movw	r0, :lower16:file_SD
	movs	r2, #1
	movt	r4, :upper16:.L.str.18
	movt	r0, :upper16:file_SD
	mov	r1, r4
	bl	f_open
.Ltmp816:
	.loc	2 2269 9 is_stmt 0      @ ../Application/hotel_room_controller.c:2269:9
	cmp	r0, #0
	bne.w	.LBB10_42
.Ltmp817:
@ %bb.63:
	.loc	2 0 9                   @ ../Application/hotel_room_controller.c:0:9
	movs	r0, #56
	b	.LBB10_88
.LBB10_64:
.Ltmp818:
	.loc	2 2282 9 is_stmt 1      @ ../Application/hotel_room_controller.c:2282:9
	movw	r4, :lower16:.L.str.19
	movw	r0, :lower16:file_SD
	movs	r2, #1
	movt	r4, :upper16:.L.str.19
	movt	r0, :upper16:file_SD
	mov	r1, r4
	bl	f_open
.Ltmp819:
	.loc	2 2282 9 is_stmt 0      @ ../Application/hotel_room_controller.c:2282:9
	cmp	r0, #0
	bne.w	.LBB10_42
.Ltmp820:
@ %bb.65:
	.loc	2 0 9                   @ ../Application/hotel_room_controller.c:0:9
	movs	r0, #57
	b	.LBB10_88
.LBB10_66:
.Ltmp821:
	.loc	2 2295 9 is_stmt 1      @ ../Application/hotel_room_controller.c:2295:9
	movw	r4, :lower16:.L.str.20
	movw	r0, :lower16:file_SD
	movs	r2, #1
	movt	r4, :upper16:.L.str.20
	movt	r0, :upper16:file_SD
	mov	r1, r4
	bl	f_open
.Ltmp822:
	.loc	2 2295 9 is_stmt 0      @ ../Application/hotel_room_controller.c:2295:9
	cmp	r0, #0
	bne.w	.LBB10_42
.Ltmp823:
@ %bb.67:
	.loc	2 0 9                   @ ../Application/hotel_room_controller.c:0:9
	movs	r0, #58
	b	.LBB10_88
.LBB10_68:
.Ltmp824:
	.loc	2 2308 9 is_stmt 1      @ ../Application/hotel_room_controller.c:2308:9
	movw	r4, :lower16:.L.str.21
	movw	r0, :lower16:file_SD
	movs	r2, #1
	movt	r4, :upper16:.L.str.21
	movt	r0, :upper16:file_SD
	mov	r1, r4
	bl	f_open
.Ltmp825:
	.loc	2 2308 9 is_stmt 0      @ ../Application/hotel_room_controller.c:2308:9
	cmp	r0, #0
	bne.w	.LBB10_42
.Ltmp826:
@ %bb.69:
	.loc	2 0 9                   @ ../Application/hotel_room_controller.c:0:9
	movs	r0, #59
	b	.LBB10_88
.LBB10_70:
.Ltmp827:
	.loc	2 2352 9 is_stmt 1      @ ../Application/hotel_room_controller.c:2352:9
	movw	r4, :lower16:.L.str.24
	movw	r0, :lower16:file_SD
	movs	r2, #1
	movt	r4, :upper16:.L.str.24
	movt	r0, :upper16:file_SD
	mov	r1, r4
	bl	f_open
.Ltmp828:
	.loc	2 2352 9 is_stmt 0      @ ../Application/hotel_room_controller.c:2352:9
	cmp	r0, #0
	bne.w	.LBB10_42
.Ltmp829:
@ %bb.71:
	.loc	2 0 9                   @ ../Application/hotel_room_controller.c:0:9
	movs	r0, #61
	b	.LBB10_88
.LBB10_72:
.Ltmp830:
	.loc	2 2365 9 is_stmt 1      @ ../Application/hotel_room_controller.c:2365:9
	movw	r4, :lower16:.L.str.25
	movw	r0, :lower16:file_SD
	movs	r2, #1
	movt	r4, :upper16:.L.str.25
	movt	r0, :upper16:file_SD
	mov	r1, r4
	bl	f_open
.Ltmp831:
	.loc	2 2365 9 is_stmt 0      @ ../Application/hotel_room_controller.c:2365:9
	cmp	r0, #0
	bne.w	.LBB10_42
.Ltmp832:
@ %bb.73:
	.loc	2 0 9                   @ ../Application/hotel_room_controller.c:0:9
	movs	r0, #62
	b	.LBB10_88
.LBB10_74:
.Ltmp833:
	.loc	2 2378 9 is_stmt 1      @ ../Application/hotel_room_controller.c:2378:9
	movw	r4, :lower16:.L.str.26
	movw	r0, :lower16:file_SD
	movs	r2, #1
	movt	r4, :upper16:.L.str.26
	movt	r0, :upper16:file_SD
	mov	r1, r4
	bl	f_open
.Ltmp834:
	.loc	2 2378 9 is_stmt 0      @ ../Application/hotel_room_controller.c:2378:9
	cmp	r0, #0
	bne.w	.LBB10_42
.Ltmp835:
@ %bb.75:
	.loc	2 0 9                   @ ../Application/hotel_room_controller.c:0:9
	movs	r0, #63
	b	.LBB10_88
.LBB10_76:
.Ltmp836:
	.loc	2 2391 9 is_stmt 1      @ ../Application/hotel_room_controller.c:2391:9
	movw	r4, :lower16:.L.str.27
	movw	r0, :lower16:file_SD
	movs	r2, #1
	movt	r4, :upper16:.L.str.27
	movt	r0, :upper16:file_SD
	mov	r1, r4
	bl	f_open
.Ltmp837:
	.loc	2 2391 9 is_stmt 0      @ ../Application/hotel_room_controller.c:2391:9
	cmp	r0, #0
	bne.w	.LBB10_42
.Ltmp838:
@ %bb.77:
	.loc	2 0 9                   @ ../Application/hotel_room_controller.c:0:9
	movs	r0, #64
	b	.LBB10_88
.LBB10_78:
.Ltmp839:
	.loc	2 2404 9 is_stmt 1      @ ../Application/hotel_room_controller.c:2404:9
	movw	r4, :lower16:.L.str.28
	movw	r0, :lower16:file_SD
	movs	r2, #1
	movt	r4, :upper16:.L.str.28
	movt	r0, :upper16:file_SD
	mov	r1, r4
	bl	f_open
.Ltmp840:
	.loc	2 2404 9 is_stmt 0      @ ../Application/hotel_room_controller.c:2404:9
	cmp	r0, #0
	bne.w	.LBB10_42
.Ltmp841:
@ %bb.79:
	.loc	2 0 9                   @ ../Application/hotel_room_controller.c:0:9
	movs	r0, #65
	b	.LBB10_88
.LBB10_80:
.Ltmp842:
	.loc	2 2417 9 is_stmt 1      @ ../Application/hotel_room_controller.c:2417:9
	movw	r4, :lower16:.L.str.29
	movw	r0, :lower16:file_SD
	movs	r2, #1
	movt	r4, :upper16:.L.str.29
	movt	r0, :upper16:file_SD
	mov	r1, r4
	bl	f_open
.Ltmp843:
	.loc	2 2417 9 is_stmt 0      @ ../Application/hotel_room_controller.c:2417:9
	cmp	r0, #0
	bne.w	.LBB10_42
.Ltmp844:
@ %bb.81:
	.loc	2 0 9                   @ ../Application/hotel_room_controller.c:0:9
	movs	r0, #66
	b	.LBB10_88
.LBB10_82:
.Ltmp845:
	.loc	2 2430 9 is_stmt 1      @ ../Application/hotel_room_controller.c:2430:9
	movw	r4, :lower16:.L.str.30
	movw	r0, :lower16:file_SD
	movs	r2, #1
	movt	r4, :upper16:.L.str.30
	movt	r0, :upper16:file_SD
	mov	r1, r4
	bl	f_open
.Ltmp846:
	.loc	2 2430 9 is_stmt 0      @ ../Application/hotel_room_controller.c:2430:9
	cmp	r0, #0
	bne.w	.LBB10_42
.Ltmp847:
@ %bb.83:
	.loc	2 0 9                   @ ../Application/hotel_room_controller.c:0:9
	movs	r0, #67
	b	.LBB10_88
.LBB10_84:
.Ltmp848:
	.loc	2 2443 9 is_stmt 1      @ ../Application/hotel_room_controller.c:2443:9
	movw	r4, :lower16:.L.str.31
	movw	r0, :lower16:file_SD
	movs	r2, #1
	movt	r4, :upper16:.L.str.31
	movt	r0, :upper16:file_SD
	mov	r1, r4
	bl	f_open
.Ltmp849:
	.loc	2 2443 9 is_stmt 0      @ ../Application/hotel_room_controller.c:2443:9
	cmp	r0, #0
	bne.w	.LBB10_42
.Ltmp850:
@ %bb.85:
	.loc	2 0 9                   @ ../Application/hotel_room_controller.c:0:9
	movs	r0, #68
	b	.LBB10_88
.LBB10_86:
.Ltmp851:
	.loc	2 2456 9 is_stmt 1      @ ../Application/hotel_room_controller.c:2456:9
	movw	r4, :lower16:.L.str.32
	movw	r0, :lower16:file_SD
	movs	r2, #1
	movt	r4, :upper16:.L.str.32
	movt	r0, :upper16:file_SD
	mov	r1, r4
	bl	f_open
.Ltmp852:
	.loc	2 2456 9 is_stmt 0      @ ../Application/hotel_room_controller.c:2456:9
	cmp	r0, #0
	bne.w	.LBB10_42
.Ltmp853:
@ %bb.87:
	.loc	2 0 9                   @ ../Application/hotel_room_controller.c:0:9
	movs	r0, #69
.LBB10_88:
	strb.w	r0, [r10, #1]
	ldr	r1, [r4, #4]
	ldr	r0, [r4]
	str	r1, [sp, #20]
	str	r0, [sp, #16]
	ldrb	r0, [r4, #8]
	strb.w	r0, [sp, #24]
	b	.LBB10_38
.Ltmp854:
	.p2align	2
@ %bb.89:
.LCPI10_0:
.L.str.39:
	.asciz	"IMG9.RAW\000\000\000"
.LCPI10_1:
.L.str.38:
	.asciz	"IMG8.RAW\000\000\000"
.LCPI10_2:
.L.str.37:
	.asciz	"IMG7.RAW\000\000\000"
.LCPI10_3:
.L.str.36:
	.asciz	"IMG6.RAW\000\000\000"
.LCPI10_4:
.L.str.35:
	.asciz	"IMG5.RAW\000\000\000"
.LCPI10_5:
.L.str.34:
	.asciz	"IMG4.RAW\000\000\000"
.LCPI10_6:
.L.str.33:
	.asciz	"IMG3.RAW\000\000\000"
.LCPI10_7:
.L.str.22:
	.asciz	"IMG2.RAW\000\000\000"
.LCPI10_8:
.L.str.11:
	.asciz	"IMG1.RAW\000\000\000"
.Lfunc_end10:
	.size	RUBICON_CheckNewImageFile, .Lfunc_end10-RUBICON_CheckNewImageFile
	.cfi_endproc
	.cantunwind
	.fnend
                                        @ -- End function
	.section	.text.RUBICON_PrepareRoomStatusRequestPacket,"ax",%progbits
	.hidden	RUBICON_PrepareRoomStatusRequestPacket @ -- Begin function RUBICON_PrepareRoomStatusRequestPacket
	.globl	RUBICON_PrepareRoomStatusRequestPacket
	.p2align	1
	.type	RUBICON_PrepareRoomStatusRequestPacket,%function
	.code	16                      @ @RUBICON_PrepareRoomStatusRequestPacket
	.thumb_func
RUBICON_PrepareRoomStatusRequestPacket:
.Lfunc_begin11:
	.loc	2 1812 0 is_stmt 1      @ ../Application/hotel_room_controller.c:1812:0
	.fnstart
	.cfi_startproc
@ %bb.0:
	.loc	2 1813 18 prologue_end  @ ../Application/hotel_room_controller.c:1813:18
	movw	r0, :lower16:tx_buffer
	movs	r1, #1
	.loc	2 1816 20               @ ../Application/hotel_room_controller.c:1816:20
	movw	r2, :lower16:rs485_interface_address
	.loc	2 1813 18               @ ../Application/hotel_room_controller.c:1813:18
	movt	r0, :upper16:tx_buffer
	.loc	2 1816 20               @ ../Application/hotel_room_controller.c:1816:20
	movt	r2, :upper16:rs485_interface_address
	.loc	2 1813 18               @ ../Application/hotel_room_controller.c:1813:18
	strb	r1, [r0]
	movs	r1, #4
	.loc	2 1816 20               @ ../Application/hotel_room_controller.c:1816:20
	ldrh	r2, [r2]
	.loc	2 1822 18               @ ../Application/hotel_room_controller.c:1822:18
	strb	r1, [r0, #9]
	movw	r1, #41217
	movt	r1, #41216
	.loc	2 1818 18               @ ../Application/hotel_room_controller.c:1818:18
	str.w	r1, [r0, #5]
	.loc	2 1814 20               @ ../Application/hotel_room_controller.c:1814:20
	movw	r1, :lower16:rs485_rubicon_address
	movt	r1, :upper16:rs485_rubicon_address
	ldrh	r1, [r1]
	.loc	2 1815 18               @ ../Application/hotel_room_controller.c:1815:18
	strb	r1, [r0, #2]
	.loc	2 1814 42               @ ../Application/hotel_room_controller.c:1814:42
	lsrs	r1, r1, #8
	.loc	2 1817 18               @ ../Application/hotel_room_controller.c:1817:18
	strb	r2, [r0, #4]
	.loc	2 1814 18               @ ../Application/hotel_room_controller.c:1814:18
	strb	r1, [r0, #1]
	.loc	2 1816 44               @ ../Application/hotel_room_controller.c:1816:44
	lsrs	r1, r2, #8
	.loc	2 1816 18 is_stmt 0     @ ../Application/hotel_room_controller.c:1816:18
	strb	r1, [r0, #3]
	.loc	2 1823 1 is_stmt 1      @ ../Application/hotel_room_controller.c:1823:1
	bx	lr
.Ltmp855:
.Lfunc_end11:
	.size	RUBICON_PrepareRoomStatusRequestPacket, .Lfunc_end11-RUBICON_PrepareRoomStatusRequestPacket
	.cfi_endproc
	.cantunwind
	.fnend
                                        @ -- End function
	.section	.text.RUBICON_GetNextAddress,"ax",%progbits
	.hidden	RUBICON_GetNextAddress  @ -- Begin function RUBICON_GetNextAddress
	.globl	RUBICON_GetNextAddress
	.p2align	1
	.type	RUBICON_GetNextAddress,%function
	.code	16                      @ @RUBICON_GetNextAddress
	.thumb_func
RUBICON_GetNextAddress:
.Lfunc_begin12:
	.loc	2 1581 0                @ ../Application/hotel_room_controller.c:1581:0
	.fnstart
	.cfi_startproc
@ %bb.0:
	.save	{r4, lr}
	push	{r4, lr}
	.cfi_def_cfa_offset 8
	.cfi_offset lr, -4
	.cfi_offset r4, -8
.Ltmp856:
	.loc	2 1586 44 prologue_end  @ ../Application/hotel_room_controller.c:1586:44
	movw	r0, :lower16:rubicon_address_list_cnt
	.loc	2 1586 23 is_stmt 0     @ ../Application/hotel_room_controller.c:1586:23
	movw	r2, :lower16:rubicon_address_list
	movt	r2, :upper16:rubicon_address_list
	.loc	2 1586 44               @ ../Application/hotel_room_controller.c:1586:44
	movt	r0, :upper16:rubicon_address_list_cnt
	ldrh	r1, [r0]
	.loc	2 1586 23               @ ../Application/hotel_room_controller.c:1586:23
	ldr	r2, [r2]
	ldrh.w	r4, [r2, r1, lsl #1]
.Ltmp857:
	@DEBUG_VALUE: RUBICON_GetNextAddress:current_address <- undef
	.loc	2 1588 5 is_stmt 1      @ ../Application/hotel_room_controller.c:1588:5
	adds	r1, #1
	strh	r1, [r0]
.Ltmp858:
	.loc	2 1590 9                @ ../Application/hotel_room_controller.c:1590:9
	uxth	r1, r1
	ldrh.w	r1, [r2, r1, lsl #1]
.Ltmp859:
	.loc	2 1590 9 is_stmt 0      @ ../Application/hotel_room_controller.c:1590:9
	cbz	r1, .LBB12_2
.LBB12_1:
	.loc	2 1612 5 is_stmt 1      @ ../Application/hotel_room_controller.c:1612:5
	mov	r0, r4
	pop	{r4, pc}
.LBB12_2:
.Ltmp860:
	.loc	2 1593 20               @ ../Application/hotel_room_controller.c:1593:20
	movw	r1, :lower16:rs485_bus_status
	movs	r2, #2
	movt	r1, :upper16:rs485_bus_status
	strb	r2, [r1]
	movs	r1, #0
	.loc	2 1592 34               @ ../Application/hotel_room_controller.c:1592:34
	strh	r1, [r0]
.Ltmp861:
	.loc	2 1595 6                @ ../Application/hotel_room_controller.c:1595:6
	movw	r0, :lower16:RUBICON_GetNextAddress.room_status_update_cycle_cnt
	movt	r0, :upper16:RUBICON_GetNextAddress.room_status_update_cycle_cnt
	ldrb	r2, [r0]
	adds	r2, #1
	strb	r2, [r0]
	uxtb	r2, r2
.Ltmp862:
	.loc	2 1595 6 is_stmt 0      @ ../Application/hotel_room_controller.c:1595:6
	cmp	r2, #10
	bne	.LBB12_5
@ %bb.3:
.Ltmp863:
	.loc	2 1597 33 is_stmt 1     @ ../Application/hotel_room_controller.c:1597:33
	strb	r1, [r0]
.Ltmp864:
	.loc	2 1599 8                @ ../Application/hotel_room_controller.c:1599:8
	movw	r0, :lower16:rubicon_flags
	movt	r0, :upper16:rubicon_flags
	ldr	r1, [r0]
.Ltmp865:
	.loc	2 1599 7 is_stmt 0      @ ../Application/hotel_room_controller.c:1599:7
	lsls	r1, r1, #25
	bmi	.LBB12_1
@ %bb.4:
.Ltmp866:
	.loc	2 1601 5 is_stmt 1      @ ../Application/hotel_room_controller.c:1601:5
	ldr	r1, [r0]
	orr	r1, r1, #64
	str	r1, [r0]
	.loc	2 1602 5                @ ../Application/hotel_room_controller.c:1602:5
	movw	r0, :lower16:rubiconJournal_1
	movs	r1, #128
	movt	r0, :upper16:rubiconJournal_1
	bl	ClearBuffer16
	b	.LBB12_1
.Ltmp867:
.LBB12_5:
	.loc	2 1605 11               @ ../Application/hotel_room_controller.c:1605:11
	movw	r0, :lower16:rubicon_flags
	movt	r0, :upper16:rubicon_flags
	ldr	r1, [r0]
.Ltmp868:
	.loc	2 1605 11 is_stmt 0     @ ../Application/hotel_room_controller.c:1605:11
	lsls	r1, r1, #25
	bpl	.LBB12_1
@ %bb.6:
.Ltmp869:
	.loc	2 1607 4 is_stmt 1      @ ../Application/hotel_room_controller.c:1607:4
	ldr	r1, [r0]
	orr	r1, r1, #256
	str	r1, [r0]
	.loc	2 1608 4                @ ../Application/hotel_room_controller.c:1608:4
	ldr	r1, [r0]
	bic	r1, r1, #64
	str	r1, [r0]
	b	.LBB12_1
.Ltmp870:
.Lfunc_end12:
	.size	RUBICON_GetNextAddress, .Lfunc_end12-RUBICON_GetNextAddress
	.cfi_endproc
	.cantunwind
	.fnend
                                        @ -- End function
	.section	.text.RUBICON_PrepareTimeUpdatePacket,"ax",%progbits
	.hidden	RUBICON_PrepareTimeUpdatePacket @ -- Begin function RUBICON_PrepareTimeUpdatePacket
	.globl	RUBICON_PrepareTimeUpdatePacket
	.p2align	1
	.type	RUBICON_PrepareTimeUpdatePacket,%function
	.code	16                      @ @RUBICON_PrepareTimeUpdatePacket
	.thumb_func
RUBICON_PrepareTimeUpdatePacket:
.Lfunc_begin13:
	.loc	2 1759 0                @ ../Application/hotel_room_controller.c:1759:0
	.fnstart
	.cfi_startproc
@ %bb.0:
	.save	{r4, r5, r6, lr}
	push	{r4, r5, r6, lr}
	.cfi_def_cfa_offset 16
	.cfi_offset lr, -4
	.cfi_offset r6, -8
	.cfi_offset r5, -12
	.cfi_offset r4, -16
.Ltmp871:
	.loc	2 1761 5 prologue_end   @ ../Application/hotel_room_controller.c:1761:5
	movw	r5, :lower16:RTC_Date
	movs	r0, #1
	movs	r6, #1
	movt	r5, :upper16:RTC_Date
	mov	r1, r5
	bl	RTC_GetDate
	.loc	2 1762 5                @ ../Application/hotel_room_controller.c:1762:5
	movw	r4, :lower16:RTC_Time
	movs	r0, #1
	movt	r4, :upper16:RTC_Time
	mov	r1, r4
	bl	RTC_GetTime
	.loc	2 1764 18               @ ../Application/hotel_room_controller.c:1764:18
	movw	r0, :lower16:tx_buffer
	movw	r1, #54541
	.loc	2 1767 20               @ ../Application/hotel_room_controller.c:1767:20
	movw	r2, :lower16:rs485_interface_address
	.loc	2 1771 30               @ ../Application/hotel_room_controller.c:1771:30
	ldrb	r3, [r5, #2]
	.loc	2 1764 18               @ ../Application/hotel_room_controller.c:1764:18
	movt	r0, :upper16:tx_buffer
	.loc	2 1767 20               @ ../Application/hotel_room_controller.c:1767:20
	movt	r2, :upper16:rs485_interface_address
	.loc	2 1764 18               @ ../Application/hotel_room_controller.c:1764:18
	strb	r6, [r0]
	.loc	2 1769 18               @ ../Application/hotel_room_controller.c:1769:18
	strh.w	r1, [r0, #5]
	.loc	2 1765 20               @ ../Application/hotel_room_controller.c:1765:20
	movw	r1, :lower16:rs485_rubicon_address
	.loc	2 1767 20               @ ../Application/hotel_room_controller.c:1767:20
	ldrh	r2, [r2]
	.loc	2 1775 31               @ ../Application/hotel_room_controller.c:1775:31
	ldrb	r6, [r5, #3]
	.loc	2 1765 20               @ ../Application/hotel_room_controller.c:1765:20
	movt	r1, :upper16:rs485_rubicon_address
	ldrh	r1, [r1]
	.loc	2 1766 18               @ ../Application/hotel_room_controller.c:1766:18
	strb	r1, [r0, #2]
	.loc	2 1765 42               @ ../Application/hotel_room_controller.c:1765:42
	lsrs	r1, r1, #8
	.loc	2 1768 18               @ ../Application/hotel_room_controller.c:1768:18
	strb	r2, [r0, #4]
	.loc	2 1765 18               @ ../Application/hotel_room_controller.c:1765:18
	strb	r1, [r0, #1]
	.loc	2 1767 44               @ ../Application/hotel_room_controller.c:1767:44
	lsrs	r1, r2, #8
	movs	r2, #3
	.loc	2 1767 18 is_stmt 0     @ ../Application/hotel_room_controller.c:1767:18
	strb	r1, [r0, #3]
	.loc	2 1773 30 is_stmt 1     @ ../Application/hotel_room_controller.c:1773:30
	ldrb	r1, [r5, #1]
	.loc	2 1771 39               @ ../Application/hotel_room_controller.c:1771:39
	lsrs	r5, r3, #4
	.loc	2 1772 47               @ ../Application/hotel_room_controller.c:1772:47
	bfi	r3, r2, #4, #28
