	.text
	.syntax unified
	.eabi_attribute	67, "2.09"	@ Tag_conformance
	.cpu	cortex-m4
	.eabi_attribute	6, 13	@ Tag_CPU_arch
	.eabi_attribute	7, 77	@ Tag_CPU_arch_profile
	.eabi_attribute	8, 0	@ Tag_ARM_ISA_use
	.eabi_attribute	9, 2	@ Tag_THUMB_ISA_use
	.fpu	fpv4-sp-d16
	.eabi_attribute	27, 1	@ Tag_ABI_HardFP_use
	.eabi_attribute	36, 1	@ Tag_FP_HP_extension
	.eabi_attribute	34, 1	@ Tag_CPU_unaligned_access
	.eabi_attribute	17, 1	@ Tag_ABI_PCS_GOT_use
	.eabi_attribute	20, 2	@ Tag_ABI_FP_denormal
	.eabi_attribute	21, 0	@ Tag_ABI_FP_exceptions
	.eabi_attribute	23, 1	@ Tag_ABI_FP_number_model
	.eabi_attribute	24, 1	@ Tag_ABI_align_needed
	.eabi_attribute	25, 1	@ Tag_ABI_align_preserved
	.eabi_attribute	28, 1	@ Tag_ABI_VFP_args
	.eabi_attribute	38, 1	@ Tag_ABI_FP_16bit_format
	.eabi_attribute	18, 2	@ Tag_ABI_PCS_wchar_t
	.eabi_attribute	26, 1	@ Tag_ABI_enum_size
	.eabi_attribute	14, 0	@ Tag_ABI_PCS_R9_use
	.file	"httpd.c"
	.file	1 "F:\\SkyDrive\\OtvoreniProjekti\\HotelSaplast\\fw\\KontrolerHotela\\HC070318\\Project" "../User/Http/httpd.c"
	.file	2 "F:\\SkyDrive\\OtvoreniProjekti\\HotelSaplast\\fw\\KontrolerHotela\\HC070318\\Project" "../Libraries/lwip-1.4.1/port/arch\\cc.h"
	.file	3 "F:\\SkyDrive\\OtvoreniProjekti\\HotelSaplast\\fw\\KontrolerHotela\\HC070318\\Project" "../User/Http/httpd.h"
	.file	4 "F:\\SkyDrive\\OtvoreniProjekti\\HotelSaplast\\fw\\KontrolerHotela\\HC070318\\Project" "../Libraries/lwip-1.4.1/src/include\\lwip/tcp.h"
	.file	5 "F:\\SkyDrive\\OtvoreniProjekti\\HotelSaplast\\fw\\KontrolerHotela\\HC070318\\Project" "../Libraries/lwip-1.4.1/src/include/ipv4\\lwip/ip_addr.h"
	.file	6 "F:\\SkyDrive\\OtvoreniProjekti\\HotelSaplast\\fw\\KontrolerHotela\\HC070318\\Project" "../Libraries/lwip-1.4.1/src/include\\lwip/err.h"
	.file	7 "F:\\SkyDrive\\OtvoreniProjekti\\HotelSaplast\\fw\\KontrolerHotela\\HC070318\\Project" "../Libraries/lwip-1.4.1/src/include\\lwip/pbuf.h"
	.file	8 "F:\\SkyDrive\\OtvoreniProjekti\\HotelSaplast\\fw\\KontrolerHotela\\HC070318\\Project" "../User/Http/fs.h"
	.file	9 "F:\\SkyDrive\\OtvoreniProjekti\\HotelSaplast\\fw\\KontrolerHotela\\HC070318\\Project" "../Libraries/lwip-1.4.1/src/include\\lwip/mem.h"
	.section	.text.httpd_init,"ax",%progbits
	.hidden	httpd_init              @ -- Begin function httpd_init
	.globl	httpd_init
	.p2align	1
	.type	httpd_init,%function
	.code	16                      @ @httpd_init
	.thumb_func
httpd_init:
.Lfunc_begin0:
	.loc	1 2401 0                @ ../User/Http/httpd.c:2401:0
	.fnstart
	.cfi_sections .debug_frame
	.cfi_startproc
@ %bb.0:
	.save	{r4, lr}
	push	{r4, lr}
	.cfi_def_cfa_offset 8
	.cfi_offset lr, -4
	.cfi_offset r4, -8
.Ltmp0:
	.loc	1 2405 5 prologue_end   @ ../User/Http/httpd.c:2405:5
	bl	httpd_ssi_init
	.loc	1 2409 5                @ ../User/Http/httpd.c:2409:5
	bl	httpd_cgi_init
.Ltmp1:
	.loc	1 2384 11               @ ../User/Http/httpd.c:2384:11
	bl	tcp_new
	.loc	1 2386 5                @ ../User/Http/httpd.c:2386:5
	movs	r1, #1
	.loc	1 2384 11               @ ../User/Http/httpd.c:2384:11
	mov	r4, r0
.Ltmp2:
	@DEBUG_VALUE: httpd_init_addr:pcb <- $r4
	.loc	1 2386 5                @ ../User/Http/httpd.c:2386:5
	bl	tcp_setprio
	.loc	1 2388 11               @ ../User/Http/httpd.c:2388:11
	movw	r1, :lower16:ip_addr_any
	mov	r0, r4
	movs	r2, #80
	movt	r1, :upper16:ip_addr_any
.Ltmp3:
	@DEBUG_VALUE: httpd_init_addr:local_addr <- $r1
	bl	tcp_bind
.Ltmp4:
	@DEBUG_VALUE: httpd_init_addr:err <- undef
	.loc	1 2390 11               @ ../User/Http/httpd.c:2390:11
	mov	r0, r4
	movs	r1, #255
	bl	tcp_listen_with_backlog
	.loc	1 2393 5                @ ../User/Http/httpd.c:2393:5
	mov	r1, r0
	.loc	1 2390 11               @ ../User/Http/httpd.c:2390:11
	mov	r4, r0
.Ltmp5:
	@DEBUG_VALUE: httpd_init_addr:pcb <- $r4
	.loc	1 2393 5                @ ../User/Http/httpd.c:2393:5
	bl	tcp_arg
	.loc	1 2394 5                @ ../User/Http/httpd.c:2394:5
	movw	r1, :lower16:http_accept
	mov	r0, r4
	movt	r1, :upper16:http_accept
	pop.w	{r4, lr}
.Ltmp6:
	b	tcp_accept
.Ltmp7:
.Lfunc_end0:
	.size	httpd_init, .Lfunc_end0-httpd_init
	.cfi_endproc
	.cantunwind
	.fnend
                                        @ -- End function
	.section	.text.http_set_ssi_handler,"ax",%progbits
	.hidden	http_set_ssi_handler    @ -- Begin function http_set_ssi_handler
	.globl	http_set_ssi_handler
	.p2align	1
	.type	http_set_ssi_handler,%function
	.code	16                      @ @http_set_ssi_handler
	.thumb_func
http_set_ssi_handler:
.Lfunc_begin1:
	.loc	1 2426 0                @ ../User/Http/httpd.c:2426:0
	.fnstart
	.cfi_startproc
@ %bb.0:
	@DEBUG_VALUE: http_set_ssi_handler:ssi_handler <- $r0
	@DEBUG_VALUE: http_set_ssi_handler:ssi_handler <- $r0
	@DEBUG_VALUE: http_set_ssi_handler:tags <- $r1
	@DEBUG_VALUE: http_set_ssi_handler:tags <- $r1
	@DEBUG_VALUE: http_set_ssi_handler:num_tags <- $r2
	@DEBUG_VALUE: http_set_ssi_handler:num_tags <- $r2
	.loc	1 2434 15 prologue_end  @ ../User/Http/httpd.c:2434:15
	movw	r3, :lower16:g_ppcTags
	movt	r3, :upper16:g_ppcTags
	str	r1, [r3]
	.loc	1 2433 21               @ ../User/Http/httpd.c:2433:21
	movw	r1, :lower16:g_pfnSSIHandler
.Ltmp8:
	movt	r1, :upper16:g_pfnSSIHandler
	str	r0, [r1]
	.loc	1 2435 16               @ ../User/Http/httpd.c:2435:16
	movw	r0, :lower16:g_iNumTags
.Ltmp9:
	movt	r0, :upper16:g_iNumTags
	str	r2, [r0]
	.loc	1 2436 1                @ ../User/Http/httpd.c:2436:1
	bx	lr
.Ltmp10:
.Lfunc_end1:
	.size	http_set_ssi_handler, .Lfunc_end1-http_set_ssi_handler
	.cfi_endproc
	.cantunwind
	.fnend
                                        @ -- End function
	.section	.text.http_set_cgi_handlers,"ax",%progbits
	.hidden	http_set_cgi_handlers   @ -- Begin function http_set_cgi_handlers
	.globl	http_set_cgi_handlers
	.p2align	1
	.type	http_set_cgi_handlers,%function
	.code	16                      @ @http_set_cgi_handlers
	.thumb_func
http_set_cgi_handlers:
.Lfunc_begin2:
	.loc	1 2449 0                @ ../User/Http/httpd.c:2449:0
	.fnstart
	.cfi_startproc
@ %bb.0:
	@DEBUG_VALUE: http_set_cgi_handlers:cgis <- $r0
	@DEBUG_VALUE: http_set_cgi_handlers:cgis <- $r0
	@DEBUG_VALUE: http_set_cgi_handlers:num_handlers <- $r1
	@DEBUG_VALUE: http_set_cgi_handlers:num_handlers <- $r1
	.loc	1 2454 16 prologue_end  @ ../User/Http/httpd.c:2454:16
	movw	r2, :lower16:g_iNumCGIs
	movt	r2, :upper16:g_iNumCGIs
	str	r1, [r2]
	.loc	1 2453 13               @ ../User/Http/httpd.c:2453:13
	movw	r1, :lower16:g_pCGIs
.Ltmp11:
	movt	r1, :upper16:g_pCGIs
	str	r0, [r1]
	.loc	1 2455 1                @ ../User/Http/httpd.c:2455:1
	bx	lr
.Ltmp12:
.Lfunc_end2:
	.size	http_set_cgi_handlers, .Lfunc_end2-http_set_cgi_handlers
	.cfi_endproc
	.cantunwind
	.fnend
                                        @ -- End function
	.section	.text.http_accept,"ax",%progbits
	.p2align	1               @ -- Begin function http_accept
	.type	http_accept,%function
	.code	16                      @ @http_accept
	.thumb_func
http_accept:
.Lfunc_begin3:
	.loc	1 2343 0                @ ../User/Http/httpd.c:2343:0
	.fnstart
	.cfi_startproc
@ %bb.0:
	.save	{r4, r5, r7, lr}
	push	{r4, r5, r7, lr}
	.cfi_def_cfa_offset 16
	.cfi_offset lr, -4
	.cfi_offset r7, -8
	.cfi_offset r5, -12
	.cfi_offset r4, -16
	@DEBUG_VALUE: http_accept:arg <- $r0
	@DEBUG_VALUE: http_accept:pcb <- $r1
	@DEBUG_VALUE: http_accept:err <- $r2
.Ltmp13:
	@DEBUG_VALUE: http_accept:lpcb <- $r0
	mov	r4, r1
.Ltmp14:
	@DEBUG_VALUE: http_accept:pcb <- $r4
	.loc	1 2352 5 prologue_end   @ ../User/Http/httpd.c:2352:5
	mov	r0, r1
.Ltmp15:
	movs	r1, #1
	bl	tcp_setprio
.Ltmp16:
	.loc	1 408 33                @ ../User/Http/httpd.c:408:33
	mov.w	r0, #700
	bl	mem_malloc
	.loc	1 410 9                 @ ../User/Http/httpd.c:410:9
	cbz	r0, .LBB3_2
.Ltmp17:
@ %bb.1:
	@DEBUG_VALUE: http_accept:pcb <- $r4
	.loc	1 413 9                 @ ../User/Http/httpd.c:413:9
	mov.w	r1, #700
.Ltmp18:
	.loc	1 0 0 is_stmt 0         @ ../User/Http/httpd.c:0:0
	mov	r5, r0
.Ltmp19:
	@DEBUG_VALUE: http_accept:hs <- $r5
	.loc	1 413 9                 @ ../User/Http/httpd.c:413:9
	bl	__aeabi_memclr4
.Ltmp20:
	.loc	1 2365 5 is_stmt 1      @ ../User/Http/httpd.c:2365:5
	mov	r0, r4
	mov	r1, r5
	bl	tcp_arg
	.loc	1 2368 5                @ ../User/Http/httpd.c:2368:5
	movw	r1, :lower16:http_recv
	mov	r0, r4
	movt	r1, :upper16:http_recv
	bl	tcp_recv
	.loc	1 2369 5                @ ../User/Http/httpd.c:2369:5
	movw	r1, :lower16:http_err
	mov	r0, r4
	movt	r1, :upper16:http_err
	bl	tcp_err
	.loc	1 2370 5                @ ../User/Http/httpd.c:2370:5
	movw	r1, :lower16:http_poll
	mov	r0, r4
	movs	r2, #4
	movt	r1, :upper16:http_poll
	bl	tcp_poll
	.loc	1 2371 5                @ ../User/Http/httpd.c:2371:5
	movw	r1, :lower16:http_sent
	mov	r0, r4
	movt	r1, :upper16:http_sent
	bl	tcp_sent
	movs	r0, #0
	b	.LBB3_3
.Ltmp21:
.LBB3_2:
	@DEBUG_VALUE: http_accept:pcb <- $r4
	.loc	1 0 5 is_stmt 0         @ ../User/Http/httpd.c:0:5
	movs	r0, #255
.Ltmp22:
.LBB3_3:
	@DEBUG_VALUE: http_accept:pcb <- $r4
	.loc	1 2374 1 is_stmt 1      @ ../User/Http/httpd.c:2374:1
	sxtb	r0, r0
	pop	{r4, r5, r7, pc}
.Ltmp23:
.Lfunc_end3:
	.size	http_accept, .Lfunc_end3-http_accept
	.cfi_endproc
	.cantunwind
	.fnend
                                        @ -- End function
	.section	.text.http_recv,"ax",%progbits
	.p2align	2               @ -- Begin function http_recv
	.type	http_recv,%function
	.code	16                      @ @http_recv
	.thumb_func
http_recv:
.Lfunc_begin4:
	.loc	1 2239 0                @ ../User/Http/httpd.c:2239:0
	.fnstart
	.cfi_startproc
@ %bb.0:
	.save	{r4, r5, r6, r7, r8, r9, r10, r11, lr}
	push.w	{r4, r5, r6, r7, r8, r9, r10, r11, lr}
	.cfi_def_cfa_offset 36
	.cfi_offset lr, -4
	.cfi_offset r11, -8
	.cfi_offset r10, -12
	.cfi_offset r9, -16
	.cfi_offset r8, -20
	.cfi_offset r7, -24
	.cfi_offset r6, -28
	.cfi_offset r5, -32
	.cfi_offset r4, -36
	.pad	#12
	sub	sp, #12
	.cfi_def_cfa_offset 48
	@DEBUG_VALUE: http_recv:arg <- $r0
	@DEBUG_VALUE: http_recv:pcb <- $r1
	@DEBUG_VALUE: http_recv:p <- $r2
	@DEBUG_VALUE: http_recv:err <- $r3
.Ltmp24:
	@DEBUG_VALUE: http_recv:hs <- $r0
	@DEBUG_VALUE: http_parse_request:hs <- $r0
	@DEBUG_VALUE: http_parse_request:p <- $r2
	@DEBUG_VALUE: http_find_file:hs <- $r0
	@DEBUG_VALUE: extract_uri_parameters:hs <- $r0
	@DEBUG_VALUE: http_init_file:hs <- $r0
	mov	r6, r2
.Ltmp25:
	@DEBUG_VALUE: http_parse_request:p <- $r6
	mov	r5, r1
	mov	r4, r0
.Ltmp26:
	@DEBUG_VALUE: http_recv:parsed <- -10
	@DEBUG_VALUE: http_init_file:hs <- $r4
	@DEBUG_VALUE: extract_uri_parameters:hs <- $r4
	@DEBUG_VALUE: http_find_file:hs <- $r4
	@DEBUG_VALUE: http_parse_request:hs <- $r4
	@DEBUG_VALUE: http_recv:hs <- $r4
	@DEBUG_VALUE: http_recv:err <- $r3
	@DEBUG_VALUE: http_recv:p <- $r6
	@DEBUG_VALUE: http_recv:pcb <- $r5
	@DEBUG_VALUE: http_recv:arg <- $r4
	.loc	1 2245 25 prologue_end  @ ../User/Http/httpd.c:2245:25
	cbz	r0, .LBB4_5
.Ltmp27:
@ %bb.1:
	@DEBUG_VALUE: http_recv:arg <- $r4
	@DEBUG_VALUE: http_recv:pcb <- $r5
	@DEBUG_VALUE: http_recv:p <- $r6
	@DEBUG_VALUE: http_recv:hs <- $r4
	@DEBUG_VALUE: http_recv:err <- $r3
	cbz	r6, .LBB4_5
.Ltmp28:
@ %bb.2:
	@DEBUG_VALUE: http_recv:arg <- $r4
	@DEBUG_VALUE: http_recv:pcb <- $r5
	@DEBUG_VALUE: http_recv:p <- $r6
	@DEBUG_VALUE: http_recv:hs <- $r4
	@DEBUG_VALUE: http_recv:err <- $r3
	cbnz	r3, .LBB4_5
.Ltmp29:
@ %bb.3:
	@DEBUG_VALUE: http_recv:arg <- $r4
	@DEBUG_VALUE: http_recv:pcb <- $r5
	@DEBUG_VALUE: http_recv:p <- $r6
	@DEBUG_VALUE: http_recv:hs <- $r4
	@DEBUG_VALUE: http_recv:err <- $r3
	.loc	1 2272 28               @ ../User/Http/httpd.c:2272:28
	ldrh	r1, [r6, #8]
	.loc	1 2272 9 is_stmt 0      @ ../User/Http/httpd.c:2272:9
	mov	r0, r5
	bl	tcp_recved
.Ltmp30:
	.loc	1 2293 17 is_stmt 1     @ ../User/Http/httpd.c:2293:17
	ldr	r0, [r4]
.Ltmp31:
	.loc	1 2293 13 is_stmt 0     @ ../User/Http/httpd.c:2293:13
	cbz	r0, .LBB4_7
.Ltmp32:
@ %bb.4:
	@DEBUG_VALUE: http_recv:arg <- $r4
	@DEBUG_VALUE: http_recv:pcb <- $r5
	@DEBUG_VALUE: http_recv:p <- $r6
	@DEBUG_VALUE: http_recv:hs <- $r4
	.loc	1 0 13                  @ ../User/Http/httpd.c:0:13
	mvn	r6, #9
.Ltmp33:
	b	.LBB4_9
.Ltmp34:
.LBB4_5:
	@DEBUG_VALUE: http_recv:arg <- $r4
	@DEBUG_VALUE: http_recv:pcb <- $r5
	@DEBUG_VALUE: http_recv:p <- $r6
	@DEBUG_VALUE: http_recv:hs <- $r4
	@DEBUG_VALUE: http_recv:err <- $r3
	.loc	1 2248 13 is_stmt 1     @ ../User/Http/httpd.c:2248:13
	cbz	r6, .LBB4_14
.Ltmp35:
@ %bb.6:
	@DEBUG_VALUE: http_recv:arg <- $r4
	@DEBUG_VALUE: http_recv:pcb <- $r5
	@DEBUG_VALUE: http_recv:p <- $r6
	@DEBUG_VALUE: http_recv:hs <- $r4
	@DEBUG_VALUE: http_recv:err <- $r3
	.loc	1 2251 32               @ ../User/Http/httpd.c:2251:32
	ldrh	r1, [r6, #8]
	.loc	1 2251 13 is_stmt 0     @ ../User/Http/httpd.c:2251:13
	mov	r0, r5
	bl	tcp_recved
.Ltmp36:
	.loc	1 2252 13 is_stmt 1     @ ../User/Http/httpd.c:2252:13
	mov	r0, r6
	bl	pbuf_free
	b	.LBB4_14
.Ltmp37:
.LBB4_7:
	@DEBUG_VALUE: http_recv:arg <- $r4
	@DEBUG_VALUE: http_recv:pcb <- $r5
	@DEBUG_VALUE: http_recv:p <- $r6
	@DEBUG_VALUE: http_recv:hs <- $r4
	@DEBUG_VALUE: http_parse_request:pcb <- undef
	.loc	1 1781 38               @ ../User/Http/httpd.c:1781:38
	ldr	r0, [r4, #4]
.Ltmp38:
	.loc	1 1781 9 is_stmt 0      @ ../User/Http/httpd.c:1781:9
	cbz	r0, .LBB4_16
.Ltmp39:
@ %bb.8:
	@DEBUG_VALUE: http_recv:arg <- $r4
	@DEBUG_VALUE: http_recv:pcb <- $r5
	@DEBUG_VALUE: http_recv:p <- $r6
	@DEBUG_VALUE: http_recv:hs <- $r4
	.loc	1 0 9                   @ ../User/Http/httpd.c:0:9
	mvn	r6, #7
.Ltmp40:
.LBB4_9:
	@DEBUG_VALUE: http_recv:arg <- $r4
	@DEBUG_VALUE: http_recv:pcb <- $r5
	@DEBUG_VALUE: http_recv:hs <- $r4
	.loc	1 2307 21 is_stmt 1     @ ../User/Http/httpd.c:2307:21
	ldr	r0, [r4, #8]
.Ltmp41:
	.loc	1 2307 17 is_stmt 0     @ ../User/Http/httpd.c:2307:17
	cbz	r0, .LBB4_11
.Ltmp42:
@ %bb.10:
	@DEBUG_VALUE: http_recv:arg <- $r4
	@DEBUG_VALUE: http_recv:pcb <- $r5
	@DEBUG_VALUE: http_recv:hs <- $r4
	.loc	1 2309 17 is_stmt 1     @ ../User/Http/httpd.c:2309:17
	bl	pbuf_free
	movs	r0, #0
	.loc	1 2310 25               @ ../User/Http/httpd.c:2310:25
	str	r0, [r4, #8]
.Ltmp43:
.LBB4_11:
	@DEBUG_VALUE: http_recv:arg <- $r4
	@DEBUG_VALUE: http_recv:pcb <- $r5
	@DEBUG_VALUE: http_recv:hs <- $r4
	.loc	1 2320 13               @ ../User/Http/httpd.c:2320:13
	adds.w	r0, r6, #14
	beq	.LBB4_14
.Ltmp44:
@ %bb.12:
	@DEBUG_VALUE: http_recv:arg <- $r4
	@DEBUG_VALUE: http_recv:pcb <- $r5
	@DEBUG_VALUE: http_recv:hs <- $r4
	cbnz	r6, .LBB4_15
.Ltmp45:
@ %bb.13:
	@DEBUG_VALUE: http_recv:arg <- $r4
	@DEBUG_VALUE: http_recv:pcb <- $r5
	@DEBUG_VALUE: http_recv:hs <- $r4
	.loc	1 2327 17               @ ../User/Http/httpd.c:2327:17
	mov	r0, r5
	mov	r1, r4
	bl	http_send_data
	b	.LBB4_15
.Ltmp46:
.LBB4_14:
	@DEBUG_VALUE: http_recv:arg <- $r4
	@DEBUG_VALUE: http_recv:pcb <- $r5
	@DEBUG_VALUE: http_recv:hs <- $r4
	.loc	1 0 0 is_stmt 0         @ ../User/Http/httpd.c:0:0
	mov	r0, r5
	mov	r1, r4
	bl	http_close_conn
.Ltmp47:
.LBB4_15:
	@DEBUG_VALUE: http_recv:arg <- $r4
	@DEBUG_VALUE: http_recv:pcb <- $r5
	@DEBUG_VALUE: http_recv:hs <- $r4
	.loc	1 2337 1 is_stmt 1      @ ../User/Http/httpd.c:2337:1
	movs	r0, #0
	add	sp, #12
	pop.w	{r4, r5, r6, r7, r8, r9, r10, r11, pc}
.Ltmp48:
.LBB4_16:
	@DEBUG_VALUE: http_recv:arg <- $r4
	@DEBUG_VALUE: http_recv:pcb <- $r5
	@DEBUG_VALUE: http_recv:p <- $r6
	@DEBUG_VALUE: http_recv:hs <- $r4
	.loc	1 1796 13               @ ../User/Http/httpd.c:1796:13
	ldr	r0, [r4, #8]
.Ltmp49:
	.loc	1 1796 9 is_stmt 0      @ ../User/Http/httpd.c:1796:9
	cbz	r0, .LBB4_18
.Ltmp50:
@ %bb.17:
	@DEBUG_VALUE: http_recv:arg <- $r4
	@DEBUG_VALUE: http_recv:pcb <- $r5
	@DEBUG_VALUE: http_recv:p <- $r6
	@DEBUG_VALUE: http_recv:hs <- $r4
	.loc	1 1804 9 is_stmt 1      @ ../User/Http/httpd.c:1804:9
	mov	r1, r6
	bl	pbuf_cat
.Ltmp51:
	.loc	1 1807 13               @ ../User/Http/httpd.c:1807:13
	ldr	r0, [r4, #8]
	b	.LBB4_19
.Ltmp52:
.LBB4_18:
	@DEBUG_VALUE: http_recv:arg <- $r4
	@DEBUG_VALUE: http_recv:pcb <- $r5
	@DEBUG_VALUE: http_recv:p <- $r6
	@DEBUG_VALUE: http_recv:hs <- $r4
	.loc	1 1799 17               @ ../User/Http/httpd.c:1799:17
	str	r6, [r4, #8]
.Ltmp53:
	.loc	1 1807 13               @ ../User/Http/httpd.c:1807:13
	mov	r0, r6
.Ltmp54:
.LBB4_19:
	@DEBUG_VALUE: http_recv:arg <- $r4
	@DEBUG_VALUE: http_recv:pcb <- $r5
	@DEBUG_VALUE: http_recv:p <- $r6
	@DEBUG_VALUE: http_recv:hs <- $r4
	.loc	1 1807 18 is_stmt 0     @ ../User/Http/httpd.c:1807:18
	ldr	r1, [r0]
.Ltmp55:
	.loc	1 1807 9                @ ../User/Http/httpd.c:1807:9
	cbz	r1, .LBB4_21
.Ltmp56:
@ %bb.20:
	@DEBUG_VALUE: http_recv:arg <- $r4
	@DEBUG_VALUE: http_recv:pcb <- $r5
	@DEBUG_VALUE: http_recv:p <- $r6
	@DEBUG_VALUE: http_recv:hs <- $r4
	.loc	1 1810 9 is_stmt 1      @ ../User/Http/httpd.c:1810:9
	movw	r6, :lower16:httpd_req_buf
.Ltmp57:
	.loc	1 1809 20               @ ../User/Http/httpd.c:1809:20
	ldrh	r1, [r0, #8]
	movw	r7, #1023
	.loc	1 1810 9                @ ../User/Http/httpd.c:1810:9
	movs	r3, #0
	movt	r6, :upper16:httpd_req_buf
.Ltmp58:
	@DEBUG_VALUE: http_parse_request:data <- $r6
	.loc	1 1809 20               @ ../User/Http/httpd.c:1809:20
	cmp	r1, r7
	it	lo
	movlo	r7, r1
.Ltmp59:
	@DEBUG_VALUE: http_parse_request:data_len <- $r7
	.loc	1 1810 9                @ ../User/Http/httpd.c:1810:9
	mov	r1, r6
	mov	r2, r7
	bl	pbuf_copy_partial
	b	.LBB4_22
.Ltmp60:
.LBB4_21:
	@DEBUG_VALUE: http_recv:arg <- $r4
	@DEBUG_VALUE: http_recv:pcb <- $r5
	@DEBUG_VALUE: http_recv:p <- $r6
	@DEBUG_VALUE: http_recv:hs <- $r4
	.loc	1 1817 23               @ ../User/Http/httpd.c:1817:23
	ldrh	r7, [r6, #10]
	.loc	1 1816 28               @ ../User/Http/httpd.c:1816:28
	ldr	r6, [r6, #4]
.Ltmp61:
	@DEBUG_VALUE: http_parse_request:data <- $r6
	@DEBUG_VALUE: http_parse_request:data_len <- undef
.LBB4_22:
	@DEBUG_VALUE: http_parse_request:data <- $r6
	@DEBUG_VALUE: http_recv:arg <- $r4
	@DEBUG_VALUE: http_recv:pcb <- $r5
	@DEBUG_VALUE: http_recv:hs <- $r4
	@DEBUG_VALUE: http_parse_request:data_len <- $r7
	@DEBUG_VALUE: http_parse_request:data <- $r6
	.loc	1 1825 9                @ ../User/Http/httpd.c:1825:9
	cmp	r7, #7
	blo	.LBB4_40
.Ltmp62:
@ %bb.23:
	@DEBUG_VALUE: http_parse_request:data_len <- $r7
	@DEBUG_VALUE: http_parse_request:data <- $r6
	@DEBUG_VALUE: http_recv:arg <- $r4
	@DEBUG_VALUE: http_recv:pcb <- $r5
	@DEBUG_VALUE: http_recv:hs <- $r4
	.loc	1 1828 16               @ ../User/Http/httpd.c:1828:16
	movw	r1, :lower16:.L.str.11
	mov	r0, r6
	mov	r2, r7
	movt	r1, :upper16:.L.str.11
	bl	strnstr
.Ltmp63:
	@DEBUG_VALUE: http_parse_request:crlf <- $r0
	.loc	1 1829 13               @ ../User/Http/httpd.c:1829:13
	cmp	r0, #0
	beq	.LBB4_40
.Ltmp64:
@ %bb.24:
	@DEBUG_VALUE: http_parse_request:crlf <- $r0
	@DEBUG_VALUE: http_parse_request:data_len <- $r7
	@DEBUG_VALUE: http_parse_request:data <- $r6
	@DEBUG_VALUE: http_recv:arg <- $r4
	@DEBUG_VALUE: http_recv:pcb <- $r5
	@DEBUG_VALUE: http_recv:hs <- $r4
	@DEBUG_VALUE: is_09 <- 0
	.loc	1 1839 18               @ ../User/Http/httpd.c:1839:18
	adr	r1, .LCPI4_0
	mov	r0, r6
.Ltmp65:
	movs	r2, #4
	bl	strncmp
.Ltmp66:
	.loc	1 1839 17 is_stmt 0     @ ../User/Http/httpd.c:1839:17
	cbz	r0, .LBB4_26
.Ltmp67:
@ %bb.25:
	@DEBUG_VALUE: http_parse_request:data_len <- $r7
	@DEBUG_VALUE: http_parse_request:data <- $r6
	@DEBUG_VALUE: http_recv:arg <- $r4
	@DEBUG_VALUE: http_recv:pcb <- $r5
	@DEBUG_VALUE: http_recv:hs <- $r4
	.loc	1 0 17                  @ ../User/Http/httpd.c:0:17
	movs	r0, #0
.Ltmp68:
	.loc	1 1858 25 is_stmt 1     @ ../User/Http/httpd.c:1858:25
	strb	r0, [r6, #4]
	mvn	r6, #13
.Ltmp69:
	.loc	1 0 25 is_stmt 0        @ ../User/Http/httpd.c:0:25
	b	.LBB4_9
.Ltmp70:
.LBB4_26:
	@DEBUG_VALUE: http_parse_request:data_len <- $r7
	@DEBUG_VALUE: http_parse_request:data <- $r6
	@DEBUG_VALUE: http_recv:arg <- $r4
	@DEBUG_VALUE: http_recv:pcb <- $r5
	@DEBUG_VALUE: http_recv:hs <- $r4
	.loc	1 1865 33 is_stmt 1     @ ../User/Http/httpd.c:1865:33
	subs	r0, r7, #4
.Ltmp71:
	@DEBUG_VALUE: left_len <- $r0
	.loc	1 1865 41 is_stmt 0     @ ../User/Http/httpd.c:1865:41
	add.w	r8, r6, #4
.Ltmp72:
	@DEBUG_VALUE: uri <- $r8
	@DEBUG_VALUE: http_find_file:uri <- $r8
	.loc	1 1866 19 is_stmt 1     @ ../User/Http/httpd.c:1866:19
	adr	r1, .LCPI4_1
	.loc	1 1866 41 is_stmt 0     @ ../User/Http/httpd.c:1866:41
	uxth	r7, r0
.Ltmp73:
	.loc	1 1866 19               @ ../User/Http/httpd.c:1866:19
	mov	r0, r8
.Ltmp74:
	mov	r2, r7
	bl	strnstr
.Ltmp75:
	@DEBUG_VALUE: sp2 <- $r0
	.loc	1 1868 17 is_stmt 1     @ ../User/Http/httpd.c:1868:17
	cbz	r0, .LBB4_28
.Ltmp76:
@ %bb.27:
	@DEBUG_VALUE: sp2 <- $r0
	@DEBUG_VALUE: http_find_file:uri <- $r8
	@DEBUG_VALUE: uri <- $r8
	@DEBUG_VALUE: http_parse_request:data <- $r6
	@DEBUG_VALUE: http_recv:arg <- $r4
	@DEBUG_VALUE: http_recv:pcb <- $r5
	@DEBUG_VALUE: http_recv:hs <- $r4
	.loc	1 0 17 is_stmt 0        @ ../User/Http/httpd.c:0:17
	mov.w	r10, #0
	b	.LBB4_30
.Ltmp77:
.LBB4_28:
	@DEBUG_VALUE: sp2 <- $r0
	@DEBUG_VALUE: http_parse_request:data <- $r6
	@DEBUG_VALUE: http_recv:arg <- $r4
	@DEBUG_VALUE: http_recv:pcb <- $r5
	@DEBUG_VALUE: http_recv:hs <- $r4
	.loc	1 1871 23 is_stmt 1     @ ../User/Http/httpd.c:1871:23
	movw	r1, :lower16:.L.str.11
	mov	r0, r8
.Ltmp78:
	mov	r2, r7
	movt	r1, :upper16:.L.str.11
	bl	strnstr
.Ltmp79:
	@DEBUG_VALUE: sp2 <- $r0
	@DEBUG_VALUE: is_09 <- 1
	.loc	1 1883 28               @ ../User/Http/httpd.c:1883:28
	cmp	r0, #0
	beq	.LBB4_40
.Ltmp80:
@ %bb.29:
	@DEBUG_VALUE: sp2 <- $r0
	@DEBUG_VALUE: http_parse_request:data <- $r6
	@DEBUG_VALUE: http_recv:arg <- $r4
	@DEBUG_VALUE: http_recv:pcb <- $r5
	@DEBUG_VALUE: http_recv:hs <- $r4
	.loc	1 0 28 is_stmt 0        @ ../User/Http/httpd.c:0:28
	mov.w	r10, #1
.Ltmp81:
.LBB4_30:
	@DEBUG_VALUE: sp2 <- $r0
	@DEBUG_VALUE: http_parse_request:data <- $r6
	@DEBUG_VALUE: http_recv:arg <- $r4
	@DEBUG_VALUE: http_recv:pcb <- $r5
	@DEBUG_VALUE: http_recv:hs <- $r4
	adds	r1, r6, #3
.Ltmp82:
	@DEBUG_VALUE: http_find_file:is_09 <- $r10
	@DEBUG_VALUE: http_init_file:is_09 <- $r10
	@DEBUG_VALUE: sp1 <- $r1
	.loc	1 1883 17               @ ../User/Http/httpd.c:1883:17
	cmp	r0, r1
	bls	.LBB4_40
.Ltmp83:
@ %bb.31:
	@DEBUG_VALUE: sp1 <- $r1
	@DEBUG_VALUE: http_find_file:is_09 <- $r10
	@DEBUG_VALUE: sp2 <- $r0
	@DEBUG_VALUE: http_parse_request:data <- $r6
	@DEBUG_VALUE: http_recv:arg <- $r4
	@DEBUG_VALUE: http_recv:pcb <- $r5
	@DEBUG_VALUE: http_recv:hs <- $r4
	.loc	1 1882 27 is_stmt 1     @ ../User/Http/httpd.c:1882:27
	sub.w	r0, r0, r8
.Ltmp84:
	.loc	1 0 27 is_stmt 0        @ ../User/Http/httpd.c:0:27
	movs	r2, #0
.Ltmp85:
	.loc	1 1888 17 is_stmt 1     @ ../User/Http/httpd.c:1888:17
	uxth	r0, r0
	.loc	1 1887 22               @ ../User/Http/httpd.c:1887:22
	strb	r2, [r1]
	.loc	1 1888 30               @ ../User/Http/httpd.c:1888:30
	strb.w	r2, [r8, r0]
	str.w	r8, [sp, #8]
.Ltmp86:
	@DEBUG_VALUE: http_find_file:file <- 0
	.loc	1 1971 19               @ ../User/Http/httpd.c:1971:19
	strb.w	r2, [r4, #44]
.Ltmp87:
	.loc	1 1975 10               @ ../User/Http/httpd.c:1975:10
	ldrb.w	r0, [r8]
	.loc	1 1975 25 is_stmt 0     @ ../User/Http/httpd.c:1975:25
	cmp	r0, #47
	bne	.LBB4_33
.Ltmp88:
@ %bb.32:
	@DEBUG_VALUE: sp1 <- $r1
	@DEBUG_VALUE: http_find_file:is_09 <- $r10
	@DEBUG_VALUE: http_parse_request:data <- $r6
	@DEBUG_VALUE: http_recv:arg <- $r4
	@DEBUG_VALUE: http_recv:pcb <- $r5
	@DEBUG_VALUE: http_recv:hs <- $r4
	.loc	1 1975 29               @ ../User/Http/httpd.c:1975:29
	ldrb	r0, [r6, #5]
.Ltmp89:
	.loc	1 1975 9                @ ../User/Http/httpd.c:1975:9
	cbz	r0, .LBB4_42
.Ltmp90:
.LBB4_33:
	@DEBUG_VALUE: sp1 <- $r1
	@DEBUG_VALUE: http_find_file:is_09 <- $r10
	@DEBUG_VALUE: http_parse_request:data <- $r6
	@DEBUG_VALUE: http_recv:arg <- $r4
	@DEBUG_VALUE: http_recv:pcb <- $r5
	@DEBUG_VALUE: http_recv:hs <- $r4
	.loc	1 2007 27 is_stmt 1     @ ../User/Http/httpd.c:2007:27
	mov	r0, r8
	movs	r1, #63
.Ltmp91:
	bl	strchr
.Ltmp92:
	@DEBUG_VALUE: http_find_file:params <- $r0
	.loc	1 0 27 is_stmt 0        @ ../User/Http/httpd.c:0:27
	mov.w	r11, #0
	.loc	1 2008 13 is_stmt 1     @ ../User/Http/httpd.c:2008:13
	cbz	r0, .LBB4_35
.Ltmp93:
@ %bb.34:
	@DEBUG_VALUE: http_find_file:params <- $r0
	@DEBUG_VALUE: http_find_file:is_09 <- $r10
	@DEBUG_VALUE: http_parse_request:data <- $r6
	@DEBUG_VALUE: http_recv:arg <- $r4
	@DEBUG_VALUE: http_recv:pcb <- $r5
	@DEBUG_VALUE: http_recv:hs <- $r4
	.loc	1 2011 21               @ ../User/Http/httpd.c:2011:21
	strb	r11, [r0], #1
.Ltmp94:
	@DEBUG_VALUE: http_find_file:params <- $r0
	.loc	1 0 0 is_stmt 0         @ ../User/Http/httpd.c:0:0
	mov	r11, r0
.Ltmp95:
	@DEBUG_VALUE: http_find_file:params <- $r11
	@DEBUG_VALUE: http_find_file:params <- $r11
.LBB4_35:
	@DEBUG_VALUE: http_find_file:is_09 <- $r10
	@DEBUG_VALUE: http_parse_request:data <- $r6
	@DEBUG_VALUE: http_recv:arg <- $r4
	@DEBUG_VALUE: http_recv:pcb <- $r5
	@DEBUG_VALUE: http_recv:hs <- $r4
	@DEBUG_VALUE: http_find_file:params <- $r11
	@DEBUG_VALUE: extract_uri_parameters:pair <- $r11
	@DEBUG_VALUE: extract_uri_parameters:params <- $r11
	.loc	1 2016 13 is_stmt 1     @ ../User/Http/httpd.c:2016:13
	movw	r0, :lower16:g_iNumCGIs
	movt	r0, :upper16:g_iNumCGIs
	ldr	r6, [r0]
.Ltmp96:
	.loc	1 2016 24 is_stmt 0     @ ../User/Http/httpd.c:2016:24
	cmp	r6, #0
	beq.w	.LBB4_61
.Ltmp97:
@ %bb.36:
	@DEBUG_VALUE: http_find_file:params <- $r11
	@DEBUG_VALUE: http_find_file:is_09 <- $r10
	@DEBUG_VALUE: http_recv:arg <- $r4
	@DEBUG_VALUE: http_recv:pcb <- $r5
	@DEBUG_VALUE: http_recv:hs <- $r4
	.loc	1 0 0                   @ ../User/Http/httpd.c:0:0
	movw	r0, :lower16:g_pCGIs
	movt	r0, :upper16:g_pCGIs
	ldr.w	r9, [r0]
	.loc	1 2016 24               @ ../User/Http/httpd.c:2016:24
	cmp.w	r9, #0
	beq.w	.LBB4_61
.Ltmp98:
@ %bb.37:
	@DEBUG_VALUE: http_find_file:params <- $r11
	@DEBUG_VALUE: http_find_file:is_09 <- $r10
	@DEBUG_VALUE: http_recv:arg <- $r4
	@DEBUG_VALUE: http_recv:pcb <- $r5
	@DEBUG_VALUE: http_recv:hs <- $r4
	@DEBUG_VALUE: http_find_file:i <- 0
	.loc	1 0 24                  @ ../User/Http/httpd.c:0:24
	movs	r7, #0
.Ltmp99:
	.loc	1 2018 13 is_stmt 1     @ ../User/Http/httpd.c:2018:13
	cmp	r6, #1
	blt.w	.LBB4_59
.Ltmp100:
.LBB4_38:                               @ =>This Inner Loop Header: Depth=1
	@DEBUG_VALUE: http_find_file:params <- $r11
	@DEBUG_VALUE: http_find_file:is_09 <- $r10
	@DEBUG_VALUE: http_recv:arg <- $r4
	@DEBUG_VALUE: http_recv:pcb <- $r5
	@DEBUG_VALUE: http_recv:hs <- $r4
	@DEBUG_VALUE: http_find_file:i <- $r7
	.loc	1 2020 44               @ ../User/Http/httpd.c:2020:44
	ldr.w	r1, [r9, r7, lsl #3]
	.loc	1 2020 21 is_stmt 0     @ ../User/Http/httpd.c:2020:21
	mov	r0, r8
	bl	strcmp
.Ltmp101:
	.loc	1 2020 21               @ ../User/Http/httpd.c:2020:21
	cbz	r0, .LBB4_46
.Ltmp102:
@ %bb.39:                               @   in Loop: Header=BB4_38 Depth=1
	@DEBUG_VALUE: http_find_file:i <- $r7
	@DEBUG_VALUE: http_find_file:params <- $r11
	@DEBUG_VALUE: http_find_file:is_09 <- $r10
	@DEBUG_VALUE: http_recv:arg <- $r4
	@DEBUG_VALUE: http_recv:pcb <- $r5
	@DEBUG_VALUE: http_recv:hs <- $r4
	.loc	1 2018 42 is_stmt 1     @ ../User/Http/httpd.c:2018:42
	adds	r7, #1
.Ltmp103:
	@DEBUG_VALUE: http_find_file:i <- $r7
	.loc	1 2018 13 is_stmt 0     @ ../User/Http/httpd.c:2018:13
	cmp	r7, r6
	blt	.LBB4_38
	b	.LBB4_59
.Ltmp104:
.LBB4_40:
	@DEBUG_VALUE: http_parse_request:data <- $r6
	@DEBUG_VALUE: http_recv:arg <- $r4
	@DEBUG_VALUE: http_recv:pcb <- $r5
	@DEBUG_VALUE: http_recv:hs <- $r4
	.loc	1 1927 26 is_stmt 1     @ ../User/Http/httpd.c:1927:26
	ldr	r0, [r4, #8]
	.loc	1 1927 12 is_stmt 0     @ ../User/Http/httpd.c:1927:12
	bl	pbuf_clen
	mvn	r6, #13
.Ltmp105:
	.loc	1 2304 13 is_stmt 1     @ ../User/Http/httpd.c:2304:13
	cmp	r0, #10
	bhi.w	.LBB4_9
.Ltmp106:
@ %bb.41:
	@DEBUG_VALUE: http_recv:arg <- $r4
	@DEBUG_VALUE: http_recv:pcb <- $r5
	@DEBUG_VALUE: http_recv:hs <- $r4
	.loc	1 0 0 is_stmt 0         @ ../User/Http/httpd.c:0:0
	ldr	r0, [r4, #8]
	ldrh	r0, [r0, #8]
	.loc	1 2304 13               @ ../User/Http/httpd.c:2304:13
	cmp.w	r0, #1024
	blo.w	.LBB4_15
	b	.LBB4_9
.Ltmp107:
.LBB4_42:
	@DEBUG_VALUE: sp1 <- $r1
	@DEBUG_VALUE: http_find_file:is_09 <- $r10
	@DEBUG_VALUE: http_parse_request:data <- $r6
	@DEBUG_VALUE: http_recv:arg <- $r4
	@DEBUG_VALUE: http_recv:pcb <- $r5
	@DEBUG_VALUE: http_recv:hs <- $r4
	.loc	1 0 13                  @ ../User/Http/httpd.c:0:13
	movw	r8, :lower16:g_psDefaultFilenames
	movs	r7, #0
.Ltmp108:
	@DEBUG_VALUE: http_find_file:loop <- 0
	@DEBUG_VALUE: http_find_file:file <- 0
	movt	r8, :upper16:g_psDefaultFilenames
.Ltmp109:
.LBB4_43:                               @ =>This Inner Loop Header: Depth=1
	@DEBUG_VALUE: sp1 <- $r1
	@DEBUG_VALUE: http_find_file:is_09 <- $r10
	@DEBUG_VALUE: http_parse_request:data <- $r6
	@DEBUG_VALUE: http_recv:arg <- $r4
	@DEBUG_VALUE: http_recv:pcb <- $r5
	@DEBUG_VALUE: http_recv:hs <- $r4
	@DEBUG_VALUE: http_find_file:loop <- $r7
	.loc	1 1982 64 is_stmt 1     @ ../User/Http/httpd.c:1982:64
	ldr.w	r6, [r8, r7, lsl #3]
.Ltmp110:
	.loc	1 1982 20 is_stmt 0     @ ../User/Http/httpd.c:1982:20
	mov	r0, r6
	bl	fs_open
.Ltmp111:
	.loc	1 1984 17 is_stmt 1     @ ../User/Http/httpd.c:1984:17
	cmp	r0, #0
	bne	.LBB4_56
.Ltmp112:
@ %bb.44:                               @   in Loop: Header=BB4_43 Depth=1
	@DEBUG_VALUE: http_find_file:loop <- $r7
	@DEBUG_VALUE: http_find_file:is_09 <- $r10
	@DEBUG_VALUE: http_recv:arg <- $r4
	@DEBUG_VALUE: http_recv:pcb <- $r5
	@DEBUG_VALUE: http_recv:hs <- $r4
	.loc	1 1979 58               @ ../User/Http/httpd.c:1979:58
	adds	r7, #1
.Ltmp113:
	@DEBUG_VALUE: http_find_file:loop <- $r7
	@DEBUG_VALUE: http_find_file:file <- 0
	.loc	1 1979 9 is_stmt 0      @ ../User/Http/httpd.c:1979:9
	cmp	r7, #5
	blo	.LBB4_43
.Ltmp114:
@ %bb.45:
	@DEBUG_VALUE: http_find_file:loop <- $r7
	@DEBUG_VALUE: http_find_file:is_09 <- $r10
	@DEBUG_VALUE: http_recv:arg <- $r4
	@DEBUG_VALUE: http_recv:pcb <- $r5
	@DEBUG_VALUE: http_recv:hs <- $r4
	.loc	1 0 9                   @ ../User/Http/httpd.c:0:9
	add	r0, sp, #8
.Ltmp115:
	.loc	1 1983 17 is_stmt 1     @ ../User/Http/httpd.c:1983:17
	str	r6, [sp, #8]
.Ltmp116:
	@DEBUG_VALUE: http_find_file:uri <- [DW_OP_plus_uconst 8, DW_OP_deref] $sp
	.loc	1 1996 20               @ ../User/Http/httpd.c:1996:20
	bl	http_get_404_file
	mov	r9, r0
.Ltmp117:
	@DEBUG_VALUE: http_find_file:file <- $r9
	.loc	1 0 20 is_stmt 0        @ ../User/Http/httpd.c:0:20
	movs	r0, #0
	b	.LBB4_68
.Ltmp118:
.LBB4_46:
	@DEBUG_VALUE: http_find_file:i <- $r7
	@DEBUG_VALUE: http_find_file:params <- $r11
	@DEBUG_VALUE: http_find_file:is_09 <- $r10
	@DEBUG_VALUE: http_recv:arg <- $r4
	@DEBUG_VALUE: http_recv:pcb <- $r5
	@DEBUG_VALUE: http_recv:hs <- $r4
	.loc	1 554 17 is_stmt 1      @ ../User/Http/httpd.c:554:17
	cmp.w	r11, #0
	beq	.LBB4_57
.Ltmp119:
@ %bb.47:
	@DEBUG_VALUE: http_find_file:i <- $r7
	@DEBUG_VALUE: http_find_file:params <- $r11
	@DEBUG_VALUE: http_find_file:is_09 <- $r10
	@DEBUG_VALUE: http_recv:arg <- $r4
	@DEBUG_VALUE: http_recv:pcb <- $r5
	@DEBUG_VALUE: http_recv:hs <- $r4
	.loc	1 554 21 is_stmt 0      @ ../User/Http/httpd.c:554:21
	ldrb.w	r0, [r11]
.Ltmp120:
	@DEBUG_VALUE: extract_uri_parameters:loop <- 0
	.loc	1 554 9                 @ ../User/Http/httpd.c:554:9
	cmp	r0, #0
	beq	.LBB4_57
.Ltmp121:
@ %bb.48:
	@DEBUG_VALUE: http_find_file:i <- $r7
	@DEBUG_VALUE: http_find_file:params <- $r11
	@DEBUG_VALUE: http_find_file:is_09 <- $r10
	@DEBUG_VALUE: http_recv:arg <- $r4
	@DEBUG_VALUE: http_recv:pcb <- $r5
	@DEBUG_VALUE: http_recv:hs <- $r4
	.loc	1 0 9                   @ ../User/Http/httpd.c:0:9
	mov.w	r8, #0
	mov	r6, r11
	str.w	r10, [sp, #4]           @ 4-byte Spill
.Ltmp122:
	@DEBUG_VALUE: http_find_file:is_09 <- [DW_OP_plus_uconst 4] [$sp+0]
.LBB4_49:                               @ =>This Inner Loop Header: Depth=1
	@DEBUG_VALUE: http_find_file:is_09 <- [DW_OP_plus_uconst 4] [$sp+0]
	@DEBUG_VALUE: http_find_file:i <- $r7
	@DEBUG_VALUE: http_find_file:params <- $r11
	@DEBUG_VALUE: http_recv:arg <- $r4
	@DEBUG_VALUE: http_recv:pcb <- $r5
	@DEBUG_VALUE: http_recv:hs <- $r4
	@DEBUG_VALUE: extract_uri_parameters:pair <- $r6
	@DEBUG_VALUE: extract_uri_parameters:loop <- $r8
	@DEBUG_VALUE: extract_uri_parameters:equals <- $r6
	.loc	1 568 26 is_stmt 1      @ ../User/Http/httpd.c:568:26
	add.w	r10, r4, r8, lsl #2
	.loc	1 575 16                @ ../User/Http/httpd.c:575:16
	mov	r0, r6
	movs	r1, #38
	.loc	1 568 26                @ ../User/Http/httpd.c:568:26
	str.w	r6, [r10, #572]
	.loc	1 575 16                @ ../User/Http/httpd.c:575:16
	bl	strchr
	.loc	1 576 13                @ ../User/Http/httpd.c:576:13
	cbz	r0, .LBB4_51
.Ltmp123:
@ %bb.50:                               @   in Loop: Header=BB4_49 Depth=1
	@DEBUG_VALUE: http_find_file:is_09 <- [DW_OP_plus_uconst 4] [$sp+0]
	@DEBUG_VALUE: extract_uri_parameters:equals <- $r6
	@DEBUG_VALUE: extract_uri_parameters:loop <- $r8
	@DEBUG_VALUE: extract_uri_parameters:pair <- $r6
	@DEBUG_VALUE: http_find_file:i <- $r7
	@DEBUG_VALUE: http_find_file:params <- $r11
	@DEBUG_VALUE: http_recv:arg <- $r4
	@DEBUG_VALUE: http_recv:pcb <- $r5
	@DEBUG_VALUE: http_recv:hs <- $r4
	.loc	1 0 0 is_stmt 0         @ ../User/Http/httpd.c:0:0
	mov	r9, r0
.Ltmp124:
	@DEBUG_VALUE: extract_uri_parameters:pair <- $r9
	.loc	1 578 19 is_stmt 1      @ ../User/Http/httpd.c:578:19
	movs	r0, #0
	strb	r0, [r9], #1
.Ltmp125:
	@DEBUG_VALUE: extract_uri_parameters:pair <- $r9
	.loc	1 0 19 is_stmt 0        @ ../User/Http/httpd.c:0:19
	b	.LBB4_53
.Ltmp126:
.LBB4_51:                               @   in Loop: Header=BB4_49 Depth=1
	@DEBUG_VALUE: http_find_file:is_09 <- [DW_OP_plus_uconst 4] [$sp+0]
	@DEBUG_VALUE: extract_uri_parameters:equals <- $r6
	@DEBUG_VALUE: extract_uri_parameters:loop <- $r8
	@DEBUG_VALUE: extract_uri_parameters:pair <- $r6
	@DEBUG_VALUE: http_find_file:i <- $r7
	@DEBUG_VALUE: http_find_file:params <- $r11
	@DEBUG_VALUE: http_recv:arg <- $r4
	@DEBUG_VALUE: http_recv:pcb <- $r5
	@DEBUG_VALUE: http_recv:hs <- $r4
	.loc	1 585 20 is_stmt 1      @ ../User/Http/httpd.c:585:20
	mov	r0, r6
	movs	r1, #32
	bl	strchr
.Ltmp127:
	@DEBUG_VALUE: extract_uri_parameters:pair <- $r0
	.loc	1 0 20 is_stmt 0        @ ../User/Http/httpd.c:0:20
	mov.w	r9, #0
	.loc	1 586 17 is_stmt 1      @ ../User/Http/httpd.c:586:17
	cbz	r0, .LBB4_53
.Ltmp128:
@ %bb.52:                               @   in Loop: Header=BB4_49 Depth=1
	@DEBUG_VALUE: http_find_file:is_09 <- [DW_OP_plus_uconst 4] [$sp+0]
	@DEBUG_VALUE: extract_uri_parameters:pair <- $r0
	@DEBUG_VALUE: extract_uri_parameters:equals <- $r6
	@DEBUG_VALUE: extract_uri_parameters:loop <- $r8
	@DEBUG_VALUE: http_find_file:i <- $r7
	@DEBUG_VALUE: http_find_file:params <- $r11
	@DEBUG_VALUE: http_recv:arg <- $r4
	@DEBUG_VALUE: http_recv:pcb <- $r5
	@DEBUG_VALUE: http_recv:hs <- $r4
	.loc	1 588 23                @ ../User/Http/httpd.c:588:23
	strb.w	r9, [r0]
.Ltmp129:
.LBB4_53:                               @   in Loop: Header=BB4_49 Depth=1
	@DEBUG_VALUE: http_find_file:is_09 <- [DW_OP_plus_uconst 4] [$sp+0]
	@DEBUG_VALUE: extract_uri_parameters:equals <- $r6
	@DEBUG_VALUE: extract_uri_parameters:loop <- $r8
	@DEBUG_VALUE: http_find_file:i <- $r7
	@DEBUG_VALUE: http_find_file:params <- $r11
	@DEBUG_VALUE: http_recv:arg <- $r4
	@DEBUG_VALUE: http_recv:pcb <- $r5
	@DEBUG_VALUE: http_recv:hs <- $r4
	@DEBUG_VALUE: extract_uri_parameters:pair <- $r9
	.loc	1 597 18                @ ../User/Http/httpd.c:597:18
	mov	r0, r6
	movs	r1, #61
	bl	strchr
.Ltmp130:
	@DEBUG_VALUE: extract_uri_parameters:equals <- $r0
	.loc	1 598 13                @ ../User/Http/httpd.c:598:13
	cmp	r0, #0
.Ltmp131:
	.loc	1 564 72                @ ../User/Http/httpd.c:564:72
	add.w	r8, r8, #1
.Ltmp132:
	@DEBUG_VALUE: extract_uri_parameters:loop <- $r8
	.loc	1 600 21                @ ../User/Http/httpd.c:600:21
	itte	ne
	movne	r1, #0
	strbne	r1, [r0], #1
.Ltmp133:
	.loc	1 0 21 is_stmt 0        @ ../User/Http/httpd.c:0:21
	moveq	r0, #0
	.loc	1 601 34 is_stmt 1      @ ../User/Http/httpd.c:601:34
	str.w	r0, [r10, #636]
.Ltmp134:
	.loc	1 564 5                 @ ../User/Http/httpd.c:564:5
	cmp.w	r8, #15
	bhi	.LBB4_55
.Ltmp135:
@ %bb.54:                               @   in Loop: Header=BB4_49 Depth=1
	@DEBUG_VALUE: http_find_file:is_09 <- [DW_OP_plus_uconst 4] [$sp+0]
	@DEBUG_VALUE: extract_uri_parameters:pair <- $r9
	@DEBUG_VALUE: extract_uri_parameters:loop <- $r8
	@DEBUG_VALUE: http_find_file:i <- $r7
	@DEBUG_VALUE: http_find_file:params <- $r11
	@DEBUG_VALUE: http_recv:arg <- $r4
	@DEBUG_VALUE: http_recv:pcb <- $r5
	@DEBUG_VALUE: http_recv:hs <- $r4
	cmp.w	r9, #0
	mov	r6, r9
.Ltmp136:
	@DEBUG_VALUE: extract_uri_parameters:pair <- $r6
	bne	.LBB4_49
.Ltmp137:
.LBB4_55:
	@DEBUG_VALUE: http_find_file:is_09 <- [DW_OP_plus_uconst 4] [$sp+0]
	@DEBUG_VALUE: http_find_file:i <- $r7
	@DEBUG_VALUE: http_find_file:params <- $r11
	@DEBUG_VALUE: http_recv:arg <- $r4
	@DEBUG_VALUE: http_recv:pcb <- $r5
	@DEBUG_VALUE: http_recv:hs <- $r4
	.loc	1 2027 27               @ ../User/Http/httpd.c:2027:27
	movw	r0, :lower16:g_pCGIs
	ldr.w	r10, [sp, #4]           @ 4-byte Reload
	movt	r0, :upper16:g_pCGIs
	ldr.w	r9, [r0]
	b	.LBB4_58
.Ltmp138:
.LBB4_56:
	@DEBUG_VALUE: http_find_file:loop <- $r7
	@DEBUG_VALUE: http_find_file:is_09 <- $r10
	@DEBUG_VALUE: http_recv:arg <- $r4
	@DEBUG_VALUE: http_recv:pcb <- $r5
	@DEBUG_VALUE: http_recv:hs <- $r4
	.loc	1 0 0 is_stmt 0         @ ../User/Http/httpd.c:0:0
	mov	r9, r0
.Ltmp139:
	@DEBUG_VALUE: http_find_file:file <- $r9
	.loc	1 1988 60 is_stmt 1     @ ../User/Http/httpd.c:1988:60
	add.w	r0, r8, r7, lsl #3
.Ltmp140:
	.loc	1 1983 17               @ ../User/Http/httpd.c:1983:17
	str	r6, [sp, #8]
.Ltmp141:
	.loc	1 1988 60               @ ../User/Http/httpd.c:1988:60
	ldrb	r0, [r0, #4]
	.loc	1 1988 31 is_stmt 0     @ ../User/Http/httpd.c:1988:31
	strb.w	r0, [r4, #44]
.Ltmp142:
	@DEBUG_VALUE: http_init_file:uri <- undef
	@DEBUG_VALUE: http_find_file:uri <- [DW_OP_plus_uconst 8, DW_OP_deref] $sp
	.loc	1 0 31                  @ ../User/Http/httpd.c:0:31
	b	.LBB4_70
.Ltmp143:
.LBB4_57:
	@DEBUG_VALUE: http_find_file:i <- $r7
	@DEBUG_VALUE: http_find_file:params <- $r11
	@DEBUG_VALUE: http_find_file:is_09 <- $r10
	@DEBUG_VALUE: http_recv:arg <- $r4
	@DEBUG_VALUE: http_recv:pcb <- $r5
	@DEBUG_VALUE: http_recv:hs <- $r4
	mov.w	r8, #0
.Ltmp144:
.LBB4_58:
	@DEBUG_VALUE: http_find_file:i <- $r7
	@DEBUG_VALUE: http_find_file:params <- $r11
	@DEBUG_VALUE: http_recv:arg <- $r4
	@DEBUG_VALUE: http_recv:pcb <- $r5
	@DEBUG_VALUE: http_recv:hs <- $r4
	@DEBUG_VALUE: http_find_file:count <- $r8
	.loc	1 2027 38 is_stmt 1     @ ../User/Http/httpd.c:2027:38
	add.w	r0, r9, r7, lsl #3
	.loc	1 2027 62 is_stmt 0     @ ../User/Http/httpd.c:2027:62
	add.w	r2, r4, #572
	.loc	1 2027 74               @ ../User/Http/httpd.c:2027:74
	add.w	r3, r4, #636
	.loc	1 2027 27               @ ../User/Http/httpd.c:2027:27
	mov	r1, r8
	.loc	1 2027 38               @ ../User/Http/httpd.c:2027:38
	ldr	r6, [r0, #4]
	.loc	1 2027 27               @ ../User/Http/httpd.c:2027:27
	mov	r0, r7
	blx	r6
	mov	r8, r0
.Ltmp145:
	@DEBUG_VALUE: http_find_file:uri <- $r8
	.loc	1 2027 25               @ ../User/Http/httpd.c:2027:25
	str	r0, [sp, #8]
.Ltmp146:
	.loc	1 2034 22 is_stmt 1     @ ../User/Http/httpd.c:2034:22
	movw	r0, :lower16:g_iNumCGIs
	movt	r0, :upper16:g_iNumCGIs
	ldr	r6, [r0]
.Ltmp147:
.LBB4_59:
	@DEBUG_VALUE: http_find_file:params <- $r11
	@DEBUG_VALUE: http_recv:arg <- $r4
	@DEBUG_VALUE: http_recv:pcb <- $r5
	@DEBUG_VALUE: http_recv:hs <- $r4
	.loc	1 2034 17 is_stmt 0     @ ../User/Http/httpd.c:2034:17
	cmp.w	r11, #0
	beq	.LBB4_61
.Ltmp148:
@ %bb.60:
	@DEBUG_VALUE: http_find_file:params <- $r11
	@DEBUG_VALUE: http_recv:arg <- $r4
	@DEBUG_VALUE: http_recv:pcb <- $r5
	@DEBUG_VALUE: http_recv:hs <- $r4
	cmp	r7, r6
.Ltmp149:
	@DEBUG_VALUE: http_find_file:params <- [DW_OP_plus_uconst 4294967295, DW_OP_stack_value] $r11
	.loc	1 0 17                  @ ../User/Http/httpd.c:0:17
	itt	eq
	moveq	r0, #63
.Ltmp150:
	.loc	1 2040 29 is_stmt 1     @ ../User/Http/httpd.c:2040:29
	strbeq	r0, [r11, #-1]
.Ltmp151:
.LBB4_61:
	@DEBUG_VALUE: http_find_file:params <- $r11
	@DEBUG_VALUE: http_recv:arg <- $r4
	@DEBUG_VALUE: http_recv:pcb <- $r5
	@DEBUG_VALUE: http_recv:hs <- $r4
	@DEBUG_VALUE: http_find_file:uri <- $r8
	.loc	1 2048 16               @ ../User/Http/httpd.c:2048:16
	mov	r0, r8
	bl	fs_open
	mov	r9, r0
.Ltmp152:
	@DEBUG_VALUE: http_find_file:file <- $r9
	.loc	1 2050 13               @ ../User/Http/httpd.c:2050:13
	cbnz	r0, .LBB4_64
.Ltmp153:
@ %bb.62:
	@DEBUG_VALUE: http_find_file:file <- $r9
	@DEBUG_VALUE: http_find_file:params <- $r11
	@DEBUG_VALUE: http_find_file:uri <- $r8
	@DEBUG_VALUE: http_recv:arg <- $r4
	@DEBUG_VALUE: http_recv:pcb <- $r5
	@DEBUG_VALUE: http_recv:hs <- $r4
	@DEBUG_VALUE: http_find_file:uri <- [DW_OP_plus_uconst 8, DW_OP_deref] $sp
	.loc	1 0 13 is_stmt 0        @ ../User/Http/httpd.c:0:13
	add	r0, sp, #8
.Ltmp154:
	.loc	1 2052 20 is_stmt 1     @ ../User/Http/httpd.c:2052:20
	bl	http_get_404_file
.Ltmp155:
	.loc	1 2055 13               @ ../User/Http/httpd.c:2055:13
	cbz	r0, .LBB4_74
.Ltmp156:
@ %bb.63:
	@DEBUG_VALUE: http_find_file:file <- $r9
	@DEBUG_VALUE: http_find_file:uri <- [DW_OP_plus_uconst 8, DW_OP_deref] $sp
	@DEBUG_VALUE: http_find_file:params <- $r11
	@DEBUG_VALUE: http_recv:arg <- $r4
	@DEBUG_VALUE: http_recv:pcb <- $r5
	@DEBUG_VALUE: http_recv:hs <- $r4
	.loc	1 0 13 is_stmt 0        @ ../User/Http/httpd.c:0:13
	ldr.w	r8, [sp, #8]
	mov	r9, r0
.Ltmp157:
	@DEBUG_VALUE: http_find_file:file <- $r9
.LBB4_64:
	@DEBUG_VALUE: http_find_file:file <- $r9
	@DEBUG_VALUE: http_find_file:params <- $r11
	@DEBUG_VALUE: http_recv:arg <- $r4
	@DEBUG_VALUE: http_recv:pcb <- $r5
	@DEBUG_VALUE: http_recv:hs <- $r4
	@DEBUG_VALUE: http_find_file:uri <- $r8
	movw	r7, :lower16:g_pcSSIExtensions
	movs	r6, #0
.Ltmp158:
	.loc	1 2061 27 is_stmt 1     @ ../User/Http/httpd.c:2061:27
	strb.w	r6, [r4, #44]
.Ltmp159:
	@DEBUG_VALUE: http_find_file:loop <- 0
	.loc	1 0 27 is_stmt 0        @ ../User/Http/httpd.c:0:27
	movt	r7, :upper16:g_pcSSIExtensions
.Ltmp160:
.LBB4_65:                               @ =>This Inner Loop Header: Depth=1
	@DEBUG_VALUE: http_find_file:file <- $r9
	@DEBUG_VALUE: http_find_file:params <- $r11
	@DEBUG_VALUE: http_find_file:uri <- $r8
	@DEBUG_VALUE: http_recv:arg <- $r4
	@DEBUG_VALUE: http_recv:pcb <- $r5
	@DEBUG_VALUE: http_recv:hs <- $r4
	@DEBUG_VALUE: http_find_file:loop <- $r6
	.loc	1 2064 33 is_stmt 1     @ ../User/Http/httpd.c:2064:33
	ldr.w	r1, [r7, r6, lsl #2]
	.loc	1 2064 21 is_stmt 0     @ ../User/Http/httpd.c:2064:21
	mov	r0, r8
	bl	strstr
.Ltmp161:
	.loc	1 2064 21               @ ../User/Http/httpd.c:2064:21
	cbnz	r0, .LBB4_67
.Ltmp162:
@ %bb.66:                               @   in Loop: Header=BB4_65 Depth=1
	@DEBUG_VALUE: http_find_file:loop <- $r6
	@DEBUG_VALUE: http_find_file:file <- $r9
	@DEBUG_VALUE: http_find_file:params <- $r11
	@DEBUG_VALUE: http_find_file:uri <- $r8
	@DEBUG_VALUE: http_recv:arg <- $r4
	@DEBUG_VALUE: http_recv:pcb <- $r5
	@DEBUG_VALUE: http_recv:hs <- $r4
	.loc	1 0 0                   @ ../User/Http/httpd.c:0:0
	adds	r6, #1
.Ltmp163:
	@DEBUG_VALUE: http_find_file:loop <- $r6
	.loc	1 2062 13 is_stmt 1     @ ../User/Http/httpd.c:2062:13
	cmp	r6, #3
	bls	.LBB4_65
	b	.LBB4_69
.Ltmp164:
.LBB4_67:
	@DEBUG_VALUE: http_find_file:loop <- $r6
	@DEBUG_VALUE: http_find_file:file <- $r9
	@DEBUG_VALUE: http_find_file:params <- $r11
	@DEBUG_VALUE: http_find_file:uri <- $r8
	@DEBUG_VALUE: http_recv:arg <- $r4
	@DEBUG_VALUE: http_recv:pcb <- $r5
	@DEBUG_VALUE: http_recv:hs <- $r4
	.loc	1 0 13 is_stmt 0        @ ../User/Http/httpd.c:0:13
	movs	r0, #1
.Ltmp165:
.LBB4_68:
	@DEBUG_VALUE: http_find_file:file <- $r9
	@DEBUG_VALUE: http_recv:arg <- $r4
	@DEBUG_VALUE: http_recv:pcb <- $r5
	@DEBUG_VALUE: http_recv:hs <- $r4
	strb.w	r0, [r4, #44]
.Ltmp166:
.LBB4_69:
	@DEBUG_VALUE: http_find_file:file <- $r9
	@DEBUG_VALUE: http_recv:arg <- $r4
	@DEBUG_VALUE: http_recv:pcb <- $r5
	@DEBUG_VALUE: http_recv:hs <- $r4
	@DEBUG_VALUE: http_find_file:file <- $r9
	@DEBUG_VALUE: http_find_file:uri <- [DW_OP_plus_uconst 8, DW_OP_deref] $sp
	@DEBUG_VALUE: http_init_file:uri <- undef
	@DEBUG_VALUE: http_init_file:file <- $r9
	.loc	1 2089 9 is_stmt 1      @ ../User/Http/httpd.c:2089:9
	cmp.w	r9, #0
	beq	.LBB4_74
.Ltmp167:
.LBB4_70:
	@DEBUG_VALUE: http_find_file:file <- $r9
	@DEBUG_VALUE: http_find_file:uri <- [DW_OP_plus_uconst 8, DW_OP_deref] $sp
	@DEBUG_VALUE: http_recv:arg <- $r4
	@DEBUG_VALUE: http_recv:pcb <- $r5
	@DEBUG_VALUE: http_recv:hs <- $r4
	.loc	1 0 9 is_stmt 0         @ ../User/Http/httpd.c:0:9
	movs	r0, #0
.Ltmp168:
	.loc	1 2111 46 is_stmt 1     @ ../User/Http/httpd.c:2111:46
	cmp.w	r10, #0
.Ltmp169:
	.loc	1 2094 23               @ ../User/Http/httpd.c:2094:23
	strb.w	r0, [r4, #569]
	.loc	1 2093 23               @ ../User/Http/httpd.c:2093:23
	strh	r0, [r4, #40]
	.loc	1 2095 28               @ ../User/Http/httpd.c:2095:28
	ldr.w	r6, [r9]
	.loc	1 2095 20 is_stmt 0     @ ../User/Http/httpd.c:2095:20
	str	r6, [r4, #28]
	.loc	1 2096 32 is_stmt 1     @ ../User/Http/httpd.c:2096:32
	ldr.w	r8, [r9, #4]
	.loc	1 2097 21               @ ../User/Http/httpd.c:2097:21
	str	r6, [r4, #32]
	.loc	1 2103 21               @ ../User/Http/httpd.c:2103:21
	strb	r0, [r4, #24]
	.loc	1 2099 20               @ ../User/Http/httpd.c:2099:20
	strd	r9, r6, [r4]
	.loc	1 2096 24               @ ../User/Http/httpd.c:2096:24
	str.w	r8, [r4, #36]
	.loc	1 2102 18               @ ../User/Http/httpd.c:2102:18
	str.w	r8, [r4, #20]
.Ltmp170:
	.loc	1 2111 46               @ ../User/Http/httpd.c:2111:46
	beq	.LBB4_75
.Ltmp171:
@ %bb.71:
	@DEBUG_VALUE: http_find_file:file <- $r9
	@DEBUG_VALUE: http_find_file:uri <- [DW_OP_plus_uconst 8, DW_OP_deref] $sp
	@DEBUG_VALUE: http_recv:arg <- $r4
	@DEBUG_VALUE: http_recv:pcb <- $r5
	@DEBUG_VALUE: http_recv:hs <- $r4
	.loc	1 0 0 is_stmt 0         @ ../User/Http/httpd.c:0:0
	ldrb.w	r0, [r9, #16]
.Ltmp172:
	.loc	1 2111 46               @ ../User/Http/httpd.c:2111:46
	cbz	r0, .LBB4_75
.Ltmp173:
@ %bb.72:
	@DEBUG_VALUE: http_find_file:file <- $r9
	@DEBUG_VALUE: http_find_file:uri <- [DW_OP_plus_uconst 8, DW_OP_deref] $sp
	@DEBUG_VALUE: http_recv:arg <- $r4
	@DEBUG_VALUE: http_recv:pcb <- $r5
	@DEBUG_VALUE: http_recv:hs <- $r4
	.loc	1 2115 32 is_stmt 1     @ ../User/Http/httpd.c:2115:32
	adr	r1, .LCPI4_2
	mov	r0, r6
	mov	r2, r8
	bl	strnstr
.Ltmp174:
	@DEBUG_VALUE: file_start <- $r0
	.loc	1 2116 17               @ ../User/Http/httpd.c:2116:17
	cbz	r0, .LBB4_75
.Ltmp175:
@ %bb.73:
	@DEBUG_VALUE: file_start <- $r0
	@DEBUG_VALUE: http_find_file:file <- $r9
	@DEBUG_VALUE: http_find_file:uri <- [DW_OP_plus_uconst 8, DW_OP_deref] $sp
	@DEBUG_VALUE: http_recv:arg <- $r4
	@DEBUG_VALUE: http_recv:pcb <- $r5
	@DEBUG_VALUE: http_recv:hs <- $r4
	.loc	1 2118 42               @ ../User/Http/httpd.c:2118:42
	adds	r0, #4
.Ltmp176:
	.loc	1 2120 26               @ ../User/Http/httpd.c:2120:26
	add.w	r1, r8, r6
	.loc	1 2119 26               @ ../User/Http/httpd.c:2119:26
	str	r0, [r4, #4]
	.loc	1 2120 26               @ ../User/Http/httpd.c:2120:26
	subs	r0, r1, r0
	str	r0, [r4, #20]
	b	.LBB4_75
.Ltmp177:
.LBB4_74:
	@DEBUG_VALUE: http_find_file:file <- $r9
	@DEBUG_VALUE: http_find_file:uri <- [DW_OP_plus_uconst 8, DW_OP_deref] $sp
	@DEBUG_VALUE: http_recv:arg <- $r4
	@DEBUG_VALUE: http_recv:pcb <- $r5
	@DEBUG_VALUE: http_recv:hs <- $r4
	.loc	1 0 26 is_stmt 0        @ ../User/Http/httpd.c:0:26
	movs	r0, #0
.Ltmp178:
	.loc	1 2130 21 is_stmt 1     @ ../User/Http/httpd.c:2130:21
	strb	r0, [r4, #24]
	.loc	1 2129 18               @ ../User/Http/httpd.c:2129:18
	str	r0, [r4, #20]
	.loc	1 2127 20               @ ../User/Http/httpd.c:2127:20
	strd	r0, r0, [r4]
.Ltmp179:
.LBB4_75:
	@DEBUG_VALUE: http_find_file:file <- $r9
	@DEBUG_VALUE: http_find_file:uri <- [DW_OP_plus_uconst 8, DW_OP_deref] $sp
	@DEBUG_VALUE: http_recv:arg <- $r4
	@DEBUG_VALUE: http_recv:pcb <- $r5
	@DEBUG_VALUE: http_recv:hs <- $r4
	.loc	1 0 20 is_stmt 0        @ ../User/Http/httpd.c:0:20
	movs	r6, #0
	b	.LBB4_9
.Ltmp180:
	.p2align	2
@ %bb.76:
.LCPI4_0:
.L.str.12:
	.asciz	"GET \000\000\000"
.LCPI4_1:
.L.str.13:
	.asciz	" \000\000"
.LCPI4_2:
.L.str.17:
	.asciz	"\r\n\r\n\000\000\000"
.Lfunc_end4:
	.size	http_recv, .Lfunc_end4-http_recv
	.cfi_endproc
	.file	10 "C:\\Keil\\ARM\\ARMCLANG\\Bin\\..\\include" "string.h"
	.cantunwind
	.fnend
                                        @ -- End function
	.section	.text.http_err,"ax",%progbits
	.p2align	1               @ -- Begin function http_err
	.type	http_err,%function
	.code	16                      @ @http_err
	.thumb_func
http_err:
.Lfunc_begin5:
	.loc	1 2150 0 is_stmt 1      @ ../User/Http/httpd.c:2150:0
	.fnstart
	.cfi_startproc
@ %bb.0:
	@DEBUG_VALUE: http_err:arg <- $r0
	@DEBUG_VALUE: http_err:arg <- $r0
	@DEBUG_VALUE: http_err:err <- $r1
	.loc	1 2156 9 prologue_end   @ ../User/Http/httpd.c:2156:9
	cmp	r0, #0
.Ltmp181:
	@DEBUG_VALUE: http_err:hs <- $r0
	.loc	1 2158 9                @ ../User/Http/httpd.c:2158:9
	it	ne
	bne	http_state_free
.Ltmp182:
	.loc	1 2160 1                @ ../User/Http/httpd.c:2160:1
	bx	lr
.Ltmp183:
.Lfunc_end5:
	.size	http_err, .Lfunc_end5-http_err
	.cfi_endproc
	.cantunwind
	.fnend
                                        @ -- End function
	.section	.text.http_poll,"ax",%progbits
	.p2align	1               @ -- Begin function http_poll
	.type	http_poll,%function
	.code	16                      @ @http_poll
	.thumb_func
http_poll:
.Lfunc_begin6:
	.loc	1 2194 0                @ ../User/Http/httpd.c:2194:0
	.fnstart
	.cfi_startproc
@ %bb.0:
	.save	{r4, lr}
	push	{r4, lr}
	.cfi_def_cfa_offset 8
	.cfi_offset lr, -4
	.cfi_offset r4, -8
	@DEBUG_VALUE: http_poll:arg <- $r0
	@DEBUG_VALUE: http_poll:pcb <- $r1
.Ltmp184:
	@DEBUG_VALUE: http_poll:hs <- $r0
	mov	r4, r1
.Ltmp185:
	@DEBUG_VALUE: http_poll:pcb <- $r4
	.loc	1 2199 9 prologue_end   @ ../User/Http/httpd.c:2199:9
	cbz	r0, .LBB6_3
.Ltmp186:
@ %bb.1:
	@DEBUG_VALUE: http_poll:pcb <- $r4
	@DEBUG_VALUE: http_poll:hs <- $r0
	@DEBUG_VALUE: http_poll:arg <- $r0
	.loc	1 0 9 is_stmt 0         @ ../User/Http/httpd.c:0:9
	mov	r1, r0
.Ltmp187:
	@DEBUG_VALUE: http_poll:arg <- $r1
	@DEBUG_VALUE: http_poll:hs <- $r1
	.loc	1 2208 20 is_stmt 1     @ ../User/Http/httpd.c:2208:20
	ldrb	r0, [r0, #24]
	adds	r0, #1
	strb	r0, [r1, #24]
	uxtb	r0, r0
	.loc	1 2209 13               @ ../User/Http/httpd.c:2209:13
	cmp	r0, #4
	bne	.LBB6_6
.Ltmp188:
@ %bb.2:
	@DEBUG_VALUE: http_poll:hs <- $r1
	@DEBUG_VALUE: http_poll:arg <- $r1
	@DEBUG_VALUE: http_poll:pcb <- $r4
	.loc	1 2212 13               @ ../User/Http/httpd.c:2212:13
	mov	r0, r4
	b	.LBB6_4
.Ltmp189:
.LBB6_3:
	@DEBUG_VALUE: http_poll:pcb <- $r4
	@DEBUG_VALUE: http_poll:hs <- $r0
	@DEBUG_VALUE: http_poll:arg <- $r0
	.loc	1 2203 9                @ ../User/Http/httpd.c:2203:9
	mov	r0, r4
.Ltmp190:
	movs	r1, #0
.Ltmp191:
.LBB6_4:
	@DEBUG_VALUE: http_poll:pcb <- $r4
	.loc	1 0 0 is_stmt 0         @ ../User/Http/httpd.c:0:0
	bl	http_close_conn
.Ltmp192:
.LBB6_5:
	@DEBUG_VALUE: http_poll:pcb <- $r4
	.loc	1 2232 1 is_stmt 1      @ ../User/Http/httpd.c:2232:1
	movs	r0, #0
	pop	{r4, pc}
.Ltmp193:
.LBB6_6:
	@DEBUG_VALUE: http_poll:hs <- $r1
	@DEBUG_VALUE: http_poll:arg <- $r1
	@DEBUG_VALUE: http_poll:pcb <- $r4
	.loc	1 2219 24               @ ../User/Http/httpd.c:2219:24
	ldr	r0, [r1]
.Ltmp194:
	.loc	1 2219 13 is_stmt 0     @ ../User/Http/httpd.c:2219:13
	cmp	r0, #0
	beq	.LBB6_5
.Ltmp195:
@ %bb.7:
	@DEBUG_VALUE: http_poll:hs <- $r1
	@DEBUG_VALUE: http_poll:arg <- $r1
	@DEBUG_VALUE: http_poll:pcb <- $r4
	.loc	1 2222 17 is_stmt 1     @ ../User/Http/httpd.c:2222:17
	mov	r0, r4
	bl	http_send_data
.Ltmp196:
	.loc	1 2222 17 is_stmt 0     @ ../User/Http/httpd.c:2222:17
	cmp	r0, #0
	beq	.LBB6_5
.Ltmp197:
@ %bb.8:
	@DEBUG_VALUE: http_poll:pcb <- $r4
	.loc	1 2226 17 is_stmt 1     @ ../User/Http/httpd.c:2226:17
	mov	r0, r4
	bl	tcp_output
	b	.LBB6_5
.Ltmp198:
.Lfunc_end6:
	.size	http_poll, .Lfunc_end6-http_poll
	.cfi_endproc
	.cantunwind
	.fnend
                                        @ -- End function
	.section	.text.http_sent,"ax",%progbits
	.p2align	1               @ -- Begin function http_sent
	.type	http_sent,%function
	.code	16                      @ @http_sent
	.thumb_func
http_sent:
.Lfunc_begin7:
	.loc	1 2167 0                @ ../User/Http/httpd.c:2167:0
	.fnstart
	.cfi_startproc
@ %bb.0:
	@DEBUG_VALUE: http_sent:arg <- $r0
	@DEBUG_VALUE: http_sent:pcb <- $r1
	@DEBUG_VALUE: http_sent:len <- $r2
	@DEBUG_VALUE: http_sent:pcb <- $r1
	.loc	1 2174 9 prologue_end   @ ../User/Http/httpd.c:2174:9
	cbz	r0, .LBB7_2
.Ltmp199:
@ %bb.1:
	@DEBUG_VALUE: http_sent:len <- $r2
	@DEBUG_VALUE: http_sent:pcb <- $r1
	@DEBUG_VALUE: http_sent:arg <- $r0
	.save	{r7, lr}
	push	{r7, lr}
	.cfi_def_cfa_offset 8
	.cfi_offset lr, -4
	.cfi_offset r7, -8
	mov	r2, r0
.Ltmp200:
	@DEBUG_VALUE: http_sent:arg <- $r2
	@DEBUG_VALUE: http_sent:hs <- $r2
	.loc	1 0 9 is_stmt 0         @ ../User/Http/httpd.c:0:9
	movs	r0, #0
	.loc	1 2179 17 is_stmt 1     @ ../User/Http/httpd.c:2179:17
	strb	r0, [r2, #24]
	.loc	1 2181 5                @ ../User/Http/httpd.c:2181:5
	mov	r0, r1
	mov	r1, r2
.Ltmp201:
	bl	http_send_data
.Ltmp202:
	.loc	1 0 5 is_stmt 0         @ ../User/Http/httpd.c:0:5
	pop.w	{r7, lr}
.LBB7_2:
	.loc	1 2184 1 is_stmt 1      @ ../User/Http/httpd.c:2184:1
	movs	r0, #0
	bx	lr
.Ltmp203:
.Lfunc_end7:
	.size	http_sent, .Lfunc_end7-http_sent
	.cfi_endproc
	.cantunwind
	.fnend
                                        @ -- End function
	.section	.text.http_close_conn,"ax",%progbits
	.p2align	1               @ -- Begin function http_close_conn
	.type	http_close_conn,%function
	.code	16                      @ @http_close_conn
	.thumb_func
http_close_conn:
.Lfunc_begin8:
	.loc	1 503 0                 @ ../User/Http/httpd.c:503:0
	.fnstart
	.cfi_startproc
@ %bb.0:
	.save	{r4, r5, r7, lr}
	push	{r4, r5, r7, lr}
	.cfi_def_cfa_offset 16
	.cfi_offset lr, -4
	.cfi_offset r7, -8
	.cfi_offset r5, -12
	.cfi_offset r4, -16
	@DEBUG_VALUE: http_close_conn:pcb <- $r0
	@DEBUG_VALUE: http_close_conn:hs <- $r1
	mov	r5, r1
.Ltmp204:
	.loc	1 521 5 prologue_end    @ ../User/Http/httpd.c:521:5
	movs	r1, #0
.Ltmp205:
	.loc	1 0 5 is_stmt 0         @ ../User/Http/httpd.c:0:5
	mov	r4, r0
.Ltmp206:
	@DEBUG_VALUE: http_close_conn:hs <- $r5
	@DEBUG_VALUE: http_close_conn:pcb <- $r4
	.loc	1 521 5                 @ ../User/Http/httpd.c:521:5
	bl	tcp_arg
	.loc	1 522 5 is_stmt 1       @ ../User/Http/httpd.c:522:5
	mov	r0, r4
	movs	r1, #0
	bl	tcp_recv
	.loc	1 523 5                 @ ../User/Http/httpd.c:523:5
	mov	r0, r4
	movs	r1, #0
	bl	tcp_err
	.loc	1 524 5                 @ ../User/Http/httpd.c:524:5
	mov	r0, r4
	movs	r1, #0
	movs	r2, #0
	bl	tcp_poll
	.loc	1 525 5                 @ ../User/Http/httpd.c:525:5
	mov	r0, r4
	movs	r1, #0
	bl	tcp_sent
	.loc	1 526 5                 @ ../User/Http/httpd.c:526:5
	mov	r0, r5
.Ltmp207:
	@DEBUG_VALUE: http_close_conn:hs <- $r0
	bl	http_state_free
.Ltmp208:
	.loc	1 528 11                @ ../User/Http/httpd.c:528:11
	mov	r0, r4
	bl	tcp_close
.Ltmp209:
	@DEBUG_VALUE: http_close_conn:err <- $r0
	.loc	1 529 9                 @ ../User/Http/httpd.c:529:9
	cbz	r0, .LBB8_2
.Ltmp210:
@ %bb.1:
	@DEBUG_VALUE: http_close_conn:err <- $r0
	@DEBUG_VALUE: http_close_conn:pcb <- $r4
	.loc	1 533 9                 @ ../User/Http/httpd.c:533:9
	movw	r1, :lower16:http_poll
	mov	r0, r4
.Ltmp211:
	movs	r2, #4
	movt	r1, :upper16:http_poll
	pop.w	{r4, r5, r7, lr}
.Ltmp212:
	b	tcp_poll
.Ltmp213:
.LBB8_2:
	@DEBUG_VALUE: http_close_conn:err <- $r0
	@DEBUG_VALUE: http_close_conn:pcb <- $r4
	.loc	1 535 1                 @ ../User/Http/httpd.c:535:1
	pop	{r4, r5, r7, pc}
.Ltmp214:
.Lfunc_end8:
	.size	http_close_conn, .Lfunc_end8-http_close_conn
	.cfi_endproc
	.cantunwind
	.fnend
                                        @ -- End function
	.section	.text.http_send_data,"ax",%progbits
	.p2align	2               @ -- Begin function http_send_data
	.type	http_send_data,%function
	.code	16                      @ @http_send_data
	.thumb_func
http_send_data:
.Lfunc_begin9:
	.loc	1 800 0                 @ ../User/Http/httpd.c:800:0
	.fnstart
	.cfi_startproc
@ %bb.0:
	.save	{r4, r5, r6, r7, r8, r9, r10, r11, lr}
	push.w	{r4, r5, r6, r7, r8, r9, r10, r11, lr}
	.cfi_def_cfa_offset 36
	.cfi_offset lr, -4
	.cfi_offset r11, -8
	.cfi_offset r10, -12
	.cfi_offset r9, -16
	.cfi_offset r8, -20
	.cfi_offset r7, -24
	.cfi_offset r6, -28
	.cfi_offset r5, -32
	.cfi_offset r4, -36
	.pad	#20
	sub	sp, #20
	.cfi_def_cfa_offset 56
	@DEBUG_VALUE: http_send_data:pcb <- $r0
	@DEBUG_VALUE: http_send_data:hs <- $r1
.Ltmp215:
	@DEBUG_VALUE: get_tag_insert:hs <- $r1
	mov	r11, r0
.Ltmp216:
	@DEBUG_VALUE: http_send_data:err <- 0
	@DEBUG_VALUE: http_send_data:data_to_send <- 0
	@DEBUG_VALUE: http_send_data:hs <- $r4
	@DEBUG_VALUE: http_send_data:pcb <- $r11
	.loc	1 893 13 prologue_end   @ ../User/Http/httpd.c:893:13
	ldr	r0, [r1, #20]
	mov	r4, r1
.Ltmp217:
	@DEBUG_VALUE: get_tag_insert:hs <- $r4
	.loc	1 893 9 is_stmt 0       @ ../User/Http/httpd.c:893:9
	cbz	r0, .LBB9_7
.Ltmp218:
.LBB9_1:
	@DEBUG_VALUE: http_send_data:pcb <- $r11
	.loc	1 985 28 is_stmt 1      @ ../User/Http/httpd.c:985:28
	movw	r1, :lower16:HTTP_LogListTransfer
	movt	r1, :upper16:HTTP_LogListTransfer
	ldrb	r1, [r1]
	.loc	1 985 72 is_stmt 0      @ ../User/Http/httpd.c:985:72
	subs	r1, #40
	cmp	r1, #4
	bhi	.LBB9_12
.Ltmp219:
@ %bb.2:
	@DEBUG_VALUE: http_send_data:pcb <- $r11
	.loc	1 0 72                  @ ../User/Http/httpd.c:0:72
	movs	r2, #1
	lsl.w	r1, r2, r1
	tst.w	r1, #21
	beq	.LBB9_12
.Ltmp220:
.LBB9_3:
	@DEBUG_VALUE: http_send_data:pcb <- $r11
	movs	r0, #1
.Ltmp221:
	mov	r6, r11
.Ltmp222:
	.loc	1 991 17 is_stmt 1      @ ../User/Http/httpd.c:991:17
	strb.w	r0, [r4, #44]
.Ltmp223:
	.loc	1 0 0 is_stmt 0         @ ../User/Http/httpd.c:0:0
	ldrh	r2, [r6, #102]!
.Ltmp224:
.LBB9_4:
	@DEBUG_VALUE: http_send_data:pcb <- $r11
	.loc	1 1039 13 is_stmt 1     @ ../User/Http/httpd.c:1039:13
	strh.w	r2, [sp, #18]
.Ltmp225:
	.loc	1 1042 30               @ ../User/Http/httpd.c:1042:30
	ldr	r1, [r4, #4]
	.loc	1 1042 17 is_stmt 0     @ ../User/Http/httpd.c:1042:17
	ldr	r0, [r4, #28]
.Ltmp226:
	.loc	1 1042 13               @ ../User/Http/httpd.c:1042:13
	cmp	r0, r1
	bls	.LBB9_11
.Ltmp227:
@ %bb.5:
	@DEBUG_VALUE: http_send_data:pcb <- $r11
	.loc	1 1046 47 is_stmt 1     @ ../User/Http/httpd.c:1046:47
	subs	r3, r0, r1
.Ltmp228:
	.loc	1 1046 17 is_stmt 0     @ ../User/Http/httpd.c:1046:17
	cmp	r3, r2
	it	gt
	movgt	r3, r2
.Ltmp229:
	@DEBUG_VALUE: http_send_data:len <- $r3
	.loc	1 0 0                   @ ../User/Http/httpd.c:0:0
	strh.w	r3, [sp, #18]
.Ltmp230:
	.loc	1 1057 17 is_stmt 1     @ ../User/Http/httpd.c:1057:17
	uxth	r2, r3
.Ltmp231:
	.loc	1 1056 19               @ ../User/Http/httpd.c:1056:19
	ldrb.w	r0, [r11, #30]
	.loc	1 1062 19               @ ../User/Http/httpd.c:1062:19
	movs	r3, #1
.Ltmp232:
	.loc	1 1056 19               @ ../User/Http/httpd.c:1056:19
	lsls	r0, r0, #28
	ldrh.w	r0, [r11, #54]
	it	mi
	submi	r0, #12
.Ltmp233:
	@DEBUG_VALUE: http_send_data:mss <- $r0
	.loc	1 1057 28               @ ../User/Http/httpd.c:1057:28
	uxth	r0, r0
.Ltmp234:
	.loc	1 1057 17 is_stmt 0     @ ../User/Http/httpd.c:1057:17
	cmp.w	r2, r0, lsl #1
.Ltmp235:
	.loc	1 0 0                   @ ../User/Http/httpd.c:0:0
	itt	hi
	lslhi	r0, r0, #1
.Ltmp236:
	@DEBUG_VALUE: http_send_data:len <- undef
	.loc	1 1059 21 is_stmt 1     @ ../User/Http/httpd.c:1059:21
	strhhi.w	r0, [sp, #18]
.Ltmp237:
	@DEBUG_VALUE: http_send_data:len <- [DW_OP_plus_uconst 18, DW_OP_deref] $sp
	.loc	1 0 21 is_stmt 0        @ ../User/Http/httpd.c:0:21
	add.w	r2, sp, #18
.Ltmp238:
	.loc	1 1062 19 is_stmt 1     @ ../User/Http/httpd.c:1062:19
	mov	r0, r11
	bl	http_write
.Ltmp239:
	@DEBUG_VALUE: http_send_data:err <- $r0
	.loc	1 1063 17               @ ../User/Http/httpd.c:1063:17
	cbz	r0, .LBB9_15
.Ltmp240:
@ %bb.6:
	@DEBUG_VALUE: http_send_data:err <- $r0
	@DEBUG_VALUE: http_send_data:len <- [DW_OP_plus_uconst 18, DW_OP_deref] $sp
	@DEBUG_VALUE: http_send_data:pcb <- $r11
	.loc	1 0 17 is_stmt 0        @ ../User/Http/httpd.c:0:17
	movs	r5, #0
	b	.LBB9_16
.Ltmp241:
.LBB9_7:
	@DEBUG_VALUE: http_send_data:pcb <- $r11
	.loc	1 900 17 is_stmt 1      @ ../User/Http/httpd.c:900:17
	ldr	r0, [r4]
.Ltmp242:
	.loc	1 900 13 is_stmt 0      @ ../User/Http/httpd.c:900:13
	cmp	r0, #0
	beq.w	.LBB9_86
.Ltmp243:
@ %bb.8:
	@DEBUG_VALUE: http_send_data:pcb <- $r11
	.loc	1 906 13 is_stmt 1      @ ../User/Http/httpd.c:906:13
	bl	fs_bytes_left
.Ltmp244:
	.loc	1 906 13 is_stmt 0      @ ../User/Http/httpd.c:906:13
	cmp	r0, #0
	ble.w	.LBB9_86
.Ltmp245:
@ %bb.9:
	@DEBUG_VALUE: http_send_data:pcb <- $r11
	.loc	1 916 17 is_stmt 1      @ ../User/Http/httpd.c:916:17
	ldr	r1, [r4, #12]
.Ltmp246:
	.loc	1 916 13 is_stmt 0      @ ../User/Http/httpd.c:916:13
	cmp	r1, #0
	beq.w	.LBB9_88
.Ltmp247:
@ %bb.10:
	@DEBUG_VALUE: http_send_data:pcb <- $r11
	.loc	1 919 25 is_stmt 1      @ ../User/Http/httpd.c:919:25
	ldr	r6, [r4, #16]
.Ltmp248:
	@DEBUG_VALUE: count <- $r6
	.loc	1 0 25 is_stmt 0        @ ../User/Http/httpd.c:0:25
	b	.LBB9_93
.Ltmp249:
.LBB9_11:
	@DEBUG_VALUE: http_send_data:pcb <- $r11
	movs	r0, #0
	movs	r5, #0
	b	.LBB9_17
.Ltmp250:
.LBB9_12:
	@DEBUG_VALUE: http_send_data:pcb <- $r11
	.loc	1 988 4 is_stmt 1       @ ../User/Http/httpd.c:988:4
	movw	r1, :lower16:rubicon_http_cmd_state
	movt	r1, :upper16:rubicon_http_cmd_state
	ldrb	r1, [r1]
	.loc	1 988 64 is_stmt 0      @ ../User/Http/httpd.c:988:64
	orr	r1, r1, #4
	cmp	r1, #55
	beq	.LBB9_3
.Ltmp251:
@ %bb.13:
	@DEBUG_VALUE: http_send_data:pcb <- $r11
	.loc	1 0 0                   @ ../User/Http/httpd.c:0:0
	mov	r6, r11
	.loc	1 995 14 is_stmt 1      @ ../User/Http/httpd.c:995:14
	ldrb.w	r1, [r4, #44]
.Ltmp252:
	@DEBUG_VALUE: http_send_data:len <- undef
	.loc	1 0 0 is_stmt 0         @ ../User/Http/httpd.c:0:0
	ldrh	r2, [r6, #102]!
.Ltmp253:
	.loc	1 995 9                 @ ../User/Http/httpd.c:995:9
	cmp	r1, #0
	bne	.LBB9_4
.Ltmp254:
@ %bb.14:
	@DEBUG_VALUE: http_send_data:pcb <- $r11
	.loc	1 1004 13 is_stmt 1     @ ../User/Http/httpd.c:1004:13
	cmp	r0, r2
	it	hi
	movhi	r0, r2
.Ltmp255:
	@DEBUG_VALUE: http_send_data:len <- $r0
	.loc	1 0 0 is_stmt 0         @ ../User/Http/httpd.c:0:0
	strh.w	r0, [sp, #18]
	add.w	r2, sp, #18
	movs	r5, #0
.Ltmp256:
	.loc	1 1021 15 is_stmt 1     @ ../User/Http/httpd.c:1021:15
	movs	r3, #0
	.loc	1 1014 15               @ ../User/Http/httpd.c:1014:15
	ldrb.w	r1, [r11, #30]
.Ltmp257:
	.loc	1 1016 13               @ ../User/Http/httpd.c:1016:13
	uxth	r0, r0
.Ltmp258:
	.loc	1 1014 15               @ ../User/Http/httpd.c:1014:15
	lsls	r1, r1, #28
	ldrh.w	r1, [r11, #54]
	it	mi
	submi	r1, #12
.Ltmp259:
	@DEBUG_VALUE: http_send_data:mss <- $r1
	.loc	1 1016 24               @ ../User/Http/httpd.c:1016:24
	uxth	r1, r1
.Ltmp260:
	.loc	1 1016 13 is_stmt 0     @ ../User/Http/httpd.c:1016:13
	cmp.w	r0, r1, lsl #1
.Ltmp261:
	.loc	1 0 0                   @ ../User/Http/httpd.c:0:0
	itt	hi
	lslhi	r0, r1, #1
.Ltmp262:
	@DEBUG_VALUE: http_send_data:len <- undef
	.loc	1 1018 17 is_stmt 1     @ ../User/Http/httpd.c:1018:17
	strhhi.w	r0, [sp, #18]
.Ltmp263:
	.loc	1 1021 35               @ ../User/Http/httpd.c:1021:35
	ldr	r1, [r4, #4]
.Ltmp264:
	@DEBUG_VALUE: http_send_data:len <- [DW_OP_plus_uconst 18, DW_OP_deref] $sp
	.loc	1 1021 15 is_stmt 0     @ ../User/Http/httpd.c:1021:15
	mov	r0, r11
	b	.LBB9_82
.Ltmp265:
.LBB9_15:
	@DEBUG_VALUE: http_send_data:err <- $r0
	@DEBUG_VALUE: http_send_data:len <- [DW_OP_plus_uconst 18, DW_OP_deref] $sp
	@DEBUG_VALUE: http_send_data:pcb <- $r11
	@DEBUG_VALUE: http_send_data:data_to_send <- 1
	@DEBUG_VALUE: http_send_data:len <- undef
	.loc	1 1066 26 is_stmt 1     @ ../User/Http/httpd.c:1066:26
	ldr	r1, [r4, #4]
	.loc	1 1066 29 is_stmt 0     @ ../User/Http/httpd.c:1066:29
	ldrh.w	r3, [sp, #18]
	.loc	1 1067 26 is_stmt 1     @ ../User/Http/httpd.c:1067:26
	ldr	r2, [r4, #20]
	movs	r5, #1
	.loc	1 1066 26               @ ../User/Http/httpd.c:1066:26
	add	r1, r3
	str	r1, [r4, #4]
	.loc	1 1067 26               @ ../User/Http/httpd.c:1067:26
	subs	r1, r2, r3
	str	r1, [r4, #20]
.Ltmp266:
.LBB9_16:
	@DEBUG_VALUE: http_send_data:err <- $r0
	@DEBUG_VALUE: http_send_data:pcb <- $r11
	@DEBUG_VALUE: http_send_data:data_to_send <- $r5
	.loc	1 1071 17               @ ../User/Http/httpd.c:1071:17
	ldrh	r1, [r6]
.Ltmp267:
	.loc	1 1071 17 is_stmt 0     @ ../User/Http/httpd.c:1071:17
	cmp	r1, #0
	beq.w	.LBB9_87
.Ltmp268:
.LBB9_17:
	@DEBUG_VALUE: http_send_data:pcb <- $r11
	@DEBUG_VALUE: http_send_data:data_to_send <- $r5
	@DEBUG_VALUE: http_send_data:err <- $r0
	.loc	1 1081 9 is_stmt 1      @ ../User/Http/httpd.c:1081:9
	cmp	r0, #0
	bne.w	.LBB9_79
.Ltmp269:
@ %bb.18:
	@DEBUG_VALUE: http_send_data:data_to_send <- $r5
	@DEBUG_VALUE: http_send_data:err <- $r0
	@DEBUG_VALUE: http_send_data:pcb <- $r11
	.loc	1 0 0 is_stmt 0         @ ../User/Http/httpd.c:0:0
	ldr	r0, [r4, #36]
.Ltmp270:
	.loc	1 1081 9                @ ../User/Http/httpd.c:1081:9
	cmp	r0, #0
	beq.w	.LBB9_79
.Ltmp271:
@ %bb.19:
	@DEBUG_VALUE: http_send_data:data_to_send <- $r5
	@DEBUG_VALUE: http_send_data:pcb <- $r11
	.loc	1 0 9                   @ ../User/Http/httpd.c:0:9
	add.w	r1, r4, #66
	movw	r8, #19
	mov.w	r9, #1
	movs	r6, #0
	str	r1, [sp, #4]            @ 4-byte Spill
	add.w	r1, r4, #48
	movt	r8, #128
	str	r1, [sp, #8]            @ 4-byte Spill
	add.w	r1, r4, #46
	str	r1, [sp, #12]           @ 4-byte Spill
.Ltmp272:
	.p2align	2
.LBB9_20:                               @ =>This Loop Header: Depth=1
                                        @     Child Loop BB9_37 Depth 2
	@DEBUG_VALUE: http_send_data:data_to_send <- $r5
	@DEBUG_VALUE: http_send_data:pcb <- $r11
	@DEBUG_VALUE: http_send_data:data_to_send <- $r5
	@DEBUG_VALUE: http_send_data:err <- 0
	.loc	1 1084 17 is_stmt 1     @ ../User/Http/httpd.c:1084:17
	ldrh.w	r10, [sp, #18]
.Ltmp273:
	@DEBUG_VALUE: http_send_data:len <- undef
	.loc	1 1084 17 is_stmt 0     @ ../User/Http/httpd.c:1084:17
	cmp.w	r10, #0
	beq.w	.LBB9_87
.Ltmp274:
@ %bb.21:                               @   in Loop: Header=BB9_20 Depth=1
	@DEBUG_VALUE: http_send_data:data_to_send <- $r5
	@DEBUG_VALUE: http_send_data:pcb <- $r11
	.loc	1 1088 25 is_stmt 1     @ ../User/Http/httpd.c:1088:25
	ldrb.w	r1, [r4, #569]
	.loc	1 1088 13 is_stmt 0     @ ../User/Http/httpd.c:1088:13
	cmp	r1, #4
	bhi.w	.LBB9_72
.Ltmp275:
@ %bb.22:                               @   in Loop: Header=BB9_20 Depth=1
	@DEBUG_VALUE: http_send_data:data_to_send <- $r5
	@DEBUG_VALUE: http_send_data:pcb <- $r11
	.loc	1 0 13                  @ ../User/Http/httpd.c:0:13
.LCPI9_1:
	tbb	[pc, r1]
.Ltmp276:
@ %bb.23:
.LJTI9_0:
	.byte	(.LBB9_24-(.LCPI9_1+4))/2
	.byte	(.LBB9_25-(.LCPI9_1+4))/2
	.byte	(.LBB9_27-(.LCPI9_1+4))/2
	.byte	(.LBB9_30-(.LCPI9_1+4))/2
	.byte	(.LBB9_40-(.LCPI9_1+4))/2
	.p2align	1
.LBB9_24:                               @   in Loop: Header=BB9_20 Depth=1
.Ltmp277:
	@DEBUG_VALUE: http_send_data:data_to_send <- $r5
	@DEBUG_VALUE: http_send_data:pcb <- $r11
	.loc	1 1093 26 is_stmt 1     @ ../User/Http/httpd.c:1093:26
	ldr	r1, [r4, #28]
	.loc	1 1093 21 is_stmt 0     @ ../User/Http/httpd.c:1093:21
	ldrb	r2, [r1]
.Ltmp278:
	.loc	1 1093 21               @ ../User/Http/httpd.c:1093:21
	cmp	r2, #60
.Ltmp279:
	.loc	1 1098 35 is_stmt 1     @ ../User/Http/httpd.c:1098:35
	itt	eq
	strheq.w	r9, [r4, #40]
	.loc	1 1097 35               @ ../User/Http/httpd.c:1097:35
	strbeq.w	r9, [r4, #569]
	b	.LBB9_70
.Ltmp280:
.LBB9_25:                               @   in Loop: Header=BB9_20 Depth=1
	@DEBUG_VALUE: http_send_data:data_to_send <- $r5
	@DEBUG_VALUE: http_send_data:pcb <- $r11
	.loc	1 1114 25               @ ../User/Http/httpd.c:1114:25
	ldrh	r2, [r4, #40]
.Ltmp281:
	.loc	1 1114 21 is_stmt 0     @ ../User/Http/httpd.c:1114:21
	cmp	r2, #5
	bne.w	.LBB9_47
.Ltmp282:
@ %bb.26:                               @   in Loop: Header=BB9_20 Depth=1
	@DEBUG_VALUE: http_send_data:data_to_send <- $r5
	@DEBUG_VALUE: http_send_data:pcb <- $r11
	.loc	1 1117 35 is_stmt 1     @ ../User/Http/httpd.c:1117:35
	movs	r0, #2
	strb.w	r0, [r4, #569]
	b	.LBB9_63
.Ltmp283:
.LBB9_27:                               @   in Loop: Header=BB9_20 Depth=1
	@DEBUG_VALUE: http_send_data:data_to_send <- $r5
	@DEBUG_VALUE: http_send_data:pcb <- $r11
	.loc	1 0 0 is_stmt 0         @ ../User/Http/httpd.c:0:0
	ldr	r1, [r4, #28]
.Ltmp284:
	.loc	1 1147 26 is_stmt 1     @ ../User/Http/httpd.c:1147:26
	ldrh	r2, [r4, #40]
.Ltmp285:
	.loc	1 0 0 is_stmt 0         @ ../User/Http/httpd.c:0:0
	ldrb	r3, [r1]
.Ltmp286:
	.loc	1 1147 42               @ ../User/Http/httpd.c:1147:42
	cmp	r2, #0
.Ltmp287:
	.loc	1 1159 56 is_stmt 1     @ ../User/Http/httpd.c:1159:56
	sub.w	r7, r3, #9
.Ltmp288:
	.loc	1 1147 42               @ ../User/Http/httpd.c:1147:42
	beq.w	.LBB9_52
.Ltmp289:
@ %bb.28:                               @   in Loop: Header=BB9_20 Depth=1
	@DEBUG_VALUE: http_send_data:data_to_send <- $r5
	@DEBUG_VALUE: http_send_data:pcb <- $r11
	.loc	1 1159 56               @ ../User/Http/httpd.c:1159:56
	cmp	r7, #23
	bhi.w	.LBB9_54
.Ltmp290:
@ %bb.29:                               @   in Loop: Header=BB9_20 Depth=1
	@DEBUG_VALUE: http_send_data:data_to_send <- $r5
	@DEBUG_VALUE: http_send_data:pcb <- $r11
	.loc	1 0 56 is_stmt 0        @ ../User/Http/httpd.c:0:56
	lsl.w	r7, r9, r7
	tst.w	r7, r8
	bne.w	.LBB9_55
	b	.LBB9_54
.Ltmp291:
.LBB9_30:                               @   in Loop: Header=BB9_20 Depth=1
	@DEBUG_VALUE: http_send_data:data_to_send <- $r5
	@DEBUG_VALUE: http_send_data:pcb <- $r11
	ldr	r3, [r4, #28]
.Ltmp292:
	.loc	1 1211 26 is_stmt 1     @ ../User/Http/httpd.c:1211:26
	ldrh	r1, [r4, #40]
.Ltmp293:
	.loc	1 0 0 is_stmt 0         @ ../User/Http/httpd.c:0:0
	ldrb	r2, [r3]
.Ltmp294:
	.loc	1 1211 42               @ ../User/Http/httpd.c:1211:42
	cmp	r1, #0
	beq.w	.LBB9_58
.Ltmp295:
.LBB9_31:                               @   in Loop: Header=BB9_20 Depth=1
	@DEBUG_VALUE: http_send_data:data_to_send <- $r5
	@DEBUG_VALUE: http_send_data:pcb <- $r11
	.loc	1 0 0                   @ ../User/Http/httpd.c:0:0
	add.w	r8, r3, #1
	subs	r0, #1
	str.w	r8, [r4, #28]
	str	r0, [r4, #36]
	.loc	1 1222 36 is_stmt 1     @ ../User/Http/httpd.c:1222:36
	movw	r0, :lower16:.L.str.10
	movt	r0, :upper16:.L.str.10
	ldrb	r0, [r0, r1]
.Ltmp296:
	.loc	1 1222 21 is_stmt 0     @ ../User/Http/httpd.c:1222:21
	cmp	r2, r0
	bne.w	.LBB9_61
.Ltmp297:
@ %bb.32:                               @   in Loop: Header=BB9_20 Depth=1
	@DEBUG_VALUE: http_send_data:data_to_send <- $r5
	@DEBUG_VALUE: http_send_data:pcb <- $r11
	.loc	1 1232 25 is_stmt 1     @ ../User/Http/httpd.c:1232:25
	cmp	r1, #2
	bne.w	.LBB9_64
.Ltmp298:
@ %bb.33:                               @   in Loop: Header=BB9_20 Depth=1
	@DEBUG_VALUE: http_send_data:data_to_send <- $r5
	@DEBUG_VALUE: http_send_data:pcb <- $r11
	.loc	1 634 9                 @ ../User/Http/httpd.c:634:9
	movw	r0, :lower16:g_pfnSSIHandler
	movt	r0, :upper16:g_pfnSSIHandler
	ldr	r0, [r0]
.Ltmp299:
	@DEBUG_VALUE: get_tag_insert:loop <- 0
	.loc	1 634 25 is_stmt 0      @ ../User/Http/httpd.c:634:25
	cmp	r0, #0
	str	r0, [sp]                @ 4-byte Spill
	beq	.LBB9_39
.Ltmp300:
@ %bb.34:                               @   in Loop: Header=BB9_20 Depth=1
	@DEBUG_VALUE: http_send_data:data_to_send <- $r5
	@DEBUG_VALUE: http_send_data:pcb <- $r11
	.loc	1 0 0                   @ ../User/Http/httpd.c:0:0
	movw	r0, :lower16:g_ppcTags
	movt	r0, :upper16:g_ppcTags
	ldr	r6, [r0]
	.loc	1 634 25                @ ../User/Http/httpd.c:634:25
	cbz	r6, .LBB9_39
.Ltmp301:
@ %bb.35:                               @   in Loop: Header=BB9_20 Depth=1
	@DEBUG_VALUE: http_send_data:data_to_send <- $r5
	@DEBUG_VALUE: http_send_data:pcb <- $r11
	.loc	1 0 0                   @ ../User/Http/httpd.c:0:0
	movw	r0, :lower16:g_iNumTags
	movt	r0, :upper16:g_iNumTags
	ldr.w	r9, [r0]
	.loc	1 634 25                @ ../User/Http/httpd.c:634:25
	cmp.w	r9, #1
	blt	.LBB9_39
.Ltmp302:
@ %bb.36:                               @   in Loop: Header=BB9_20 Depth=1
	@DEBUG_VALUE: http_send_data:data_to_send <- $r5
	@DEBUG_VALUE: http_send_data:pcb <- $r11
	.loc	1 0 25                  @ ../User/Http/httpd.c:0:25
	movs	r7, #0
.Ltmp303:
	.p2align	2
.LBB9_37:                               @   Parent Loop BB9_20 Depth=1
                                        @ =>  This Inner Loop Header: Depth=2
	@DEBUG_VALUE: http_send_data:data_to_send <- $r5
	@DEBUG_VALUE: http_send_data:pcb <- $r11
	@DEBUG_VALUE: get_tag_insert:loop <- $r7
	.loc	1 640 40 is_stmt 1      @ ../User/Http/httpd.c:640:40
	ldr.w	r1, [r6, r7, lsl #2]
	.loc	1 640 17 is_stmt 0      @ ../User/Http/httpd.c:640:17
	ldr	r0, [sp, #12]           @ 4-byte Reload
	bl	strcmp
.Ltmp304:
	.loc	1 640 17                @ ../User/Http/httpd.c:640:17
	cmp	r0, #0
	beq.w	.LBB9_73
.Ltmp305:
@ %bb.38:                               @   in Loop: Header=BB9_37 Depth=2
	@DEBUG_VALUE: get_tag_insert:loop <- $r7
	@DEBUG_VALUE: http_send_data:data_to_send <- $r5
	@DEBUG_VALUE: http_send_data:pcb <- $r11
	.loc	1 638 47 is_stmt 1      @ ../User/Http/httpd.c:638:47
	adds	r7, #1
.Ltmp306:
	@DEBUG_VALUE: get_tag_insert:loop <- $r7
	.loc	1 638 9 is_stmt 0       @ ../User/Http/httpd.c:638:9
	cmp	r7, r9
	blt	.LBB9_37
.Ltmp307:
.LBB9_39:                               @   in Loop: Header=BB9_20 Depth=1
	@DEBUG_VALUE: http_send_data:data_to_send <- $r5
	@DEBUG_VALUE: http_send_data:pcb <- $r11
	.loc	1 0 9                   @ ../User/Http/httpd.c:0:9
	ldr.w	r9, [sp, #12]           @ 4-byte Reload
	mov	r0, r9
	.loc	1 663 11 is_stmt 1      @ ../User/Http/httpd.c:663:11
	bl	strlen
	mov	r7, r0
	adr	r0, .LCPI9_0
	.loc	1 665 5                 @ ../User/Http/httpd.c:665:5
	ldr	r3, .LCPI9_0
	mov	r6, r0
	ldr	r0, [r0, #4]
	.loc	1 663 11                @ ../User/Http/httpd.c:663:11
	cmp.w	r7, #494
	.loc	1 665 5                 @ ../User/Http/httpd.c:665:5
	ldrd	r1, r2, [r6, #8]
	ldr.w	r9, [sp, #8]            @ 4-byte Reload
	strd	r3, r0, [r9]
	ldrh	r0, [r6, #16]
	strd	r1, r2, [r9, #8]
	strh.w	r0, [r9, #16]
	.loc	1 663 11                @ ../User/Http/httpd.c:663:11
	it	hi
	movwhi	r7, #495
.Ltmp308:
	@DEBUG_VALUE: get_tag_insert:len <- $r7
	.loc	1 666 5                 @ ../User/Http/httpd.c:666:5
	ldr	r0, [sp, #4]            @ 4-byte Reload
	ldr	r1, [sp, #12]           @ 4-byte Reload
	mov	r2, r7
	bl	__aeabi_memcpy
	.loc	1 667 5                 @ ../User/Http/httpd.c:667:5
	movw	r1, #12092
	adds	r0, r4, r7
	movs	r6, #0
	movt	r1, #15970
	str.w	r1, [r0, #69]
	movw	r1, #10794
	movt	r1, #15402
	str.w	r1, [r0, #66]
	.loc	1 668 63                @ ../User/Http/httpd.c:668:63
	strb.w	r6, [r0, #73]
	.loc	1 670 11                @ ../User/Http/httpd.c:670:11
	mov	r0, r9
	bl	strlen
.Ltmp309:
	@DEBUG_VALUE: get_tag_insert:len <- $r0
	.loc	1 0 11 is_stmt 0        @ ../User/Http/httpd.c:0:11
	mov.w	r9, #1
	.loc	1 672 24 is_stmt 1      @ ../User/Http/httpd.c:672:24
	strh	r0, [r4, #42]
	b	.LBB9_74
.Ltmp310:
.LBB9_40:                               @   in Loop: Header=BB9_20 Depth=1
	@DEBUG_VALUE: http_send_data:data_to_send <- $r5
	@DEBUG_VALUE: http_send_data:pcb <- $r11
	.loc	1 1308 39               @ ../User/Http/httpd.c:1308:39
	ldr	r1, [r4, #4]
	.loc	1 1308 25 is_stmt 0     @ ../User/Http/httpd.c:1308:25
	ldr	r0, [r4, #32]
.Ltmp311:
	.loc	1 1308 21               @ ../User/Http/httpd.c:1308:21
	cmp	r0, r1
	bls	.LBB9_49
.Ltmp312:
@ %bb.41:                               @   in Loop: Header=BB9_20 Depth=1
	@DEBUG_VALUE: http_send_data:data_to_send <- $r5
	@DEBUG_VALUE: http_send_data:pcb <- $r11
	.loc	1 1312 43 is_stmt 1     @ ../User/Http/httpd.c:1312:43
	subs	r0, r0, r1
.Ltmp313:
	.loc	1 1312 25 is_stmt 0     @ ../User/Http/httpd.c:1312:25
	cmp	r0, r10
	bge	.LBB9_43
.Ltmp314:
@ %bb.42:                               @   in Loop: Header=BB9_20 Depth=1
	@DEBUG_VALUE: http_send_data:data_to_send <- $r5
	@DEBUG_VALUE: http_send_data:pcb <- $r11
	@DEBUG_VALUE: http_send_data:len <- $r0
	.loc	1 1314 29 is_stmt 1     @ ../User/Http/httpd.c:1314:29
	strh.w	r0, [sp, #18]
.Ltmp315:
	.loc	1 1324 25               @ ../User/Http/httpd.c:1324:25
	lsls	r0, r0, #16
.Ltmp316:
	beq	.LBB9_67
.Ltmp317:
.LBB9_43:                               @   in Loop: Header=BB9_20 Depth=1
	@DEBUG_VALUE: http_send_data:data_to_send <- $r5
	@DEBUG_VALUE: http_send_data:pcb <- $r11
	.loc	1 1326 63               @ ../User/Http/httpd.c:1326:63
	ldrb.w	r3, [r4, #44]
.Ltmp318:
	@DEBUG_VALUE: http_send_data:len <- [DW_OP_plus_uconst 18, DW_OP_deref] $sp
	.loc	1 1326 31 is_stmt 0     @ ../User/Http/httpd.c:1326:31
	mov	r0, r11
	add.w	r2, sp, #18
	.loc	1 1326 63               @ ../User/Http/httpd.c:1326:63
	cmp	r3, #0
	it	ne
	movne	r3, #1
	.loc	1 1326 31               @ ../User/Http/httpd.c:1326:31
	bl	http_write
.Ltmp319:
	@DEBUG_VALUE: http_send_data:err <- $r0
	.loc	1 1332 25 is_stmt 1     @ ../User/Http/httpd.c:1332:25
	cmp	r0, #0
	bne.w	.LBB9_79
.Ltmp320:
@ %bb.44:                               @   in Loop: Header=BB9_20 Depth=1
	@DEBUG_VALUE: http_send_data:data_to_send <- $r5
	@DEBUG_VALUE: http_send_data:err <- $r0
	@DEBUG_VALUE: http_send_data:len <- [DW_OP_plus_uconst 18, DW_OP_deref] $sp
	@DEBUG_VALUE: http_send_data:pcb <- $r11
	.loc	1 1342 34               @ ../User/Http/httpd.c:1342:34
	ldr	r1, [r4, #4]
	.loc	1 1342 37 is_stmt 0     @ ../User/Http/httpd.c:1342:37
	ldrh.w	r0, [sp, #18]
.Ltmp321:
.LBB9_45:                               @   in Loop: Header=BB9_20 Depth=1
	@DEBUG_VALUE: http_send_data:data_to_send <- $r5
	@DEBUG_VALUE: http_send_data:pcb <- $r11
	@DEBUG_VALUE: http_send_data:data_to_send <- 1
	@DEBUG_VALUE: http_send_data:len <- $r0
	.loc	1 1342 34               @ ../User/Http/httpd.c:1342:34
	add	r1, r0
	str	r1, [r4, #4]
	.loc	1 1343 34 is_stmt 1     @ ../User/Http/httpd.c:1343:34
	ldr	r1, [r4, #20]
	subs	r0, r1, r0
.Ltmp322:
.LBB9_46:                               @   in Loop: Header=BB9_20 Depth=1
	@DEBUG_VALUE: http_send_data:pcb <- $r11
	.loc	1 0 0 is_stmt 0         @ ../User/Http/httpd.c:0:0
	str	r0, [r4, #20]
	movs	r5, #1
	b	.LBB9_72
.Ltmp323:
.LBB9_47:                               @   in Loop: Header=BB9_20 Depth=1
	@DEBUG_VALUE: http_send_data:data_to_send <- $r5
	@DEBUG_VALUE: http_send_data:pcb <- $r11
	.loc	1 1122 40 is_stmt 1     @ ../User/Http/httpd.c:1122:40
	movw	r1, :lower16:.L.str.9
	movt	r1, :upper16:.L.str.9
	ldrb	r3, [r1, r2]
	.loc	1 1122 30 is_stmt 0     @ ../User/Http/httpd.c:1122:30
	ldr	r1, [r4, #28]
	.loc	1 1122 25               @ ../User/Http/httpd.c:1122:25
	ldrb	r7, [r1]
.Ltmp324:
	.loc	1 1122 25               @ ../User/Http/httpd.c:1122:25
	cmp	r7, r3
	bne	.LBB9_66
.Ltmp325:
@ %bb.48:                               @   in Loop: Header=BB9_20 Depth=1
	@DEBUG_VALUE: http_send_data:data_to_send <- $r5
	@DEBUG_VALUE: http_send_data:pcb <- $r11
	.loc	1 1126 38 is_stmt 1     @ ../User/Http/httpd.c:1126:38
	adds	r2, #1
	strh	r2, [r4, #40]
	b	.LBB9_70
.Ltmp326:
.LBB9_49:                               @   in Loop: Header=BB9_20 Depth=1
	@DEBUG_VALUE: http_send_data:data_to_send <- $r5
	@DEBUG_VALUE: http_send_data:pcb <- $r11
	.loc	1 1362 45               @ ../User/Http/httpd.c:1362:45
	ldrh	r1, [r4, #42]
	.loc	1 1362 29 is_stmt 0     @ ../User/Http/httpd.c:1362:29
	ldrh	r0, [r4, #40]
.Ltmp327:
	.loc	1 1362 25               @ ../User/Http/httpd.c:1362:25
	cmp	r1, r0
	bls	.LBB9_62
.Ltmp328:
@ %bb.50:                               @   in Loop: Header=BB9_20 Depth=1
	@DEBUG_VALUE: http_send_data:data_to_send <- $r5
	@DEBUG_VALUE: http_send_data:pcb <- $r11
	.loc	1 1366 55 is_stmt 1     @ ../User/Http/httpd.c:1366:55
	subs	r1, r1, r0
.Ltmp329:
	.loc	1 1375 49               @ ../User/Http/httpd.c:1375:49
	add	r0, r4
	.loc	1 1375 31 is_stmt 0     @ ../User/Http/httpd.c:1375:31
	add.w	r2, sp, #18
	movs	r3, #1
	.loc	1 1366 29 is_stmt 1     @ ../User/Http/httpd.c:1366:29
	cmp	r1, r10
.Ltmp330:
	@DEBUG_VALUE: http_send_data:len <- undef
	.loc	1 1368 33               @ ../User/Http/httpd.c:1368:33
	it	lt
	strhlt.w	r1, [sp, #18]
.Ltmp331:
	.loc	1 1375 49               @ ../User/Http/httpd.c:1375:49
	add.w	r1, r0, #48
.Ltmp332:
	@DEBUG_VALUE: http_send_data:len <- [DW_OP_plus_uconst 18, DW_OP_deref] $sp
	.loc	1 1375 31 is_stmt 0     @ ../User/Http/httpd.c:1375:31
	mov	r0, r11
	bl	http_write
.Ltmp333:
	@DEBUG_VALUE: http_send_data:err <- $r0
	.loc	1 1377 29 is_stmt 1     @ ../User/Http/httpd.c:1377:29
	cmp	r0, #0
	bne.w	.LBB9_79
.Ltmp334:
@ %bb.51:                               @   in Loop: Header=BB9_20 Depth=1
	@DEBUG_VALUE: http_send_data:data_to_send <- $r5
	@DEBUG_VALUE: http_send_data:err <- $r0
	@DEBUG_VALUE: http_send_data:len <- [DW_OP_plus_uconst 18, DW_OP_deref] $sp
	@DEBUG_VALUE: http_send_data:pcb <- $r11
	@DEBUG_VALUE: http_send_data:data_to_send <- 1
	.loc	1 1380 43               @ ../User/Http/httpd.c:1380:43
	ldrh	r0, [r4, #40]
.Ltmp335:
	.loc	1 1380 46 is_stmt 0     @ ../User/Http/httpd.c:1380:46
	ldrh.w	r1, [sp, #18]
.Ltmp336:
	@DEBUG_VALUE: http_send_data:len <- $r1
	.loc	1 0 46                  @ ../User/Http/httpd.c:0:46
	movs	r5, #1
	.loc	1 1380 43               @ ../User/Http/httpd.c:1380:43
	add	r0, r1
	strh	r0, [r4, #40]
	b	.LBB9_72
.Ltmp337:
.LBB9_52:                               @   in Loop: Header=BB9_20 Depth=1
	@DEBUG_VALUE: http_send_data:data_to_send <- $r5
	@DEBUG_VALUE: http_send_data:pcb <- $r11
	.loc	1 1147 67 is_stmt 1     @ ../User/Http/httpd.c:1147:67
	cmp	r7, #23
	bhi	.LBB9_54
.Ltmp338:
@ %bb.53:                               @   in Loop: Header=BB9_20 Depth=1
	@DEBUG_VALUE: http_send_data:data_to_send <- $r5
	@DEBUG_VALUE: http_send_data:pcb <- $r11
	.loc	1 0 67 is_stmt 0        @ ../User/Http/httpd.c:0:67
	lsl.w	r7, r9, r7
	tst.w	r7, r8
	bne	.LBB9_70
.Ltmp339:
.LBB9_54:                               @   in Loop: Header=BB9_20 Depth=1
	@DEBUG_VALUE: http_send_data:data_to_send <- $r5
	@DEBUG_VALUE: http_send_data:pcb <- $r11
	cmp	r3, #45
	bne	.LBB9_65
.Ltmp340:
.LBB9_55:                               @   in Loop: Header=BB9_20 Depth=1
	@DEBUG_VALUE: http_send_data:data_to_send <- $r5
	@DEBUG_VALUE: http_send_data:pcb <- $r11
	.loc	1 1164 25 is_stmt 1     @ ../User/Http/httpd.c:1164:25
	cbz	r2, .LBB9_66
.Ltmp341:
@ %bb.56:                               @   in Loop: Header=BB9_20 Depth=1
	@DEBUG_VALUE: http_send_data:data_to_send <- $r5
	@DEBUG_VALUE: http_send_data:pcb <- $r11
	.loc	1 1175 42               @ ../User/Http/httpd.c:1175:42
	strb.w	r2, [r4, #45]
	.loc	1 1173 39               @ ../User/Http/httpd.c:1173:39
	movs	r3, #3
	.loc	1 1176 25               @ ../User/Http/httpd.c:1176:25
	add	r2, r4
	.loc	1 1173 39               @ ../User/Http/httpd.c:1173:39
	strb.w	r3, [r4, #569]
	.loc	1 1176 53               @ ../User/Http/httpd.c:1176:53
	strb.w	r6, [r2, #46]
.Ltmp342:
	.loc	1 1177 29               @ ../User/Http/httpd.c:1177:29
	ldrb	r2, [r1]
.Ltmp343:
	.loc	1 1177 29 is_stmt 0     @ ../User/Http/httpd.c:1177:29
	cmp	r2, #45
	beq	.LBB9_69
.Ltmp344:
@ %bb.57:                               @   in Loop: Header=BB9_20 Depth=1
	@DEBUG_VALUE: http_send_data:data_to_send <- $r5
	@DEBUG_VALUE: http_send_data:pcb <- $r11
	.loc	1 1183 43 is_stmt 1     @ ../User/Http/httpd.c:1183:43
	strh	r6, [r4, #40]
	b	.LBB9_70
.Ltmp345:
.LBB9_58:                               @   in Loop: Header=BB9_20 Depth=1
	@DEBUG_VALUE: http_send_data:data_to_send <- $r5
	@DEBUG_VALUE: http_send_data:pcb <- $r11
	.loc	1 1211 67               @ ../User/Http/httpd.c:1211:67
	sub.w	r7, r2, #9
	cmp	r7, #23
	bhi.w	.LBB9_31
.Ltmp346:
@ %bb.59:                               @   in Loop: Header=BB9_20 Depth=1
	@DEBUG_VALUE: http_send_data:data_to_send <- $r5
	@DEBUG_VALUE: http_send_data:pcb <- $r11
	.loc	1 0 67 is_stmt 0        @ ../User/Http/httpd.c:0:67
	lsl.w	r7, r9, r7
	tst.w	r7, r8
	beq.w	.LBB9_31
.Ltmp347:
@ %bb.60:                               @   in Loop: Header=BB9_20 Depth=1
	@DEBUG_VALUE: http_send_data:data_to_send <- $r5
	@DEBUG_VALUE: http_send_data:pcb <- $r11
	.loc	1 1217 31 is_stmt 1     @ ../User/Http/httpd.c:1217:31
	adds	r1, r3, #1
	b	.LBB9_71
.Ltmp348:
.LBB9_61:                               @   in Loop: Header=BB9_20 Depth=1
	@DEBUG_VALUE: http_send_data:data_to_send <- $r5
	@DEBUG_VALUE: http_send_data:pcb <- $r11
	.loc	1 0 31 is_stmt 0        @ ../User/Http/httpd.c:0:31
	movs	r6, #0
.Ltmp349:
	.loc	1 1296 35 is_stmt 1     @ ../User/Http/httpd.c:1296:35
	strb.w	r6, [r4, #569]
	b	.LBB9_78
.Ltmp350:
.LBB9_62:                               @   in Loop: Header=BB9_20 Depth=1
	@DEBUG_VALUE: http_send_data:data_to_send <- $r5
	@DEBUG_VALUE: http_send_data:pcb <- $r11
	.loc	1 1390 39               @ ../User/Http/httpd.c:1390:39
	strb.w	r6, [r4, #569]
.Ltmp351:
.LBB9_63:                               @   in Loop: Header=BB9_20 Depth=1
	@DEBUG_VALUE: http_send_data:data_to_send <- $r5
	@DEBUG_VALUE: http_send_data:pcb <- $r11
	.loc	1 0 0 is_stmt 0         @ ../User/Http/httpd.c:0:0
	strh	r6, [r4, #40]
	b	.LBB9_72
.Ltmp352:
.LBB9_64:                               @   in Loop: Header=BB9_20 Depth=1
	@DEBUG_VALUE: http_send_data:data_to_send <- $r5
	@DEBUG_VALUE: http_send_data:pcb <- $r11
	.loc	1 1287 38 is_stmt 1     @ ../User/Http/httpd.c:1287:38
	adds	r0, r1, #1
	strh	r0, [r4, #40]
	b	.LBB9_77
.Ltmp353:
.LBB9_65:                               @   in Loop: Header=BB9_20 Depth=1
	@DEBUG_VALUE: http_send_data:data_to_send <- $r5
	@DEBUG_VALUE: http_send_data:pcb <- $r11
	.loc	1 0 38 is_stmt 0        @ ../User/Http/httpd.c:0:38
	cbz	r2, .LBB9_68
.Ltmp354:
.LBB9_66:                               @   in Loop: Header=BB9_20 Depth=1
	@DEBUG_VALUE: http_send_data:data_to_send <- $r5
	@DEBUG_VALUE: http_send_data:pcb <- $r11
	strb.w	r6, [r4, #569]
	b	.LBB9_70
.Ltmp355:
.LBB9_67:                               @   in Loop: Header=BB9_20 Depth=1
	@DEBUG_VALUE: http_send_data:data_to_send <- $r5
	@DEBUG_VALUE: http_send_data:pcb <- $r11
	movs	r0, #0
	b	.LBB9_45
.Ltmp356:
.LBB9_68:                               @   in Loop: Header=BB9_20 Depth=1
	@DEBUG_VALUE: http_send_data:data_to_send <- $r5
	@DEBUG_VALUE: http_send_data:pcb <- $r11
	.loc	1 1192 55 is_stmt 1     @ ../User/Http/httpd.c:1192:55
	strb.w	r3, [r4, #46]
.Ltmp357:
.LBB9_69:                               @   in Loop: Header=BB9_20 Depth=1
	@DEBUG_VALUE: http_send_data:data_to_send <- $r5
	@DEBUG_VALUE: http_send_data:pcb <- $r11
	.loc	1 0 0 is_stmt 0         @ ../User/Http/httpd.c:0:0
	strh.w	r9, [r4, #40]
.Ltmp358:
	.p2align	2
.LBB9_70:                               @   in Loop: Header=BB9_20 Depth=1
	@DEBUG_VALUE: http_send_data:data_to_send <- $r5
	@DEBUG_VALUE: http_send_data:pcb <- $r11
	adds	r1, #1
.Ltmp359:
.LBB9_71:                               @   in Loop: Header=BB9_20 Depth=1
	@DEBUG_VALUE: http_send_data:data_to_send <- $r5
	@DEBUG_VALUE: http_send_data:pcb <- $r11
	subs	r0, #1
	str	r1, [r4, #28]
	str	r0, [r4, #36]
.Ltmp360:
.LBB9_72:                               @   in Loop: Header=BB9_20 Depth=1
	@DEBUG_VALUE: http_send_data:pcb <- $r11
	@DEBUG_VALUE: http_send_data:data_to_send <- $r5
	@DEBUG_VALUE: http_send_data:err <- 0
	.loc	1 1081 21 is_stmt 1     @ ../User/Http/httpd.c:1081:21
	ldr	r0, [r4, #36]
	.loc	1 1081 9 is_stmt 0      @ ../User/Http/httpd.c:1081:9
	cmp	r0, #0
	bne.w	.LBB9_20
	b	.LBB9_79
.Ltmp361:
.LBB9_73:                               @   in Loop: Header=BB9_20 Depth=1
	@DEBUG_VALUE: get_tag_insert:loop <- $r7
	@DEBUG_VALUE: http_send_data:data_to_send <- $r5
	@DEBUG_VALUE: http_send_data:pcb <- $r11
	.loc	1 642 38 is_stmt 1      @ ../User/Http/httpd.c:642:38
	ldr	r1, [sp, #8]            @ 4-byte Reload
	ldr	r3, [sp]                @ 4-byte Reload
	mov	r0, r7
	mov.w	r2, #520
	blx	r3
	.loc	1 642 36 is_stmt 0      @ ../User/Http/httpd.c:642:36
	strh	r0, [r4, #42]
	mov.w	r9, #1
	movs	r6, #0
.Ltmp362:
	.loc	1 1246 43 is_stmt 1     @ ../User/Http/httpd.c:1246:43
	ldr.w	r8, [r4, #28]
.Ltmp363:
.LBB9_74:                               @   in Loop: Header=BB9_20 Depth=1
	@DEBUG_VALUE: http_send_data:data_to_send <- $r5
	@DEBUG_VALUE: http_send_data:pcb <- $r11
	.loc	1 1245 39               @ ../User/Http/httpd.c:1245:39
	movs	r0, #4
	strb.w	r0, [r4, #569]
	.loc	1 1244 39               @ ../User/Http/httpd.c:1244:39
	strh	r6, [r4, #40]
	.loc	1 1246 37               @ ../User/Http/httpd.c:1246:37
	str.w	r8, [r4, #32]
.Ltmp364:
	.loc	1 1253 47               @ ../User/Http/httpd.c:1253:47
	ldr	r1, [r4, #4]
.Ltmp365:
	.loc	1 1253 29 is_stmt 0     @ ../User/Http/httpd.c:1253:29
	cmp	r8, r1
	bls	.LBB9_77
.Ltmp366:
@ %bb.75:                               @   in Loop: Header=BB9_20 Depth=1
	@DEBUG_VALUE: http_send_data:data_to_send <- $r5
	@DEBUG_VALUE: http_send_data:pcb <- $r11
	.loc	1 1257 51 is_stmt 1     @ ../User/Http/httpd.c:1257:51
	sub.w	r0, r8, r1
.Ltmp367:
	.loc	1 1269 35               @ ../User/Http/httpd.c:1269:35
	add.w	r2, sp, #18
	.loc	1 1257 33               @ ../User/Http/httpd.c:1257:33
	cmp	r0, r10
.Ltmp368:
	@DEBUG_VALUE: http_send_data:len <- undef
	.loc	1 1259 37               @ ../User/Http/httpd.c:1259:37
	it	lt
	strhlt.w	r0, [sp, #18]
.Ltmp369:
	.loc	1 1269 35               @ ../User/Http/httpd.c:1269:35
	mov	r0, r11
	.loc	1 1269 67 is_stmt 0     @ ../User/Http/httpd.c:1269:67
	ldrb.w	r3, [r4, #44]
.Ltmp370:
	@DEBUG_VALUE: http_send_data:len <- [DW_OP_plus_uconst 18, DW_OP_deref] $sp
	cmp	r3, #0
	it	ne
	movne	r3, #1
	.loc	1 1269 35               @ ../User/Http/httpd.c:1269:35
	bl	http_write
.Ltmp371:
	@DEBUG_VALUE: http_send_data:err <- $r0
	.loc	1 0 35                  @ ../User/Http/httpd.c:0:35
	movw	r8, #19
	.loc	1 1270 33 is_stmt 1     @ ../User/Http/httpd.c:1270:33
	cmp	r0, #0
	mov.w	r6, #0
	movt	r8, #128
	bne	.LBB9_79
.Ltmp372:
@ %bb.76:                               @   in Loop: Header=BB9_20 Depth=1
	@DEBUG_VALUE: http_send_data:data_to_send <- $r5
	@DEBUG_VALUE: http_send_data:err <- $r0
	@DEBUG_VALUE: http_send_data:len <- [DW_OP_plus_uconst 18, DW_OP_deref] $sp
	@DEBUG_VALUE: http_send_data:pcb <- $r11
	@DEBUG_VALUE: http_send_data:data_to_send <- 1
	@DEBUG_VALUE: http_send_data:len <- undef
	.loc	1 1280 42               @ ../User/Http/httpd.c:1280:42
	ldr	r0, [r4, #4]
.Ltmp373:
	.loc	1 1280 45 is_stmt 0     @ ../User/Http/httpd.c:1280:45
	ldrh.w	r2, [sp, #18]
	.loc	1 1281 42 is_stmt 1     @ ../User/Http/httpd.c:1281:42
	ldr	r1, [r4, #20]
	.loc	1 1280 42               @ ../User/Http/httpd.c:1280:42
	add	r0, r2
	str	r0, [r4, #4]
	.loc	1 1281 42               @ ../User/Http/httpd.c:1281:42
	subs	r0, r1, r2
	b	.LBB9_46
.Ltmp374:
.LBB9_77:                               @   in Loop: Header=BB9_20 Depth=1
	@DEBUG_VALUE: http_send_data:data_to_send <- $r5
	@DEBUG_VALUE: http_send_data:pcb <- $r11
	.loc	1 0 42 is_stmt 0        @ ../User/Http/httpd.c:0:42
	movs	r6, #0
.Ltmp375:
.LBB9_78:                               @   in Loop: Header=BB9_20 Depth=1
	@DEBUG_VALUE: http_send_data:data_to_send <- $r5
	@DEBUG_VALUE: http_send_data:pcb <- $r11
	movw	r8, #19
	movt	r8, #128
	b	.LBB9_72
.Ltmp376:
.LBB9_79:
	@DEBUG_VALUE: http_send_data:data_to_send <- $r5
	@DEBUG_VALUE: http_send_data:pcb <- $r11
	@DEBUG_VALUE: http_send_data:data_to_send <- $r5
	.loc	1 1403 18 is_stmt 1     @ ../User/Http/httpd.c:1403:18
	ldrb.w	r0, [r4, #569]
	.loc	1 1403 44 is_stmt 0     @ ../User/Http/httpd.c:1403:44
	cmp	r0, #4
	beq	.LBB9_83
.Ltmp377:
@ %bb.80:
	@DEBUG_VALUE: http_send_data:data_to_send <- $r5
	@DEBUG_VALUE: http_send_data:pcb <- $r11
	.loc	1 1403 65               @ ../User/Http/httpd.c:1403:65
	ldr	r1, [r4, #4]
	.loc	1 1403 52               @ ../User/Http/httpd.c:1403:52
	ldr	r0, [r4, #28]
.Ltmp378:
	.loc	1 1403 13               @ ../User/Http/httpd.c:1403:13
	cmp	r0, r1
	bls	.LBB9_83
.Ltmp379:
@ %bb.81:
	@DEBUG_VALUE: http_send_data:data_to_send <- $r5
	@DEBUG_VALUE: http_send_data:pcb <- $r11
	.loc	1 1407 47 is_stmt 1     @ ../User/Http/httpd.c:1407:47
	subs	r2, r0, r1
	.loc	1 1407 17 is_stmt 0     @ ../User/Http/httpd.c:1407:17
	ldrh.w	r0, [r11, #102]
.Ltmp380:
	.loc	1 1407 17               @ ../User/Http/httpd.c:1407:17
	cmp	r2, r0
	it	gt
	movgt	r2, r0
.Ltmp381:
	@DEBUG_VALUE: http_send_data:len <- $r2
	.loc	1 0 0                   @ ../User/Http/httpd.c:0:0
	strh.w	r2, [sp, #18]
	mvn	r0, #23
.Ltmp382:
	.loc	1 1417 28 is_stmt 1     @ ../User/Http/httpd.c:1417:28
	ldrb.w	r7, [r11, #30]
	ldrh.w	r3, [r11, #54]
	.loc	1 1417 17 is_stmt 0     @ ../User/Http/httpd.c:1417:17
	uxth	r2, r2
.Ltmp383:
	.loc	1 1417 26               @ ../User/Http/httpd.c:1417:26
	add.w	r0, r0, r3, lsl #1
	lsls	r7, r7, #28
	it	pl
	lslpl	r0, r3, #1
.Ltmp384:
	.loc	1 1417 17               @ ../User/Http/httpd.c:1417:17
	cmp	r0, r2
.Ltmp385:
	@DEBUG_VALUE: http_send_data:len <- undef
	.loc	1 1419 21 is_stmt 1     @ ../User/Http/httpd.c:1419:21
	it	lt
	strhlt.w	r0, [sp, #18]
	add.w	r2, sp, #18
.Ltmp386:
	.loc	1 1422 51               @ ../User/Http/httpd.c:1422:51
	ldrb.w	r3, [r4, #44]
.Ltmp387:
	@DEBUG_VALUE: http_send_data:len <- [DW_OP_plus_uconst 18, DW_OP_deref] $sp
	.loc	1 1422 19 is_stmt 0     @ ../User/Http/httpd.c:1422:19
	mov	r0, r11
	.loc	1 1422 51               @ ../User/Http/httpd.c:1422:51
	cmp	r3, #0
	it	ne
	movne	r3, #1
.Ltmp388:
.LBB9_82:
	@DEBUG_VALUE: http_send_data:len <- [DW_OP_plus_uconst 18, DW_OP_deref] $sp
	@DEBUG_VALUE: http_send_data:pcb <- $r11
	.loc	1 0 0                   @ ../User/Http/httpd.c:0:0
	bl	http_write
.Ltmp389:
	@DEBUG_VALUE: http_send_data:err <- $r0
	cbz	r0, .LBB9_91
.Ltmp390:
.LBB9_83:
	@DEBUG_VALUE: http_send_data:pcb <- $r11
	.loc	1 1433 14 is_stmt 1     @ ../User/Http/httpd.c:1433:14
	ldr	r0, [r4, #20]
.Ltmp391:
.LBB9_84:
	@DEBUG_VALUE: http_send_data:pcb <- $r11
	@DEBUG_VALUE: http_send_data:data_to_send <- $r5
	.loc	1 1433 25 is_stmt 0     @ ../User/Http/httpd.c:1433:25
	cbnz	r0, .LBB9_87
.Ltmp392:
@ %bb.85:
	@DEBUG_VALUE: http_send_data:data_to_send <- $r5
	@DEBUG_VALUE: http_send_data:pcb <- $r11
	.loc	1 1433 47               @ ../User/Http/httpd.c:1433:47
	ldr	r0, [r4]
	.loc	1 1433 29               @ ../User/Http/httpd.c:1433:29
	bl	fs_bytes_left
.Ltmp393:
	.loc	1 1433 9                @ ../User/Http/httpd.c:1433:9
	cmp	r0, #0
	bgt	.LBB9_87
.Ltmp394:
.LBB9_86:
	@DEBUG_VALUE: http_send_data:pcb <- $r11
	.loc	1 0 0                   @ ../User/Http/httpd.c:0:0
	mov	r0, r11
	mov	r1, r4
	bl	http_close_conn
	movs	r5, #0
.Ltmp395:
.LBB9_87:
	@DEBUG_VALUE: http_send_data:pcb <- $r11
	.loc	1 1444 1 is_stmt 1      @ ../User/Http/httpd.c:1444:1
	uxtb	r0, r5
	add	sp, #20
	pop.w	{r4, r5, r6, r7, r8, r9, r10, r11, pc}
.Ltmp396:
.LBB9_88:
	@DEBUG_VALUE: http_send_data:pcb <- $r11
	.loc	1 924 25                @ ../User/Http/httpd.c:924:25
	ldrh.w	r0, [r11, #54]
	mvn	r1, #23
	movs	r5, #0
	.loc	1 924 23 is_stmt 0      @ ../User/Http/httpd.c:924:23
	add.w	r6, r1, r0, lsl #1
	.loc	1 924 25                @ ../User/Http/httpd.c:924:25
	ldrb.w	r1, [r11, #30]
	.loc	1 924 23                @ ../User/Http/httpd.c:924:23
	lsls	r1, r1, #28
	it	pl
	lslpl	r6, r0, #1
.Ltmp397:
	@DEBUG_VALUE: count <- $r6
	.p2align	2
.LBB9_89:                               @ =>This Inner Loop Header: Depth=1
	@DEBUG_VALUE: count <- $r6
	@DEBUG_VALUE: http_send_data:pcb <- $r11
	@DEBUG_VALUE: count <- $r6
	.loc	1 927 35 is_stmt 1      @ ../User/Http/httpd.c:927:35
	uxth	r0, r6
	bl	mem_malloc
	.loc	1 929 21                @ ../User/Http/httpd.c:929:21
	cmp	r0, #0
	.loc	1 927 25                @ ../User/Http/httpd.c:927:25
	str	r0, [r4, #12]
	.loc	1 929 21                @ ../User/Http/httpd.c:929:21
	bne	.LBB9_92
.Ltmp398:
@ %bb.90:                               @   in Loop: Header=BB9_89 Depth=1
	@DEBUG_VALUE: count <- $r6
	@DEBUG_VALUE: http_send_data:pcb <- $r11
	.loc	1 935 31                @ ../User/Http/httpd.c:935:31
	add.w	r0, r6, r6, lsr #31
	.loc	1 936 13                @ ../User/Http/httpd.c:936:13
	cmp	r6, #201
	.loc	1 935 31                @ ../User/Http/httpd.c:935:31
	asr.w	r0, r0, #1
.Ltmp399:
	@DEBUG_VALUE: count <- $r0
	.loc	1 0 0 is_stmt 0         @ ../User/Http/httpd.c:0:0
	mov	r6, r0
.Ltmp400:
	@DEBUG_VALUE: count <- $r6
	@DEBUG_VALUE: count <- $r6
	.loc	1 936 13 is_stmt 1      @ ../User/Http/httpd.c:936:13
	bgt	.LBB9_89
	b	.LBB9_87
.Ltmp401:
.LBB9_91:
	@DEBUG_VALUE: http_send_data:err <- $r0
	@DEBUG_VALUE: http_send_data:len <- [DW_OP_plus_uconst 18, DW_OP_deref] $sp
	@DEBUG_VALUE: http_send_data:pcb <- $r11
	@DEBUG_VALUE: http_send_data:data_to_send <- 1
	@DEBUG_VALUE: http_send_data:len <- undef
	.loc	1 0 0 is_stmt 0         @ ../User/Http/httpd.c:0:0
	ldr	r0, [r4, #4]
.Ltmp402:
	ldrh.w	r2, [sp, #18]
	ldr	r1, [r4, #20]
	movs	r5, #1
	add	r0, r2
	str	r0, [r4, #4]
	subs	r0, r1, r2
	str	r0, [r4, #20]
	b	.LBB9_84
.Ltmp403:
.LBB9_92:
	@DEBUG_VALUE: count <- $r6
	@DEBUG_VALUE: http_send_data:pcb <- $r11
	mov	r1, r0
.Ltmp404:
	.loc	1 931 33 is_stmt 1      @ ../User/Http/httpd.c:931:33
	str	r6, [r4, #16]
.Ltmp405:
.LBB9_93:
	@DEBUG_VALUE: count <- $r6
	@DEBUG_VALUE: http_send_data:pcb <- $r11
	@DEBUG_VALUE: count <- $r6
	.loc	1 950 29                @ ../User/Http/httpd.c:950:29
	ldr	r0, [r4]
	.loc	1 950 17 is_stmt 0      @ ../User/Http/httpd.c:950:17
	mov	r2, r6
	bl	fs_read
.Ltmp406:
	@DEBUG_VALUE: count <- $r0
	.loc	1 951 13 is_stmt 1      @ ../User/Http/httpd.c:951:13
	cmp.w	r0, #-1
	ble	.LBB9_95
.Ltmp407:
@ %bb.94:
	@DEBUG_VALUE: count <- $r0
	@DEBUG_VALUE: http_send_data:pcb <- $r11
	.loc	1 962 18                @ ../User/Http/httpd.c:962:18
	str	r0, [r4, #20]
	.loc	1 965 24                @ ../User/Http/httpd.c:965:24
	str	r0, [r4, #36]
	.loc	1 963 24                @ ../User/Http/httpd.c:963:24
	ldr	r1, [r4, #12]
	.loc	1 963 18 is_stmt 0      @ ../User/Http/httpd.c:963:18
	str	r1, [r4, #4]
	.loc	1 966 20 is_stmt 1      @ ../User/Http/httpd.c:966:20
	str	r1, [r4, #28]
	b	.LBB9_1
.Ltmp408:
.LBB9_95:
	@DEBUG_VALUE: count <- $r0
	@DEBUG_VALUE: http_send_data:pcb <- $r11
	.loc	1 956 13                @ ../User/Http/httpd.c:956:13
	mov	r0, r11
.Ltmp409:
	mov	r1, r4
	bl	http_close_conn
	movs	r5, #1
	b	.LBB9_87
.Ltmp410:
	.p2align	2
@ %bb.96:
	.loc	1 0 13 is_stmt 0        @ ../User/Http/httpd.c:0:13
.LCPI9_0:
.L.str.18:
	.asciz	"<b>***UNKNOWN TAG \000"
.Lfunc_end9:
	.size	http_send_data, .Lfunc_end9-http_send_data
	.cfi_endproc
	.cantunwind
	.fnend
                                        @ -- End function
	.section	.text.http_state_free,"ax",%progbits
	.p2align	1               @ -- Begin function http_state_free
	.type	http_state_free,%function
	.code	16                      @ @http_state_free
	.thumb_func
http_state_free:
.Lfunc_begin10:
	.loc	1 426 0 is_stmt 1       @ ../User/Http/httpd.c:426:0
	.fnstart
	.cfi_startproc
@ %bb.0:
	@DEBUG_VALUE: http_state_free:hs <- $r0
	.loc	1 427 9 prologue_end    @ ../User/Http/httpd.c:427:9
	cbz	r0, .LBB10_6
.Ltmp411:
@ %bb.1:
	@DEBUG_VALUE: http_state_free:hs <- $r0
	.save	{r4, lr}
	push	{r4, lr}
	.cfi_def_cfa_offset 8
	.cfi_offset lr, -4
	.cfi_offset r4, -8
	mov	r4, r0
.Ltmp412:
	@DEBUG_VALUE: http_state_free:hs <- $r4
	.loc	1 429 17                @ ../User/Http/httpd.c:429:17
	ldr	r0, [r0]
.Ltmp413:
	.loc	1 429 13 is_stmt 0      @ ../User/Http/httpd.c:429:13
	cbz	r0, .LBB10_3
.Ltmp414:
@ %bb.2:
	@DEBUG_VALUE: http_state_free:hs <- $r4
	.loc	1 437 13 is_stmt 1      @ ../User/Http/httpd.c:437:13
	bl	fs_close
	movs	r0, #0
	.loc	1 438 24                @ ../User/Http/httpd.c:438:24
	str	r0, [r4]
.Ltmp415:
.LBB10_3:
	@DEBUG_VALUE: http_state_free:hs <- $r4
	.loc	1 441 17                @ ../User/Http/httpd.c:441:17
	ldr	r0, [r4, #12]
.Ltmp416:
	.loc	1 441 13 is_stmt 0      @ ../User/Http/httpd.c:441:13
	cbz	r0, .LBB10_5
.Ltmp417:
@ %bb.4:
	@DEBUG_VALUE: http_state_free:hs <- $r4
	.loc	1 443 13 is_stmt 1      @ ../User/Http/httpd.c:443:13
	bl	mem_free
	movs	r0, #0
	.loc	1 444 21                @ ../User/Http/httpd.c:444:21
	str	r0, [r4, #12]
.Ltmp418:
.LBB10_5:
	@DEBUG_VALUE: http_state_free:hs <- $r4
	.loc	1 450 9                 @ ../User/Http/httpd.c:450:9
	mov	r0, r4
	pop.w	{r4, lr}
.Ltmp419:
	b	mem_free
.Ltmp420:
.LBB10_6:
	@DEBUG_VALUE: http_state_free:hs <- $r0
	.loc	1 453 1                 @ ../User/Http/httpd.c:453:1
	bx	lr
.Ltmp421:
.Lfunc_end10:
	.size	http_state_free, .Lfunc_end10-http_state_free
	.cfi_endproc
	.cantunwind
	.fnend
                                        @ -- End function
	.section	.text.strnstr,"ax",%progbits
	.p2align	1               @ -- Begin function strnstr
	.type	strnstr,%function
	.code	16                      @ @strnstr
	.thumb_func
strnstr:
.Lfunc_begin11:
	.loc	1 383 0                 @ ../User/Http/httpd.c:383:0
	.fnstart
	.cfi_startproc
@ %bb.0:
	.save	{r4, r5, r6, r7, lr}
	push	{r4, r5, r6, r7, lr}
	.cfi_def_cfa_offset 20
	.cfi_offset lr, -4
	.cfi_offset r7, -8
	.cfi_offset r6, -12
	.cfi_offset r5, -16
	.cfi_offset r4, -20
	.pad	#4
	sub	sp, #4
	.cfi_def_cfa_offset 24
	@DEBUG_VALUE: strnstr:buffer <- $r0
	@DEBUG_VALUE: strnstr:token <- $r1
	@DEBUG_VALUE: strnstr:n <- $r2
.Ltmp422:
	@DEBUG_VALUE: strnstr:p <- $r0
	mov	r4, r0
.Ltmp423:
	@DEBUG_VALUE: strnstr:p <- $r4
	@DEBUG_VALUE: strnstr:n <- $r7
	@DEBUG_VALUE: strnstr:token <- $r5
	@DEBUG_VALUE: strnstr:buffer <- $r4
	.loc	1 385 26 prologue_end   @ ../User/Http/httpd.c:385:26
	mov	r0, r1
	mov	r7, r2
.Ltmp424:
	.loc	1 0 26 is_stmt 0        @ ../User/Http/httpd.c:0:26
	mov	r5, r1
.Ltmp425:
	.loc	1 385 26                @ ../User/Http/httpd.c:385:26
	bl	strlen
	.loc	1 386 9 is_stmt 1       @ ../User/Http/httpd.c:386:9
	cbz	r0, .LBB11_8
.Ltmp426:
@ %bb.1:
	@DEBUG_VALUE: strnstr:buffer <- $r4
	@DEBUG_VALUE: strnstr:p <- $r4
	.loc	1 0 0 is_stmt 0         @ ../User/Http/httpd.c:0:0
	mov	r6, r0
.Ltmp427:
	@DEBUG_VALUE: strnstr:tokenlen <- $r6
	.loc	1 390 22 is_stmt 1      @ ../User/Http/httpd.c:390:22
	ldrb	r0, [r4]
	.loc	1 390 25 is_stmt 0      @ ../User/Http/httpd.c:390:25
	cbz	r0, .LBB11_7
.Ltmp428:
@ %bb.2:
	@DEBUG_VALUE: strnstr:tokenlen <- $r6
	@DEBUG_VALUE: strnstr:buffer <- $r4
	@DEBUG_VALUE: strnstr:p <- $r4
	.loc	1 0 25                  @ ../User/Http/httpd.c:0:25
	add	r7, r4
.Ltmp429:
	.p2align	2
.LBB11_3:                               @ =>This Inner Loop Header: Depth=1
	@DEBUG_VALUE: strnstr:tokenlen <- $r6
	@DEBUG_VALUE: strnstr:buffer <- $r4
	@DEBUG_VALUE: strnstr:p <- $r4
	@DEBUG_VALUE: strnstr:p <- $r4
	.loc	1 390 42                @ ../User/Http/httpd.c:390:42
	adds	r1, r4, r6
.Ltmp430:
	.loc	1 390 5                 @ ../User/Http/httpd.c:390:5
	cmp	r1, r7
	bhi	.LBB11_7
.Ltmp431:
@ %bb.4:                                @   in Loop: Header=BB11_3 Depth=1
	@DEBUG_VALUE: strnstr:tokenlen <- $r6
	@DEBUG_VALUE: strnstr:buffer <- $r4
	@DEBUG_VALUE: strnstr:p <- $r4
	.loc	1 392 20 is_stmt 1      @ ../User/Http/httpd.c:392:20
	ldrb	r1, [r5]
	.loc	1 392 28 is_stmt 0      @ ../User/Http/httpd.c:392:28
	cmp	r0, r1
	bne	.LBB11_6
.Ltmp432:
@ %bb.5:                                @   in Loop: Header=BB11_3 Depth=1
	@DEBUG_VALUE: strnstr:tokenlen <- $r6
	@DEBUG_VALUE: strnstr:buffer <- $r4
	@DEBUG_VALUE: strnstr:p <- $r4
	.loc	1 392 32                @ ../User/Http/httpd.c:392:32
	mov	r0, r4
	mov	r1, r5
	mov	r2, r6
	bl	strncmp
.Ltmp433:
	.loc	1 392 13                @ ../User/Http/httpd.c:392:13
	cbz	r0, .LBB11_8
.Ltmp434:
.LBB11_6:                               @   in Loop: Header=BB11_3 Depth=1
	@DEBUG_VALUE: strnstr:tokenlen <- $r6
	@DEBUG_VALUE: strnstr:buffer <- $r4
	@DEBUG_VALUE: strnstr:p <- $r4
	@DEBUG_VALUE: strnstr:p <- $r4
	.loc	1 390 22 is_stmt 1      @ ../User/Http/httpd.c:390:22
	ldrb	r0, [r4, #1]!
.Ltmp435:
	.loc	1 390 25 is_stmt 0      @ ../User/Http/httpd.c:390:25
	cmp	r0, #0
	bne	.LBB11_3
.Ltmp436:
.LBB11_7:
	@DEBUG_VALUE: strnstr:tokenlen <- $r6
	.loc	1 0 25                  @ ../User/Http/httpd.c:0:25
	movs	r4, #0
.Ltmp437:
.LBB11_8:
	.loc	1 398 1 is_stmt 1       @ ../User/Http/httpd.c:398:1
	mov	r0, r4
	add	sp, #4
	pop	{r4, r5, r6, r7, pc}
.Ltmp438:
.Lfunc_end11:
	.size	strnstr, .Lfunc_end11-strnstr
	.cfi_endproc
	.cantunwind
	.fnend
                                        @ -- End function
	.section	.text.http_get_404_file,"ax",%progbits
	.p2align	1               @ -- Begin function http_get_404_file
	.type	http_get_404_file,%function
	.code	16                      @ @http_get_404_file
	.thumb_func
http_get_404_file:
.Lfunc_begin12:
	.loc	1 1502 0                @ ../User/Http/httpd.c:1502:0
	.fnstart
	.cfi_startproc
@ %bb.0:
	.save	{r4, lr}
	push	{r4, lr}
	.cfi_def_cfa_offset 8
	.cfi_offset lr, -4
	.cfi_offset r4, -8
	@DEBUG_VALUE: http_get_404_file:uri <- $r0
	mov	r4, r0
.Ltmp439:
	@DEBUG_VALUE: http_get_404_file:uri <- $r4
	.loc	1 1505 10 prologue_end  @ ../User/Http/httpd.c:1505:10
	movw	r0, :lower16:.L.str.14
	movt	r0, :upper16:.L.str.14
	str	r0, [r4]
	.loc	1 1506 12               @ ../User/Http/httpd.c:1506:12
	bl	fs_open
.Ltmp440:
	@DEBUG_VALUE: http_get_404_file:file <- $r0
	.loc	1 1507 9                @ ../User/Http/httpd.c:1507:9
	cbnz	r0, .LBB12_3
.Ltmp441:
@ %bb.1:
	@DEBUG_VALUE: http_get_404_file:file <- $r0
	@DEBUG_VALUE: http_get_404_file:uri <- $r4
	.loc	1 1510 14               @ ../User/Http/httpd.c:1510:14
	movw	r0, :lower16:.L.str.15
.Ltmp442:
	movt	r0, :upper16:.L.str.15
	str	r0, [r4]
	.loc	1 1511 16               @ ../User/Http/httpd.c:1511:16
	bl	fs_open
.Ltmp443:
	@DEBUG_VALUE: http_get_404_file:file <- $r0
	.loc	1 1512 13               @ ../User/Http/httpd.c:1512:13
	cbnz	r0, .LBB12_3
.Ltmp444:
@ %bb.2:
	@DEBUG_VALUE: http_get_404_file:file <- $r0
	@DEBUG_VALUE: http_get_404_file:uri <- $r4
	.loc	1 1515 18               @ ../User/Http/httpd.c:1515:18
	movw	r0, :lower16:.L.str.16
.Ltmp445:
	movt	r0, :upper16:.L.str.16
	str	r0, [r4]
	.loc	1 1516 20               @ ../User/Http/httpd.c:1516:20
	bl	fs_open
.Ltmp446:
	@DEBUG_VALUE: http_get_404_file:file <- $r0
	.loc	1 1517 17               @ ../User/Http/httpd.c:1517:17
	cbz	r0, .LBB12_4
.Ltmp447:
.LBB12_3:
	@DEBUG_VALUE: http_get_404_file:file <- $r0
	@DEBUG_VALUE: http_get_404_file:uri <- $r4
	@DEBUG_VALUE: http_get_404_file:file <- $r0
	.loc	1 1527 5                @ ../User/Http/httpd.c:1527:5
	pop	{r4, pc}
.Ltmp448:
.LBB12_4:
	@DEBUG_VALUE: http_get_404_file:file <- $r0
	@DEBUG_VALUE: http_get_404_file:uri <- $r4
	.loc	1 0 5 is_stmt 0         @ ../User/Http/httpd.c:0:5
	movs	r0, #0
.Ltmp449:
	.loc	1 1522 22 is_stmt 1     @ ../User/Http/httpd.c:1522:22
	str	r0, [r4]
.Ltmp450:
	@DEBUG_VALUE: http_get_404_file:file <- $r0
	.loc	1 1527 5                @ ../User/Http/httpd.c:1527:5
	pop	{r4, pc}
.Ltmp451:
.Lfunc_end12:
	.size	http_get_404_file, .Lfunc_end12-http_get_404_file
	.cfi_endproc
	.cantunwind
	.fnend
                                        @ -- End function
	.section	.text.http_write,"ax",%progbits
	.p2align	1               @ -- Begin function http_write
	.type	http_write,%function
	.code	16                      @ @http_write
	.thumb_func
http_write:
.Lfunc_begin13:
	.loc	1 465 0                 @ ../User/Http/httpd.c:465:0
	.fnstart
	.cfi_startproc
@ %bb.0:
	.save	{r4, r5, r6, r7, r8, r9, lr}
	push.w	{r4, r5, r6, r7, r8, r9, lr}
	.cfi_def_cfa_offset 28
	.cfi_offset lr, -4
	.cfi_offset r9, -8
	.cfi_offset r8, -12
	.cfi_offset r7, -16
	.cfi_offset r6, -20
	.cfi_offset r5, -24
	.cfi_offset r4, -28
	.pad	#4
	sub	sp, #4
	.cfi_def_cfa_offset 32
	@DEBUG_VALUE: http_write:pcb <- $r0
	@DEBUG_VALUE: http_write:ptr <- $r1
	@DEBUG_VALUE: http_write:length <- $r2
	@DEBUG_VALUE: http_write:apiflags <- $r3
.Ltmp452:
	.loc	1 469 11 prologue_end   @ ../User/Http/httpd.c:469:11
	ldrh	r5, [r2]
.Ltmp453:
	@DEBUG_VALUE: http_write:len <- undef
	.loc	1 0 11 is_stmt 0        @ ../User/Http/httpd.c:0:11
	mov	r9, r3
	mov	r8, r2
	mov	r6, r1
	mov	r7, r0
.Ltmp454:
	@DEBUG_VALUE: http_write:apiflags <- $r9
	@DEBUG_VALUE: http_write:length <- $r8
	@DEBUG_VALUE: http_write:ptr <- $r6
	@DEBUG_VALUE: http_write:pcb <- $r7
	.p2align	2
.LBB13_1:                               @ =>This Inner Loop Header: Depth=1
	@DEBUG_VALUE: http_write:pcb <- $r7
	@DEBUG_VALUE: http_write:ptr <- $r6
	@DEBUG_VALUE: http_write:length <- $r8
	@DEBUG_VALUE: http_write:apiflags <- $r9
	@DEBUG_VALUE: http_write:len <- $r5
	.loc	1 474 15 is_stmt 1      @ ../User/Http/httpd.c:474:15
	uxth	r4, r5
	mov	r0, r7
	mov	r1, r6
	mov	r3, r9
	mov	r2, r4
	bl	tcp_write
.Ltmp455:
	@DEBUG_VALUE: http_write:err <- $r0
	.loc	1 476 13                @ ../User/Http/httpd.c:476:13
	adds	r1, r0, #1
	bne	.LBB13_6
.Ltmp456:
@ %bb.2:                                @   in Loop: Header=BB13_1 Depth=1
	@DEBUG_VALUE: http_write:err <- $r0
	@DEBUG_VALUE: http_write:len <- $r5
	@DEBUG_VALUE: http_write:pcb <- $r7
	@DEBUG_VALUE: http_write:ptr <- $r6
	@DEBUG_VALUE: http_write:length <- $r8
	@DEBUG_VALUE: http_write:apiflags <- $r9
	.loc	1 478 18                @ ../User/Http/httpd.c:478:18
	ldrh.w	r1, [r7, #102]
	.loc	1 478 40 is_stmt 0      @ ../User/Http/httpd.c:478:40
	cbz	r1, .LBB13_5
.Ltmp457:
@ %bb.3:                                @   in Loop: Header=BB13_1 Depth=1
	@DEBUG_VALUE: http_write:err <- $r0
	@DEBUG_VALUE: http_write:len <- $r5
	@DEBUG_VALUE: http_write:pcb <- $r7
	@DEBUG_VALUE: http_write:ptr <- $r6
	@DEBUG_VALUE: http_write:length <- $r8
	@DEBUG_VALUE: http_write:apiflags <- $r9
	.loc	1 478 49                @ ../User/Http/httpd.c:478:49
	ldrh.w	r1, [r7, #104]
.Ltmp458:
	.loc	1 478 17                @ ../User/Http/httpd.c:478:17
	cmp	r1, #7
	bhi	.LBB13_5
.Ltmp459:
@ %bb.4:                                @   in Loop: Header=BB13_1 Depth=1
	@DEBUG_VALUE: http_write:err <- $r0
	@DEBUG_VALUE: http_write:len <- $r5
	@DEBUG_VALUE: http_write:pcb <- $r7
	@DEBUG_VALUE: http_write:ptr <- $r6
	@DEBUG_VALUE: http_write:length <- $r8
	@DEBUG_VALUE: http_write:apiflags <- $r9
	.loc	1 485 21 is_stmt 1      @ ../User/Http/httpd.c:485:21
	lsrs	r5, r4, #1
.Ltmp460:
	@DEBUG_VALUE: http_write:len <- $r5
	.loc	1 488 5                 @ ../User/Http/httpd.c:488:5
	cmp	r4, #3
	bhi	.LBB13_1
	b	.LBB13_6
.Ltmp461:
.LBB13_5:
	@DEBUG_VALUE: http_write:err <- $r0
	@DEBUG_VALUE: http_write:len <- $r5
	@DEBUG_VALUE: http_write:pcb <- $r7
	@DEBUG_VALUE: http_write:ptr <- $r6
	@DEBUG_VALUE: http_write:length <- $r8
	@DEBUG_VALUE: http_write:apiflags <- $r9
	.loc	1 0 5 is_stmt 0         @ ../User/Http/httpd.c:0:5
	movs	r5, #1
.Ltmp462:
.LBB13_6:
	@DEBUG_VALUE: http_write:err <- $r0
	@DEBUG_VALUE: http_write:pcb <- $r7
	@DEBUG_VALUE: http_write:ptr <- $r6
	@DEBUG_VALUE: http_write:length <- $r8
	@DEBUG_VALUE: http_write:apiflags <- $r9
	.loc	1 491 13 is_stmt 1      @ ../User/Http/httpd.c:491:13
	strh.w	r5, [r8]
	.loc	1 492 5                 @ ../User/Http/httpd.c:492:5
	add	sp, #4
	pop.w	{r4, r5, r6, r7, r8, r9, pc}
.Ltmp463:
.Lfunc_end13:
	.size	http_write, .Lfunc_end13-http_write
	.cfi_endproc
	.cantunwind
	.fnend
                                        @ -- End function
	.type	.L.str,%object          @ @.str
	.section	.rodata.str1.1,"aMS",%progbits,1
.L.str:
	.asciz	"/index.shtml"
	.size	.L.str, 13

	.type	.L.str.1,%object        @ @.str.1
.L.str.1:
	.asciz	"/index.ssi"
	.size	.L.str.1, 11

	.type	.L.str.2,%object        @ @.str.2
.L.str.2:
	.asciz	"/index.shtm"
	.size	.L.str.2, 12

	.type	.L.str.3,%object        @ @.str.3
.L.str.3:
	.asciz	"/index.html"
	.size	.L.str.3, 12

	.type	.L.str.4,%object        @ @.str.4
.L.str.4:
	.asciz	"/index.htm"
	.size	.L.str.4, 11

	.hidden	g_psDefaultFilenames    @ @g_psDefaultFilenames
	.type	g_psDefaultFilenames,%object
	.section	.rodata.g_psDefaultFilenames,"a",%progbits
	.globl	g_psDefaultFilenames
	.p2align	2
g_psDefaultFilenames:
	.long	.L.str
	.byte	1                       @ 0x1
	.zero	3
	.long	.L.str.1
	.byte	1                       @ 0x1
	.zero	3
	.long	.L.str.2
	.byte	1                       @ 0x1
	.zero	3
	.long	.L.str.3
	.byte	0                       @ 0x0
	.zero	3
	.long	.L.str.4
	.byte	0                       @ 0x0
	.zero	3
	.size	g_psDefaultFilenames, 40

	.type	.L.str.5,%object        @ @.str.5
	.section	.rodata.str1.1,"aMS",%progbits,1
.L.str.5:
	.asciz	".shtml"
	.size	.L.str.5, 7

	.type	.L.str.6,%object        @ @.str.6
.L.str.6:
	.asciz	".shtm"
	.size	.L.str.6, 6

	.type	.L.str.7,%object        @ @.str.7
.L.str.7:
	.asciz	".ssi"
	.size	.L.str.7, 5

	.type	.L.str.8,%object        @ @.str.8
.L.str.8:
	.asciz	".xml"
	.size	.L.str.8, 5

	.hidden	g_pcSSIExtensions       @ @g_pcSSIExtensions
	.type	g_pcSSIExtensions,%object
	.section	.data.g_pcSSIExtensions,"aw",%progbits
	.globl	g_pcSSIExtensions
	.p2align	2
g_pcSSIExtensions:
	.long	.L.str.5
	.long	.L.str.6
	.long	.L.str.7
	.long	.L.str.8
	.size	g_pcSSIExtensions, 16

	.hidden	g_pfnSSIHandler         @ @g_pfnSSIHandler
	.type	g_pfnSSIHandler,%object
	.section	.bss.g_pfnSSIHandler,"aw",%nobits
	.globl	g_pfnSSIHandler
	.p2align	2
g_pfnSSIHandler:
	.long	0
	.size	g_pfnSSIHandler, 4

	.hidden	g_iNumTags              @ @g_iNumTags
	.type	g_iNumTags,%object
	.section	.bss.g_iNumTags,"aw",%nobits
	.globl	g_iNumTags
	.p2align	2
g_iNumTags:
	.long	0                       @ 0x0
	.size	g_iNumTags, 4

	.hidden	g_ppcTags               @ @g_ppcTags
	.type	g_ppcTags,%object
	.section	.bss.g_ppcTags,"aw",%nobits
	.globl	g_ppcTags
	.p2align	2
g_ppcTags:
	.long	0
	.size	g_ppcTags, 4

	.type	.L.str.9,%object        @ @.str.9
	.section	.rodata.str1.1,"aMS",%progbits,1
.L.str.9:
	.asciz	"<!--#"
	.size	.L.str.9, 6

	.hidden	g_pcTagLeadIn           @ @g_pcTagLeadIn
	.type	g_pcTagLeadIn,%object
	.section	.rodata.g_pcTagLeadIn,"a",%progbits
	.globl	g_pcTagLeadIn
	.p2align	2
g_pcTagLeadIn:
	.long	.L.str.9
	.size	g_pcTagLeadIn, 4

	.type	.L.str.10,%object       @ @.str.10
	.section	.rodata.str1.1,"aMS",%progbits,1
.L.str.10:
	.asciz	"-->"
	.size	.L.str.10, 4

	.hidden	g_pcTagLeadOut          @ @g_pcTagLeadOut
	.type	g_pcTagLeadOut,%object
	.section	.rodata.g_pcTagLeadOut,"a",%progbits
	.globl	g_pcTagLeadOut
	.p2align	2
g_pcTagLeadOut:
	.long	.L.str.10
	.size	g_pcTagLeadOut, 4

	.hidden	g_pCGIs                 @ @g_pCGIs
	.type	g_pCGIs,%object
	.section	.bss.g_pCGIs,"aw",%nobits
	.globl	g_pCGIs
	.p2align	2
g_pCGIs:
	.long	0
	.size	g_pCGIs, 4

	.hidden	g_iNumCGIs              @ @g_iNumCGIs
	.type	g_iNumCGIs,%object
	.section	.bss.g_iNumCGIs,"aw",%nobits
	.globl	g_iNumCGIs
	.p2align	2
g_iNumCGIs:
	.long	0                       @ 0x0
	.size	g_iNumCGIs, 4

	.type	httpd_req_buf,%object   @ @httpd_req_buf
	.section	.bss.httpd_req_buf,"aw",%nobits
httpd_req_buf:
	.zero	1024
	.size	httpd_req_buf, 1024

	.type	.L.str.11,%object       @ @.str.11
	.section	.rodata.str1.1,"aMS",%progbits,1
.L.str.11:
	.asciz	"\r\n"
	.size	.L.str.11, 3

	.type	.L.str.14,%object       @ @.str.14
.L.str.14:
	.asciz	"/404.html"
	.size	.L.str.14, 10

	.type	.L.str.15,%object       @ @.str.15
.L.str.15:
	.asciz	"/404.htm"
	.size	.L.str.15, 9

	.type	.L.str.16,%object       @ @.str.16
.L.str.16:
	.asciz	"/404.shtml"
	.size	.L.str.16, 11

	.type	.L.str.19,%object       @ @.str.19
	.section	.rodata.str1.4,"aMS",%progbits,1
	.p2align	2
.L.str.19:
	.asciz	"***</b>"
	.size	.L.str.19, 8

	.section	".note.GNU-stack","",%progbits
	.eabi_attribute	30, 3	@ Tag_ABI_optimization_goals
	.ARM_attribute	16, 1	@ Tag_AV_eba