	.text
	.syntax unified
	.eabi_attribute	67, "2.09"	@ Tag_conformance
	.cpu	cortex-m4
	.eabi_attribute	6, 13	@ Tag_CPU_arch
	.eabi_attribute	7, 77	@ Tag_CPU_arch_profile
	.eabi_attribute	8, 0	@ Tag_ARM_ISA_use
	.eabi_attribute	9, 2	@ Tag_THUMB_ISA_use
	.fpu	fpv4-sp-d16
	.eabi_attribute	27, 1	@ Tag_ABI_HardFP_use
	.eabi_attribute	36, 1	@ Tag_FP_HP_extension
	.eabi_attribute	34, 1	@ Tag_CPU_unaligned_access
	.eabi_attribute	17, 1	@ Tag_ABI_PCS_GOT_use
	.eabi_attribute	20, 2	@ Tag_ABI_FP_denormal
	.eabi_attribute	21, 0	@ Tag_ABI_FP_exceptions
	.eabi_attribute	23, 1	@ Tag_ABI_FP_number_model
	.eabi_attribute	24, 1	@ Tag_ABI_align_needed
	.eabi_attribute	25, 1	@ Tag_ABI_align_preserved
	.eabi_attribute	28, 1	@ Tag_ABI_VFP_args
	.eabi_attribute	38, 1	@ Tag_ABI_FP_16bit_format
	.eabi_attribute	18, 2	@ Tag_ABI_PCS_wchar_t
	.eabi_attribute	26, 1	@ Tag_ABI_enum_size
	.eabi_attribute	14, 0	@ Tag_ABI_PCS_R9_use
	.file	"httpd_cgi_ssi.c"
	.file	1 "C:\\Keil\\ARM\\ARMCLANG\\Bin\\..\\include" "stdint.h"
	.file	2 "F:\\SkyDrive\\OtvoreniProjekti\\HotelSaplast\\fw\\KontrolerHotela\\HC070318\\Project" "../User/Http/httpd_cgi_ssi.c"
	.file	3 "F:\\SkyDrive\\OtvoreniProjekti\\HotelSaplast\\fw\\KontrolerHotela\\HC070318\\Project" "../User/Http/httpd.h"
	.file	4 "F:\\SkyDrive\\OtvoreniProjekti\\HotelSaplast\\fw\\KontrolerHotela\\HC070318\\Project" "../Libraries/lwip-1.4.1/port/arch\\cc.h"
	.file	5 "F:\\SkyDrive\\OtvoreniProjekti\\HotelSaplast\\fw\\KontrolerHotela\\HC070318\\Project" "../Libraries/CMSIS/Device/ST/STM32F4xx/Include\\stm32f4xx.h"
	.file	6 "C:/Keil\\ARM\\CMSIS\\Include" "core_cm4.h"
	.section	.text.HTTP_CGI_Handler,"ax",%progbits
	.hidden	HTTP_CGI_Handler        @ -- Begin function HTTP_CGI_Handler
	.globl	HTTP_CGI_Handler
	.p2align	2
	.type	HTTP_CGI_Handler,%function
	.code	16                      @ @HTTP_CGI_Handler
	.thumb_func
HTTP_CGI_Handler:
.Lfunc_begin0:
	.loc	2 194 0                 @ ../User/Http/httpd_cgi_ssi.c:194:0
	.fnstart
	.cfi_sections .debug_frame
	.cfi_startproc
@ %bb.0:
	.save	{r4, r5, r6, r7, r8, r9, r10, r11, lr}
	push.w	{r4, r5, r6, r7, r8, r9, r10, r11, lr}
	.cfi_def_cfa_offset 36
	.cfi_offset lr, -4
	.cfi_offset r11, -8
	.cfi_offset r10, -12
	.cfi_offset r9, -16
	.cfi_offset r8, -20
	.cfi_offset r7, -24
	.cfi_offset r6, -28
	.cfi_offset r5, -32
	.cfi_offset r4, -36
	.pad	#28
	sub	sp, #28
	.cfi_def_cfa_offset 64
	@DEBUG_VALUE: HTTP_CGI_Handler:iIndex <- $r0
	@DEBUG_VALUE: HTTP_CGI_Handler:iNumParams <- $r1
	@DEBUG_VALUE: HTTP_CGI_Handler:pcParam <- $r2
	@DEBUG_VALUE: HTTP_CGI_Handler:pcValue <- $r3
.Ltmp0:
	.loc	2 204 9 prologue_end    @ ../User/Http/httpd_cgi_ssi.c:204:9
	movw	r6, :lower16:LED_not_configured
	strd	r3, r2, [sp]
	mov	r5, r0
	movs	r4, #0
.Ltmp1:
	@DEBUG_VALUE: HTTP_CGI_Handler:t <- 0
	@DEBUG_VALUE: HTTP_CGI_Handler:i <- 0
	@DEBUG_VALUE: HTTP_CGI_Handler:pcValue <- undef
	@DEBUG_VALUE: HTTP_CGI_Handler:pcParam <- [DW_OP_plus_uconst 4] [$sp+0]
	@DEBUG_VALUE: HTTP_CGI_Handler:iNumParams <- [DW_OP_plus_uconst 8] [$sp+0]
	@DEBUG_VALUE: HTTP_CGI_Handler:iIndex <- $r5
	.loc	2 0 9 is_stmt 0         @ ../User/Http/httpd_cgi_ssi.c:0:9
	str	r1, [sp, #8]            @ 4-byte Spill
	.loc	2 204 9                 @ ../User/Http/httpd_cgi_ssi.c:204:9
	movt	r6, :upper16:LED_not_configured
.Ltmp2:
	.loc	2 198 14 is_stmt 1      @ ../User/Http/httpd_cgi_ssi.c:198:14
	str	r4, [sp, #24]
.Ltmp3:
	@DEBUG_VALUE: HTTP_CGI_Handler:x <- 0
	.loc	2 204 9                 @ ../User/Http/httpd_cgi_ssi.c:204:9
	ldr	r0, [r6]
.Ltmp4:
	.loc	2 204 9 is_stmt 0       @ ../User/Http/httpd_cgi_ssi.c:204:9
	cmp	r0, #1
.Ltmp5:
	@DEBUG_VALUE: HTTP_CGI_Handler:pcValue <- [$sp+0]
	bne	.LBB0_2
.Ltmp6:
@ %bb.1:
	@DEBUG_VALUE: HTTP_CGI_Handler:pcValue <- [$sp+0]
	@DEBUG_VALUE: HTTP_CGI_Handler:iIndex <- $r5
	@DEBUG_VALUE: HTTP_CGI_Handler:iNumParams <- [DW_OP_plus_uconst 8] [$sp+0]
	@DEBUG_VALUE: HTTP_CGI_Handler:pcParam <- [DW_OP_plus_uconst 4] [$sp+0]
	.loc	2 206 9 is_stmt 1       @ ../User/Http/httpd_cgi_ssi.c:206:9
	bl	LED_Init
	.loc	2 207 28                @ ../User/Http/httpd_cgi_ssi.c:207:28
	str	r4, [r6]
.Ltmp7:
.LBB0_2:
	@DEBUG_VALUE: HTTP_CGI_Handler:pcValue <- [$sp+0]
	@DEBUG_VALUE: HTTP_CGI_Handler:iIndex <- $r5
	@DEBUG_VALUE: HTTP_CGI_Handler:iNumParams <- [DW_OP_plus_uconst 8] [$sp+0]
	@DEBUG_VALUE: HTTP_CGI_Handler:pcParam <- [DW_OP_plus_uconst 4] [$sp+0]
	.loc	2 211 9                 @ ../User/Http/httpd_cgi_ssi.c:211:9
	cbz	r5, .LBB0_5
.Ltmp8:
.LBB0_3:
	@DEBUG_VALUE: HTTP_CGI_Handler:pcValue <- [$sp+0]
	@DEBUG_VALUE: HTTP_CGI_Handler:iNumParams <- [DW_OP_plus_uconst 8] [$sp+0]
	@DEBUG_VALUE: HTTP_CGI_Handler:pcParam <- [DW_OP_plus_uconst 4] [$sp+0]
	.loc	2 0 9 is_stmt 0         @ ../User/Http/httpd_cgi_ssi.c:0:9
	movw	r5, :lower16:.L.str.64
	movt	r5, :upper16:.L.str.64
.Ltmp9:
.LBB0_4:
	@DEBUG_VALUE: HTTP_CGI_Handler:pcValue <- [$sp+0]
	@DEBUG_VALUE: HTTP_CGI_Handler:iNumParams <- [DW_OP_plus_uconst 8] [$sp+0]
	@DEBUG_VALUE: HTTP_CGI_Handler:pcParam <- [DW_OP_plus_uconst 4] [$sp+0]
	.loc	2 1388 1 is_stmt 1      @ ../User/Http/httpd_cgi_ssi.c:1388:1
	mov	r0, r5
	add	sp, #28
.Ltmp10:
	pop.w	{r4, r5, r6, r7, r8, r9, r10, r11, pc}
.LBB0_5:
.Ltmp11:
	@DEBUG_VALUE: HTTP_CGI_Handler:pcValue <- [$sp+0]
	@DEBUG_VALUE: HTTP_CGI_Handler:iIndex <- $r5
	@DEBUG_VALUE: HTTP_CGI_Handler:iNumParams <- [DW_OP_plus_uconst 8] [$sp+0]
	@DEBUG_VALUE: HTTP_CGI_Handler:pcParam <- [DW_OP_plus_uconst 4] [$sp+0]
	.loc	2 0 1 is_stmt 0         @ ../User/Http/httpd_cgi_ssi.c:0:1
	movw	r11, #3096
	mov.w	r9, #2048
.Ltmp12:
	@DEBUG_VALUE: led_clr:led <- 1
	mov.w	r10, #4096
.Ltmp13:
	@DEBUG_VALUE: led_clr:led <- 2
	movt	r11, #16386
.Ltmp14:
	.loc	2 182 30 is_stmt 1      @ ../User/Http/httpd_cgi_ssi.c:182:30
	strh.w	r9, [r11]
.Ltmp15:
	.loc	2 186 30                @ ../User/Http/httpd_cgi_ssi.c:186:30
	strh.w	r10, [r11]
.Ltmp16:
	@DEBUG_VALUE: HTTP_CGI_Handler:i <- 0
	.loc	2 218 9                 @ ../User/Http/httpd_cgi_ssi.c:218:9
	ldr	r0, [sp, #8]            @ 4-byte Reload
	cmp	r0, #0
	beq	.LBB0_3
.Ltmp17:
@ %bb.6:
	@DEBUG_VALUE: HTTP_CGI_Handler:pcValue <- [$sp+0]
	@DEBUG_VALUE: HTTP_CGI_Handler:iIndex <- $r5
	@DEBUG_VALUE: HTTP_CGI_Handler:iNumParams <- [DW_OP_plus_uconst 8] [$sp+0]
	@DEBUG_VALUE: HTTP_CGI_Handler:pcParam <- [DW_OP_plus_uconst 4] [$sp+0]
	.loc	2 0 9 is_stmt 0         @ ../User/Http/httpd_cgi_ssi.c:0:9
	movw	r6, :lower16:.L.str.3
	movs	r7, #0
	adr.w	r5, __arm_cp.0_60
.Ltmp18:
	adr.w	r8, __arm_cp.0_61
	movt	r6, :upper16:.L.str.3
	b	.LBB0_11
.Ltmp19:
	.p2align	2
.LBB0_7:                                @   in Loop: Header=BB0_11 Depth=1
	@DEBUG_VALUE: HTTP_CGI_Handler:i <- $r7
	@DEBUG_VALUE: HTTP_CGI_Handler:pcValue <- [$sp+0]
	@DEBUG_VALUE: HTTP_CGI_Handler:iNumParams <- [DW_OP_plus_uconst 8] [$sp+0]
	@DEBUG_VALUE: HTTP_CGI_Handler:pcParam <- [DW_OP_plus_uconst 4] [$sp+0]
	.loc	2 222 28 is_stmt 1      @ ../User/Http/httpd_cgi_ssi.c:222:28
	ldr	r0, [sp]                @ 4-byte Reload
	.loc	2 222 21 is_stmt 0      @ ../User/Http/httpd_cgi_ssi.c:222:21
	mov	r1, r6
	.loc	2 222 28                @ ../User/Http/httpd_cgi_ssi.c:222:28
	ldr.w	r4, [r0, r7, lsl #2]
	.loc	2 222 21                @ ../User/Http/httpd_cgi_ssi.c:222:21
	mov	r0, r4
	bl	strcmp
	cbz	r0, .LBB0_10
.Ltmp20:
@ %bb.8:                                @   in Loop: Header=BB0_11 Depth=1
	@DEBUG_VALUE: HTTP_CGI_Handler:i <- $r7
	@DEBUG_VALUE: HTTP_CGI_Handler:pcValue <- [$sp+0]
	@DEBUG_VALUE: HTTP_CGI_Handler:iNumParams <- [DW_OP_plus_uconst 8] [$sp+0]
	@DEBUG_VALUE: HTTP_CGI_Handler:pcParam <- [DW_OP_plus_uconst 4] [$sp+0]
	.loc	2 226 26 is_stmt 1      @ ../User/Http/httpd_cgi_ssi.c:226:26
	mov	r0, r4
	mov	r1, r8
	bl	strcmp
.Ltmp21:
	.loc	2 226 26 is_stmt 0      @ ../User/Http/httpd_cgi_ssi.c:226:26
	cbnz	r0, .LBB0_12
.Ltmp22:
@ %bb.9:                                @   in Loop: Header=BB0_11 Depth=1
	@DEBUG_VALUE: HTTP_CGI_Handler:i <- $r7
	@DEBUG_VALUE: HTTP_CGI_Handler:pcValue <- [$sp+0]
	@DEBUG_VALUE: HTTP_CGI_Handler:iNumParams <- [DW_OP_plus_uconst 8] [$sp+0]
	@DEBUG_VALUE: HTTP_CGI_Handler:pcParam <- [DW_OP_plus_uconst 4] [$sp+0]
	@DEBUG_VALUE: led_set:led <- 2
	.loc	2 168 30 is_stmt 1      @ ../User/Http/httpd_cgi_ssi.c:168:30
	strh.w	r10, [r11, #2]
	b	.LBB0_12
.Ltmp23:
.LBB0_10:                               @   in Loop: Header=BB0_11 Depth=1
	@DEBUG_VALUE: HTTP_CGI_Handler:i <- $r7
	@DEBUG_VALUE: HTTP_CGI_Handler:pcValue <- [$sp+0]
	@DEBUG_VALUE: HTTP_CGI_Handler:iNumParams <- [DW_OP_plus_uconst 8] [$sp+0]
	@DEBUG_VALUE: HTTP_CGI_Handler:pcParam <- [DW_OP_plus_uconst 4] [$sp+0]
	@DEBUG_VALUE: led_set:led <- 1
	.loc	2 164 30                @ ../User/Http/httpd_cgi_ssi.c:164:30
	strh.w	r9, [r11, #2]
	b	.LBB0_12
.Ltmp24:
	.p2align	2
.LBB0_11:                               @ =>This Inner Loop Header: Depth=1
	@DEBUG_VALUE: HTTP_CGI_Handler:pcValue <- [$sp+0]
	@DEBUG_VALUE: HTTP_CGI_Handler:iNumParams <- [DW_OP_plus_uconst 8] [$sp+0]
	@DEBUG_VALUE: HTTP_CGI_Handler:pcParam <- [DW_OP_plus_uconst 4] [$sp+0]
	@DEBUG_VALUE: HTTP_CGI_Handler:i <- $r7
	.loc	2 220 24                @ ../User/Http/httpd_cgi_ssi.c:220:24
	ldr	r0, [sp, #4]            @ 4-byte Reload
	.loc	2 220 17 is_stmt 0      @ ../User/Http/httpd_cgi_ssi.c:220:17
	mov	r1, r5
	.loc	2 220 24                @ ../User/Http/httpd_cgi_ssi.c:220:24
	ldr.w	r0, [r0, r7, lsl #2]
	.loc	2 220 17                @ ../User/Http/httpd_cgi_ssi.c:220:17
	bl	strcmp
.Ltmp25:
	.loc	2 220 17                @ ../User/Http/httpd_cgi_ssi.c:220:17
	cmp	r0, #0
	beq	.LBB0_7
.Ltmp26:
.LBB0_12:                               @   in Loop: Header=BB0_11 Depth=1
	@DEBUG_VALUE: HTTP_CGI_Handler:i <- $r7
	@DEBUG_VALUE: HTTP_CGI_Handler:pcValue <- [$sp+0]
	@DEBUG_VALUE: HTTP_CGI_Handler:iNumParams <- [DW_OP_plus_uconst 8] [$sp+0]
	@DEBUG_VALUE: HTTP_CGI_Handler:pcParam <- [DW_OP_plus_uconst 4] [$sp+0]
	.loc	2 218 9 is_stmt 1       @ ../User/Http/httpd_cgi_ssi.c:218:9
	ldr	r0, [sp, #8]            @ 4-byte Reload
.Ltmp27:
	.loc	2 218 38 is_stmt 0      @ ../User/Http/httpd_cgi_ssi.c:218:38
	adds	r7, #1
.Ltmp28:
	@DEBUG_VALUE: HTTP_CGI_Handler:i <- $r7
	.loc	2 218 9                 @ ../User/Http/httpd_cgi_ssi.c:218:9
	cmp	r0, r7
	bne	.LBB0_11
.Ltmp29:
@ %bb.13:
	@DEBUG_VALUE: HTTP_CGI_Handler:i <- $r7
	@DEBUG_VALUE: HTTP_CGI_Handler:pcValue <- [$sp+0]
	@DEBUG_VALUE: HTTP_CGI_Handler:iNumParams <- [DW_OP_plus_uconst 8] [$sp+0]
	@DEBUG_VALUE: HTTP_CGI_Handler:pcParam <- [DW_OP_plus_uconst 4] [$sp+0]
	@DEBUG_VALUE: HTTP_CGI_Handler:i <- 0
	@DEBUG_VALUE: HTTP_CGI_Handler:x <- 0
	.loc	2 234 9 is_stmt 1       @ ../User/Http/httpd_cgi_ssi.c:234:9
	ldr	r0, [sp, #8]            @ 4-byte Reload
	cmp	r0, #0
	beq	.LBB0_3
.Ltmp30:
@ %bb.14:
	@DEBUG_VALUE: HTTP_CGI_Handler:pcValue <- [$sp+0]
	@DEBUG_VALUE: HTTP_CGI_Handler:iNumParams <- [DW_OP_plus_uconst 8] [$sp+0]
	@DEBUG_VALUE: HTTP_CGI_Handler:pcParam <- [DW_OP_plus_uconst 4] [$sp+0]
	.loc	2 0 9 is_stmt 0         @ ../User/Http/httpd_cgi_ssi.c:0:9
	movw	r0, :lower16:rubicon_ctrl_buffer
	movw	r7, :lower16:p_buffer
	movs	r4, #0
	adr.w	r5, __arm_cp.0_62
	mov.w	r9, #0
	movs	r6, #0
	movt	r0, :upper16:rubicon_ctrl_buffer
	movt	r7, :upper16:p_buffer
	add.w	r11, r0, #512
.Ltmp31:
	.p2align	2
.LBB0_15:                               @ =>This Loop Header: Depth=1
                                        @     Child Loop BB0_17 Depth 2
                                        @     Child Loop BB0_19 Depth 2
                                        @     Child Loop BB0_24 Depth 2
	@DEBUG_VALUE: HTTP_CGI_Handler:pcValue <- [$sp+0]
	@DEBUG_VALUE: HTTP_CGI_Handler:iNumParams <- [DW_OP_plus_uconst 8] [$sp+0]
	@DEBUG_VALUE: HTTP_CGI_Handler:pcParam <- [DW_OP_plus_uconst 4] [$sp+0]
	@DEBUG_VALUE: HTTP_CGI_Handler:i <- $r6
	@DEBUG_VALUE: HTTP_CGI_Handler:x <- $r9
	.loc	2 236 24 is_stmt 1      @ ../User/Http/httpd_cgi_ssi.c:236:24
	ldr	r0, [sp, #4]            @ 4-byte Reload
	.loc	2 236 17 is_stmt 0      @ ../User/Http/httpd_cgi_ssi.c:236:17
	mov	r1, r5
	.loc	2 236 24                @ ../User/Http/httpd_cgi_ssi.c:236:24
	ldr.w	r0, [r0, r6, lsl #2]
	.loc	2 236 17                @ ../User/Http/httpd_cgi_ssi.c:236:17
	bl	strcmp
	movw	r2, :lower16:rubicon_ctrl_buffer
.Ltmp32:
	.loc	2 236 17                @ ../User/Http/httpd_cgi_ssi.c:236:17
	cmp	r0, #0
	movt	r2, :upper16:rubicon_ctrl_buffer
	bne	.LBB0_25
.Ltmp33:
@ %bb.16:                               @   in Loop: Header=BB0_15 Depth=1
	@DEBUG_VALUE: HTTP_CGI_Handler:x <- $r9
	@DEBUG_VALUE: HTTP_CGI_Handler:i <- $r6
	@DEBUG_VALUE: HTTP_CGI_Handler:pcValue <- [$sp+0]
	@DEBUG_VALUE: HTTP_CGI_Handler:iNumParams <- [DW_OP_plus_uconst 8] [$sp+0]
	@DEBUG_VALUE: HTTP_CGI_Handler:pcParam <- [DW_OP_plus_uconst 4] [$sp+0]
	.loc	2 0 17                  @ ../User/Http/httpd_cgi_ssi.c:0:17
	mov	r0, r2
.Ltmp34:
	.loc	2 238 26 is_stmt 1      @ ../User/Http/httpd_cgi_ssi.c:238:26
	str	r2, [r7]
.Ltmp35:
	.p2align	2
.LBB0_17:                               @   Parent Loop BB0_15 Depth=1
                                        @ =>  This Inner Loop Header: Depth=2
	@DEBUG_VALUE: HTTP_CGI_Handler:x <- $r9
	@DEBUG_VALUE: HTTP_CGI_Handler:i <- $r6
	@DEBUG_VALUE: HTTP_CGI_Handler:pcValue <- [$sp+0]
	@DEBUG_VALUE: HTTP_CGI_Handler:iNumParams <- [DW_OP_plus_uconst 8] [$sp+0]
	@DEBUG_VALUE: HTTP_CGI_Handler:pcParam <- [DW_OP_plus_uconst 4] [$sp+0]
	.loc	2 239 96                @ ../User/Http/httpd_cgi_ssi.c:239:96
	adds	r1, r0, #1
	str	r1, [r7]
	.loc	2 239 99 is_stmt 0      @ ../User/Http/httpd_cgi_ssi.c:239:99
	strb	r4, [r0]
	.loc	2 239 24                @ ../User/Http/httpd_cgi_ssi.c:239:24
	ldr	r0, [r7]
	.loc	2 239 17                @ ../User/Http/httpd_cgi_ssi.c:239:17
	cmp	r0, r11
	blo	.LBB0_17
.Ltmp36:
@ %bb.18:                               @   in Loop: Header=BB0_15 Depth=1
	@DEBUG_VALUE: HTTP_CGI_Handler:x <- $r9
	@DEBUG_VALUE: HTTP_CGI_Handler:i <- $r6
	@DEBUG_VALUE: HTTP_CGI_Handler:pcValue <- [$sp+0]
	@DEBUG_VALUE: HTTP_CGI_Handler:iNumParams <- [DW_OP_plus_uconst 8] [$sp+0]
	@DEBUG_VALUE: HTTP_CGI_Handler:pcParam <- [DW_OP_plus_uconst 4] [$sp+0]
	.loc	2 0 17                  @ ../User/Http/httpd_cgi_ssi.c:0:17
	ldr	r1, [sp]                @ 4-byte Reload
	mov.w	r9, #0
.Ltmp37:
	@DEBUG_VALUE: HTTP_CGI_Handler:x <- 0
	.p2align	2
.LBB0_19:                               @   Parent Loop BB0_15 Depth=1
                                        @ =>  This Inner Loop Header: Depth=2
	@DEBUG_VALUE: HTTP_CGI_Handler:i <- $r6
	@DEBUG_VALUE: HTTP_CGI_Handler:pcValue <- [$sp+0]
	@DEBUG_VALUE: HTTP_CGI_Handler:iNumParams <- [DW_OP_plus_uconst 8] [$sp+0]
	@DEBUG_VALUE: HTTP_CGI_Handler:pcParam <- [DW_OP_plus_uconst 4] [$sp+0]
	@DEBUG_VALUE: HTTP_CGI_Handler:x <- $r9
	.loc	2 242 63 is_stmt 1      @ ../User/Http/httpd_cgi_ssi.c:242:63
	ldr.w	r0, [r1, r6, lsl #2]
	ldrb.w	r0, [r0, r9]
	cbz	r0, .LBB0_21
.Ltmp38:
@ %bb.20:                               @   in Loop: Header=BB0_19 Depth=2
	@DEBUG_VALUE: HTTP_CGI_Handler:x <- $r9
	@DEBUG_VALUE: HTTP_CGI_Handler:i <- $r6
	@DEBUG_VALUE: HTTP_CGI_Handler:pcValue <- [$sp+0]
	@DEBUG_VALUE: HTTP_CGI_Handler:iNumParams <- [DW_OP_plus_uconst 8] [$sp+0]
	@DEBUG_VALUE: HTTP_CGI_Handler:pcParam <- [DW_OP_plus_uconst 4] [$sp+0]
	.loc	2 244 44                @ ../User/Http/httpd_cgi_ssi.c:244:44
	strb.w	r0, [r2, r9]
	.loc	2 245 22                @ ../User/Http/httpd_cgi_ssi.c:245:22
	add.w	r9, r9, #1
.Ltmp39:
	@DEBUG_VALUE: HTTP_CGI_Handler:x <- $r9
	.loc	2 242 59                @ ../User/Http/httpd_cgi_ssi.c:242:59
	cmp.w	r9, #512
	blo	.LBB0_19
	b	.LBB0_23
.Ltmp40:
.LBB0_21:                               @   in Loop: Header=BB0_15 Depth=1
	@DEBUG_VALUE: HTTP_CGI_Handler:x <- $r9
	@DEBUG_VALUE: HTTP_CGI_Handler:i <- $r6
	@DEBUG_VALUE: HTTP_CGI_Handler:pcValue <- [$sp+0]
	@DEBUG_VALUE: HTTP_CGI_Handler:iNumParams <- [DW_OP_plus_uconst 8] [$sp+0]
	@DEBUG_VALUE: HTTP_CGI_Handler:pcParam <- [DW_OP_plus_uconst 4] [$sp+0]
	.loc	2 248 21                @ ../User/Http/httpd_cgi_ssi.c:248:21
	cmp.w	r9, #15
	bne	.LBB0_23
.Ltmp41:
@ %bb.22:                               @   in Loop: Header=BB0_15 Depth=1
	@DEBUG_VALUE: HTTP_CGI_Handler:x <- $r9
	@DEBUG_VALUE: HTTP_CGI_Handler:i <- $r6
	@DEBUG_VALUE: HTTP_CGI_Handler:pcValue <- [$sp+0]
	@DEBUG_VALUE: HTTP_CGI_Handler:iNumParams <- [DW_OP_plus_uconst 8] [$sp+0]
	@DEBUG_VALUE: HTTP_CGI_Handler:pcParam <- [DW_OP_plus_uconst 4] [$sp+0]
	.loc	2 250 21                @ ../User/Http/httpd_cgi_ssi.c:250:21
	mov	r0, r2
	bl	RTC_HttpCgiDateTimeUpdate
	mov.w	r9, #15
.Ltmp42:
	.loc	2 0 21 is_stmt 0        @ ../User/Http/httpd_cgi_ssi.c:0:21
	b	.LBB0_25
.Ltmp43:
	.p2align	2
.LBB0_23:                               @   in Loop: Header=BB0_15 Depth=1
	@DEBUG_VALUE: HTTP_CGI_Handler:x <- $r9
	@DEBUG_VALUE: HTTP_CGI_Handler:i <- $r6
	@DEBUG_VALUE: HTTP_CGI_Handler:pcValue <- [$sp+0]
	@DEBUG_VALUE: HTTP_CGI_Handler:iNumParams <- [DW_OP_plus_uconst 8] [$sp+0]
	@DEBUG_VALUE: HTTP_CGI_Handler:pcParam <- [DW_OP_plus_uconst 4] [$sp+0]
	.loc	2 254 30 is_stmt 1      @ ../User/Http/httpd_cgi_ssi.c:254:30
	str	r2, [r7]
.Ltmp44:
	.p2align	2
.LBB0_24:                               @   Parent Loop BB0_15 Depth=1
                                        @ =>  This Inner Loop Header: Depth=2
	@DEBUG_VALUE: HTTP_CGI_Handler:x <- $r9
	@DEBUG_VALUE: HTTP_CGI_Handler:i <- $r6
	@DEBUG_VALUE: HTTP_CGI_Handler:pcValue <- [$sp+0]
	@DEBUG_VALUE: HTTP_CGI_Handler:iNumParams <- [DW_OP_plus_uconst 8] [$sp+0]
	@DEBUG_VALUE: HTTP_CGI_Handler:pcParam <- [DW_OP_plus_uconst 4] [$sp+0]
	.loc	2 255 100               @ ../User/Http/httpd_cgi_ssi.c:255:100
	adds	r1, r2, #1
	str	r1, [r7]
	.loc	2 255 103 is_stmt 0     @ ../User/Http/httpd_cgi_ssi.c:255:103
	strb	r4, [r2]
	.loc	2 255 28                @ ../User/Http/httpd_cgi_ssi.c:255:28
	ldr	r2, [r7]
	.loc	2 255 21                @ ../User/Http/httpd_cgi_ssi.c:255:21
	cmp	r2, r11
	blo	.LBB0_24
.Ltmp45:
.LBB0_25:                               @   in Loop: Header=BB0_15 Depth=1
	@DEBUG_VALUE: HTTP_CGI_Handler:i <- $r6
	@DEBUG_VALUE: HTTP_CGI_Handler:pcValue <- [$sp+0]
	@DEBUG_VALUE: HTTP_CGI_Handler:iNumParams <- [DW_OP_plus_uconst 8] [$sp+0]
	@DEBUG_VALUE: HTTP_CGI_Handler:pcParam <- [DW_OP_plus_uconst 4] [$sp+0]
	@DEBUG_VALUE: HTTP_CGI_Handler:x <- $r9
	.loc	2 234 9 is_stmt 1       @ ../User/Http/httpd_cgi_ssi.c:234:9
	ldr	r0, [sp, #8]            @ 4-byte Reload
.Ltmp46:
	.loc	2 234 38 is_stmt 0      @ ../User/Http/httpd_cgi_ssi.c:234:38
	adds	r6, #1
.Ltmp47:
	@DEBUG_VALUE: HTTP_CGI_Handler:i <- $r6
	.loc	2 234 9                 @ ../User/Http/httpd_cgi_ssi.c:234:9
	cmp	r6, r0
	bne	.LBB0_15
.Ltmp48:
@ %bb.26:
	@DEBUG_VALUE: HTTP_CGI_Handler:x <- $r9
	@DEBUG_VALUE: HTTP_CGI_Handler:i <- $r6
	@DEBUG_VALUE: HTTP_CGI_Handler:pcValue <- [$sp+0]
	@DEBUG_VALUE: HTTP_CGI_Handler:iNumParams <- [DW_OP_plus_uconst 8] [$sp+0]
	@DEBUG_VALUE: HTTP_CGI_Handler:pcParam <- [DW_OP_plus_uconst 4] [$sp+0]
	@DEBUG_VALUE: HTTP_CGI_Handler:i <- 0
	.loc	2 261 9 is_stmt 1       @ ../User/Http/httpd_cgi_ssi.c:261:9
	ldr	r0, [sp, #8]            @ 4-byte Reload
	cmp	r0, #0
	beq.w	.LBB0_3
.Ltmp49:
@ %bb.27:
	@DEBUG_VALUE: HTTP_CGI_Handler:x <- $r9
	@DEBUG_VALUE: HTTP_CGI_Handler:pcValue <- [$sp+0]
	@DEBUG_VALUE: HTTP_CGI_Handler:iNumParams <- [DW_OP_plus_uconst 8] [$sp+0]
	@DEBUG_VALUE: HTTP_CGI_Handler:pcParam <- [DW_OP_plus_uconst 4] [$sp+0]
	.loc	2 0 9 is_stmt 0         @ ../User/Http/httpd_cgi_ssi.c:0:9
	movs	r4, #0
	adr.w	r5, __arm_cp.0_63
	adr.w	r10, __arm_cp.0_64
	adr.w	r8, __arm_cp.0_65
.Ltmp50:
	.p2align	2
.LBB0_28:                               @ =>This Inner Loop Header: Depth=1
	@DEBUG_VALUE: HTTP_CGI_Handler:x <- $r9
	@DEBUG_VALUE: HTTP_CGI_Handler:pcValue <- [$sp+0]
	@DEBUG_VALUE: HTTP_CGI_Handler:iNumParams <- [DW_OP_plus_uconst 8] [$sp+0]
	@DEBUG_VALUE: HTTP_CGI_Handler:pcParam <- [DW_OP_plus_uconst 4] [$sp+0]
	@DEBUG_VALUE: HTTP_CGI_Handler:i <- $r4
	.loc	2 263 24 is_stmt 1      @ ../User/Http/httpd_cgi_ssi.c:263:24
	ldr	r0, [sp, #4]            @ 4-byte Reload
	.loc	2 263 17 is_stmt 0      @ ../User/Http/httpd_cgi_ssi.c:263:17
	mov	r1, r5
	.loc	2 263 24                @ ../User/Http/httpd_cgi_ssi.c:263:24
	ldr.w	r0, [r0, r4, lsl #2]
	.loc	2 263 17                @ ../User/Http/httpd_cgi_ssi.c:263:17
	bl	strcmp
	cbnz	r0, .LBB0_32
.Ltmp51:
@ %bb.29:                               @   in Loop: Header=BB0_28 Depth=1
	@DEBUG_VALUE: HTTP_CGI_Handler:i <- $r4
	@DEBUG_VALUE: HTTP_CGI_Handler:x <- $r9
	@DEBUG_VALUE: HTTP_CGI_Handler:pcValue <- [$sp+0]
	@DEBUG_VALUE: HTTP_CGI_Handler:iNumParams <- [DW_OP_plus_uconst 8] [$sp+0]
	@DEBUG_VALUE: HTTP_CGI_Handler:pcParam <- [DW_OP_plus_uconst 4] [$sp+0]
	.loc	2 265 28 is_stmt 1      @ ../User/Http/httpd_cgi_ssi.c:265:28
	ldr	r0, [sp]                @ 4-byte Reload
	.loc	2 265 21 is_stmt 0      @ ../User/Http/httpd_cgi_ssi.c:265:21
	mov	r1, r10
	.loc	2 265 28                @ ../User/Http/httpd_cgi_ssi.c:265:28
	ldr.w	r6, [r0, r4, lsl #2]
	.loc	2 265 21                @ ../User/Http/httpd_cgi_ssi.c:265:21
	mov	r0, r6
	bl	strcmp
.Ltmp52:
	.loc	2 265 21                @ ../User/Http/httpd_cgi_ssi.c:265:21
	cmp	r0, #0
	beq.w	.LBB0_206
.Ltmp53:
@ %bb.30:                               @   in Loop: Header=BB0_28 Depth=1
	@DEBUG_VALUE: HTTP_CGI_Handler:i <- $r4
	@DEBUG_VALUE: HTTP_CGI_Handler:x <- $r9
	@DEBUG_VALUE: HTTP_CGI_Handler:pcValue <- [$sp+0]
	@DEBUG_VALUE: HTTP_CGI_Handler:iNumParams <- [DW_OP_plus_uconst 8] [$sp+0]
	@DEBUG_VALUE: HTTP_CGI_Handler:pcParam <- [DW_OP_plus_uconst 4] [$sp+0]
	.loc	2 272 14 is_stmt 1      @ ../User/Http/httpd_cgi_ssi.c:272:14
	mov	r0, r6
	mov	r1, r8
	bl	strcmp
.Ltmp54:
	.loc	2 272 14 is_stmt 0      @ ../User/Http/httpd_cgi_ssi.c:272:14
	cmp	r0, #0
	beq.w	.LBB0_207
.Ltmp55:
@ %bb.31:                               @   in Loop: Header=BB0_28 Depth=1
	@DEBUG_VALUE: HTTP_CGI_Handler:i <- $r4
	@DEBUG_VALUE: HTTP_CGI_Handler:x <- $r9
	@DEBUG_VALUE: HTTP_CGI_Handler:pcValue <- [$sp+0]
	@DEBUG_VALUE: HTTP_CGI_Handler:iNumParams <- [DW_OP_plus_uconst 8] [$sp+0]
	@DEBUG_VALUE: HTTP_CGI_Handler:pcParam <- [DW_OP_plus_uconst 4] [$sp+0]
	.loc	2 279 14 is_stmt 1      @ ../User/Http/httpd_cgi_ssi.c:279:14
	mov	r0, r6
	adr.w	r1, __arm_cp.0_66
	bl	strcmp
.Ltmp56:
	.loc	2 279 14 is_stmt 0      @ ../User/Http/httpd_cgi_ssi.c:279:14
	cmp	r0, #0
	beq.w	.LBB0_208
.Ltmp57:
.LBB0_32:                               @   in Loop: Header=BB0_28 Depth=1
	@DEBUG_VALUE: HTTP_CGI_Handler:i <- $r4
	@DEBUG_VALUE: HTTP_CGI_Handler:x <- $r9
	@DEBUG_VALUE: HTTP_CGI_Handler:pcValue <- [$sp+0]
	@DEBUG_VALUE: HTTP_CGI_Handler:iNumParams <- [DW_OP_plus_uconst 8] [$sp+0]
	@DEBUG_VALUE: HTTP_CGI_Handler:pcParam <- [DW_OP_plus_uconst 4] [$sp+0]
	.loc	2 261 9 is_stmt 1       @ ../User/Http/httpd_cgi_ssi.c:261:9
	ldr	r0, [sp, #8]            @ 4-byte Reload
.Ltmp58:
	.loc	2 261 38 is_stmt 0      @ ../User/Http/httpd_cgi_ssi.c:261:38
	adds	r4, #1
.Ltmp59:
	@DEBUG_VALUE: HTTP_CGI_Handler:i <- $r4
	.loc	2 261 9                 @ ../User/Http/httpd_cgi_ssi.c:261:9
	cmp	r4, r0
	blo	.LBB0_28
.Ltmp60:
@ %bb.33:
	@DEBUG_VALUE: HTTP_CGI_Handler:i <- $r4
	@DEBUG_VALUE: HTTP_CGI_Handler:x <- $r9
	@DEBUG_VALUE: HTTP_CGI_Handler:pcValue <- [$sp+0]
	@DEBUG_VALUE: HTTP_CGI_Handler:iNumParams <- [DW_OP_plus_uconst 8] [$sp+0]
	@DEBUG_VALUE: HTTP_CGI_Handler:pcParam <- [DW_OP_plus_uconst 4] [$sp+0]
	.loc	2 0 9                   @ ../User/Http/httpd_cgi_ssi.c:0:9
	movs	r4, #0
.Ltmp61:
	adr.w	r5, __arm_cp.0_67
.Ltmp62:
	.p2align	2
.LBB0_34:                               @ =>This Inner Loop Header: Depth=1
	@DEBUG_VALUE: HTTP_CGI_Handler:x <- $r9
	@DEBUG_VALUE: HTTP_CGI_Handler:pcValue <- [$sp+0]
	@DEBUG_VALUE: HTTP_CGI_Handler:iNumParams <- [DW_OP_plus_uconst 8] [$sp+0]
	@DEBUG_VALUE: HTTP_CGI_Handler:pcParam <- [DW_OP_plus_uconst 4] [$sp+0]
	@DEBUG_VALUE: HTTP_CGI_Handler:i <- $r4
	.loc	2 293 24 is_stmt 1      @ ../User/Http/httpd_cgi_ssi.c:293:24
	ldr	r0, [sp, #4]            @ 4-byte Reload
	.loc	2 293 17 is_stmt 0      @ ../User/Http/httpd_cgi_ssi.c:293:17
	mov	r1, r5
	.loc	2 293 24                @ ../User/Http/httpd_cgi_ssi.c:293:24
	ldr.w	r0, [r0, r4, lsl #2]
	.loc	2 293 17                @ ../User/Http/httpd_cgi_ssi.c:293:17
	bl	strcmp
.Ltmp63:
	.loc	2 293 17                @ ../User/Http/httpd_cgi_ssi.c:293:17
	cmp	r0, #0
	beq.w	.LBB0_90
.Ltmp64:
@ %bb.35:                               @   in Loop: Header=BB0_34 Depth=1
	@DEBUG_VALUE: HTTP_CGI_Handler:i <- $r4
	@DEBUG_VALUE: HTTP_CGI_Handler:x <- $r9
	@DEBUG_VALUE: HTTP_CGI_Handler:pcValue <- [$sp+0]
	@DEBUG_VALUE: HTTP_CGI_Handler:iNumParams <- [DW_OP_plus_uconst 8] [$sp+0]
	@DEBUG_VALUE: HTTP_CGI_Handler:pcParam <- [DW_OP_plus_uconst 4] [$sp+0]
	.loc	2 291 9 is_stmt 1       @ ../User/Http/httpd_cgi_ssi.c:291:9
	ldr	r0, [sp, #8]            @ 4-byte Reload
.Ltmp65:
	.loc	2 291 38 is_stmt 0      @ ../User/Http/httpd_cgi_ssi.c:291:38
	adds	r4, #1
.Ltmp66:
	@DEBUG_VALUE: HTTP_CGI_Handler:i <- $r4
	.loc	2 291 9                 @ ../User/Http/httpd_cgi_ssi.c:291:9
	cmp	r4, r0
	blo	.LBB0_34
.Ltmp67:
@ %bb.36:
	@DEBUG_VALUE: HTTP_CGI_Handler:i <- $r4
	@DEBUG_VALUE: HTTP_CGI_Handler:x <- $r9
	@DEBUG_VALUE: HTTP_CGI_Handler:pcValue <- [$sp+0]
	@DEBUG_VALUE: HTTP_CGI_Handler:iNumParams <- [DW_OP_plus_uconst 8] [$sp+0]
	@DEBUG_VALUE: HTTP_CGI_Handler:pcParam <- [DW_OP_plus_uconst 4] [$sp+0]
	.loc	2 0 9                   @ ../User/Http/httpd_cgi_ssi.c:0:9
	movs	r6, #0
	adr.w	r8, __arm_cp.0_68
	adr.w	r5, __arm_cp.0_69
	mov.w	r10, #0
.Ltmp68:
	.p2align	2
.LBB0_37:                               @ =>This Loop Header: Depth=1
                                        @     Child Loop BB0_41 Depth 2
                                        @     Child Loop BB0_45 Depth 2
                                        @     Child Loop BB0_47 Depth 2
	@DEBUG_VALUE: HTTP_CGI_Handler:i <- $r4
	@DEBUG_VALUE: HTTP_CGI_Handler:x <- $r9
	@DEBUG_VALUE: HTTP_CGI_Handler:pcValue <- [$sp+0]
	@DEBUG_VALUE: HTTP_CGI_Handler:iNumParams <- [DW_OP_plus_uconst 8] [$sp+0]
	@DEBUG_VALUE: HTTP_CGI_Handler:pcParam <- [DW_OP_plus_uconst 4] [$sp+0]
	@DEBUG_VALUE: HTTP_CGI_Handler:i <- $r10
	@DEBUG_VALUE: HTTP_CGI_Handler:x <- $r9
	.loc	2 330 15 is_stmt 1      @ ../User/Http/httpd_cgi_ssi.c:330:15
	ldr	r0, [sp, #4]            @ 4-byte Reload
	.loc	2 330 8 is_stmt 0       @ ../User/Http/httpd_cgi_ssi.c:330:8
	mov	r1, r8
	.loc	2 330 15                @ ../User/Http/httpd_cgi_ssi.c:330:15
	ldr.w	r4, [r0, r10, lsl #2]
	.loc	2 330 8                 @ ../User/Http/httpd_cgi_ssi.c:330:8
	mov	r0, r4
	bl	strcmp
	cbz	r0, .LBB0_44
.Ltmp69:
@ %bb.38:                               @   in Loop: Header=BB0_37 Depth=1
	@DEBUG_VALUE: HTTP_CGI_Handler:i <- $r10
	@DEBUG_VALUE: HTTP_CGI_Handler:x <- $r9
	@DEBUG_VALUE: HTTP_CGI_Handler:pcValue <- [$sp+0]
	@DEBUG_VALUE: HTTP_CGI_Handler:iNumParams <- [DW_OP_plus_uconst 8] [$sp+0]
	@DEBUG_VALUE: HTTP_CGI_Handler:pcParam <- [DW_OP_plus_uconst 4] [$sp+0]
	.loc	2 344 13 is_stmt 1      @ ../User/Http/httpd_cgi_ssi.c:344:13
	mov	r0, r4
	mov	r1, r5
	bl	strcmp
.Ltmp70:
	.loc	2 344 13 is_stmt 0      @ ../User/Http/httpd_cgi_ssi.c:344:13
	cmp	r0, #0
	bne	.LBB0_52
.Ltmp71:
@ %bb.39:                               @   in Loop: Header=BB0_37 Depth=1
	@DEBUG_VALUE: HTTP_CGI_Handler:i <- $r10
	@DEBUG_VALUE: HTTP_CGI_Handler:x <- $r9
	@DEBUG_VALUE: HTTP_CGI_Handler:pcValue <- [$sp+0]
	@DEBUG_VALUE: HTTP_CGI_Handler:iNumParams <- [DW_OP_plus_uconst 8] [$sp+0]
	@DEBUG_VALUE: HTTP_CGI_Handler:pcParam <- [DW_OP_plus_uconst 4] [$sp+0]
	@DEBUG_VALUE: HTTP_CGI_Handler:t <- 0
	.loc	2 0 0                   @ ../User/Http/httpd_cgi_ssi.c:0:0
	movw	r0, #65024
	movw	r1, :lower16:rubicon_ctrl_buffer
	mov	r12, r5
	ldr	r5, [sp]                @ 4-byte Reload
.Ltmp72:
	.loc	2 348 49 is_stmt 1      @ ../User/Http/httpd_cgi_ssi.c:348:49
	cmn.w	r9, #512
	.loc	2 346 7                 @ ../User/Http/httpd_cgi_ssi.c:346:7
	str	r6, [sp, #24]
.Ltmp73:
	.loc	2 0 0 is_stmt 0         @ ../User/Http/httpd_cgi_ssi.c:0:0
	movt	r0, #65535
	movt	r1, :upper16:rubicon_ctrl_buffer
.Ltmp74:
	.loc	2 348 49 is_stmt 1      @ ../User/Http/httpd_cgi_ssi.c:348:49
	beq	.LBB0_51
.Ltmp75:
@ %bb.40:                               @   in Loop: Header=BB0_37 Depth=1
	@DEBUG_VALUE: HTTP_CGI_Handler:i <- $r10
	@DEBUG_VALUE: HTTP_CGI_Handler:x <- $r9
	@DEBUG_VALUE: HTTP_CGI_Handler:pcValue <- [$sp+0]
	@DEBUG_VALUE: HTTP_CGI_Handler:iNumParams <- [DW_OP_plus_uconst 8] [$sp+0]
	@DEBUG_VALUE: HTTP_CGI_Handler:pcParam <- [DW_OP_plus_uconst 4] [$sp+0]
	.loc	2 348 53 is_stmt 0      @ ../User/Http/httpd_cgi_ssi.c:348:53
	add.w	r0, r1, r9
	.loc	2 348 14                @ ../User/Http/httpd_cgi_ssi.c:348:14
	addw	r1, r9, #513
	movs	r2, #0
.Ltmp76:
	.p2align	2
.LBB0_41:                               @   Parent Loop BB0_37 Depth=1
                                        @ =>  This Inner Loop Header: Depth=2
	@DEBUG_VALUE: HTTP_CGI_Handler:i <- $r10
	@DEBUG_VALUE: HTTP_CGI_Handler:x <- $r9
	@DEBUG_VALUE: HTTP_CGI_Handler:pcValue <- [$sp+0]
	@DEBUG_VALUE: HTTP_CGI_Handler:iNumParams <- [DW_OP_plus_uconst 8] [$sp+0]
	@DEBUG_VALUE: HTTP_CGI_Handler:pcParam <- [DW_OP_plus_uconst 4] [$sp+0]
	@DEBUG_VALUE: HTTP_CGI_Handler:x <- undef
	.loc	2 348 53                @ ../User/Http/httpd_cgi_ssi.c:348:53
	ldr.w	r4, [r5, r10, lsl #2]
	ldrb	r3, [r4, r2]
	.loc	2 348 5                 @ ../User/Http/httpd_cgi_ssi.c:348:5
	cbz	r3, .LBB0_50
.Ltmp77:
@ %bb.42:                               @   in Loop: Header=BB0_41 Depth=2
	@DEBUG_VALUE: HTTP_CGI_Handler:i <- $r10
	@DEBUG_VALUE: HTTP_CGI_Handler:pcValue <- [$sp+0]
	@DEBUG_VALUE: HTTP_CGI_Handler:iNumParams <- [DW_OP_plus_uconst 8] [$sp+0]
	@DEBUG_VALUE: HTTP_CGI_Handler:pcParam <- [DW_OP_plus_uconst 4] [$sp+0]
	.loc	2 350 55 is_stmt 1      @ ../User/Http/httpd_cgi_ssi.c:350:55
	adds	r3, r2, #1
.Ltmp78:
	@DEBUG_VALUE: HTTP_CGI_Handler:t <- $r3
	str	r3, [sp, #24]
	.loc	2 350 43 is_stmt 0      @ ../User/Http/httpd_cgi_ssi.c:350:43
	ldrb	r4, [r4, r2]
	.loc	2 350 31                @ ../User/Http/httpd_cgi_ssi.c:350:31
	strb	r4, [r0, r2]
.Ltmp79:
	@DEBUG_VALUE: HTTP_CGI_Handler:x <- [DW_OP_plus_uconst 1, DW_OP_stack_value] undef
	.loc	2 348 14 is_stmt 1      @ ../User/Http/httpd_cgi_ssi.c:348:14
	add	r2, r1
	.loc	2 348 49 is_stmt 0      @ ../User/Http/httpd_cgi_ssi.c:348:49
	cmp	r3, r2
	mov	r2, r3
	blo	.LBB0_41
.Ltmp80:
@ %bb.43:                               @   in Loop: Header=BB0_37 Depth=1
	@DEBUG_VALUE: HTTP_CGI_Handler:t <- $r3
	@DEBUG_VALUE: HTTP_CGI_Handler:i <- $r10
	@DEBUG_VALUE: HTTP_CGI_Handler:pcValue <- [$sp+0]
	@DEBUG_VALUE: HTTP_CGI_Handler:iNumParams <- [DW_OP_plus_uconst 8] [$sp+0]
	@DEBUG_VALUE: HTTP_CGI_Handler:pcParam <- [DW_OP_plus_uconst 4] [$sp+0]
	.loc	2 353 26 is_stmt 1      @ ../User/Http/httpd_cgi_ssi.c:353:26
	add.w	r0, r9, r3
	b	.LBB0_51
.Ltmp81:
	.p2align	2
.LBB0_44:                               @   in Loop: Header=BB0_37 Depth=1
	@DEBUG_VALUE: HTTP_CGI_Handler:i <- $r10
	@DEBUG_VALUE: HTTP_CGI_Handler:x <- $r9
	@DEBUG_VALUE: HTTP_CGI_Handler:pcValue <- [$sp+0]
	@DEBUG_VALUE: HTTP_CGI_Handler:iNumParams <- [DW_OP_plus_uconst 8] [$sp+0]
	@DEBUG_VALUE: HTTP_CGI_Handler:pcParam <- [DW_OP_plus_uconst 4] [$sp+0]
	.loc	2 0 26 is_stmt 0        @ ../User/Http/httpd_cgi_ssi.c:0:26
	movw	r3, :lower16:rubicon_ctrl_buffer
	movt	r3, :upper16:rubicon_ctrl_buffer
	mov	r0, r3
.Ltmp82:
	.loc	2 332 14 is_stmt 1      @ ../User/Http/httpd_cgi_ssi.c:332:14
	str	r3, [r7]
.Ltmp83:
	.p2align	2
.LBB0_45:                               @   Parent Loop BB0_37 Depth=1
                                        @ =>  This Inner Loop Header: Depth=2
	@DEBUG_VALUE: HTTP_CGI_Handler:i <- $r10
	@DEBUG_VALUE: HTTP_CGI_Handler:x <- $r9
	@DEBUG_VALUE: HTTP_CGI_Handler:pcValue <- [$sp+0]
	@DEBUG_VALUE: HTTP_CGI_Handler:iNumParams <- [DW_OP_plus_uconst 8] [$sp+0]
	@DEBUG_VALUE: HTTP_CGI_Handler:pcParam <- [DW_OP_plus_uconst 4] [$sp+0]
	.loc	2 333 82                @ ../User/Http/httpd_cgi_ssi.c:333:82
	adds	r1, r0, #1
	str	r1, [r7]
	.loc	2 333 85 is_stmt 0      @ ../User/Http/httpd_cgi_ssi.c:333:85
	strb	r6, [r0]
	.loc	2 333 11                @ ../User/Http/httpd_cgi_ssi.c:333:11
	ldr	r0, [r7]
	.loc	2 333 5                 @ ../User/Http/httpd_cgi_ssi.c:333:5
	cmp	r0, r11
	blo	.LBB0_45
.Ltmp84:
@ %bb.46:                               @   in Loop: Header=BB0_37 Depth=1
	@DEBUG_VALUE: HTTP_CGI_Handler:i <- $r10
	@DEBUG_VALUE: HTTP_CGI_Handler:x <- $r9
	@DEBUG_VALUE: HTTP_CGI_Handler:pcValue <- [$sp+0]
	@DEBUG_VALUE: HTTP_CGI_Handler:iNumParams <- [DW_OP_plus_uconst 8] [$sp+0]
	@DEBUG_VALUE: HTTP_CGI_Handler:pcParam <- [DW_OP_plus_uconst 4] [$sp+0]
	.loc	2 0 5                   @ ../User/Http/httpd_cgi_ssi.c:0:5
	ldr	r2, [sp]                @ 4-byte Reload
	movs	r0, #0
.Ltmp85:
	@DEBUG_VALUE: HTTP_CGI_Handler:x <- 0
	.p2align	2
.LBB0_47:                               @   Parent Loop BB0_37 Depth=1
                                        @ =>  This Inner Loop Header: Depth=2
	@DEBUG_VALUE: HTTP_CGI_Handler:i <- $r10
	@DEBUG_VALUE: HTTP_CGI_Handler:pcValue <- [$sp+0]
	@DEBUG_VALUE: HTTP_CGI_Handler:iNumParams <- [DW_OP_plus_uconst 8] [$sp+0]
	@DEBUG_VALUE: HTTP_CGI_Handler:pcParam <- [DW_OP_plus_uconst 4] [$sp+0]
	@DEBUG_VALUE: HTTP_CGI_Handler:x <- $r0
	.loc	2 336 49 is_stmt 1      @ ../User/Http/httpd_cgi_ssi.c:336:49
	ldr.w	r1, [r2, r10, lsl #2]
	ldrb	r1, [r1, r0]
	cbz	r1, .LBB0_49
.Ltmp86:
@ %bb.48:                               @   in Loop: Header=BB0_47 Depth=2
	@DEBUG_VALUE: HTTP_CGI_Handler:x <- $r0
	@DEBUG_VALUE: HTTP_CGI_Handler:i <- $r10
	@DEBUG_VALUE: HTTP_CGI_Handler:pcValue <- [$sp+0]
	@DEBUG_VALUE: HTTP_CGI_Handler:iNumParams <- [DW_OP_plus_uconst 8] [$sp+0]
	@DEBUG_VALUE: HTTP_CGI_Handler:pcParam <- [DW_OP_plus_uconst 4] [$sp+0]
	.loc	2 338 29                @ ../User/Http/httpd_cgi_ssi.c:338:29
	strb	r1, [r3, r0]
	.loc	2 339 7                 @ ../User/Http/httpd_cgi_ssi.c:339:7
	adds	r0, #1
.Ltmp87:
	@DEBUG_VALUE: HTTP_CGI_Handler:x <- $r0
	.loc	2 336 45                @ ../User/Http/httpd_cgi_ssi.c:336:45
	cmp.w	r0, #512
	blo	.LBB0_47
.Ltmp88:
.LBB0_49:                               @   in Loop: Header=BB0_37 Depth=1
	@DEBUG_VALUE: HTTP_CGI_Handler:x <- $r0
	@DEBUG_VALUE: HTTP_CGI_Handler:i <- $r10
	@DEBUG_VALUE: HTTP_CGI_Handler:pcValue <- [$sp+0]
	@DEBUG_VALUE: HTTP_CGI_Handler:iNumParams <- [DW_OP_plus_uconst 8] [$sp+0]
	@DEBUG_VALUE: HTTP_CGI_Handler:pcParam <- [DW_OP_plus_uconst 4] [$sp+0]
	@DEBUG_VALUE: HTTP_CGI_Handler:x <- $r0
	.loc	2 341 28                @ ../User/Http/httpd_cgi_ssi.c:341:28
	strb	r6, [r3, r0]
	.loc	2 342 6                 @ ../User/Http/httpd_cgi_ssi.c:342:6
	add.w	r9, r0, #1
.Ltmp89:
	@DEBUG_VALUE: HTTP_CGI_Handler:x <- $r9
	.loc	2 0 6 is_stmt 0         @ ../User/Http/httpd_cgi_ssi.c:0:6
	b	.LBB0_52
.Ltmp90:
.LBB0_50:                               @   in Loop: Header=BB0_37 Depth=1
	@DEBUG_VALUE: HTTP_CGI_Handler:i <- $r10
	@DEBUG_VALUE: HTTP_CGI_Handler:pcValue <- [$sp+0]
	@DEBUG_VALUE: HTTP_CGI_Handler:iNumParams <- [DW_OP_plus_uconst 8] [$sp+0]
	@DEBUG_VALUE: HTTP_CGI_Handler:pcParam <- [DW_OP_plus_uconst 4] [$sp+0]
	.loc	2 348 5 is_stmt 1       @ ../User/Http/httpd_cgi_ssi.c:348:5
	add.w	r0, r9, r2
.Ltmp91:
.LBB0_51:                               @   in Loop: Header=BB0_37 Depth=1
	@DEBUG_VALUE: HTTP_CGI_Handler:i <- $r10
	@DEBUG_VALUE: HTTP_CGI_Handler:pcValue <- [$sp+0]
	@DEBUG_VALUE: HTTP_CGI_Handler:iNumParams <- [DW_OP_plus_uconst 8] [$sp+0]
	@DEBUG_VALUE: HTTP_CGI_Handler:pcParam <- [DW_OP_plus_uconst 4] [$sp+0]
	@DEBUG_VALUE: HTTP_CGI_Handler:x <- $r0
	.loc	2 353 26                @ ../User/Http/httpd_cgi_ssi.c:353:26
	movw	r1, :lower16:rubicon_ctrl_request
	movs	r2, #208
.Ltmp92:
	.loc	2 0 0 is_stmt 0         @ ../User/Http/httpd_cgi_ssi.c:0:0
	mov	r9, r0
.Ltmp93:
	@DEBUG_VALUE: HTTP_CGI_Handler:x <- $r9
	@DEBUG_VALUE: HTTP_CGI_Handler:x <- $r9
	mov	r5, r12
.Ltmp94:
	.loc	2 353 26                @ ../User/Http/httpd_cgi_ssi.c:353:26
	movt	r1, :upper16:rubicon_ctrl_request
	strb	r2, [r1]
.Ltmp95:
.LBB0_52:                               @   in Loop: Header=BB0_37 Depth=1
	@DEBUG_VALUE: HTTP_CGI_Handler:i <- $r10
	@DEBUG_VALUE: HTTP_CGI_Handler:x <- $r9
	@DEBUG_VALUE: HTTP_CGI_Handler:pcValue <- [$sp+0]
	@DEBUG_VALUE: HTTP_CGI_Handler:iNumParams <- [DW_OP_plus_uconst 8] [$sp+0]
	@DEBUG_VALUE: HTTP_CGI_Handler:pcParam <- [DW_OP_plus_uconst 4] [$sp+0]
	@DEBUG_VALUE: HTTP_CGI_Handler:x <- $r9
	.loc	2 328 3 is_stmt 1       @ ../User/Http/httpd_cgi_ssi.c:328:3
	ldr	r0, [sp, #8]            @ 4-byte Reload
.Ltmp96:
	.loc	2 328 32 is_stmt 0      @ ../User/Http/httpd_cgi_ssi.c:328:32
	add.w	r10, r10, #1
.Ltmp97:
	@DEBUG_VALUE: HTTP_CGI_Handler:i <- $r10
	.loc	2 328 3                 @ ../User/Http/httpd_cgi_ssi.c:328:3
	cmp	r10, r0
	bne	.LBB0_37
.Ltmp98:
@ %bb.53:
	@DEBUG_VALUE: HTTP_CGI_Handler:i <- $r10
	@DEBUG_VALUE: HTTP_CGI_Handler:x <- $r9
	@DEBUG_VALUE: HTTP_CGI_Handler:pcValue <- [$sp+0]
	@DEBUG_VALUE: HTTP_CGI_Handler:iNumParams <- [DW_OP_plus_uconst 8] [$sp+0]
	@DEBUG_VALUE: HTTP_CGI_Handler:pcParam <- [DW_OP_plus_uconst 4] [$sp+0]
	@DEBUG_VALUE: HTTP_CGI_Handler:i <- 0
	.loc	2 357 9 is_stmt 1       @ ../User/Http/httpd_cgi_ssi.c:357:9
	ldr	r0, [sp, #8]            @ 4-byte Reload
	cmp	r0, #0
	beq.w	.LBB0_3
.Ltmp99:
@ %bb.54:
	@DEBUG_VALUE: HTTP_CGI_Handler:x <- $r9
	@DEBUG_VALUE: HTTP_CGI_Handler:pcValue <- [$sp+0]
	@DEBUG_VALUE: HTTP_CGI_Handler:iNumParams <- [DW_OP_plus_uconst 8] [$sp+0]
	@DEBUG_VALUE: HTTP_CGI_Handler:pcParam <- [DW_OP_plus_uconst 4] [$sp+0]
	.loc	2 0 9 is_stmt 0         @ ../User/Http/httpd_cgi_ssi.c:0:9
	movs	r6, #0
	adr.w	r8, __arm_cp.0_70
	adr	r4, __arm_cp.0_71
	mov.w	r10, #0
.Ltmp100:
	.p2align	2
.LBB0_55:                               @ =>This Loop Header: Depth=1
                                        @     Child Loop BB0_68 Depth 2
                                        @     Child Loop BB0_70 Depth 2
	@DEBUG_VALUE: HTTP_CGI_Handler:x <- $r9
	@DEBUG_VALUE: HTTP_CGI_Handler:pcValue <- [$sp+0]
	@DEBUG_VALUE: HTTP_CGI_Handler:iNumParams <- [DW_OP_plus_uconst 8] [$sp+0]
	@DEBUG_VALUE: HTTP_CGI_Handler:pcParam <- [DW_OP_plus_uconst 4] [$sp+0]
	@DEBUG_VALUE: HTTP_CGI_Handler:i <- $r10
	@DEBUG_VALUE: HTTP_CGI_Handler:x <- $r9
	.loc	2 359 24 is_stmt 1      @ ../User/Http/httpd_cgi_ssi.c:359:24
	ldr	r0, [sp, #4]            @ 4-byte Reload
	.loc	2 359 17 is_stmt 0      @ ../User/Http/httpd_cgi_ssi.c:359:17
	mov	r1, r8
	.loc	2 359 24                @ ../User/Http/httpd_cgi_ssi.c:359:24
	ldr.w	r5, [r0, r10, lsl #2]
	.loc	2 359 17                @ ../User/Http/httpd_cgi_ssi.c:359:17
	mov	r0, r5
	bl	strcmp
.Ltmp101:
	.loc	2 359 17                @ ../User/Http/httpd_cgi_ssi.c:359:17
	cmp	r0, #0
	beq	.LBB0_67
.Ltmp102:
@ %bb.56:                               @   in Loop: Header=BB0_55 Depth=1
	@DEBUG_VALUE: HTTP_CGI_Handler:i <- $r10
	@DEBUG_VALUE: HTTP_CGI_Handler:x <- $r9
	@DEBUG_VALUE: HTTP_CGI_Handler:pcValue <- [$sp+0]
	@DEBUG_VALUE: HTTP_CGI_Handler:iNumParams <- [DW_OP_plus_uconst 8] [$sp+0]
	@DEBUG_VALUE: HTTP_CGI_Handler:pcParam <- [DW_OP_plus_uconst 4] [$sp+0]
	.loc	2 373 22 is_stmt 1      @ ../User/Http/httpd_cgi_ssi.c:373:22
	mov	r0, r5
	mov	r1, r4
	bl	strcmp
.Ltmp103:
	.loc	2 373 22 is_stmt 0      @ ../User/Http/httpd_cgi_ssi.c:373:22
	cbz	r0, .LBB0_66
.Ltmp104:
@ %bb.57:                               @   in Loop: Header=BB0_55 Depth=1
	@DEBUG_VALUE: HTTP_CGI_Handler:i <- $r10
	@DEBUG_VALUE: HTTP_CGI_Handler:x <- $r9
	@DEBUG_VALUE: HTTP_CGI_Handler:pcValue <- [$sp+0]
	@DEBUG_VALUE: HTTP_CGI_Handler:iNumParams <- [DW_OP_plus_uconst 8] [$sp+0]
	@DEBUG_VALUE: HTTP_CGI_Handler:pcParam <- [DW_OP_plus_uconst 4] [$sp+0]
	.loc	2 377 22 is_stmt 1      @ ../User/Http/httpd_cgi_ssi.c:377:22
	mov	r0, r5
	adr	r1, __arm_cp.0_72
	bl	strcmp
.Ltmp105:
	.loc	2 377 22 is_stmt 0      @ ../User/Http/httpd_cgi_ssi.c:377:22
	cbz	r0, .LBB0_66
.Ltmp106:
@ %bb.58:                               @   in Loop: Header=BB0_55 Depth=1
	@DEBUG_VALUE: HTTP_CGI_Handler:i <- $r10
	@DEBUG_VALUE: HTTP_CGI_Handler:x <- $r9
	@DEBUG_VALUE: HTTP_CGI_Handler:pcValue <- [$sp+0]
	@DEBUG_VALUE: HTTP_CGI_Handler:iNumParams <- [DW_OP_plus_uconst 8] [$sp+0]
	@DEBUG_VALUE: HTTP_CGI_Handler:pcParam <- [DW_OP_plus_uconst 4] [$sp+0]
	.loc	2 381 22 is_stmt 1      @ ../User/Http/httpd_cgi_ssi.c:381:22
	mov	r0, r5
	adr	r1, __arm_cp.0_73
	bl	strcmp
.Ltmp107:
	.loc	2 381 22 is_stmt 0      @ ../User/Http/httpd_cgi_ssi.c:381:22
	cbz	r0, .LBB0_66
.Ltmp108:
@ %bb.59:                               @   in Loop: Header=BB0_55 Depth=1
	@DEBUG_VALUE: HTTP_CGI_Handler:i <- $r10
	@DEBUG_VALUE: HTTP_CGI_Handler:x <- $r9
	@DEBUG_VALUE: HTTP_CGI_Handler:pcValue <- [$sp+0]
	@DEBUG_VALUE: HTTP_CGI_Handler:iNumParams <- [DW_OP_plus_uconst 8] [$sp+0]
	@DEBUG_VALUE: HTTP_CGI_Handler:pcParam <- [DW_OP_plus_uconst 4] [$sp+0]
	.loc	2 385 22 is_stmt 1      @ ../User/Http/httpd_cgi_ssi.c:385:22
	mov	r0, r5
	adr	r1, __arm_cp.0_74
	bl	strcmp
.Ltmp109:
	.loc	2 385 22 is_stmt 0      @ ../User/Http/httpd_cgi_ssi.c:385:22
	cbz	r0, .LBB0_66
.Ltmp110:
@ %bb.60:                               @   in Loop: Header=BB0_55 Depth=1
	@DEBUG_VALUE: HTTP_CGI_Handler:i <- $r10
	@DEBUG_VALUE: HTTP_CGI_Handler:x <- $r9
	@DEBUG_VALUE: HTTP_CGI_Handler:pcValue <- [$sp+0]
	@DEBUG_VALUE: HTTP_CGI_Handler:iNumParams <- [DW_OP_plus_uconst 8] [$sp+0]
	@DEBUG_VALUE: HTTP_CGI_Handler:pcParam <- [DW_OP_plus_uconst 4] [$sp+0]
	.loc	2 389 22 is_stmt 1      @ ../User/Http/httpd_cgi_ssi.c:389:22
	mov	r0, r5
	adr	r1, __arm_cp.0_75
	bl	strcmp
.Ltmp111:
	.loc	2 389 22 is_stmt 0      @ ../User/Http/httpd_cgi_ssi.c:389:22
	cbz	r0, .LBB0_66
.Ltmp112:
@ %bb.61:                               @   in Loop: Header=BB0_55 Depth=1
	@DEBUG_VALUE: HTTP_CGI_Handler:i <- $r10
	@DEBUG_VALUE: HTTP_CGI_Handler:x <- $r9
	@DEBUG_VALUE: HTTP_CGI_Handler:pcValue <- [$sp+0]
	@DEBUG_VALUE: HTTP_CGI_Handler:iNumParams <- [DW_OP_plus_uconst 8] [$sp+0]
	@DEBUG_VALUE: HTTP_CGI_Handler:pcParam <- [DW_OP_plus_uconst 4] [$sp+0]
	.loc	2 393 22 is_stmt 1      @ ../User/Http/httpd_cgi_ssi.c:393:22
	mov	r0, r5
	adr	r1, __arm_cp.0_76
	bl	strcmp
.Ltmp113:
	.loc	2 393 22 is_stmt 0      @ ../User/Http/httpd_cgi_ssi.c:393:22
	cbz	r0, .LBB0_66
.Ltmp114:
@ %bb.62:                               @   in Loop: Header=BB0_55 Depth=1
	@DEBUG_VALUE: HTTP_CGI_Handler:i <- $r10
	@DEBUG_VALUE: HTTP_CGI_Handler:x <- $r9
	@DEBUG_VALUE: HTTP_CGI_Handler:pcValue <- [$sp+0]
	@DEBUG_VALUE: HTTP_CGI_Handler:iNumParams <- [DW_OP_plus_uconst 8] [$sp+0]
	@DEBUG_VALUE: HTTP_CGI_Handler:pcParam <- [DW_OP_plus_uconst 4] [$sp+0]
	.loc	2 397 22 is_stmt 1      @ ../User/Http/httpd_cgi_ssi.c:397:22
	mov	r0, r5
	adr	r1, __arm_cp.0_77
	bl	strcmp
.Ltmp115:
	.loc	2 397 22 is_stmt 0      @ ../User/Http/httpd_cgi_ssi.c:397:22
	cbz	r0, .LBB0_66
.Ltmp116:
@ %bb.63:                               @   in Loop: Header=BB0_55 Depth=1
	@DEBUG_VALUE: HTTP_CGI_Handler:i <- $r10
	@DEBUG_VALUE: HTTP_CGI_Handler:x <- $r9
	@DEBUG_VALUE: HTTP_CGI_Handler:pcValue <- [$sp+0]
	@DEBUG_VALUE: HTTP_CGI_Handler:iNumParams <- [DW_OP_plus_uconst 8] [$sp+0]
	@DEBUG_VALUE: HTTP_CGI_Handler:pcParam <- [DW_OP_plus_uconst 4] [$sp+0]
	.loc	2 401 13 is_stmt 1      @ ../User/Http/httpd_cgi_ssi.c:401:13
	mov	r0, r5
	adr	r1, __arm_cp.0_78
	bl	strcmp
.Ltmp117:
	.loc	2 401 13 is_stmt 0      @ ../User/Http/httpd_cgi_ssi.c:401:13
	cbz	r0, .LBB0_66
.Ltmp118:
@ %bb.64:                               @   in Loop: Header=BB0_55 Depth=1
	@DEBUG_VALUE: HTTP_CGI_Handler:i <- $r10
	@DEBUG_VALUE: HTTP_CGI_Handler:x <- $r9
	@DEBUG_VALUE: HTTP_CGI_Handler:pcValue <- [$sp+0]
	@DEBUG_VALUE: HTTP_CGI_Handler:iNumParams <- [DW_OP_plus_uconst 8] [$sp+0]
	@DEBUG_VALUE: HTTP_CGI_Handler:pcParam <- [DW_OP_plus_uconst 4] [$sp+0]
	.loc	2 405 22 is_stmt 1      @ ../User/Http/httpd_cgi_ssi.c:405:22
	mov	r0, r5
	adr	r1, .LCPI0_79
	bl	strcmp
.Ltmp119:
	.loc	2 405 22 is_stmt 0      @ ../User/Http/httpd_cgi_ssi.c:405:22
	cbnz	r0, .LBB0_73
.Ltmp120:
@ %bb.65:                               @   in Loop: Header=BB0_55 Depth=1
	@DEBUG_VALUE: HTTP_CGI_Handler:i <- $r10
	@DEBUG_VALUE: HTTP_CGI_Handler:x <- $r9
	@DEBUG_VALUE: HTTP_CGI_Handler:pcValue <- [$sp+0]
	@DEBUG_VALUE: HTTP_CGI_Handler:iNumParams <- [DW_OP_plus_uconst 8] [$sp+0]
	@DEBUG_VALUE: HTTP_CGI_Handler:pcParam <- [DW_OP_plus_uconst 4] [$sp+0]
	.loc	2 407 39 is_stmt 1      @ ../User/Http/httpd_cgi_ssi.c:407:39
	ldr	r0, [sp]                @ 4-byte Reload
	.loc	2 407 18 is_stmt 0      @ ../User/Http/httpd_cgi_ssi.c:407:18
	ldr	r1, [r7]
	.loc	2 407 39                @ ../User/Http/httpd_cgi_ssi.c:407:39
	ldr.w	r0, [r0, r10, lsl #2]
	ldrb	r0, [r0]
	.loc	2 407 27                @ ../User/Http/httpd_cgi_ssi.c:407:27
	strb	r0, [r1]
	.loc	2 408 26 is_stmt 1      @ ../User/Http/httpd_cgi_ssi.c:408:26
	movw	r0, :lower16:rubicon_ctrl_request
	movs	r1, #210
	movt	r0, :upper16:rubicon_ctrl_request
	strb	r1, [r0]
	b	.LBB0_73
.Ltmp121:
	.p2align	2
.LBB0_66:                               @   in Loop: Header=BB0_55 Depth=1
	@DEBUG_VALUE: HTTP_CGI_Handler:i <- $r10
	@DEBUG_VALUE: HTTP_CGI_Handler:x <- $r9
	@DEBUG_VALUE: HTTP_CGI_Handler:pcValue <- [$sp+0]
	@DEBUG_VALUE: HTTP_CGI_Handler:iNumParams <- [DW_OP_plus_uconst 8] [$sp+0]
	@DEBUG_VALUE: HTTP_CGI_Handler:pcParam <- [DW_OP_plus_uconst 4] [$sp+0]
	.loc	2 0 0 is_stmt 0         @ ../User/Http/httpd_cgi_ssi.c:0:0
	ldr	r0, [sp]                @ 4-byte Reload
	ldr	r1, [r7]
	ldr.w	r0, [r0, r10, lsl #2]
	adds	r2, r1, #1
	ldrb	r0, [r0]
	str	r2, [r7]
	strb	r0, [r1]
	b	.LBB0_73
.Ltmp122:
.LBB0_67:                               @   in Loop: Header=BB0_55 Depth=1
	@DEBUG_VALUE: HTTP_CGI_Handler:i <- $r10
	@DEBUG_VALUE: HTTP_CGI_Handler:x <- $r9
	@DEBUG_VALUE: HTTP_CGI_Handler:pcValue <- [$sp+0]
	@DEBUG_VALUE: HTTP_CGI_Handler:iNumParams <- [DW_OP_plus_uconst 8] [$sp+0]
	@DEBUG_VALUE: HTTP_CGI_Handler:pcParam <- [DW_OP_plus_uconst 4] [$sp+0]
	movw	r2, :lower16:rubicon_ctrl_buffer
	movt	r2, :upper16:rubicon_ctrl_buffer
	mov	r0, r2
.Ltmp123:
	.loc	2 361 26 is_stmt 1      @ ../User/Http/httpd_cgi_ssi.c:361:26
	str	r2, [r7]
.Ltmp124:
	.p2align	2
.LBB0_68:                               @   Parent Loop BB0_55 Depth=1
                                        @ =>  This Inner Loop Header: Depth=2
	@DEBUG_VALUE: HTTP_CGI_Handler:i <- $r10
	@DEBUG_VALUE: HTTP_CGI_Handler:x <- $r9
	@DEBUG_VALUE: HTTP_CGI_Handler:pcValue <- [$sp+0]
	@DEBUG_VALUE: HTTP_CGI_Handler:iNumParams <- [DW_OP_plus_uconst 8] [$sp+0]
	@DEBUG_VALUE: HTTP_CGI_Handler:pcParam <- [DW_OP_plus_uconst 4] [$sp+0]
	.loc	2 362 96                @ ../User/Http/httpd_cgi_ssi.c:362:96
	adds	r1, r0, #1
	str	r1, [r7]
	.loc	2 362 99 is_stmt 0      @ ../User/Http/httpd_cgi_ssi.c:362:99
	strb	r6, [r0]
	.loc	2 362 24                @ ../User/Http/httpd_cgi_ssi.c:362:24
	ldr	r0, [r7]
	.loc	2 362 17                @ ../User/Http/httpd_cgi_ssi.c:362:17
	cmp	r0, r11
	blo	.LBB0_68
.Ltmp125:
@ %bb.69:                               @   in Loop: Header=BB0_55 Depth=1
	@DEBUG_VALUE: HTTP_CGI_Handler:i <- $r10
	@DEBUG_VALUE: HTTP_CGI_Handler:x <- $r9
	@DEBUG_VALUE: HTTP_CGI_Handler:pcValue <- [$sp+0]
	@DEBUG_VALUE: HTTP_CGI_Handler:iNumParams <- [DW_OP_plus_uconst 8] [$sp+0]
	@DEBUG_VALUE: HTTP_CGI_Handler:pcParam <- [DW_OP_plus_uconst 4] [$sp+0]
	@DEBUG_VALUE: HTTP_CGI_Handler:x <- 0
	.loc	2 0 17                  @ ../User/Http/httpd_cgi_ssi.c:0:17
	ldr	r3, [sp]                @ 4-byte Reload
	mov.w	r9, #0
	mov	r0, r2
	.loc	2 364 14 is_stmt 1      @ ../User/Http/httpd_cgi_ssi.c:364:14
	str	r2, [r7]
.Ltmp126:
	.p2align	2
.LBB0_70:                               @   Parent Loop BB0_55 Depth=1
                                        @ =>  This Inner Loop Header: Depth=2
	@DEBUG_VALUE: HTTP_CGI_Handler:i <- $r10
	@DEBUG_VALUE: HTTP_CGI_Handler:pcValue <- [$sp+0]
	@DEBUG_VALUE: HTTP_CGI_Handler:iNumParams <- [DW_OP_plus_uconst 8] [$sp+0]
	@DEBUG_VALUE: HTTP_CGI_Handler:pcParam <- [DW_OP_plus_uconst 4] [$sp+0]
	@DEBUG_VALUE: HTTP_CGI_Handler:x <- $r9
	.loc	2 366 94                @ ../User/Http/httpd_cgi_ssi.c:366:94
	ldr.w	r1, [r3, r10, lsl #2]
	ldrb.w	r1, [r1, r9]
	cbz	r1, .LBB0_72
.Ltmp127:
@ %bb.71:                               @   in Loop: Header=BB0_70 Depth=2
	@DEBUG_VALUE: HTTP_CGI_Handler:i <- $r10
	@DEBUG_VALUE: HTTP_CGI_Handler:x <- $r9
	@DEBUG_VALUE: HTTP_CGI_Handler:pcValue <- [$sp+0]
	@DEBUG_VALUE: HTTP_CGI_Handler:iNumParams <- [DW_OP_plus_uconst 8] [$sp+0]
	@DEBUG_VALUE: HTTP_CGI_Handler:pcParam <- [DW_OP_plus_uconst 4] [$sp+0]
	.loc	2 368 30                @ ../User/Http/httpd_cgi_ssi.c:368:30
	adds	r2, r0, #1
	.loc	2 368 57 is_stmt 0      @ ../User/Http/httpd_cgi_ssi.c:368:57
	add.w	r9, r9, #1
.Ltmp128:
	@DEBUG_VALUE: HTTP_CGI_Handler:x <- $r9
	.loc	2 368 30                @ ../User/Http/httpd_cgi_ssi.c:368:30
	str	r2, [r7]
	.loc	2 368 33                @ ../User/Http/httpd_cgi_ssi.c:368:33
	strb	r1, [r0]
.Ltmp129:
	.loc	2 366 25 is_stmt 1      @ ../User/Http/httpd_cgi_ssi.c:366:25
	ldr	r0, [r7]
	.loc	2 366 90 is_stmt 0      @ ../User/Http/httpd_cgi_ssi.c:366:90
	cmp	r0, r11
	blo	.LBB0_70
.Ltmp130:
.LBB0_72:                               @   in Loop: Header=BB0_55 Depth=1
	@DEBUG_VALUE: HTTP_CGI_Handler:i <- $r10
	@DEBUG_VALUE: HTTP_CGI_Handler:x <- $r9
	@DEBUG_VALUE: HTTP_CGI_Handler:pcValue <- [$sp+0]
	@DEBUG_VALUE: HTTP_CGI_Handler:iNumParams <- [DW_OP_plus_uconst 8] [$sp+0]
	@DEBUG_VALUE: HTTP_CGI_Handler:pcParam <- [DW_OP_plus_uconst 4] [$sp+0]
	@DEBUG_VALUE: HTTP_CGI_Handler:x <- $r9
	.loc	2 371 14 is_stmt 1      @ ../User/Http/httpd_cgi_ssi.c:371:14
	adds	r1, r0, #1
	str	r1, [r7]
	.loc	2 371 17 is_stmt 0      @ ../User/Http/httpd_cgi_ssi.c:371:17
	strb	r6, [r0]
.Ltmp131:
.LBB0_73:                               @   in Loop: Header=BB0_55 Depth=1
	@DEBUG_VALUE: HTTP_CGI_Handler:i <- $r10
	@DEBUG_VALUE: HTTP_CGI_Handler:x <- $r9
	@DEBUG_VALUE: HTTP_CGI_Handler:pcValue <- [$sp+0]
	@DEBUG_VALUE: HTTP_CGI_Handler:iNumParams <- [DW_OP_plus_uconst 8] [$sp+0]
	@DEBUG_VALUE: HTTP_CGI_Handler:pcParam <- [DW_OP_plus_uconst 4] [$sp+0]
	@DEBUG_VALUE: HTTP_CGI_Handler:x <- $r9
	.loc	2 357 9 is_stmt 1       @ ../User/Http/httpd_cgi_ssi.c:357:9
	ldr	r0, [sp, #8]            @ 4-byte Reload
.Ltmp132:
	.loc	2 357 38 is_stmt 0      @ ../User/Http/httpd_cgi_ssi.c:357:38
	add.w	r10, r10, #1
.Ltmp133:
	@DEBUG_VALUE: HTTP_CGI_Handler:i <- $r10
	.loc	2 357 9                 @ ../User/Http/httpd_cgi_ssi.c:357:9
	cmp	r10, r0
	bne.w	.LBB0_55
.Ltmp134:
@ %bb.74:
	@DEBUG_VALUE: HTTP_CGI_Handler:i <- $r10
	@DEBUG_VALUE: HTTP_CGI_Handler:x <- $r9
	@DEBUG_VALUE: HTTP_CGI_Handler:pcValue <- [$sp+0]
	@DEBUG_VALUE: HTTP_CGI_Handler:iNumParams <- [DW_OP_plus_uconst 8] [$sp+0]
	@DEBUG_VALUE: HTTP_CGI_Handler:pcParam <- [DW_OP_plus_uconst 4] [$sp+0]
	@DEBUG_VALUE: HTTP_CGI_Handler:i <- 0
	.loc	2 413 9 is_stmt 1       @ ../User/Http/httpd_cgi_ssi.c:413:9
	ldr	r0, [sp, #8]            @ 4-byte Reload
	cmp	r0, #0
	beq.w	.LBB0_3
.Ltmp135:
@ %bb.75:
	@DEBUG_VALUE: HTTP_CGI_Handler:x <- $r9
	@DEBUG_VALUE: HTTP_CGI_Handler:pcValue <- [$sp+0]
	@DEBUG_VALUE: HTTP_CGI_Handler:iNumParams <- [DW_OP_plus_uconst 8] [$sp+0]
	@DEBUG_VALUE: HTTP_CGI_Handler:pcParam <- [DW_OP_plus_uconst 4] [$sp+0]
	.loc	2 0 9 is_stmt 0         @ ../User/Http/httpd_cgi_ssi.c:0:9
	movw	r6, :lower16:.L.str.3
	movs	r4, #0
	adr	r5, __arm_cp.0_80
	movt	r6, :upper16:.L.str.3
.Ltmp136:
	.p2align	2
.LBB0_76:                               @ =>This Inner Loop Header: Depth=1
	@DEBUG_VALUE: HTTP_CGI_Handler:x <- $r9
	@DEBUG_VALUE: HTTP_CGI_Handler:pcValue <- [$sp+0]
	@DEBUG_VALUE: HTTP_CGI_Handler:iNumParams <- [DW_OP_plus_uconst 8] [$sp+0]
	@DEBUG_VALUE: HTTP_CGI_Handler:pcParam <- [DW_OP_plus_uconst 4] [$sp+0]
	@DEBUG_VALUE: HTTP_CGI_Handler:i <- $r4
	.loc	2 415 24 is_stmt 1      @ ../User/Http/httpd_cgi_ssi.c:415:24
	ldr	r0, [sp, #4]            @ 4-byte Reload
	.loc	2 415 17 is_stmt 0      @ ../User/Http/httpd_cgi_ssi.c:415:17
	mov	r1, r5
	.loc	2 415 24                @ ../User/Http/httpd_cgi_ssi.c:415:24
	ldr.w	r0, [r0, r4, lsl #2]
	.loc	2 415 17                @ ../User/Http/httpd_cgi_ssi.c:415:17
	bl	strcmp
	cbnz	r0, .LBB0_78
.Ltmp137:
@ %bb.77:                               @   in Loop: Header=BB0_76 Depth=1
	@DEBUG_VALUE: HTTP_CGI_Handler:i <- $r4
	@DEBUG_VALUE: HTTP_CGI_Handler:x <- $r9
	@DEBUG_VALUE: HTTP_CGI_Handler:pcValue <- [$sp+0]
	@DEBUG_VALUE: HTTP_CGI_Handler:iNumParams <- [DW_OP_plus_uconst 8] [$sp+0]
	@DEBUG_VALUE: HTTP_CGI_Handler:pcParam <- [DW_OP_plus_uconst 4] [$sp+0]
	.loc	2 417 16 is_stmt 1      @ ../User/Http/httpd_cgi_ssi.c:417:16
	ldr	r0, [sp]                @ 4-byte Reload
	.loc	2 417 9 is_stmt 0       @ ../User/Http/httpd_cgi_ssi.c:417:9
	mov	r1, r6
	.loc	2 417 16                @ ../User/Http/httpd_cgi_ssi.c:417:16
	ldr.w	r0, [r0, r4, lsl #2]
	.loc	2 417 9                 @ ../User/Http/httpd_cgi_ssi.c:417:9
	bl	strcmp
.Ltmp138:
	.loc	2 417 9                 @ ../User/Http/httpd_cgi_ssi.c:417:9
	cmp	r0, #0
	beq.w	.LBB0_605
.Ltmp139:
.LBB0_78:                               @   in Loop: Header=BB0_76 Depth=1
	@DEBUG_VALUE: HTTP_CGI_Handler:i <- $r4
	@DEBUG_VALUE: HTTP_CGI_Handler:x <- $r9
	@DEBUG_VALUE: HTTP_CGI_Handler:pcValue <- [$sp+0]
	@DEBUG_VALUE: HTTP_CGI_Handler:iNumParams <- [DW_OP_plus_uconst 8] [$sp+0]
	@DEBUG_VALUE: HTTP_CGI_Handler:pcParam <- [DW_OP_plus_uconst 4] [$sp+0]
	.loc	2 413 9 is_stmt 1       @ ../User/Http/httpd_cgi_ssi.c:413:9
	ldr	r0, [sp, #8]            @ 4-byte Reload
.Ltmp140:
	.loc	2 413 38 is_stmt 0      @ ../User/Http/httpd_cgi_ssi.c:413:38
	adds	r4, #1
.Ltmp141:
	@DEBUG_VALUE: HTTP_CGI_Handler:i <- $r4
	.loc	2 413 9                 @ ../User/Http/httpd_cgi_ssi.c:413:9
	cmp	r4, r0
	blo	.LBB0_76
.Ltmp142:
@ %bb.79:
	@DEBUG_VALUE: HTTP_CGI_Handler:i <- $r4
	@DEBUG_VALUE: HTTP_CGI_Handler:x <- $r9
	@DEBUG_VALUE: HTTP_CGI_Handler:pcValue <- [$sp+0]
	@DEBUG_VALUE: HTTP_CGI_Handler:iNumParams <- [DW_OP_plus_uconst 8] [$sp+0]
	@DEBUG_VALUE: HTTP_CGI_Handler:pcParam <- [DW_OP_plus_uconst 4] [$sp+0]
	.loc	2 0 9                   @ ../User/Http/httpd_cgi_ssi.c:0:9
	movw	r10, :lower16:RUBICON_FileUpdatePacket
	movs	r4, #0
.Ltmp143:
	adr	r5, __arm_cp.0_81
	mov.w	r8, #193
	movs	r6, #0
	movt	r10, :upper16:RUBICON_FileUpdatePacket
.Ltmp144:
	.p2align	2
.LBB0_80:                               @ =>This Loop Header: Depth=1
                                        @     Child Loop BB0_82 Depth 2
                                        @     Child Loop BB0_84 Depth 2
	@DEBUG_VALUE: HTTP_CGI_Handler:x <- $r9
	@DEBUG_VALUE: HTTP_CGI_Handler:pcValue <- [$sp+0]
	@DEBUG_VALUE: HTTP_CGI_Handler:iNumParams <- [DW_OP_plus_uconst 8] [$sp+0]
	@DEBUG_VALUE: HTTP_CGI_Handler:pcParam <- [DW_OP_plus_uconst 4] [$sp+0]
	@DEBUG_VALUE: HTTP_CGI_Handler:i <- $r6
	@DEBUG_VALUE: HTTP_CGI_Handler:x <- $r9
	.loc	2 431 24 is_stmt 1      @ ../User/Http/httpd_cgi_ssi.c:431:24
	ldr	r0, [sp, #4]            @ 4-byte Reload
	.loc	2 431 17 is_stmt 0      @ ../User/Http/httpd_cgi_ssi.c:431:17
	mov	r1, r5
	.loc	2 431 24                @ ../User/Http/httpd_cgi_ssi.c:431:24
	ldr.w	r0, [r0, r6, lsl #2]
	.loc	2 431 17                @ ../User/Http/httpd_cgi_ssi.c:431:17
	bl	strcmp
	cbnz	r0, .LBB0_87
.Ltmp145:
@ %bb.81:                               @   in Loop: Header=BB0_80 Depth=1
	@DEBUG_VALUE: HTTP_CGI_Handler:x <- $r9
	@DEBUG_VALUE: HTTP_CGI_Handler:i <- $r6
	@DEBUG_VALUE: HTTP_CGI_Handler:pcValue <- [$sp+0]
	@DEBUG_VALUE: HTTP_CGI_Handler:iNumParams <- [DW_OP_plus_uconst 8] [$sp+0]
	@DEBUG_VALUE: HTTP_CGI_Handler:pcParam <- [DW_OP_plus_uconst 4] [$sp+0]
	.loc	2 0 17                  @ ../User/Http/httpd_cgi_ssi.c:0:17
	movw	r2, :lower16:rubicon_ctrl_buffer
	movt	r2, :upper16:rubicon_ctrl_buffer
	mov	r0, r2
.Ltmp146:
	.loc	2 433 26 is_stmt 1      @ ../User/Http/httpd_cgi_ssi.c:433:26
	str	r2, [r7]
.Ltmp147:
	.p2align	2
.LBB0_82:                               @   Parent Loop BB0_80 Depth=1
                                        @ =>  This Inner Loop Header: Depth=2
	@DEBUG_VALUE: HTTP_CGI_Handler:x <- $r9
	@DEBUG_VALUE: HTTP_CGI_Handler:i <- $r6
	@DEBUG_VALUE: HTTP_CGI_Handler:pcValue <- [$sp+0]
	@DEBUG_VALUE: HTTP_CGI_Handler:iNumParams <- [DW_OP_plus_uconst 8] [$sp+0]
	@DEBUG_VALUE: HTTP_CGI_Handler:pcParam <- [DW_OP_plus_uconst 4] [$sp+0]
	.loc	2 434 96                @ ../User/Http/httpd_cgi_ssi.c:434:96
	adds	r1, r0, #1
	str	r1, [r7]
	.loc	2 434 99 is_stmt 0      @ ../User/Http/httpd_cgi_ssi.c:434:99
	strb	r4, [r0]
	.loc	2 434 24                @ ../User/Http/httpd_cgi_ssi.c:434:24
	ldr	r0, [r7]
	.loc	2 434 17                @ ../User/Http/httpd_cgi_ssi.c:434:17
	cmp	r0, r11
	blo	.LBB0_82
.Ltmp148:
@ %bb.83:                               @   in Loop: Header=BB0_80 Depth=1
	@DEBUG_VALUE: HTTP_CGI_Handler:x <- $r9
	@DEBUG_VALUE: HTTP_CGI_Handler:i <- $r6
	@DEBUG_VALUE: HTTP_CGI_Handler:pcValue <- [$sp+0]
	@DEBUG_VALUE: HTTP_CGI_Handler:iNumParams <- [DW_OP_plus_uconst 8] [$sp+0]
	@DEBUG_VALUE: HTTP_CGI_Handler:pcParam <- [DW_OP_plus_uconst 4] [$sp+0]
	.loc	2 0 17                  @ ../User/Http/httpd_cgi_ssi.c:0:17
	ldr	r1, [sp]                @ 4-byte Reload
	mov.w	r9, #0
.Ltmp149:
	@DEBUG_VALUE: HTTP_CGI_Handler:x <- 0
	.p2align	2
.LBB0_84:                               @   Parent Loop BB0_80 Depth=1
                                        @ =>  This Inner Loop Header: Depth=2
	@DEBUG_VALUE: HTTP_CGI_Handler:i <- $r6
	@DEBUG_VALUE: HTTP_CGI_Handler:pcValue <- [$sp+0]
	@DEBUG_VALUE: HTTP_CGI_Handler:iNumParams <- [DW_OP_plus_uconst 8] [$sp+0]
	@DEBUG_VALUE: HTTP_CGI_Handler:pcParam <- [DW_OP_plus_uconst 4] [$sp+0]
	@DEBUG_VALUE: HTTP_CGI_Handler:x <- $r9
	.loc	2 438 63 is_stmt 1      @ ../User/Http/httpd_cgi_ssi.c:438:63
	ldr.w	r0, [r1, r6, lsl #2]
	ldrb.w	r0, [r0, r9]
	cbz	r0, .LBB0_86
.Ltmp150:
@ %bb.85:                               @   in Loop: Header=BB0_84 Depth=2
	@DEBUG_VALUE: HTTP_CGI_Handler:x <- $r9
	@DEBUG_VALUE: HTTP_CGI_Handler:i <- $r6
	@DEBUG_VALUE: HTTP_CGI_Handler:pcValue <- [$sp+0]
	@DEBUG_VALUE: HTTP_CGI_Handler:iNumParams <- [DW_OP_plus_uconst 8] [$sp+0]
	@DEBUG_VALUE: HTTP_CGI_Handler:pcParam <- [DW_OP_plus_uconst 4] [$sp+0]
	.loc	2 440 44                @ ../User/Http/httpd_cgi_ssi.c:440:44
	strb.w	r0, [r2, r9]
	.loc	2 441 22                @ ../User/Http/httpd_cgi_ssi.c:441:22
	add.w	r9, r9, #1
.Ltmp151:
	@DEBUG_VALUE: HTTP_CGI_Handler:x <- $r9
	.loc	2 438 59                @ ../User/Http/httpd_cgi_ssi.c:438:59
	cmp.w	r9, #512
	blo	.LBB0_84
.Ltmp152:
.LBB0_86:                               @   in Loop: Header=BB0_80 Depth=1
	@DEBUG_VALUE: HTTP_CGI_Handler:x <- $r9
	@DEBUG_VALUE: HTTP_CGI_Handler:i <- $r6
	@DEBUG_VALUE: HTTP_CGI_Handler:pcValue <- [$sp+0]
	@DEBUG_VALUE: HTTP_CGI_Handler:iNumParams <- [DW_OP_plus_uconst 8] [$sp+0]
	@DEBUG_VALUE: HTTP_CGI_Handler:pcParam <- [DW_OP_plus_uconst 4] [$sp+0]
	@DEBUG_VALUE: HTTP_CGI_Handler:x <- $r9
	.loc	2 444 49                @ ../User/Http/httpd_cgi_ssi.c:444:49
	movw	r0, :lower16:RUBICON_FirmwareUpdatePacket
	.loc	2 445 45                @ ../User/Http/httpd_cgi_ssi.c:445:45
	strb.w	r4, [r10]
	.loc	2 444 49                @ ../User/Http/httpd_cgi_ssi.c:444:49
	movt	r0, :upper16:RUBICON_FirmwareUpdatePacket
	strb	r4, [r0]
	.loc	2 446 38                @ ../User/Http/httpd_cgi_ssi.c:446:38
	movw	r0, :lower16:rubicon_ctrl_request
	movt	r0, :upper16:rubicon_ctrl_request
	strb.w	r8, [r0]
.Ltmp153:
.LBB0_87:                               @   in Loop: Header=BB0_80 Depth=1
	@DEBUG_VALUE: HTTP_CGI_Handler:x <- $r9
	@DEBUG_VALUE: HTTP_CGI_Handler:i <- $r6
	@DEBUG_VALUE: HTTP_CGI_Handler:pcValue <- [$sp+0]
	@DEBUG_VALUE: HTTP_CGI_Handler:iNumParams <- [DW_OP_plus_uconst 8] [$sp+0]
	@DEBUG_VALUE: HTTP_CGI_Handler:pcParam <- [DW_OP_plus_uconst 4] [$sp+0]
	@DEBUG_VALUE: HTTP_CGI_Handler:x <- $r9
	.loc	2 429 9                 @ ../User/Http/httpd_cgi_ssi.c:429:9
	ldr	r0, [sp, #8]            @ 4-byte Reload
.Ltmp154:
	.loc	2 429 38 is_stmt 0      @ ../User/Http/httpd_cgi_ssi.c:429:38
	adds	r6, #1
.Ltmp155:
	@DEBUG_VALUE: HTTP_CGI_Handler:i <- $r6
	.loc	2 429 9                 @ ../User/Http/httpd_cgi_ssi.c:429:9
	cmp	r6, r0
	bne	.LBB0_80
.Ltmp156:
@ %bb.88:
	@DEBUG_VALUE: HTTP_CGI_Handler:x <- $r9
	@DEBUG_VALUE: HTTP_CGI_Handler:i <- $r6
	@DEBUG_VALUE: HTTP_CGI_Handler:pcValue <- [$sp+0]
	@DEBUG_VALUE: HTTP_CGI_Handler:iNumParams <- [DW_OP_plus_uconst 8] [$sp+0]
	@DEBUG_VALUE: HTTP_CGI_Handler:pcParam <- [DW_OP_plus_uconst 4] [$sp+0]
	@DEBUG_VALUE: HTTP_CGI_Handler:i <- 0
	.loc	2 452 9 is_stmt 1       @ ../User/Http/httpd_cgi_ssi.c:452:9
	ldr	r0, [sp, #8]            @ 4-byte Reload
	cmp	r0, #0
	beq.w	.LBB0_3
.Ltmp157:
@ %bb.89:
	@DEBUG_VALUE: HTTP_CGI_Handler:x <- $r9
	@DEBUG_VALUE: HTTP_CGI_Handler:pcValue <- [$sp+0]
	@DEBUG_VALUE: HTTP_CGI_Handler:iNumParams <- [DW_OP_plus_uconst 8] [$sp+0]
	@DEBUG_VALUE: HTTP_CGI_Handler:pcParam <- [DW_OP_plus_uconst 4] [$sp+0]
	.loc	2 0 9 is_stmt 0         @ ../User/Http/httpd_cgi_ssi.c:0:9
	mov.w	r8, #0
	adr	r5, __arm_cp.0_82
	adr	r6, __arm_cp.0_83
	mov.w	r10, #0
	b	.LBB0_152
.Ltmp158:
.LBB0_90:
	@DEBUG_VALUE: HTTP_CGI_Handler:i <- $r4
	@DEBUG_VALUE: HTTP_CGI_Handler:x <- $r9
	@DEBUG_VALUE: HTTP_CGI_Handler:pcValue <- [$sp+0]
	@DEBUG_VALUE: HTTP_CGI_Handler:iNumParams <- [DW_OP_plus_uconst 8] [$sp+0]
	@DEBUG_VALUE: HTTP_CGI_Handler:pcParam <- [DW_OP_plus_uconst 4] [$sp+0]
	movw	r3, :lower16:rubicon_ctrl_buffer
	movs	r0, #0
	movt	r3, :upper16:rubicon_ctrl_buffer
	mov	r1, r3
.Ltmp159:
	.loc	2 295 26 is_stmt 1      @ ../User/Http/httpd_cgi_ssi.c:295:26
	str	r3, [r7]
.Ltmp160:
	.p2align	2
.LBB0_91:                               @ =>This Inner Loop Header: Depth=1
	@DEBUG_VALUE: HTTP_CGI_Handler:i <- $r4
	@DEBUG_VALUE: HTTP_CGI_Handler:x <- $r9
	@DEBUG_VALUE: HTTP_CGI_Handler:pcValue <- [$sp+0]
	@DEBUG_VALUE: HTTP_CGI_Handler:iNumParams <- [DW_OP_plus_uconst 8] [$sp+0]
	@DEBUG_VALUE: HTTP_CGI_Handler:pcParam <- [DW_OP_plus_uconst 4] [$sp+0]
	.loc	2 296 96                @ ../User/Http/httpd_cgi_ssi.c:296:96
	adds	r2, r1, #1
	str	r2, [r7]
	.loc	2 296 99 is_stmt 0      @ ../User/Http/httpd_cgi_ssi.c:296:99
	strb	r0, [r1]
	.loc	2 296 24                @ ../User/Http/httpd_cgi_ssi.c:296:24
	ldr	r1, [r7]
	.loc	2 296 17                @ ../User/Http/httpd_cgi_ssi.c:296:17
	cmp	r1, r11
	blo	.LBB0_91
.Ltmp161:
@ %bb.92:
	@DEBUG_VALUE: HTTP_CGI_Handler:i <- $r4
	@DEBUG_VALUE: HTTP_CGI_Handler:x <- $r9
	@DEBUG_VALUE: HTTP_CGI_Handler:pcValue <- [$sp+0]
	@DEBUG_VALUE: HTTP_CGI_Handler:iNumParams <- [DW_OP_plus_uconst 8] [$sp+0]
	@DEBUG_VALUE: HTTP_CGI_Handler:pcParam <- [DW_OP_plus_uconst 4] [$sp+0]
	.loc	2 0 17                  @ ../User/Http/httpd_cgi_ssi.c:0:17
	ldr	r2, [sp]                @ 4-byte Reload
	movs	r0, #0
.Ltmp162:
	@DEBUG_VALUE: HTTP_CGI_Handler:x <- 0
	.p2align	2
.LBB0_93:                               @ =>This Inner Loop Header: Depth=1
	@DEBUG_VALUE: HTTP_CGI_Handler:i <- $r4
	@DEBUG_VALUE: HTTP_CGI_Handler:pcValue <- [$sp+0]
	@DEBUG_VALUE: HTTP_CGI_Handler:iNumParams <- [DW_OP_plus_uconst 8] [$sp+0]
	@DEBUG_VALUE: HTTP_CGI_Handler:pcParam <- [DW_OP_plus_uconst 4] [$sp+0]
	@DEBUG_VALUE: HTTP_CGI_Handler:x <- $r0
	.loc	2 301 63 is_stmt 1      @ ../User/Http/httpd_cgi_ssi.c:301:63
	ldr.w	r1, [r2, r4, lsl #2]
	ldrb	r1, [r1, r0]
	cbz	r1, .LBB0_95
.Ltmp163:
@ %bb.94:                               @   in Loop: Header=BB0_93 Depth=1
	@DEBUG_VALUE: HTTP_CGI_Handler:x <- $r0
	@DEBUG_VALUE: HTTP_CGI_Handler:i <- $r4
	@DEBUG_VALUE: HTTP_CGI_Handler:pcValue <- [$sp+0]
	@DEBUG_VALUE: HTTP_CGI_Handler:iNumParams <- [DW_OP_plus_uconst 8] [$sp+0]
	@DEBUG_VALUE: HTTP_CGI_Handler:pcParam <- [DW_OP_plus_uconst 4] [$sp+0]
	.loc	2 303 44                @ ../User/Http/httpd_cgi_ssi.c:303:44
	strb	r1, [r3, r0]
	.loc	2 304 22                @ ../User/Http/httpd_cgi_ssi.c:304:22
	adds	r0, #1
.Ltmp164:
	@DEBUG_VALUE: HTTP_CGI_Handler:x <- $r0
	.loc	2 301 59                @ ../User/Http/httpd_cgi_ssi.c:301:59
	cmp.w	r0, #512
	blo	.LBB0_93
.Ltmp165:
.LBB0_95:
	@DEBUG_VALUE: HTTP_CGI_Handler:x <- $r0
	@DEBUG_VALUE: HTTP_CGI_Handler:i <- $r4
	@DEBUG_VALUE: HTTP_CGI_Handler:pcValue <- [$sp+0]
	@DEBUG_VALUE: HTTP_CGI_Handler:iNumParams <- [DW_OP_plus_uconst 8] [$sp+0]
	@DEBUG_VALUE: HTTP_CGI_Handler:pcParam <- [DW_OP_plus_uconst 4] [$sp+0]
	.loc	2 309 5                 @ ../User/Http/httpd_cgi_ssi.c:309:5
	movw	r0, :lower16:rubicon_response_timer
.Ltmp166:
	.loc	2 308 26                @ ../User/Http/httpd_cgi_ssi.c:308:26
	movw	r4, :lower16:rubicon_ctrl_request
.Ltmp167:
	.loc	2 0 26 is_stmt 0        @ ../User/Http/httpd_cgi_ssi.c:0:26
	movs	r1, #189
	.loc	2 307 28 is_stmt 1      @ ../User/Http/httpd_cgi_ssi.c:307:28
	movw	r5, :lower16:rubicon_http_cmd_state
	.loc	2 309 5                 @ ../User/Http/httpd_cgi_ssi.c:309:5
	movw	r6, :lower16:rubicon_flags
	movt	r0, :upper16:rubicon_response_timer
	.loc	2 308 26                @ ../User/Http/httpd_cgi_ssi.c:308:26
	movt	r4, :upper16:rubicon_ctrl_request
	.loc	2 307 28                @ ../User/Http/httpd_cgi_ssi.c:307:28
	movt	r5, :upper16:rubicon_http_cmd_state
	.loc	2 309 5                 @ ../User/Http/httpd_cgi_ssi.c:309:5
	movt	r6, :upper16:rubicon_flags
	str	r1, [r0]
	movs	r0, #161
	.loc	2 308 26                @ ../User/Http/httpd_cgi_ssi.c:308:26
	strb	r0, [r4]
	movs	r0, #50
	.loc	2 307 28                @ ../User/Http/httpd_cgi_ssi.c:307:28
	strb	r0, [r5]
	.loc	2 309 5                 @ ../User/Http/httpd_cgi_ssi.c:309:5
	ldr	r0, [r6]
	bic	r0, r0, #16
	str	r0, [r6]
.Ltmp168:
	.p2align	2
.LBB0_96:                               @ =>This Inner Loop Header: Depth=1
	@DEBUG_VALUE: HTTP_CGI_Handler:pcValue <- [$sp+0]
	@DEBUG_VALUE: HTTP_CGI_Handler:iNumParams <- [DW_OP_plus_uconst 8] [$sp+0]
	@DEBUG_VALUE: HTTP_CGI_Handler:pcParam <- [DW_OP_plus_uconst 4] [$sp+0]
	.loc	2 311 12                @ ../User/Http/httpd_cgi_ssi.c:311:12
	ldr	r0, [r6]
	.loc	2 311 5 is_stmt 0       @ ../User/Http/httpd_cgi_ssi.c:311:5
	lsls	r0, r0, #27
	bmi.w	.LBB0_209
.Ltmp169:
@ %bb.97:                               @   in Loop: Header=BB0_96 Depth=1
	@DEBUG_VALUE: HTTP_CGI_Handler:pcValue <- [$sp+0]
	@DEBUG_VALUE: HTTP_CGI_Handler:iNumParams <- [DW_OP_plus_uconst 8] [$sp+0]
	@DEBUG_VALUE: HTTP_CGI_Handler:pcParam <- [DW_OP_plus_uconst 4] [$sp+0]
	.loc	2 313 6 is_stmt 1       @ ../User/Http/httpd_cgi_ssi.c:313:6
	bl	RUBICON_ProcessService
.Ltmp170:
	.loc	2 315 9                 @ ../User/Http/httpd_cgi_ssi.c:315:9
	ldrb	r0, [r5]
.Ltmp171:
	.loc	2 315 9 is_stmt 0       @ ../User/Http/httpd_cgi_ssi.c:315:9
	cmp	r0, #50
	beq	.LBB0_96
.Ltmp172:
@ %bb.98:
	@DEBUG_VALUE: HTTP_CGI_Handler:pcValue <- [$sp+0]
	@DEBUG_VALUE: HTTP_CGI_Handler:iNumParams <- [DW_OP_plus_uconst 8] [$sp+0]
	@DEBUG_VALUE: HTTP_CGI_Handler:pcParam <- [DW_OP_plus_uconst 4] [$sp+0]
	.loc	2 317 7 is_stmt 1       @ ../User/Http/httpd_cgi_ssi.c:317:7
	ldr	r0, [r6]
	orr	r0, r0, #16
	str	r0, [r6]
	b	.LBB0_210
.Ltmp173:
.LBB0_99:                               @   in Loop: Header=BB0_152 Depth=1
	@DEBUG_VALUE: HTTP_CGI_Handler:i <- $r10
	@DEBUG_VALUE: HTTP_CGI_Handler:x <- $r9
	@DEBUG_VALUE: HTTP_CGI_Handler:pcValue <- [$sp+0]
	@DEBUG_VALUE: HTTP_CGI_Handler:iNumParams <- [DW_OP_plus_uconst 8] [$sp+0]
	@DEBUG_VALUE: HTTP_CGI_Handler:pcParam <- [DW_OP_plus_uconst 4] [$sp+0]
	.loc	2 0 7 is_stmt 0         @ ../User/Http/httpd_cgi_ssi.c:0:7
	movw	r1, :lower16:rubicon_firmware_update_address_list
	movs	r3, #0
	movs	r6, #0
	movt	r1, :upper16:rubicon_firmware_update_address_list
	ldr.w	r12, [r1]
	movw	r1, :lower16:rubicon_address_list
	movt	r1, :upper16:rubicon_address_list
	ldr	r2, [r1]
.Ltmp174:
	.p2align	2
.LBB0_100:                              @   Parent Loop BB0_152 Depth=1
                                        @ =>  This Inner Loop Header: Depth=2
	@DEBUG_VALUE: HTTP_CGI_Handler:i <- $r10
	@DEBUG_VALUE: HTTP_CGI_Handler:x <- $r9
	@DEBUG_VALUE: HTTP_CGI_Handler:pcValue <- [$sp+0]
	@DEBUG_VALUE: HTTP_CGI_Handler:iNumParams <- [DW_OP_plus_uconst 8] [$sp+0]
	@DEBUG_VALUE: HTTP_CGI_Handler:pcParam <- [DW_OP_plus_uconst 4] [$sp+0]
	@DEBUG_VALUE: HTTP_CGI_Handler:address_cnt <- $r6
	@DEBUG_VALUE: HTTP_CGI_Handler:first_address <- $r5
	.loc	2 492 9 is_stmt 1       @ ../User/Http/httpd_cgi_ssi.c:492:9
	uxth	r4, r6
	.loc	2 492 43 is_stmt 0      @ ../User/Http/httpd_cgi_ssi.c:492:43
	uxth	r1, r5
	.loc	2 492 9                 @ ../User/Http/httpd_cgi_ssi.c:492:9
	ldrh.w	r4, [r2, r4, lsl #1]
.Ltmp175:
	.loc	2 492 9                 @ ../User/Http/httpd_cgi_ssi.c:492:9
	cmp	r4, r1
	bne	.LBB0_102
.Ltmp176:
@ %bb.101:                              @   in Loop: Header=BB0_100 Depth=2
	@DEBUG_VALUE: HTTP_CGI_Handler:first_address <- $r5
	@DEBUG_VALUE: HTTP_CGI_Handler:address_cnt <- $r6
	@DEBUG_VALUE: HTTP_CGI_Handler:i <- $r10
	@DEBUG_VALUE: HTTP_CGI_Handler:x <- $r9
	@DEBUG_VALUE: HTTP_CGI_Handler:pcValue <- [$sp+0]
	@DEBUG_VALUE: HTTP_CGI_Handler:iNumParams <- [DW_OP_plus_uconst 8] [$sp+0]
	@DEBUG_VALUE: HTTP_CGI_Handler:pcParam <- [DW_OP_plus_uconst 4] [$sp+0]
	.loc	2 494 7 is_stmt 1       @ ../User/Http/httpd_cgi_ssi.c:494:7
	uxth	r1, r3
	.loc	2 494 78 is_stmt 0      @ ../User/Http/httpd_cgi_ssi.c:494:78
	strh.w	r5, [r12, r1, lsl #1]
	movw	r1, :lower16:rubicon_firmware_update_list_cnt
	movt	r1, :upper16:rubicon_firmware_update_list_cnt
	mov	r6, r1
.Ltmp177:
	.loc	2 496 39 is_stmt 1      @ ../User/Http/httpd_cgi_ssi.c:496:39
	ldrh	r1, [r1]
	adds	r3, r1, #1
	strh	r3, [r6]
	b	.LBB0_148
.Ltmp178:
	.p2align	2
.LBB0_102:                              @   in Loop: Header=BB0_100 Depth=2
	@DEBUG_VALUE: HTTP_CGI_Handler:first_address <- $r5
	@DEBUG_VALUE: HTTP_CGI_Handler:address_cnt <- $r6
	@DEBUG_VALUE: HTTP_CGI_Handler:i <- $r10
	@DEBUG_VALUE: HTTP_CGI_Handler:x <- $r9
	@DEBUG_VALUE: HTTP_CGI_Handler:pcValue <- [$sp+0]
	@DEBUG_VALUE: HTTP_CGI_Handler:iNumParams <- [DW_OP_plus_uconst 8] [$sp+0]
	@DEBUG_VALUE: HTTP_CGI_Handler:pcParam <- [DW_OP_plus_uconst 4] [$sp+0]
	.loc	2 499 14                @ ../User/Http/httpd_cgi_ssi.c:499:14
	cmp	r4, #0
	beq	.LBB0_148
.Ltmp179:
@ %bb.103:                              @   in Loop: Header=BB0_100 Depth=2
	@DEBUG_VALUE: HTTP_CGI_Handler:first_address <- $r5
	@DEBUG_VALUE: HTTP_CGI_Handler:address_cnt <- $r6
	@DEBUG_VALUE: HTTP_CGI_Handler:i <- $r10
	@DEBUG_VALUE: HTTP_CGI_Handler:x <- $r9
	@DEBUG_VALUE: HTTP_CGI_Handler:pcValue <- [$sp+0]
	@DEBUG_VALUE: HTTP_CGI_Handler:iNumParams <- [DW_OP_plus_uconst 8] [$sp+0]
	@DEBUG_VALUE: HTTP_CGI_Handler:pcParam <- [DW_OP_plus_uconst 4] [$sp+0]
	.loc	2 504 22                @ ../User/Http/httpd_cgi_ssi.c:504:22
	adds	r6, #1
.Ltmp180:
	@DEBUG_VALUE: HTTP_CGI_Handler:address_cnt <- $r6
	.loc	2 0 22 is_stmt 0        @ ../User/Http/httpd_cgi_ssi.c:0:22
	b	.LBB0_149
.Ltmp181:
	.p2align	2
@ %bb.104:
__arm_cp.0_60:
.L.str.2:
	.asciz	"led"
.Lcpi_end0:
	.size	__arm_cp.0_60, .Lcpi_end0-__arm_cp.0_60
	.p2align	2
@ %bb.105:
__arm_cp.0_61:
.L.str.4:
	.asciz	"2\000\000"
.Lcpi_end1:
	.size	__arm_cp.0_61, .Lcpi_end1-__arm_cp.0_61
	.p2align	2
@ %bb.106:
__arm_cp.0_62:
.L.str.5:
	.asciz	"tdu"
.Lcpi_end2:
	.size	__arm_cp.0_62, .Lcpi_end2-__arm_cp.0_62
	.p2align	2
@ %bb.107:
__arm_cp.0_63:
.L.str.6:
	.asciz	"log"
.Lcpi_end3:
	.size	__arm_cp.0_63, .Lcpi_end3-__arm_cp.0_63
	.p2align	2
@ %bb.108:
__arm_cp.0_64:
.L.str.7:
	.asciz	"3\000\000"
.Lcpi_end4:
	.size	__arm_cp.0_64, .Lcpi_end4-__arm_cp.0_64
	.p2align	2
@ %bb.109:
__arm_cp.0_65:
.L.str.9:
	.asciz	"4\000\000"
.Lcpi_end5:
	.size	__arm_cp.0_65, .Lcpi_end5-__arm_cp.0_65
	.p2align	2
@ %bb.110:
__arm_cp.0_66:
.L.str.10:
	.asciz	"5\000\000"
.Lcpi_end6:
	.size	__arm_cp.0_66, .Lcpi_end6-__arm_cp.0_66
	.p2align	2
@ %bb.111:
__arm_cp.0_67:
.L.str.11:
	.asciz	"cst"
.Lcpi_end7:
	.size	__arm_cp.0_67, .Lcpi_end7-__arm_cp.0_67
	.p2align	2
@ %bb.112:
__arm_cp.0_68:
.L.str.12:
	.asciz	"stg"
.Lcpi_end8:
	.size	__arm_cp.0_68, .Lcpi_end8-__arm_cp.0_68
	.p2align	2
@ %bb.113:
__arm_cp.0_69:
.L.str.13:
	.asciz	"val"
.Lcpi_end9:
	.size	__arm_cp.0_69, .Lcpi_end9-__arm_cp.0_69
	.p2align	2
@ %bb.114:
__arm_cp.0_70:
.L.str.14:
	.asciz	"cdo"
.Lcpi_end10:
	.size	__arm_cp.0_70, .Lcpi_end10-__arm_cp.0_70
	.p2align	2
@ %bb.115:
__arm_cp.0_71:
.L.str.15:
	.asciz	"do0"
.Lcpi_end11:
	.size	__arm_cp.0_71, .Lcpi_end11-__arm_cp.0_71
	.p2align	2
@ %bb.116:
__arm_cp.0_72:
.L.str.16:
	.asciz	"do1"
.Lcpi_end12:
	.size	__arm_cp.0_72, .Lcpi_end12-__arm_cp.0_72
	.p2align	2
@ %bb.117:
__arm_cp.0_73:
.L.str.17:
	.asciz	"do2"
.Lcpi_end13:
	.size	__arm_cp.0_73, .Lcpi_end13-__arm_cp.0_73
	.p2align	2
@ %bb.118:
__arm_cp.0_74:
.L.str.18:
	.asciz	"do3"
.Lcpi_end14:
	.size	__arm_cp.0_74, .Lcpi_end14-__arm_cp.0_74
	.p2align	2
@ %bb.119:
__arm_cp.0_75:
.L.str.19:
	.asciz	"do4"
.Lcpi_end15:
	.size	__arm_cp.0_75, .Lcpi_end15-__arm_cp.0_75
	.p2align	2
@ %bb.120:
__arm_cp.0_76:
.L.str.20:
	.asciz	"do5"
.Lcpi_end16:
	.size	__arm_cp.0_76, .Lcpi_end16-__arm_cp.0_76
	.p2align	2
@ %bb.121:
__arm_cp.0_77:
.L.str.21:
	.asciz	"do6"
.Lcpi_end17:
	.size	__arm_cp.0_77, .Lcpi_end17-__arm_cp.0_77
	.p2align	2
@ %bb.122:
__arm_cp.0_78:
.L.str.22:
	.asciz	"do7"
.Lcpi_end18:
	.size	__arm_cp.0_78, .Lcpi_end18-__arm_cp.0_78
	.p2align	2
@ %bb.123:
.LCPI0_79:
.L.str.23:
	.asciz	"ctrl\000\000\000"
	.p2align	2
@ %bb.124:
__arm_cp.0_80:
.L.str.24:
	.asciz	"cuf"
.Lcpi_end19:
	.size	__arm_cp.0_80, .Lcpi_end19-__arm_cp.0_80
	.p2align	2
@ %bb.125:
__arm_cp.0_81:
.L.str.25:
	.asciz	"cud"
.Lcpi_end20:
	.size	__arm_cp.0_81, .Lcpi_end20-__arm_cp.0_81
	.p2align	2
@ %bb.126:
__arm_cp.0_82:
.L.str.26:
	.asciz	"fuf"
.Lcpi_end21:
	.size	__arm_cp.0_82, .Lcpi_end21-__arm_cp.0_82
	.p2align	2
@ %bb.127:
__arm_cp.0_83:
.L.str.27:
	.asciz	"ful"
.Lcpi_end22:
	.size	__arm_cp.0_83, .Lcpi_end22-__arm_cp.0_83
	.p2align	2
@ %bb.128:
__arm_cp.0_84:
.L.str.28:
	.asciz	"buf"
.Lcpi_end23:
	.size	__arm_cp.0_84, .Lcpi_end23-__arm_cp.0_84
	.p2align	2
@ %bb.129:
__arm_cp.0_85:
.L.str.29:
	.asciz	"bul"
.Lcpi_end24:
	.size	__arm_cp.0_85, .Lcpi_end24-__arm_cp.0_85
	.p2align	2
@ %bb.130:
__arm_cp.0_86:
.L.str.30:
	.asciz	"iuf"
.Lcpi_end25:
	.size	__arm_cp.0_86, .Lcpi_end25-__arm_cp.0_86
	.p2align	2
@ %bb.131:
__arm_cp.0_87:
.L.str.31:
	.asciz	"iul"
.Lcpi_end26:
	.size	__arm_cp.0_87, .Lcpi_end26-__arm_cp.0_87
	.p2align	2
@ %bb.132:
__arm_cp.0_88:
.L.str.32:
	.asciz	"ifa"
.Lcpi_end27:
	.size	__arm_cp.0_88, .Lcpi_end27-__arm_cp.0_88
	.p2align	2
@ %bb.133:
__arm_cp.0_89:
.L.str.33:
	.asciz	"ila"
.Lcpi_end28:
	.size	__arm_cp.0_89, .Lcpi_end28-__arm_cp.0_89
	.p2align	2
@ %bb.134:
__arm_cp.0_90:
.L.str.34:
	.asciz	"cbr"
.Lcpi_end29:
	.size	__arm_cp.0_90, .Lcpi_end29-__arm_cp.0_90
	.p2align	2
@ %bb.135:
__arm_cp.0_91:
.L.str.35:
	.asciz	"br\000"
.Lcpi_end30:
	.size	__arm_cp.0_91, .Lcpi_end30-__arm_cp.0_91
	.p2align	2
@ %bb.136:
__arm_cp.0_92:
.L.str.36:
	.asciz	"rud"
.Lcpi_end31:
	.size	__arm_cp.0_92, .Lcpi_end31-__arm_cp.0_92
	.p2align	2
@ %bb.137:
__arm_cp.0_93:
.L.str.37:
	.asciz	"rst"
.Lcpi_end32:
	.size	__arm_cp.0_93, .Lcpi_end32-__arm_cp.0_93
	.p2align	2
@ %bb.138:
__arm_cp.0_94:
.L.str.38:
	.asciz	"0\000\000"
.Lcpi_end33:
	.size	__arm_cp.0_94, .Lcpi_end33-__arm_cp.0_94
	.p2align	2
@ %bb.139:
__arm_cp.0_95:
.L.str.39:
	.asciz	"tca"
.Lcpi_end34:
	.size	__arm_cp.0_95, .Lcpi_end34-__arm_cp.0_95
	.p2align	2
@ %bb.140:
__arm_cp.0_96:
.L.str.40:
	.asciz	"tsp"
.Lcpi_end35:
	.size	__arm_cp.0_96, .Lcpi_end35-__arm_cp.0_96
	.p2align	2
@ %bb.141:
__arm_cp.0_97:
.L.str.41:
	.asciz	"tdf"
.Lcpi_end36:
	.size	__arm_cp.0_97, .Lcpi_end36-__arm_cp.0_97
	.p2align	2
@ %bb.142:
__arm_cp.0_98:
.L.str.42:
	.asciz	"tda"
.Lcpi_end37:
	.size	__arm_cp.0_98, .Lcpi_end37-__arm_cp.0_98
	.p2align	2
@ %bb.143:
__arm_cp.0_99:
.L.str.43:
	.asciz	"tdn"
.Lcpi_end38:
	.size	__arm_cp.0_99, .Lcpi_end38-__arm_cp.0_99
	.p2align	2
@ %bb.144:
__arm_cp.0_100:
.L.str.44:
	.asciz	"tdi"
.Lcpi_end39:
	.size	__arm_cp.0_100, .Lcpi_end39-__arm_cp.0_100
	.p2align	2
@ %bb.145:
__arm_cp.0_101:
.L.str.45:
	.asciz	"tdt"
.Lcpi_end40:
	.size	__arm_cp.0_101, .Lcpi_end40-__arm_cp.0_101
	.p2align	2
@ %bb.146:
__arm_cp.0_102:
.L.str.46:
	.asciz	"tbm"
.Lcpi_end41:
	.size	__arm_cp.0_102, .Lcpi_end41-__arm_cp.0_102
	.p2align	2
@ %bb.147:
__arm_cp.0_103:
.L.str.47:
	.asciz	"tbt"
.Lcpi_end42:
	.size	__arm_cp.0_103, .Lcpi_end42-__arm_cp.0_103
	.p2align	2
.LBB0_148:                              @   in Loop: Header=BB0_100 Depth=2
.Ltmp182:
	@DEBUG_VALUE: HTTP_CGI_Handler:first_address <- $r5
	@DEBUG_VALUE: HTTP_CGI_Handler:i <- $r10
	@DEBUG_VALUE: HTTP_CGI_Handler:x <- $r9
	@DEBUG_VALUE: HTTP_CGI_Handler:pcValue <- [$sp+0]
	@DEBUG_VALUE: HTTP_CGI_Handler:iNumParams <- [DW_OP_plus_uconst 8] [$sp+0]
	@DEBUG_VALUE: HTTP_CGI_Handler:pcParam <- [DW_OP_plus_uconst 4] [$sp+0]
	@DEBUG_VALUE: HTTP_CGI_Handler:address_cnt <- 0
	adds	r5, #1
.Ltmp183:
	@DEBUG_VALUE: HTTP_CGI_Handler:first_address <- $r5
	movs	r6, #0
.Ltmp184:
.LBB0_149:                              @   in Loop: Header=BB0_100 Depth=2
	@DEBUG_VALUE: HTTP_CGI_Handler:first_address <- $r5
	@DEBUG_VALUE: HTTP_CGI_Handler:i <- $r10
	@DEBUG_VALUE: HTTP_CGI_Handler:x <- $r9
	@DEBUG_VALUE: HTTP_CGI_Handler:pcValue <- [$sp+0]
	@DEBUG_VALUE: HTTP_CGI_Handler:iNumParams <- [DW_OP_plus_uconst 8] [$sp+0]
	@DEBUG_VALUE: HTTP_CGI_Handler:pcParam <- [DW_OP_plus_uconst 4] [$sp+0]
	@DEBUG_VALUE: HTTP_CGI_Handler:address_cnt <- $r6
	@DEBUG_VALUE: HTTP_CGI_Handler:first_address <- $r5
	.loc	2 490 27 is_stmt 1      @ ../User/Http/httpd_cgi_ssi.c:490:27
	uxth	r1, r5
	.loc	2 490 5 is_stmt 0       @ ../User/Http/httpd_cgi_ssi.c:490:5
	cmp	r0, r1
	bhs	.LBB0_100
.Ltmp185:
@ %bb.150:                              @   in Loop: Header=BB0_152 Depth=1
	@DEBUG_VALUE: HTTP_CGI_Handler:first_address <- $r5
	@DEBUG_VALUE: HTTP_CGI_Handler:address_cnt <- $r6
	@DEBUG_VALUE: HTTP_CGI_Handler:i <- $r10
	@DEBUG_VALUE: HTTP_CGI_Handler:x <- $r9
	@DEBUG_VALUE: HTTP_CGI_Handler:pcValue <- [$sp+0]
	@DEBUG_VALUE: HTTP_CGI_Handler:iNumParams <- [DW_OP_plus_uconst 8] [$sp+0]
	@DEBUG_VALUE: HTTP_CGI_Handler:pcParam <- [DW_OP_plus_uconst 4] [$sp+0]
	.loc	2 508 45 is_stmt 1      @ ../User/Http/httpd_cgi_ssi.c:508:45
	movw	r0, :lower16:RUBICON_FileUpdatePacket
	movw	r1, :lower16:RUBICON_FirmwareUpdatePacket
	adr.w	r5, __arm_cp.0_82
.Ltmp186:
	.loc	2 0 45 is_stmt 0        @ ../User/Http/httpd_cgi_ssi.c:0:45
	adr.w	r6, __arm_cp.0_83
.Ltmp187:
	.loc	2 508 45                @ ../User/Http/httpd_cgi_ssi.c:508:45
	movt	r0, :upper16:RUBICON_FileUpdatePacket
	movt	r1, :upper16:RUBICON_FirmwareUpdatePacket
	strb.w	r8, [r0]
	.loc	2 510 8 is_stmt 1       @ ../User/Http/httpd_cgi_ssi.c:510:8
	lsls	r0, r3, #16
	.loc	2 507 49                @ ../User/Http/httpd_cgi_ssi.c:507:49
	strb.w	r8, [r1]
	.loc	2 510 8                 @ ../User/Http/httpd_cgi_ssi.c:510:8
	beq.w	.LBB0_171
.Ltmp188:
@ %bb.151:                              @   in Loop: Header=BB0_152 Depth=1
	@DEBUG_VALUE: HTTP_CGI_Handler:i <- $r10
	@DEBUG_VALUE: HTTP_CGI_Handler:x <- $r9
	@DEBUG_VALUE: HTTP_CGI_Handler:pcValue <- [$sp+0]
	@DEBUG_VALUE: HTTP_CGI_Handler:iNumParams <- [DW_OP_plus_uconst 8] [$sp+0]
	@DEBUG_VALUE: HTTP_CGI_Handler:pcParam <- [DW_OP_plus_uconst 4] [$sp+0]
	.loc	2 513 34                @ ../User/Http/httpd_cgi_ssi.c:513:34
	movw	r0, :lower16:rubicon_file_update_list
	movs	r2, #20
	movt	r0, :upper16:rubicon_file_update_list
	strb	r2, [r0]
	.loc	2 512 50                @ ../User/Http/httpd_cgi_ssi.c:512:50
	movs	r0, #193
	strb	r0, [r1]
	.loc	2 514 35                @ ../User/Http/httpd_cgi_ssi.c:514:35
	movw	r0, :lower16:rubicon_file_update_list_cnt
	.loc	2 516 27                @ ../User/Http/httpd_cgi_ssi.c:516:27
	movs	r1, #99
	.loc	2 514 35                @ ../User/Http/httpd_cgi_ssi.c:514:35
	movt	r0, :upper16:rubicon_file_update_list_cnt
	strh.w	r8, [r0]
	.loc	2 515 39                @ ../User/Http/httpd_cgi_ssi.c:515:39
	movw	r0, :lower16:rubicon_firmware_update_list_cnt
	movt	r0, :upper16:rubicon_firmware_update_list_cnt
	strh.w	r8, [r0]
	.loc	2 516 27                @ ../User/Http/httpd_cgi_ssi.c:516:27
	movw	r0, :lower16:rubicon_ctrl_request
	movt	r0, :upper16:rubicon_ctrl_request
	strb	r1, [r0]
	b	.LBB0_171
.Ltmp189:
.LBB0_152:                              @ =>This Loop Header: Depth=1
                                        @     Child Loop BB0_156 Depth 2
                                        @     Child Loop BB0_159 Depth 2
                                        @     Child Loop BB0_162 Depth 2
                                        @     Child Loop BB0_100 Depth 2
                                        @     Child Loop BB0_166 Depth 2
                                        @     Child Loop BB0_168 Depth 2
	@DEBUG_VALUE: HTTP_CGI_Handler:x <- $r9
	@DEBUG_VALUE: HTTP_CGI_Handler:pcValue <- [$sp+0]
	@DEBUG_VALUE: HTTP_CGI_Handler:iNumParams <- [DW_OP_plus_uconst 8] [$sp+0]
	@DEBUG_VALUE: HTTP_CGI_Handler:pcParam <- [DW_OP_plus_uconst 4] [$sp+0]
	@DEBUG_VALUE: HTTP_CGI_Handler:i <- $r10
	@DEBUG_VALUE: HTTP_CGI_Handler:x <- $r9
	.loc	2 454 15                @ ../User/Http/httpd_cgi_ssi.c:454:15
	ldr	r0, [sp, #4]            @ 4-byte Reload
	.loc	2 454 8 is_stmt 0       @ ../User/Http/httpd_cgi_ssi.c:454:8
	mov	r1, r5
	.loc	2 454 15                @ ../User/Http/httpd_cgi_ssi.c:454:15
	ldr.w	r4, [r0, r10, lsl #2]
	.loc	2 454 8                 @ ../User/Http/httpd_cgi_ssi.c:454:8
	mov	r0, r4
	bl	strcmp
.Ltmp190:
	.loc	2 454 8                 @ ../User/Http/httpd_cgi_ssi.c:454:8
	cmp	r0, #0
	beq	.LBB0_165
.Ltmp191:
@ %bb.153:                              @   in Loop: Header=BB0_152 Depth=1
	@DEBUG_VALUE: HTTP_CGI_Handler:i <- $r10
	@DEBUG_VALUE: HTTP_CGI_Handler:x <- $r9
	@DEBUG_VALUE: HTTP_CGI_Handler:pcValue <- [$sp+0]
	@DEBUG_VALUE: HTTP_CGI_Handler:iNumParams <- [DW_OP_plus_uconst 8] [$sp+0]
	@DEBUG_VALUE: HTTP_CGI_Handler:pcParam <- [DW_OP_plus_uconst 4] [$sp+0]
	.loc	2 468 13 is_stmt 1      @ ../User/Http/httpd_cgi_ssi.c:468:13
	mov	r0, r4
	mov	r1, r6
	bl	strcmp
.Ltmp192:
	.loc	2 468 13 is_stmt 0      @ ../User/Http/httpd_cgi_ssi.c:468:13
	cmp	r0, #0
	bne.w	.LBB0_171
.Ltmp193:
@ %bb.154:                              @   in Loop: Header=BB0_152 Depth=1
	@DEBUG_VALUE: HTTP_CGI_Handler:i <- $r10
	@DEBUG_VALUE: HTTP_CGI_Handler:x <- $r9
	@DEBUG_VALUE: HTTP_CGI_Handler:pcValue <- [$sp+0]
	@DEBUG_VALUE: HTTP_CGI_Handler:iNumParams <- [DW_OP_plus_uconst 8] [$sp+0]
	@DEBUG_VALUE: HTTP_CGI_Handler:pcParam <- [DW_OP_plus_uconst 4] [$sp+0]
	@DEBUG_VALUE: HTTP_CGI_Handler:t <- 0
	.loc	2 0 13                  @ ../User/Http/httpd_cgi_ssi.c:0:13
	ldr	r5, [sp]                @ 4-byte Reload
.Ltmp194:
	.loc	2 472 49 is_stmt 1      @ ../User/Http/httpd_cgi_ssi.c:472:49
	cmn.w	r9, #512
	.loc	2 470 7                 @ ../User/Http/httpd_cgi_ssi.c:470:7
	str.w	r8, [sp, #24]
	beq	.LBB0_158
.Ltmp195:
@ %bb.155:                              @   in Loop: Header=BB0_152 Depth=1
	@DEBUG_VALUE: HTTP_CGI_Handler:i <- $r10
	@DEBUG_VALUE: HTTP_CGI_Handler:x <- $r9
	@DEBUG_VALUE: HTTP_CGI_Handler:pcValue <- [$sp+0]
	@DEBUG_VALUE: HTTP_CGI_Handler:iNumParams <- [DW_OP_plus_uconst 8] [$sp+0]
	@DEBUG_VALUE: HTTP_CGI_Handler:pcParam <- [DW_OP_plus_uconst 4] [$sp+0]
	.loc	2 472 53                @ ../User/Http/httpd_cgi_ssi.c:472:53
	movw	r0, :lower16:rubicon_ctrl_buffer
	addw	r1, r9, #513
	movs	r2, #0
	movt	r0, :upper16:rubicon_ctrl_buffer
	add	r0, r9
.Ltmp196:
	.p2align	2
.LBB0_156:                              @   Parent Loop BB0_152 Depth=1
                                        @ =>  This Inner Loop Header: Depth=2
	@DEBUG_VALUE: HTTP_CGI_Handler:i <- $r10
	@DEBUG_VALUE: HTTP_CGI_Handler:x <- $r9
	@DEBUG_VALUE: HTTP_CGI_Handler:pcValue <- [$sp+0]
	@DEBUG_VALUE: HTTP_CGI_Handler:iNumParams <- [DW_OP_plus_uconst 8] [$sp+0]
	@DEBUG_VALUE: HTTP_CGI_Handler:pcParam <- [DW_OP_plus_uconst 4] [$sp+0]
	@DEBUG_VALUE: HTTP_CGI_Handler:x <- undef
	ldr.w	r3, [r5, r10, lsl #2]
	ldrb	r6, [r3, r2]
	cbz	r6, .LBB0_158
.Ltmp197:
@ %bb.157:                              @   in Loop: Header=BB0_156 Depth=2
	@DEBUG_VALUE: HTTP_CGI_Handler:i <- $r10
	@DEBUG_VALUE: HTTP_CGI_Handler:pcValue <- [$sp+0]
	@DEBUG_VALUE: HTTP_CGI_Handler:iNumParams <- [DW_OP_plus_uconst 8] [$sp+0]
	@DEBUG_VALUE: HTTP_CGI_Handler:pcParam <- [DW_OP_plus_uconst 4] [$sp+0]
	.loc	2 474 55                @ ../User/Http/httpd_cgi_ssi.c:474:55
	adds	r6, r2, #1
.Ltmp198:
	@DEBUG_VALUE: HTTP_CGI_Handler:t <- $r6
	str	r6, [sp, #24]
	.loc	2 474 43 is_stmt 0      @ ../User/Http/httpd_cgi_ssi.c:474:43
	ldrb	r3, [r3, r2]
	.loc	2 474 31                @ ../User/Http/httpd_cgi_ssi.c:474:31
	strb	r3, [r0, r2]
.Ltmp199:
	@DEBUG_VALUE: HTTP_CGI_Handler:x <- [DW_OP_plus_uconst 1, DW_OP_stack_value] undef
	.loc	2 472 14 is_stmt 1      @ ../User/Http/httpd_cgi_ssi.c:472:14
	add	r2, r1
	.loc	2 472 49 is_stmt 0      @ ../User/Http/httpd_cgi_ssi.c:472:49
	cmp	r6, r2
	mov	r2, r6
.Ltmp200:
	@DEBUG_VALUE: HTTP_CGI_Handler:t <- $r2
	.loc	2 0 49                  @ ../User/Http/httpd_cgi_ssi.c:0:49
	blo	.LBB0_156
.Ltmp201:
.LBB0_158:                              @   in Loop: Header=BB0_152 Depth=1
	@DEBUG_VALUE: HTTP_CGI_Handler:i <- $r10
	@DEBUG_VALUE: HTTP_CGI_Handler:pcValue <- [$sp+0]
	@DEBUG_VALUE: HTTP_CGI_Handler:iNumParams <- [DW_OP_plus_uconst 8] [$sp+0]
	@DEBUG_VALUE: HTTP_CGI_Handler:pcParam <- [DW_OP_plus_uconst 4] [$sp+0]
	movw	r4, :lower16:rubicon_ctrl_buffer
	movt	r4, :upper16:rubicon_ctrl_buffer
	.loc	2 477 21 is_stmt 1      @ ../User/Http/httpd_cgi_ssi.c:477:21
	mov	r0, r4
	bl	atoi
	mov	r5, r0
	mov.w	r9, #0
.Ltmp202:
	@DEBUG_VALUE: HTTP_CGI_Handler:x <- 0
	.p2align	2
.LBB0_159:                              @   Parent Loop BB0_152 Depth=1
                                        @ =>  This Inner Loop Header: Depth=2
	@DEBUG_VALUE: HTTP_CGI_Handler:i <- $r10
	@DEBUG_VALUE: HTTP_CGI_Handler:pcValue <- [$sp+0]
	@DEBUG_VALUE: HTTP_CGI_Handler:iNumParams <- [DW_OP_plus_uconst 8] [$sp+0]
	@DEBUG_VALUE: HTTP_CGI_Handler:pcParam <- [DW_OP_plus_uconst 4] [$sp+0]
	@DEBUG_VALUE: HTTP_CGI_Handler:x <- $r9
	.loc	2 479 11                @ ../User/Http/httpd_cgi_ssi.c:479:11
	ldrb.w	r0, [r4, r9]
	.loc	2 0 0 is_stmt 0         @ ../User/Http/httpd_cgi_ssi.c:0:0
	add.w	r9, r9, #1
.Ltmp203:
	@DEBUG_VALUE: HTTP_CGI_Handler:x <- $r9
	.loc	2 479 5                 @ ../User/Http/httpd_cgi_ssi.c:479:5
	cmp	r0, #0
	bne	.LBB0_159
.Ltmp204:
@ %bb.160:                              @   in Loop: Header=BB0_152 Depth=1
	@DEBUG_VALUE: HTTP_CGI_Handler:i <- $r10
	@DEBUG_VALUE: HTTP_CGI_Handler:x <- $r9
	@DEBUG_VALUE: HTTP_CGI_Handler:pcValue <- [$sp+0]
	@DEBUG_VALUE: HTTP_CGI_Handler:iNumParams <- [DW_OP_plus_uconst 8] [$sp+0]
	@DEBUG_VALUE: HTTP_CGI_Handler:pcParam <- [DW_OP_plus_uconst 4] [$sp+0]
	.loc	2 481 20 is_stmt 1      @ ../User/Http/httpd_cgi_ssi.c:481:20
	add.w	r0, r4, r9
	bl	atoi
	movw	r3, :lower16:rubicon_address_list_size
	mov	r6, r0
.Ltmp205:
	@DEBUG_VALUE: HTTP_CGI_Handler:address_cnt <- 0
	.loc	2 0 20 is_stmt 0        @ ../User/Http/httpd_cgi_ssi.c:0:20
	movt	r3, :upper16:rubicon_address_list_size
	.loc	2 484 25 is_stmt 1      @ ../User/Http/httpd_cgi_ssi.c:484:25
	ldrh	r0, [r3]
	cbz	r0, .LBB0_163
.Ltmp206:
@ %bb.161:                              @   in Loop: Header=BB0_152 Depth=1
	@DEBUG_VALUE: HTTP_CGI_Handler:i <- $r10
	@DEBUG_VALUE: HTTP_CGI_Handler:x <- $r9
	@DEBUG_VALUE: HTTP_CGI_Handler:pcValue <- [$sp+0]
	@DEBUG_VALUE: HTTP_CGI_Handler:iNumParams <- [DW_OP_plus_uconst 8] [$sp+0]
	@DEBUG_VALUE: HTTP_CGI_Handler:pcParam <- [DW_OP_plus_uconst 4] [$sp+0]
	.loc	2 0 25 is_stmt 0        @ ../User/Http/httpd_cgi_ssi.c:0:25
	movw	r0, :lower16:rubicon_firmware_update_address_list
	movs	r1, #0
	movt	r0, :upper16:rubicon_firmware_update_address_list
	ldr	r0, [r0]
.Ltmp207:
	.p2align	2
.LBB0_162:                              @   Parent Loop BB0_152 Depth=1
                                        @ =>  This Inner Loop Header: Depth=2
	@DEBUG_VALUE: HTTP_CGI_Handler:i <- $r10
	@DEBUG_VALUE: HTTP_CGI_Handler:x <- $r9
	@DEBUG_VALUE: HTTP_CGI_Handler:pcValue <- [$sp+0]
	@DEBUG_VALUE: HTTP_CGI_Handler:iNumParams <- [DW_OP_plus_uconst 8] [$sp+0]
	@DEBUG_VALUE: HTTP_CGI_Handler:pcParam <- [DW_OP_plus_uconst 4] [$sp+0]
	@DEBUG_VALUE: HTTP_CGI_Handler:address_cnt <- $r1
	.loc	2 484 104               @ ../User/Http/httpd_cgi_ssi.c:484:104
	strh.w	r8, [r0, r1, lsl #1]
	.loc	2 484 100               @ ../User/Http/httpd_cgi_ssi.c:484:100
	adds	r1, #1
.Ltmp208:
	@DEBUG_VALUE: HTTP_CGI_Handler:address_cnt <- [DW_OP_plus_uconst 1, DW_OP_stack_value] undef
	.loc	2 484 25                @ ../User/Http/httpd_cgi_ssi.c:484:25
	ldrh	r2, [r3]
	.loc	2 484 5                 @ ../User/Http/httpd_cgi_ssi.c:484:5
	cmp	r1, r2
	blo	.LBB0_162
.Ltmp209:
.LBB0_163:                              @   in Loop: Header=BB0_152 Depth=1
	@DEBUG_VALUE: HTTP_CGI_Handler:i <- $r10
	@DEBUG_VALUE: HTTP_CGI_Handler:x <- $r9
	@DEBUG_VALUE: HTTP_CGI_Handler:pcValue <- [$sp+0]
	@DEBUG_VALUE: HTTP_CGI_Handler:iNumParams <- [DW_OP_plus_uconst 8] [$sp+0]
	@DEBUG_VALUE: HTTP_CGI_Handler:pcParam <- [DW_OP_plus_uconst 4] [$sp+0]
	@DEBUG_VALUE: HTTP_CGI_Handler:address_cnt <- 0
	.loc	2 486 96 is_stmt 1      @ ../User/Http/httpd_cgi_ssi.c:486:96
	movw	r0, :lower16:rubicon_file_update_list
	movs	r1, #32
	movt	r0, :upper16:rubicon_file_update_list
	bl	__aeabi_memclr
.Ltmp210:
	@DEBUG_VALUE: HTTP_CGI_Handler:address_cnt <- [DW_OP_plus_uconst 1, DW_OP_stack_value] undef
	.loc	2 488 38                @ ../User/Http/httpd_cgi_ssi.c:488:38
	movw	r0, :lower16:rubicon_firmware_update_list_cnt
	.loc	2 490 27                @ ../User/Http/httpd_cgi_ssi.c:490:27
	uxth	r1, r5
	.loc	2 488 38                @ ../User/Http/httpd_cgi_ssi.c:488:38
	movt	r0, :upper16:rubicon_firmware_update_list_cnt
	strh.w	r8, [r0]
	.loc	2 490 11                @ ../User/Http/httpd_cgi_ssi.c:490:11
	uxth	r0, r6
	.loc	2 490 5 is_stmt 0       @ ../User/Http/httpd_cgi_ssi.c:490:5
	cmp	r0, r1
	bhs.w	.LBB0_99
.Ltmp211:
@ %bb.164:                              @   in Loop: Header=BB0_152 Depth=1
	@DEBUG_VALUE: HTTP_CGI_Handler:i <- $r10
	@DEBUG_VALUE: HTTP_CGI_Handler:x <- $r9
	@DEBUG_VALUE: HTTP_CGI_Handler:pcValue <- [$sp+0]
	@DEBUG_VALUE: HTTP_CGI_Handler:iNumParams <- [DW_OP_plus_uconst 8] [$sp+0]
	@DEBUG_VALUE: HTTP_CGI_Handler:pcParam <- [DW_OP_plus_uconst 4] [$sp+0]
	.loc	2 508 45 is_stmt 1      @ ../User/Http/httpd_cgi_ssi.c:508:45
	movw	r0, :lower16:RUBICON_FileUpdatePacket
	adr.w	r5, __arm_cp.0_82
	adr.w	r6, __arm_cp.0_83
	movt	r0, :upper16:RUBICON_FileUpdatePacket
	strb.w	r8, [r0]
	.loc	2 507 49                @ ../User/Http/httpd_cgi_ssi.c:507:49
	movw	r0, :lower16:RUBICON_FirmwareUpdatePacket
	movt	r0, :upper16:RUBICON_FirmwareUpdatePacket
	strb.w	r8, [r0]
	b	.LBB0_171
.Ltmp212:
.LBB0_165:                              @   in Loop: Header=BB0_152 Depth=1
	@DEBUG_VALUE: HTTP_CGI_Handler:i <- $r10
	@DEBUG_VALUE: HTTP_CGI_Handler:x <- $r9
	@DEBUG_VALUE: HTTP_CGI_Handler:pcValue <- [$sp+0]
	@DEBUG_VALUE: HTTP_CGI_Handler:iNumParams <- [DW_OP_plus_uconst 8] [$sp+0]
	@DEBUG_VALUE: HTTP_CGI_Handler:pcParam <- [DW_OP_plus_uconst 4] [$sp+0]
	.loc	2 0 49 is_stmt 0        @ ../User/Http/httpd_cgi_ssi.c:0:49
	movw	r3, :lower16:rubicon_ctrl_buffer
	ldr	r2, [sp]                @ 4-byte Reload
	movt	r3, :upper16:rubicon_ctrl_buffer
	mov	r0, r3
.Ltmp213:
	.loc	2 456 14 is_stmt 1      @ ../User/Http/httpd_cgi_ssi.c:456:14
	str	r3, [r7]
.Ltmp214:
	.p2align	2
.LBB0_166:                              @   Parent Loop BB0_152 Depth=1
                                        @ =>  This Inner Loop Header: Depth=2
	@DEBUG_VALUE: HTTP_CGI_Handler:i <- $r10
	@DEBUG_VALUE: HTTP_CGI_Handler:x <- $r9
	@DEBUG_VALUE: HTTP_CGI_Handler:pcValue <- [$sp+0]
	@DEBUG_VALUE: HTTP_CGI_Handler:iNumParams <- [DW_OP_plus_uconst 8] [$sp+0]
	@DEBUG_VALUE: HTTP_CGI_Handler:pcParam <- [DW_OP_plus_uconst 4] [$sp+0]
	.loc	2 457 82                @ ../User/Http/httpd_cgi_ssi.c:457:82
	adds	r1, r0, #1
	str	r1, [r7]
	.loc	2 457 85 is_stmt 0      @ ../User/Http/httpd_cgi_ssi.c:457:85
	strb.w	r8, [r0]
	.loc	2 457 11                @ ../User/Http/httpd_cgi_ssi.c:457:11
	ldr	r0, [r7]
	.loc	2 457 5                 @ ../User/Http/httpd_cgi_ssi.c:457:5
	cmp	r0, r11
	blo	.LBB0_166
.Ltmp215:
@ %bb.167:                              @   in Loop: Header=BB0_152 Depth=1
	@DEBUG_VALUE: HTTP_CGI_Handler:i <- $r10
	@DEBUG_VALUE: HTTP_CGI_Handler:x <- $r9
	@DEBUG_VALUE: HTTP_CGI_Handler:pcValue <- [$sp+0]
	@DEBUG_VALUE: HTTP_CGI_Handler:iNumParams <- [DW_OP_plus_uconst 8] [$sp+0]
	@DEBUG_VALUE: HTTP_CGI_Handler:pcParam <- [DW_OP_plus_uconst 4] [$sp+0]
	.loc	2 0 5                   @ ../User/Http/httpd_cgi_ssi.c:0:5
	movs	r0, #0
.Ltmp216:
	@DEBUG_VALUE: HTTP_CGI_Handler:x <- 0
	.p2align	2
.LBB0_168:                              @   Parent Loop BB0_152 Depth=1
                                        @ =>  This Inner Loop Header: Depth=2
	@DEBUG_VALUE: HTTP_CGI_Handler:i <- $r10
	@DEBUG_VALUE: HTTP_CGI_Handler:pcValue <- [$sp+0]
	@DEBUG_VALUE: HTTP_CGI_Handler:iNumParams <- [DW_OP_plus_uconst 8] [$sp+0]
	@DEBUG_VALUE: HTTP_CGI_Handler:pcParam <- [DW_OP_plus_uconst 4] [$sp+0]
	@DEBUG_VALUE: HTTP_CGI_Handler:x <- $r0
	.loc	2 460 49 is_stmt 1      @ ../User/Http/httpd_cgi_ssi.c:460:49
	ldr.w	r1, [r2, r10, lsl #2]
	ldrb	r1, [r1, r0]
	cbz	r1, .LBB0_170
.Ltmp217:
@ %bb.169:                              @   in Loop: Header=BB0_168 Depth=2
	@DEBUG_VALUE: HTTP_CGI_Handler:x <- $r0
	@DEBUG_VALUE: HTTP_CGI_Handler:i <- $r10
	@DEBUG_VALUE: HTTP_CGI_Handler:pcValue <- [$sp+0]
	@DEBUG_VALUE: HTTP_CGI_Handler:iNumParams <- [DW_OP_plus_uconst 8] [$sp+0]
	@DEBUG_VALUE: HTTP_CGI_Handler:pcParam <- [DW_OP_plus_uconst 4] [$sp+0]
	.loc	2 462 29                @ ../User/Http/httpd_cgi_ssi.c:462:29
	strb	r1, [r3, r0]
	.loc	2 463 7                 @ ../User/Http/httpd_cgi_ssi.c:463:7
	adds	r0, #1
.Ltmp218:
	@DEBUG_VALUE: HTTP_CGI_Handler:x <- $r0
	.loc	2 460 45                @ ../User/Http/httpd_cgi_ssi.c:460:45
	cmp.w	r0, #512
	blo	.LBB0_168
.Ltmp219:
.LBB0_170:                              @   in Loop: Header=BB0_152 Depth=1
	@DEBUG_VALUE: HTTP_CGI_Handler:x <- $r0
	@DEBUG_VALUE: HTTP_CGI_Handler:i <- $r10
	@DEBUG_VALUE: HTTP_CGI_Handler:pcValue <- [$sp+0]
	@DEBUG_VALUE: HTTP_CGI_Handler:iNumParams <- [DW_OP_plus_uconst 8] [$sp+0]
	@DEBUG_VALUE: HTTP_CGI_Handler:pcParam <- [DW_OP_plus_uconst 4] [$sp+0]
	@DEBUG_VALUE: HTTP_CGI_Handler:x <- $r0
	.loc	2 465 28                @ ../User/Http/httpd_cgi_ssi.c:465:28
	strb.w	r8, [r3, r0]
	.loc	2 466 6                 @ ../User/Http/httpd_cgi_ssi.c:466:6
	add.w	r9, r0, #1
.Ltmp220:
	@DEBUG_VALUE: HTTP_CGI_Handler:x <- $r9
.LBB0_171:                              @   in Loop: Header=BB0_152 Depth=1
	@DEBUG_VALUE: HTTP_CGI_Handler:i <- $r10
	@DEBUG_VALUE: HTTP_CGI_Handler:x <- $r9
	@DEBUG_VALUE: HTTP_CGI_Handler:pcValue <- [$sp+0]
	@DEBUG_VALUE: HTTP_CGI_Handler:iNumParams <- [DW_OP_plus_uconst 8] [$sp+0]
	@DEBUG_VALUE: HTTP_CGI_Handler:pcParam <- [DW_OP_plus_uconst 4] [$sp+0]
	@DEBUG_VALUE: HTTP_CGI_Handler:x <- $r9
	.loc	2 452 9                 @ ../User/Http/httpd_cgi_ssi.c:452:9
	ldr	r0, [sp, #8]            @ 4-byte Reload
.Ltmp221:
	.loc	2 452 38 is_stmt 0      @ ../User/Http/httpd_cgi_ssi.c:452:38
	add.w	r10, r10, #1
.Ltmp222:
	@DEBUG_VALUE: HTTP_CGI_Handler:i <- $r10
	.loc	2 452 9                 @ ../User/Http/httpd_cgi_ssi.c:452:9
	cmp	r10, r0
	bne.w	.LBB0_152
.Ltmp223:
@ %bb.172:
	@DEBUG_VALUE: HTTP_CGI_Handler:i <- $r10
	@DEBUG_VALUE: HTTP_CGI_Handler:x <- $r9
	@DEBUG_VALUE: HTTP_CGI_Handler:pcValue <- [$sp+0]
	@DEBUG_VALUE: HTTP_CGI_Handler:iNumParams <- [DW_OP_plus_uconst 8] [$sp+0]
	@DEBUG_VALUE: HTTP_CGI_Handler:pcParam <- [DW_OP_plus_uconst 4] [$sp+0]
	@DEBUG_VALUE: HTTP_CGI_Handler:i <- 0
	.loc	2 523 9 is_stmt 1       @ ../User/Http/httpd_cgi_ssi.c:523:9
	ldr	r0, [sp, #8]            @ 4-byte Reload
	cmp	r0, #0
	beq.w	.LBB0_3
.Ltmp224:
@ %bb.173:
	@DEBUG_VALUE: HTTP_CGI_Handler:x <- $r9
	@DEBUG_VALUE: HTTP_CGI_Handler:pcValue <- [$sp+0]
	@DEBUG_VALUE: HTTP_CGI_Handler:iNumParams <- [DW_OP_plus_uconst 8] [$sp+0]
	@DEBUG_VALUE: HTTP_CGI_Handler:pcParam <- [DW_OP_plus_uconst 4] [$sp+0]
	.loc	2 0 9 is_stmt 0         @ ../User/Http/httpd_cgi_ssi.c:0:9
	mov.w	r10, #0
	adr.w	r5, __arm_cp.0_84
	adr.w	r8, __arm_cp.0_85
	movs	r6, #0
.Ltmp225:
.LBB0_174:                              @ =>This Loop Header: Depth=1
                                        @     Child Loop BB0_178 Depth 2
                                        @     Child Loop BB0_181 Depth 2
                                        @     Child Loop BB0_184 Depth 2
                                        @     Child Loop BB0_194 Depth 2
                                        @     Child Loop BB0_188 Depth 2
                                        @     Child Loop BB0_190 Depth 2
	@DEBUG_VALUE: HTTP_CGI_Handler:x <- $r9
	@DEBUG_VALUE: HTTP_CGI_Handler:pcValue <- [$sp+0]
	@DEBUG_VALUE: HTTP_CGI_Handler:iNumParams <- [DW_OP_plus_uconst 8] [$sp+0]
	@DEBUG_VALUE: HTTP_CGI_Handler:pcParam <- [DW_OP_plus_uconst 4] [$sp+0]
	@DEBUG_VALUE: HTTP_CGI_Handler:i <- $r6
	@DEBUG_VALUE: HTTP_CGI_Handler:x <- $r9
	.loc	2 525 15 is_stmt 1      @ ../User/Http/httpd_cgi_ssi.c:525:15
	ldr	r0, [sp, #4]            @ 4-byte Reload
	.loc	2 525 8 is_stmt 0       @ ../User/Http/httpd_cgi_ssi.c:525:8
	mov	r1, r5
	.loc	2 525 15                @ ../User/Http/httpd_cgi_ssi.c:525:15
	ldr.w	r4, [r0, r6, lsl #2]
	.loc	2 525 8                 @ ../User/Http/httpd_cgi_ssi.c:525:8
	mov	r0, r4
	bl	strcmp
.Ltmp226:
	.loc	2 525 8                 @ ../User/Http/httpd_cgi_ssi.c:525:8
	cmp	r0, #0
	beq	.LBB0_187
.Ltmp227:
@ %bb.175:                              @   in Loop: Header=BB0_174 Depth=1
	@DEBUG_VALUE: HTTP_CGI_Handler:x <- $r9
	@DEBUG_VALUE: HTTP_CGI_Handler:i <- $r6
	@DEBUG_VALUE: HTTP_CGI_Handler:pcValue <- [$sp+0]
	@DEBUG_VALUE: HTTP_CGI_Handler:iNumParams <- [DW_OP_plus_uconst 8] [$sp+0]
	@DEBUG_VALUE: HTTP_CGI_Handler:pcParam <- [DW_OP_plus_uconst 4] [$sp+0]
	.loc	2 539 13 is_stmt 1      @ ../User/Http/httpd_cgi_ssi.c:539:13
	mov	r0, r4
	mov	r1, r8
	bl	strcmp
.Ltmp228:
	.loc	2 539 13 is_stmt 0      @ ../User/Http/httpd_cgi_ssi.c:539:13
	cmp	r0, #0
	bne.w	.LBB0_203
.Ltmp229:
@ %bb.176:                              @   in Loop: Header=BB0_174 Depth=1
	@DEBUG_VALUE: HTTP_CGI_Handler:x <- $r9
	@DEBUG_VALUE: HTTP_CGI_Handler:i <- $r6
	@DEBUG_VALUE: HTTP_CGI_Handler:pcValue <- [$sp+0]
	@DEBUG_VALUE: HTTP_CGI_Handler:iNumParams <- [DW_OP_plus_uconst 8] [$sp+0]
	@DEBUG_VALUE: HTTP_CGI_Handler:pcParam <- [DW_OP_plus_uconst 4] [$sp+0]
	@DEBUG_VALUE: HTTP_CGI_Handler:t <- 0
	.loc	2 0 13                  @ ../User/Http/httpd_cgi_ssi.c:0:13
	ldr	r4, [sp]                @ 4-byte Reload
	mov	r8, r5
.Ltmp230:
	.loc	2 543 49 is_stmt 1      @ ../User/Http/httpd_cgi_ssi.c:543:49
	cmn.w	r9, #512
	.loc	2 541 7                 @ ../User/Http/httpd_cgi_ssi.c:541:7
	str.w	r10, [sp, #24]
	.loc	2 543 49                @ ../User/Http/httpd_cgi_ssi.c:543:49
	beq	.LBB0_180
.Ltmp231:
@ %bb.177:                              @   in Loop: Header=BB0_174 Depth=1
	@DEBUG_VALUE: HTTP_CGI_Handler:x <- $r9
	@DEBUG_VALUE: HTTP_CGI_Handler:i <- $r6
	@DEBUG_VALUE: HTTP_CGI_Handler:pcValue <- [$sp+0]
	@DEBUG_VALUE: HTTP_CGI_Handler:iNumParams <- [DW_OP_plus_uconst 8] [$sp+0]
	@DEBUG_VALUE: HTTP_CGI_Handler:pcParam <- [DW_OP_plus_uconst 4] [$sp+0]
	.loc	2 543 53 is_stmt 0      @ ../User/Http/httpd_cgi_ssi.c:543:53
	movw	r0, :lower16:rubicon_ctrl_buffer
	addw	r1, r9, #513
	movs	r2, #0
	movt	r0, :upper16:rubicon_ctrl_buffer
	add	r0, r9
.Ltmp232:
.LBB0_178:                              @   Parent Loop BB0_174 Depth=1
                                        @ =>  This Inner Loop Header: Depth=2
	@DEBUG_VALUE: HTTP_CGI_Handler:x <- $r9
	@DEBUG_VALUE: HTTP_CGI_Handler:i <- $r6
	@DEBUG_VALUE: HTTP_CGI_Handler:pcValue <- [$sp+0]
	@DEBUG_VALUE: HTTP_CGI_Handler:iNumParams <- [DW_OP_plus_uconst 8] [$sp+0]
	@DEBUG_VALUE: HTTP_CGI_Handler:pcParam <- [DW_OP_plus_uconst 4] [$sp+0]
	@DEBUG_VALUE: HTTP_CGI_Handler:x <- undef
	ldr.w	r3, [r4, r6, lsl #2]
	ldrb	r5, [r3, r2]
	.loc	2 543 5                 @ ../User/Http/httpd_cgi_ssi.c:543:5
	cbz	r5, .LBB0_180
.Ltmp233:
@ %bb.179:                              @   in Loop: Header=BB0_178 Depth=2
	@DEBUG_VALUE: HTTP_CGI_Handler:i <- $r6
	@DEBUG_VALUE: HTTP_CGI_Handler:pcValue <- [$sp+0]
	@DEBUG_VALUE: HTTP_CGI_Handler:iNumParams <- [DW_OP_plus_uconst 8] [$sp+0]
	@DEBUG_VALUE: HTTP_CGI_Handler:pcParam <- [DW_OP_plus_uconst 4] [$sp+0]
	.loc	2 545 55 is_stmt 1      @ ../User/Http/httpd_cgi_ssi.c:545:55
	adds	r5, r2, #1
.Ltmp234:
	@DEBUG_VALUE: HTTP_CGI_Handler:t <- $r5
	str	r5, [sp, #24]
	.loc	2 545 43 is_stmt 0      @ ../User/Http/httpd_cgi_ssi.c:545:43
	ldrb	r3, [r3, r2]
	.loc	2 545 31                @ ../User/Http/httpd_cgi_ssi.c:545:31
	strb	r3, [r0, r2]
.Ltmp235:
	@DEBUG_VALUE: HTTP_CGI_Handler:x <- [DW_OP_plus_uconst 1, DW_OP_stack_value] undef
	.loc	2 543 14 is_stmt 1      @ ../User/Http/httpd_cgi_ssi.c:543:14
	add	r2, r1
	.loc	2 543 49 is_stmt 0      @ ../User/Http/httpd_cgi_ssi.c:543:49
	cmp	r5, r2
	mov	r2, r5
.Ltmp236:
	@DEBUG_VALUE: HTTP_CGI_Handler:t <- $r2
	blo	.LBB0_178
.Ltmp237:
.LBB0_180:                              @   in Loop: Header=BB0_174 Depth=1
	@DEBUG_VALUE: HTTP_CGI_Handler:i <- $r6
	@DEBUG_VALUE: HTTP_CGI_Handler:pcValue <- [$sp+0]
	@DEBUG_VALUE: HTTP_CGI_Handler:iNumParams <- [DW_OP_plus_uconst 8] [$sp+0]
	@DEBUG_VALUE: HTTP_CGI_Handler:pcParam <- [DW_OP_plus_uconst 4] [$sp+0]
	.loc	2 0 49                  @ ../User/Http/httpd_cgi_ssi.c:0:49
	movw	r4, :lower16:rubicon_ctrl_buffer
	movt	r4, :upper16:rubicon_ctrl_buffer
	.loc	2 547 25 is_stmt 1      @ ../User/Http/httpd_cgi_ssi.c:547:25
	mov	r0, r4
	bl	atoi
	mov	r5, r0
	mov.w	r9, #0
.Ltmp238:
	@DEBUG_VALUE: HTTP_CGI_Handler:x <- 0
	.p2align	2
.LBB0_181:                              @   Parent Loop BB0_174 Depth=1
                                        @ =>  This Inner Loop Header: Depth=2
	@DEBUG_VALUE: HTTP_CGI_Handler:i <- $r6
	@DEBUG_VALUE: HTTP_CGI_Handler:pcValue <- [$sp+0]
	@DEBUG_VALUE: HTTP_CGI_Handler:iNumParams <- [DW_OP_plus_uconst 8] [$sp+0]
	@DEBUG_VALUE: HTTP_CGI_Handler:pcParam <- [DW_OP_plus_uconst 4] [$sp+0]
	@DEBUG_VALUE: HTTP_CGI_Handler:x <- $r9
	.loc	2 549 11                @ ../User/Http/httpd_cgi_ssi.c:549:11
	ldrb.w	r0, [r4, r9]
	.loc	2 0 0 is_stmt 0         @ ../User/Http/httpd_cgi_ssi.c:0:0
	add.w	r9, r9, #1
.Ltmp239:
	@DEBUG_VALUE: HTTP_CGI_Handler:x <- $r9
	.loc	2 549 5                 @ ../User/Http/httpd_cgi_ssi.c:549:5
	cmp	r0, #0
	bne	.LBB0_181
.Ltmp240:
@ %bb.182:                              @   in Loop: Header=BB0_174 Depth=1
	@DEBUG_VALUE: HTTP_CGI_Handler:x <- $r9
	@DEBUG_VALUE: HTTP_CGI_Handler:i <- $r6
	@DEBUG_VALUE: HTTP_CGI_Handler:pcValue <- [$sp+0]
	@DEBUG_VALUE: HTTP_CGI_Handler:iNumParams <- [DW_OP_plus_uconst 8] [$sp+0]
	@DEBUG_VALUE: HTTP_CGI_Handler:pcParam <- [DW_OP_plus_uconst 4] [$sp+0]
	.loc	2 551 20 is_stmt 1      @ ../User/Http/httpd_cgi_ssi.c:551:20
	add.w	r0, r4, r9
	bl	atoi
	movw	r3, :lower16:rubicon_address_list_size
	mov	r4, r0
.Ltmp241:
	@DEBUG_VALUE: HTTP_CGI_Handler:address_cnt <- 0
	.loc	2 0 20 is_stmt 0        @ ../User/Http/httpd_cgi_ssi.c:0:20
	movt	r3, :upper16:rubicon_address_list_size
	.loc	2 554 25 is_stmt 1      @ ../User/Http/httpd_cgi_ssi.c:554:25
	ldrh	r0, [r3]
	.loc	2 554 5 is_stmt 0       @ ../User/Http/httpd_cgi_ssi.c:554:5
	cbz	r0, .LBB0_185
.Ltmp242:
@ %bb.183:                              @   in Loop: Header=BB0_174 Depth=1
	@DEBUG_VALUE: HTTP_CGI_Handler:x <- $r9
	@DEBUG_VALUE: HTTP_CGI_Handler:i <- $r6
	@DEBUG_VALUE: HTTP_CGI_Handler:pcValue <- [$sp+0]
	@DEBUG_VALUE: HTTP_CGI_Handler:iNumParams <- [DW_OP_plus_uconst 8] [$sp+0]
	@DEBUG_VALUE: HTTP_CGI_Handler:pcParam <- [DW_OP_plus_uconst 4] [$sp+0]
	.loc	2 0 5                   @ ../User/Http/httpd_cgi_ssi.c:0:5
	movw	r0, :lower16:rubicon_firmware_update_address_list
	movs	r1, #0
	movt	r0, :upper16:rubicon_firmware_update_address_list
	ldr	r0, [r0]
.Ltmp243:
	.p2align	2
.LBB0_184:                              @   Parent Loop BB0_174 Depth=1
                                        @ =>  This Inner Loop Header: Depth=2
	@DEBUG_VALUE: HTTP_CGI_Handler:x <- $r9
	@DEBUG_VALUE: HTTP_CGI_Handler:i <- $r6
	@DEBUG_VALUE: HTTP_CGI_Handler:pcValue <- [$sp+0]
	@DEBUG_VALUE: HTTP_CGI_Handler:iNumParams <- [DW_OP_plus_uconst 8] [$sp+0]
	@DEBUG_VALUE: HTTP_CGI_Handler:pcParam <- [DW_OP_plus_uconst 4] [$sp+0]
	@DEBUG_VALUE: HTTP_CGI_Handler:address_cnt <- $r1
	.loc	2 554 104               @ ../User/Http/httpd_cgi_ssi.c:554:104
	strh.w	r10, [r0, r1, lsl #1]
	.loc	2 554 100               @ ../User/Http/httpd_cgi_ssi.c:554:100
	adds	r1, #1
.Ltmp244:
	@DEBUG_VALUE: HTTP_CGI_Handler:address_cnt <- [DW_OP_plus_uconst 1, DW_OP_stack_value] undef
	.loc	2 554 25                @ ../User/Http/httpd_cgi_ssi.c:554:25
	ldrh	r2, [r3]
	.loc	2 554 5                 @ ../User/Http/httpd_cgi_ssi.c:554:5
	cmp	r1, r2
	blo	.LBB0_184
.Ltmp245:
.LBB0_185:                              @   in Loop: Header=BB0_174 Depth=1
	@DEBUG_VALUE: HTTP_CGI_Handler:x <- $r9
	@DEBUG_VALUE: HTTP_CGI_Handler:i <- $r6
	@DEBUG_VALUE: HTTP_CGI_Handler:pcValue <- [$sp+0]
	@DEBUG_VALUE: HTTP_CGI_Handler:iNumParams <- [DW_OP_plus_uconst 8] [$sp+0]
	@DEBUG_VALUE: HTTP_CGI_Handler:pcParam <- [DW_OP_plus_uconst 4] [$sp+0]
	@DEBUG_VALUE: HTTP_CGI_Handler:address_cnt <- 0
	.loc	2 556 96 is_stmt 1      @ ../User/Http/httpd_cgi_ssi.c:556:96
	movw	r0, :lower16:rubicon_file_update_list
	movs	r1, #32
	movt	r0, :upper16:rubicon_file_update_list
	bl	__aeabi_memclr
.Ltmp246:
	@DEBUG_VALUE: HTTP_CGI_Handler:address_cnt <- [DW_OP_plus_uconst 1, DW_OP_stack_value] undef
	.loc	2 558 38                @ ../User/Http/httpd_cgi_ssi.c:558:38
	movw	r0, :lower16:rubicon_firmware_update_list_cnt
	.loc	2 560 27                @ ../User/Http/httpd_cgi_ssi.c:560:27
	uxth	r1, r5
	.loc	2 558 38                @ ../User/Http/httpd_cgi_ssi.c:558:38
	movt	r0, :upper16:rubicon_firmware_update_list_cnt
	strh.w	r10, [r0]
	.loc	2 560 11                @ ../User/Http/httpd_cgi_ssi.c:560:11
	uxth	r0, r4
	.loc	2 560 5 is_stmt 0       @ ../User/Http/httpd_cgi_ssi.c:560:5
	cmp	r0, r1
	bhs	.LBB0_193
.Ltmp247:
@ %bb.186:                              @   in Loop: Header=BB0_174 Depth=1
	@DEBUG_VALUE: HTTP_CGI_Handler:x <- $r9
	@DEBUG_VALUE: HTTP_CGI_Handler:i <- $r6
	@DEBUG_VALUE: HTTP_CGI_Handler:pcValue <- [$sp+0]
	@DEBUG_VALUE: HTTP_CGI_Handler:iNumParams <- [DW_OP_plus_uconst 8] [$sp+0]
	@DEBUG_VALUE: HTTP_CGI_Handler:pcParam <- [DW_OP_plus_uconst 4] [$sp+0]
	.loc	2 578 45 is_stmt 1      @ ../User/Http/httpd_cgi_ssi.c:578:45
	movw	r0, :lower16:RUBICON_FileUpdatePacket
	mov	r5, r8
	movt	r0, :upper16:RUBICON_FileUpdatePacket
	strb.w	r10, [r0]
	.loc	2 577 49                @ ../User/Http/httpd_cgi_ssi.c:577:49
	movw	r0, :lower16:RUBICON_FirmwareUpdatePacket
	movt	r0, :upper16:RUBICON_FirmwareUpdatePacket
	strb.w	r10, [r0]
	b	.LBB0_202
.Ltmp248:
.LBB0_187:                              @   in Loop: Header=BB0_174 Depth=1
	@DEBUG_VALUE: HTTP_CGI_Handler:x <- $r9
	@DEBUG_VALUE: HTTP_CGI_Handler:i <- $r6
	@DEBUG_VALUE: HTTP_CGI_Handler:pcValue <- [$sp+0]
	@DEBUG_VALUE: HTTP_CGI_Handler:iNumParams <- [DW_OP_plus_uconst 8] [$sp+0]
	@DEBUG_VALUE: HTTP_CGI_Handler:pcParam <- [DW_OP_plus_uconst 4] [$sp+0]
	.loc	2 0 49 is_stmt 0        @ ../User/Http/httpd_cgi_ssi.c:0:49
	movw	r3, :lower16:rubicon_ctrl_buffer
	ldr	r2, [sp]                @ 4-byte Reload
	movt	r3, :upper16:rubicon_ctrl_buffer
	mov	r0, r3
.Ltmp249:
	.loc	2 527 14 is_stmt 1      @ ../User/Http/httpd_cgi_ssi.c:527:14
	str	r3, [r7]
.Ltmp250:
	.p2align	2
.LBB0_188:                              @   Parent Loop BB0_174 Depth=1
                                        @ =>  This Inner Loop Header: Depth=2
	@DEBUG_VALUE: HTTP_CGI_Handler:x <- $r9
	@DEBUG_VALUE: HTTP_CGI_Handler:i <- $r6
	@DEBUG_VALUE: HTTP_CGI_Handler:pcValue <- [$sp+0]
	@DEBUG_VALUE: HTTP_CGI_Handler:iNumParams <- [DW_OP_plus_uconst 8] [$sp+0]
	@DEBUG_VALUE: HTTP_CGI_Handler:pcParam <- [DW_OP_plus_uconst 4] [$sp+0]
	.loc	2 528 82                @ ../User/Http/httpd_cgi_ssi.c:528:82
	adds	r1, r0, #1
	str	r1, [r7]
	.loc	2 528 85 is_stmt 0      @ ../User/Http/httpd_cgi_ssi.c:528:85
	strb.w	r10, [r0]
	.loc	2 528 11                @ ../User/Http/httpd_cgi_ssi.c:528:11
	ldr	r0, [r7]
	.loc	2 528 5                 @ ../User/Http/httpd_cgi_ssi.c:528:5
	cmp	r0, r11
	blo	.LBB0_188
.Ltmp251:
@ %bb.189:                              @   in Loop: Header=BB0_174 Depth=1
	@DEBUG_VALUE: HTTP_CGI_Handler:x <- $r9
	@DEBUG_VALUE: HTTP_CGI_Handler:i <- $r6
	@DEBUG_VALUE: HTTP_CGI_Handler:pcValue <- [$sp+0]
	@DEBUG_VALUE: HTTP_CGI_Handler:iNumParams <- [DW_OP_plus_uconst 8] [$sp+0]
	@DEBUG_VALUE: HTTP_CGI_Handler:pcParam <- [DW_OP_plus_uconst 4] [$sp+0]
	.loc	2 0 5                   @ ../User/Http/httpd_cgi_ssi.c:0:5
	movs	r0, #0
.Ltmp252:
	@DEBUG_VALUE: HTTP_CGI_Handler:x <- 0
	.p2align	2
.LBB0_190:                              @   Parent Loop BB0_174 Depth=1
                                        @ =>  This Inner Loop Header: Depth=2
	@DEBUG_VALUE: HTTP_CGI_Handler:i <- $r6
	@DEBUG_VALUE: HTTP_CGI_Handler:pcValue <- [$sp+0]
	@DEBUG_VALUE: HTTP_CGI_Handler:iNumParams <- [DW_OP_plus_uconst 8] [$sp+0]
	@DEBUG_VALUE: HTTP_CGI_Handler:pcParam <- [DW_OP_plus_uconst 4] [$sp+0]
	@DEBUG_VALUE: HTTP_CGI_Handler:x <- $r0
	.loc	2 531 49 is_stmt 1      @ ../User/Http/httpd_cgi_ssi.c:531:49
	ldr.w	r1, [r2, r6, lsl #2]
	ldrb	r1, [r1, r0]
	cbz	r1, .LBB0_192
.Ltmp253:
@ %bb.191:                              @   in Loop: Header=BB0_190 Depth=2
	@DEBUG_VALUE: HTTP_CGI_Handler:x <- $r0
	@DEBUG_VALUE: HTTP_CGI_Handler:i <- $r6
	@DEBUG_VALUE: HTTP_CGI_Handler:pcValue <- [$sp+0]
	@DEBUG_VALUE: HTTP_CGI_Handler:iNumParams <- [DW_OP_plus_uconst 8] [$sp+0]
	@DEBUG_VALUE: HTTP_CGI_Handler:pcParam <- [DW_OP_plus_uconst 4] [$sp+0]
	.loc	2 533 29                @ ../User/Http/httpd_cgi_ssi.c:533:29
	strb	r1, [r3, r0]
	.loc	2 534 7                 @ ../User/Http/httpd_cgi_ssi.c:534:7
	adds	r0, #1
.Ltmp254:
	@DEBUG_VALUE: HTTP_CGI_Handler:x <- $r0
	.loc	2 531 45                @ ../User/Http/httpd_cgi_ssi.c:531:45
	cmp.w	r0, #512
	blo	.LBB0_190
.Ltmp255:
.LBB0_192:                              @   in Loop: Header=BB0_174 Depth=1
	@DEBUG_VALUE: HTTP_CGI_Handler:x <- $r0
	@DEBUG_VALUE: HTTP_CGI_Handler:i <- $r6
	@DEBUG_VALUE: HTTP_CGI_Handler:pcValue <- [$sp+0]
	@DEBUG_VALUE: HTTP_CGI_Handler:iNumParams <- [DW_OP_plus_uconst 8] [$sp+0]
	@DEBUG_VALUE: HTTP_CGI_Handler:pcParam <- [DW_OP_plus_uconst 4] [$sp+0]
	@DEBUG_VALUE: HTTP_CGI_Handler:x <- $r0
	.loc	2 536 28                @ ../User/Http/httpd_cgi_ssi.c:536:28
	strb.w	r10, [r3, r0]
	.loc	2 537 6                 @ ../User/Http/httpd_cgi_ssi.c:537:6
	add.w	r9, r0, #1
.Ltmp256:
	@DEBUG_VALUE: HTTP_CGI_Handler:x <- $r9
	.loc	2 0 6 is_stmt 0         @ ../User/Http/httpd_cgi_ssi.c:0:6
	b	.LBB0_203
.Ltmp257:
.LBB0_193:                              @   in Loop: Header=BB0_174 Depth=1
	@DEBUG_VALUE: HTTP_CGI_Handler:x <- $r9
	@DEBUG_VALUE: HTTP_CGI_Handler:i <- $r6
	@DEBUG_VALUE: HTTP_CGI_Handler:pcValue <- [$sp+0]
	@DEBUG_VALUE: HTTP_CGI_Handler:iNumParams <- [DW_OP_plus_uconst 8] [$sp+0]
	@DEBUG_VALUE: HTTP_CGI_Handler:pcParam <- [DW_OP_plus_uconst 4] [$sp+0]
	movw	r1, :lower16:rubicon_firmware_update_address_list
	movs	r3, #0
	movs	r4, #0
	movt	r1, :upper16:rubicon_firmware_update_address_list
	ldr.w	r12, [r1]
	movw	r1, :lower16:rubicon_address_list
	movt	r1, :upper16:rubicon_address_list
	ldr.w	lr, [r1]
.Ltmp258:
	.p2align	2
.LBB0_194:                              @   Parent Loop BB0_174 Depth=1
                                        @ =>  This Inner Loop Header: Depth=2
	@DEBUG_VALUE: HTTP_CGI_Handler:x <- $r9
	@DEBUG_VALUE: HTTP_CGI_Handler:i <- $r6
	@DEBUG_VALUE: HTTP_CGI_Handler:pcValue <- [$sp+0]
	@DEBUG_VALUE: HTTP_CGI_Handler:iNumParams <- [DW_OP_plus_uconst 8] [$sp+0]
	@DEBUG_VALUE: HTTP_CGI_Handler:pcParam <- [DW_OP_plus_uconst 4] [$sp+0]
	@DEBUG_VALUE: HTTP_CGI_Handler:address_cnt <- $r4
	@DEBUG_VALUE: HTTP_CGI_Handler:first_address <- $r5
	.loc	2 562 9 is_stmt 1       @ ../User/Http/httpd_cgi_ssi.c:562:9
	uxth	r1, r4
	.loc	2 562 43 is_stmt 0      @ ../User/Http/httpd_cgi_ssi.c:562:43
	uxth	r2, r5
	.loc	2 562 9                 @ ../User/Http/httpd_cgi_ssi.c:562:9
	ldrh.w	r1, [lr, r1, lsl #1]
.Ltmp259:
	.loc	2 562 9                 @ ../User/Http/httpd_cgi_ssi.c:562:9
	cmp	r1, r2
	bne	.LBB0_196
.Ltmp260:
@ %bb.195:                              @   in Loop: Header=BB0_194 Depth=2
	@DEBUG_VALUE: HTTP_CGI_Handler:address_cnt <- $r4
	@DEBUG_VALUE: HTTP_CGI_Handler:first_address <- $r5
	@DEBUG_VALUE: HTTP_CGI_Handler:x <- $r9
	@DEBUG_VALUE: HTTP_CGI_Handler:i <- $r6
	@DEBUG_VALUE: HTTP_CGI_Handler:pcValue <- [$sp+0]
	@DEBUG_VALUE: HTTP_CGI_Handler:iNumParams <- [DW_OP_plus_uconst 8] [$sp+0]
	@DEBUG_VALUE: HTTP_CGI_Handler:pcParam <- [DW_OP_plus_uconst 4] [$sp+0]
	.loc	2 564 7 is_stmt 1       @ ../User/Http/httpd_cgi_ssi.c:564:7
	uxth	r1, r3
	.loc	2 564 78 is_stmt 0      @ ../User/Http/httpd_cgi_ssi.c:564:78
	strh.w	r5, [r12, r1, lsl #1]
	movw	r1, :lower16:rubicon_firmware_update_list_cnt
	movt	r1, :upper16:rubicon_firmware_update_list_cnt
	mov	r2, r1
	.loc	2 566 39 is_stmt 1      @ ../User/Http/httpd_cgi_ssi.c:566:39
	ldrh	r1, [r1]
	adds	r3, r1, #1
	strh	r3, [r2]
	b	.LBB0_198
.Ltmp261:
.LBB0_196:                              @   in Loop: Header=BB0_194 Depth=2
	@DEBUG_VALUE: HTTP_CGI_Handler:address_cnt <- $r4
	@DEBUG_VALUE: HTTP_CGI_Handler:first_address <- $r5
	@DEBUG_VALUE: HTTP_CGI_Handler:x <- $r9
	@DEBUG_VALUE: HTTP_CGI_Handler:i <- $r6
	@DEBUG_VALUE: HTTP_CGI_Handler:pcValue <- [$sp+0]
	@DEBUG_VALUE: HTTP_CGI_Handler:iNumParams <- [DW_OP_plus_uconst 8] [$sp+0]
	@DEBUG_VALUE: HTTP_CGI_Handler:pcParam <- [DW_OP_plus_uconst 4] [$sp+0]
	.loc	2 569 14                @ ../User/Http/httpd_cgi_ssi.c:569:14
	cbz	r1, .LBB0_198
.Ltmp262:
@ %bb.197:                              @   in Loop: Header=BB0_194 Depth=2
	@DEBUG_VALUE: HTTP_CGI_Handler:address_cnt <- $r4
	@DEBUG_VALUE: HTTP_CGI_Handler:first_address <- $r5
	@DEBUG_VALUE: HTTP_CGI_Handler:x <- $r9
	@DEBUG_VALUE: HTTP_CGI_Handler:i <- $r6
	@DEBUG_VALUE: HTTP_CGI_Handler:pcValue <- [$sp+0]
	@DEBUG_VALUE: HTTP_CGI_Handler:iNumParams <- [DW_OP_plus_uconst 8] [$sp+0]
	@DEBUG_VALUE: HTTP_CGI_Handler:pcParam <- [DW_OP_plus_uconst 4] [$sp+0]
	.loc	2 574 22                @ ../User/Http/httpd_cgi_ssi.c:574:22
	adds	r4, #1
.Ltmp263:
	@DEBUG_VALUE: HTTP_CGI_Handler:address_cnt <- $r4
	.loc	2 0 22 is_stmt 0        @ ../User/Http/httpd_cgi_ssi.c:0:22
	b	.LBB0_199
.Ltmp264:
	.p2align	2
.LBB0_198:                              @   in Loop: Header=BB0_194 Depth=2
	@DEBUG_VALUE: HTTP_CGI_Handler:address_cnt <- $r4
	@DEBUG_VALUE: HTTP_CGI_Handler:first_address <- $r5
	@DEBUG_VALUE: HTTP_CGI_Handler:x <- $r9
	@DEBUG_VALUE: HTTP_CGI_Handler:i <- $r6
	@DEBUG_VALUE: HTTP_CGI_Handler:pcValue <- [$sp+0]
	@DEBUG_VALUE: HTTP_CGI_Handler:iNumParams <- [DW_OP_plus_uconst 8] [$sp+0]
	@DEBUG_VALUE: HTTP_CGI_Handler:pcParam <- [DW_OP_plus_uconst 4] [$sp+0]
	@DEBUG_VALUE: HTTP_CGI_Handler:address_cnt <- 0
	adds	r5, #1
.Ltmp265:
	@DEBUG_VALUE: HTTP_CGI_Handler:first_address <- $r5
	movs	r4, #0
.Ltmp266:
.LBB0_199:                              @   in Loop: Header=BB0_194 Depth=2
	@DEBUG_VALUE: HTTP_CGI_Handler:first_address <- $r5
	@DEBUG_VALUE: HTTP_CGI_Handler:x <- $r9
	@DEBUG_VALUE: HTTP_CGI_Handler:i <- $r6
	@DEBUG_VALUE: HTTP_CGI_Handler:pcValue <- [$sp+0]
	@DEBUG_VALUE: HTTP_CGI_Handler:iNumParams <- [DW_OP_plus_uconst 8] [$sp+0]
	@DEBUG_VALUE: HTTP_CGI_Handler:pcParam <- [DW_OP_plus_uconst 4] [$sp+0]
	@DEBUG_VALUE: HTTP_CGI_Handler:address_cnt <- $r4
	@DEBUG_VALUE: HTTP_CGI_Handler:first_address <- $r5
	.loc	2 560 27 is_stmt 1      @ ../User/Http/httpd_cgi_ssi.c:560:27
	uxth	r1, r5
	.loc	2 560 5 is_stmt 0       @ ../User/Http/httpd_cgi_ssi.c:560:5
	cmp	r0, r1
	bhs	.LBB0_194
.Ltmp267:
@ %bb.200:                              @   in Loop: Header=BB0_174 Depth=1
	@DEBUG_VALUE: HTTP_CGI_Handler:address_cnt <- $r4
	@DEBUG_VALUE: HTTP_CGI_Handler:first_address <- $r5
	@DEBUG_VALUE: HTTP_CGI_Handler:x <- $r9
	@DEBUG_VALUE: HTTP_CGI_Handler:i <- $r6
	@DEBUG_VALUE: HTTP_CGI_Handler:pcValue <- [$sp+0]
	@DEBUG_VALUE: HTTP_CGI_Handler:iNumParams <- [DW_OP_plus_uconst 8] [$sp+0]
	@DEBUG_VALUE: HTTP_CGI_Handler:pcParam <- [DW_OP_plus_uconst 4] [$sp+0]
	.loc	2 578 45 is_stmt 1      @ ../User/Http/httpd_cgi_ssi.c:578:45
	movw	r0, :lower16:RUBICON_FileUpdatePacket
	movw	r1, :lower16:RUBICON_FirmwareUpdatePacket
	mov	r5, r8
.Ltmp268:
	movt	r0, :upper16:RUBICON_FileUpdatePacket
	movt	r1, :upper16:RUBICON_FirmwareUpdatePacket
	strb.w	r10, [r0]
	.loc	2 580 8                 @ ../User/Http/httpd_cgi_ssi.c:580:8
	lsls	r0, r3, #16
	.loc	2 577 49                @ ../User/Http/httpd_cgi_ssi.c:577:49
	strb.w	r10, [r1]
	.loc	2 580 8                 @ ../User/Http/httpd_cgi_ssi.c:580:8
	beq	.LBB0_202
.Ltmp269:
@ %bb.201:                              @   in Loop: Header=BB0_174 Depth=1
	@DEBUG_VALUE: HTTP_CGI_Handler:address_cnt <- $r4
	@DEBUG_VALUE: HTTP_CGI_Handler:x <- $r9
	@DEBUG_VALUE: HTTP_CGI_Handler:i <- $r6
	@DEBUG_VALUE: HTTP_CGI_Handler:pcValue <- [$sp+0]
	@DEBUG_VALUE: HTTP_CGI_Handler:iNumParams <- [DW_OP_plus_uconst 8] [$sp+0]
	@DEBUG_VALUE: HTTP_CGI_Handler:pcParam <- [DW_OP_plus_uconst 4] [$sp+0]
	.loc	2 583 34                @ ../User/Http/httpd_cgi_ssi.c:583:34
	movw	r0, :lower16:rubicon_file_update_list
	movs	r2, #21
	movt	r0, :upper16:rubicon_file_update_list
	strb	r2, [r0]
	.loc	2 582 50                @ ../User/Http/httpd_cgi_ssi.c:582:50
	movs	r0, #194
	strb	r0, [r1]
	.loc	2 584 35                @ ../User/Http/httpd_cgi_ssi.c:584:35
	movw	r0, :lower16:rubicon_file_update_list_cnt
	.loc	2 586 27                @ ../User/Http/httpd_cgi_ssi.c:586:27
	movs	r1, #99
	.loc	2 584 35                @ ../User/Http/httpd_cgi_ssi.c:584:35
	movt	r0, :upper16:rubicon_file_update_list_cnt
	strh.w	r10, [r0]
	.loc	2 585 39                @ ../User/Http/httpd_cgi_ssi.c:585:39
	movw	r0, :lower16:rubicon_firmware_update_list_cnt
	movt	r0, :upper16:rubicon_firmware_update_list_cnt
	strh.w	r10, [r0]
	.loc	2 586 27                @ ../User/Http/httpd_cgi_ssi.c:586:27
	movw	r0, :lower16:rubicon_ctrl_request
	movt	r0, :upper16:rubicon_ctrl_request
	strb	r1, [r0]
.Ltmp270:
.LBB0_202:                              @   in Loop: Header=BB0_174 Depth=1
	@DEBUG_VALUE: HTTP_CGI_Handler:x <- $r9
	@DEBUG_VALUE: HTTP_CGI_Handler:i <- $r6
	@DEBUG_VALUE: HTTP_CGI_Handler:pcValue <- [$sp+0]
	@DEBUG_VALUE: HTTP_CGI_Handler:iNumParams <- [DW_OP_plus_uconst 8] [$sp+0]
	@DEBUG_VALUE: HTTP_CGI_Handler:pcParam <- [DW_OP_plus_uconst 4] [$sp+0]
	.loc	2 0 27 is_stmt 0        @ ../User/Http/httpd_cgi_ssi.c:0:27
	adr.w	r8, __arm_cp.0_85
.Ltmp271:
.LBB0_203:                              @   in Loop: Header=BB0_174 Depth=1
	@DEBUG_VALUE: HTTP_CGI_Handler:x <- $r9
	@DEBUG_VALUE: HTTP_CGI_Handler:i <- $r6
	@DEBUG_VALUE: HTTP_CGI_Handler:pcValue <- [$sp+0]
	@DEBUG_VALUE: HTTP_CGI_Handler:iNumParams <- [DW_OP_plus_uconst 8] [$sp+0]
	@DEBUG_VALUE: HTTP_CGI_Handler:pcParam <- [DW_OP_plus_uconst 4] [$sp+0]
	@DEBUG_VALUE: HTTP_CGI_Handler:x <- $r9
	.loc	2 523 9 is_stmt 1       @ ../User/Http/httpd_cgi_ssi.c:523:9
	ldr	r0, [sp, #8]            @ 4-byte Reload
.Ltmp272:
	.loc	2 523 38 is_stmt 0      @ ../User/Http/httpd_cgi_ssi.c:523:38
	adds	r6, #1
.Ltmp273:
	@DEBUG_VALUE: HTTP_CGI_Handler:i <- $r6
	.loc	2 523 9                 @ ../User/Http/httpd_cgi_ssi.c:523:9
	cmp	r6, r0
	bne.w	.LBB0_174
.Ltmp274:
@ %bb.204:
	@DEBUG_VALUE: HTTP_CGI_Handler:x <- $r9
	@DEBUG_VALUE: HTTP_CGI_Handler:i <- $r6
	@DEBUG_VALUE: HTTP_CGI_Handler:pcValue <- [$sp+0]
	@DEBUG_VALUE: HTTP_CGI_Handler:iNumParams <- [DW_OP_plus_uconst 8] [$sp+0]
	@DEBUG_VALUE: HTTP_CGI_Handler:pcParam <- [DW_OP_plus_uconst 4] [$sp+0]
	@DEBUG_VALUE: HTTP_CGI_Handler:i <- 0
	.loc	2 593 3 is_stmt 1       @ ../User/Http/httpd_cgi_ssi.c:593:3
	ldr	r0, [sp, #8]            @ 4-byte Reload
	cmp	r0, #0
	beq.w	.LBB0_3
.Ltmp275:
@ %bb.205:
	@DEBUG_VALUE: HTTP_CGI_Handler:x <- $r9
	@DEBUG_VALUE: HTTP_CGI_Handler:pcValue <- [$sp+0]
	@DEBUG_VALUE: HTTP_CGI_Handler:iNumParams <- [DW_OP_plus_uconst 8] [$sp+0]
	@DEBUG_VALUE: HTTP_CGI_Handler:pcParam <- [DW_OP_plus_uconst 4] [$sp+0]
	.loc	2 0 3 is_stmt 0         @ ../User/Http/httpd_cgi_ssi.c:0:3
	movs	r4, #0
	adr.w	r10, __arm_cp.0_86
	adr.w	r6, __arm_cp.0_87
	mov.w	r8, #0
	b	.LBB0_221
.Ltmp276:
.LBB0_206:
	@DEBUG_VALUE: HTTP_CGI_Handler:i <- $r4
	@DEBUG_VALUE: HTTP_CGI_Handler:x <- $r9
	@DEBUG_VALUE: HTTP_CGI_Handler:pcValue <- [$sp+0]
	@DEBUG_VALUE: HTTP_CGI_Handler:iNumParams <- [DW_OP_plus_uconst 8] [$sp+0]
	@DEBUG_VALUE: HTTP_CGI_Handler:pcParam <- [DW_OP_plus_uconst 4] [$sp+0]
	.loc	2 268 42 is_stmt 1      @ ../User/Http/httpd_cgi_ssi.c:268:42
	movw	r0, :lower16:rubicon_ctrl_request
	movs	r1, #163
	movt	r0, :upper16:rubicon_ctrl_request
	strb	r1, [r0]
	.loc	2 267 46                @ ../User/Http/httpd_cgi_ssi.c:267:46
	movw	r0, :lower16:HTTP_LogListTransfer
	movs	r1, #39
	movt	r0, :upper16:HTTP_LogListTransfer
	strb	r1, [r0]
	.loc	2 269 6                 @ ../User/Http/httpd_cgi_ssi.c:269:6
	bl	RUBICON_ReadBlockFromLogList
	b	.LBB0_210
.Ltmp277:
.LBB0_207:
	@DEBUG_VALUE: HTTP_CGI_Handler:i <- $r4
	@DEBUG_VALUE: HTTP_CGI_Handler:x <- $r9
	@DEBUG_VALUE: HTTP_CGI_Handler:pcValue <- [$sp+0]
	@DEBUG_VALUE: HTTP_CGI_Handler:iNumParams <- [DW_OP_plus_uconst 8] [$sp+0]
	@DEBUG_VALUE: HTTP_CGI_Handler:pcParam <- [DW_OP_plus_uconst 4] [$sp+0]
	.loc	2 275 42                @ ../User/Http/httpd_cgi_ssi.c:275:42
	movw	r0, :lower16:rubicon_ctrl_request
	movs	r1, #211
	movt	r0, :upper16:rubicon_ctrl_request
	strb	r1, [r0]
	.loc	2 274 46                @ ../User/Http/httpd_cgi_ssi.c:274:46
	movw	r0, :lower16:HTTP_LogListTransfer
	movs	r1, #41
	movt	r0, :upper16:HTTP_LogListTransfer
	strb	r1, [r0]
	.loc	2 276 6                 @ ../User/Http/httpd_cgi_ssi.c:276:6
	bl	RUBICON_DeleteBlockFromLogList
	b	.LBB0_210
.Ltmp278:
.LBB0_208:
	@DEBUG_VALUE: HTTP_CGI_Handler:i <- $r4
	@DEBUG_VALUE: HTTP_CGI_Handler:x <- $r9
	@DEBUG_VALUE: HTTP_CGI_Handler:pcValue <- [$sp+0]
	@DEBUG_VALUE: HTTP_CGI_Handler:iNumParams <- [DW_OP_plus_uconst 8] [$sp+0]
	@DEBUG_VALUE: HTTP_CGI_Handler:pcParam <- [DW_OP_plus_uconst 4] [$sp+0]
	.loc	2 282 42                @ ../User/Http/httpd_cgi_ssi.c:282:42
	movw	r0, :lower16:rubicon_ctrl_request
	movs	r1, #211
	movt	r0, :upper16:rubicon_ctrl_request
	strb	r1, [r0]
	.loc	2 281 46                @ ../User/Http/httpd_cgi_ssi.c:281:46
	movw	r0, :lower16:HTTP_LogListTransfer
	movs	r1, #43
	movt	r0, :upper16:HTTP_LogListTransfer
	strb	r1, [r0]
	.loc	2 283 6                 @ ../User/Http/httpd_cgi_ssi.c:283:6
	bl	RUBICON_FormatLogList
	b	.LBB0_210
.Ltmp279:
.LBB0_209:
	@DEBUG_VALUE: HTTP_CGI_Handler:pcValue <- [$sp+0]
	@DEBUG_VALUE: HTTP_CGI_Handler:iNumParams <- [DW_OP_plus_uconst 8] [$sp+0]
	@DEBUG_VALUE: HTTP_CGI_Handler:pcParam <- [DW_OP_plus_uconst 4] [$sp+0]
	.loc	2 0 6 is_stmt 0         @ ../User/Http/httpd_cgi_ssi.c:0:6
	movs	r0, #0
.Ltmp280:
	.loc	2 323 26 is_stmt 1      @ ../User/Http/httpd_cgi_ssi.c:323:26
	strb	r0, [r4]
	.loc	2 322 28                @ ../User/Http/httpd_cgi_ssi.c:322:28
	strb	r0, [r5]
.Ltmp281:
.LBB0_210:
	@DEBUG_VALUE: HTTP_CGI_Handler:pcValue <- [$sp+0]
	@DEBUG_VALUE: HTTP_CGI_Handler:iNumParams <- [DW_OP_plus_uconst 8] [$sp+0]
	@DEBUG_VALUE: HTTP_CGI_Handler:pcParam <- [DW_OP_plus_uconst 4] [$sp+0]
	.loc	2 0 28 is_stmt 0        @ ../User/Http/httpd_cgi_ssi.c:0:28
	movw	r5, :lower16:.L.str.8
	movt	r5, :upper16:.L.str.8
	b.w	.LBB0_4
.Ltmp282:
.LBB0_211:                              @   in Loop: Header=BB0_221 Depth=1
	@DEBUG_VALUE: HTTP_CGI_Handler:i <- $r8
	@DEBUG_VALUE: HTTP_CGI_Handler:x <- $r9
	@DEBUG_VALUE: HTTP_CGI_Handler:pcValue <- [$sp+0]
	@DEBUG_VALUE: HTTP_CGI_Handler:iNumParams <- [DW_OP_plus_uconst 8] [$sp+0]
	@DEBUG_VALUE: HTTP_CGI_Handler:pcParam <- [DW_OP_plus_uconst 4] [$sp+0]
	movw	r1, :lower16:rubicon_image_update_address_list
	movw	lr, :lower16:RUBICON_FileUpdatePacket
	movw	r10, :lower16:RUBICON_FirmwareUpdatePacket
	movs	r3, #0
	movs	r6, #0
	movt	r1, :upper16:rubicon_image_update_address_list
	movt	lr, :upper16:RUBICON_FileUpdatePacket
	movt	r10, :upper16:RUBICON_FirmwareUpdatePacket
	ldr.w	r12, [r1]
	movw	r1, :lower16:rubicon_address_list
	movt	r1, :upper16:rubicon_address_list
	ldr	r2, [r1]
.Ltmp283:
.LBB0_212:                              @   Parent Loop BB0_221 Depth=1
                                        @ =>  This Inner Loop Header: Depth=2
	@DEBUG_VALUE: HTTP_CGI_Handler:i <- $r8
	@DEBUG_VALUE: HTTP_CGI_Handler:x <- $r9
	@DEBUG_VALUE: HTTP_CGI_Handler:pcValue <- [$sp+0]
	@DEBUG_VALUE: HTTP_CGI_Handler:iNumParams <- [DW_OP_plus_uconst 8] [$sp+0]
	@DEBUG_VALUE: HTTP_CGI_Handler:pcParam <- [DW_OP_plus_uconst 4] [$sp+0]
	@DEBUG_VALUE: HTTP_CGI_Handler:address_cnt <- $r6
	@DEBUG_VALUE: HTTP_CGI_Handler:first_address <- $r5
	.loc	2 672 9 is_stmt 1       @ ../User/Http/httpd_cgi_ssi.c:672:9
	uxth	r4, r6
	.loc	2 672 43 is_stmt 0      @ ../User/Http/httpd_cgi_ssi.c:672:43
	uxth	r1, r5
	.loc	2 672 9                 @ ../User/Http/httpd_cgi_ssi.c:672:9
	ldrh.w	r4, [r2, r4, lsl #1]
.Ltmp284:
	.loc	2 672 9                 @ ../User/Http/httpd_cgi_ssi.c:672:9
	cmp	r4, r1
	bne	.LBB0_214
.Ltmp285:
@ %bb.213:                              @   in Loop: Header=BB0_212 Depth=2
	@DEBUG_VALUE: HTTP_CGI_Handler:i <- $r8
	@DEBUG_VALUE: HTTP_CGI_Handler:first_address <- $r5
	@DEBUG_VALUE: HTTP_CGI_Handler:address_cnt <- $r6
	@DEBUG_VALUE: HTTP_CGI_Handler:x <- $r9
	@DEBUG_VALUE: HTTP_CGI_Handler:pcValue <- [$sp+0]
	@DEBUG_VALUE: HTTP_CGI_Handler:iNumParams <- [DW_OP_plus_uconst 8] [$sp+0]
	@DEBUG_VALUE: HTTP_CGI_Handler:pcParam <- [DW_OP_plus_uconst 4] [$sp+0]
	.loc	2 674 7 is_stmt 1       @ ../User/Http/httpd_cgi_ssi.c:674:7
	uxth	r1, r3
	.loc	2 674 72 is_stmt 0      @ ../User/Http/httpd_cgi_ssi.c:674:72
	strh.w	r5, [r12, r1, lsl #1]
	movw	r1, :lower16:rubicon_image_update_list_cnt
	movt	r1, :upper16:rubicon_image_update_list_cnt
	mov	r4, r1
	.loc	2 676 36 is_stmt 1      @ ../User/Http/httpd_cgi_ssi.c:676:36
	ldrh	r1, [r1]
	adds	r3, r1, #1
	strh	r3, [r4]
	b	.LBB0_216
.Ltmp286:
.LBB0_214:                              @   in Loop: Header=BB0_212 Depth=2
	@DEBUG_VALUE: HTTP_CGI_Handler:i <- $r8
	@DEBUG_VALUE: HTTP_CGI_Handler:first_address <- $r5
	@DEBUG_VALUE: HTTP_CGI_Handler:address_cnt <- $r6
	@DEBUG_VALUE: HTTP_CGI_Handler:x <- $r9
	@DEBUG_VALUE: HTTP_CGI_Handler:pcValue <- [$sp+0]
	@DEBUG_VALUE: HTTP_CGI_Handler:iNumParams <- [DW_OP_plus_uconst 8] [$sp+0]
	@DEBUG_VALUE: HTTP_CGI_Handler:pcParam <- [DW_OP_plus_uconst 4] [$sp+0]
	.loc	2 679 14                @ ../User/Http/httpd_cgi_ssi.c:679:14
	cbz	r4, .LBB0_216
.Ltmp287:
@ %bb.215:                              @   in Loop: Header=BB0_212 Depth=2
	@DEBUG_VALUE: HTTP_CGI_Handler:i <- $r8
	@DEBUG_VALUE: HTTP_CGI_Handler:first_address <- $r5
	@DEBUG_VALUE: HTTP_CGI_Handler:address_cnt <- $r6
	@DEBUG_VALUE: HTTP_CGI_Handler:x <- $r9
	@DEBUG_VALUE: HTTP_CGI_Handler:pcValue <- [$sp+0]
	@DEBUG_VALUE: HTTP_CGI_Handler:iNumParams <- [DW_OP_plus_uconst 8] [$sp+0]
	@DEBUG_VALUE: HTTP_CGI_Handler:pcParam <- [DW_OP_plus_uconst 4] [$sp+0]
	.loc	2 684 22                @ ../User/Http/httpd_cgi_ssi.c:684:22
	adds	r6, #1
.Ltmp288:
	@DEBUG_VALUE: HTTP_CGI_Handler:address_cnt <- $r6
	.loc	2 0 22 is_stmt 0        @ ../User/Http/httpd_cgi_ssi.c:0:22
	b	.LBB0_217
.Ltmp289:
.LBB0_216:                              @   in Loop: Header=BB0_212 Depth=2
	@DEBUG_VALUE: HTTP_CGI_Handler:i <- $r8
	@DEBUG_VALUE: HTTP_CGI_Handler:first_address <- $r5
	@DEBUG_VALUE: HTTP_CGI_Handler:address_cnt <- $r6
	@DEBUG_VALUE: HTTP_CGI_Handler:x <- $r9
	@DEBUG_VALUE: HTTP_CGI_Handler:pcValue <- [$sp+0]
	@DEBUG_VALUE: HTTP_CGI_Handler:iNumParams <- [DW_OP_plus_uconst 8] [$sp+0]
	@DEBUG_VALUE: HTTP_CGI_Handler:pcParam <- [DW_OP_plus_uconst 4] [$sp+0]
	@DEBUG_VALUE: HTTP_CGI_Handler:address_cnt <- 0
	adds	r5, #1
.Ltmp290:
	@DEBUG_VALUE: HTTP_CGI_Handler:first_address <- $r5
	movs	r6, #0
.Ltmp291:
.LBB0_217:                              @   in Loop: Header=BB0_212 Depth=2
	@DEBUG_VALUE: HTTP_CGI_Handler:i <- $r8
	@DEBUG_VALUE: HTTP_CGI_Handler:first_address <- $r5
	@DEBUG_VALUE: HTTP_CGI_Handler:x <- $r9
	@DEBUG_VALUE: HTTP_CGI_Handler:pcValue <- [$sp+0]
	@DEBUG_VALUE: HTTP_CGI_Handler:iNumParams <- [DW_OP_plus_uconst 8] [$sp+0]
	@DEBUG_VALUE: HTTP_CGI_Handler:pcParam <- [DW_OP_plus_uconst 4] [$sp+0]
	@DEBUG_VALUE: HTTP_CGI_Handler:address_cnt <- $r6
	@DEBUG_VALUE: HTTP_CGI_Handler:first_address <- $r5
	.loc	2 670 27 is_stmt 1      @ ../User/Http/httpd_cgi_ssi.c:670:27
	uxth	r1, r5
	.loc	2 670 5 is_stmt 0       @ ../User/Http/httpd_cgi_ssi.c:670:5
	cmp	r0, r1
	bhs	.LBB0_212
.Ltmp292:
@ %bb.218:                              @   in Loop: Header=BB0_221 Depth=1
	@DEBUG_VALUE: HTTP_CGI_Handler:i <- $r8
	@DEBUG_VALUE: HTTP_CGI_Handler:first_address <- $r5
	@DEBUG_VALUE: HTTP_CGI_Handler:address_cnt <- $r6
	@DEBUG_VALUE: HTTP_CGI_Handler:x <- $r9
	@DEBUG_VALUE: HTTP_CGI_Handler:pcValue <- [$sp+0]
	@DEBUG_VALUE: HTTP_CGI_Handler:iNumParams <- [DW_OP_plus_uconst 8] [$sp+0]
	@DEBUG_VALUE: HTTP_CGI_Handler:pcParam <- [DW_OP_plus_uconst 4] [$sp+0]
	.loc	2 0 5                   @ ../User/Http/httpd_cgi_ssi.c:0:5
	movs	r0, #0
	movs	r4, #0
	adr.w	r6, __arm_cp.0_87
.Ltmp293:
	.loc	2 688 45 is_stmt 1      @ ../User/Http/httpd_cgi_ssi.c:688:45
	strb.w	r0, [lr]
	.loc	2 687 49                @ ../User/Http/httpd_cgi_ssi.c:687:49
	strb.w	r0, [r10]
	.loc	2 690 8                 @ ../User/Http/httpd_cgi_ssi.c:690:8
	lsls	r0, r3, #16
	beq	.LBB0_220
.Ltmp294:
@ %bb.219:                              @   in Loop: Header=BB0_221 Depth=1
	@DEBUG_VALUE: HTTP_CGI_Handler:i <- $r8
	@DEBUG_VALUE: HTTP_CGI_Handler:first_address <- $r5
	@DEBUG_VALUE: HTTP_CGI_Handler:x <- $r9
	@DEBUG_VALUE: HTTP_CGI_Handler:pcValue <- [$sp+0]
	@DEBUG_VALUE: HTTP_CGI_Handler:iNumParams <- [DW_OP_plus_uconst 8] [$sp+0]
	@DEBUG_VALUE: HTTP_CGI_Handler:pcParam <- [DW_OP_plus_uconst 4] [$sp+0]
	.loc	2 693 35                @ ../User/Http/httpd_cgi_ssi.c:693:35
	movw	r0, :lower16:rubicon_file_update_list_cnt
	movs	r1, #99
	movt	r0, :upper16:rubicon_file_update_list_cnt
	.loc	2 692 46                @ ../User/Http/httpd_cgi_ssi.c:692:46
	strb.w	r1, [lr]
	.loc	2 693 35                @ ../User/Http/httpd_cgi_ssi.c:693:35
	strh	r4, [r0]
	.loc	2 694 36                @ ../User/Http/httpd_cgi_ssi.c:694:36
	movw	r0, :lower16:rubicon_image_update_list_cnt
	movt	r0, :upper16:rubicon_image_update_list_cnt
	strh	r4, [r0]
	.loc	2 695 27                @ ../User/Http/httpd_cgi_ssi.c:695:27
	movw	r0, :lower16:rubicon_ctrl_request
	movt	r0, :upper16:rubicon_ctrl_request
	strb	r1, [r0]
.Ltmp295:
.LBB0_220:                              @   in Loop: Header=BB0_221 Depth=1
	@DEBUG_VALUE: HTTP_CGI_Handler:i <- $r8
	@DEBUG_VALUE: HTTP_CGI_Handler:first_address <- $r5
	@DEBUG_VALUE: HTTP_CGI_Handler:x <- $r9
	@DEBUG_VALUE: HTTP_CGI_Handler:pcValue <- [$sp+0]
	@DEBUG_VALUE: HTTP_CGI_Handler:iNumParams <- [DW_OP_plus_uconst 8] [$sp+0]
	@DEBUG_VALUE: HTTP_CGI_Handler:pcParam <- [DW_OP_plus_uconst 4] [$sp+0]
	.loc	2 0 27 is_stmt 0        @ ../User/Http/httpd_cgi_ssi.c:0:27
	adr.w	r10, __arm_cp.0_86
	b	.LBB0_260
.Ltmp296:
.LBB0_221:                              @ =>This Loop Header: Depth=1
                                        @     Child Loop BB0_227 Depth 2
                                        @     Child Loop BB0_231 Depth 2
                                        @     Child Loop BB0_233 Depth 2
                                        @     Child Loop BB0_235 Depth 2
                                        @     Child Loop BB0_237 Depth 2
                                        @     Child Loop BB0_239 Depth 2
                                        @     Child Loop BB0_212 Depth 2
                                        @     Child Loop BB0_254 Depth 2
                                        @     Child Loop BB0_250 Depth 2
                                        @     Child Loop BB0_243 Depth 2
                                        @     Child Loop BB0_245 Depth 2
	@DEBUG_VALUE: HTTP_CGI_Handler:x <- $r9
	@DEBUG_VALUE: HTTP_CGI_Handler:pcValue <- [$sp+0]
	@DEBUG_VALUE: HTTP_CGI_Handler:iNumParams <- [DW_OP_plus_uconst 8] [$sp+0]
	@DEBUG_VALUE: HTTP_CGI_Handler:pcParam <- [DW_OP_plus_uconst 4] [$sp+0]
	@DEBUG_VALUE: HTTP_CGI_Handler:i <- $r8
	@DEBUG_VALUE: HTTP_CGI_Handler:x <- $r9
	.loc	2 595 17 is_stmt 1      @ ../User/Http/httpd_cgi_ssi.c:595:17
	ldr	r0, [sp, #4]            @ 4-byte Reload
	.loc	2 595 8 is_stmt 0       @ ../User/Http/httpd_cgi_ssi.c:595:8
	mov	r1, r10
	movs	r2, #3
	.loc	2 595 17                @ ../User/Http/httpd_cgi_ssi.c:595:17
	ldr.w	r5, [r0, r8, lsl #2]
	.loc	2 595 8                 @ ../User/Http/httpd_cgi_ssi.c:595:8
	mov	r0, r5
	bl	strncmp
.Ltmp297:
	.loc	2 595 8                 @ ../User/Http/httpd_cgi_ssi.c:595:8
	cmp	r0, #0
	beq.w	.LBB0_242
.Ltmp298:
@ %bb.222:                              @   in Loop: Header=BB0_221 Depth=1
	@DEBUG_VALUE: HTTP_CGI_Handler:i <- $r8
	@DEBUG_VALUE: HTTP_CGI_Handler:x <- $r9
	@DEBUG_VALUE: HTTP_CGI_Handler:pcValue <- [$sp+0]
	@DEBUG_VALUE: HTTP_CGI_Handler:iNumParams <- [DW_OP_plus_uconst 8] [$sp+0]
	@DEBUG_VALUE: HTTP_CGI_Handler:pcParam <- [DW_OP_plus_uconst 4] [$sp+0]
	.loc	2 610 13 is_stmt 1      @ ../User/Http/httpd_cgi_ssi.c:610:13
	mov	r0, r5
	mov	r1, r6
	movs	r2, #3
	bl	strncmp
.Ltmp299:
	.loc	2 610 13 is_stmt 0      @ ../User/Http/httpd_cgi_ssi.c:610:13
	cmp	r0, #0
	beq.w	.LBB0_248
.Ltmp300:
@ %bb.223:                              @   in Loop: Header=BB0_221 Depth=1
	@DEBUG_VALUE: HTTP_CGI_Handler:i <- $r8
	@DEBUG_VALUE: HTTP_CGI_Handler:x <- $r9
	@DEBUG_VALUE: HTTP_CGI_Handler:pcValue <- [$sp+0]
	@DEBUG_VALUE: HTTP_CGI_Handler:iNumParams <- [DW_OP_plus_uconst 8] [$sp+0]
	@DEBUG_VALUE: HTTP_CGI_Handler:pcParam <- [DW_OP_plus_uconst 4] [$sp+0]
	.loc	2 622 13 is_stmt 1      @ ../User/Http/httpd_cgi_ssi.c:622:13
	mov	r0, r5
	adr.w	r1, __arm_cp.0_88
	movs	r2, #3
	bl	strncmp
.Ltmp301:
	.loc	2 622 13 is_stmt 0      @ ../User/Http/httpd_cgi_ssi.c:622:13
	cmp	r0, #0
	beq.w	.LBB0_252
.Ltmp302:
@ %bb.224:                              @   in Loop: Header=BB0_221 Depth=1
	@DEBUG_VALUE: HTTP_CGI_Handler:i <- $r8
	@DEBUG_VALUE: HTTP_CGI_Handler:x <- $r9
	@DEBUG_VALUE: HTTP_CGI_Handler:pcValue <- [$sp+0]
	@DEBUG_VALUE: HTTP_CGI_Handler:iNumParams <- [DW_OP_plus_uconst 8] [$sp+0]
	@DEBUG_VALUE: HTTP_CGI_Handler:pcParam <- [DW_OP_plus_uconst 4] [$sp+0]
	.loc	2 634 13 is_stmt 1      @ ../User/Http/httpd_cgi_ssi.c:634:13
	mov	r0, r5
	adr.w	r1, __arm_cp.0_89
	movs	r2, #3
	bl	strncmp
.Ltmp303:
	.loc	2 634 13 is_stmt 0      @ ../User/Http/httpd_cgi_ssi.c:634:13
	cmp	r0, #0
	bne.w	.LBB0_260
.Ltmp304:
@ %bb.225:                              @   in Loop: Header=BB0_221 Depth=1
	@DEBUG_VALUE: HTTP_CGI_Handler:i <- $r8
	@DEBUG_VALUE: HTTP_CGI_Handler:x <- $r9
	@DEBUG_VALUE: HTTP_CGI_Handler:pcValue <- [$sp+0]
	@DEBUG_VALUE: HTTP_CGI_Handler:iNumParams <- [DW_OP_plus_uconst 8] [$sp+0]
	@DEBUG_VALUE: HTTP_CGI_Handler:pcParam <- [DW_OP_plus_uconst 4] [$sp+0]
	@DEBUG_VALUE: HTTP_CGI_Handler:t <- 0
	.loc	2 0 13                  @ ../User/Http/httpd_cgi_ssi.c:0:13
	ldr	r5, [sp]                @ 4-byte Reload
.Ltmp305:
	.loc	2 638 49 is_stmt 1      @ ../User/Http/httpd_cgi_ssi.c:638:49
	cmn.w	r9, #512
	.loc	2 636 7                 @ ../User/Http/httpd_cgi_ssi.c:636:7
	str	r4, [sp, #24]
	beq	.LBB0_229
.Ltmp306:
@ %bb.226:                              @   in Loop: Header=BB0_221 Depth=1
	@DEBUG_VALUE: HTTP_CGI_Handler:i <- $r8
	@DEBUG_VALUE: HTTP_CGI_Handler:x <- $r9
	@DEBUG_VALUE: HTTP_CGI_Handler:pcValue <- [$sp+0]
	@DEBUG_VALUE: HTTP_CGI_Handler:iNumParams <- [DW_OP_plus_uconst 8] [$sp+0]
	@DEBUG_VALUE: HTTP_CGI_Handler:pcParam <- [DW_OP_plus_uconst 4] [$sp+0]
	.loc	2 638 53                @ ../User/Http/httpd_cgi_ssi.c:638:53
	movw	r0, :lower16:rubicon_ctrl_buffer
	addw	r1, r9, #513
	movs	r2, #0
	movt	r0, :upper16:rubicon_ctrl_buffer
	add	r0, r9
.Ltmp307:
.LBB0_227:                              @   Parent Loop BB0_221 Depth=1
                                        @ =>  This Inner Loop Header: Depth=2
	@DEBUG_VALUE: HTTP_CGI_Handler:i <- $r8
	@DEBUG_VALUE: HTTP_CGI_Handler:x <- $r9
	@DEBUG_VALUE: HTTP_CGI_Handler:pcValue <- [$sp+0]
	@DEBUG_VALUE: HTTP_CGI_Handler:iNumParams <- [DW_OP_plus_uconst 8] [$sp+0]
	@DEBUG_VALUE: HTTP_CGI_Handler:pcParam <- [DW_OP_plus_uconst 4] [$sp+0]
	@DEBUG_VALUE: HTTP_CGI_Handler:x <- undef
	ldr.w	r3, [r5, r8, lsl #2]
	ldrb	r6, [r3, r2]
	cbz	r6, .LBB0_229
.Ltmp308:
@ %bb.228:                              @   in Loop: Header=BB0_227 Depth=2
	@DEBUG_VALUE: HTTP_CGI_Handler:i <- $r8
	@DEBUG_VALUE: HTTP_CGI_Handler:pcValue <- [$sp+0]
	@DEBUG_VALUE: HTTP_CGI_Handler:iNumParams <- [DW_OP_plus_uconst 8] [$sp+0]
	@DEBUG_VALUE: HTTP_CGI_Handler:pcParam <- [DW_OP_plus_uconst 4] [$sp+0]
	.loc	2 640 55                @ ../User/Http/httpd_cgi_ssi.c:640:55
	adds	r6, r2, #1
.Ltmp309:
	@DEBUG_VALUE: HTTP_CGI_Handler:t <- $r6
	str	r6, [sp, #24]
	.loc	2 640 43 is_stmt 0      @ ../User/Http/httpd_cgi_ssi.c:640:43
	ldrb	r3, [r3, r2]
	.loc	2 640 31                @ ../User/Http/httpd_cgi_ssi.c:640:31
	strb	r3, [r0, r2]
.Ltmp310:
	@DEBUG_VALUE: HTTP_CGI_Handler:x <- [DW_OP_plus_uconst 1, DW_OP_stack_value] undef
	.loc	2 638 14 is_stmt 1      @ ../User/Http/httpd_cgi_ssi.c:638:14
	add	r2, r1
	.loc	2 638 49 is_stmt 0      @ ../User/Http/httpd_cgi_ssi.c:638:49
	cmp	r6, r2
	mov	r2, r6
.Ltmp311:
	@DEBUG_VALUE: HTTP_CGI_Handler:t <- $r2
	.loc	2 0 49                  @ ../User/Http/httpd_cgi_ssi.c:0:49
	blo	.LBB0_227
.Ltmp312:
.LBB0_229:                              @   in Loop: Header=BB0_221 Depth=1
	@DEBUG_VALUE: HTTP_CGI_Handler:i <- $r8
	@DEBUG_VALUE: HTTP_CGI_Handler:pcValue <- [$sp+0]
	@DEBUG_VALUE: HTTP_CGI_Handler:iNumParams <- [DW_OP_plus_uconst 8] [$sp+0]
	@DEBUG_VALUE: HTTP_CGI_Handler:pcParam <- [DW_OP_plus_uconst 4] [$sp+0]
	@DEBUG_VALUE: HTTP_CGI_Handler:address_cnt <- 0
	movw	r3, :lower16:rubicon_image_update_address_list_size
	movt	r3, :upper16:rubicon_image_update_address_list_size
	.loc	2 644 25 is_stmt 1      @ ../User/Http/httpd_cgi_ssi.c:644:25
	ldrh	r0, [r3]
	cbz	r0, .LBB0_232
.Ltmp313:
@ %bb.230:                              @   in Loop: Header=BB0_221 Depth=1
	@DEBUG_VALUE: HTTP_CGI_Handler:i <- $r8
	@DEBUG_VALUE: HTTP_CGI_Handler:pcValue <- [$sp+0]
	@DEBUG_VALUE: HTTP_CGI_Handler:iNumParams <- [DW_OP_plus_uconst 8] [$sp+0]
	@DEBUG_VALUE: HTTP_CGI_Handler:pcParam <- [DW_OP_plus_uconst 4] [$sp+0]
	.loc	2 0 25 is_stmt 0        @ ../User/Http/httpd_cgi_ssi.c:0:25
	movw	r0, :lower16:rubicon_image_update_address_list
	movs	r1, #0
	movt	r0, :upper16:rubicon_image_update_address_list
	ldr	r0, [r0]
.Ltmp314:
.LBB0_231:                              @   Parent Loop BB0_221 Depth=1
                                        @ =>  This Inner Loop Header: Depth=2
	@DEBUG_VALUE: HTTP_CGI_Handler:i <- $r8
	@DEBUG_VALUE: HTTP_CGI_Handler:pcValue <- [$sp+0]
	@DEBUG_VALUE: HTTP_CGI_Handler:iNumParams <- [DW_OP_plus_uconst 8] [$sp+0]
	@DEBUG_VALUE: HTTP_CGI_Handler:pcParam <- [DW_OP_plus_uconst 4] [$sp+0]
	@DEBUG_VALUE: HTTP_CGI_Handler:address_cnt <- $r1
	.loc	2 644 114               @ ../User/Http/httpd_cgi_ssi.c:644:114
	strh.w	r4, [r0, r1, lsl #1]
	.loc	2 644 110               @ ../User/Http/httpd_cgi_ssi.c:644:110
	adds	r1, #1
.Ltmp315:
	@DEBUG_VALUE: HTTP_CGI_Handler:address_cnt <- [DW_OP_plus_uconst 1, DW_OP_stack_value] undef
	.loc	2 644 25                @ ../User/Http/httpd_cgi_ssi.c:644:25
	ldrh	r2, [r3]
	.loc	2 644 5                 @ ../User/Http/httpd_cgi_ssi.c:644:5
	cmp	r1, r2
	blo	.LBB0_231
.Ltmp316:
.LBB0_232:                              @   in Loop: Header=BB0_221 Depth=1
	@DEBUG_VALUE: HTTP_CGI_Handler:i <- $r8
	@DEBUG_VALUE: HTTP_CGI_Handler:pcValue <- [$sp+0]
	@DEBUG_VALUE: HTTP_CGI_Handler:iNumParams <- [DW_OP_plus_uconst 8] [$sp+0]
	@DEBUG_VALUE: HTTP_CGI_Handler:pcParam <- [DW_OP_plus_uconst 4] [$sp+0]
	@DEBUG_VALUE: HTTP_CGI_Handler:address_cnt <- 0
	.loc	2 646 96 is_stmt 1      @ ../User/Http/httpd_cgi_ssi.c:646:96
	movw	r0, :lower16:rubicon_file_update_list
	movs	r1, #32
	movt	r0, :upper16:rubicon_file_update_list
	bl	__aeabi_memclr
.Ltmp317:
	@DEBUG_VALUE: HTTP_CGI_Handler:address_cnt <- [DW_OP_plus_uconst 1, DW_OP_stack_value] undef
	.loc	2 0 96 is_stmt 0        @ ../User/Http/httpd_cgi_ssi.c:0:96
	movw	r5, :lower16:rubicon_ctrl_buffer
	movt	r5, :upper16:rubicon_ctrl_buffer
	.loc	2 650 18 is_stmt 1      @ ../User/Http/httpd_cgi_ssi.c:650:18
	mov	r0, r5
	adds	r4, r5, #2
	bl	atoi
	mov	r1, r5
	mov	r10, r0
	movs	r5, #0
.Ltmp318:
	@DEBUG_VALUE: HTTP_CGI_Handler:x <- 0
.LBB0_233:                              @   Parent Loop BB0_221 Depth=1
                                        @ =>  This Inner Loop Header: Depth=2
	@DEBUG_VALUE: HTTP_CGI_Handler:i <- $r8
	@DEBUG_VALUE: HTTP_CGI_Handler:pcValue <- [$sp+0]
	@DEBUG_VALUE: HTTP_CGI_Handler:iNumParams <- [DW_OP_plus_uconst 8] [$sp+0]
	@DEBUG_VALUE: HTTP_CGI_Handler:pcParam <- [DW_OP_plus_uconst 4] [$sp+0]
	.loc	2 652 11                @ ../User/Http/httpd_cgi_ssi.c:652:11
	ldrb	r0, [r1, r5]
	.loc	2 0 0 is_stmt 0         @ ../User/Http/httpd_cgi_ssi.c:0:0
	mov	r6, r4
.Ltmp319:
	@DEBUG_VALUE: HTTP_CGI_Handler:x <- $r5
	.loc	2 652 5                 @ ../User/Http/httpd_cgi_ssi.c:652:5
	adds	r4, #1
	.loc	2 0 0                   @ ../User/Http/httpd_cgi_ssi.c:0:0
	adds	r5, #1
.Ltmp320:
	@DEBUG_VALUE: HTTP_CGI_Handler:x <- $r5
	.loc	2 652 5                 @ ../User/Http/httpd_cgi_ssi.c:652:5
	cmp	r0, #0
	bne	.LBB0_233
.Ltmp321:
@ %bb.234:                              @   in Loop: Header=BB0_221 Depth=1
	@DEBUG_VALUE: HTTP_CGI_Handler:x <- $r5
	@DEBUG_VALUE: HTTP_CGI_Handler:i <- $r8
	@DEBUG_VALUE: HTTP_CGI_Handler:pcValue <- [$sp+0]
	@DEBUG_VALUE: HTTP_CGI_Handler:iNumParams <- [DW_OP_plus_uconst 8] [$sp+0]
	@DEBUG_VALUE: HTTP_CGI_Handler:pcParam <- [DW_OP_plus_uconst 4] [$sp+0]
	.loc	2 654 17 is_stmt 1      @ ../User/Http/httpd_cgi_ssi.c:654:17
	adds	r0, r1, r5
	bl	atoi
	movw	r1, :lower16:rubicon_ctrl_buffer
	mov	r4, r0
	movt	r1, :upper16:rubicon_ctrl_buffer
.Ltmp322:
.LBB0_235:                              @   Parent Loop BB0_221 Depth=1
                                        @ =>  This Inner Loop Header: Depth=2
	@DEBUG_VALUE: HTTP_CGI_Handler:x <- $r5
	@DEBUG_VALUE: HTTP_CGI_Handler:i <- $r8
	@DEBUG_VALUE: HTTP_CGI_Handler:pcValue <- [$sp+0]
	@DEBUG_VALUE: HTTP_CGI_Handler:iNumParams <- [DW_OP_plus_uconst 8] [$sp+0]
	@DEBUG_VALUE: HTTP_CGI_Handler:pcParam <- [DW_OP_plus_uconst 4] [$sp+0]
	.loc	2 655 11                @ ../User/Http/httpd_cgi_ssi.c:655:11
	ldrb	r0, [r1, r5]
	.loc	2 0 0 is_stmt 0         @ ../User/Http/httpd_cgi_ssi.c:0:0
	mov	r9, r6
	@DEBUG_VALUE: HTTP_CGI_Handler:x <- $r5
	.loc	2 655 5                 @ ../User/Http/httpd_cgi_ssi.c:655:5
	adds	r6, #1
	.loc	2 0 0                   @ ../User/Http/httpd_cgi_ssi.c:0:0
	adds	r5, #1
.Ltmp323:
	@DEBUG_VALUE: HTTP_CGI_Handler:x <- $r5
	.loc	2 655 5                 @ ../User/Http/httpd_cgi_ssi.c:655:5
	cmp	r0, #0
	bne	.LBB0_235
.Ltmp324:
@ %bb.236:                              @   in Loop: Header=BB0_221 Depth=1
	@DEBUG_VALUE: HTTP_CGI_Handler:x <- $r5
	@DEBUG_VALUE: HTTP_CGI_Handler:i <- $r8
	@DEBUG_VALUE: HTTP_CGI_Handler:pcValue <- [$sp+0]
	@DEBUG_VALUE: HTTP_CGI_Handler:iNumParams <- [DW_OP_plus_uconst 8] [$sp+0]
	@DEBUG_VALUE: HTTP_CGI_Handler:pcParam <- [DW_OP_plus_uconst 4] [$sp+0]
	.loc	2 657 21 is_stmt 1      @ ../User/Http/httpd_cgi_ssi.c:657:21
	adds	r0, r1, r5
	bl	atoi
	mov	r5, r0
.Ltmp325:
.LBB0_237:                              @   Parent Loop BB0_221 Depth=1
                                        @ =>  This Inner Loop Header: Depth=2
	@DEBUG_VALUE: HTTP_CGI_Handler:i <- $r8
	@DEBUG_VALUE: HTTP_CGI_Handler:pcValue <- [$sp+0]
	@DEBUG_VALUE: HTTP_CGI_Handler:iNumParams <- [DW_OP_plus_uconst 8] [$sp+0]
	@DEBUG_VALUE: HTTP_CGI_Handler:pcParam <- [DW_OP_plus_uconst 4] [$sp+0]
	@DEBUG_VALUE: HTTP_CGI_Handler:x <- undef
	.loc	2 658 11                @ ../User/Http/httpd_cgi_ssi.c:658:11
	ldrb	r0, [r9], #1
.Ltmp326:
	@DEBUG_VALUE: HTTP_CGI_Handler:x <- [DW_OP_plus_uconst 1, DW_OP_stack_value] undef
	.loc	2 658 5 is_stmt 0       @ ../User/Http/httpd_cgi_ssi.c:658:5
	cmp	r0, #0
	bne	.LBB0_237
.Ltmp327:
@ %bb.238:                              @   in Loop: Header=BB0_221 Depth=1
	@DEBUG_VALUE: HTTP_CGI_Handler:i <- $r8
	@DEBUG_VALUE: HTTP_CGI_Handler:pcValue <- [$sp+0]
	@DEBUG_VALUE: HTTP_CGI_Handler:iNumParams <- [DW_OP_plus_uconst 8] [$sp+0]
	@DEBUG_VALUE: HTTP_CGI_Handler:pcParam <- [DW_OP_plus_uconst 4] [$sp+0]
	.loc	2 660 20 is_stmt 1      @ ../User/Http/httpd_cgi_ssi.c:660:20
	mov	r0, r9
	bl	atoi
	movw	r3, :lower16:rubicon_file_update_list
	.loc	2 663 25                @ ../User/Http/httpd_cgi_ssi.c:663:25
	uxtb	r1, r4
.Ltmp328:
	@DEBUG_VALUE: HTTP_CGI_Handler:x <- 0
	.loc	2 663 11 is_stmt 0      @ ../User/Http/httpd_cgi_ssi.c:663:11
	uxtb.w	r2, r10
	mov.w	r9, #0
.Ltmp329:
	@DEBUG_VALUE: HTTP_CGI_Handler:first_file <- undef
	.loc	2 663 5                 @ ../User/Http/httpd_cgi_ssi.c:663:5
	cmp	r1, r2
	movt	r3, :upper16:rubicon_file_update_list
	blo	.LBB0_240
.Ltmp330:
.LBB0_239:                              @   Parent Loop BB0_221 Depth=1
                                        @ =>  This Inner Loop Header: Depth=2
	@DEBUG_VALUE: HTTP_CGI_Handler:i <- $r8
	@DEBUG_VALUE: HTTP_CGI_Handler:pcValue <- [$sp+0]
	@DEBUG_VALUE: HTTP_CGI_Handler:iNumParams <- [DW_OP_plus_uconst 8] [$sp+0]
	@DEBUG_VALUE: HTTP_CGI_Handler:pcParam <- [DW_OP_plus_uconst 4] [$sp+0]
	@DEBUG_VALUE: HTTP_CGI_Handler:x <- $r9
	@DEBUG_VALUE: HTTP_CGI_Handler:first_file <- $r10
	.loc	2 665 36 is_stmt 1      @ ../User/Http/httpd_cgi_ssi.c:665:36
	strb.w	r10, [r3, r9]
	.loc	2 665 48 is_stmt 0      @ ../User/Http/httpd_cgi_ssi.c:665:48
	add.w	r10, r10, #1
.Ltmp331:
	@DEBUG_VALUE: HTTP_CGI_Handler:first_file <- $r10
	.loc	2 665 32                @ ../User/Http/httpd_cgi_ssi.c:665:32
	add.w	r9, r9, #1
.Ltmp332:
	@DEBUG_VALUE: HTTP_CGI_Handler:x <- $r9
	.loc	2 663 11 is_stmt 1      @ ../User/Http/httpd_cgi_ssi.c:663:11
	uxtb.w	r2, r10
	.loc	2 663 5 is_stmt 0       @ ../User/Http/httpd_cgi_ssi.c:663:5
	cmp	r1, r2
	bhs	.LBB0_239
.Ltmp333:
.LBB0_240:                              @   in Loop: Header=BB0_221 Depth=1
	@DEBUG_VALUE: HTTP_CGI_Handler:i <- $r8
	@DEBUG_VALUE: HTTP_CGI_Handler:pcValue <- [$sp+0]
	@DEBUG_VALUE: HTTP_CGI_Handler:iNumParams <- [DW_OP_plus_uconst 8] [$sp+0]
	@DEBUG_VALUE: HTTP_CGI_Handler:pcParam <- [DW_OP_plus_uconst 4] [$sp+0]
	@DEBUG_VALUE: HTTP_CGI_Handler:x <- $r9
	.loc	2 668 35 is_stmt 1      @ ../User/Http/httpd_cgi_ssi.c:668:35
	movw	r1, :lower16:rubicon_image_update_list_cnt
	movs	r4, #0
	.loc	2 670 11                @ ../User/Http/httpd_cgi_ssi.c:670:11
	uxth	r0, r0
	.loc	2 668 35                @ ../User/Http/httpd_cgi_ssi.c:668:35
	movt	r1, :upper16:rubicon_image_update_list_cnt
	strh	r4, [r1]
.Ltmp334:
	@DEBUG_VALUE: HTTP_CGI_Handler:address_cnt <- 0
	.loc	2 670 27                @ ../User/Http/httpd_cgi_ssi.c:670:27
	uxth	r1, r5
	.loc	2 670 5 is_stmt 0       @ ../User/Http/httpd_cgi_ssi.c:670:5
	cmp	r0, r1
	bhs.w	.LBB0_211
.Ltmp335:
@ %bb.241:                              @   in Loop: Header=BB0_221 Depth=1
	@DEBUG_VALUE: HTTP_CGI_Handler:i <- $r8
	@DEBUG_VALUE: HTTP_CGI_Handler:x <- $r9
	@DEBUG_VALUE: HTTP_CGI_Handler:pcValue <- [$sp+0]
	@DEBUG_VALUE: HTTP_CGI_Handler:iNumParams <- [DW_OP_plus_uconst 8] [$sp+0]
	@DEBUG_VALUE: HTTP_CGI_Handler:pcParam <- [DW_OP_plus_uconst 4] [$sp+0]
	.loc	2 688 45 is_stmt 1      @ ../User/Http/httpd_cgi_ssi.c:688:45
	movw	r0, :lower16:RUBICON_FileUpdatePacket
	adr.w	r10, __arm_cp.0_86
	adr.w	r6, __arm_cp.0_87
	movt	r0, :upper16:RUBICON_FileUpdatePacket
	strb	r4, [r0]
	.loc	2 687 49                @ ../User/Http/httpd_cgi_ssi.c:687:49
	movw	r0, :lower16:RUBICON_FirmwareUpdatePacket
	movt	r0, :upper16:RUBICON_FirmwareUpdatePacket
	strb	r4, [r0]
	b	.LBB0_260
.Ltmp336:
.LBB0_242:                              @   in Loop: Header=BB0_221 Depth=1
	@DEBUG_VALUE: HTTP_CGI_Handler:i <- $r8
	@DEBUG_VALUE: HTTP_CGI_Handler:x <- $r9
	@DEBUG_VALUE: HTTP_CGI_Handler:pcValue <- [$sp+0]
	@DEBUG_VALUE: HTTP_CGI_Handler:iNumParams <- [DW_OP_plus_uconst 8] [$sp+0]
	@DEBUG_VALUE: HTTP_CGI_Handler:pcParam <- [DW_OP_plus_uconst 4] [$sp+0]
	.loc	2 0 49 is_stmt 0        @ ../User/Http/httpd_cgi_ssi.c:0:49
	movw	r3, :lower16:rubicon_ctrl_buffer
	movt	r3, :upper16:rubicon_ctrl_buffer
	mov	r0, r3
.Ltmp337:
	.loc	2 597 14 is_stmt 1      @ ../User/Http/httpd_cgi_ssi.c:597:14
	str	r3, [r7]
.Ltmp338:
	.p2align	2
.LBB0_243:                              @   Parent Loop BB0_221 Depth=1
                                        @ =>  This Inner Loop Header: Depth=2
	@DEBUG_VALUE: HTTP_CGI_Handler:i <- $r8
	@DEBUG_VALUE: HTTP_CGI_Handler:x <- $r9
	@DEBUG_VALUE: HTTP_CGI_Handler:pcValue <- [$sp+0]
	@DEBUG_VALUE: HTTP_CGI_Handler:iNumParams <- [DW_OP_plus_uconst 8] [$sp+0]
	@DEBUG_VALUE: HTTP_CGI_Handler:pcParam <- [DW_OP_plus_uconst 4] [$sp+0]
	.loc	2 598 82                @ ../User/Http/httpd_cgi_ssi.c:598:82
	adds	r1, r0, #1
	str	r1, [r7]
	.loc	2 598 85 is_stmt 0      @ ../User/Http/httpd_cgi_ssi.c:598:85
	strb	r4, [r0]
	.loc	2 598 11                @ ../User/Http/httpd_cgi_ssi.c:598:11
	ldr	r0, [r7]
	.loc	2 598 5                 @ ../User/Http/httpd_cgi_ssi.c:598:5
	cmp	r0, r11
	blo	.LBB0_243
.Ltmp339:
@ %bb.244:                              @   in Loop: Header=BB0_221 Depth=1
	@DEBUG_VALUE: HTTP_CGI_Handler:i <- $r8
	@DEBUG_VALUE: HTTP_CGI_Handler:x <- $r9
	@DEBUG_VALUE: HTTP_CGI_Handler:pcValue <- [$sp+0]
	@DEBUG_VALUE: HTTP_CGI_Handler:iNumParams <- [DW_OP_plus_uconst 8] [$sp+0]
	@DEBUG_VALUE: HTTP_CGI_Handler:pcParam <- [DW_OP_plus_uconst 4] [$sp+0]
	.loc	2 0 5                   @ ../User/Http/httpd_cgi_ssi.c:0:5
	ldr	r2, [sp]                @ 4-byte Reload
	movs	r0, #0
.Ltmp340:
	@DEBUG_VALUE: HTTP_CGI_Handler:x <- 0
	.p2align	2
.LBB0_245:                              @   Parent Loop BB0_221 Depth=1
                                        @ =>  This Inner Loop Header: Depth=2
	@DEBUG_VALUE: HTTP_CGI_Handler:i <- $r8
	@DEBUG_VALUE: HTTP_CGI_Handler:pcValue <- [$sp+0]
	@DEBUG_VALUE: HTTP_CGI_Handler:iNumParams <- [DW_OP_plus_uconst 8] [$sp+0]
	@DEBUG_VALUE: HTTP_CGI_Handler:pcParam <- [DW_OP_plus_uconst 4] [$sp+0]
	@DEBUG_VALUE: HTTP_CGI_Handler:x <- $r0
	.loc	2 601 49 is_stmt 1      @ ../User/Http/httpd_cgi_ssi.c:601:49
	ldr.w	r1, [r2, r8, lsl #2]
	ldrb	r1, [r1, r0]
	cbz	r1, .LBB0_247
.Ltmp341:
@ %bb.246:                              @   in Loop: Header=BB0_245 Depth=2
	@DEBUG_VALUE: HTTP_CGI_Handler:i <- $r8
	@DEBUG_VALUE: HTTP_CGI_Handler:x <- $r0
	@DEBUG_VALUE: HTTP_CGI_Handler:pcValue <- [$sp+0]
	@DEBUG_VALUE: HTTP_CGI_Handler:iNumParams <- [DW_OP_plus_uconst 8] [$sp+0]
	@DEBUG_VALUE: HTTP_CGI_Handler:pcParam <- [DW_OP_plus_uconst 4] [$sp+0]
	.loc	2 603 29                @ ../User/Http/httpd_cgi_ssi.c:603:29
	strb	r1, [r3, r0]
	.loc	2 604 7                 @ ../User/Http/httpd_cgi_ssi.c:604:7
	adds	r0, #1
.Ltmp342:
	@DEBUG_VALUE: HTTP_CGI_Handler:x <- $r0
	.loc	2 601 45                @ ../User/Http/httpd_cgi_ssi.c:601:45
	cmp.w	r0, #512
	blo	.LBB0_245
.Ltmp343:
.LBB0_247:                              @   in Loop: Header=BB0_221 Depth=1
	@DEBUG_VALUE: HTTP_CGI_Handler:i <- $r8
	@DEBUG_VALUE: HTTP_CGI_Handler:x <- $r0
	@DEBUG_VALUE: HTTP_CGI_Handler:pcValue <- [$sp+0]
	@DEBUG_VALUE: HTTP_CGI_Handler:iNumParams <- [DW_OP_plus_uconst 8] [$sp+0]
	@DEBUG_VALUE: HTTP_CGI_Handler:pcParam <- [DW_OP_plus_uconst 4] [$sp+0]
	@DEBUG_VALUE: HTTP_CGI_Handler:x <- $r0
	.loc	2 607 28                @ ../User/Http/httpd_cgi_ssi.c:607:28
	strb	r4, [r3, r0]
	.loc	2 608 6                 @ ../User/Http/httpd_cgi_ssi.c:608:6
	add.w	r9, r0, #1
.Ltmp344:
	@DEBUG_VALUE: HTTP_CGI_Handler:x <- $r9
	.loc	2 0 6 is_stmt 0         @ ../User/Http/httpd_cgi_ssi.c:0:6
	b	.LBB0_260
.Ltmp345:
.LBB0_248:                              @   in Loop: Header=BB0_221 Depth=1
	@DEBUG_VALUE: HTTP_CGI_Handler:i <- $r8
	@DEBUG_VALUE: HTTP_CGI_Handler:x <- $r9
	@DEBUG_VALUE: HTTP_CGI_Handler:pcValue <- [$sp+0]
	@DEBUG_VALUE: HTTP_CGI_Handler:iNumParams <- [DW_OP_plus_uconst 8] [$sp+0]
	@DEBUG_VALUE: HTTP_CGI_Handler:pcParam <- [DW_OP_plus_uconst 4] [$sp+0]
	@DEBUG_VALUE: HTTP_CGI_Handler:t <- 0
	movw	r0, #65024
	ldr	r5, [sp]                @ 4-byte Reload
.Ltmp346:
	.loc	2 614 49 is_stmt 1      @ ../User/Http/httpd_cgi_ssi.c:614:49
	cmn.w	r9, #512
	.loc	2 612 7                 @ ../User/Http/httpd_cgi_ssi.c:612:7
	str	r4, [sp, #24]
.Ltmp347:
	.loc	2 0 0 is_stmt 0         @ ../User/Http/httpd_cgi_ssi.c:0:0
	movt	r0, #65535
.Ltmp348:
	.loc	2 614 49 is_stmt 1      @ ../User/Http/httpd_cgi_ssi.c:614:49
	beq	.LBB0_259
.Ltmp349:
@ %bb.249:                              @   in Loop: Header=BB0_221 Depth=1
	@DEBUG_VALUE: HTTP_CGI_Handler:i <- $r8
	@DEBUG_VALUE: HTTP_CGI_Handler:x <- $r9
	@DEBUG_VALUE: HTTP_CGI_Handler:pcValue <- [$sp+0]
	@DEBUG_VALUE: HTTP_CGI_Handler:iNumParams <- [DW_OP_plus_uconst 8] [$sp+0]
	@DEBUG_VALUE: HTTP_CGI_Handler:pcParam <- [DW_OP_plus_uconst 4] [$sp+0]
	.loc	2 614 53 is_stmt 0      @ ../User/Http/httpd_cgi_ssi.c:614:53
	movw	r0, :lower16:rubicon_ctrl_buffer
	.loc	2 614 14                @ ../User/Http/httpd_cgi_ssi.c:614:14
	addw	r1, r9, #513
	movs	r2, #0
	.loc	2 614 53                @ ../User/Http/httpd_cgi_ssi.c:614:53
	movt	r0, :upper16:rubicon_ctrl_buffer
	add	r0, r9
.Ltmp350:
.LBB0_250:                              @   Parent Loop BB0_221 Depth=1
                                        @ =>  This Inner Loop Header: Depth=2
	@DEBUG_VALUE: HTTP_CGI_Handler:i <- $r8
	@DEBUG_VALUE: HTTP_CGI_Handler:x <- $r9
	@DEBUG_VALUE: HTTP_CGI_Handler:pcValue <- [$sp+0]
	@DEBUG_VALUE: HTTP_CGI_Handler:iNumParams <- [DW_OP_plus_uconst 8] [$sp+0]
	@DEBUG_VALUE: HTTP_CGI_Handler:pcParam <- [DW_OP_plus_uconst 4] [$sp+0]
	@DEBUG_VALUE: HTTP_CGI_Handler:x <- undef
	ldr.w	r6, [r5, r8, lsl #2]
	ldrb	r3, [r6, r2]
	.loc	2 614 5                 @ ../User/Http/httpd_cgi_ssi.c:614:5
	cbz	r3, .LBB0_257
.Ltmp351:
@ %bb.251:                              @   in Loop: Header=BB0_250 Depth=2
	@DEBUG_VALUE: HTTP_CGI_Handler:i <- $r8
	@DEBUG_VALUE: HTTP_CGI_Handler:pcValue <- [$sp+0]
	@DEBUG_VALUE: HTTP_CGI_Handler:iNumParams <- [DW_OP_plus_uconst 8] [$sp+0]
	@DEBUG_VALUE: HTTP_CGI_Handler:pcParam <- [DW_OP_plus_uconst 4] [$sp+0]
	.loc	2 616 55 is_stmt 1      @ ../User/Http/httpd_cgi_ssi.c:616:55
	adds	r3, r2, #1
.Ltmp352:
	@DEBUG_VALUE: HTTP_CGI_Handler:t <- $r3
	str	r3, [sp, #24]
	.loc	2 616 43 is_stmt 0      @ ../User/Http/httpd_cgi_ssi.c:616:43
	ldrb	r6, [r6, r2]
	.loc	2 616 31                @ ../User/Http/httpd_cgi_ssi.c:616:31
	strb	r6, [r0, r2]
.Ltmp353:
	@DEBUG_VALUE: HTTP_CGI_Handler:x <- [DW_OP_plus_uconst 1, DW_OP_stack_value] undef
	.loc	2 614 14 is_stmt 1      @ ../User/Http/httpd_cgi_ssi.c:614:14
	add	r2, r1
	.loc	2 614 49 is_stmt 0      @ ../User/Http/httpd_cgi_ssi.c:614:49
	cmp	r3, r2
	mov	r2, r3
	blo	.LBB0_250
	b	.LBB0_256
.Ltmp354:
.LBB0_252:                              @   in Loop: Header=BB0_221 Depth=1
	@DEBUG_VALUE: HTTP_CGI_Handler:i <- $r8
	@DEBUG_VALUE: HTTP_CGI_Handler:x <- $r9
	@DEBUG_VALUE: HTTP_CGI_Handler:pcValue <- [$sp+0]
	@DEBUG_VALUE: HTTP_CGI_Handler:iNumParams <- [DW_OP_plus_uconst 8] [$sp+0]
	@DEBUG_VALUE: HTTP_CGI_Handler:pcParam <- [DW_OP_plus_uconst 4] [$sp+0]
	@DEBUG_VALUE: HTTP_CGI_Handler:t <- 0
	.loc	2 0 0                   @ ../User/Http/httpd_cgi_ssi.c:0:0
	movw	r0, #65024
	ldr	r5, [sp]                @ 4-byte Reload
.Ltmp355:
	.loc	2 626 49 is_stmt 1      @ ../User/Http/httpd_cgi_ssi.c:626:49
	cmn.w	r9, #512
	.loc	2 624 7                 @ ../User/Http/httpd_cgi_ssi.c:624:7
	str	r4, [sp, #24]
.Ltmp356:
	.loc	2 0 0 is_stmt 0         @ ../User/Http/httpd_cgi_ssi.c:0:0
	movt	r0, #65535
.Ltmp357:
	.loc	2 626 49 is_stmt 1      @ ../User/Http/httpd_cgi_ssi.c:626:49
	beq	.LBB0_259
.Ltmp358:
@ %bb.253:                              @   in Loop: Header=BB0_221 Depth=1
	@DEBUG_VALUE: HTTP_CGI_Handler:i <- $r8
	@DEBUG_VALUE: HTTP_CGI_Handler:x <- $r9
	@DEBUG_VALUE: HTTP_CGI_Handler:pcValue <- [$sp+0]
	@DEBUG_VALUE: HTTP_CGI_Handler:iNumParams <- [DW_OP_plus_uconst 8] [$sp+0]
	@DEBUG_VALUE: HTTP_CGI_Handler:pcParam <- [DW_OP_plus_uconst 4] [$sp+0]
	.loc	2 626 53 is_stmt 0      @ ../User/Http/httpd_cgi_ssi.c:626:53
	movw	r0, :lower16:rubicon_ctrl_buffer
	.loc	2 626 14                @ ../User/Http/httpd_cgi_ssi.c:626:14
	addw	r1, r9, #513
	movs	r2, #0
	.loc	2 626 53                @ ../User/Http/httpd_cgi_ssi.c:626:53
	movt	r0, :upper16:rubicon_ctrl_buffer
	add	r0, r9
.Ltmp359:
.LBB0_254:                              @   Parent Loop BB0_221 Depth=1
                                        @ =>  This Inner Loop Header: Depth=2
	@DEBUG_VALUE: HTTP_CGI_Handler:i <- $r8
	@DEBUG_VALUE: HTTP_CGI_Handler:x <- $r9
	@DEBUG_VALUE: HTTP_CGI_Handler:pcValue <- [$sp+0]
	@DEBUG_VALUE: HTTP_CGI_Handler:iNumParams <- [DW_OP_plus_uconst 8] [$sp+0]
	@DEBUG_VALUE: HTTP_CGI_Handler:pcParam <- [DW_OP_plus_uconst 4] [$sp+0]
	@DEBUG_VALUE: HTTP_CGI_Handler:x <- undef
	ldr.w	r6, [r5, r8, lsl #2]
	ldrb	r3, [r6, r2]
	.loc	2 626 5                 @ ../User/Http/httpd_cgi_ssi.c:626:5
	cbz	r3, .LBB0_257
.Ltmp360:
@ %bb.255:                              @   in Loop: Header=BB0_254 Depth=2
	@DEBUG_VALUE: HTTP_CGI_Handler:i <- $r8
	@DEBUG_VALUE: HTTP_CGI_Handler:pcValue <- [$sp+0]
	@DEBUG_VALUE: HTTP_CGI_Handler:iNumParams <- [DW_OP_plus_uconst 8] [$sp+0]
	@DEBUG_VALUE: HTTP_CGI_Handler:pcParam <- [DW_OP_plus_uconst 4] [$sp+0]
	.loc	2 628 55 is_stmt 1      @ ../User/Http/httpd_cgi_ssi.c:628:55
	adds	r3, r2, #1
.Ltmp361:
	@DEBUG_VALUE: HTTP_CGI_Handler:t <- $r3
	str	r3, [sp, #24]
	.loc	2 628 43 is_stmt 0      @ ../User/Http/httpd_cgi_ssi.c:628:43
	ldrb	r6, [r6, r2]
	.loc	2 628 31                @ ../User/Http/httpd_cgi_ssi.c:628:31
	strb	r6, [r0, r2]
.Ltmp362:
	@DEBUG_VALUE: HTTP_CGI_Handler:x <- [DW_OP_plus_uconst 1, DW_OP_stack_value] undef
	.loc	2 626 14 is_stmt 1      @ ../User/Http/httpd_cgi_ssi.c:626:14
	add	r2, r1
	.loc	2 626 49 is_stmt 0      @ ../User/Http/httpd_cgi_ssi.c:626:49
	cmp	r3, r2
	mov	r2, r3
	blo	.LBB0_254
.Ltmp363:
.LBB0_256:                              @   in Loop: Header=BB0_221 Depth=1
	@DEBUG_VALUE: HTTP_CGI_Handler:i <- $r8
	@DEBUG_VALUE: HTTP_CGI_Handler:t <- $r3
	@DEBUG_VALUE: HTTP_CGI_Handler:pcValue <- [$sp+0]
	@DEBUG_VALUE: HTTP_CGI_Handler:iNumParams <- [DW_OP_plus_uconst 8] [$sp+0]
	@DEBUG_VALUE: HTTP_CGI_Handler:pcParam <- [DW_OP_plus_uconst 4] [$sp+0]
	.loc	2 0 0                   @ ../User/Http/httpd_cgi_ssi.c:0:0
	add.w	r0, r9, r3
	b	.LBB0_258
.Ltmp364:
.LBB0_257:                              @   in Loop: Header=BB0_221 Depth=1
	@DEBUG_VALUE: HTTP_CGI_Handler:i <- $r8
	@DEBUG_VALUE: HTTP_CGI_Handler:pcValue <- [$sp+0]
	@DEBUG_VALUE: HTTP_CGI_Handler:iNumParams <- [DW_OP_plus_uconst 8] [$sp+0]
	@DEBUG_VALUE: HTTP_CGI_Handler:pcParam <- [DW_OP_plus_uconst 4] [$sp+0]
	add.w	r0, r9, r2
.Ltmp365:
.LBB0_258:                              @   in Loop: Header=BB0_221 Depth=1
	@DEBUG_VALUE: HTTP_CGI_Handler:i <- $r8
	@DEBUG_VALUE: HTTP_CGI_Handler:pcValue <- [$sp+0]
	@DEBUG_VALUE: HTTP_CGI_Handler:iNumParams <- [DW_OP_plus_uconst 8] [$sp+0]
	@DEBUG_VALUE: HTTP_CGI_Handler:pcParam <- [DW_OP_plus_uconst 4] [$sp+0]
	adr.w	r6, __arm_cp.0_87
.Ltmp366:
.LBB0_259:                              @   in Loop: Header=BB0_221 Depth=1
	@DEBUG_VALUE: HTTP_CGI_Handler:i <- $r8
	@DEBUG_VALUE: HTTP_CGI_Handler:pcValue <- [$sp+0]
	@DEBUG_VALUE: HTTP_CGI_Handler:iNumParams <- [DW_OP_plus_uconst 8] [$sp+0]
	@DEBUG_VALUE: HTTP_CGI_Handler:pcParam <- [DW_OP_plus_uconst 4] [$sp+0]
	@DEBUG_VALUE: HTTP_CGI_Handler:x <- $r0
	movw	r1, :lower16:rubicon_ctrl_buffer
	add.w	r9, r0, #1
.Ltmp367:
	@DEBUG_VALUE: HTTP_CGI_Handler:x <- $r9
	movt	r1, :upper16:rubicon_ctrl_buffer
	strb	r4, [r1, r0]
.Ltmp368:
.LBB0_260:                              @   in Loop: Header=BB0_221 Depth=1
	@DEBUG_VALUE: HTTP_CGI_Handler:i <- $r8
	@DEBUG_VALUE: HTTP_CGI_Handler:x <- $r9
	@DEBUG_VALUE: HTTP_CGI_Handler:pcValue <- [$sp+0]
	@DEBUG_VALUE: HTTP_CGI_Handler:iNumParams <- [DW_OP_plus_uconst 8] [$sp+0]
	@DEBUG_VALUE: HTTP_CGI_Handler:pcParam <- [DW_OP_plus_uconst 4] [$sp+0]
	@DEBUG_VALUE: HTTP_CGI_Handler:x <- $r9
	.loc	2 593 3 is_stmt 1       @ ../User/Http/httpd_cgi_ssi.c:593:3
	ldr	r0, [sp, #8]            @ 4-byte Reload
.Ltmp369:
	.loc	2 593 32 is_stmt 0      @ ../User/Http/httpd_cgi_ssi.c:593:32
	add.w	r8, r8, #1
.Ltmp370:
	@DEBUG_VALUE: HTTP_CGI_Handler:i <- $r8
	.loc	2 593 3                 @ ../User/Http/httpd_cgi_ssi.c:593:3
	cmp	r8, r0
	bne.w	.LBB0_221
.Ltmp371:
@ %bb.261:
	@DEBUG_VALUE: HTTP_CGI_Handler:i <- $r8
	@DEBUG_VALUE: HTTP_CGI_Handler:x <- $r9
	@DEBUG_VALUE: HTTP_CGI_Handler:pcValue <- [$sp+0]
	@DEBUG_VALUE: HTTP_CGI_Handler:iNumParams <- [DW_OP_plus_uconst 8] [$sp+0]
	@DEBUG_VALUE: HTTP_CGI_Handler:pcParam <- [DW_OP_plus_uconst 4] [$sp+0]
	@DEBUG_VALUE: HTTP_CGI_Handler:i <- 0
	.loc	2 702 3 is_stmt 1       @ ../User/Http/httpd_cgi_ssi.c:702:3
	ldr	r0, [sp, #8]            @ 4-byte Reload
	cmp	r0, #0
	beq.w	.LBB0_3
.Ltmp372:
@ %bb.262:
	@DEBUG_VALUE: HTTP_CGI_Handler:x <- $r9
	@DEBUG_VALUE: HTTP_CGI_Handler:pcValue <- [$sp+0]
	@DEBUG_VALUE: HTTP_CGI_Handler:iNumParams <- [DW_OP_plus_uconst 8] [$sp+0]
	@DEBUG_VALUE: HTTP_CGI_Handler:pcParam <- [DW_OP_plus_uconst 4] [$sp+0]
	.loc	2 0 3 is_stmt 0         @ ../User/Http/httpd_cgi_ssi.c:0:3
	movs	r6, #0
	adr.w	r8, __arm_cp.0_90
	adr.w	r5, __arm_cp.0_91
	mov.w	r10, #0
.Ltmp373:
.LBB0_263:                              @ =>This Loop Header: Depth=1
                                        @     Child Loop BB0_267 Depth 2
                                        @     Child Loop BB0_271 Depth 2
                                        @     Child Loop BB0_273 Depth 2
	@DEBUG_VALUE: HTTP_CGI_Handler:x <- $r9
	@DEBUG_VALUE: HTTP_CGI_Handler:pcValue <- [$sp+0]
	@DEBUG_VALUE: HTTP_CGI_Handler:iNumParams <- [DW_OP_plus_uconst 8] [$sp+0]
	@DEBUG_VALUE: HTTP_CGI_Handler:pcParam <- [DW_OP_plus_uconst 4] [$sp+0]
	@DEBUG_VALUE: HTTP_CGI_Handler:i <- $r10
	@DEBUG_VALUE: HTTP_CGI_Handler:x <- $r9
	.loc	2 704 15 is_stmt 1      @ ../User/Http/httpd_cgi_ssi.c:704:15
	ldr	r0, [sp, #4]            @ 4-byte Reload
	.loc	2 704 8 is_stmt 0       @ ../User/Http/httpd_cgi_ssi.c:704:8
	mov	r1, r8
	.loc	2 704 15                @ ../User/Http/httpd_cgi_ssi.c:704:15
	ldr.w	r4, [r0, r10, lsl #2]
	.loc	2 704 8                 @ ../User/Http/httpd_cgi_ssi.c:704:8
	mov	r0, r4
	bl	strcmp
	cbz	r0, .LBB0_270
.Ltmp374:
@ %bb.264:                              @   in Loop: Header=BB0_263 Depth=1
	@DEBUG_VALUE: HTTP_CGI_Handler:i <- $r10
	@DEBUG_VALUE: HTTP_CGI_Handler:x <- $r9
	@DEBUG_VALUE: HTTP_CGI_Handler:pcValue <- [$sp+0]
	@DEBUG_VALUE: HTTP_CGI_Handler:iNumParams <- [DW_OP_plus_uconst 8] [$sp+0]
	@DEBUG_VALUE: HTTP_CGI_Handler:pcParam <- [DW_OP_plus_uconst 4] [$sp+0]
	.loc	2 718 13 is_stmt 1      @ ../User/Http/httpd_cgi_ssi.c:718:13
	mov	r0, r4
	mov	r1, r5
	bl	strcmp
.Ltmp375:
	.loc	2 718 13 is_stmt 0      @ ../User/Http/httpd_cgi_ssi.c:718:13
	cmp	r0, #0
	bne	.LBB0_278
.Ltmp376:
@ %bb.265:                              @   in Loop: Header=BB0_263 Depth=1
	@DEBUG_VALUE: HTTP_CGI_Handler:i <- $r10
	@DEBUG_VALUE: HTTP_CGI_Handler:x <- $r9
	@DEBUG_VALUE: HTTP_CGI_Handler:pcValue <- [$sp+0]
	@DEBUG_VALUE: HTTP_CGI_Handler:iNumParams <- [DW_OP_plus_uconst 8] [$sp+0]
	@DEBUG_VALUE: HTTP_CGI_Handler:pcParam <- [DW_OP_plus_uconst 4] [$sp+0]
	@DEBUG_VALUE: HTTP_CGI_Handler:t <- 0
	.loc	2 0 0                   @ ../User/Http/httpd_cgi_ssi.c:0:0
	movw	r0, #65024
	movw	r1, :lower16:rubicon_ctrl_buffer
	mov	r12, r5
	ldr	r5, [sp]                @ 4-byte Reload
.Ltmp377:
	.loc	2 722 49 is_stmt 1      @ ../User/Http/httpd_cgi_ssi.c:722:49
	cmn.w	r9, #512
	.loc	2 720 7                 @ ../User/Http/httpd_cgi_ssi.c:720:7
	str	r6, [sp, #24]
.Ltmp378:
	.loc	2 0 0 is_stmt 0         @ ../User/Http/httpd_cgi_ssi.c:0:0
	movt	r0, #65535
	movt	r1, :upper16:rubicon_ctrl_buffer
.Ltmp379:
	.loc	2 722 49 is_stmt 1      @ ../User/Http/httpd_cgi_ssi.c:722:49
	beq	.LBB0_277
.Ltmp380:
@ %bb.266:                              @   in Loop: Header=BB0_263 Depth=1
	@DEBUG_VALUE: HTTP_CGI_Handler:i <- $r10
	@DEBUG_VALUE: HTTP_CGI_Handler:x <- $r9
	@DEBUG_VALUE: HTTP_CGI_Handler:pcValue <- [$sp+0]
	@DEBUG_VALUE: HTTP_CGI_Handler:iNumParams <- [DW_OP_plus_uconst 8] [$sp+0]
	@DEBUG_VALUE: HTTP_CGI_Handler:pcParam <- [DW_OP_plus_uconst 4] [$sp+0]
	.loc	2 722 53 is_stmt 0      @ ../User/Http/httpd_cgi_ssi.c:722:53
	add.w	r0, r1, r9
	.loc	2 722 14                @ ../User/Http/httpd_cgi_ssi.c:722:14
	addw	r1, r9, #513
	movs	r2, #0
.Ltmp381:
.LBB0_267:                              @   Parent Loop BB0_263 Depth=1
                                        @ =>  This Inner Loop Header: Depth=2
	@DEBUG_VALUE: HTTP_CGI_Handler:i <- $r10
	@DEBUG_VALUE: HTTP_CGI_Handler:x <- $r9
	@DEBUG_VALUE: HTTP_CGI_Handler:pcValue <- [$sp+0]
	@DEBUG_VALUE: HTTP_CGI_Handler:iNumParams <- [DW_OP_plus_uconst 8] [$sp+0]
	@DEBUG_VALUE: HTTP_CGI_Handler:pcParam <- [DW_OP_plus_uconst 4] [$sp+0]
	@DEBUG_VALUE: HTTP_CGI_Handler:x <- undef
	.loc	2 722 53                @ ../User/Http/httpd_cgi_ssi.c:722:53
	ldr.w	r4, [r5, r10, lsl #2]
	ldrb	r3, [r4, r2]
	.loc	2 722 5                 @ ../User/Http/httpd_cgi_ssi.c:722:5
	cbz	r3, .LBB0_276
.Ltmp382:
@ %bb.268:                              @   in Loop: Header=BB0_267 Depth=2
	@DEBUG_VALUE: HTTP_CGI_Handler:i <- $r10
	@DEBUG_VALUE: HTTP_CGI_Handler:pcValue <- [$sp+0]
	@DEBUG_VALUE: HTTP_CGI_Handler:iNumParams <- [DW_OP_plus_uconst 8] [$sp+0]
	@DEBUG_VALUE: HTTP_CGI_Handler:pcParam <- [DW_OP_plus_uconst 4] [$sp+0]
	.loc	2 724 55 is_stmt 1      @ ../User/Http/httpd_cgi_ssi.c:724:55
	adds	r3, r2, #1
.Ltmp383:
	@DEBUG_VALUE: HTTP_CGI_Handler:t <- $r3
	str	r3, [sp, #24]
	.loc	2 724 43 is_stmt 0      @ ../User/Http/httpd_cgi_ssi.c:724:43
	ldrb	r4, [r4, r2]
	.loc	2 724 31                @ ../User/Http/httpd_cgi_ssi.c:724:31
	strb	r4, [r0, r2]
.Ltmp384:
	@DEBUG_VALUE: HTTP_CGI_Handler:x <- [DW_OP_plus_uconst 1, DW_OP_stack_value] undef
	.loc	2 722 14 is_stmt 1      @ ../User/Http/httpd_cgi_ssi.c:722:14
	add	r2, r1
	.loc	2 722 49 is_stmt 0      @ ../User/Http/httpd_cgi_ssi.c:722:49
	cmp	r3, r2
	mov	r2, r3
	blo	.LBB0_267
.Ltmp385:
@ %bb.269:                              @   in Loop: Header=BB0_263 Depth=1
	@DEBUG_VALUE: HTTP_CGI_Handler:t <- $r3
	@DEBUG_VALUE: HTTP_CGI_Handler:i <- $r10
	@DEBUG_VALUE: HTTP_CGI_Handler:pcValue <- [$sp+0]
	@DEBUG_VALUE: HTTP_CGI_Handler:iNumParams <- [DW_OP_plus_uconst 8] [$sp+0]
	@DEBUG_VALUE: HTTP_CGI_Handler:pcParam <- [DW_OP_plus_uconst 4] [$sp+0]
	.loc	2 727 26 is_stmt 1      @ ../User/Http/httpd_cgi_ssi.c:727:26
	add.w	r0, r9, r3
	b	.LBB0_277
.Ltmp386:
.LBB0_270:                              @   in Loop: Header=BB0_263 Depth=1
	@DEBUG_VALUE: HTTP_CGI_Handler:i <- $r10
	@DEBUG_VALUE: HTTP_CGI_Handler:x <- $r9
	@DEBUG_VALUE: HTTP_CGI_Handler:pcValue <- [$sp+0]
	@DEBUG_VALUE: HTTP_CGI_Handler:iNumParams <- [DW_OP_plus_uconst 8] [$sp+0]
	@DEBUG_VALUE: HTTP_CGI_Handler:pcParam <- [DW_OP_plus_uconst 4] [$sp+0]
	.loc	2 0 26 is_stmt 0        @ ../User/Http/httpd_cgi_ssi.c:0:26
	movw	r3, :lower16:rubicon_ctrl_buffer
	movt	r3, :upper16:rubicon_ctrl_buffer
	mov	r0, r3
.Ltmp387:
	.loc	2 706 14 is_stmt 1      @ ../User/Http/httpd_cgi_ssi.c:706:14
	str	r3, [r7]
.Ltmp388:
	.p2align	2
.LBB0_271:                              @   Parent Loop BB0_263 Depth=1
                                        @ =>  This Inner Loop Header: Depth=2
	@DEBUG_VALUE: HTTP_CGI_Handler:i <- $r10
	@DEBUG_VALUE: HTTP_CGI_Handler:x <- $r9
	@DEBUG_VALUE: HTTP_CGI_Handler:pcValue <- [$sp+0]
	@DEBUG_VALUE: HTTP_CGI_Handler:iNumParams <- [DW_OP_plus_uconst 8] [$sp+0]
	@DEBUG_VALUE: HTTP_CGI_Handler:pcParam <- [DW_OP_plus_uconst 4] [$sp+0]
	.loc	2 707 82                @ ../User/Http/httpd_cgi_ssi.c:707:82
	adds	r1, r0, #1
	str	r1, [r7]
	.loc	2 707 85 is_stmt 0      @ ../User/Http/httpd_cgi_ssi.c:707:85
	strb	r6, [r0]
	.loc	2 707 11                @ ../User/Http/httpd_cgi_ssi.c:707:11
	ldr	r0, [r7]
	.loc	2 707 5                 @ ../User/Http/httpd_cgi_ssi.c:707:5
	cmp	r0, r11
	blo	.LBB0_271
.Ltmp389:
@ %bb.272:                              @   in Loop: Header=BB0_263 Depth=1
	@DEBUG_VALUE: HTTP_CGI_Handler:i <- $r10
	@DEBUG_VALUE: HTTP_CGI_Handler:x <- $r9
	@DEBUG_VALUE: HTTP_CGI_Handler:pcValue <- [$sp+0]
	@DEBUG_VALUE: HTTP_CGI_Handler:iNumParams <- [DW_OP_plus_uconst 8] [$sp+0]
	@DEBUG_VALUE: HTTP_CGI_Handler:pcParam <- [DW_OP_plus_uconst 4] [$sp+0]
	.loc	2 0 5                   @ ../User/Http/httpd_cgi_ssi.c:0:5
	ldr	r2, [sp]                @ 4-byte Reload
	movs	r0, #0
.Ltmp390:
	@DEBUG_VALUE: HTTP_CGI_Handler:x <- 0
	.p2align	2
.LBB0_273:                              @   Parent Loop BB0_263 Depth=1
                                        @ =>  This Inner Loop Header: Depth=2
	@DEBUG_VALUE: HTTP_CGI_Handler:i <- $r10
	@DEBUG_VALUE: HTTP_CGI_Handler:pcValue <- [$sp+0]
	@DEBUG_VALUE: HTTP_CGI_Handler:iNumParams <- [DW_OP_plus_uconst 8] [$sp+0]
	@DEBUG_VALUE: HTTP_CGI_Handler:pcParam <- [DW_OP_plus_uconst 4] [$sp+0]
	@DEBUG_VALUE: HTTP_CGI_Handler:x <- $r0
	.loc	2 710 49 is_stmt 1      @ ../User/Http/httpd_cgi_ssi.c:710:49
	ldr.w	r1, [r2, r10, lsl #2]
	ldrb	r1, [r1, r0]
	cbz	r1, .LBB0_275
.Ltmp391:
@ %bb.274:                              @   in Loop: Header=BB0_273 Depth=2
	@DEBUG_VALUE: HTTP_CGI_Handler:x <- $r0
	@DEBUG_VALUE: HTTP_CGI_Handler:i <- $r10
	@DEBUG_VALUE: HTTP_CGI_Handler:pcValue <- [$sp+0]
	@DEBUG_VALUE: HTTP_CGI_Handler:iNumParams <- [DW_OP_plus_uconst 8] [$sp+0]
	@DEBUG_VALUE: HTTP_CGI_Handler:pcParam <- [DW_OP_plus_uconst 4] [$sp+0]
	.loc	2 712 29                @ ../User/Http/httpd_cgi_ssi.c:712:29
	strb	r1, [r3, r0]
	.loc	2 713 7                 @ ../User/Http/httpd_cgi_ssi.c:713:7
	adds	r0, #1
.Ltmp392:
	@DEBUG_VALUE: HTTP_CGI_Handler:x <- $r0
	.loc	2 710 45                @ ../User/Http/httpd_cgi_ssi.c:710:45
	cmp.w	r0, #512
	blo	.LBB0_273
.Ltmp393:
.LBB0_275:                              @   in Loop: Header=BB0_263 Depth=1
	@DEBUG_VALUE: HTTP_CGI_Handler:x <- $r0
	@DEBUG_VALUE: HTTP_CGI_Handler:i <- $r10
	@DEBUG_VALUE: HTTP_CGI_Handler:pcValue <- [$sp+0]
	@DEBUG_VALUE: HTTP_CGI_Handler:iNumParams <- [DW_OP_plus_uconst 8] [$sp+0]
	@DEBUG_VALUE: HTTP_CGI_Handler:pcParam <- [DW_OP_plus_uconst 4] [$sp+0]
	@DEBUG_VALUE: HTTP_CGI_Handler:x <- $r0
	.loc	2 715 28                @ ../User/Http/httpd_cgi_ssi.c:715:28
	strb	r6, [r3, r0]
	.loc	2 716 6                 @ ../User/Http/httpd_cgi_ssi.c:716:6
	add.w	r9, r0, #1
.Ltmp394:
	@DEBUG_VALUE: HTTP_CGI_Handler:x <- $r9
	.loc	2 0 6 is_stmt 0         @ ../User/Http/httpd_cgi_ssi.c:0:6
	b	.LBB0_278
.Ltmp395:
.LBB0_276:                              @   in Loop: Header=BB0_263 Depth=1
	@DEBUG_VALUE: HTTP_CGI_Handler:i <- $r10
	@DEBUG_VALUE: HTTP_CGI_Handler:pcValue <- [$sp+0]
	@DEBUG_VALUE: HTTP_CGI_Handler:iNumParams <- [DW_OP_plus_uconst 8] [$sp+0]
	@DEBUG_VALUE: HTTP_CGI_Handler:pcParam <- [DW_OP_plus_uconst 4] [$sp+0]
	.loc	2 722 5 is_stmt 1       @ ../User/Http/httpd_cgi_ssi.c:722:5
	add.w	r0, r9, r2
.Ltmp396:
.LBB0_277:                              @   in Loop: Header=BB0_263 Depth=1
	@DEBUG_VALUE: HTTP_CGI_Handler:i <- $r10
	@DEBUG_VALUE: HTTP_CGI_Handler:pcValue <- [$sp+0]
	@DEBUG_VALUE: HTTP_CGI_Handler:iNumParams <- [DW_OP_plus_uconst 8] [$sp+0]
	@DEBUG_VALUE: HTTP_CGI_Handler:pcParam <- [DW_OP_plus_uconst 4] [$sp+0]
	@DEBUG_VALUE: HTTP_CGI_Handler:x <- $r0
	.loc	2 727 26                @ ../User/Http/httpd_cgi_ssi.c:727:26
	movw	r1, :lower16:rubicon_ctrl_request
	movs	r2, #215
.Ltmp397:
	.loc	2 0 0 is_stmt 0         @ ../User/Http/httpd_cgi_ssi.c:0:0
	mov	r9, r0
.Ltmp398:
	@DEBUG_VALUE: HTTP_CGI_Handler:x <- $r9
	@DEBUG_VALUE: HTTP_CGI_Handler:x <- $r9
	mov	r5, r12
.Ltmp399:
	.loc	2 727 26                @ ../User/Http/httpd_cgi_ssi.c:727:26
	movt	r1, :upper16:rubicon_ctrl_request
	strb	r2, [r1]
.Ltmp400:
.LBB0_278:                              @   in Loop: Header=BB0_263 Depth=1
	@DEBUG_VALUE: HTTP_CGI_Handler:i <- $r10
	@DEBUG_VALUE: HTTP_CGI_Handler:x <- $r9
	@DEBUG_VALUE: HTTP_CGI_Handler:pcValue <- [$sp+0]
	@DEBUG_VALUE: HTTP_CGI_Handler:iNumParams <- [DW_OP_plus_uconst 8] [$sp+0]
	@DEBUG_VALUE: HTTP_CGI_Handler:pcParam <- [DW_OP_plus_uconst 4] [$sp+0]
	@DEBUG_VALUE: HTTP_CGI_Handler:x <- $r9
	.loc	2 702 3 is_stmt 1       @ ../User/Http/httpd_cgi_ssi.c:702:3
	ldr	r0, [sp, #8]            @ 4-byte Reload
.Ltmp401:
	.loc	2 702 32 is_stmt 0      @ ../User/Http/httpd_cgi_ssi.c:702:32
	add.w	r10, r10, #1
.Ltmp402:
	@DEBUG_VALUE: HTTP_CGI_Handler:i <- $r10
	.loc	2 702 3                 @ ../User/Http/httpd_cgi_ssi.c:702:3
	cmp	r10, r0
	bne	.LBB0_263
.Ltmp403:
@ %bb.279:
	@DEBUG_VALUE: HTTP_CGI_Handler:i <- $r10
	@DEBUG_VALUE: HTTP_CGI_Handler:x <- $r9
	@DEBUG_VALUE: HTTP_CGI_Handler:pcValue <- [$sp+0]
	@DEBUG_VALUE: HTTP_CGI_Handler:iNumParams <- [DW_OP_plus_uconst 8] [$sp+0]
	@DEBUG_VALUE: HTTP_CGI_Handler:pcParam <- [DW_OP_plus_uconst 4] [$sp+0]
	@DEBUG_VALUE: HTTP_CGI_Handler:i <- 0
	.loc	2 732 9 is_stmt 1       @ ../User/Http/httpd_cgi_ssi.c:732:9
	ldr	r0, [sp, #8]            @ 4-byte Reload
	cmp	r0, #0
	beq.w	.LBB0_3
.Ltmp404:
@ %bb.280:
	@DEBUG_VALUE: HTTP_CGI_Handler:x <- $r9
	@DEBUG_VALUE: HTTP_CGI_Handler:pcValue <- [$sp+0]
	@DEBUG_VALUE: HTTP_CGI_Handler:iNumParams <- [DW_OP_plus_uconst 8] [$sp+0]
	@DEBUG_VALUE: HTTP_CGI_Handler:pcParam <- [DW_OP_plus_uconst 4] [$sp+0]
	.loc	2 0 9 is_stmt 0         @ ../User/Http/httpd_cgi_ssi.c:0:9
	movs	r4, #0
	adr.w	r5, __arm_cp.0_92
	mov.w	r8, #212
	movs	r6, #0
.Ltmp405:
.LBB0_281:                              @ =>This Loop Header: Depth=1
                                        @     Child Loop BB0_283 Depth 2
                                        @     Child Loop BB0_285 Depth 2
	@DEBUG_VALUE: HTTP_CGI_Handler:x <- $r9
	@DEBUG_VALUE: HTTP_CGI_Handler:pcValue <- [$sp+0]
	@DEBUG_VALUE: HTTP_CGI_Handler:iNumParams <- [DW_OP_plus_uconst 8] [$sp+0]
	@DEBUG_VALUE: HTTP_CGI_Handler:pcParam <- [DW_OP_plus_uconst 4] [$sp+0]
	@DEBUG_VALUE: HTTP_CGI_Handler:i <- $r6
	@DEBUG_VALUE: HTTP_CGI_Handler:x <- $r9
	.loc	2 734 24 is_stmt 1      @ ../User/Http/httpd_cgi_ssi.c:734:24
	ldr	r0, [sp, #4]            @ 4-byte Reload
	.loc	2 734 17 is_stmt 0      @ ../User/Http/httpd_cgi_ssi.c:734:17
	mov	r1, r5
	.loc	2 734 24                @ ../User/Http/httpd_cgi_ssi.c:734:24
	ldr.w	r0, [r0, r6, lsl #2]
	.loc	2 734 17                @ ../User/Http/httpd_cgi_ssi.c:734:17
	bl	strcmp
	cbnz	r0, .LBB0_290
.Ltmp406:
@ %bb.282:                              @   in Loop: Header=BB0_281 Depth=1
	@DEBUG_VALUE: HTTP_CGI_Handler:x <- $r9
	@DEBUG_VALUE: HTTP_CGI_Handler:i <- $r6
	@DEBUG_VALUE: HTTP_CGI_Handler:pcValue <- [$sp+0]
	@DEBUG_VALUE: HTTP_CGI_Handler:iNumParams <- [DW_OP_plus_uconst 8] [$sp+0]
	@DEBUG_VALUE: HTTP_CGI_Handler:pcParam <- [DW_OP_plus_uconst 4] [$sp+0]
	@DEBUG_VALUE: HTTP_CGI_Handler:x <- 0
	.loc	2 0 17                  @ ../User/Http/httpd_cgi_ssi.c:0:17
	movw	r2, :lower16:rubicon_ctrl_buffer
	movt	r2, :upper16:rubicon_ctrl_buffer
	mov	r0, r2
.Ltmp407:
	.loc	2 737 14 is_stmt 1      @ ../User/Http/httpd_cgi_ssi.c:737:14
	str	r2, [r7]
.Ltmp408:
	.p2align	2
.LBB0_283:                              @   Parent Loop BB0_281 Depth=1
                                        @ =>  This Inner Loop Header: Depth=2
	@DEBUG_VALUE: HTTP_CGI_Handler:i <- $r6
	@DEBUG_VALUE: HTTP_CGI_Handler:pcValue <- [$sp+0]
	@DEBUG_VALUE: HTTP_CGI_Handler:iNumParams <- [DW_OP_plus_uconst 8] [$sp+0]
	@DEBUG_VALUE: HTTP_CGI_Handler:pcParam <- [DW_OP_plus_uconst 4] [$sp+0]
	.loc	2 739 96                @ ../User/Http/httpd_cgi_ssi.c:739:96
	adds	r1, r0, #1
	str	r1, [r7]
	.loc	2 739 99 is_stmt 0      @ ../User/Http/httpd_cgi_ssi.c:739:99
	strb	r4, [r0]
	.loc	2 739 24                @ ../User/Http/httpd_cgi_ssi.c:739:24
	ldr	r0, [r7]
	.loc	2 739 17                @ ../User/Http/httpd_cgi_ssi.c:739:17
	cmp	r0, r11
	blo	.LBB0_283
.Ltmp409:
@ %bb.284:                              @   in Loop: Header=BB0_281 Depth=1
	@DEBUG_VALUE: HTTP_CGI_Handler:i <- $r6
	@DEBUG_VALUE: HTTP_CGI_Handler:pcValue <- [$sp+0]
	@DEBUG_VALUE: HTTP_CGI_Handler:iNumParams <- [DW_OP_plus_uconst 8] [$sp+0]
	@DEBUG_VALUE: HTTP_CGI_Handler:pcParam <- [DW_OP_plus_uconst 4] [$sp+0]
	.loc	2 0 17                  @ ../User/Http/httpd_cgi_ssi.c:0:17
	ldr	r3, [sp]                @ 4-byte Reload
	mov.w	r9, #0
	@DEBUG_VALUE: HTTP_CGI_Handler:x <- 0
	mov	r0, r2
	.loc	2 741 14 is_stmt 1      @ ../User/Http/httpd_cgi_ssi.c:741:14
	str	r2, [r7]
.Ltmp410:
.LBB0_285:                              @   Parent Loop BB0_281 Depth=1
                                        @ =>  This Inner Loop Header: Depth=2
	@DEBUG_VALUE: HTTP_CGI_Handler:i <- $r6
	@DEBUG_VALUE: HTTP_CGI_Handler:pcValue <- [$sp+0]
	@DEBUG_VALUE: HTTP_CGI_Handler:iNumParams <- [DW_OP_plus_uconst 8] [$sp+0]
	@DEBUG_VALUE: HTTP_CGI_Handler:pcParam <- [DW_OP_plus_uconst 4] [$sp+0]
	@DEBUG_VALUE: HTTP_CGI_Handler:x <- $r9
	.loc	2 743 92                @ ../User/Http/httpd_cgi_ssi.c:743:92
	ldr.w	r1, [r3, r6, lsl #2]
	ldrb.w	r1, [r1, r9]
	cbz	r1, .LBB0_287
.Ltmp411:
@ %bb.286:                              @   in Loop: Header=BB0_285 Depth=2
	@DEBUG_VALUE: HTTP_CGI_Handler:x <- $r9
	@DEBUG_VALUE: HTTP_CGI_Handler:i <- $r6
	@DEBUG_VALUE: HTTP_CGI_Handler:pcValue <- [$sp+0]
	@DEBUG_VALUE: HTTP_CGI_Handler:iNumParams <- [DW_OP_plus_uconst 8] [$sp+0]
	@DEBUG_VALUE: HTTP_CGI_Handler:pcParam <- [DW_OP_plus_uconst 4] [$sp+0]
	.loc	2 745 30                @ ../User/Http/httpd_cgi_ssi.c:745:30
	adds	r2, r0, #1
	.loc	2 745 57 is_stmt 0      @ ../User/Http/httpd_cgi_ssi.c:745:57
	add.w	r9, r9, #1
.Ltmp412:
	@DEBUG_VALUE: HTTP_CGI_Handler:x <- $r9
	.loc	2 745 30                @ ../User/Http/httpd_cgi_ssi.c:745:30
	str	r2, [r7]
	.loc	2 745 33                @ ../User/Http/httpd_cgi_ssi.c:745:33
	strb	r1, [r0]
.Ltmp413:
	.loc	2 743 25 is_stmt 1      @ ../User/Http/httpd_cgi_ssi.c:743:25
	ldr	r0, [r7]
	.loc	2 743 88 is_stmt 0      @ ../User/Http/httpd_cgi_ssi.c:743:88
	cmp	r0, r11
	blo	.LBB0_285
.Ltmp414:
.LBB0_287:                              @   in Loop: Header=BB0_281 Depth=1
	@DEBUG_VALUE: HTTP_CGI_Handler:x <- $r9
	@DEBUG_VALUE: HTTP_CGI_Handler:i <- $r6
	@DEBUG_VALUE: HTTP_CGI_Handler:pcValue <- [$sp+0]
	@DEBUG_VALUE: HTTP_CGI_Handler:iNumParams <- [DW_OP_plus_uconst 8] [$sp+0]
	@DEBUG_VALUE: HTTP_CGI_Handler:pcParam <- [DW_OP_plus_uconst 4] [$sp+0]
	@DEBUG_VALUE: HTTP_CGI_Handler:x <- $r9
	.loc	2 750 20 is_stmt 1      @ ../User/Http/httpd_cgi_ssi.c:750:20
	sub.w	r0, r0, r9
	.loc	2 750 9 is_stmt 0       @ ../User/Http/httpd_cgi_ssi.c:750:9
	ldrb	r0, [r0]
.Ltmp415:
	.loc	2 750 9                 @ ../User/Http/httpd_cgi_ssi.c:750:9
	cmp	r0, #48
	bne	.LBB0_289
.Ltmp416:
@ %bb.288:                              @   in Loop: Header=BB0_281 Depth=1
	@DEBUG_VALUE: HTTP_CGI_Handler:x <- $r9
	@DEBUG_VALUE: HTTP_CGI_Handler:i <- $r6
	@DEBUG_VALUE: HTTP_CGI_Handler:pcValue <- [$sp+0]
	@DEBUG_VALUE: HTTP_CGI_Handler:iNumParams <- [DW_OP_plus_uconst 8] [$sp+0]
	@DEBUG_VALUE: HTTP_CGI_Handler:pcParam <- [DW_OP_plus_uconst 4] [$sp+0]
	.loc	2 750 33                @ ../User/Http/httpd_cgi_ssi.c:750:33
	bl	BUZZER_Off
	b	.LBB0_290
.Ltmp417:
.LBB0_289:                              @   in Loop: Header=BB0_281 Depth=1
	@DEBUG_VALUE: HTTP_CGI_Handler:x <- $r9
	@DEBUG_VALUE: HTTP_CGI_Handler:i <- $r6
	@DEBUG_VALUE: HTTP_CGI_Handler:pcValue <- [$sp+0]
	@DEBUG_VALUE: HTTP_CGI_Handler:iNumParams <- [DW_OP_plus_uconst 8] [$sp+0]
	@DEBUG_VALUE: HTTP_CGI_Handler:pcParam <- [DW_OP_plus_uconst 4] [$sp+0]
	.loc	2 751 32 is_stmt 1      @ ../User/Http/httpd_cgi_ssi.c:751:32
	movw	r0, :lower16:rubicon_ctrl_request
	movt	r0, :upper16:rubicon_ctrl_request
	strb.w	r8, [r0]
.Ltmp418:
.LBB0_290:                              @   in Loop: Header=BB0_281 Depth=1
	@DEBUG_VALUE: HTTP_CGI_Handler:x <- $r9
	@DEBUG_VALUE: HTTP_CGI_Handler:i <- $r6
	@DEBUG_VALUE: HTTP_CGI_Handler:pcValue <- [$sp+0]
	@DEBUG_VALUE: HTTP_CGI_Handler:iNumParams <- [DW_OP_plus_uconst 8] [$sp+0]
	@DEBUG_VALUE: HTTP_CGI_Handler:pcParam <- [DW_OP_plus_uconst 4] [$sp+0]
	@DEBUG_VALUE: HTTP_CGI_Handler:x <- $r9
	.loc	2 732 9                 @ ../User/Http/httpd_cgi_ssi.c:732:9
	ldr	r0, [sp, #8]            @ 4-byte Reload
.Ltmp419:
	.loc	2 732 38 is_stmt 0      @ ../User/Http/httpd_cgi_ssi.c:732:38
	adds	r6, #1
.Ltmp420:
	@DEBUG_VALUE: HTTP_CGI_Handler:i <- $r6
	.loc	2 732 9                 @ ../User/Http/httpd_cgi_ssi.c:732:9
	cmp	r6, r0
	bne	.LBB0_281
.Ltmp421:
@ %bb.291:
	@DEBUG_VALUE: HTTP_CGI_Handler:x <- $r9
	@DEBUG_VALUE: HTTP_CGI_Handler:i <- $r6
	@DEBUG_VALUE: HTTP_CGI_Handler:pcValue <- [$sp+0]
	@DEBUG_VALUE: HTTP_CGI_Handler:iNumParams <- [DW_OP_plus_uconst 8] [$sp+0]
	@DEBUG_VALUE: HTTP_CGI_Handler:pcParam <- [DW_OP_plus_uconst 4] [$sp+0]
	@DEBUG_VALUE: HTTP_CGI_Handler:i <- 0
	.loc	2 761 3 is_stmt 1       @ ../User/Http/httpd_cgi_ssi.c:761:3
	ldr	r0, [sp, #8]            @ 4-byte Reload
	cmp	r0, #0
	beq.w	.LBB0_3
.Ltmp422:
@ %bb.292:
	@DEBUG_VALUE: HTTP_CGI_Handler:x <- $r9
	@DEBUG_VALUE: HTTP_CGI_Handler:pcValue <- [$sp+0]
	@DEBUG_VALUE: HTTP_CGI_Handler:iNumParams <- [DW_OP_plus_uconst 8] [$sp+0]
	@DEBUG_VALUE: HTTP_CGI_Handler:pcParam <- [DW_OP_plus_uconst 4] [$sp+0]
	.loc	2 0 3 is_stmt 0         @ ../User/Http/httpd_cgi_ssi.c:0:3
	movs	r4, #0
	adr.w	r5, __arm_cp.0_93
	adr.w	r8, __arm_cp.0_94
	mov.w	r10, #192
	movs	r6, #0
.Ltmp423:
.LBB0_293:                              @ =>This Loop Header: Depth=1
                                        @     Child Loop BB0_296 Depth 2
                                        @     Child Loop BB0_298 Depth 2
	@DEBUG_VALUE: HTTP_CGI_Handler:x <- $r9
	@DEBUG_VALUE: HTTP_CGI_Handler:pcValue <- [$sp+0]
	@DEBUG_VALUE: HTTP_CGI_Handler:iNumParams <- [DW_OP_plus_uconst 8] [$sp+0]
	@DEBUG_VALUE: HTTP_CGI_Handler:pcParam <- [DW_OP_plus_uconst 4] [$sp+0]
	@DEBUG_VALUE: HTTP_CGI_Handler:i <- $r6
	@DEBUG_VALUE: HTTP_CGI_Handler:x <- $r9
	.loc	2 763 15 is_stmt 1      @ ../User/Http/httpd_cgi_ssi.c:763:15
	ldr	r0, [sp, #4]            @ 4-byte Reload
	.loc	2 763 8 is_stmt 0       @ ../User/Http/httpd_cgi_ssi.c:763:8
	mov	r1, r5
	.loc	2 763 15                @ ../User/Http/httpd_cgi_ssi.c:763:15
	ldr.w	r0, [r0, r6, lsl #2]
	.loc	2 763 8                 @ ../User/Http/httpd_cgi_ssi.c:763:8
	bl	strcmp
	cbnz	r0, .LBB0_301
.Ltmp424:
@ %bb.294:                              @   in Loop: Header=BB0_293 Depth=1
	@DEBUG_VALUE: HTTP_CGI_Handler:x <- $r9
	@DEBUG_VALUE: HTTP_CGI_Handler:i <- $r6
	@DEBUG_VALUE: HTTP_CGI_Handler:pcValue <- [$sp+0]
	@DEBUG_VALUE: HTTP_CGI_Handler:iNumParams <- [DW_OP_plus_uconst 8] [$sp+0]
	@DEBUG_VALUE: HTTP_CGI_Handler:pcParam <- [DW_OP_plus_uconst 4] [$sp+0]
	.loc	2 765 16 is_stmt 1      @ ../User/Http/httpd_cgi_ssi.c:765:16
	ldr	r0, [sp]                @ 4-byte Reload
	.loc	2 765 9 is_stmt 0       @ ../User/Http/httpd_cgi_ssi.c:765:9
	mov	r1, r8
	.loc	2 765 16                @ ../User/Http/httpd_cgi_ssi.c:765:16
	ldr.w	r0, [r0, r6, lsl #2]
	.loc	2 765 9                 @ ../User/Http/httpd_cgi_ssi.c:765:9
	bl	strcmp
.Ltmp425:
	.loc	2 765 9                 @ ../User/Http/httpd_cgi_ssi.c:765:9
	cmp	r0, #0
	beq.w	.LBB0_606
.Ltmp426:
@ %bb.295:                              @   in Loop: Header=BB0_293 Depth=1
	@DEBUG_VALUE: HTTP_CGI_Handler:x <- $r9
	@DEBUG_VALUE: HTTP_CGI_Handler:i <- $r6
	@DEBUG_VALUE: HTTP_CGI_Handler:pcValue <- [$sp+0]
	@DEBUG_VALUE: HTTP_CGI_Handler:iNumParams <- [DW_OP_plus_uconst 8] [$sp+0]
	@DEBUG_VALUE: HTTP_CGI_Handler:pcParam <- [DW_OP_plus_uconst 4] [$sp+0]
	.loc	2 0 9                   @ ../User/Http/httpd_cgi_ssi.c:0:9
	movw	r2, :lower16:rubicon_ctrl_buffer
	movt	r2, :upper16:rubicon_ctrl_buffer
	mov	r0, r2
	.loc	2 770 26 is_stmt 1      @ ../User/Http/httpd_cgi_ssi.c:770:26
	str	r2, [r7]
.Ltmp427:
.LBB0_296:                              @   Parent Loop BB0_293 Depth=1
                                        @ =>  This Inner Loop Header: Depth=2
	@DEBUG_VALUE: HTTP_CGI_Handler:x <- $r9
	@DEBUG_VALUE: HTTP_CGI_Handler:i <- $r6
	@DEBUG_VALUE: HTTP_CGI_Handler:pcValue <- [$sp+0]
	@DEBUG_VALUE: HTTP_CGI_Handler:iNumParams <- [DW_OP_plus_uconst 8] [$sp+0]
	@DEBUG_VALUE: HTTP_CGI_Handler:pcParam <- [DW_OP_plus_uconst 4] [$sp+0]
	.loc	2 771 96                @ ../User/Http/httpd_cgi_ssi.c:771:96
	adds	r1, r0, #1
	str	r1, [r7]
	.loc	2 771 99 is_stmt 0      @ ../User/Http/httpd_cgi_ssi.c:771:99
	strb	r4, [r0]
	.loc	2 771 24                @ ../User/Http/httpd_cgi_ssi.c:771:24
	ldr	r0, [r7]
	.loc	2 771 17                @ ../User/Http/httpd_cgi_ssi.c:771:17
	cmp	r0, r11
	blo	.LBB0_296
.Ltmp428:
@ %bb.297:                              @   in Loop: Header=BB0_293 Depth=1
	@DEBUG_VALUE: HTTP_CGI_Handler:x <- $r9
	@DEBUG_VALUE: HTTP_CGI_Handler:i <- $r6
	@DEBUG_VALUE: HTTP_CGI_Handler:pcValue <- [$sp+0]
	@DEBUG_VALUE: HTTP_CGI_Handler:iNumParams <- [DW_OP_plus_uconst 8] [$sp+0]
	@DEBUG_VALUE: HTTP_CGI_Handler:pcParam <- [DW_OP_plus_uconst 4] [$sp+0]
	.loc	2 0 17                  @ ../User/Http/httpd_cgi_ssi.c:0:17
	ldr	r1, [sp]                @ 4-byte Reload
	mov.w	r9, #0
.Ltmp429:
.LBB0_298:                              @   Parent Loop BB0_293 Depth=1
                                        @ =>  This Inner Loop Header: Depth=2
	@DEBUG_VALUE: HTTP_CGI_Handler:i <- $r6
	@DEBUG_VALUE: HTTP_CGI_Handler:pcValue <- [$sp+0]
	@DEBUG_VALUE: HTTP_CGI_Handler:iNumParams <- [DW_OP_plus_uconst 8] [$sp+0]
	@DEBUG_VALUE: HTTP_CGI_Handler:pcParam <- [DW_OP_plus_uconst 4] [$sp+0]
	@DEBUG_VALUE: HTTP_CGI_Handler:x <- $r9
	.loc	2 776 63 is_stmt 1      @ ../User/Http/httpd_cgi_ssi.c:776:63
	ldr.w	r0, [r1, r6, lsl #2]
	ldrb.w	r0, [r0, r9]
	cbz	r0, .LBB0_300
.Ltmp430:
@ %bb.299:                              @   in Loop: Header=BB0_298 Depth=2
	@DEBUG_VALUE: HTTP_CGI_Handler:x <- $r9
	@DEBUG_VALUE: HTTP_CGI_Handler:i <- $r6
	@DEBUG_VALUE: HTTP_CGI_Handler:pcValue <- [$sp+0]
	@DEBUG_VALUE: HTTP_CGI_Handler:iNumParams <- [DW_OP_plus_uconst 8] [$sp+0]
	@DEBUG_VALUE: HTTP_CGI_Handler:pcParam <- [DW_OP_plus_uconst 4] [$sp+0]
	.loc	2 778 44                @ ../User/Http/httpd_cgi_ssi.c:778:44
	strb.w	r0, [r2, r9]
	.loc	2 779 22                @ ../User/Http/httpd_cgi_ssi.c:779:22
	add.w	r9, r9, #1
.Ltmp431:
	@DEBUG_VALUE: HTTP_CGI_Handler:x <- $r9
	.loc	2 776 59                @ ../User/Http/httpd_cgi_ssi.c:776:59
	cmp.w	r9, #512
	blo	.LBB0_298
.Ltmp432:
.LBB0_300:                              @   in Loop: Header=BB0_293 Depth=1
	@DEBUG_VALUE: HTTP_CGI_Handler:x <- $r9
	@DEBUG_VALUE: HTTP_CGI_Handler:i <- $r6
	@DEBUG_VALUE: HTTP_CGI_Handler:pcValue <- [$sp+0]
	@DEBUG_VALUE: HTTP_CGI_Handler:iNumParams <- [DW_OP_plus_uconst 8] [$sp+0]
	@DEBUG_VALUE: HTTP_CGI_Handler:pcParam <- [DW_OP_plus_uconst 4] [$sp+0]
	@DEBUG_VALUE: HTTP_CGI_Handler:x <- $r9
	.loc	2 782 38                @ ../User/Http/httpd_cgi_ssi.c:782:38
	movw	r0, :lower16:rubicon_ctrl_request
	movt	r0, :upper16:rubicon_ctrl_request
	strb.w	r10, [r0]
.Ltmp433:
.LBB0_301:                              @   in Loop: Header=BB0_293 Depth=1
	@DEBUG_VALUE: HTTP_CGI_Handler:x <- $r9
	@DEBUG_VALUE: HTTP_CGI_Handler:i <- $r6
	@DEBUG_VALUE: HTTP_CGI_Handler:pcValue <- [$sp+0]
	@DEBUG_VALUE: HTTP_CGI_Handler:iNumParams <- [DW_OP_plus_uconst 8] [$sp+0]
	@DEBUG_VALUE: HTTP_CGI_Handler:pcParam <- [DW_OP_plus_uconst 4] [$sp+0]
	@DEBUG_VALUE: HTTP_CGI_Handler:x <- $r9
	.loc	2 761 3                 @ ../User/Http/httpd_cgi_ssi.c:761:3
	ldr	r0, [sp, #8]            @ 4-byte Reload
.Ltmp434:
	.loc	2 761 32 is_stmt 0      @ ../User/Http/httpd_cgi_ssi.c:761:32
	adds	r6, #1
.Ltmp435:
	@DEBUG_VALUE: HTTP_CGI_Handler:i <- $r6
	.loc	2 761 3                 @ ../User/Http/httpd_cgi_ssi.c:761:3
	cmp	r6, r0
	blo	.LBB0_293
.Ltmp436:
@ %bb.302:
	@DEBUG_VALUE: HTTP_CGI_Handler:x <- $r9
	@DEBUG_VALUE: HTTP_CGI_Handler:i <- $r6
	@DEBUG_VALUE: HTTP_CGI_Handler:pcValue <- [$sp+0]
	@DEBUG_VALUE: HTTP_CGI_Handler:iNumParams <- [DW_OP_plus_uconst 8] [$sp+0]
	@DEBUG_VALUE: HTTP_CGI_Handler:pcParam <- [DW_OP_plus_uconst 4] [$sp+0]
	@DEBUG_VALUE: HTTP_CGI_Handler:i <- 0
	.loc	2 786 3 is_stmt 1       @ ../User/Http/httpd_cgi_ssi.c:786:3
	ldr	r0, [sp, #8]            @ 4-byte Reload
	cmp	r0, #0
	beq.w	.LBB0_3
.Ltmp437:
@ %bb.303:
	@DEBUG_VALUE: HTTP_CGI_Handler:x <- $r9
	@DEBUG_VALUE: HTTP_CGI_Handler:pcValue <- [$sp+0]
	@DEBUG_VALUE: HTTP_CGI_Handler:iNumParams <- [DW_OP_plus_uconst 8] [$sp+0]
	@DEBUG_VALUE: HTTP_CGI_Handler:pcParam <- [DW_OP_plus_uconst 4] [$sp+0]
	.loc	2 0 3 is_stmt 0         @ ../User/Http/httpd_cgi_ssi.c:0:3
	movs	r6, #0
	adr.w	r8, __arm_cp.0_95
	mov.w	r10, #0
.Ltmp438:
.LBB0_304:                              @ =>This Loop Header: Depth=1
                                        @     Child Loop BB0_309 Depth 2
                                        @     Child Loop BB0_320 Depth 2
                                        @     Child Loop BB0_313 Depth 2
                                        @     Child Loop BB0_315 Depth 2
	@DEBUG_VALUE: HTTP_CGI_Handler:x <- $r9
	@DEBUG_VALUE: HTTP_CGI_Handler:pcValue <- [$sp+0]
	@DEBUG_VALUE: HTTP_CGI_Handler:iNumParams <- [DW_OP_plus_uconst 8] [$sp+0]
	@DEBUG_VALUE: HTTP_CGI_Handler:pcParam <- [DW_OP_plus_uconst 4] [$sp+0]
	@DEBUG_VALUE: HTTP_CGI_Handler:i <- $r10
	@DEBUG_VALUE: HTTP_CGI_Handler:x <- $r9
	.loc	2 788 15 is_stmt 1      @ ../User/Http/httpd_cgi_ssi.c:788:15
	ldr	r0, [sp, #4]            @ 4-byte Reload
	.loc	2 788 8 is_stmt 0       @ ../User/Http/httpd_cgi_ssi.c:788:8
	mov	r1, r8
	.loc	2 788 15                @ ../User/Http/httpd_cgi_ssi.c:788:15
	ldr.w	r5, [r0, r10, lsl #2]
	.loc	2 788 8                 @ ../User/Http/httpd_cgi_ssi.c:788:8
	mov	r0, r5
	bl	strcmp
	cbz	r0, .LBB0_312
.Ltmp439:
@ %bb.305:                              @   in Loop: Header=BB0_304 Depth=1
	@DEBUG_VALUE: HTTP_CGI_Handler:i <- $r10
	@DEBUG_VALUE: HTTP_CGI_Handler:x <- $r9
	@DEBUG_VALUE: HTTP_CGI_Handler:pcValue <- [$sp+0]
	@DEBUG_VALUE: HTTP_CGI_Handler:iNumParams <- [DW_OP_plus_uconst 8] [$sp+0]
	@DEBUG_VALUE: HTTP_CGI_Handler:pcParam <- [DW_OP_plus_uconst 4] [$sp+0]
	.loc	2 803 13 is_stmt 1      @ ../User/Http/httpd_cgi_ssi.c:803:13
	mov	r0, r5
	adr.w	r1, __arm_cp.0_96
	bl	strcmp
.Ltmp440:
	.loc	2 803 13 is_stmt 0      @ ../User/Http/httpd_cgi_ssi.c:803:13
	cmp	r0, #0
	beq	.LBB0_318
.Ltmp441:
@ %bb.306:                              @   in Loop: Header=BB0_304 Depth=1
	@DEBUG_VALUE: HTTP_CGI_Handler:i <- $r10
	@DEBUG_VALUE: HTTP_CGI_Handler:x <- $r9
	@DEBUG_VALUE: HTTP_CGI_Handler:pcValue <- [$sp+0]
	@DEBUG_VALUE: HTTP_CGI_Handler:iNumParams <- [DW_OP_plus_uconst 8] [$sp+0]
	@DEBUG_VALUE: HTTP_CGI_Handler:pcParam <- [DW_OP_plus_uconst 4] [$sp+0]
	.loc	2 816 13 is_stmt 1      @ ../User/Http/httpd_cgi_ssi.c:816:13
	mov	r0, r5
	adr.w	r1, __arm_cp.0_97
	bl	strcmp
.Ltmp442:
	.loc	2 816 13 is_stmt 0      @ ../User/Http/httpd_cgi_ssi.c:816:13
	cmp	r0, #0
	bne	.LBB0_327
.Ltmp443:
@ %bb.307:                              @   in Loop: Header=BB0_304 Depth=1
	@DEBUG_VALUE: HTTP_CGI_Handler:i <- $r10
	@DEBUG_VALUE: HTTP_CGI_Handler:x <- $r9
	@DEBUG_VALUE: HTTP_CGI_Handler:pcValue <- [$sp+0]
	@DEBUG_VALUE: HTTP_CGI_Handler:iNumParams <- [DW_OP_plus_uconst 8] [$sp+0]
	@DEBUG_VALUE: HTTP_CGI_Handler:pcParam <- [DW_OP_plus_uconst 4] [$sp+0]
	@DEBUG_VALUE: HTTP_CGI_Handler:t <- 0
	.loc	2 0 0                   @ ../User/Http/httpd_cgi_ssi.c:0:0
	movw	r0, #65024
	movw	r1, :lower16:rubicon_ctrl_buffer
	ldr	r4, [sp]                @ 4-byte Reload
.Ltmp444:
	.loc	2 820 49 is_stmt 1      @ ../User/Http/httpd_cgi_ssi.c:820:49
	cmn.w	r9, #512
	.loc	2 818 7                 @ ../User/Http/httpd_cgi_ssi.c:818:7
	str	r6, [sp, #24]
.Ltmp445:
	.loc	2 0 0 is_stmt 0         @ ../User/Http/httpd_cgi_ssi.c:0:0
	movt	r0, #65535
	movt	r1, :upper16:rubicon_ctrl_buffer
.Ltmp446:
	.loc	2 820 49 is_stmt 1      @ ../User/Http/httpd_cgi_ssi.c:820:49
	beq	.LBB0_326
.Ltmp447:
@ %bb.308:                              @   in Loop: Header=BB0_304 Depth=1
	@DEBUG_VALUE: HTTP_CGI_Handler:i <- $r10
	@DEBUG_VALUE: HTTP_CGI_Handler:x <- $r9
	@DEBUG_VALUE: HTTP_CGI_Handler:pcValue <- [$sp+0]
	@DEBUG_VALUE: HTTP_CGI_Handler:iNumParams <- [DW_OP_plus_uconst 8] [$sp+0]
	@DEBUG_VALUE: HTTP_CGI_Handler:pcParam <- [DW_OP_plus_uconst 4] [$sp+0]
	.loc	2 820 53 is_stmt 0      @ ../User/Http/httpd_cgi_ssi.c:820:53
	add.w	r0, r1, r9
	.loc	2 820 14                @ ../User/Http/httpd_cgi_ssi.c:820:14
	addw	r1, r9, #513
	movs	r2, #0
.Ltmp448:
.LBB0_309:                              @   Parent Loop BB0_304 Depth=1
                                        @ =>  This Inner Loop Header: Depth=2
	@DEBUG_VALUE: HTTP_CGI_Handler:i <- $r10
	@DEBUG_VALUE: HTTP_CGI_Handler:x <- $r9
	@DEBUG_VALUE: HTTP_CGI_Handler:pcValue <- [$sp+0]
	@DEBUG_VALUE: HTTP_CGI_Handler:iNumParams <- [DW_OP_plus_uconst 8] [$sp+0]
	@DEBUG_VALUE: HTTP_CGI_Handler:pcParam <- [DW_OP_plus_uconst 4] [$sp+0]
	@DEBUG_VALUE: HTTP_CGI_Handler:x <- undef
	.loc	2 820 53                @ ../User/Http/httpd_cgi_ssi.c:820:53
	ldr.w	r5, [r4, r10, lsl #2]
	ldrb	r3, [r5, r2]
	.loc	2 820 5                 @ ../User/Http/httpd_cgi_ssi.c:820:5
	cmp	r3, #0
	beq	.LBB0_325
.Ltmp449:
@ %bb.310:                              @   in Loop: Header=BB0_309 Depth=2
	@DEBUG_VALUE: HTTP_CGI_Handler:i <- $r10
	@DEBUG_VALUE: HTTP_CGI_Handler:pcValue <- [$sp+0]
	@DEBUG_VALUE: HTTP_CGI_Handler:iNumParams <- [DW_OP_plus_uconst 8] [$sp+0]
	@DEBUG_VALUE: HTTP_CGI_Handler:pcParam <- [DW_OP_plus_uconst 4] [$sp+0]
	.loc	2 822 55 is_stmt 1      @ ../User/Http/httpd_cgi_ssi.c:822:55
	adds	r3, r2, #1
.Ltmp450:
	@DEBUG_VALUE: HTTP_CGI_Handler:t <- $r3
	str	r3, [sp, #24]
	.loc	2 822 43 is_stmt 0      @ ../User/Http/httpd_cgi_ssi.c:822:43
	ldrb	r5, [r5, r2]
	.loc	2 822 31                @ ../User/Http/httpd_cgi_ssi.c:822:31
	strb	r5, [r0, r2]
.Ltmp451:
	@DEBUG_VALUE: HTTP_CGI_Handler:x <- [DW_OP_plus_uconst 1, DW_OP_stack_value] undef
	.loc	2 820 14 is_stmt 1      @ ../User/Http/httpd_cgi_ssi.c:820:14
	add	r2, r1
	.loc	2 820 49 is_stmt 0      @ ../User/Http/httpd_cgi_ssi.c:820:49
	cmp	r3, r2
	mov	r2, r3
	blo	.LBB0_309
.Ltmp452:
@ %bb.311:                              @   in Loop: Header=BB0_304 Depth=1
	@DEBUG_VALUE: HTTP_CGI_Handler:t <- $r3
	@DEBUG_VALUE: HTTP_CGI_Handler:i <- $r10
	@DEBUG_VALUE: HTTP_CGI_Handler:pcValue <- [$sp+0]
	@DEBUG_VALUE: HTTP_CGI_Handler:iNumParams <- [DW_OP_plus_uconst 8] [$sp+0]
	@DEBUG_VALUE: HTTP_CGI_Handler:pcParam <- [DW_OP_plus_uconst 4] [$sp+0]
	.loc	2 825 26 is_stmt 1      @ ../User/Http/httpd_cgi_ssi.c:825:26
	add.w	r0, r9, r3
	b	.LBB0_326
.Ltmp453:
.LBB0_312:                              @   in Loop: Header=BB0_304 Depth=1
	@DEBUG_VALUE: HTTP_CGI_Handler:i <- $r10
	@DEBUG_VALUE: HTTP_CGI_Handler:x <- $r9
	@DEBUG_VALUE: HTTP_CGI_Handler:pcValue <- [$sp+0]
	@DEBUG_VALUE: HTTP_CGI_Handler:iNumParams <- [DW_OP_plus_uconst 8] [$sp+0]
	@DEBUG_VALUE: HTTP_CGI_Handler:pcParam <- [DW_OP_plus_uconst 4] [$sp+0]
	.loc	2 0 26 is_stmt 0        @ ../User/Http/httpd_cgi_ssi.c:0:26
	movw	r3, :lower16:rubicon_ctrl_buffer
	movt	r3, :upper16:rubicon_ctrl_buffer
	mov	r0, r3
.Ltmp454:
	.loc	2 790 14 is_stmt 1      @ ../User/Http/httpd_cgi_ssi.c:790:14
	str	r3, [r7]
.Ltmp455:
.LBB0_313:                              @   Parent Loop BB0_304 Depth=1
                                        @ =>  This Inner Loop Header: Depth=2
	@DEBUG_VALUE: HTTP_CGI_Handler:i <- $r10
	@DEBUG_VALUE: HTTP_CGI_Handler:x <- $r9
	@DEBUG_VALUE: HTTP_CGI_Handler:pcValue <- [$sp+0]
	@DEBUG_VALUE: HTTP_CGI_Handler:iNumParams <- [DW_OP_plus_uconst 8] [$sp+0]
	@DEBUG_VALUE: HTTP_CGI_Handler:pcParam <- [DW_OP_plus_uconst 4] [$sp+0]
	.loc	2 791 82                @ ../User/Http/httpd_cgi_ssi.c:791:82
	adds	r1, r0, #1
	str	r1, [r7]
	.loc	2 791 85 is_stmt 0      @ ../User/Http/httpd_cgi_ssi.c:791:85
	strb	r6, [r0]
	.loc	2 791 11                @ ../User/Http/httpd_cgi_ssi.c:791:11
	ldr	r0, [r7]
	.loc	2 791 5                 @ ../User/Http/httpd_cgi_ssi.c:791:5
	cmp	r0, r11
	blo	.LBB0_313
.Ltmp456:
@ %bb.314:                              @   in Loop: Header=BB0_304 Depth=1
	@DEBUG_VALUE: HTTP_CGI_Handler:i <- $r10
	@DEBUG_VALUE: HTTP_CGI_Handler:x <- $r9
	@DEBUG_VALUE: HTTP_CGI_Handler:pcValue <- [$sp+0]
	@DEBUG_VALUE: HTTP_CGI_Handler:iNumParams <- [DW_OP_plus_uconst 8] [$sp+0]
	@DEBUG_VALUE: HTTP_CGI_Handler:pcParam <- [DW_OP_plus_uconst 4] [$sp+0]
	.loc	2 0 5                   @ ../User/Http/httpd_cgi_ssi.c:0:5
	ldr	r2, [sp]                @ 4-byte Reload
	movs	r0, #0
.Ltmp457:
	@DEBUG_VALUE: HTTP_CGI_Handler:x <- 0
.LBB0_315:                              @   Parent Loop BB0_304 Depth=1
                                        @ =>  This Inner Loop Header: Depth=2
	@DEBUG_VALUE: HTTP_CGI_Handler:i <- $r10
	@DEBUG_VALUE: HTTP_CGI_Handler:pcValue <- [$sp+0]
	@DEBUG_VALUE: HTTP_CGI_Handler:iNumParams <- [DW_OP_plus_uconst 8] [$sp+0]
	@DEBUG_VALUE: HTTP_CGI_Handler:pcParam <- [DW_OP_plus_uconst 4] [$sp+0]
	@DEBUG_VALUE: HTTP_CGI_Handler:x <- $r0
	.loc	2 794 49 is_stmt 1      @ ../User/Http/httpd_cgi_ssi.c:794:49
	ldr.w	r1, [r2, r10, lsl #2]
	ldrb	r1, [r1, r0]
	cbz	r1, .LBB0_317
.Ltmp458:
@ %bb.316:                              @   in Loop: Header=BB0_315 Depth=2
	@DEBUG_VALUE: HTTP_CGI_Handler:x <- $r0
	@DEBUG_VALUE: HTTP_CGI_Handler:i <- $r10
	@DEBUG_VALUE: HTTP_CGI_Handler:pcValue <- [$sp+0]
	@DEBUG_VALUE: HTTP_CGI_Handler:iNumParams <- [DW_OP_plus_uconst 8] [$sp+0]
	@DEBUG_VALUE: HTTP_CGI_Handler:pcParam <- [DW_OP_plus_uconst 4] [$sp+0]
	.loc	2 796 29                @ ../User/Http/httpd_cgi_ssi.c:796:29
	strb	r1, [r3, r0]
	.loc	2 797 7                 @ ../User/Http/httpd_cgi_ssi.c:797:7
	adds	r0, #1
.Ltmp459:
	@DEBUG_VALUE: HTTP_CGI_Handler:x <- $r0
	.loc	2 794 45                @ ../User/Http/httpd_cgi_ssi.c:794:45
	cmp.w	r0, #512
	blo	.LBB0_315
.Ltmp460:
.LBB0_317:                              @   in Loop: Header=BB0_304 Depth=1
	@DEBUG_VALUE: HTTP_CGI_Handler:x <- $r0
	@DEBUG_VALUE: HTTP_CGI_Handler:i <- $r10
	@DEBUG_VALUE: HTTP_CGI_Handler:pcValue <- [$sp+0]
	@DEBUG_VALUE: HTTP_CGI_Handler:iNumParams <- [DW_OP_plus_uconst 8] [$sp+0]
	@DEBUG_VALUE: HTTP_CGI_Handler:pcParam <- [DW_OP_plus_uconst 4] [$sp+0]
	@DEBUG_VALUE: HTTP_CGI_Handler:x <- $r0
	.loc	2 800 28                @ ../User/Http/httpd_cgi_ssi.c:800:28
	strb	r6, [r3, r0]
	.loc	2 801 6                 @ ../User/Http/httpd_cgi_ssi.c:801:6
	add.w	r9, r0, #1
.Ltmp461:
	@DEBUG_VALUE: HTTP_CGI_Handler:x <- $r9
	.loc	2 0 6 is_stmt 0         @ ../User/Http/httpd_cgi_ssi.c:0:6
	b	.LBB0_327
.Ltmp462:
.LBB0_318:                              @   in Loop: Header=BB0_304 Depth=1
	@DEBUG_VALUE: HTTP_CGI_Handler:i <- $r10
	@DEBUG_VALUE: HTTP_CGI_Handler:x <- $r9
	@DEBUG_VALUE: HTTP_CGI_Handler:pcValue <- [$sp+0]
	@DEBUG_VALUE: HTTP_CGI_Handler:iNumParams <- [DW_OP_plus_uconst 8] [$sp+0]
	@DEBUG_VALUE: HTTP_CGI_Handler:pcParam <- [DW_OP_plus_uconst 4] [$sp+0]
	@DEBUG_VALUE: HTTP_CGI_Handler:t <- 0
	movw	r0, #65024
	ldr	r4, [sp]                @ 4-byte Reload
.Ltmp463:
	.loc	2 807 49 is_stmt 1      @ ../User/Http/httpd_cgi_ssi.c:807:49
	cmn.w	r9, #512
	.loc	2 805 7                 @ ../User/Http/httpd_cgi_ssi.c:805:7
	str	r6, [sp, #24]
.Ltmp464:
	.loc	2 0 0 is_stmt 0         @ ../User/Http/httpd_cgi_ssi.c:0:0
	movt	r0, #65535
.Ltmp465:
	.loc	2 807 49 is_stmt 1      @ ../User/Http/httpd_cgi_ssi.c:807:49
	beq	.LBB0_324
.Ltmp466:
@ %bb.319:                              @   in Loop: Header=BB0_304 Depth=1
	@DEBUG_VALUE: HTTP_CGI_Handler:i <- $r10
	@DEBUG_VALUE: HTTP_CGI_Handler:x <- $r9
	@DEBUG_VALUE: HTTP_CGI_Handler:pcValue <- [$sp+0]
	@DEBUG_VALUE: HTTP_CGI_Handler:iNumParams <- [DW_OP_plus_uconst 8] [$sp+0]
	@DEBUG_VALUE: HTTP_CGI_Handler:pcParam <- [DW_OP_plus_uconst 4] [$sp+0]
	.loc	2 807 53 is_stmt 0      @ ../User/Http/httpd_cgi_ssi.c:807:53
	movw	r0, :lower16:rubicon_ctrl_buffer
	.loc	2 807 14                @ ../User/Http/httpd_cgi_ssi.c:807:14
	addw	r1, r9, #513
	movs	r2, #0
	.loc	2 807 53                @ ../User/Http/httpd_cgi_ssi.c:807:53
	movt	r0, :upper16:rubicon_ctrl_buffer
	add	r0, r9
.Ltmp467:
.LBB0_320:                              @   Parent Loop BB0_304 Depth=1
                                        @ =>  This Inner Loop Header: Depth=2
	@DEBUG_VALUE: HTTP_CGI_Handler:i <- $r10
	@DEBUG_VALUE: HTTP_CGI_Handler:x <- $r9
	@DEBUG_VALUE: HTTP_CGI_Handler:pcValue <- [$sp+0]
	@DEBUG_VALUE: HTTP_CGI_Handler:iNumParams <- [DW_OP_plus_uconst 8] [$sp+0]
	@DEBUG_VALUE: HTTP_CGI_Handler:pcParam <- [DW_OP_plus_uconst 4] [$sp+0]
	@DEBUG_VALUE: HTTP_CGI_Handler:x <- undef
	ldr.w	r5, [r4, r10, lsl #2]
	ldrb	r3, [r5, r2]
	.loc	2 807 5                 @ ../User/Http/httpd_cgi_ssi.c:807:5
	cbz	r3, .LBB0_323
.Ltmp468:
@ %bb.321:                              @   in Loop: Header=BB0_320 Depth=2
	@DEBUG_VALUE: HTTP_CGI_Handler:i <- $r10
	@DEBUG_VALUE: HTTP_CGI_Handler:pcValue <- [$sp+0]
	@DEBUG_VALUE: HTTP_CGI_Handler:iNumParams <- [DW_OP_plus_uconst 8] [$sp+0]
	@DEBUG_VALUE: HTTP_CGI_Handler:pcParam <- [DW_OP_plus_uconst 4] [$sp+0]
	.loc	2 809 55 is_stmt 1      @ ../User/Http/httpd_cgi_ssi.c:809:55
	adds	r3, r2, #1
.Ltmp469:
	@DEBUG_VALUE: HTTP_CGI_Handler:t <- $r3
	str	r3, [sp, #24]
	.loc	2 809 43 is_stmt 0      @ ../User/Http/httpd_cgi_ssi.c:809:43
	ldrb	r5, [r5, r2]
	.loc	2 809 31                @ ../User/Http/httpd_cgi_ssi.c:809:31
	strb	r5, [r0, r2]
.Ltmp470:
	@DEBUG_VALUE: HTTP_CGI_Handler:x <- [DW_OP_plus_uconst 1, DW_OP_stack_value] undef
	.loc	2 807 14 is_stmt 1      @ ../User/Http/httpd_cgi_ssi.c:807:14
	add	r2, r1
	.loc	2 807 49 is_stmt 0      @ ../User/Http/httpd_cgi_ssi.c:807:49
	cmp	r3, r2
	mov	r2, r3
	blo	.LBB0_320
.Ltmp471:
@ %bb.322:                              @   in Loop: Header=BB0_304 Depth=1
	@DEBUG_VALUE: HTTP_CGI_Handler:t <- $r3
	@DEBUG_VALUE: HTTP_CGI_Handler:i <- $r10
	@DEBUG_VALUE: HTTP_CGI_Handler:pcValue <- [$sp+0]
	@DEBUG_VALUE: HTTP_CGI_Handler:iNumParams <- [DW_OP_plus_uconst 8] [$sp+0]
	@DEBUG_VALUE: HTTP_CGI_Handler:pcParam <- [DW_OP_plus_uconst 4] [$sp+0]
	.loc	2 812 5 is_stmt 1       @ ../User/Http/httpd_cgi_ssi.c:812:5
	add.w	r0, r9, r3
	b	.LBB0_324
.Ltmp472:
.LBB0_323:                              @   in Loop: Header=BB0_304 Depth=1
	@DEBUG_VALUE: HTTP_CGI_Handler:i <- $r10
	@DEBUG_VALUE: HTTP_CGI_Handler:pcValue <- [$sp+0]
	@DEBUG_VALUE: HTTP_CGI_Handler:iNumParams <- [DW_OP_plus_uconst 8] [$sp+0]
	@DEBUG_VALUE: HTTP_CGI_Handler:pcParam <- [DW_OP_plus_uconst 4] [$sp+0]
	.loc	2 807 5                 @ ../User/Http/httpd_cgi_ssi.c:807:5
	add.w	r0, r9, r2
.Ltmp473:
.LBB0_324:                              @   in Loop: Header=BB0_304 Depth=1
	@DEBUG_VALUE: HTTP_CGI_Handler:i <- $r10
	@DEBUG_VALUE: HTTP_CGI_Handler:pcValue <- [$sp+0]
	@DEBUG_VALUE: HTTP_CGI_Handler:iNumParams <- [DW_OP_plus_uconst 8] [$sp+0]
	@DEBUG_VALUE: HTTP_CGI_Handler:pcParam <- [DW_OP_plus_uconst 4] [$sp+0]
	@DEBUG_VALUE: HTTP_CGI_Handler:x <- $r0
	.loc	2 812 28                @ ../User/Http/httpd_cgi_ssi.c:812:28
	movw	r1, :lower16:rubicon_ctrl_buffer
	.loc	2 813 6                 @ ../User/Http/httpd_cgi_ssi.c:813:6
	add.w	r9, r0, #1
.Ltmp474:
	@DEBUG_VALUE: HTTP_CGI_Handler:x <- $r9
	.loc	2 812 28                @ ../User/Http/httpd_cgi_ssi.c:812:28
	movt	r1, :upper16:rubicon_ctrl_buffer
	strb	r6, [r1, r0]
	b	.LBB0_327
.Ltmp475:
.LBB0_325:                              @   in Loop: Header=BB0_304 Depth=1
	@DEBUG_VALUE: HTTP_CGI_Handler:i <- $r10
	@DEBUG_VALUE: HTTP_CGI_Handler:pcValue <- [$sp+0]
	@DEBUG_VALUE: HTTP_CGI_Handler:iNumParams <- [DW_OP_plus_uconst 8] [$sp+0]
	@DEBUG_VALUE: HTTP_CGI_Handler:pcParam <- [DW_OP_plus_uconst 4] [$sp+0]
	.loc	2 820 5                 @ ../User/Http/httpd_cgi_ssi.c:820:5
	add.w	r0, r9, r2
.Ltmp476:
.LBB0_326:                              @   in Loop: Header=BB0_304 Depth=1
	@DEBUG_VALUE: HTTP_CGI_Handler:i <- $r10
	@DEBUG_VALUE: HTTP_CGI_Handler:pcValue <- [$sp+0]
	@DEBUG_VALUE: HTTP_CGI_Handler:iNumParams <- [DW_OP_plus_uconst 8] [$sp+0]
	@DEBUG_VALUE: HTTP_CGI_Handler:pcParam <- [DW_OP_plus_uconst 4] [$sp+0]
	@DEBUG_VALUE: HTTP_CGI_Handler:x <- $r0
	.loc	2 825 26                @ ../User/Http/httpd_cgi_ssi.c:825:26
	movw	r1, :lower16:rubicon_ctrl_request
.Ltmp477:
	.loc	2 0 0 is_stmt 0         @ ../User/Http/httpd_cgi_ssi.c:0:0
	mov	r9, r0
.Ltmp478:
	@DEBUG_VALUE: HTTP_CGI_Handler:x <- $r9
	@DEBUG_VALUE: HTTP_CGI_Handler:x <- $r9
	.loc	2 825 26                @ ../User/Http/httpd_cgi_ssi.c:825:26
	movs	r2, #214
	movt	r1, :upper16:rubicon_ctrl_request
	strb	r2, [r1]
.Ltmp479:
.LBB0_327:                              @   in Loop: Header=BB0_304 Depth=1
	@DEBUG_VALUE: HTTP_CGI_Handler:i <- $r10
	@DEBUG_VALUE: HTTP_CGI_Handler:x <- $r9
	@DEBUG_VALUE: HTTP_CGI_Handler:pcValue <- [$sp+0]
	@DEBUG_VALUE: HTTP_CGI_Handler:iNumParams <- [DW_OP_plus_uconst 8] [$sp+0]
	@DEBUG_VALUE: HTTP_CGI_Handler:pcParam <- [DW_OP_plus_uconst 4] [$sp+0]
	@DEBUG_VALUE: HTTP_CGI_Handler:x <- $r9
	.loc	2 786 3 is_stmt 1       @ ../User/Http/httpd_cgi_ssi.c:786:3
	ldr	r0, [sp, #8]            @ 4-byte Reload
.Ltmp480:
	.loc	2 786 32 is_stmt 0      @ ../User/Http/httpd_cgi_ssi.c:786:32
	add.w	r10, r10, #1
.Ltmp481:
	@DEBUG_VALUE: HTTP_CGI_Handler:i <- $r10
	.loc	2 786 3                 @ ../User/Http/httpd_cgi_ssi.c:786:3
	cmp	r10, r0
	bne.w	.LBB0_304
.Ltmp482:
@ %bb.328:
	@DEBUG_VALUE: HTTP_CGI_Handler:i <- $r10
	@DEBUG_VALUE: HTTP_CGI_Handler:x <- $r9
	@DEBUG_VALUE: HTTP_CGI_Handler:pcValue <- [$sp+0]
	@DEBUG_VALUE: HTTP_CGI_Handler:iNumParams <- [DW_OP_plus_uconst 8] [$sp+0]
	@DEBUG_VALUE: HTTP_CGI_Handler:pcParam <- [DW_OP_plus_uconst 4] [$sp+0]
	@DEBUG_VALUE: HTTP_CGI_Handler:i <- 0
	.loc	2 829 3 is_stmt 1       @ ../User/Http/httpd_cgi_ssi.c:829:3
	ldr	r0, [sp, #8]            @ 4-byte Reload
	cmp	r0, #0
	beq.w	.LBB0_3
.Ltmp483:
@ %bb.329:
	@DEBUG_VALUE: HTTP_CGI_Handler:x <- $r9
	@DEBUG_VALUE: HTTP_CGI_Handler:pcValue <- [$sp+0]
	@DEBUG_VALUE: HTTP_CGI_Handler:iNumParams <- [DW_OP_plus_uconst 8] [$sp+0]
	@DEBUG_VALUE: HTTP_CGI_Handler:pcParam <- [DW_OP_plus_uconst 4] [$sp+0]
	.loc	2 0 3 is_stmt 0         @ ../User/Http/httpd_cgi_ssi.c:0:3
	movs	r5, #0
	adr.w	r8, __arm_cp.0_98
	mov.w	r10, #0
	b	.LBB0_332
.Ltmp484:
.LBB0_330:                              @   in Loop: Header=BB0_332 Depth=1
	@DEBUG_VALUE: HTTP_CGI_Handler:i <- $r10
	@DEBUG_VALUE: HTTP_CGI_Handler:pcValue <- [$sp+0]
	@DEBUG_VALUE: HTTP_CGI_Handler:iNumParams <- [DW_OP_plus_uconst 8] [$sp+0]
	@DEBUG_VALUE: HTTP_CGI_Handler:pcParam <- [DW_OP_plus_uconst 4] [$sp+0]
	.loc	2 902 5 is_stmt 1       @ ../User/Http/httpd_cgi_ssi.c:902:5
	add.w	r0, r9, r2
.Ltmp485:
.LBB0_331:                              @   in Loop: Header=BB0_332 Depth=1
	@DEBUG_VALUE: HTTP_CGI_Handler:i <- $r10
	@DEBUG_VALUE: HTTP_CGI_Handler:pcValue <- [$sp+0]
	@DEBUG_VALUE: HTTP_CGI_Handler:iNumParams <- [DW_OP_plus_uconst 8] [$sp+0]
	@DEBUG_VALUE: HTTP_CGI_Handler:pcParam <- [DW_OP_plus_uconst 4] [$sp+0]
	@DEBUG_VALUE: HTTP_CGI_Handler:x <- $r0
	.loc	2 907 26                @ ../User/Http/httpd_cgi_ssi.c:907:26
	movw	r1, :lower16:rubicon_ctrl_request
.Ltmp486:
	.loc	2 0 0 is_stmt 0         @ ../User/Http/httpd_cgi_ssi.c:0:0
	mov	r9, r0
.Ltmp487:
	@DEBUG_VALUE: HTTP_CGI_Handler:x <- $r9
	@DEBUG_VALUE: HTTP_CGI_Handler:x <- $r9
	.loc	2 907 26                @ ../User/Http/httpd_cgi_ssi.c:907:26
	movs	r2, #222
	movt	r1, :upper16:rubicon_ctrl_request
	strb	r2, [r1]
	b	.LBB0_368
.Ltmp488:
.LBB0_332:                              @ =>This Loop Header: Depth=1
                                        @     Child Loop BB0_340 Depth 2
                                        @     Child Loop BB0_363 Depth 2
                                        @     Child Loop BB0_359 Depth 2
                                        @     Child Loop BB0_355 Depth 2
                                        @     Child Loop BB0_351 Depth 2
                                        @     Child Loop BB0_344 Depth 2
                                        @     Child Loop BB0_346 Depth 2
	@DEBUG_VALUE: HTTP_CGI_Handler:x <- $r9
	@DEBUG_VALUE: HTTP_CGI_Handler:pcValue <- [$sp+0]
	@DEBUG_VALUE: HTTP_CGI_Handler:iNumParams <- [DW_OP_plus_uconst 8] [$sp+0]
	@DEBUG_VALUE: HTTP_CGI_Handler:pcParam <- [DW_OP_plus_uconst 4] [$sp+0]
	@DEBUG_VALUE: HTTP_CGI_Handler:i <- $r10
	@DEBUG_VALUE: HTTP_CGI_Handler:x <- $r9
	.loc	2 831 29 is_stmt 1      @ ../User/Http/httpd_cgi_ssi.c:831:29
	ldr	r0, [sp, #4]            @ 4-byte Reload
	.loc	2 831 22 is_stmt 0      @ ../User/Http/httpd_cgi_ssi.c:831:22
	mov	r1, r8
	.loc	2 831 29                @ ../User/Http/httpd_cgi_ssi.c:831:29
	ldr.w	r6, [r0, r10, lsl #2]
	.loc	2 831 22                @ ../User/Http/httpd_cgi_ssi.c:831:22
	mov	r0, r6
	bl	strcmp
.Ltmp489:
	.loc	2 831 22                @ ../User/Http/httpd_cgi_ssi.c:831:22
	cmp	r0, #0
	beq	.LBB0_343
.Ltmp490:
@ %bb.333:                              @   in Loop: Header=BB0_332 Depth=1
	@DEBUG_VALUE: HTTP_CGI_Handler:i <- $r10
	@DEBUG_VALUE: HTTP_CGI_Handler:x <- $r9
	@DEBUG_VALUE: HTTP_CGI_Handler:pcValue <- [$sp+0]
	@DEBUG_VALUE: HTTP_CGI_Handler:iNumParams <- [DW_OP_plus_uconst 8] [$sp+0]
	@DEBUG_VALUE: HTTP_CGI_Handler:pcParam <- [DW_OP_plus_uconst 4] [$sp+0]
	.loc	2 846 13 is_stmt 1      @ ../User/Http/httpd_cgi_ssi.c:846:13
	mov	r0, r6
	adr.w	r1, __arm_cp.0_99
	bl	strcmp
.Ltmp491:
	.loc	2 846 13 is_stmt 0      @ ../User/Http/httpd_cgi_ssi.c:846:13
	cmp	r0, #0
	beq	.LBB0_349
.Ltmp492:
@ %bb.334:                              @   in Loop: Header=BB0_332 Depth=1
	@DEBUG_VALUE: HTTP_CGI_Handler:i <- $r10
	@DEBUG_VALUE: HTTP_CGI_Handler:x <- $r9
	@DEBUG_VALUE: HTTP_CGI_Handler:pcValue <- [$sp+0]
	@DEBUG_VALUE: HTTP_CGI_Handler:iNumParams <- [DW_OP_plus_uconst 8] [$sp+0]
	@DEBUG_VALUE: HTTP_CGI_Handler:pcParam <- [DW_OP_plus_uconst 4] [$sp+0]
	.loc	2 859 22 is_stmt 1      @ ../User/Http/httpd_cgi_ssi.c:859:22
	mov	r0, r6
	adr.w	r1, __arm_cp.0_100
	bl	strcmp
.Ltmp493:
	.loc	2 859 22 is_stmt 0      @ ../User/Http/httpd_cgi_ssi.c:859:22
	cmp	r0, #0
	beq	.LBB0_353
.Ltmp494:
@ %bb.335:                              @   in Loop: Header=BB0_332 Depth=1
	@DEBUG_VALUE: HTTP_CGI_Handler:i <- $r10
	@DEBUG_VALUE: HTTP_CGI_Handler:x <- $r9
	@DEBUG_VALUE: HTTP_CGI_Handler:pcValue <- [$sp+0]
	@DEBUG_VALUE: HTTP_CGI_Handler:iNumParams <- [DW_OP_plus_uconst 8] [$sp+0]
	@DEBUG_VALUE: HTTP_CGI_Handler:pcParam <- [DW_OP_plus_uconst 4] [$sp+0]
	.loc	2 872 22 is_stmt 1      @ ../User/Http/httpd_cgi_ssi.c:872:22
	mov	r0, r6
	adr.w	r1, __arm_cp.0_101
	bl	strcmp
.Ltmp495:
	.loc	2 872 22 is_stmt 0      @ ../User/Http/httpd_cgi_ssi.c:872:22
	cmp	r0, #0
	beq.w	.LBB0_357
.Ltmp496:
@ %bb.336:                              @   in Loop: Header=BB0_332 Depth=1
	@DEBUG_VALUE: HTTP_CGI_Handler:i <- $r10
	@DEBUG_VALUE: HTTP_CGI_Handler:x <- $r9
	@DEBUG_VALUE: HTTP_CGI_Handler:pcValue <- [$sp+0]
	@DEBUG_VALUE: HTTP_CGI_Handler:iNumParams <- [DW_OP_plus_uconst 8] [$sp+0]
	@DEBUG_VALUE: HTTP_CGI_Handler:pcParam <- [DW_OP_plus_uconst 4] [$sp+0]
	.loc	2 885 22 is_stmt 1      @ ../User/Http/httpd_cgi_ssi.c:885:22
	mov	r0, r6
	adr.w	r1, __arm_cp.0_102
	bl	strcmp
.Ltmp497:
	.loc	2 885 22 is_stmt 0      @ ../User/Http/httpd_cgi_ssi.c:885:22
	cmp	r0, #0
	beq.w	.LBB0_361
.Ltmp498:
@ %bb.337:                              @   in Loop: Header=BB0_332 Depth=1
	@DEBUG_VALUE: HTTP_CGI_Handler:i <- $r10
	@DEBUG_VALUE: HTTP_CGI_Handler:x <- $r9
	@DEBUG_VALUE: HTTP_CGI_Handler:pcValue <- [$sp+0]
	@DEBUG_VALUE: HTTP_CGI_Handler:iNumParams <- [DW_OP_plus_uconst 8] [$sp+0]
	@DEBUG_VALUE: HTTP_CGI_Handler:pcParam <- [DW_OP_plus_uconst 4] [$sp+0]
	.loc	2 898 13 is_stmt 1      @ ../User/Http/httpd_cgi_ssi.c:898:13
	mov	r0, r6
	adr.w	r1, __arm_cp.0_103
	bl	strcmp
.Ltmp499:
	.loc	2 898 13 is_stmt 0      @ ../User/Http/httpd_cgi_ssi.c:898:13
	cmp	r0, #0
	bne.w	.LBB0_368
.Ltmp500:
@ %bb.338:                              @   in Loop: Header=BB0_332 Depth=1
	@DEBUG_VALUE: HTTP_CGI_Handler:i <- $r10
	@DEBUG_VALUE: HTTP_CGI_Handler:x <- $r9
	@DEBUG_VALUE: HTTP_CGI_Handler:pcValue <- [$sp+0]
	@DEBUG_VALUE: HTTP_CGI_Handler:iNumParams <- [DW_OP_plus_uconst 8] [$sp+0]
	@DEBUG_VALUE: HTTP_CGI_Handler:pcParam <- [DW_OP_plus_uconst 4] [$sp+0]
	@DEBUG_VALUE: HTTP_CGI_Handler:t <- 0
	.loc	2 0 0                   @ ../User/Http/httpd_cgi_ssi.c:0:0
	movw	r0, #65024
	movw	r1, :lower16:rubicon_ctrl_buffer
	ldr	r4, [sp]                @ 4-byte Reload
.Ltmp501:
	.loc	2 902 49 is_stmt 1      @ ../User/Http/httpd_cgi_ssi.c:902:49
	cmn.w	r9, #512
	.loc	2 900 7                 @ ../User/Http/httpd_cgi_ssi.c:900:7
	str	r5, [sp, #24]
.Ltmp502:
	.loc	2 0 0 is_stmt 0         @ ../User/Http/httpd_cgi_ssi.c:0:0
	movt	r0, #65535
	movt	r1, :upper16:rubicon_ctrl_buffer
	beq	.LBB0_331
.Ltmp503:
@ %bb.339:                              @   in Loop: Header=BB0_332 Depth=1
	@DEBUG_VALUE: HTTP_CGI_Handler:i <- $r10
	@DEBUG_VALUE: HTTP_CGI_Handler:x <- $r9
	@DEBUG_VALUE: HTTP_CGI_Handler:pcValue <- [$sp+0]
	@DEBUG_VALUE: HTTP_CGI_Handler:iNumParams <- [DW_OP_plus_uconst 8] [$sp+0]
	@DEBUG_VALUE: HTTP_CGI_Handler:pcParam <- [DW_OP_plus_uconst 4] [$sp+0]
	.loc	2 902 53 is_stmt 1      @ ../User/Http/httpd_cgi_ssi.c:902:53
	add.w	r0, r1, r9
	.loc	2 902 14 is_stmt 0      @ ../User/Http/httpd_cgi_ssi.c:902:14
	addw	r1, r9, #513
	movs	r2, #0
.Ltmp504:
.LBB0_340:                              @   Parent Loop BB0_332 Depth=1
                                        @ =>  This Inner Loop Header: Depth=2
	@DEBUG_VALUE: HTTP_CGI_Handler:i <- $r10
	@DEBUG_VALUE: HTTP_CGI_Handler:x <- $r9
	@DEBUG_VALUE: HTTP_CGI_Handler:pcValue <- [$sp+0]
	@DEBUG_VALUE: HTTP_CGI_Handler:iNumParams <- [DW_OP_plus_uconst 8] [$sp+0]
	@DEBUG_VALUE: HTTP_CGI_Handler:pcParam <- [DW_OP_plus_uconst 4] [$sp+0]
	@DEBUG_VALUE: HTTP_CGI_Handler:x <- undef
	.loc	2 902 53                @ ../User/Http/httpd_cgi_ssi.c:902:53
	ldr.w	r6, [r4, r10, lsl #2]
	ldrb	r3, [r6, r2]
	.loc	2 902 5                 @ ../User/Http/httpd_cgi_ssi.c:902:5
	cmp	r3, #0
	beq	.LBB0_330
.Ltmp505:
@ %bb.341:                              @   in Loop: Header=BB0_340 Depth=2
	@DEBUG_VALUE: HTTP_CGI_Handler:i <- $r10
	@DEBUG_VALUE: HTTP_CGI_Handler:pcValue <- [$sp+0]
	@DEBUG_VALUE: HTTP_CGI_Handler:iNumParams <- [DW_OP_plus_uconst 8] [$sp+0]
	@DEBUG_VALUE: HTTP_CGI_Handler:pcParam <- [DW_OP_plus_uconst 4] [$sp+0]
	.loc	2 904 55 is_stmt 1      @ ../User/Http/httpd_cgi_ssi.c:904:55
	adds	r3, r2, #1
.Ltmp506:
	@DEBUG_VALUE: HTTP_CGI_Handler:t <- $r3
	str	r3, [sp, #24]
	.loc	2 904 43 is_stmt 0      @ ../User/Http/httpd_cgi_ssi.c:904:43
	ldrb	r6, [r6, r2]
	.loc	2 904 31                @ ../User/Http/httpd_cgi_ssi.c:904:31
	strb	r6, [r0, r2]
.Ltmp507:
	@DEBUG_VALUE: HTTP_CGI_Handler:x <- [DW_OP_plus_uconst 1, DW_OP_stack_value] undef
	.loc	2 902 14 is_stmt 1      @ ../User/Http/httpd_cgi_ssi.c:902:14
	add	r2, r1
	.loc	2 902 49 is_stmt 0      @ ../User/Http/httpd_cgi_ssi.c:902:49
	cmp	r3, r2
	mov	r2, r3
	blo	.LBB0_340
.Ltmp508:
@ %bb.342:                              @   in Loop: Header=BB0_332 Depth=1
	@DEBUG_VALUE: HTTP_CGI_Handler:t <- $r3
	@DEBUG_VALUE: HTTP_CGI_Handler:i <- $r10
	@DEBUG_VALUE: HTTP_CGI_Handler:pcValue <- [$sp+0]
	@DEBUG_VALUE: HTTP_CGI_Handler:iNumParams <- [DW_OP_plus_uconst 8] [$sp+0]
	@DEBUG_VALUE: HTTP_CGI_Handler:pcParam <- [DW_OP_plus_uconst 4] [$sp+0]
	.loc	2 907 26 is_stmt 1      @ ../User/Http/httpd_cgi_ssi.c:907:26
	add.w	r0, r9, r3
	b	.LBB0_331
.Ltmp509:
.LBB0_343:                              @   in Loop: Header=BB0_332 Depth=1
	@DEBUG_VALUE: HTTP_CGI_Handler:i <- $r10
	@DEBUG_VALUE: HTTP_CGI_Handler:x <- $r9
	@DEBUG_VALUE: HTTP_CGI_Handler:pcValue <- [$sp+0]
	@DEBUG_VALUE: HTTP_CGI_Handler:iNumParams <- [DW_OP_plus_uconst 8] [$sp+0]
	@DEBUG_VALUE: HTTP_CGI_Handler:pcParam <- [DW_OP_plus_uconst 4] [$sp+0]
	.loc	2 0 26 is_stmt 0        @ ../User/Http/httpd_cgi_ssi.c:0:26
	movw	r3, :lower16:rubicon_ctrl_buffer
	movt	r3, :upper16:rubicon_ctrl_buffer
	mov	r0, r3
.Ltmp510:
	.loc	2 833 14 is_stmt 1      @ ../User/Http/httpd_cgi_ssi.c:833:14
	str	r3, [r7]
.Ltmp511:
.LBB0_344:                              @   Parent Loop BB0_332 Depth=1
                                        @ =>  This Inner Loop Header: Depth=2
	@DEBUG_VALUE: HTTP_CGI_Handler:i <- $r10
	@DEBUG_VALUE: HTTP_CGI_Handler:x <- $r9
	@DEBUG_VALUE: HTTP_CGI_Handler:pcValue <- [$sp+0]
	@DEBUG_VALUE: HTTP_CGI_Handler:iNumParams <- [DW_OP_plus_uconst 8] [$sp+0]
	@DEBUG_VALUE: HTTP_CGI_Handler:pcParam <- [DW_OP_plus_uconst 4] [$sp+0]
	.loc	2 834 82                @ ../User/Http/httpd_cgi_ssi.c:834:82
	adds	r1, r0, #1
	str	r1, [r7]
	.loc	2 834 85 is_stmt 0      @ ../User/Http/httpd_cgi_ssi.c:834:85
	strb	r5, [r0]
	.loc	2 834 11                @ ../User/Http/httpd_cgi_ssi.c:834:11
	ldr	r0, [r7]
	.loc	2 834 5                 @ ../User/Http/httpd_cgi_ssi.c:834:5
	cmp	r0, r11
	blo	.LBB0_344
.Ltmp512:
@ %bb.345:                              @   in Loop: Header=BB0_332 Depth=1
	@DEBUG_VALUE: HTTP_CGI_Handler:i <- $r10
	@DEBUG_VALUE: HTTP_CGI_Handler:x <- $r9
	@DEBUG_VALUE: HTTP_CGI_Handler:pcValue <- [$sp+0]
	@DEBUG_VALUE: HTTP_CGI_Handler:iNumParams <- [DW_OP_plus_uconst 8] [$sp+0]
	@DEBUG_VALUE: HTTP_CGI_Handler:pcParam <- [DW_OP_plus_uconst 4] [$sp+0]
	.loc	2 0 5                   @ ../User/Http/httpd_cgi_ssi.c:0:5
	ldr	r2, [sp]                @ 4-byte Reload
	movs	r0, #0
.Ltmp513:
	@DEBUG_VALUE: HTTP_CGI_Handler:x <- 0
.LBB0_346:                              @   Parent Loop BB0_332 Depth=1
                                        @ =>  This Inner Loop Header: Depth=2
	@DEBUG_VALUE: HTTP_CGI_Handler:i <- $r10
	@DEBUG_VALUE: HTTP_CGI_Handler:pcValue <- [$sp+0]
	@DEBUG_VALUE: HTTP_CGI_Handler:iNumParams <- [DW_OP_plus_uconst 8] [$sp+0]
	@DEBUG_VALUE: HTTP_CGI_Handler:pcParam <- [DW_OP_plus_uconst 4] [$sp+0]
	@DEBUG_VALUE: HTTP_CGI_Handler:x <- $r0
	.loc	2 837 49 is_stmt 1      @ ../User/Http/httpd_cgi_ssi.c:837:49
	ldr.w	r1, [r2, r10, lsl #2]
	ldrb	r1, [r1, r0]
	cbz	r1, .LBB0_348
.Ltmp514:
@ %bb.347:                              @   in Loop: Header=BB0_346 Depth=2
	@DEBUG_VALUE: HTTP_CGI_Handler:x <- $r0
	@DEBUG_VALUE: HTTP_CGI_Handler:i <- $r10
	@DEBUG_VALUE: HTTP_CGI_Handler:pcValue <- [$sp+0]
	@DEBUG_VALUE: HTTP_CGI_Handler:iNumParams <- [DW_OP_plus_uconst 8] [$sp+0]
	@DEBUG_VALUE: HTTP_CGI_Handler:pcParam <- [DW_OP_plus_uconst 4] [$sp+0]
	.loc	2 839 29                @ ../User/Http/httpd_cgi_ssi.c:839:29
	strb	r1, [r3, r0]
	.loc	2 840 7                 @ ../User/Http/httpd_cgi_ssi.c:840:7
	adds	r0, #1
.Ltmp515:
	@DEBUG_VALUE: HTTP_CGI_Handler:x <- $r0
	.loc	2 837 45                @ ../User/Http/httpd_cgi_ssi.c:837:45
	cmp.w	r0, #512
	blo	.LBB0_346
.Ltmp516:
.LBB0_348:                              @   in Loop: Header=BB0_332 Depth=1
	@DEBUG_VALUE: HTTP_CGI_Handler:x <- $r0
	@DEBUG_VALUE: HTTP_CGI_Handler:i <- $r10
	@DEBUG_VALUE: HTTP_CGI_Handler:pcValue <- [$sp+0]
	@DEBUG_VALUE: HTTP_CGI_Handler:iNumParams <- [DW_OP_plus_uconst 8] [$sp+0]
	@DEBUG_VALUE: HTTP_CGI_Handler:pcParam <- [DW_OP_plus_uconst 4] [$sp+0]
	@DEBUG_VALUE: HTTP_CGI_Handler:x <- $r0
	.loc	2 843 28                @ ../User/Http/httpd_cgi_ssi.c:843:28
	strb	r5, [r3, r0]
	.loc	2 844 6                 @ ../User/Http/httpd_cgi_ssi.c:844:6
	add.w	r9, r0, #1
.Ltmp517:
	@DEBUG_VALUE: HTTP_CGI_Handler:x <- $r9
	.loc	2 0 6 is_stmt 0         @ ../User/Http/httpd_cgi_ssi.c:0:6
	b	.LBB0_368
.Ltmp518:
.LBB0_349:                              @   in Loop: Header=BB0_332 Depth=1
	@DEBUG_VALUE: HTTP_CGI_Handler:i <- $r10
	@DEBUG_VALUE: HTTP_CGI_Handler:x <- $r9
	@DEBUG_VALUE: HTTP_CGI_Handler:pcValue <- [$sp+0]
	@DEBUG_VALUE: HTTP_CGI_Handler:iNumParams <- [DW_OP_plus_uconst 8] [$sp+0]
	@DEBUG_VALUE: HTTP_CGI_Handler:pcParam <- [DW_OP_plus_uconst 4] [$sp+0]
	@DEBUG_VALUE: HTTP_CGI_Handler:t <- 0
	movw	r0, #65024
	ldr	r4, [sp]                @ 4-byte Reload
.Ltmp519:
	.loc	2 850 49 is_stmt 1      @ ../User/Http/httpd_cgi_ssi.c:850:49
	cmn.w	r9, #512
	.loc	2 848 7                 @ ../User/Http/httpd_cgi_ssi.c:848:7
	str	r5, [sp, #24]
.Ltmp520:
	.loc	2 0 0 is_stmt 0         @ ../User/Http/httpd_cgi_ssi.c:0:0
	movt	r0, #65535
.Ltmp521:
	.loc	2 850 49 is_stmt 1      @ ../User/Http/httpd_cgi_ssi.c:850:49
	beq	.LBB0_367
.Ltmp522:
@ %bb.350:                              @   in Loop: Header=BB0_332 Depth=1
	@DEBUG_VALUE: HTTP_CGI_Handler:i <- $r10
	@DEBUG_VALUE: HTTP_CGI_Handler:x <- $r9
	@DEBUG_VALUE: HTTP_CGI_Handler:pcValue <- [$sp+0]
	@DEBUG_VALUE: HTTP_CGI_Handler:iNumParams <- [DW_OP_plus_uconst 8] [$sp+0]
	@DEBUG_VALUE: HTTP_CGI_Handler:pcParam <- [DW_OP_plus_uconst 4] [$sp+0]
	.loc	2 850 53 is_stmt 0      @ ../User/Http/httpd_cgi_ssi.c:850:53
	movw	r0, :lower16:rubicon_ctrl_buffer
	.loc	2 850 14                @ ../User/Http/httpd_cgi_ssi.c:850:14
	addw	r1, r9, #513
	movs	r2, #0
	.loc	2 850 53                @ ../User/Http/httpd_cgi_ssi.c:850:53
	movt	r0, :upper16:rubicon_ctrl_buffer
	add	r0, r9
.Ltmp523:
.LBB0_351:                              @   Parent Loop BB0_332 Depth=1
                                        @ =>  This Inner Loop Header: Depth=2
	@DEBUG_VALUE: HTTP_CGI_Handler:i <- $r10
	@DEBUG_VALUE: HTTP_CGI_Handler:x <- $r9
	@DEBUG_VALUE: HTTP_CGI_Handler:pcValue <- [$sp+0]
	@DEBUG_VALUE: HTTP_CGI_Handler:iNumParams <- [DW_OP_plus_uconst 8] [$sp+0]
	@DEBUG_VALUE: HTTP_CGI_Handler:pcParam <- [DW_OP_plus_uconst 4] [$sp+0]
	@DEBUG_VALUE: HTTP_CGI_Handler:x <- undef
	ldr.w	r6, [r4, r10, lsl #2]
	ldrb	r3, [r6, r2]
	.loc	2 850 5                 @ ../User/Http/httpd_cgi_ssi.c:850:5
	cmp	r3, #0
	beq	.LBB0_366
.Ltmp524:
@ %bb.352:                              @   in Loop: Header=BB0_351 Depth=2
	@DEBUG_VALUE: HTTP_CGI_Handler:i <- $r10
	@DEBUG_VALUE: HTTP_CGI_Handler:pcValue <- [$sp+0]
	@DEBUG_VALUE: HTTP_CGI_Handler:iNumParams <- [DW_OP_plus_uconst 8] [$sp+0]
	@DEBUG_VALUE: HTTP_CGI_Handler:pcParam <- [DW_OP_plus_uconst 4] [$sp+0]
	.loc	2 852 55 is_stmt 1      @ ../User/Http/httpd_cgi_ssi.c:852:55
	adds	r3, r2, #1
.Ltmp525:
	@DEBUG_VALUE: HTTP_CGI_Handler:t <- $r3
	str	r3, [sp, #24]
	.loc	2 852 43 is_stmt 0      @ ../User/Http/httpd_cgi_ssi.c:852:43
	ldrb	r6, [r6, r2]
	.loc	2 852 31                @ ../User/Http/httpd_cgi_ssi.c:852:31
	strb	r6, [r0, r2]
.Ltmp526:
	@DEBUG_VALUE: HTTP_CGI_Handler:x <- [DW_OP_plus_uconst 1, DW_OP_stack_value] undef
	.loc	2 850 14 is_stmt 1      @ ../User/Http/httpd_cgi_ssi.c:850:14
	add	r2, r1
	.loc	2 850 49 is_stmt 0      @ ../User/Http/httpd_cgi_ssi.c:850:49
	cmp	r3, r2
	mov	r2, r3
	blo	.LBB0_351
	b	.LBB0_365
.Ltmp527:
.LBB0_353:                              @   in Loop: Header=BB0_332 Depth=1
	@DEBUG_VALUE: HTTP_CGI_Handler:i <- $r10
	@DEBUG_VALUE: HTTP_CGI_Handler:x <- $r9
	@DEBUG_VALUE: HTTP_CGI_Handler:pcValue <- [$sp+0]
	@DEBUG_VALUE: HTTP_CGI_Handler:iNumParams <- [DW_OP_plus_uconst 8] [$sp+0]
	@DEBUG_VALUE: HTTP_CGI_Handler:pcParam <- [DW_OP_plus_uconst 4] [$sp+0]
	@DEBUG_VALUE: HTTP_CGI_Handler:t <- 0
	.loc	2 0 0                   @ ../User/Http/httpd_cgi_ssi.c:0:0
	movw	r0, #65024
	ldr	r4, [sp]                @ 4-byte Reload
.Ltmp528:
	.loc	2 863 49 is_stmt 1      @ ../User/Http/httpd_cgi_ssi.c:863:49
	cmn.w	r9, #512
	.loc	2 861 7                 @ ../User/Http/httpd_cgi_ssi.c:861:7
	str	r5, [sp, #24]
.Ltmp529:
	.loc	2 0 0 is_stmt 0         @ ../User/Http/httpd_cgi_ssi.c:0:0
	movt	r0, #65535
.Ltmp530:
	.loc	2 863 49 is_stmt 1      @ ../User/Http/httpd_cgi_ssi.c:863:49
	beq	.LBB0_367
.Ltmp531:
@ %bb.354:                              @   in Loop: Header=BB0_332 Depth=1
	@DEBUG_VALUE: HTTP_CGI_Handler:i <- $r10
	@DEBUG_VALUE: HTTP_CGI_Handler:x <- $r9
	@DEBUG_VALUE: HTTP_CGI_Handler:pcValue <- [$sp+0]
	@DEBUG_VALUE: HTTP_CGI_Handler:iNumParams <- [DW_OP_plus_uconst 8] [$sp+0]
	@DEBUG_VALUE: HTTP_CGI_Handler:pcParam <- [DW_OP_plus_uconst 4] [$sp+0]
	.loc	2 863 53 is_stmt 0      @ ../User/Http/httpd_cgi_ssi.c:863:53
	movw	r0, :lower16:rubicon_ctrl_buffer
	.loc	2 863 14                @ ../User/Http/httpd_cgi_ssi.c:863:14
	addw	r1, r9, #513
	movs	r2, #0
	.loc	2 863 53                @ ../User/Http/httpd_cgi_ssi.c:863:53
	movt	r0, :upper16:rubicon_ctrl_buffer
	add	r0, r9
.Ltmp532:
.LBB0_355:                              @   Parent Loop BB0_332 Depth=1
                                        @ =>  This Inner Loop Header: Depth=2
	@DEBUG_VALUE: HTTP_CGI_Handler:i <- $r10
	@DEBUG_VALUE: HTTP_CGI_Handler:x <- $r9
	@DEBUG_VALUE: HTTP_CGI_Handler:pcValue <- [$sp+0]
	@DEBUG_VALUE: HTTP_CGI_Handler:iNumParams <- [DW_OP_plus_uconst 8] [$sp+0]
	@DEBUG_VALUE: HTTP_CGI_Handler:pcParam <- [DW_OP_plus_uconst 4] [$sp+0]
	@DEBUG_VALUE: HTTP_CGI_Handler:x <- undef
	ldr.w	r6, [r4, r10, lsl #2]
	ldrb	r3, [r6, r2]
	.loc	2 863 5                 @ ../User/Http/httpd_cgi_ssi.c:863:5
	cmp	r3, #0
	beq	.LBB0_366
.Ltmp533:
@ %bb.356:                              @   in Loop: Header=BB0_355 Depth=2
	@DEBUG_VALUE: HTTP_CGI_Handler:i <- $r10
	@DEBUG_VALUE: HTTP_CGI_Handler:pcValue <- [$sp+0]
	@DEBUG_VALUE: HTTP_CGI_Handler:iNumParams <- [DW_OP_plus_uconst 8] [$sp+0]
	@DEBUG_VALUE: HTTP_CGI_Handler:pcParam <- [DW_OP_plus_uconst 4] [$sp+0]
	.loc	2 865 55 is_stmt 1      @ ../User/Http/httpd_cgi_ssi.c:865:55
	adds	r3, r2, #1
.Ltmp534:
	@DEBUG_VALUE: HTTP_CGI_Handler:t <- $r3
	str	r3, [sp, #24]
	.loc	2 865 43 is_stmt 0      @ ../User/Http/httpd_cgi_ssi.c:865:43
	ldrb	r6, [r6, r2]
	.loc	2 865 31                @ ../User/Http/httpd_cgi_ssi.c:865:31
	strb	r6, [r0, r2]
.Ltmp535:
	@DEBUG_VALUE: HTTP_CGI_Handler:x <- [DW_OP_plus_uconst 1, DW_OP_stack_value] undef
	.loc	2 863 14 is_stmt 1      @ ../User/Http/httpd_cgi_ssi.c:863:14
	add	r2, r1
	.loc	2 863 49 is_stmt 0      @ ../User/Http/httpd_cgi_ssi.c:863:49
	cmp	r3, r2
	mov	r2, r3
	blo	.LBB0_355
	b	.LBB0_365
.Ltmp536:
.LBB0_357:                              @   in Loop: Header=BB0_332 Depth=1
	@DEBUG_VALUE: HTTP_CGI_Handler:i <- $r10
	@DEBUG_VALUE: HTTP_CGI_Handler:x <- $r9
	@DEBUG_VALUE: HTTP_CGI_Handler:pcValue <- [$sp+0]
	@DEBUG_VALUE: HTTP_CGI_Handler:iNumParams <- [DW_OP_plus_uconst 8] [$sp+0]
	@DEBUG_VALUE: HTTP_CGI_Handler:pcParam <- [DW_OP_plus_uconst 4] [$sp+0]
	@DEBUG_VALUE: HTTP_CGI_Handler:t <- 0
	.loc	2 0 0                   @ ../User/Http/httpd_cgi_ssi.c:0:0
	movw	r0, #65024
	ldr	r4, [sp]                @ 4-byte Reload
.Ltmp537:
	.loc	2 876 49 is_stmt 1      @ ../User/Http/httpd_cgi_ssi.c:876:49
	cmn.w	r9, #512
	.loc	2 874 7                 @ ../User/Http/httpd_cgi_ssi.c:874:7
	str	r5, [sp, #24]
.Ltmp538:
	.loc	2 0 0 is_stmt 0         @ ../User/Http/httpd_cgi_ssi.c:0:0
	movt	r0, #65535
.Ltmp539:
	.loc	2 876 49 is_stmt 1      @ ../User/Http/httpd_cgi_ssi.c:876:49
	beq	.LBB0_367
.Ltmp540:
@ %bb.358:                              @   in Loop: Header=BB0_332 Depth=1
	@DEBUG_VALUE: HTTP_CGI_Handler:i <- $r10
	@DEBUG_VALUE: HTTP_CGI_Handler:x <- $r9
	@DEBUG_VALUE: HTTP_CGI_Handler:pcValue <- [$sp+0]
	@DEBUG_VALUE: HTTP_CGI_Handler:iNumParams <- [DW_OP_plus_uconst 8] [$sp+0]
	@DEBUG_VALUE: HTTP_CGI_Handler:pcParam <- [DW_OP_plus_uconst 4] [$sp+0]
	.loc	2 876 53 is_stmt 0      @ ../User/Http/httpd_cgi_ssi.c:876:53
	movw	r0, :lower16:rubicon_ctrl_buffer
	.loc	2 876 14                @ ../User/Http/httpd_cgi_ssi.c:876:14
	addw	r1, r9, #513
	movs	r2, #0
	.loc	2 876 53                @ ../User/Http/httpd_cgi_ssi.c:876:53
	movt	r0, :upper16:rubicon_ctrl_buffer
	add	r0, r9
.Ltmp541:
.LBB0_359:                              @   Parent Loop BB0_332 Depth=1
                                        @ =>  This Inner Loop Header: Depth=2
	@DEBUG_VALUE: HTTP_CGI_Handler:i <- $r10
	@DEBUG_VALUE: HTTP_CGI_Handler:x <- $r9
	@DEBUG_VALUE: HTTP_CGI_Handler:pcValue <- [$sp+0]
	@DEBUG_VALUE: HTTP_CGI_Handler:iNumParams <- [DW_OP_plus_uconst 8] [$sp+0]
	@DEBUG_VALUE: HTTP_CGI_Handler:pcParam <- [DW_OP_plus_uconst 4] [$sp+0]
	@DEBUG_VALUE: HTTP_CGI_Handler:x <- undef
	ldr.w	r6, [r4, r10, lsl #2]
	ldrb	r3, [r6, r2]
	.loc	2 876 5                 @ ../User/Http/httpd_cgi_ssi.c:876:5
	cbz	r3, .LBB0_366
.Ltmp542:
@ %bb.360:                              @   in Loop: Header=BB0_359 Depth=2
	@DEBUG_VALUE: HTTP_CGI_Handler:i <- $r10
	@DEBUG_VALUE: HTTP_CGI_Handler:pcValue <- [$sp+0]
	@DEBUG_VALUE: HTTP_CGI_Handler:iNumParams <- [DW_OP_plus_uconst 8] [$sp+0]
	@DEBUG_VALUE: HTTP_CGI_Handler:pcParam <- [DW_OP_plus_uconst 4] [$sp+0]
	.loc	2 878 55 is_stmt 1      @ ../User/Http/httpd_cgi_ssi.c:878:55
	adds	r3, r2, #1
.Ltmp543:
	@DEBUG_VALUE: HTTP_CGI_Handler:t <- $r3
	str	r3, [sp, #24]
	.loc	2 878 43 is_stmt 0      @ ../User/Http/httpd_cgi_ssi.c:878:43
	ldrb	r6, [r6, r2]
	.loc	2 878 31                @ ../User/Http/httpd_cgi_ssi.c:878:31
	strb	r6, [r0, r2]
.Ltmp544:
	@DEBUG_VALUE: HTTP_CGI_Handler:x <- [DW_OP_plus_uconst 1, DW_OP_stack_value] undef
	.loc	2 876 14 is_stmt 1      @ ../User/Http/httpd_cgi_ssi.c:876:14
	add	r2, r1
	.loc	2 876 49 is_stmt 0      @ ../User/Http/httpd_cgi_ssi.c:876:49
	cmp	r3, r2
	mov	r2, r3
	blo	.LBB0_359
	b	.LBB0_365
.Ltmp545:
.LBB0_361:                              @   in Loop: Header=BB0_332 Depth=1
	@DEBUG_VALUE: HTTP_CGI_Handler:i <- $r10
	@DEBUG_VALUE: HTTP_CGI_Handler:x <- $r9
	@DEBUG_VALUE: HTTP_CGI_Handler:pcValue <- [$sp+0]
	@DEBUG_VALUE: HTTP_CGI_Handler:iNumParams <- [DW_OP_plus_uconst 8] [$sp+0]
	@DEBUG_VALUE: HTTP_CGI_Handler:pcParam <- [DW_OP_plus_uconst 4] [$sp+0]
	@DEBUG_VALUE: HTTP_CGI_Handler:t <- 0
	.loc	2 0 0                   @ ../User/Http/httpd_cgi_ssi.c:0:0
	movw	r0, #65024
	ldr	r4, [sp]                @ 4-byte Reload
.Ltmp546:
	.loc	2 889 49 is_stmt 1      @ ../User/Http/httpd_cgi_ssi.c:889:49
	cmn.w	r9, #512
	.loc	2 887 7                 @ ../User/Http/httpd_cgi_ssi.c:887:7
	str	r5, [sp, #24]
.Ltmp547:
	.loc	2 0 0 is_stmt 0         @ ../User/Http/httpd_cgi_ssi.c:0:0
	movt	r0, #65535
.Ltmp548:
	.loc	2 889 49 is_stmt 1      @ ../User/Http/httpd_cgi_ssi.c:889:49
	beq	.LBB0_367
.Ltmp549:
@ %bb.362:                              @   in Loop: Header=BB0_332 Depth=1
	@DEBUG_VALUE: HTTP_CGI_Handler:i <- $r10
	@DEBUG_VALUE: HTTP_CGI_Handler:x <- $r9
	@DEBUG_VALUE: HTTP_CGI_Handler:pcValue <- [$sp+0]
	@DEBUG_VALUE: HTTP_CGI_Handler:iNumParams <- [DW_OP_plus_uconst 8] [$sp+0]
	@DEBUG_VALUE: HTTP_CGI_Handler:pcParam <- [DW_OP_plus_uconst 4] [$sp+0]
	.loc	2 889 53 is_stmt 0      @ ../User/Http/httpd_cgi_ssi.c:889:53
	movw	r0, :lower16:rubicon_ctrl_buffer
	.loc	2 889 14                @ ../User/Http/httpd_cgi_ssi.c:889:14
	addw	r1, r9, #513
	movs	r2, #0
	.loc	2 889 53                @ ../User/Http/httpd_cgi_ssi.c:889:53
	movt	r0, :upper16:rubicon_ctrl_buffer
	add	r0, r9
.Ltmp550:
.LBB0_363:                              @   Parent Loop BB0_332 Depth=1
                                        @ =>  This Inner Loop Header: Depth=2
	@DEBUG_VALUE: HTTP_CGI_Handler:i <- $r10
	@DEBUG_VALUE: HTTP_CGI_Handler:x <- $r9
	@DEBUG_VALUE: HTTP_CGI_Handler:pcValue <- [$sp+0]
	@DEBUG_VALUE: HTTP_CGI_Handler:iNumParams <- [DW_OP_plus_uconst 8] [$sp+0]
	@DEBUG_VALUE: HTTP_CGI_Handler:pcParam <- [DW_OP_plus_uconst 4] [$sp+0]
	@DEBUG_VALUE: HTTP_CGI_Handler:x <- undef
	ldr.w	r6, [r4, r10, lsl #2]
	ldrb	r3, [r6, r2]
	.loc	2 889 5                 @ ../User/Http/httpd_cgi_ssi.c:889:5
	cbz	r3, .LBB0_366
.Ltmp551:
@ %bb.364:                              @   in Loop: Header=BB0_363 Depth=2
	@DEBUG_VALUE: HTTP_CGI_Handler:i <- $r10
	@DEBUG_VALUE: HTTP_CGI_Handler:pcValue <- [$sp+0]
	@DEBUG_VALUE: HTTP_CGI_Handler:iNumParams <- [DW_OP_plus_uconst 8] [$sp+0]
	@DEBUG_VALUE: HTTP_CGI_Handler:pcParam <- [DW_OP_plus_uconst 4] [$sp+0]
	.loc	2 891 55 is_stmt 1      @ ../User/Http/httpd_cgi_ssi.c:891:55
	adds	r3, r2, #1
.Ltmp552:
	@DEBUG_VALUE: HTTP_CGI_Handler:t <- $r3
	str	r3, [sp, #24]
	.loc	2 891 43 is_stmt 0      @ ../User/Http/httpd_cgi_ssi.c:891:43
	ldrb	r6, [r6, r2]
	.loc	2 891 31                @ ../User/Http/httpd_cgi_ssi.c:891:31
	strb	r6, [r0, r2]
.Ltmp553:
	@DEBUG_VALUE: HTTP_CGI_Handler:x <- [DW_OP_plus_uconst 1, DW_OP_stack_value] undef
	.loc	2 889 14 is_stmt 1      @ ../User/Http/httpd_cgi_ssi.c:889:14
	add	r2, r1
	.loc	2 889 49 is_stmt 0      @ ../User/Http/httpd_cgi_ssi.c:889:49
	cmp	r3, r2
	mov	r2, r3
	blo	.LBB0_363
.Ltmp554:
.LBB0_365:                              @   in Loop: Header=BB0_332 Depth=1
	@DEBUG_VALUE: HTTP_CGI_Handler:t <- $r3
	@DEBUG_VALUE: HTTP_CGI_Handler:i <- $r10
	@DEBUG_VALUE: HTTP_CGI_Handler:pcValue <- [$sp+0]
	@DEBUG_VALUE: HTTP_CGI_Handler:iNumParams <- [DW_OP_plus_uconst 8] [$sp+0]
	@DEBUG_VALUE: HTTP_CGI_Handler:pcParam <- [DW_OP_plus_uconst 4] [$sp+0]
	.loc	2 0 0                   @ ../User/Http/httpd_cgi_ssi.c:0:0
	add.w	r0, r9, r3
	b	.LBB0_367
.Ltmp555:
.LBB0_366:                              @   in Loop: Header=BB0_332 Depth=1
	@DEBUG_VALUE: HTTP_CGI_Handler:i <- $r10
	@DEBUG_VALUE: HTTP_CGI_Handler:pcValue <- [$sp+0]
	@DEBUG_VALUE: HTTP_CGI_Handler:iNumParams <- [DW_OP_plus_uconst 8] [$sp+0]
	@DEBUG_VALUE: HTTP_CGI_Handler:pcParam <- [DW_OP_plus_uconst 4] [$sp+0]
	add.w	r0, r9, r2
.Ltmp556:
.LBB0_367:                              @   in Loop: Header=BB0_332 Depth=1
	@DEBUG_VALUE: HTTP_CGI_Handler:i <- $r10
	@DEBUG_VALUE: HTTP_CGI_Handler:pcValue <- [$sp+0]
	@DEBUG_VALUE: HTTP_CGI_Handler:iNumParams <- [DW_OP_plus_uconst 8] [$sp+0]
	@DEBUG_VALUE: HTTP_CGI_Handler:pcParam <- [DW_OP_plus_uconst 4] [$sp+0]
	@DEBUG_VALUE: HTTP_CGI_Handler:x <- $r0
	movw	r1, :lower16:rubicon_ctrl_buffer
	add.w	r9, r0, #1
.Ltmp557:
	@DEBUG_VALUE: HTTP_CGI_Handler:x <- $r9
	movt	r1, :upper16:rubicon_ctrl_buffer
	strb	r5, [r1, r0]
.Ltmp558:
.LBB0_368:                              @   in Loop: Header=BB0_332 Depth=1
	@DEBUG_VALUE: HTTP_CGI_Handler:i <- $r10
	@DEBUG_VALUE: HTTP_CGI_Handler:x <- $r9
	@DEBUG_VALUE: HTTP_CGI_Handler:pcValue <- [$sp+0]
	@DEBUG_VALUE: HTTP_CGI_Handler:iNumParams <- [DW_OP_plus_uconst 8] [$sp+0]
	@DEBUG_VALUE: HTTP_CGI_Handler:pcParam <- [DW_OP_plus_uconst 4] [$sp+0]
	@DEBUG_VALUE: HTTP_CGI_Handler:x <- $r9
	.loc	2 829 3 is_stmt 1       @ ../User/Http/httpd_cgi_ssi.c:829:3
	ldr	r0, [sp, #8]            @ 4-byte Reload
.Ltmp559:
	.loc	2 829 32 is_stmt 0      @ ../User/Http/httpd_cgi_ssi.c:829:32
	add.w	r10, r10, #1
.Ltmp560:
	@DEBUG_VALUE: HTTP_CGI_Handler:i <- $r10
	.loc	2 829 3                 @ ../User/Http/httpd_cgi_ssi.c:829:3
	cmp	r10, r0
	bne.w	.LBB0_332
.Ltmp561:
@ %bb.369:
	@DEBUG_VALUE: HTTP_CGI_Handler:i <- $r10
	@DEBUG_VALUE: HTTP_CGI_Handler:x <- $r9
	@DEBUG_VALUE: HTTP_CGI_Handler:pcValue <- [$sp+0]
	@DEBUG_VALUE: HTTP_CGI_Handler:iNumParams <- [DW_OP_plus_uconst 8] [$sp+0]
	@DEBUG_VALUE: HTTP_CGI_Handler:pcParam <- [DW_OP_plus_uconst 4] [$sp+0]
	@DEBUG_VALUE: HTTP_CGI_Handler:i <- 0
	.loc	2 911 9 is_stmt 1       @ ../User/Http/httpd_cgi_ssi.c:911:9
	ldr	r0, [sp, #8]            @ 4-byte Reload
	cmp	r0, #0
	beq.w	.LBB0_3
.Ltmp562:
@ %bb.370:
	@DEBUG_VALUE: HTTP_CGI_Handler:x <- $r9
	@DEBUG_VALUE: HTTP_CGI_Handler:pcValue <- [$sp+0]
	@DEBUG_VALUE: HTTP_CGI_Handler:iNumParams <- [DW_OP_plus_uconst 8] [$sp+0]
	@DEBUG_VALUE: HTTP_CGI_Handler:pcParam <- [DW_OP_plus_uconst 4] [$sp+0]
	.loc	2 0 9 is_stmt 0         @ ../User/Http/httpd_cgi_ssi.c:0:9
	movs	r6, #0
	adr.w	r8, .LCPI0_44
	adr.w	r10, .LCPI0_45
	movs	r5, #0
.Ltmp563:
.LBB0_371:                              @ =>This Loop Header: Depth=1
                                        @     Child Loop BB0_374 Depth 2
                                        @     Child Loop BB0_376 Depth 2
                                        @     Child Loop BB0_392 Depth 2
                                        @     Child Loop BB0_379 Depth 2
                                        @     Child Loop BB0_381 Depth 2
                                        @     Child Loop BB0_386 Depth 2
	@DEBUG_VALUE: HTTP_CGI_Handler:x <- $r9
	@DEBUG_VALUE: HTTP_CGI_Handler:pcValue <- [$sp+0]
	@DEBUG_VALUE: HTTP_CGI_Handler:iNumParams <- [DW_OP_plus_uconst 8] [$sp+0]
	@DEBUG_VALUE: HTTP_CGI_Handler:pcParam <- [DW_OP_plus_uconst 4] [$sp+0]
	@DEBUG_VALUE: HTTP_CGI_Handler:i <- $r5
	@DEBUG_VALUE: HTTP_CGI_Handler:x <- $r9
	.loc	2 913 24 is_stmt 1      @ ../User/Http/httpd_cgi_ssi.c:913:24
	ldr	r0, [sp, #4]            @ 4-byte Reload
	.loc	2 913 17 is_stmt 0      @ ../User/Http/httpd_cgi_ssi.c:913:17
	mov	r1, r8
	.loc	2 913 24                @ ../User/Http/httpd_cgi_ssi.c:913:24
	ldr.w	r4, [r0, r5, lsl #2]
	.loc	2 913 17                @ ../User/Http/httpd_cgi_ssi.c:913:17
	mov	r0, r4
	bl	strcmp
	cbz	r0, .LBB0_378
.Ltmp564:
@ %bb.372:                              @   in Loop: Header=BB0_371 Depth=1
	@DEBUG_VALUE: HTTP_CGI_Handler:i <- $r5
	@DEBUG_VALUE: HTTP_CGI_Handler:x <- $r9
	@DEBUG_VALUE: HTTP_CGI_Handler:pcValue <- [$sp+0]
	@DEBUG_VALUE: HTTP_CGI_Handler:iNumParams <- [DW_OP_plus_uconst 8] [$sp+0]
	@DEBUG_VALUE: HTTP_CGI_Handler:pcParam <- [DW_OP_plus_uconst 4] [$sp+0]
	.loc	2 932 13 is_stmt 1      @ ../User/Http/httpd_cgi_ssi.c:932:13
	mov	r0, r4
	mov	r1, r10
	bl	strcmp
.Ltmp565:
	.loc	2 932 13 is_stmt 0      @ ../User/Http/httpd_cgi_ssi.c:932:13
	cmp	r0, #0
	movw	r0, :lower16:rubicon_ctrl_buffer
	movt	r0, :upper16:rubicon_ctrl_buffer
	bne.w	.LBB0_401
.Ltmp566:
@ %bb.373:                              @   in Loop: Header=BB0_371 Depth=1
	@DEBUG_VALUE: HTTP_CGI_Handler:i <- $r5
	@DEBUG_VALUE: HTTP_CGI_Handler:x <- $r9
	@DEBUG_VALUE: HTTP_CGI_Handler:pcValue <- [$sp+0]
	@DEBUG_VALUE: HTTP_CGI_Handler:iNumParams <- [DW_OP_plus_uconst 8] [$sp+0]
	@DEBUG_VALUE: HTTP_CGI_Handler:pcParam <- [DW_OP_plus_uconst 4] [$sp+0]
	.loc	2 0 13                  @ ../User/Http/httpd_cgi_ssi.c:0:13
	mov	r2, r0
.Ltmp567:
	.loc	2 934 26 is_stmt 1      @ ../User/Http/httpd_cgi_ssi.c:934:26
	str	r0, [r7]
.Ltmp568:
.LBB0_374:                              @   Parent Loop BB0_371 Depth=1
                                        @ =>  This Inner Loop Header: Depth=2
	@DEBUG_VALUE: HTTP_CGI_Handler:i <- $r5
	@DEBUG_VALUE: HTTP_CGI_Handler:x <- $r9
	@DEBUG_VALUE: HTTP_CGI_Handler:pcValue <- [$sp+0]
	@DEBUG_VALUE: HTTP_CGI_Handler:iNumParams <- [DW_OP_plus_uconst 8] [$sp+0]
	@DEBUG_VALUE: HTTP_CGI_Handler:pcParam <- [DW_OP_plus_uconst 4] [$sp+0]
	.loc	2 935 96                @ ../User/Http/httpd_cgi_ssi.c:935:96
	adds	r1, r2, #1
	str	r1, [r7]
	.loc	2 935 99 is_stmt 0      @ ../User/Http/httpd_cgi_ssi.c:935:99
	strb	r6, [r2]
	.loc	2 935 24                @ ../User/Http/httpd_cgi_ssi.c:935:24
	ldr	r2, [r7]
	.loc	2 935 17                @ ../User/Http/httpd_cgi_ssi.c:935:17
	cmp	r2, r11
	blo	.LBB0_374
.Ltmp569:
@ %bb.375:                              @   in Loop: Header=BB0_371 Depth=1
	@DEBUG_VALUE: HTTP_CGI_Handler:i <- $r5
	@DEBUG_VALUE: HTTP_CGI_Handler:x <- $r9
	@DEBUG_VALUE: HTTP_CGI_Handler:pcValue <- [$sp+0]
	@DEBUG_VALUE: HTTP_CGI_Handler:iNumParams <- [DW_OP_plus_uconst 8] [$sp+0]
	@DEBUG_VALUE: HTTP_CGI_Handler:pcParam <- [DW_OP_plus_uconst 4] [$sp+0]
	@DEBUG_VALUE: HTTP_CGI_Handler:x <- 0
	.loc	2 938 34 is_stmt 1      @ ../User/Http/httpd_cgi_ssi.c:938:34
	movw	r1, :lower16:rs485_broadcast_address
	movt	r1, :upper16:rs485_broadcast_address
	ldrh	r1, [r1]
	.loc	2 938 5 is_stmt 0       @ ../User/Http/httpd_cgi_ssi.c:938:5
	bl	Int2Str
	movw	r1, :lower16:rubicon_ctrl_buffer
	ldr	r4, [sp]                @ 4-byte Reload
	mov.w	r9, #0
	movt	r1, :upper16:rubicon_ctrl_buffer
.Ltmp570:
.LBB0_376:                              @   Parent Loop BB0_371 Depth=1
                                        @ =>  This Inner Loop Header: Depth=2
	@DEBUG_VALUE: HTTP_CGI_Handler:i <- $r5
	@DEBUG_VALUE: HTTP_CGI_Handler:pcValue <- [$sp+0]
	@DEBUG_VALUE: HTTP_CGI_Handler:iNumParams <- [DW_OP_plus_uconst 8] [$sp+0]
	@DEBUG_VALUE: HTTP_CGI_Handler:pcParam <- [DW_OP_plus_uconst 4] [$sp+0]
	@DEBUG_VALUE: HTTP_CGI_Handler:x <- $r9
	.loc	2 940 45 is_stmt 1      @ ../User/Http/httpd_cgi_ssi.c:940:45
	cmp.w	r6, r9, lsr #9
	bne	.LBB0_389
.Ltmp571:
@ %bb.377:                              @   in Loop: Header=BB0_376 Depth=2
	@DEBUG_VALUE: HTTP_CGI_Handler:i <- $r5
	@DEBUG_VALUE: HTTP_CGI_Handler:x <- $r9
	@DEBUG_VALUE: HTTP_CGI_Handler:pcValue <- [$sp+0]
	@DEBUG_VALUE: HTTP_CGI_Handler:iNumParams <- [DW_OP_plus_uconst 8] [$sp+0]
	@DEBUG_VALUE: HTTP_CGI_Handler:pcParam <- [DW_OP_plus_uconst 4] [$sp+0]
	.loc	2 940 49 is_stmt 0      @ ../User/Http/httpd_cgi_ssi.c:940:49
	ldrb.w	r0, [r1, r9]
	.loc	2 0 0                   @ ../User/Http/httpd_cgi_ssi.c:0:0
	add.w	r9, r9, #1
.Ltmp572:
	@DEBUG_VALUE: HTTP_CGI_Handler:x <- $r9
	.loc	2 940 5                 @ ../User/Http/httpd_cgi_ssi.c:940:5
	cmp	r0, #0
	bne	.LBB0_376
	b	.LBB0_390
.Ltmp573:
.LBB0_378:                              @   in Loop: Header=BB0_371 Depth=1
	@DEBUG_VALUE: HTTP_CGI_Handler:i <- $r5
	@DEBUG_VALUE: HTTP_CGI_Handler:x <- $r9
	@DEBUG_VALUE: HTTP_CGI_Handler:pcValue <- [$sp+0]
	@DEBUG_VALUE: HTTP_CGI_Handler:iNumParams <- [DW_OP_plus_uconst 8] [$sp+0]
	@DEBUG_VALUE: HTTP_CGI_Handler:pcParam <- [DW_OP_plus_uconst 4] [$sp+0]
	.loc	2 0 5                   @ ../User/Http/httpd_cgi_ssi.c:0:5
	movw	r0, :lower16:rubicon_ctrl_buffer
	movt	r0, :upper16:rubicon_ctrl_buffer
	mov	r2, r0
.Ltmp574:
	.loc	2 915 26 is_stmt 1      @ ../User/Http/httpd_cgi_ssi.c:915:26
	str	r0, [r7]
.Ltmp575:
.LBB0_379:                              @   Parent Loop BB0_371 Depth=1
                                        @ =>  This Inner Loop Header: Depth=2
	@DEBUG_VALUE: HTTP_CGI_Handler:i <- $r5
	@DEBUG_VALUE: HTTP_CGI_Handler:x <- $r9
	@DEBUG_VALUE: HTTP_CGI_Handler:pcValue <- [$sp+0]
	@DEBUG_VALUE: HTTP_CGI_Handler:iNumParams <- [DW_OP_plus_uconst 8] [$sp+0]
	@DEBUG_VALUE: HTTP_CGI_Handler:pcParam <- [DW_OP_plus_uconst 4] [$sp+0]
	.loc	2 916 96                @ ../User/Http/httpd_cgi_ssi.c:916:96
	adds	r1, r2, #1
	str	r1, [r7]
	.loc	2 916 99 is_stmt 0      @ ../User/Http/httpd_cgi_ssi.c:916:99
	strb	r6, [r2]
	.loc	2 916 24                @ ../User/Http/httpd_cgi_ssi.c:916:24
	ldr	r2, [r7]
	.loc	2 916 17                @ ../User/Http/httpd_cgi_ssi.c:916:17
	cmp	r2, r11
	blo	.LBB0_379
.Ltmp576:
@ %bb.380:                              @   in Loop: Header=BB0_371 Depth=1
	@DEBUG_VALUE: HTTP_CGI_Handler:i <- $r5
	@DEBUG_VALUE: HTTP_CGI_Handler:x <- $r9
	@DEBUG_VALUE: HTTP_CGI_Handler:pcValue <- [$sp+0]
	@DEBUG_VALUE: HTTP_CGI_Handler:iNumParams <- [DW_OP_plus_uconst 8] [$sp+0]
	@DEBUG_VALUE: HTTP_CGI_Handler:pcParam <- [DW_OP_plus_uconst 4] [$sp+0]
	@DEBUG_VALUE: HTTP_CGI_Handler:x <- 0
	.loc	2 919 34 is_stmt 1      @ ../User/Http/httpd_cgi_ssi.c:919:34
	movw	r1, :lower16:rs485_broadcast_address
	movt	r1, :upper16:rs485_broadcast_address
	ldrh	r1, [r1]
	.loc	2 919 5 is_stmt 0       @ ../User/Http/httpd_cgi_ssi.c:919:5
	bl	Int2Str
	movw	r1, :lower16:rubicon_ctrl_buffer
	ldr	r4, [sp]                @ 4-byte Reload
	mov.w	r9, #0
	movt	r1, :upper16:rubicon_ctrl_buffer
.Ltmp577:
.LBB0_381:                              @   Parent Loop BB0_371 Depth=1
                                        @ =>  This Inner Loop Header: Depth=2
	@DEBUG_VALUE: HTTP_CGI_Handler:i <- $r5
	@DEBUG_VALUE: HTTP_CGI_Handler:pcValue <- [$sp+0]
	@DEBUG_VALUE: HTTP_CGI_Handler:iNumParams <- [DW_OP_plus_uconst 8] [$sp+0]
	@DEBUG_VALUE: HTTP_CGI_Handler:pcParam <- [DW_OP_plus_uconst 4] [$sp+0]
	@DEBUG_VALUE: HTTP_CGI_Handler:x <- $r9
	.loc	2 921 45 is_stmt 1      @ ../User/Http/httpd_cgi_ssi.c:921:45
	cmp.w	r6, r9, lsr #9
	bne	.LBB0_383
.Ltmp578:
@ %bb.382:                              @   in Loop: Header=BB0_381 Depth=2
	@DEBUG_VALUE: HTTP_CGI_Handler:i <- $r5
	@DEBUG_VALUE: HTTP_CGI_Handler:x <- $r9
	@DEBUG_VALUE: HTTP_CGI_Handler:pcValue <- [$sp+0]
	@DEBUG_VALUE: HTTP_CGI_Handler:iNumParams <- [DW_OP_plus_uconst 8] [$sp+0]
	@DEBUG_VALUE: HTTP_CGI_Handler:pcParam <- [DW_OP_plus_uconst 4] [$sp+0]
	.loc	2 921 49 is_stmt 0      @ ../User/Http/httpd_cgi_ssi.c:921:49
	ldrb.w	r0, [r1, r9]
	.loc	2 0 0                   @ ../User/Http/httpd_cgi_ssi.c:0:0
	add.w	r9, r9, #1
.Ltmp579:
	@DEBUG_VALUE: HTTP_CGI_Handler:x <- $r9
	.loc	2 921 5                 @ ../User/Http/httpd_cgi_ssi.c:921:5
	cmp	r0, #0
	bne	.LBB0_381
	b	.LBB0_384
.Ltmp580:
.LBB0_383:                              @   in Loop: Header=BB0_371 Depth=1
	@DEBUG_VALUE: HTTP_CGI_Handler:i <- $r5
	@DEBUG_VALUE: HTTP_CGI_Handler:x <- $r9
	@DEBUG_VALUE: HTTP_CGI_Handler:pcValue <- [$sp+0]
	@DEBUG_VALUE: HTTP_CGI_Handler:iNumParams <- [DW_OP_plus_uconst 8] [$sp+0]
	@DEBUG_VALUE: HTTP_CGI_Handler:pcParam <- [DW_OP_plus_uconst 4] [$sp+0]
	.loc	2 0 5                   @ ../User/Http/httpd_cgi_ssi.c:0:5
	add.w	r9, r9, #1
.Ltmp581:
.LBB0_384:                              @   in Loop: Header=BB0_371 Depth=1
	@DEBUG_VALUE: HTTP_CGI_Handler:i <- $r5
	@DEBUG_VALUE: HTTP_CGI_Handler:pcValue <- [$sp+0]
	@DEBUG_VALUE: HTTP_CGI_Handler:iNumParams <- [DW_OP_plus_uconst 8] [$sp+0]
	@DEBUG_VALUE: HTTP_CGI_Handler:pcParam <- [DW_OP_plus_uconst 4] [$sp+0]
	@DEBUG_VALUE: HTTP_CGI_Handler:t <- 0
	@DEBUG_VALUE: HTTP_CGI_Handler:x <- $r9
	.loc	2 925 59 is_stmt 1      @ ../User/Http/httpd_cgi_ssi.c:925:59
	cmp.w	r6, r9, lsr #9
	.loc	2 923 7                 @ ../User/Http/httpd_cgi_ssi.c:923:7
	str	r6, [sp, #24]
	.loc	2 925 59                @ ../User/Http/httpd_cgi_ssi.c:925:59
	bne	.LBB0_397
.Ltmp582:
@ %bb.385:                              @   in Loop: Header=BB0_371 Depth=1
	@DEBUG_VALUE: HTTP_CGI_Handler:i <- $r5
	@DEBUG_VALUE: HTTP_CGI_Handler:x <- $r9
	@DEBUG_VALUE: HTTP_CGI_Handler:pcValue <- [$sp+0]
	@DEBUG_VALUE: HTTP_CGI_Handler:iNumParams <- [DW_OP_plus_uconst 8] [$sp+0]
	@DEBUG_VALUE: HTTP_CGI_Handler:pcParam <- [DW_OP_plus_uconst 4] [$sp+0]
	.loc	2 925 63 is_stmt 0      @ ../User/Http/httpd_cgi_ssi.c:925:63
	add.w	r0, r1, r9
	movs	r1, #0
.Ltmp583:
.LBB0_386:                              @   Parent Loop BB0_371 Depth=1
                                        @ =>  This Inner Loop Header: Depth=2
	@DEBUG_VALUE: HTTP_CGI_Handler:i <- $r5
	@DEBUG_VALUE: HTTP_CGI_Handler:x <- $r9
	@DEBUG_VALUE: HTTP_CGI_Handler:pcValue <- [$sp+0]
	@DEBUG_VALUE: HTTP_CGI_Handler:iNumParams <- [DW_OP_plus_uconst 8] [$sp+0]
	@DEBUG_VALUE: HTTP_CGI_Handler:pcParam <- [DW_OP_plus_uconst 4] [$sp+0]
	@DEBUG_VALUE: HTTP_CGI_Handler:t <- $r1
	@DEBUG_VALUE: HTTP_CGI_Handler:x <- undef
	ldr.w	r2, [r4, r5, lsl #2]
	ldrb	r3, [r2, r1]
	.loc	2 925 17                @ ../User/Http/httpd_cgi_ssi.c:925:17
	cbz	r3, .LBB0_396
.Ltmp584:
@ %bb.387:                              @   in Loop: Header=BB0_386 Depth=2
	@DEBUG_VALUE: HTTP_CGI_Handler:t <- $r1
	@DEBUG_VALUE: HTTP_CGI_Handler:i <- $r5
	@DEBUG_VALUE: HTTP_CGI_Handler:pcValue <- [$sp+0]
	@DEBUG_VALUE: HTTP_CGI_Handler:iNumParams <- [DW_OP_plus_uconst 8] [$sp+0]
	@DEBUG_VALUE: HTTP_CGI_Handler:pcParam <- [DW_OP_plus_uconst 4] [$sp+0]
	.loc	2 927 70 is_stmt 1      @ ../User/Http/httpd_cgi_ssi.c:927:70
	adds	r3, r1, #1
.Ltmp585:
	@DEBUG_VALUE: HTTP_CGI_Handler:t <- $r3
	str	r3, [sp, #24]
	.loc	2 927 58 is_stmt 0      @ ../User/Http/httpd_cgi_ssi.c:927:58
	ldrb	r2, [r2, r1]
	.loc	2 927 46                @ ../User/Http/httpd_cgi_ssi.c:927:46
	strb	r2, [r0, r1]
.Ltmp586:
	@DEBUG_VALUE: HTTP_CGI_Handler:x <- [DW_OP_plus_uconst 1, DW_OP_stack_value] undef
	.loc	2 925 27 is_stmt 1      @ ../User/Http/httpd_cgi_ssi.c:925:27
	add.w	r2, r9, r3
	.loc	2 925 74 is_stmt 0      @ ../User/Http/httpd_cgi_ssi.c:925:74
	mov	r1, r3
.Ltmp587:
	@DEBUG_VALUE: HTTP_CGI_Handler:t <- $r1
	.loc	2 925 59                @ ../User/Http/httpd_cgi_ssi.c:925:59
	cmp.w	r2, #512
	blo	.LBB0_386
.Ltmp588:
@ %bb.388:                              @   in Loop: Header=BB0_371 Depth=1
	@DEBUG_VALUE: HTTP_CGI_Handler:t <- $r1
	@DEBUG_VALUE: HTTP_CGI_Handler:i <- $r5
	@DEBUG_VALUE: HTTP_CGI_Handler:pcValue <- [$sp+0]
	@DEBUG_VALUE: HTTP_CGI_Handler:iNumParams <- [DW_OP_plus_uconst 8] [$sp+0]
	@DEBUG_VALUE: HTTP_CGI_Handler:pcParam <- [DW_OP_plus_uconst 4] [$sp+0]
	.loc	2 0 59                  @ ../User/Http/httpd_cgi_ssi.c:0:59
	movs	r0, #133
	b	.LBB0_395
.Ltmp589:
.LBB0_389:                              @   in Loop: Header=BB0_371 Depth=1
	@DEBUG_VALUE: HTTP_CGI_Handler:i <- $r5
	@DEBUG_VALUE: HTTP_CGI_Handler:x <- $r9
	@DEBUG_VALUE: HTTP_CGI_Handler:pcValue <- [$sp+0]
	@DEBUG_VALUE: HTTP_CGI_Handler:iNumParams <- [DW_OP_plus_uconst 8] [$sp+0]
	@DEBUG_VALUE: HTTP_CGI_Handler:pcParam <- [DW_OP_plus_uconst 4] [$sp+0]
	add.w	r9, r9, #1
.Ltmp590:
.LBB0_390:                              @   in Loop: Header=BB0_371 Depth=1
	@DEBUG_VALUE: HTTP_CGI_Handler:i <- $r5
	@DEBUG_VALUE: HTTP_CGI_Handler:pcValue <- [$sp+0]
	@DEBUG_VALUE: HTTP_CGI_Handler:iNumParams <- [DW_OP_plus_uconst 8] [$sp+0]
	@DEBUG_VALUE: HTTP_CGI_Handler:pcParam <- [DW_OP_plus_uconst 4] [$sp+0]
	@DEBUG_VALUE: HTTP_CGI_Handler:t <- 0
	@DEBUG_VALUE: HTTP_CGI_Handler:x <- $r9
	.loc	2 944 59 is_stmt 1      @ ../User/Http/httpd_cgi_ssi.c:944:59
	cmp.w	r6, r9, lsr #9
	.loc	2 942 7                 @ ../User/Http/httpd_cgi_ssi.c:942:7
	str	r6, [sp, #24]
	.loc	2 944 59                @ ../User/Http/httpd_cgi_ssi.c:944:59
	bne	.LBB0_399
.Ltmp591:
@ %bb.391:                              @   in Loop: Header=BB0_371 Depth=1
	@DEBUG_VALUE: HTTP_CGI_Handler:i <- $r5
	@DEBUG_VALUE: HTTP_CGI_Handler:x <- $r9
	@DEBUG_VALUE: HTTP_CGI_Handler:pcValue <- [$sp+0]
	@DEBUG_VALUE: HTTP_CGI_Handler:iNumParams <- [DW_OP_plus_uconst 8] [$sp+0]
	@DEBUG_VALUE: HTTP_CGI_Handler:pcParam <- [DW_OP_plus_uconst 4] [$sp+0]
	.loc	2 944 63 is_stmt 0      @ ../User/Http/httpd_cgi_ssi.c:944:63
	add.w	r0, r1, r9
	movs	r1, #0
.Ltmp592:
.LBB0_392:                              @   Parent Loop BB0_371 Depth=1
                                        @ =>  This Inner Loop Header: Depth=2
	@DEBUG_VALUE: HTTP_CGI_Handler:i <- $r5
	@DEBUG_VALUE: HTTP_CGI_Handler:x <- $r9
	@DEBUG_VALUE: HTTP_CGI_Handler:pcValue <- [$sp+0]
	@DEBUG_VALUE: HTTP_CGI_Handler:iNumParams <- [DW_OP_plus_uconst 8] [$sp+0]
	@DEBUG_VALUE: HTTP_CGI_Handler:pcParam <- [DW_OP_plus_uconst 4] [$sp+0]
	@DEBUG_VALUE: HTTP_CGI_Handler:t <- $r1
	@DEBUG_VALUE: HTTP_CGI_Handler:x <- undef
	ldr.w	r2, [r4, r5, lsl #2]
	ldrb	r3, [r2, r1]
	.loc	2 944 17                @ ../User/Http/httpd_cgi_ssi.c:944:17
	cbz	r3, .LBB0_398
.Ltmp593:
@ %bb.393:                              @   in Loop: Header=BB0_392 Depth=2
	@DEBUG_VALUE: HTTP_CGI_Handler:t <- $r1
	@DEBUG_VALUE: HTTP_CGI_Handler:i <- $r5
	@DEBUG_VALUE: HTTP_CGI_Handler:pcValue <- [$sp+0]
	@DEBUG_VALUE: HTTP_CGI_Handler:iNumParams <- [DW_OP_plus_uconst 8] [$sp+0]
	@DEBUG_VALUE: HTTP_CGI_Handler:pcParam <- [DW_OP_plus_uconst 4] [$sp+0]
	.loc	2 946 70 is_stmt 1      @ ../User/Http/httpd_cgi_ssi.c:946:70
	adds	r3, r1, #1
.Ltmp594:
	@DEBUG_VALUE: HTTP_CGI_Handler:t <- $r3
	str	r3, [sp, #24]
	.loc	2 946 58 is_stmt 0      @ ../User/Http/httpd_cgi_ssi.c:946:58
	ldrb	r2, [r2, r1]
	.loc	2 946 46                @ ../User/Http/httpd_cgi_ssi.c:946:46
	strb	r2, [r0, r1]
.Ltmp595:
	@DEBUG_VALUE: HTTP_CGI_Handler:x <- [DW_OP_plus_uconst 1, DW_OP_stack_value] undef
	.loc	2 944 27 is_stmt 1      @ ../User/Http/httpd_cgi_ssi.c:944:27
	add.w	r2, r9, r3
	.loc	2 944 74 is_stmt 0      @ ../User/Http/httpd_cgi_ssi.c:944:74
	mov	r1, r3
.Ltmp596:
	@DEBUG_VALUE: HTTP_CGI_Handler:t <- $r1
	.loc	2 944 59                @ ../User/Http/httpd_cgi_ssi.c:944:59
	cmp.w	r2, #512
	blo	.LBB0_392
.Ltmp597:
@ %bb.394:                              @   in Loop: Header=BB0_371 Depth=1
	@DEBUG_VALUE: HTTP_CGI_Handler:t <- $r1
	@DEBUG_VALUE: HTTP_CGI_Handler:i <- $r5
	@DEBUG_VALUE: HTTP_CGI_Handler:pcValue <- [$sp+0]
	@DEBUG_VALUE: HTTP_CGI_Handler:iNumParams <- [DW_OP_plus_uconst 8] [$sp+0]
	@DEBUG_VALUE: HTTP_CGI_Handler:pcParam <- [DW_OP_plus_uconst 4] [$sp+0]
	.loc	2 0 59                  @ ../User/Http/httpd_cgi_ssi.c:0:59
	movs	r0, #134
.Ltmp598:
.LBB0_395:                              @   in Loop: Header=BB0_371 Depth=1
	@DEBUG_VALUE: HTTP_CGI_Handler:t <- $r1
	@DEBUG_VALUE: HTTP_CGI_Handler:i <- $r5
	@DEBUG_VALUE: HTTP_CGI_Handler:pcValue <- [$sp+0]
