	.text
	.syntax unified
	.eabi_attribute	67, "2.09"	@ Tag_conformance
	.cpu	cortex-m4
	.eabi_attribute	6, 13	@ Tag_CPU_arch
	.eabi_attribute	7, 77	@ Tag_CPU_arch_profile
	.eabi_attribute	8, 0	@ Tag_ARM_ISA_use
	.eabi_attribute	9, 2	@ Tag_THUMB_ISA_use
	.fpu	fpv4-sp-d16
	.eabi_attribute	27, 1	@ Tag_ABI_HardFP_use
	.eabi_attribute	36, 1	@ Tag_FP_HP_extension
	.eabi_attribute	34, 1	@ Tag_CPU_unaligned_access
	.eabi_attribute	17, 1	@ Tag_ABI_PCS_GOT_use
	.eabi_attribute	20, 2	@ Tag_ABI_FP_denormal
	.eabi_attribute	21, 0	@ Tag_ABI_FP_exceptions
	.eabi_attribute	23, 1	@ Tag_ABI_FP_number_model
	.eabi_attribute	24, 1	@ Tag_ABI_align_needed
	.eabi_attribute	25, 1	@ Tag_ABI_align_preserved
	.eabi_attribute	28, 1	@ Tag_ABI_VFP_args
	.eabi_attribute	38, 1	@ Tag_ABI_FP_16bit_format
	.eabi_attribute	18, 2	@ Tag_ABI_PCS_wchar_t
	.eabi_attribute	26, 1	@ Tag_ABI_enum_size
	.eabi_attribute	14, 0	@ Tag_ABI_PCS_R9_use
	.file	"i2c_eeprom.c"
	.file	1 "C:\\Keil\\ARM\\ARMCLANG\\Bin\\..\\include" "stdint.h"
	.file	2 "F:\\SkyDrive\\OtvoreniProjekti\\HotelSaplast\\fw\\KontrolerHotela\\HC070318\\Project" "../Libraries/CMSIS/Device/ST/STM32F4xx/Include\\stm32f4xx.h"
	.file	3 "F:\\SkyDrive\\OtvoreniProjekti\\HotelSaplast\\fw\\KontrolerHotela\\HC070318\\Project" "../Driver/i2c_eeprom.h"
	.file	4 "F:\\SkyDrive\\OtvoreniProjekti\\HotelSaplast\\fw\\KontrolerHotela\\HC070318\\Project" "../Driver/i2c_eeprom.c"
	.file	5 "F:\\SkyDrive\\OtvoreniProjekti\\HotelSaplast\\fw\\KontrolerHotela\\HC070318\\Project" "../Libraries/STM32F4xx_StdPeriph_Driver/inc\\stm32f4xx_gpio.h"
	.section	.text.I2C_EERPOM_Init,"ax",%progbits
	.hidden	I2C_EERPOM_Init         @ -- Begin function I2C_EERPOM_Init
	.globl	I2C_EERPOM_Init
	.p2align	1
	.type	I2C_EERPOM_Init,%function
	.code	16                      @ @I2C_EERPOM_Init
	.thumb_func
I2C_EERPOM_Init:
.Lfunc_begin0:
	.loc	4 35 0                  @ ../Driver/i2c_eeprom.c:35:0
	.fnstart
	.cfi_sections .debug_frame
	.cfi_startproc
@ %bb.0:
	.save	{r4, r5, r6, r7, lr}
	push	{r4, r5, r6, r7, lr}
	.cfi_def_cfa_offset 20
	.cfi_offset lr, -4
	.cfi_offset r7, -8
	.cfi_offset r6, -12
	.cfi_offset r5, -16
	.cfi_offset r4, -20
	.pad	#12
	sub	sp, #12
	.cfi_def_cfa_offset 32
.Ltmp0:
	.loc	4 39 5 prologue_end     @ ../Driver/i2c_eeprom.c:39:5
	movw	r5, :lower16:I2C_EERPOM_Init.init_ok
	movt	r5, :upper16:I2C_EERPOM_Init.init_ok
	ldrb	r0, [r5]
.Ltmp1:
	.loc	4 39 5 is_stmt 0        @ ../Driver/i2c_eeprom.c:39:5
	cbnz	r0, .LBB0_2
@ %bb.1:
	.loc	4 44 2 is_stmt 1        @ ../Driver/i2c_eeprom.c:44:2
	mov.w	r0, #4194304
	movs	r1, #1
	movs	r6, #1
	bl	RCC_APB1PeriphClockCmd
	.loc	4 45 37                 @ ../Driver/i2c_eeprom.c:45:37
	movw	r7, :lower16:I2C2DEV
	.loc	4 45 2 is_stmt 0        @ ../Driver/i2c_eeprom.c:45:2
	movs	r1, #1
	.loc	4 45 37                 @ ../Driver/i2c_eeprom.c:45:37
	movt	r7, :upper16:I2C2DEV
	ldr	r0, [r7, #8]
	.loc	4 45 2                  @ ../Driver/i2c_eeprom.c:45:2
	bl	RCC_AHB1PeriphClockCmd
	.loc	4 46 37 is_stmt 1       @ ../Driver/i2c_eeprom.c:46:37
	ldr	r0, [r7, #24]
	.loc	4 46 2 is_stmt 0        @ ../Driver/i2c_eeprom.c:46:2
	movs	r1, #1
	bl	RCC_AHB1PeriphClockCmd
	.loc	4 47 2 is_stmt 1        @ ../Driver/i2c_eeprom.c:47:2
	mov.w	r0, #4194304
	movs	r1, #1
	bl	RCC_APB1PeriphResetCmd
	.loc	4 48 2                  @ ../Driver/i2c_eeprom.c:48:2
	mov.w	r0, #4194304
	movs	r1, #0
	bl	RCC_APB1PeriphResetCmd
	.loc	4 50 49                 @ ../Driver/i2c_eeprom.c:50:49
	ldrb	r1, [r7, #12]
	.loc	4 50 31 is_stmt 0       @ ../Driver/i2c_eeprom.c:50:31
	ldr	r0, [r7]
	.loc	4 50 2                  @ ../Driver/i2c_eeprom.c:50:2
	movs	r2, #4
	bl	GPIO_PinAFConfig
	.loc	4 51 49 is_stmt 1       @ ../Driver/i2c_eeprom.c:51:49
	ldrb	r1, [r7, #28]
	.loc	4 51 31 is_stmt 0       @ ../Driver/i2c_eeprom.c:51:31
	ldr	r0, [r7, #16]
	.loc	4 51 2                  @ ../Driver/i2c_eeprom.c:51:2
	movs	r2, #4
	bl	GPIO_PinAFConfig
	movw	r0, #514
	add	r4, sp, #4
	movt	r0, #1
	.loc	4 58 2 is_stmt 1        @ ../Driver/i2c_eeprom.c:58:2
	mov	r1, r4
	.loc	4 53 31                 @ ../Driver/i2c_eeprom.c:53:31
	str	r0, [sp, #8]
	.loc	4 57 44                 @ ../Driver/i2c_eeprom.c:57:44
	ldrh	r0, [r7, #4]
	.loc	4 57 30 is_stmt 0       @ ../Driver/i2c_eeprom.c:57:30
	str	r0, [sp, #4]
	.loc	4 58 24 is_stmt 1       @ ../Driver/i2c_eeprom.c:58:24
	ldr	r0, [r7]
.Ltmp2:
	@DEBUG_VALUE: I2C_EERPOM_Init:GPIO_InitStructure <- [DW_OP_plus_uconst 4, DW_OP_deref] $sp
	.loc	4 58 2 is_stmt 0        @ ../Driver/i2c_eeprom.c:58:2
	bl	GPIO_Init
	.loc	4 59 44 is_stmt 1       @ ../Driver/i2c_eeprom.c:59:44
	ldrh	r0, [r7, #20]
	.loc	4 60 2                  @ ../Driver/i2c_eeprom.c:60:2
	mov	r1, r4
	.loc	4 59 30                 @ ../Driver/i2c_eeprom.c:59:30
	str	r0, [sp, #4]
	.loc	4 60 24                 @ ../Driver/i2c_eeprom.c:60:24
	ldr	r0, [r7, #16]
	.loc	4 60 2 is_stmt 0        @ ../Driver/i2c_eeprom.c:60:2
	bl	GPIO_Init
	.loc	4 62 2 is_stmt 1        @ ../Driver/i2c_eeprom.c:62:2
	bl	I2C2_Init
	.loc	4 63 10                 @ ../Driver/i2c_eeprom.c:63:10
	strb	r6, [r5]
.Ltmp3:
.LBB0_2:
	.loc	4 64 1                  @ ../Driver/i2c_eeprom.c:64:1
	add	sp, #12
	pop	{r4, r5, r6, r7, pc}
.Ltmp4:
.Lfunc_end0:
	.size	I2C_EERPOM_Init, .Lfunc_end0-I2C_EERPOM_Init
	.cfi_endproc
	.cantunwind
	.fnend
                                        @ -- End function
	.section	.text.I2C2_Init,"ax",%progbits
	.hidden	I2C2_Init               @ -- Begin function I2C2_Init
	.globl	I2C2_Init
	.p2align	1
	.type	I2C2_Init,%function
	.code	16                      @ @I2C2_Init
	.thumb_func
I2C2_Init:
.Lfunc_begin1:
	.loc	4 747 0                 @ ../Driver/i2c_eeprom.c:747:0
	.fnstart
	.cfi_startproc
@ %bb.0:
	.save	{r4, lr}
	push	{r4, lr}
	.cfi_def_cfa_offset 8
	.cfi_offset lr, -4
	.cfi_offset r4, -8
	.pad	#16
	sub	sp, #16
	.cfi_def_cfa_offset 24
	mov.w	r0, #16384
	movw	r4, #22528
.Ltmp5:
	.loc	4 759 2 prologue_end    @ ../Driver/i2c_eeprom.c:759:2
	movs	r1, #1
	.loc	4 755 44                @ ../Driver/i2c_eeprom.c:755:44
	strh.w	r0, [sp, #12]
	mov.w	r0, #67108864
	movt	r4, #16384
	.loc	4 753 36                @ ../Driver/i2c_eeprom.c:753:36
	str	r0, [sp, #8]
	movs	r0, #0
	movt	r0, #49151
	.loc	4 751 29                @ ../Driver/i2c_eeprom.c:751:29
	str	r0, [sp, #4]
	movw	r0, #34464
	movt	r0, #1
	.loc	4 756 35                @ ../Driver/i2c_eeprom.c:756:35
	str	r0, [sp]
	.loc	4 759 2                 @ ../Driver/i2c_eeprom.c:759:2
	mov	r0, r4
	bl	I2C_Cmd
.Ltmp6:
	@DEBUG_VALUE: I2C2_Init:I2C_InitStructure <- [DW_OP_deref] $sp
	.loc	4 0 2 is_stmt 0         @ ../Driver/i2c_eeprom.c:0:2
	mov	r1, sp
	.loc	4 762 2 is_stmt 1       @ ../Driver/i2c_eeprom.c:762:2
	mov	r0, r4
	bl	I2C_Init
	.loc	4 763 1                 @ ../Driver/i2c_eeprom.c:763:1
	add	sp, #16
.Ltmp7:
	pop	{r4, pc}
.Ltmp8:
.Lfunc_end1:
	.size	I2C2_Init, .Lfunc_end1-I2C2_Init
	.cfi_endproc
	.cantunwind
	.fnend
                                        @ -- End function
	.section	.text.I2C_EERPOM_ReadByte,"ax",%progbits
	.hidden	I2C_EERPOM_ReadByte     @ -- Begin function I2C_EERPOM_ReadByte
	.globl	I2C_EERPOM_ReadByte
	.p2align	1
	.type	I2C_EERPOM_ReadByte,%function
	.code	16                      @ @I2C_EERPOM_ReadByte
	.thumb_func
I2C_EERPOM_ReadByte:
.Lfunc_begin2:
	.loc	4 68 0                  @ ../Driver/i2c_eeprom.c:68:0
	.fnstart
	.cfi_startproc
@ %bb.0:
	.save	{r4, r5, r6, r7, r8, r9, r10, r11, lr}
	push.w	{r4, r5, r6, r7, r8, r9, r10, r11, lr}
	.cfi_def_cfa_offset 36
	.cfi_offset lr, -4
	.cfi_offset r11, -8
	.cfi_offset r10, -12
	.cfi_offset r9, -16
	.cfi_offset r8, -20
	.cfi_offset r7, -24
	.cfi_offset r6, -28
	.cfi_offset r5, -32
	.cfi_offset r4, -36
	.pad	#4
	sub	sp, #4
	.cfi_def_cfa_offset 40
	@DEBUG_VALUE: I2C_EERPOM_ReadByte:slave_address <- $r0
	@DEBUG_VALUE: I2C_EERPOM_ReadByte:data_address <- $r1
	movw	r4, #22528
	mov	r9, r1
	mov	r8, r0
.Ltmp9:
	@DEBUG_VALUE: I2C_EERPOM_ReadByte:timeout <- 12288
	@DEBUG_VALUE: I2C_EERPOM_ReadByte:ret_data <- 0
	@DEBUG_VALUE: I2C_EERPOM_ReadByte:data_address <- $r9
	@DEBUG_VALUE: I2C_EERPOM_ReadByte:slave_address <- $r8
	.loc	4 72 2 prologue_end     @ ../Driver/i2c_eeprom.c:72:2
	movs	r1, #1
	movt	r4, #16384
	mov	r0, r4
	bl	I2C_GenerateSTART
	movw	r10, #1
	.loc	4 75 10                 @ ../Driver/i2c_eeprom.c:75:10
	mov	r0, r4
	movt	r10, #4096
	mov	r1, r10
	bl	I2C_GetFlagStatus
	.loc	4 75 2 is_stmt 0        @ ../Driver/i2c_eeprom.c:75:2
	cbnz	r0, .LBB2_4
.Ltmp10:
@ %bb.1:
	@DEBUG_VALUE: I2C_EERPOM_ReadByte:slave_address <- $r8
	@DEBUG_VALUE: I2C_EERPOM_ReadByte:data_address <- $r9
	.loc	4 0 2                   @ ../Driver/i2c_eeprom.c:0:2
	mvn	r5, #12288
.Ltmp11:
	.p2align	2
.LBB2_2:                                @ =>This Inner Loop Header: Depth=1
	@DEBUG_VALUE: I2C_EERPOM_ReadByte:slave_address <- $r8
	@DEBUG_VALUE: I2C_EERPOM_ReadByte:data_address <- $r9
	@DEBUG_VALUE: I2C_EERPOM_ReadByte:timeout <- undef
	.loc	4 77 14 is_stmt 1       @ ../Driver/i2c_eeprom.c:77:14
	adds	r5, #1
.Ltmp12:
	.loc	4 77 6 is_stmt 0        @ ../Driver/i2c_eeprom.c:77:6
	beq.w	.LBB2_30
.Ltmp13:
@ %bb.3:                                @   in Loop: Header=BB2_2 Depth=1
	@DEBUG_VALUE: I2C_EERPOM_ReadByte:slave_address <- $r8
	@DEBUG_VALUE: I2C_EERPOM_ReadByte:data_address <- $r9
	@DEBUG_VALUE: I2C_EERPOM_ReadByte:timeout <- [DW_OP_constu 1, DW_OP_minus, DW_OP_stack_value] undef
	.loc	4 75 10 is_stmt 1       @ ../Driver/i2c_eeprom.c:75:10
	mov	r0, r4
	mov	r1, r10
	bl	I2C_GetFlagStatus
	.loc	4 75 2 is_stmt 0        @ ../Driver/i2c_eeprom.c:75:2
	cmp	r0, #0
	beq	.LBB2_2
.Ltmp14:
.LBB2_4:
	@DEBUG_VALUE: I2C_EERPOM_ReadByte:slave_address <- $r8
	@DEBUG_VALUE: I2C_EERPOM_ReadByte:data_address <- $r9
	@DEBUG_VALUE: I2C_EERPOM_ReadByte:slave_address <- $r8
	.loc	4 81 2 is_stmt 1        @ ../Driver/i2c_eeprom.c:81:2
	mov	r0, r4
	movs	r1, #0
	bl	I2C_AcknowledgeConfig
	.loc	4 82 2                  @ ../Driver/i2c_eeprom.c:82:2
	mov	r0, r4
	mov	r1, r8
	movs	r2, #0
	bl	I2C_Send7bitAddress
.Ltmp15:
	@DEBUG_VALUE: I2C_EERPOM_ReadByte:timeout <- 12288
	.loc	4 85 10                 @ ../Driver/i2c_eeprom.c:85:10
	add.w	r11, r10, #1
	mov	r0, r4
	mov	r1, r11
	bl	I2C_GetFlagStatus
	.loc	4 85 2 is_stmt 0        @ ../Driver/i2c_eeprom.c:85:2
	cbnz	r0, .LBB2_8
.Ltmp16:
@ %bb.5:
	@DEBUG_VALUE: I2C_EERPOM_ReadByte:slave_address <- $r8
	@DEBUG_VALUE: I2C_EERPOM_ReadByte:data_address <- $r9
	.loc	4 0 2                   @ ../Driver/i2c_eeprom.c:0:2
	mvn	r5, #12288
.Ltmp17:
	.p2align	2
.LBB2_6:                                @ =>This Inner Loop Header: Depth=1
	@DEBUG_VALUE: I2C_EERPOM_ReadByte:slave_address <- $r8
	@DEBUG_VALUE: I2C_EERPOM_ReadByte:data_address <- $r9
	@DEBUG_VALUE: I2C_EERPOM_ReadByte:timeout <- undef
	.loc	4 87 14 is_stmt 1       @ ../Driver/i2c_eeprom.c:87:14
	adds	r5, #1
.Ltmp18:
	.loc	4 87 6 is_stmt 0        @ ../Driver/i2c_eeprom.c:87:6
	beq	.LBB2_31
.Ltmp19:
@ %bb.7:                                @   in Loop: Header=BB2_6 Depth=1
	@DEBUG_VALUE: I2C_EERPOM_ReadByte:slave_address <- $r8
	@DEBUG_VALUE: I2C_EERPOM_ReadByte:data_address <- $r9
	@DEBUG_VALUE: I2C_EERPOM_ReadByte:timeout <- [DW_OP_constu 1, DW_OP_minus, DW_OP_stack_value] undef
	.loc	4 85 10 is_stmt 1       @ ../Driver/i2c_eeprom.c:85:10
	mov	r0, r4
	mov	r1, r11
	bl	I2C_GetFlagStatus
	.loc	4 85 2 is_stmt 0        @ ../Driver/i2c_eeprom.c:85:2
	cmp	r0, #0
	beq	.LBB2_6
.Ltmp20:
.LBB2_8:
	@DEBUG_VALUE: I2C_EERPOM_ReadByte:slave_address <- $r8
	@DEBUG_VALUE: I2C_EERPOM_ReadByte:data_address <- $r9
	.loc	4 91 8 is_stmt 1        @ ../Driver/i2c_eeprom.c:91:8
	ldrh	r0, [r4, #24]
.Ltmp21:
	@DEBUG_VALUE: I2C_EERPOM_ReadByte:timeout <- 12288
	.loc	4 94 10                 @ ../Driver/i2c_eeprom.c:94:10
	add.w	r6, r10, #127
	mov	r0, r4
	mov	r1, r6
	bl	I2C_GetFlagStatus
	.loc	4 94 2 is_stmt 0        @ ../Driver/i2c_eeprom.c:94:2
	cbnz	r0, .LBB2_12
.Ltmp22:
@ %bb.9:
	@DEBUG_VALUE: I2C_EERPOM_ReadByte:slave_address <- $r8
	@DEBUG_VALUE: I2C_EERPOM_ReadByte:data_address <- $r9
	.loc	4 0 2                   @ ../Driver/i2c_eeprom.c:0:2
	mvn	r5, #12288
.Ltmp23:
	.p2align	2
.LBB2_10:                               @ =>This Inner Loop Header: Depth=1
	@DEBUG_VALUE: I2C_EERPOM_ReadByte:slave_address <- $r8
	@DEBUG_VALUE: I2C_EERPOM_ReadByte:data_address <- $r9
	@DEBUG_VALUE: I2C_EERPOM_ReadByte:timeout <- undef
	.loc	4 96 14 is_stmt 1       @ ../Driver/i2c_eeprom.c:96:14
	adds	r5, #1
.Ltmp24:
	.loc	4 96 6 is_stmt 0        @ ../Driver/i2c_eeprom.c:96:6
	beq	.LBB2_32
.Ltmp25:
@ %bb.11:                               @   in Loop: Header=BB2_10 Depth=1
	@DEBUG_VALUE: I2C_EERPOM_ReadByte:slave_address <- $r8
	@DEBUG_VALUE: I2C_EERPOM_ReadByte:data_address <- $r9
	@DEBUG_VALUE: I2C_EERPOM_ReadByte:timeout <- [DW_OP_constu 1, DW_OP_minus, DW_OP_stack_value] undef
	.loc	4 94 10 is_stmt 1       @ ../Driver/i2c_eeprom.c:94:10
	mov	r0, r4
	mov	r1, r6
	bl	I2C_GetFlagStatus
	.loc	4 94 2 is_stmt 0        @ ../Driver/i2c_eeprom.c:94:2
	cmp	r0, #0
	beq	.LBB2_10
.Ltmp26:
.LBB2_12:
	@DEBUG_VALUE: I2C_EERPOM_ReadByte:slave_address <- $r8
	@DEBUG_VALUE: I2C_EERPOM_ReadByte:data_address <- $r9
	@DEBUG_VALUE: I2C_EERPOM_ReadByte:data_address <- $r9
	.loc	4 100 2 is_stmt 1       @ ../Driver/i2c_eeprom.c:100:2
	mov	r0, r4
	mov	r1, r9
	bl	I2C_SendData
	mvn	r7, #12288
.Ltmp27:
	@DEBUG_VALUE: I2C_EERPOM_ReadByte:timeout <- 12288
	.loc	4 0 2 is_stmt 0         @ ../Driver/i2c_eeprom.c:0:2
	add.w	r5, r10, #3
.Ltmp28:
	.p2align	2
.LBB2_13:                               @ =>This Inner Loop Header: Depth=1
	@DEBUG_VALUE: I2C_EERPOM_ReadByte:slave_address <- $r8
	@DEBUG_VALUE: I2C_EERPOM_ReadByte:data_address <- $r9
	@DEBUG_VALUE: I2C_EERPOM_ReadByte:timeout <- undef
	.loc	4 103 11 is_stmt 1      @ ../Driver/i2c_eeprom.c:103:11
	mov	r0, r4
	mov	r1, r6
	bl	I2C_GetFlagStatus
	.loc	4 103 50 is_stmt 0      @ ../Driver/i2c_eeprom.c:103:50
	cbz	r0, .LBB2_15
.Ltmp29:
@ %bb.14:                               @   in Loop: Header=BB2_13 Depth=1
	@DEBUG_VALUE: I2C_EERPOM_ReadByte:slave_address <- $r8
	@DEBUG_VALUE: I2C_EERPOM_ReadByte:data_address <- $r9
	.loc	4 103 55                @ ../Driver/i2c_eeprom.c:103:55
	mov	r0, r4
	mov	r1, r5
	bl	I2C_GetFlagStatus
	.loc	4 103 2                 @ ../Driver/i2c_eeprom.c:103:2
	cbnz	r0, .LBB2_17
.Ltmp30:
.LBB2_15:                               @   in Loop: Header=BB2_13 Depth=1
	@DEBUG_VALUE: I2C_EERPOM_ReadByte:slave_address <- $r8
	@DEBUG_VALUE: I2C_EERPOM_ReadByte:data_address <- $r9
	@DEBUG_VALUE: I2C_EERPOM_ReadByte:timeout <- [DW_OP_constu 1, DW_OP_minus, DW_OP_stack_value] undef
	.loc	4 105 14 is_stmt 1      @ ../Driver/i2c_eeprom.c:105:14
	adds	r7, #1
.Ltmp31:
	.loc	4 105 6 is_stmt 0       @ ../Driver/i2c_eeprom.c:105:6
	bne	.LBB2_13
.Ltmp32:
@ %bb.16:
	@DEBUG_VALUE: I2C_EERPOM_ReadByte:slave_address <- $r8
	@DEBUG_VALUE: I2C_EERPOM_ReadByte:data_address <- $r9
	.loc	4 0 6                   @ ../Driver/i2c_eeprom.c:0:6
	mvn	r0, #6
.Ltmp33:
	.loc	4 106 15 is_stmt 1      @ ../Driver/i2c_eeprom.c:106:15
	adds	r5, r0, #3
	b	.LBB2_35
.Ltmp34:
.LBB2_17:
	@DEBUG_VALUE: I2C_EERPOM_ReadByte:slave_address <- $r8
	@DEBUG_VALUE: I2C_EERPOM_ReadByte:data_address <- $r9
	.loc	4 109 2                 @ ../Driver/i2c_eeprom.c:109:2
	mov	r0, r4
	movs	r1, #1
	bl	I2C_GenerateSTART
.Ltmp35:
	@DEBUG_VALUE: I2C_EERPOM_ReadByte:timeout <- 12288
	.loc	4 112 10                @ ../Driver/i2c_eeprom.c:112:10
	mov	r0, r4
	mov	r1, r10
	bl	I2C_GetFlagStatus
	.loc	4 112 2 is_stmt 0       @ ../Driver/i2c_eeprom.c:112:2
	cbnz	r0, .LBB2_21
.Ltmp36:
@ %bb.18:
	@DEBUG_VALUE: I2C_EERPOM_ReadByte:slave_address <- $r8
	@DEBUG_VALUE: I2C_EERPOM_ReadByte:data_address <- $r9
	.loc	4 0 2                   @ ../Driver/i2c_eeprom.c:0:2
	mvn	r5, #12288
.Ltmp37:
	.p2align	2
.LBB2_19:                               @ =>This Inner Loop Header: Depth=1
	@DEBUG_VALUE: I2C_EERPOM_ReadByte:slave_address <- $r8
	@DEBUG_VALUE: I2C_EERPOM_ReadByte:data_address <- $r9
	@DEBUG_VALUE: I2C_EERPOM_ReadByte:timeout <- undef
	.loc	4 114 14 is_stmt 1      @ ../Driver/i2c_eeprom.c:114:14
	adds	r5, #1
.Ltmp38:
	.loc	4 114 6 is_stmt 0       @ ../Driver/i2c_eeprom.c:114:6
	beq	.LBB2_33
.Ltmp39:
@ %bb.20:                               @   in Loop: Header=BB2_19 Depth=1
	@DEBUG_VALUE: I2C_EERPOM_ReadByte:slave_address <- $r8
	@DEBUG_VALUE: I2C_EERPOM_ReadByte:data_address <- $r9
	@DEBUG_VALUE: I2C_EERPOM_ReadByte:timeout <- [DW_OP_constu 1, DW_OP_minus, DW_OP_stack_value] undef
	.loc	4 112 10 is_stmt 1      @ ../Driver/i2c_eeprom.c:112:10
	mov	r0, r4
	mov	r1, r10
	bl	I2C_GetFlagStatus
	.loc	4 112 2 is_stmt 0       @ ../Driver/i2c_eeprom.c:112:2
	cmp	r0, #0
	beq	.LBB2_19
.Ltmp40:
.LBB2_21:
	@DEBUG_VALUE: I2C_EERPOM_ReadByte:slave_address <- $r8
	@DEBUG_VALUE: I2C_EERPOM_ReadByte:data_address <- $r9
	.loc	4 118 2 is_stmt 1       @ ../Driver/i2c_eeprom.c:118:2
	mov	r0, r4
	mov	r1, r8
	movs	r2, #1
	bl	I2C_Send7bitAddress
.Ltmp41:
	@DEBUG_VALUE: I2C_EERPOM_ReadByte:timeout <- 12288
	.loc	4 121 10                @ ../Driver/i2c_eeprom.c:121:10
	mov	r0, r4
	mov	r1, r11
	bl	I2C_GetFlagStatus
	.loc	4 121 2 is_stmt 0       @ ../Driver/i2c_eeprom.c:121:2
	cbnz	r0, .LBB2_25
.Ltmp42:
@ %bb.22:
	@DEBUG_VALUE: I2C_EERPOM_ReadByte:slave_address <- $r8
	@DEBUG_VALUE: I2C_EERPOM_ReadByte:data_address <- $r9
	.loc	4 0 2                   @ ../Driver/i2c_eeprom.c:0:2
	mvn	r5, #12288
.Ltmp43:
	.p2align	2
.LBB2_23:                               @ =>This Inner Loop Header: Depth=1
	@DEBUG_VALUE: I2C_EERPOM_ReadByte:slave_address <- $r8
	@DEBUG_VALUE: I2C_EERPOM_ReadByte:data_address <- $r9
	@DEBUG_VALUE: I2C_EERPOM_ReadByte:timeout <- undef
	.loc	4 123 14 is_stmt 1      @ ../Driver/i2c_eeprom.c:123:14
	adds	r5, #1
.Ltmp44:
	.loc	4 123 6 is_stmt 0       @ ../Driver/i2c_eeprom.c:123:6
	beq	.LBB2_34
.Ltmp45:
@ %bb.24:                               @   in Loop: Header=BB2_23 Depth=1
	@DEBUG_VALUE: I2C_EERPOM_ReadByte:slave_address <- $r8
	@DEBUG_VALUE: I2C_EERPOM_ReadByte:data_address <- $r9
	@DEBUG_VALUE: I2C_EERPOM_ReadByte:timeout <- [DW_OP_constu 1, DW_OP_minus, DW_OP_stack_value] undef
	.loc	4 121 10 is_stmt 1      @ ../Driver/i2c_eeprom.c:121:10
	mov	r0, r4
	mov	r1, r11
	bl	I2C_GetFlagStatus
	.loc	4 121 2 is_stmt 0       @ ../Driver/i2c_eeprom.c:121:2
	cmp	r0, #0
	beq	.LBB2_23
.Ltmp46:
.LBB2_25:
	@DEBUG_VALUE: I2C_EERPOM_ReadByte:slave_address <- $r8
	@DEBUG_VALUE: I2C_EERPOM_ReadByte:data_address <- $r9
	.loc	4 127 8 is_stmt 1       @ ../Driver/i2c_eeprom.c:127:8
	ldrh	r0, [r4, #24]
.Ltmp47:
	@DEBUG_VALUE: I2C_EERPOM_ReadByte:timeout <- 12288
	.loc	4 130 10                @ ../Driver/i2c_eeprom.c:130:10
	add.w	r5, r10, #63
	mov	r0, r4
	mov	r1, r5
	bl	I2C_GetFlagStatus
	.loc	4 130 2 is_stmt 0       @ ../Driver/i2c_eeprom.c:130:2
	cbnz	r0, .LBB2_29
.Ltmp48:
@ %bb.26:
	@DEBUG_VALUE: I2C_EERPOM_ReadByte:slave_address <- $r8
	@DEBUG_VALUE: I2C_EERPOM_ReadByte:data_address <- $r9
	.loc	4 0 2                   @ ../Driver/i2c_eeprom.c:0:2
	mvn	r6, #12288
.Ltmp49:
	.p2align	2
.LBB2_27:                               @ =>This Inner Loop Header: Depth=1
	@DEBUG_VALUE: I2C_EERPOM_ReadByte:slave_address <- $r8
	@DEBUG_VALUE: I2C_EERPOM_ReadByte:data_address <- $r9
	@DEBUG_VALUE: I2C_EERPOM_ReadByte:timeout <- undef
	.loc	4 132 14 is_stmt 1      @ ../Driver/i2c_eeprom.c:132:14
	adds	r6, #1
.Ltmp50:
	.loc	4 132 6 is_stmt 0       @ ../Driver/i2c_eeprom.c:132:6
	beq	.LBB2_37
.Ltmp51:
@ %bb.28:                               @   in Loop: Header=BB2_27 Depth=1
	@DEBUG_VALUE: I2C_EERPOM_ReadByte:slave_address <- $r8
	@DEBUG_VALUE: I2C_EERPOM_ReadByte:data_address <- $r9
	@DEBUG_VALUE: I2C_EERPOM_ReadByte:timeout <- [DW_OP_constu 1, DW_OP_minus, DW_OP_stack_value] undef
	.loc	4 130 10 is_stmt 1      @ ../Driver/i2c_eeprom.c:130:10
	mov	r0, r4
	mov	r1, r5
	bl	I2C_GetFlagStatus
	.loc	4 130 2 is_stmt 0       @ ../Driver/i2c_eeprom.c:130:2
	cmp	r0, #0
	beq	.LBB2_27
.Ltmp52:
.LBB2_29:
	@DEBUG_VALUE: I2C_EERPOM_ReadByte:slave_address <- $r8
	@DEBUG_VALUE: I2C_EERPOM_ReadByte:data_address <- $r9
	.loc	4 136 2 is_stmt 1       @ ../Driver/i2c_eeprom.c:136:2
	mov	r0, r4
	movs	r1, #1
	bl	I2C_GenerateSTOP
	.loc	4 137 23                @ ../Driver/i2c_eeprom.c:137:23
	mov	r0, r4
	bl	I2C_ReceiveData
	mov	r5, r0
.Ltmp53:
	@DEBUG_VALUE: I2C_EERPOM_ReadByte:ret_data <- undef
	.loc	4 138 2                 @ ../Driver/i2c_eeprom.c:138:2
	mov	r0, r4
	movs	r1, #1
	bl	I2C_AcknowledgeConfig
	b	.LBB2_36
.Ltmp54:
.LBB2_30:
	@DEBUG_VALUE: I2C_EERPOM_ReadByte:slave_address <- $r8
	@DEBUG_VALUE: I2C_EERPOM_ReadByte:data_address <- $r9
	.loc	4 0 2 is_stmt 0         @ ../Driver/i2c_eeprom.c:0:2
	mvn	r0, #6
.Ltmp55:
	.loc	4 78 15 is_stmt 1       @ ../Driver/i2c_eeprom.c:78:15
	adds	r5, r0, #6
	b	.LBB2_35
.Ltmp56:
.LBB2_31:
	@DEBUG_VALUE: I2C_EERPOM_ReadByte:slave_address <- $r8
	@DEBUG_VALUE: I2C_EERPOM_ReadByte:data_address <- $r9
	.loc	4 0 15 is_stmt 0        @ ../Driver/i2c_eeprom.c:0:15
	mvn	r0, #6
.Ltmp57:
	.loc	4 88 15 is_stmt 1       @ ../Driver/i2c_eeprom.c:88:15
	adds	r5, r0, #5
	b	.LBB2_35
.Ltmp58:
.LBB2_32:
	@DEBUG_VALUE: I2C_EERPOM_ReadByte:slave_address <- $r8
	@DEBUG_VALUE: I2C_EERPOM_ReadByte:data_address <- $r9
	.loc	4 0 15 is_stmt 0        @ ../Driver/i2c_eeprom.c:0:15
	mvn	r0, #6
.Ltmp59:
	.loc	4 97 15 is_stmt 1       @ ../Driver/i2c_eeprom.c:97:15
	adds	r5, r0, #4
	b	.LBB2_35
.Ltmp60:
.LBB2_33:
	@DEBUG_VALUE: I2C_EERPOM_ReadByte:slave_address <- $r8
	@DEBUG_VALUE: I2C_EERPOM_ReadByte:data_address <- $r9
	.loc	4 0 15 is_stmt 0        @ ../Driver/i2c_eeprom.c:0:15
	mvn	r0, #6
.Ltmp61:
	.loc	4 115 15 is_stmt 1      @ ../Driver/i2c_eeprom.c:115:15
	adds	r5, r0, #2
	b	.LBB2_35
.Ltmp62:
.LBB2_34:
	@DEBUG_VALUE: I2C_EERPOM_ReadByte:slave_address <- $r8
	@DEBUG_VALUE: I2C_EERPOM_ReadByte:data_address <- $r9
	.loc	4 0 15 is_stmt 0        @ ../Driver/i2c_eeprom.c:0:15
	mvn	r0, #6
.Ltmp63:
	.loc	4 124 15 is_stmt 1      @ ../Driver/i2c_eeprom.c:124:15
	adds	r5, r0, #1
.Ltmp64:
.LBB2_35:
	@DEBUG_VALUE: I2C_EERPOM_ReadByte:slave_address <- $r8
	@DEBUG_VALUE: I2C_EERPOM_ReadByte:data_address <- $r9
	.loc	4 0 0 is_stmt 0         @ ../Driver/i2c_eeprom.c:0:0
	mov	r0, r5
	bl	I2C_EEPROM_timeout
.Ltmp65:
.LBB2_36:
	@DEBUG_VALUE: I2C_EERPOM_ReadByte:slave_address <- $r8
	@DEBUG_VALUE: I2C_EERPOM_ReadByte:data_address <- $r9
	.loc	4 140 1 is_stmt 1       @ ../Driver/i2c_eeprom.c:140:1
	sxth	r0, r5
	add	sp, #4
	pop.w	{r4, r5, r6, r7, r8, r9, r10, r11, pc}
.Ltmp66:
.LBB2_37:
	@DEBUG_VALUE: I2C_EERPOM_ReadByte:slave_address <- $r8
	@DEBUG_VALUE: I2C_EERPOM_ReadByte:data_address <- $r9
	.loc	4 133 15                @ ../Driver/i2c_eeprom.c:133:15
	mvn	r0, #6
	bl	I2C_EEPROM_timeout
	movw	r5, #65529
	b	.LBB2_36
.Ltmp67:
.Lfunc_end2:
	.size	I2C_EERPOM_ReadByte, .Lfunc_end2-I2C_EERPOM_ReadByte
	.cfi_endproc
	.cantunwind
	.fnend
                                        @ -- End function
	.section	.text.I2C_EEPROM_timeout,"ax",%progbits
	.hidden	I2C_EEPROM_timeout      @ -- Begin function I2C_EEPROM_timeout
	.globl	I2C_EEPROM_timeout
	.p2align	1
	.type	I2C_EEPROM_timeout,%function
	.code	16                      @ @I2C_EEPROM_timeout
	.thumb_func
I2C_EEPROM_timeout:
.Lfunc_begin3:
	.loc	4 767 0                 @ ../Driver/i2c_eeprom.c:767:0
	.fnstart
	.cfi_startproc
@ %bb.0:
	.save	{r4, r5, r7, lr}
	push	{r4, r5, r7, lr}
	.cfi_def_cfa_offset 16
	.cfi_offset lr, -4
	.cfi_offset r7, -8
	.cfi_offset r5, -12
	.cfi_offset r4, -16
	@DEBUG_VALUE: I2C_EEPROM_timeout:time <- $r0
.Ltmp68:
	@DEBUG_VALUE: I2C_EEPROM_timeout:ret_time <- $r0
	movw	r5, #22528
	mov	r4, r0
.Ltmp69:
	@DEBUG_VALUE: I2C_EEPROM_timeout:ret_time <- $r4
	@DEBUG_VALUE: I2C_EEPROM_timeout:time <- $r4
	.loc	4 771 2 prologue_end    @ ../Driver/i2c_eeprom.c:771:2
	movs	r1, #1
	movt	r5, #16384
	mov	r0, r5
	bl	I2C_GenerateSTOP
	.loc	4 772 2                 @ ../Driver/i2c_eeprom.c:772:2
	mov	r0, r5
	movs	r1, #1
	bl	I2C_SoftwareResetCmd
	.loc	4 773 2                 @ ../Driver/i2c_eeprom.c:773:2
	mov	r0, r5
	movs	r1, #0
	bl	I2C_SoftwareResetCmd
	.loc	4 776 2                 @ ../Driver/i2c_eeprom.c:776:2
	mov	r0, r5
	bl	I2C_DeInit
	.loc	4 778 2                 @ ../Driver/i2c_eeprom.c:778:2
	bl	I2C2_Init
	.loc	4 780 2                 @ ../Driver/i2c_eeprom.c:780:2
	mov	r0, r4
.Ltmp70:
	@DEBUG_VALUE: I2C_EEPROM_timeout:ret_time <- $r0
	@DEBUG_VALUE: I2C_EEPROM_timeout:time <- $r0
	pop	{r4, r5, r7, pc}
.Ltmp71:
.Lfunc_end3:
	.size	I2C_EEPROM_timeout, .Lfunc_end3-I2C_EEPROM_timeout
	.cfi_endproc
	.cantunwind
	.fnend
                                        @ -- End function
	.section	.text.I2C_EERPOM_WriteByte,"ax",%progbits
	.hidden	I2C_EERPOM_WriteByte    @ -- Begin function I2C_EERPOM_WriteByte
	.globl	I2C_EERPOM_WriteByte
	.p2align	1
	.type	I2C_EERPOM_WriteByte,%function
	.code	16                      @ @I2C_EERPOM_WriteByte
	.thumb_func
I2C_EERPOM_WriteByte:
.Lfunc_begin4:
	.loc	4 144 0                 @ ../Driver/i2c_eeprom.c:144:0
	.fnstart
	.cfi_startproc
@ %bb.0:
	.save	{r4, r5, r6, r7, r8, r9, lr}
	push.w	{r4, r5, r6, r7, r8, r9, lr}
	.cfi_def_cfa_offset 28
	.cfi_offset lr, -4
	.cfi_offset r9, -8
	.cfi_offset r8, -12
	.cfi_offset r7, -16
	.cfi_offset r6, -20
	.cfi_offset r5, -24
	.cfi_offset r4, -28
	.pad	#4
	sub	sp, #4
	.cfi_def_cfa_offset 32
	@DEBUG_VALUE: I2C_EERPOM_WriteByte:slave_address <- $r0
	@DEBUG_VALUE: I2C_EERPOM_WriteByte:data_address <- $r1
	@DEBUG_VALUE: I2C_EERPOM_WriteByte:data <- $r2
	movw	r4, #22528
	mov	r9, r1
	mov	r5, r0
.Ltmp72:
	@DEBUG_VALUE: I2C_EERPOM_WriteByte:timeout <- 12288
	@DEBUG_VALUE: I2C_EERPOM_WriteByte:ret_data <- 0
	@DEBUG_VALUE: I2C_EERPOM_WriteByte:data <- $r8
	@DEBUG_VALUE: I2C_EERPOM_WriteByte:data_address <- $r9
	@DEBUG_VALUE: I2C_EERPOM_WriteByte:slave_address <- $r5
	.loc	4 148 2 prologue_end    @ ../Driver/i2c_eeprom.c:148:2
	movs	r1, #1
	mov	r8, r2
.Ltmp73:
	.loc	4 0 2 is_stmt 0         @ ../Driver/i2c_eeprom.c:0:2
	movt	r4, #16384
	.loc	4 148 2                 @ ../Driver/i2c_eeprom.c:148:2
	mov	r0, r4
	bl	I2C_GenerateSTART
	movs	r6, #1
	.loc	4 151 10 is_stmt 1      @ ../Driver/i2c_eeprom.c:151:10
	mov	r0, r4
	movt	r6, #4096
	mov	r1, r6
	bl	I2C_GetFlagStatus
	.loc	4 151 2 is_stmt 0       @ ../Driver/i2c_eeprom.c:151:2
	cbnz	r0, .LBB4_4
.Ltmp74:
@ %bb.1:
	@DEBUG_VALUE: I2C_EERPOM_WriteByte:slave_address <- $r5
	@DEBUG_VALUE: I2C_EERPOM_WriteByte:data_address <- $r9
	.loc	4 0 2                   @ ../Driver/i2c_eeprom.c:0:2
	mvn	r7, #12288
.Ltmp75:
	.p2align	2
.LBB4_2:                                @ =>This Inner Loop Header: Depth=1
	@DEBUG_VALUE: I2C_EERPOM_WriteByte:slave_address <- $r5
	@DEBUG_VALUE: I2C_EERPOM_WriteByte:data_address <- $r9
	@DEBUG_VALUE: I2C_EERPOM_WriteByte:timeout <- undef
	.loc	4 153 14 is_stmt 1      @ ../Driver/i2c_eeprom.c:153:14
	adds	r7, #1
.Ltmp76:
	.loc	4 153 6 is_stmt 0       @ ../Driver/i2c_eeprom.c:153:6
	beq	.LBB4_21
.Ltmp77:
@ %bb.3:                                @   in Loop: Header=BB4_2 Depth=1
	@DEBUG_VALUE: I2C_EERPOM_WriteByte:slave_address <- $r5
	@DEBUG_VALUE: I2C_EERPOM_WriteByte:data_address <- $r9
	@DEBUG_VALUE: I2C_EERPOM_WriteByte:timeout <- [DW_OP_constu 1, DW_OP_minus, DW_OP_stack_value] undef
	.loc	4 151 10 is_stmt 1      @ ../Driver/i2c_eeprom.c:151:10
	mov	r0, r4
	mov	r1, r6
	bl	I2C_GetFlagStatus
	.loc	4 151 2 is_stmt 0       @ ../Driver/i2c_eeprom.c:151:2
	cmp	r0, #0
	beq	.LBB4_2
.Ltmp78:
.LBB4_4:
	@DEBUG_VALUE: I2C_EERPOM_WriteByte:slave_address <- $r5
	@DEBUG_VALUE: I2C_EERPOM_WriteByte:data_address <- $r9
	@DEBUG_VALUE: I2C_EERPOM_WriteByte:slave_address <- $r5
	.loc	4 157 2 is_stmt 1       @ ../Driver/i2c_eeprom.c:157:2
	mov	r0, r4
	mov	r1, r5
	movs	r2, #0
	bl	I2C_Send7bitAddress
.Ltmp79:
	@DEBUG_VALUE: I2C_EERPOM_WriteByte:timeout <- 12288
	.loc	4 160 10                @ ../Driver/i2c_eeprom.c:160:10
	adds	r5, r6, #1
.Ltmp80:
	mov	r0, r4
	mov	r1, r5
	bl	I2C_GetFlagStatus
	.loc	4 160 2 is_stmt 0       @ ../Driver/i2c_eeprom.c:160:2
	cbnz	r0, .LBB4_8
.Ltmp81:
@ %bb.5:
	@DEBUG_VALUE: I2C_EERPOM_WriteByte:data_address <- $r9
	.loc	4 0 2                   @ ../Driver/i2c_eeprom.c:0:2
	mvn	r7, #12288
.Ltmp82:
	.p2align	2
.LBB4_6:                                @ =>This Inner Loop Header: Depth=1
	@DEBUG_VALUE: I2C_EERPOM_WriteByte:data_address <- $r9
	@DEBUG_VALUE: I2C_EERPOM_WriteByte:timeout <- undef
	.loc	4 162 14 is_stmt 1      @ ../Driver/i2c_eeprom.c:162:14
	adds	r7, #1
.Ltmp83:
	.loc	4 162 6 is_stmt 0       @ ../Driver/i2c_eeprom.c:162:6
	beq	.LBB4_23
.Ltmp84:
@ %bb.7:                                @   in Loop: Header=BB4_6 Depth=1
	@DEBUG_VALUE: I2C_EERPOM_WriteByte:data_address <- $r9
	@DEBUG_VALUE: I2C_EERPOM_WriteByte:timeout <- [DW_OP_constu 1, DW_OP_minus, DW_OP_stack_value] undef
	.loc	4 160 10 is_stmt 1      @ ../Driver/i2c_eeprom.c:160:10
	mov	r0, r4
	mov	r1, r5
	bl	I2C_GetFlagStatus
	.loc	4 160 2 is_stmt 0       @ ../Driver/i2c_eeprom.c:160:2
	cmp	r0, #0
	beq	.LBB4_6
.Ltmp85:
.LBB4_8:
	@DEBUG_VALUE: I2C_EERPOM_WriteByte:data_address <- $r9
	.loc	4 166 8 is_stmt 1       @ ../Driver/i2c_eeprom.c:166:8
	ldrh	r0, [r4, #24]
.Ltmp86:
	@DEBUG_VALUE: I2C_EERPOM_WriteByte:timeout <- 12288
	.loc	4 169 10                @ ../Driver/i2c_eeprom.c:169:10
	add.w	r5, r6, #127
	mov	r0, r4
	mov	r1, r5
	bl	I2C_GetFlagStatus
	.loc	4 169 2 is_stmt 0       @ ../Driver/i2c_eeprom.c:169:2
	cbnz	r0, .LBB4_12
.Ltmp87:
@ %bb.9:
	@DEBUG_VALUE: I2C_EERPOM_WriteByte:data_address <- $r9
	.loc	4 0 2                   @ ../Driver/i2c_eeprom.c:0:2
	mvn	r7, #12288
.Ltmp88:
	.p2align	2
.LBB4_10:                               @ =>This Inner Loop Header: Depth=1
	@DEBUG_VALUE: I2C_EERPOM_WriteByte:data_address <- $r9
	@DEBUG_VALUE: I2C_EERPOM_WriteByte:timeout <- undef
	.loc	4 171 14 is_stmt 1      @ ../Driver/i2c_eeprom.c:171:14
	adds	r7, #1
.Ltmp89:
	.loc	4 171 6 is_stmt 0       @ ../Driver/i2c_eeprom.c:171:6
	beq	.LBB4_24
.Ltmp90:
@ %bb.11:                               @   in Loop: Header=BB4_10 Depth=1
	@DEBUG_VALUE: I2C_EERPOM_WriteByte:data_address <- $r9
	@DEBUG_VALUE: I2C_EERPOM_WriteByte:timeout <- [DW_OP_constu 1, DW_OP_minus, DW_OP_stack_value] undef
	.loc	4 169 10 is_stmt 1      @ ../Driver/i2c_eeprom.c:169:10
	mov	r0, r4
	mov	r1, r5
	bl	I2C_GetFlagStatus
	.loc	4 169 2 is_stmt 0       @ ../Driver/i2c_eeprom.c:169:2
	cmp	r0, #0
	beq	.LBB4_10
.Ltmp91:
.LBB4_12:
	@DEBUG_VALUE: I2C_EERPOM_WriteByte:data_address <- $r9
	@DEBUG_VALUE: I2C_EERPOM_WriteByte:data_address <- $r9
	.loc	4 175 2 is_stmt 1       @ ../Driver/i2c_eeprom.c:175:2
	mov	r0, r4
	mov	r1, r9
	bl	I2C_SendData
.Ltmp92:
	@DEBUG_VALUE: I2C_EERPOM_WriteByte:timeout <- 12288
	.loc	4 178 10                @ ../Driver/i2c_eeprom.c:178:10
	mov	r0, r4
	mov	r1, r5
	bl	I2C_GetFlagStatus
	.loc	4 178 2 is_stmt 0       @ ../Driver/i2c_eeprom.c:178:2
	cbnz	r0, .LBB4_16
.Ltmp93:
@ %bb.13:
	@DEBUG_VALUE: I2C_EERPOM_WriteByte:data_address <- $r9
	.loc	4 0 2                   @ ../Driver/i2c_eeprom.c:0:2
	mvn	r7, #12288
.Ltmp94:
	.p2align	2
.LBB4_14:                               @ =>This Inner Loop Header: Depth=1
	@DEBUG_VALUE: I2C_EERPOM_WriteByte:data_address <- $r9
	@DEBUG_VALUE: I2C_EERPOM_WriteByte:timeout <- undef
	.loc	4 180 14 is_stmt 1      @ ../Driver/i2c_eeprom.c:180:14
	adds	r7, #1
.Ltmp95:
	.loc	4 180 6 is_stmt 0       @ ../Driver/i2c_eeprom.c:180:6
	beq	.LBB4_25
.Ltmp96:
@ %bb.15:                               @   in Loop: Header=BB4_14 Depth=1
	@DEBUG_VALUE: I2C_EERPOM_WriteByte:data_address <- $r9
	@DEBUG_VALUE: I2C_EERPOM_WriteByte:timeout <- [DW_OP_constu 1, DW_OP_minus, DW_OP_stack_value] undef
	.loc	4 178 10 is_stmt 1      @ ../Driver/i2c_eeprom.c:178:10
	mov	r0, r4
	mov	r1, r5
	bl	I2C_GetFlagStatus
	.loc	4 178 2 is_stmt 0       @ ../Driver/i2c_eeprom.c:178:2
	cmp	r0, #0
	beq	.LBB4_14
.Ltmp97:
.LBB4_16:
	@DEBUG_VALUE: I2C_EERPOM_WriteByte:data_address <- $r9
	@DEBUG_VALUE: I2C_EERPOM_WriteByte:data <- $r8
	.loc	4 184 2 is_stmt 1       @ ../Driver/i2c_eeprom.c:184:2
	mov	r0, r4
	mov	r1, r8
	bl	I2C_SendData
	mvn	r7, #12288
.Ltmp98:
	@DEBUG_VALUE: I2C_EERPOM_WriteByte:timeout <- 12288
	.loc	4 0 2 is_stmt 0         @ ../Driver/i2c_eeprom.c:0:2
	adds	r6, #3
.Ltmp99:
	.p2align	2
.LBB4_17:                               @ =>This Inner Loop Header: Depth=1
	@DEBUG_VALUE: I2C_EERPOM_WriteByte:data_address <- $r9
	@DEBUG_VALUE: I2C_EERPOM_WriteByte:data <- $r8
	@DEBUG_VALUE: I2C_EERPOM_WriteByte:timeout <- undef
	.loc	4 187 11 is_stmt 1      @ ../Driver/i2c_eeprom.c:187:11
	mov	r0, r4
	mov	r1, r5
	bl	I2C_GetFlagStatus
	.loc	4 187 50 is_stmt 0      @ ../Driver/i2c_eeprom.c:187:50
	cbz	r0, .LBB4_19
.Ltmp100:
@ %bb.18:                               @   in Loop: Header=BB4_17 Depth=1
	@DEBUG_VALUE: I2C_EERPOM_WriteByte:data_address <- $r9
	@DEBUG_VALUE: I2C_EERPOM_WriteByte:data <- $r8
	.loc	4 187 55                @ ../Driver/i2c_eeprom.c:187:55
	mov	r0, r4
	mov	r1, r6
	bl	I2C_GetFlagStatus
	.loc	4 187 2                 @ ../Driver/i2c_eeprom.c:187:2
	cbnz	r0, .LBB4_22
.Ltmp101:
.LBB4_19:                               @   in Loop: Header=BB4_17 Depth=1
	@DEBUG_VALUE: I2C_EERPOM_WriteByte:data_address <- $r9
	@DEBUG_VALUE: I2C_EERPOM_WriteByte:data <- $r8
	@DEBUG_VALUE: I2C_EERPOM_WriteByte:timeout <- [DW_OP_constu 1, DW_OP_minus, DW_OP_stack_value] undef
	.loc	4 189 14 is_stmt 1      @ ../Driver/i2c_eeprom.c:189:14
	adds	r7, #1
.Ltmp102:
	.loc	4 189 6 is_stmt 0       @ ../Driver/i2c_eeprom.c:189:6
	bne	.LBB4_17
.Ltmp103:
@ %bb.20:
	@DEBUG_VALUE: I2C_EERPOM_WriteByte:data_address <- $r9
	@DEBUG_VALUE: I2C_EERPOM_WriteByte:data <- $r8
	.loc	4 190 15 is_stmt 1      @ ../Driver/i2c_eeprom.c:190:15
	mvn	r0, #4
	bl	I2C_EEPROM_timeout
	movw	r0, #65531
	b	.LBB4_27
.Ltmp104:
.LBB4_21:
	@DEBUG_VALUE: I2C_EERPOM_WriteByte:slave_address <- $r5
	@DEBUG_VALUE: I2C_EERPOM_WriteByte:data_address <- $r9
	.loc	4 0 15 is_stmt 0        @ ../Driver/i2c_eeprom.c:0:15
	mvn	r0, #4
.Ltmp105:
	.loc	4 154 15 is_stmt 1      @ ../Driver/i2c_eeprom.c:154:15
	adds	r0, #4
	b	.LBB4_26
.Ltmp106:
.LBB4_22:
	@DEBUG_VALUE: I2C_EERPOM_WriteByte:data_address <- $r9
	@DEBUG_VALUE: I2C_EERPOM_WriteByte:data <- $r8
	.loc	4 193 2                 @ ../Driver/i2c_eeprom.c:193:2
	mov	r0, r4
	movs	r1, #1
	bl	I2C_GenerateSTOP
	movs	r0, #0
	@DEBUG_VALUE: I2C_EERPOM_WriteByte:ret_data <- 0
	b	.LBB4_27
.Ltmp107:
.LBB4_23:
	@DEBUG_VALUE: I2C_EERPOM_WriteByte:data_address <- $r9
	.loc	4 0 2 is_stmt 0         @ ../Driver/i2c_eeprom.c:0:2
	mvn	r0, #4
.Ltmp108:
	.loc	4 163 15 is_stmt 1      @ ../Driver/i2c_eeprom.c:163:15
	adds	r0, #3
	b	.LBB4_26
.Ltmp109:
.LBB4_24:
	@DEBUG_VALUE: I2C_EERPOM_WriteByte:data_address <- $r9
	.loc	4 0 15 is_stmt 0        @ ../Driver/i2c_eeprom.c:0:15
	mvn	r0, #4
.Ltmp110:
	.loc	4 172 15 is_stmt 1      @ ../Driver/i2c_eeprom.c:172:15
	adds	r0, #2
	b	.LBB4_26
.Ltmp111:
.LBB4_25:
	@DEBUG_VALUE: I2C_EERPOM_WriteByte:data_address <- $r9
	.loc	4 0 15 is_stmt 0        @ ../Driver/i2c_eeprom.c:0:15
	mvn	r0, #4
.Ltmp112:
	.loc	4 181 15 is_stmt 1      @ ../Driver/i2c_eeprom.c:181:15
	adds	r0, #1
.Ltmp113:
.LBB4_26:
	@DEBUG_VALUE: I2C_EERPOM_WriteByte:data_address <- $r9
	.loc	4 0 0 is_stmt 0         @ ../Driver/i2c_eeprom.c:0:0
	bl	I2C_EEPROM_timeout
.Ltmp114:
.LBB4_27:
	@DEBUG_VALUE: I2C_EERPOM_WriteByte:data_address <- $r9
	.loc	4 196 1 is_stmt 1       @ ../Driver/i2c_eeprom.c:196:1
	sxth	r0, r0
	add	sp, #4
	pop.w	{r4, r5, r6, r7, r8, r9, pc}
.Ltmp115:
.Lfunc_end4:
	.size	I2C_EERPOM_WriteByte, .Lfunc_end4-I2C_EERPOM_WriteByte
	.cfi_endproc
	.cantunwind
	.fnend
                                        @ -- End function
	.section	.text.I2C_EERPOM_ReadBytes,"ax",%progbits
	.hidden	I2C_EERPOM_ReadBytes    @ -- Begin function I2C_EERPOM_ReadBytes
	.globl	I2C_EERPOM_ReadBytes
	.p2align	1
	.type	I2C_EERPOM_ReadBytes,%function
	.code	16                      @ @I2C_EERPOM_ReadBytes
	.thumb_func
I2C_EERPOM_ReadBytes:
.Lfunc_begin5:
	.loc	4 200 0                 @ ../Driver/i2c_eeprom.c:200:0
	.fnstart
	.cfi_startproc
@ %bb.0:
	.save	{r4, r5, r6, r7, r8, r9, r10, r11, lr}
	push.w	{r4, r5, r6, r7, r8, r9, r10, r11, lr}
	.cfi_def_cfa_offset 36
	.cfi_offset lr, -4
	.cfi_offset r11, -8
	.cfi_offset r10, -12
	.cfi_offset r9, -16
	.cfi_offset r8, -20
	.cfi_offset r7, -24
	.cfi_offset r6, -28
	.cfi_offset r5, -32
	.cfi_offset r4, -36
	.pad	#4
	sub	sp, #4
	.cfi_def_cfa_offset 40
	@DEBUG_VALUE: I2C_EERPOM_ReadBytes:slave_address <- $r0
	@DEBUG_VALUE: I2C_EERPOM_ReadBytes:data_address <- $r1
	@DEBUG_VALUE: I2C_EERPOM_ReadBytes:cnt <- $r2
	movw	r8, #65528
.Ltmp116:
	@DEBUG_VALUE: I2C_EERPOM_ReadBytes:timeout <- 12288
	@DEBUG_VALUE: I2C_EERPOM_ReadBytes:ret_data <- 0
	.loc	4 205 5 prologue_end    @ ../Driver/i2c_eeprom.c:205:5
	cmp	r2, #0
	beq.w	.LBB5_42
.Ltmp117:
@ %bb.1:
	@DEBUG_VALUE: I2C_EERPOM_ReadBytes:cnt <- $r2
	@DEBUG_VALUE: I2C_EERPOM_ReadBytes:data_address <- $r1
	@DEBUG_VALUE: I2C_EERPOM_ReadBytes:slave_address <- $r0
	.loc	4 0 5 is_stmt 0         @ ../Driver/i2c_eeprom.c:0:5
	movw	r5, #22528
	mov	r6, r1
.Ltmp118:
	@DEBUG_VALUE: I2C_EERPOM_ReadBytes:data_address <- $r6
	@DEBUG_VALUE: I2C_EERPOM_ReadBytes:data_address <- $r6
	mov	r7, r0
.Ltmp119:
	@DEBUG_VALUE: I2C_EERPOM_ReadBytes:slave_address <- $r7
	@DEBUG_VALUE: I2C_EERPOM_ReadBytes:slave_address <- $r7
	.loc	4 206 2 is_stmt 1       @ ../Driver/i2c_eeprom.c:206:2
	movs	r1, #1
	mov	r10, r2
.Ltmp120:
	@DEBUG_VALUE: I2C_EERPOM_ReadBytes:cnt <- $r10
	@DEBUG_VALUE: I2C_EERPOM_ReadBytes:cnt <- $r10
	.loc	4 0 2 is_stmt 0         @ ../Driver/i2c_eeprom.c:0:2
	movt	r5, #16384
	.loc	4 206 2                 @ ../Driver/i2c_eeprom.c:206:2
	mov	r0, r5
	bl	I2C_GenerateSTART
	@DEBUG_VALUE: I2C_EERPOM_ReadBytes:timeout <- 12288
	movw	r11, #1
	.loc	4 209 10 is_stmt 1      @ ../Driver/i2c_eeprom.c:209:10
	mov	r0, r5
	movt	r11, #4096
	mov	r1, r11
	bl	I2C_GetFlagStatus
	.loc	4 209 2 is_stmt 0       @ ../Driver/i2c_eeprom.c:209:2
	cbnz	r0, .LBB5_5
.Ltmp121:
@ %bb.2:
	@DEBUG_VALUE: I2C_EERPOM_ReadBytes:cnt <- $r10
	@DEBUG_VALUE: I2C_EERPOM_ReadBytes:slave_address <- $r7
	@DEBUG_VALUE: I2C_EERPOM_ReadBytes:data_address <- $r6
	.loc	4 0 2                   @ ../Driver/i2c_eeprom.c:0:2
	mvn	r4, #12288
.Ltmp122:
	.p2align	2
.LBB5_3:                                @ =>This Inner Loop Header: Depth=1
	@DEBUG_VALUE: I2C_EERPOM_ReadBytes:cnt <- $r10
	@DEBUG_VALUE: I2C_EERPOM_ReadBytes:slave_address <- $r7
	@DEBUG_VALUE: I2C_EERPOM_ReadBytes:data_address <- $r6
	@DEBUG_VALUE: I2C_EERPOM_ReadBytes:timeout <- undef
	.loc	4 211 14 is_stmt 1      @ ../Driver/i2c_eeprom.c:211:14
	adds	r4, #1
.Ltmp123:
	.loc	4 211 6 is_stmt 0       @ ../Driver/i2c_eeprom.c:211:6
	beq.w	.LBB5_35
.Ltmp124:
@ %bb.4:                                @   in Loop: Header=BB5_3 Depth=1
	@DEBUG_VALUE: I2C_EERPOM_ReadBytes:cnt <- $r10
	@DEBUG_VALUE: I2C_EERPOM_ReadBytes:slave_address <- $r7
	@DEBUG_VALUE: I2C_EERPOM_ReadBytes:data_address <- $r6
	@DEBUG_VALUE: I2C_EERPOM_ReadBytes:timeout <- [DW_OP_constu 1, DW_OP_minus, DW_OP_stack_value] undef
	.loc	4 209 10 is_stmt 1      @ ../Driver/i2c_eeprom.c:209:10
	mov	r0, r5
	mov	r1, r11
	bl	I2C_GetFlagStatus
	.loc	4 209 2 is_stmt 0       @ ../Driver/i2c_eeprom.c:209:2
	cmp	r0, #0
	beq	.LBB5_3
.Ltmp125:
.LBB5_5:
	@DEBUG_VALUE: I2C_EERPOM_ReadBytes:cnt <- $r10
	@DEBUG_VALUE: I2C_EERPOM_ReadBytes:slave_address <- $r7
	@DEBUG_VALUE: I2C_EERPOM_ReadBytes:data_address <- $r6
	@DEBUG_VALUE: I2C_EERPOM_ReadBytes:slave_address <- $r7
	.loc	4 221 3 is_stmt 1       @ ../Driver/i2c_eeprom.c:221:3
	mov	r0, r5
.Ltmp126:
	.loc	4 215 5                 @ ../Driver/i2c_eeprom.c:215:5
	cmp.w	r10, #1
.Ltmp127:
	.loc	4 221 3                 @ ../Driver/i2c_eeprom.c:221:3
	ite	ne
	movne	r1, #1
.Ltmp128:
	.loc	4 217 3                 @ ../Driver/i2c_eeprom.c:217:3
	moveq	r1, #0
.Ltmp129:
	.loc	4 0 0 is_stmt 0         @ ../Driver/i2c_eeprom.c:0:0
	bl	I2C_AcknowledgeConfig
.Ltmp130:
	.loc	4 224 2 is_stmt 1       @ ../Driver/i2c_eeprom.c:224:2
	mov	r0, r5
	mov	r1, r7
	movs	r2, #0
	bl	I2C_Send7bitAddress
.Ltmp131:
	@DEBUG_VALUE: I2C_EERPOM_ReadBytes:timeout <- 12288
	.loc	4 227 10                @ ../Driver/i2c_eeprom.c:227:10
	add.w	r9, r11, #1
	mov	r0, r5
	mov	r1, r9
	bl	I2C_GetFlagStatus
	.loc	4 227 2 is_stmt 0       @ ../Driver/i2c_eeprom.c:227:2
	cbnz	r0, .LBB5_9
.Ltmp132:
@ %bb.6:
	@DEBUG_VALUE: I2C_EERPOM_ReadBytes:cnt <- $r10
	@DEBUG_VALUE: I2C_EERPOM_ReadBytes:slave_address <- $r7
	@DEBUG_VALUE: I2C_EERPOM_ReadBytes:data_address <- $r6
	.loc	4 0 2                   @ ../Driver/i2c_eeprom.c:0:2
	mvn	r4, #12288
.Ltmp133:
	.p2align	2
.LBB5_7:                                @ =>This Inner Loop Header: Depth=1
	@DEBUG_VALUE: I2C_EERPOM_ReadBytes:cnt <- $r10
	@DEBUG_VALUE: I2C_EERPOM_ReadBytes:slave_address <- $r7
	@DEBUG_VALUE: I2C_EERPOM_ReadBytes:data_address <- $r6
	@DEBUG_VALUE: I2C_EERPOM_ReadBytes:timeout <- undef
	.loc	4 229 14 is_stmt 1      @ ../Driver/i2c_eeprom.c:229:14
	adds	r4, #1
.Ltmp134:
	.loc	4 229 6 is_stmt 0       @ ../Driver/i2c_eeprom.c:229:6
	beq.w	.LBB5_36
.Ltmp135:
@ %bb.8:                                @   in Loop: Header=BB5_7 Depth=1
	@DEBUG_VALUE: I2C_EERPOM_ReadBytes:cnt <- $r10
	@DEBUG_VALUE: I2C_EERPOM_ReadBytes:slave_address <- $r7
	@DEBUG_VALUE: I2C_EERPOM_ReadBytes:data_address <- $r6
	@DEBUG_VALUE: I2C_EERPOM_ReadBytes:timeout <- [DW_OP_constu 1, DW_OP_minus, DW_OP_stack_value] undef
	.loc	4 227 10 is_stmt 1      @ ../Driver/i2c_eeprom.c:227:10
	mov	r0, r5
	mov	r1, r9
	bl	I2C_GetFlagStatus
	.loc	4 227 2 is_stmt 0       @ ../Driver/i2c_eeprom.c:227:2
	cmp	r0, #0
	beq	.LBB5_7
.Ltmp136:
.LBB5_9:
	@DEBUG_VALUE: I2C_EERPOM_ReadBytes:cnt <- $r10
	@DEBUG_VALUE: I2C_EERPOM_ReadBytes:slave_address <- $r7
	@DEBUG_VALUE: I2C_EERPOM_ReadBytes:data_address <- $r6
	.loc	4 0 2                   @ ../Driver/i2c_eeprom.c:0:2
	str	r7, [sp]                @ 4-byte Spill
.Ltmp137:
	@DEBUG_VALUE: I2C_EERPOM_ReadBytes:slave_address <- [$sp+0]
	.loc	4 236 10 is_stmt 1      @ ../Driver/i2c_eeprom.c:236:10
	add.w	r4, r11, #127
	.loc	4 233 8                 @ ../Driver/i2c_eeprom.c:233:8
	ldrh	r0, [r5, #24]
.Ltmp138:
	@DEBUG_VALUE: I2C_EERPOM_ReadBytes:timeout <- 12288
	.loc	4 236 10                @ ../Driver/i2c_eeprom.c:236:10
	mov	r1, r4
	mov	r0, r5
	bl	I2C_GetFlagStatus
	.loc	4 236 2 is_stmt 0       @ ../Driver/i2c_eeprom.c:236:2
	cbnz	r0, .LBB5_13
.Ltmp139:
@ %bb.10:
	@DEBUG_VALUE: I2C_EERPOM_ReadBytes:slave_address <- [$sp+0]
	@DEBUG_VALUE: I2C_EERPOM_ReadBytes:cnt <- $r10
	@DEBUG_VALUE: I2C_EERPOM_ReadBytes:data_address <- $r6
	.loc	4 0 2                   @ ../Driver/i2c_eeprom.c:0:2
	mvn	r7, #12288
.Ltmp140:
	.p2align	2
.LBB5_11:                               @ =>This Inner Loop Header: Depth=1
	@DEBUG_VALUE: I2C_EERPOM_ReadBytes:slave_address <- [$sp+0]
	@DEBUG_VALUE: I2C_EERPOM_ReadBytes:cnt <- $r10
	@DEBUG_VALUE: I2C_EERPOM_ReadBytes:data_address <- $r6
	@DEBUG_VALUE: I2C_EERPOM_ReadBytes:timeout <- undef
	.loc	4 238 14 is_stmt 1      @ ../Driver/i2c_eeprom.c:238:14
	adds	r7, #1
.Ltmp141:
	.loc	4 238 6 is_stmt 0       @ ../Driver/i2c_eeprom.c:238:6
	beq.w	.LBB5_37
.Ltmp142:
@ %bb.12:                               @   in Loop: Header=BB5_11 Depth=1
	@DEBUG_VALUE: I2C_EERPOM_ReadBytes:slave_address <- [$sp+0]
	@DEBUG_VALUE: I2C_EERPOM_ReadBytes:cnt <- $r10
	@DEBUG_VALUE: I2C_EERPOM_ReadBytes:data_address <- $r6
	@DEBUG_VALUE: I2C_EERPOM_ReadBytes:timeout <- [DW_OP_constu 1, DW_OP_minus, DW_OP_stack_value] undef
	.loc	4 236 10 is_stmt 1      @ ../Driver/i2c_eeprom.c:236:10
	mov	r0, r5
	mov	r1, r4
	bl	I2C_GetFlagStatus
	.loc	4 236 2 is_stmt 0       @ ../Driver/i2c_eeprom.c:236:2
	cmp	r0, #0
	beq	.LBB5_11
.Ltmp143:
.LBB5_13:
	@DEBUG_VALUE: I2C_EERPOM_ReadBytes:slave_address <- [$sp+0]
	@DEBUG_VALUE: I2C_EERPOM_ReadBytes:cnt <- $r10
	@DEBUG_VALUE: I2C_EERPOM_ReadBytes:data_address <- $r6
	@DEBUG_VALUE: I2C_EERPOM_ReadBytes:data_address <- $r6
	.loc	4 242 2 is_stmt 1       @ ../Driver/i2c_eeprom.c:242:2
	mov	r0, r5
	mov	r1, r6
	bl	I2C_SendData
	mvn	r7, #12288
.Ltmp144:
	@DEBUG_VALUE: I2C_EERPOM_ReadBytes:timeout <- 12288
	.loc	4 0 2 is_stmt 0         @ ../Driver/i2c_eeprom.c:0:2
	add.w	r6, r11, #3
.Ltmp145:
	.p2align	2
.LBB5_14:                               @ =>This Inner Loop Header: Depth=1
	@DEBUG_VALUE: I2C_EERPOM_ReadBytes:slave_address <- [$sp+0]
	@DEBUG_VALUE: I2C_EERPOM_ReadBytes:cnt <- $r10
	@DEBUG_VALUE: I2C_EERPOM_ReadBytes:timeout <- undef
	.loc	4 245 11 is_stmt 1      @ ../Driver/i2c_eeprom.c:245:11
	mov	r0, r5
	mov	r1, r4
	bl	I2C_GetFlagStatus
	.loc	4 245 50 is_stmt 0      @ ../Driver/i2c_eeprom.c:245:50
	cbz	r0, .LBB5_16
.Ltmp146:
@ %bb.15:                               @   in Loop: Header=BB5_14 Depth=1
	@DEBUG_VALUE: I2C_EERPOM_ReadBytes:slave_address <- [$sp+0]
	@DEBUG_VALUE: I2C_EERPOM_ReadBytes:cnt <- $r10
	.loc	4 245 55                @ ../Driver/i2c_eeprom.c:245:55
	mov	r0, r5
	mov	r1, r6
	bl	I2C_GetFlagStatus
	.loc	4 245 2                 @ ../Driver/i2c_eeprom.c:245:2
	cbnz	r0, .LBB5_18
.Ltmp147:
.LBB5_16:                               @   in Loop: Header=BB5_14 Depth=1
	@DEBUG_VALUE: I2C_EERPOM_ReadBytes:slave_address <- [$sp+0]
	@DEBUG_VALUE: I2C_EERPOM_ReadBytes:cnt <- $r10
	@DEBUG_VALUE: I2C_EERPOM_ReadBytes:timeout <- [DW_OP_constu 1, DW_OP_minus, DW_OP_stack_value] undef
	.loc	4 247 14 is_stmt 1      @ ../Driver/i2c_eeprom.c:247:14
	adds	r7, #1
.Ltmp148:
	.loc	4 247 6 is_stmt 0       @ ../Driver/i2c_eeprom.c:247:6
	bne	.LBB5_14
.Ltmp149:
@ %bb.17:
	@DEBUG_VALUE: I2C_EERPOM_ReadBytes:slave_address <- [$sp+0]
	@DEBUG_VALUE: I2C_EERPOM_ReadBytes:cnt <- $r10
	.loc	4 248 15 is_stmt 1      @ ../Driver/i2c_eeprom.c:248:15
	add.w	r8, r8, #4
	b	.LBB5_41
.Ltmp150:
.LBB5_18:
	@DEBUG_VALUE: I2C_EERPOM_ReadBytes:slave_address <- [$sp+0]
	@DEBUG_VALUE: I2C_EERPOM_ReadBytes:cnt <- $r10
	.loc	4 251 2                 @ ../Driver/i2c_eeprom.c:251:2
	mov	r0, r5
	movs	r1, #1
	bl	I2C_GenerateSTART
.Ltmp151:
	@DEBUG_VALUE: I2C_EERPOM_ReadBytes:timeout <- 12288
	.loc	4 254 10                @ ../Driver/i2c_eeprom.c:254:10
	mov	r0, r5
	mov	r1, r11
	bl	I2C_GetFlagStatus
	ldr	r6, [sp]                @ 4-byte Reload
	.loc	4 254 2 is_stmt 0       @ ../Driver/i2c_eeprom.c:254:2
	cbnz	r0, .LBB5_22
.Ltmp152:
@ %bb.19:
	@DEBUG_VALUE: I2C_EERPOM_ReadBytes:slave_address <- [$sp+0]
	@DEBUG_VALUE: I2C_EERPOM_ReadBytes:cnt <- $r10
	.loc	4 0 2                   @ ../Driver/i2c_eeprom.c:0:2
	mvn	r4, #12288
.Ltmp153:
	.p2align	2
.LBB5_20:                               @ =>This Inner Loop Header: Depth=1
	@DEBUG_VALUE: I2C_EERPOM_ReadBytes:slave_address <- [$sp+0]
	@DEBUG_VALUE: I2C_EERPOM_ReadBytes:cnt <- $r10
	@DEBUG_VALUE: I2C_EERPOM_ReadBytes:timeout <- undef
	.loc	4 256 14 is_stmt 1      @ ../Driver/i2c_eeprom.c:256:14
	adds	r4, #1
.Ltmp154:
	.loc	4 256 6 is_stmt 0       @ ../Driver/i2c_eeprom.c:256:6
	beq	.LBB5_39
.Ltmp155:
@ %bb.21:                               @   in Loop: Header=BB5_20 Depth=1
	@DEBUG_VALUE: I2C_EERPOM_ReadBytes:slave_address <- [$sp+0]
	@DEBUG_VALUE: I2C_EERPOM_ReadBytes:cnt <- $r10
	@DEBUG_VALUE: I2C_EERPOM_ReadBytes:timeout <- [DW_OP_constu 1, DW_OP_minus, DW_OP_stack_value] undef
	.loc	4 254 10 is_stmt 1      @ ../Driver/i2c_eeprom.c:254:10
	mov	r0, r5
	mov	r1, r11
	bl	I2C_GetFlagStatus
	.loc	4 254 2 is_stmt 0       @ ../Driver/i2c_eeprom.c:254:2
	cmp	r0, #0
	beq	.LBB5_20
.Ltmp156:
.LBB5_22:
	@DEBUG_VALUE: I2C_EERPOM_ReadBytes:slave_address <- [$sp+0]
	@DEBUG_VALUE: I2C_EERPOM_ReadBytes:cnt <- $r10
	.loc	4 260 2 is_stmt 1       @ ../Driver/i2c_eeprom.c:260:2
	mov	r0, r5
	mov	r1, r6
	movs	r2, #1
	bl	I2C_Send7bitAddress
.Ltmp157:
	@DEBUG_VALUE: I2C_EERPOM_ReadBytes:timeout <- 12288
	.loc	4 263 10                @ ../Driver/i2c_eeprom.c:263:10
	mov	r0, r5
	mov	r1, r9
	bl	I2C_GetFlagStatus
	.loc	4 263 2 is_stmt 0       @ ../Driver/i2c_eeprom.c:263:2
	cbnz	r0, .LBB5_26
.Ltmp158:
@ %bb.23:
	@DEBUG_VALUE: I2C_EERPOM_ReadBytes:slave_address <- [$sp+0]
	@DEBUG_VALUE: I2C_EERPOM_ReadBytes:cnt <- $r10
	.loc	4 0 2                   @ ../Driver/i2c_eeprom.c:0:2
	mvn	r4, #12288
.Ltmp159:
	.p2align	2
.LBB5_24:                               @ =>This Inner Loop Header: Depth=1
	@DEBUG_VALUE: I2C_EERPOM_ReadBytes:slave_address <- [$sp+0]
	@DEBUG_VALUE: I2C_EERPOM_ReadBytes:cnt <- $r10
	@DEBUG_VALUE: I2C_EERPOM_ReadBytes:timeout <- undef
	.loc	4 265 14 is_stmt 1      @ ../Driver/i2c_eeprom.c:265:14
	adds	r4, #1
.Ltmp160:
	.loc	4 265 6 is_stmt 0       @ ../Driver/i2c_eeprom.c:265:6
	beq	.LBB5_40
.Ltmp161:
@ %bb.25:                               @   in Loop: Header=BB5_24 Depth=1
	@DEBUG_VALUE: I2C_EERPOM_ReadBytes:slave_address <- [$sp+0]
	@DEBUG_VALUE: I2C_EERPOM_ReadBytes:cnt <- $r10
	@DEBUG_VALUE: I2C_EERPOM_ReadBytes:timeout <- [DW_OP_constu 1, DW_OP_minus, DW_OP_stack_value] undef
	.loc	4 263 10 is_stmt 1      @ ../Driver/i2c_eeprom.c:263:10
	mov	r0, r5
	mov	r1, r9
	bl	I2C_GetFlagStatus
	.loc	4 263 2 is_stmt 0       @ ../Driver/i2c_eeprom.c:263:2
	cmp	r0, #0
	beq	.LBB5_24
.Ltmp162:
.LBB5_26:
	@DEBUG_VALUE: I2C_EERPOM_ReadBytes:slave_address <- [$sp+0]
	@DEBUG_VALUE: I2C_EERPOM_ReadBytes:cnt <- $r10
	.loc	4 0 2                   @ ../Driver/i2c_eeprom.c:0:2
	movw	r9, :lower16:i2c_ee_buffer
	.loc	4 269 8 is_stmt 1       @ ../Driver/i2c_eeprom.c:269:8
	ldrh	r0, [r5, #24]
	movs	r6, #0
.Ltmp163:
	@DEBUG_VALUE: I2C_EERPOM_ReadBytes:n <- 0
	.loc	4 0 8 is_stmt 0         @ ../Driver/i2c_eeprom.c:0:8
	add.w	r4, r11, #63
	movt	r9, :upper16:i2c_ee_buffer
.Ltmp164:
.LBB5_27:                               @ =>This Loop Header: Depth=1
                                        @     Child Loop BB5_31 Depth 2
	@DEBUG_VALUE: I2C_EERPOM_ReadBytes:slave_address <- [$sp+0]
	@DEBUG_VALUE: I2C_EERPOM_ReadBytes:cnt <- $r10
	@DEBUG_VALUE: I2C_EERPOM_ReadBytes:n <- $r6
	.loc	4 274 9 is_stmt 1       @ ../Driver/i2c_eeprom.c:274:9
	add.w	r11, r6, #1
.Ltmp165:
	.loc	4 274 6 is_stmt 0       @ ../Driver/i2c_eeprom.c:274:6
	cmp	r11, r10
	blo	.LBB5_29
.Ltmp166:
@ %bb.28:                               @   in Loop: Header=BB5_27 Depth=1
	@DEBUG_VALUE: I2C_EERPOM_ReadBytes:slave_address <- [$sp+0]
	@DEBUG_VALUE: I2C_EERPOM_ReadBytes:n <- $r6
	@DEBUG_VALUE: I2C_EERPOM_ReadBytes:cnt <- $r10
	.loc	4 276 4 is_stmt 1       @ ../Driver/i2c_eeprom.c:276:4
	mov	r0, r5
	movs	r1, #0
	bl	I2C_AcknowledgeConfig
	.loc	4 277 4                 @ ../Driver/i2c_eeprom.c:277:4
	mov	r0, r5
	movs	r1, #1
	bl	I2C_GenerateSTOP
.Ltmp167:
.LBB5_29:                               @   in Loop: Header=BB5_27 Depth=1
	@DEBUG_VALUE: I2C_EERPOM_ReadBytes:slave_address <- [$sp+0]
	@DEBUG_VALUE: I2C_EERPOM_ReadBytes:n <- $r6
	@DEBUG_VALUE: I2C_EERPOM_ReadBytes:cnt <- $r10
	@DEBUG_VALUE: I2C_EERPOM_ReadBytes:timeout <- 12288
	.loc	4 282 11                @ ../Driver/i2c_eeprom.c:282:11
	mov	r0, r5
	mov	r1, r4
	bl	I2C_GetFlagStatus
	.loc	4 282 3 is_stmt 0       @ ../Driver/i2c_eeprom.c:282:3
	cbnz	r0, .LBB5_33
.Ltmp168:
@ %bb.30:                               @   in Loop: Header=BB5_27 Depth=1
	@DEBUG_VALUE: I2C_EERPOM_ReadBytes:slave_address <- [$sp+0]
	@DEBUG_VALUE: I2C_EERPOM_ReadBytes:n <- $r6
	@DEBUG_VALUE: I2C_EERPOM_ReadBytes:cnt <- $r10
	.loc	4 0 3                   @ ../Driver/i2c_eeprom.c:0:3
	mvn	r7, #12288
.Ltmp169:
	.p2align	2
.LBB5_31:                               @   Parent Loop BB5_27 Depth=1
                                        @ =>  This Inner Loop Header: Depth=2
	@DEBUG_VALUE: I2C_EERPOM_ReadBytes:slave_address <- [$sp+0]
	@DEBUG_VALUE: I2C_EERPOM_ReadBytes:n <- $r6
	@DEBUG_VALUE: I2C_EERPOM_ReadBytes:cnt <- $r10
	@DEBUG_VALUE: I2C_EERPOM_ReadBytes:timeout <- undef
	.loc	4 284 15 is_stmt 1      @ ../Driver/i2c_eeprom.c:284:15
	adds	r7, #1
.Ltmp170:
	.loc	4 284 7 is_stmt 0       @ ../Driver/i2c_eeprom.c:284:7
	beq	.LBB5_38
.Ltmp171:
@ %bb.32:                               @   in Loop: Header=BB5_31 Depth=2
	@DEBUG_VALUE: I2C_EERPOM_ReadBytes:slave_address <- [$sp+0]
	@DEBUG_VALUE: I2C_EERPOM_ReadBytes:n <- $r6
	@DEBUG_VALUE: I2C_EERPOM_ReadBytes:cnt <- $r10
	@DEBUG_VALUE: I2C_EERPOM_ReadBytes:timeout <- [DW_OP_constu 1, DW_OP_minus, DW_OP_stack_value] undef
	.loc	4 282 11 is_stmt 1      @ ../Driver/i2c_eeprom.c:282:11
	mov	r0, r5
	mov	r1, r4
	bl	I2C_GetFlagStatus
	.loc	4 282 3 is_stmt 0       @ ../Driver/i2c_eeprom.c:282:3
	cmp	r0, #0
	beq	.LBB5_31
.Ltmp172:
.LBB5_33:                               @   in Loop: Header=BB5_27 Depth=1
	@DEBUG_VALUE: I2C_EERPOM_ReadBytes:slave_address <- [$sp+0]
	@DEBUG_VALUE: I2C_EERPOM_ReadBytes:n <- $r6
	@DEBUG_VALUE: I2C_EERPOM_ReadBytes:cnt <- $r10
	.loc	4 288 22 is_stmt 1      @ ../Driver/i2c_eeprom.c:288:22
	mov	r0, r5
	bl	I2C_ReceiveData
	.loc	4 288 20 is_stmt 0      @ ../Driver/i2c_eeprom.c:288:20
	strb.w	r0, [r9, r6]
.Ltmp173:
	@DEBUG_VALUE: I2C_EERPOM_ReadBytes:n <- [DW_OP_plus_uconst 1, DW_OP_stack_value] undef
	.loc	4 271 2 is_stmt 1       @ ../Driver/i2c_eeprom.c:271:2
	cmp	r11, r10
	mov	r6, r11
	blo	.LBB5_27
.Ltmp174:
@ %bb.34:
	@DEBUG_VALUE: I2C_EERPOM_ReadBytes:slave_address <- [$sp+0]
	@DEBUG_VALUE: I2C_EERPOM_ReadBytes:cnt <- $r10
	.loc	4 291 2                 @ ../Driver/i2c_eeprom.c:291:2
	mov	r0, r5
	movs	r1, #1
	bl	I2C_AcknowledgeConfig
	mov.w	r8, #0
	@DEBUG_VALUE: I2C_EERPOM_ReadBytes:ret_data <- 0
	b	.LBB5_42
.Ltmp175:
.LBB5_35:
	@DEBUG_VALUE: I2C_EERPOM_ReadBytes:cnt <- $r10
	@DEBUG_VALUE: I2C_EERPOM_ReadBytes:slave_address <- $r7
	@DEBUG_VALUE: I2C_EERPOM_ReadBytes:data_address <- $r6
	.loc	4 212 15                @ ../Driver/i2c_eeprom.c:212:15
	add.w	r8, r8, #7
	b	.LBB5_41
.Ltmp176:
.LBB5_36:
	@DEBUG_VALUE: I2C_EERPOM_ReadBytes:cnt <- $r10
	@DEBUG_VALUE: I2C_EERPOM_ReadBytes:slave_address <- $r7
	@DEBUG_VALUE: I2C_EERPOM_ReadBytes:data_address <- $r6
	.loc	4 230 15                @ ../Driver/i2c_eeprom.c:230:15
	add.w	r8, r8, #6
	b	.LBB5_41
.Ltmp177:
.LBB5_37:
	@DEBUG_VALUE: I2C_EERPOM_ReadBytes:slave_address <- [$sp+0]
	@DEBUG_VALUE: I2C_EERPOM_ReadBytes:cnt <- $r10
	@DEBUG_VALUE: I2C_EERPOM_ReadBytes:data_address <- $r6
	.loc	4 239 15                @ ../Driver/i2c_eeprom.c:239:15
	add.w	r8, r8, #5
	b	.LBB5_41
.Ltmp178:
.LBB5_38:
	@DEBUG_VALUE: I2C_EERPOM_ReadBytes:slave_address <- [$sp+0]
	@DEBUG_VALUE: I2C_EERPOM_ReadBytes:n <- $r6
	@DEBUG_VALUE: I2C_EERPOM_ReadBytes:cnt <- $r10
	.loc	4 285 16                @ ../Driver/i2c_eeprom.c:285:16
	add.w	r8, r8, #1
	b	.LBB5_41
.Ltmp179:
.LBB5_39:
	@DEBUG_VALUE: I2C_EERPOM_ReadBytes:slave_address <- [$sp+0]
	@DEBUG_VALUE: I2C_EERPOM_ReadBytes:cnt <- $r10
	.loc	4 257 15                @ ../Driver/i2c_eeprom.c:257:15
	add.w	r8, r8, #3
	b	.LBB5_41
.Ltmp180:
.LBB5_40:
	@DEBUG_VALUE: I2C_EERPOM_ReadBytes:slave_address <- [$sp+0]
	@DEBUG_VALUE: I2C_EERPOM_ReadBytes:cnt <- $r10
	.loc	4 266 15                @ ../Driver/i2c_eeprom.c:266:15
	add.w	r8, r8, #2
.Ltmp181:
.LBB5_41:
	@DEBUG_VALUE: I2C_EERPOM_ReadBytes:cnt <- $r10
	.loc	4 0 0 is_stmt 0         @ ../Driver/i2c_eeprom.c:0:0
	sxth.w	r0, r8
	bl	I2C_EEPROM_timeout
.Ltmp182:
.LBB5_42:
	.loc	4 294 1 is_stmt 1       @ ../Driver/i2c_eeprom.c:294:1
	sxth.w	r0, r8
	add	sp, #4
	pop.w	{r4, r5, r6, r7, r8, r9, r10, r11, pc}
.Ltmp183:
.Lfunc_end5:
	.size	I2C_EERPOM_ReadBytes, .Lfunc_end5-I2C_EERPOM_ReadBytes
	.cfi_endproc
	.cantunwind
	.fnend
                                        @ -- End function
	.section	.text.I2C_EERPOM_WriteBytes,"ax",%progbits
	.hidden	I2C_EERPOM_WriteBytes   @ -- Begin function I2C_EERPOM_WriteBytes
	.globl	I2C_EERPOM_WriteBytes
	.p2align	1
	.type	I2C_EERPOM_WriteBytes,%function
	.code	16                      @ @I2C_EERPOM_WriteBytes
	.thumb_func
I2C_EERPOM_WriteBytes:
.Lfunc_begin6:
	.loc	4 298 0                 @ ../Driver/i2c_eeprom.c:298:0
	.fnstart
	.cfi_startproc
@ %bb.0:
	.save	{r4, r5, r6, r7, r8, r9, r10, r11, lr}
	push.w	{r4, r5, r6, r7, r8, r9, r10, r11, lr}
	.cfi_def_cfa_offset 36
	.cfi_offset lr, -4
	.cfi_offset r11, -8
	.cfi_offset r10, -12
	.cfi_offset r9, -16
	.cfi_offset r8, -20
	.cfi_offset r7, -24
	.cfi_offset r6, -28
	.cfi_offset r5, -32
	.cfi_offset r4, -36
	.pad	#4
	sub	sp, #4
	.cfi_def_cfa_offset 40
	@DEBUG_VALUE: I2C_EERPOM_WriteBytes:slave_address <- $r0
	@DEBUG_VALUE: I2C_EERPOM_WriteBytes:data_address <- $r1
	@DEBUG_VALUE: I2C_EERPOM_WriteBytes:cnt <- $r2
	movw	r10, #65530
.Ltmp184:
	@DEBUG_VALUE: I2C_EERPOM_WriteBytes:timeout <- 12288
	@DEBUG_VALUE: I2C_EERPOM_WriteBytes:ret_data <- 0
	.loc	4 303 5 prologue_end    @ ../Driver/i2c_eeprom.c:303:5
	cmp	r2, #0
	beq.w	.LBB6_30
.Ltmp185:
@ %bb.1:
	@DEBUG_VALUE: I2C_EERPOM_WriteBytes:cnt <- $r2
	@DEBUG_VALUE: I2C_EERPOM_WriteBytes:data_address <- $r1
	@DEBUG_VALUE: I2C_EERPOM_WriteBytes:slave_address <- $r0
	.loc	4 0 5 is_stmt 0         @ ../Driver/i2c_eeprom.c:0:5
	movw	r5, #22528
	mov	r8, r1
.Ltmp186:
	@DEBUG_VALUE: I2C_EERPOM_WriteBytes:data_address <- $r8
	@DEBUG_VALUE: I2C_EERPOM_WriteBytes:data_address <- $r8
	mov	r7, r0
.Ltmp187:
	@DEBUG_VALUE: I2C_EERPOM_WriteBytes:slave_address <- $r7
	@DEBUG_VALUE: I2C_EERPOM_WriteBytes:slave_address <- $r7
	.loc	4 304 2 is_stmt 1       @ ../Driver/i2c_eeprom.c:304:2
	movs	r1, #1
	mov	r9, r2
.Ltmp188:
	@DEBUG_VALUE: I2C_EERPOM_WriteBytes:cnt <- $r9
	@DEBUG_VALUE: I2C_EERPOM_WriteBytes:cnt <- $r9
	.loc	4 0 2 is_stmt 0         @ ../Driver/i2c_eeprom.c:0:2
	movt	r5, #16384
	.loc	4 304 2                 @ ../Driver/i2c_eeprom.c:304:2
	mov	r0, r5
	bl	I2C_GenerateSTART
	@DEBUG_VALUE: I2C_EERPOM_WriteBytes:timeout <- 12288
	movs	r6, #1
	.loc	4 307 10 is_stmt 1      @ ../Driver/i2c_eeprom.c:307:10
	mov	r0, r5
	movt	r6, #4096
	mov	r1, r6
	bl	I2C_GetFlagStatus
	.loc	4 307 2 is_stmt 0       @ ../Driver/i2c_eeprom.c:307:2
	cbnz	r0, .LBB6_5
.Ltmp189:
@ %bb.2:
	@DEBUG_VALUE: I2C_EERPOM_WriteBytes:cnt <- $r9
	@DEBUG_VALUE: I2C_EERPOM_WriteBytes:slave_address <- $r7
	@DEBUG_VALUE: I2C_EERPOM_WriteBytes:data_address <- $r8
	.loc	4 0 2                   @ ../Driver/i2c_eeprom.c:0:2
	mvn	r4, #12288
.Ltmp190:
	.p2align	2
.LBB6_3:                                @ =>This Inner Loop Header: Depth=1
	@DEBUG_VALUE: I2C_EERPOM_WriteBytes:cnt <- $r9
	@DEBUG_VALUE: I2C_EERPOM_WriteBytes:slave_address <- $r7
	@DEBUG_VALUE: I2C_EERPOM_WriteBytes:data_address <- $r8
	@DEBUG_VALUE: I2C_EERPOM_WriteBytes:timeout <- undef
	.loc	4 309 14 is_stmt 1      @ ../Driver/i2c_eeprom.c:309:14
	adds	r4, #1
.Ltmp191:
	.loc	4 309 6 is_stmt 0       @ ../Driver/i2c_eeprom.c:309:6
	beq	.LBB6_25
.Ltmp192:
@ %bb.4:                                @   in Loop: Header=BB6_3 Depth=1
	@DEBUG_VALUE: I2C_EERPOM_WriteBytes:cnt <- $r9
	@DEBUG_VALUE: I2C_EERPOM_WriteBytes:slave_address <- $r7
	@DEBUG_VALUE: I2C_EERPOM_WriteBytes:data_address <- $r8
	@DEBUG_VALUE: I2C_EERPOM_WriteBytes:timeout <- [DW_OP_constu 1, DW_OP_minus, DW_OP_stack_value] undef
	.loc	4 307 10 is_stmt 1      @ ../Driver/i2c_eeprom.c:307:10
	mov	r0, r5
	mov	r1, r6
	bl	I2C_GetFlagStatus
	.loc	4 307 2 is_stmt 0       @ ../Driver/i2c_eeprom.c:307:2
	cmp	r0, #0
	beq	.LBB6_3
.Ltmp193:
.LBB6_5:
	@DEBUG_VALUE: I2C_EERPOM_WriteBytes:cnt <- $r9
	@DEBUG_VALUE: I2C_EERPOM_WriteBytes:slave_address <- $r7
	@DEBUG_VALUE: I2C_EERPOM_WriteBytes:data_address <- $r8
	@DEBUG_VALUE: I2C_EERPOM_WriteBytes:slave_address <- $r7
	.loc	4 313 2 is_stmt 1       @ ../Driver/i2c_eeprom.c:313:2
	mov	r0, r5
	mov	r1, r7
	movs	r2, #0
	bl	I2C_Send7bitAddress
.Ltmp194:
	@DEBUG_VALUE: I2C_EERPOM_WriteBytes:timeout <- 12288
	.loc	4 316 10                @ ../Driver/i2c_eeprom.c:316:10
	adds	r7, r6, #1
.Ltmp195:
	mov	r0, r5
	mov	r1, r7
	bl	I2C_GetFlagStatus
	.loc	4 316 2 is_stmt 0       @ ../Driver/i2c_eeprom.c:316:2
	cbnz	r0, .LBB6_9
.Ltmp196:
@ %bb.6:
	@DEBUG_VALUE: I2C_EERPOM_WriteBytes:cnt <- $r9
	@DEBUG_VALUE: I2C_EERPOM_WriteBytes:data_address <- $r8
	.loc	4 0 2                   @ ../Driver/i2c_eeprom.c:0:2
	mvn	r4, #12288
.Ltmp197:
	.p2align	2
.LBB6_7:                                @ =>This Inner Loop Header: Depth=1
	@DEBUG_VALUE: I2C_EERPOM_WriteBytes:cnt <- $r9
	@DEBUG_VALUE: I2C_EERPOM_WriteBytes:data_address <- $r8
	@DEBUG_VALUE: I2C_EERPOM_WriteBytes:timeout <- undef
	.loc	4 318 14 is_stmt 1      @ ../Driver/i2c_eeprom.c:318:14
	adds	r4, #1
.Ltmp198:
	.loc	4 318 6 is_stmt 0       @ ../Driver/i2c_eeprom.c:318:6
	beq	.LBB6_26
.Ltmp199:
@ %bb.8:                                @   in Loop: Header=BB6_7 Depth=1
	@DEBUG_VALUE: I2C_EERPOM_WriteBytes:cnt <- $r9
	@DEBUG_VALUE: I2C_EERPOM_WriteBytes:data_address <- $r8
	@DEBUG_VALUE: I2C_EERPOM_WriteBytes:timeout <- [DW_OP_constu 1, DW_OP_minus, DW_OP_stack_value] undef
	.loc	4 316 10 is_stmt 1      @ ../Driver/i2c_eeprom.c:316:10
	mov	r0, r5
	mov	r1, r7
	bl	I2C_GetFlagStatus
	.loc	4 316 2 is_stmt 0       @ ../Driver/i2c_eeprom.c:316:2
	cmp	r0, #0
	beq	.LBB6_7
.Ltmp200:
.LBB6_9:
	@DEBUG_VALUE: I2C_EERPOM_WriteBytes:cnt <- $r9
	@DEBUG_VALUE: I2C_EERPOM_WriteBytes:data_address <- $r8
	.loc	4 322 8 is_stmt 1       @ ../Driver/i2c_eeprom.c:322:8
	ldrh	r0, [r5, #24]
.Ltmp201:
	@DEBUG_VALUE: I2C_EERPOM_WriteBytes:timeout <- 12288
	.loc	4 325 10                @ ../Driver/i2c_eeprom.c:325:10
	add.w	r7, r6, #127
	mov	r0, r5
	mov	r1, r7
	bl	I2C_GetFlagStatus
	.loc	4 325 2 is_stmt 0       @ ../Driver/i2c_eeprom.c:325:2
	cbnz	r0, .LBB6_13
.Ltmp202:
@ %bb.10:
	@DEBUG_VALUE: I2C_EERPOM_WriteBytes:cnt <- $r9
	@DEBUG_VALUE: I2C_EERPOM_WriteBytes:data_address <- $r8
	.loc	4 0 2                   @ ../Driver/i2c_eeprom.c:0:2
	mvn	r4, #12288
.Ltmp203:
	.p2align	2
.LBB6_11:                               @ =>This Inner Loop Header: Depth=1
	@DEBUG_VALUE: I2C_EERPOM_WriteBytes:cnt <- $r9
	@DEBUG_VALUE: I2C_EERPOM_WriteBytes:data_address <- $r8
	@DEBUG_VALUE: I2C_EERPOM_WriteBytes:timeout <- undef
	.loc	4 327 14 is_stmt 1      @ ../Driver/i2c_eeprom.c:327:14
	adds	r4, #1
.Ltmp204:
	.loc	4 327 6 is_stmt 0       @ ../Driver/i2c_eeprom.c:327:6
	beq	.LBB6_27
.Ltmp205:
@ %bb.12:                               @   in Loop: Header=BB6_11 Depth=1
	@DEBUG_VALUE: I2C_EERPOM_WriteBytes:cnt <- $r9
	@DEBUG_VALUE: I2C_EERPOM_WriteBytes:data_address <- $r8
	@DEBUG_VALUE: I2C_EERPOM_WriteBytes:timeout <- [DW_OP_constu 1, DW_OP_minus, DW_OP_stack_value] undef
	.loc	4 325 10 is_stmt 1      @ ../Driver/i2c_eeprom.c:325:10
	mov	r0, r5
	mov	r1, r7
	bl	I2C_GetFlagStatus
	.loc	4 325 2 is_stmt 0       @ ../Driver/i2c_eeprom.c:325:2
	cmp	r0, #0
	beq	.LBB6_11
.Ltmp206:
.LBB6_13:
	@DEBUG_VALUE: I2C_EERPOM_WriteBytes:cnt <- $r9
	@DEBUG_VALUE: I2C_EERPOM_WriteBytes:data_address <- $r8
	@DEBUG_VALUE: I2C_EERPOM_WriteBytes:data_address <- $r8
	.loc	4 331 2 is_stmt 1       @ ../Driver/i2c_eeprom.c:331:2
	mov	r0, r5
	mov	r1, r8
	bl	I2C_SendData
.Ltmp207:
	@DEBUG_VALUE: I2C_EERPOM_WriteBytes:timeout <- 12288
	.loc	4 334 10                @ ../Driver/i2c_eeprom.c:334:10
	mov	r0, r5
	mov	r1, r7
	bl	I2C_GetFlagStatus
	.loc	4 334 2 is_stmt 0       @ ../Driver/i2c_eeprom.c:334:2
	cbnz	r0, .LBB6_17
.Ltmp208:
@ %bb.14:
	@DEBUG_VALUE: I2C_EERPOM_WriteBytes:cnt <- $r9
	@DEBUG_VALUE: I2C_EERPOM_WriteBytes:data_address <- $r8
	.loc	4 0 2                   @ ../Driver/i2c_eeprom.c:0:2
	mvn	r4, #12288
.Ltmp209:
	.p2align	2
.LBB6_15:                               @ =>This Inner Loop Header: Depth=1
	@DEBUG_VALUE: I2C_EERPOM_WriteBytes:cnt <- $r9
	@DEBUG_VALUE: I2C_EERPOM_WriteBytes:data_address <- $r8
	@DEBUG_VALUE: I2C_EERPOM_WriteBytes:timeout <- undef
	.loc	4 336 14 is_stmt 1      @ ../Driver/i2c_eeprom.c:336:14
	adds	r4, #1
	beq	.LBB6_28
.Ltmp210:
@ %bb.16:                               @   in Loop: Header=BB6_15 Depth=1
	@DEBUG_VALUE: I2C_EERPOM_WriteBytes:cnt <- $r9
	@DEBUG_VALUE: I2C_EERPOM_WriteBytes:data_address <- $r8
	@DEBUG_VALUE: I2C_EERPOM_WriteBytes:timeout <- [DW_OP_constu 1, DW_OP_minus, DW_OP_stack_value] undef
	.loc	4 334 10                @ ../Driver/i2c_eeprom.c:334:10
	mov	r0, r5
	mov	r1, r7
	bl	I2C_GetFlagStatus
	.loc	4 334 2 is_stmt 0       @ ../Driver/i2c_eeprom.c:334:2
	cmp	r0, #0
	beq	.LBB6_15
.Ltmp211:
.LBB6_17:
	@DEBUG_VALUE: I2C_EERPOM_WriteBytes:cnt <- $r9
	@DEBUG_VALUE: I2C_EERPOM_WriteBytes:data_address <- $r8
	@DEBUG_VALUE: I2C_EERPOM_WriteBytes:n <- 0
	.loc	4 0 2                   @ ../Driver/i2c_eeprom.c:0:2
	movw	r8, :lower16:i2c_ee_buffer
.Ltmp212:
	mov.w	r11, #0
	adds	r6, #3
	movt	r8, :upper16:i2c_ee_buffer
.Ltmp213:
.LBB6_18:                               @ =>This Loop Header: Depth=1
                                        @     Child Loop BB6_19 Depth 2
	@DEBUG_VALUE: I2C_EERPOM_WriteBytes:cnt <- $r9
	@DEBUG_VALUE: I2C_EERPOM_WriteBytes:n <- $r11
	.loc	4 342 22 is_stmt 1      @ ../Driver/i2c_eeprom.c:342:22
	ldrb.w	r1, [r8, r11]
	.loc	4 342 3 is_stmt 0       @ ../Driver/i2c_eeprom.c:342:3
	mov	r0, r5
	bl	I2C_SendData
	mvn	r4, #12288
.Ltmp214:
	@DEBUG_VALUE: I2C_EERPOM_WriteBytes:timeout <- 12288
	.p2align	2
.LBB6_19:                               @   Parent Loop BB6_18 Depth=1
                                        @ =>  This Inner Loop Header: Depth=2
	@DEBUG_VALUE: I2C_EERPOM_WriteBytes:n <- $r11
	@DEBUG_VALUE: I2C_EERPOM_WriteBytes:cnt <- $r9
	@DEBUG_VALUE: I2C_EERPOM_WriteBytes:timeout <- undef
	.loc	4 345 12 is_stmt 1      @ ../Driver/i2c_eeprom.c:345:12
	mov	r0, r5
	mov	r1, r7
	bl	I2C_GetFlagStatus
	cbz	r0, .LBB6_21
.Ltmp215:
@ %bb.20:                               @   in Loop: Header=BB6_19 Depth=2
	@DEBUG_VALUE: I2C_EERPOM_WriteBytes:n <- $r11
	@DEBUG_VALUE: I2C_EERPOM_WriteBytes:cnt <- $r9
	.loc	4 345 56 is_stmt 0      @ ../Driver/i2c_eeprom.c:345:56
	mov	r0, r5
	mov	r1, r6
	bl	I2C_GetFlagStatus
	cbnz	r0, .LBB6_22
.Ltmp216:
.LBB6_21:                               @   in Loop: Header=BB6_19 Depth=2
	@DEBUG_VALUE: I2C_EERPOM_WriteBytes:n <- $r11
	@DEBUG_VALUE: I2C_EERPOM_WriteBytes:cnt <- $r9
	@DEBUG_VALUE: I2C_EERPOM_WriteBytes:timeout <- [DW_OP_constu 1, DW_OP_minus, DW_OP_stack_value] undef
	.loc	4 347 15 is_stmt 1      @ ../Driver/i2c_eeprom.c:347:15
	adds	r4, #1
	bne	.LBB6_19
	b	.LBB6_24
.Ltmp217:
.LBB6_22:                               @   in Loop: Header=BB6_18 Depth=1
	@DEBUG_VALUE: I2C_EERPOM_WriteBytes:n <- $r11
	@DEBUG_VALUE: I2C_EERPOM_WriteBytes:cnt <- $r9
	.loc	4 340 23                @ ../Driver/i2c_eeprom.c:340:23
	add.w	r11, r11, #1
.Ltmp218:
	@DEBUG_VALUE: I2C_EERPOM_WriteBytes:n <- [DW_OP_plus_uconst 1, DW_OP_stack_value] undef
	.loc	4 340 2 is_stmt 0       @ ../Driver/i2c_eeprom.c:340:2
	cmp	r11, r9
	blo	.LBB6_18
.Ltmp219:
@ %bb.23:
	@DEBUG_VALUE: I2C_EERPOM_WriteBytes:cnt <- $r9
	.loc	4 352 2 is_stmt 1       @ ../Driver/i2c_eeprom.c:352:2
	mov	r0, r5
	movs	r1, #1
	bl	I2C_GenerateSTOP
	mov.w	r10, #0
	@DEBUG_VALUE: I2C_EERPOM_WriteBytes:ret_data <- 0
	b	.LBB6_30
.Ltmp220:
.LBB6_24:
	@DEBUG_VALUE: I2C_EERPOM_WriteBytes:n <- $r11
	@DEBUG_VALUE: I2C_EERPOM_WriteBytes:cnt <- $r9
	.loc	4 348 16                @ ../Driver/i2c_eeprom.c:348:16
	add.w	r10, r10, #1
	b	.LBB6_29
.Ltmp221:
.LBB6_25:
	@DEBUG_VALUE: I2C_EERPOM_WriteBytes:cnt <- $r9
	@DEBUG_VALUE: I2C_EERPOM_WriteBytes:slave_address <- $r7
	@DEBUG_VALUE: I2C_EERPOM_WriteBytes:data_address <- $r8
	.loc	4 310 15                @ ../Driver/i2c_eeprom.c:310:15
	add.w	r10, r10, #5
	b	.LBB6_29
.Ltmp222:
.LBB6_26:
	@DEBUG_VALUE: I2C_EERPOM_WriteBytes:cnt <- $r9
	@DEBUG_VALUE: I2C_EERPOM_WriteBytes:data_address <- $r8
	.loc	4 319 15                @ ../Driver/i2c_eeprom.c:319:15
	add.w	r10, r10, #4
	b	.LBB6_29
.Ltmp223:
.LBB6_27:
	@DEBUG_VALUE: I2C_EERPOM_WriteBytes:cnt <- $r9
	@DEBUG_VALUE: I2C_EERPOM_WriteBytes:data_address <- $r8
	.loc	4 328 15                @ ../Driver/i2c_eeprom.c:328:15
	add.w	r10, r10, #3
	b	.LBB6_29
.Ltmp224:
.LBB6_28:
	@DEBUG_VALUE: I2C_EERPOM_WriteBytes:cnt <- $r9
	@DEBUG_VALUE: I2C_EERPOM_WriteBytes:data_address <- $r8
	.loc	4 337 15                @ ../Driver/i2c_eeprom.c:337:15
	add.w	r10, r10, #2
.Ltmp225:
.LBB6_29:
	@DEBUG_VALUE: I2C_EERPOM_WriteBytes:cnt <- $r9
	.loc	4 0 0 is_stmt 0         @ ../Driver/i2c_eeprom.c:0:0
	sxth.w	r0, r10
	bl	I2C_EEPROM_timeout
.Ltmp226:
.LBB6_30:
	.loc	4 355 1 is_stmt 1       @ ../Driver/i2c_eeprom.c:355:1
	sxth.w	r0, r10
	add	sp, #4
	pop.w	{r4, r5, r6, r7, r8, r9, r10, r11, pc}
.Ltmp227:
.Lfunc_end6:
	.size	I2C_EERPOM_WriteBytes, .Lfunc_end6-I2C_EERPOM_WriteBytes
	.cfi_endproc
	.cantunwind
	.fnend
                                        @ -- End function
	.section	.text.I2C_EERPOM_WriteCMD,"ax",%progbits
	.hidden	I2C_EERPOM_WriteCMD     @ -- Begin function I2C_EERPOM_WriteCMD
	.globl	I2C_EERPOM_WriteCMD
	.p2align	1
	.type	I2C_EERPOM_WriteCMD,%function
	.code	16                      @ @I2C_EERPOM_WriteCMD
	.thumb_func
I2C_EERPOM_WriteCMD:
.Lfunc_begin7:
	.loc	4 359 0                 @ ../Driver/i2c_eeprom.c:359:0
	.fnstart
	.cfi_startproc
@ %bb.0:
	.save	{r4, r5, r6, r7, r8, lr}
	push.w	{r4, r5, r6, r7, r8, lr}
	.cfi_def_cfa_offset 24
	.cfi_offset lr, -4
	.cfi_offset r8, -8
	.cfi_offset r7, -12
	.cfi_offset r6, -16
	.cfi_offset r5, -20
	.cfi_offset r4, -24
	@DEBUG_VALUE: I2C_EERPOM_WriteCMD:slave_address <- $r0
	@DEBUG_VALUE: I2C_EERPOM_WriteCMD:cmd <- $r1
	movw	r4, #22528
	mov	r8, r1
	mov	r7, r0
.Ltmp228:
	@DEBUG_VALUE: I2C_EERPOM_WriteCMD:timeout <- 12288
	@DEBUG_VALUE: I2C_EERPOM_WriteCMD:ret_data <- 0
	@DEBUG_VALUE: I2C_EERPOM_WriteCMD:cmd <- $r8
	@DEBUG_VALUE: I2C_EERPOM_WriteCMD:slave_address <- $r7
	.loc	4 363 2 prologue_end    @ ../Driver/i2c_eeprom.c:363:2
	movs	r1, #1
	movt	r4, #16384
	mov	r0, r4
	bl	I2C_GenerateSTART
	movs	r5, #1
	.loc	4 366 10                @ ../Driver/i2c_eeprom.c:366:10
	mov	r0, r4
	movt	r5, #4096
	mov	r1, r5
	bl	I2C_GetFlagStatus
	.loc	4 366 2 is_stmt 0       @ ../Driver/i2c_eeprom.c:366:2
	cbnz	r0, .LBB7_4
.Ltmp229:
@ %bb.1:
	@DEBUG_VALUE: I2C_EERPOM_WriteCMD:slave_address <- $r7
	@DEBUG_VALUE: I2C_EERPOM_WriteCMD:cmd <- $r8
	.loc	4 0 2                   @ ../Driver/i2c_eeprom.c:0:2
	mvn	r6, #12288
.Ltmp230:
	.p2align	2
.LBB7_2:                                @ =>This Inner Loop Header: Depth=1
	@DEBUG_VALUE: I2C_EERPOM_WriteCMD:slave_address <- $r7
	@DEBUG_VALUE: I2C_EERPOM_WriteCMD:cmd <- $r8
	@DEBUG_VALUE: I2C_EERPOM_WriteCMD:timeout <- undef
	.loc	4 368 14 is_stmt 1      @ ../Driver/i2c_eeprom.c:368:14
	adds	r6, #1
.Ltmp231:
	.loc	4 368 6 is_stmt 0       @ ../Driver/i2c_eeprom.c:368:6
	beq	.LBB7_18
.Ltmp232:
@ %bb.3:                                @   in Loop: Header=BB7_2 Depth=1
	@DEBUG_VALUE: I2C_EERPOM_WriteCMD:slave_address <- $r7
	@DEBUG_VALUE: I2C_EERPOM_WriteCMD:cmd <- $r8
	@DEBUG_VALUE: I2C_EERPOM_WriteCMD:timeout <- [DW_OP_constu 1, DW_OP_minus, DW_OP_stack_value] undef
	.loc	4 366 10 is_stmt 1      @ ../Driver/i2c_eeprom.c:366:10
	mov	r0, r4
	mov	r1, r5
	bl	I2C_GetFlagStatus
	.loc	4 366 2 is_stmt 0       @ ../Driver/i2c_eeprom.c:366:2
	cmp	r0, #0
	beq	.LBB7_2
.Ltmp233:
.LBB7_4:
	@DEBUG_VALUE: I2C_EERPOM_WriteCMD:slave_address <- $r7
	@DEBUG_VALUE: I2C_EERPOM_WriteCMD:cmd <- $r8
	@DEBUG_VALUE: I2C_EERPOM_WriteCMD:slave_address <- $r7
	.loc	4 372 2 is_stmt 1       @ ../Driver/i2c_eeprom.c:372:2
	mov	r0, r4
	mov	r1, r7
	movs	r2, #0
	bl	I2C_Send7bitAddress
.Ltmp234:
	@DEBUG_VALUE: I2C_EERPOM_WriteCMD:timeout <- 12288
	.loc	4 375 10                @ ../Driver/i2c_eeprom.c:375:10
	adds	r7, r5, #1
.Ltmp235:
	mov	r0, r4
	mov	r1, r7
	bl	I2C_GetFlagStatus
	.loc	4 375 2 is_stmt 0       @ ../Driver/i2c_eeprom.c:375:2
	cbnz	r0, .LBB7_8
.Ltmp236:
@ %bb.5:
	@DEBUG_VALUE: I2C_EERPOM_WriteCMD:cmd <- $r8
	.loc	4 0 2                   @ ../Driver/i2c_eeprom.c:0:2
	mvn	r6, #12288
.Ltmp237:
	.p2align	2
.LBB7_6:                                @ =>This Inner Loop Header: Depth=1
	@DEBUG_VALUE: I2C_EERPOM_WriteCMD:cmd <- $r8
	@DEBUG_VALUE: I2C_EERPOM_WriteCMD:timeout <- undef
	.loc	4 377 14 is_stmt 1      @ ../Driver/i2c_eeprom.c:377:14
	adds	r6, #1
.Ltmp238:
	.loc	4 377 6 is_stmt 0       @ ../Driver/i2c_eeprom.c:377:6
	beq	.LBB7_19
.Ltmp239:
@ %bb.7:                                @   in Loop: Header=BB7_6 Depth=1
	@DEBUG_VALUE: I2C_EERPOM_WriteCMD:cmd <- $r8
	@DEBUG_VALUE: I2C_EERPOM_WriteCMD:timeout <- [DW_OP_constu 1, DW_OP_minus, DW_OP_stack_value] undef
	.loc	4 375 10 is_stmt 1      @ ../Driver/i2c_eeprom.c:375:10
	mov	r0, r4
	mov	r1, r7
	bl	I2C_GetFlagStatus
	.loc	4 375 2 is_stmt 0       @ ../Driver/i2c_eeprom.c:375:2
	cmp	r0, #0
	beq	.LBB7_6
.Ltmp240:
.LBB7_8:
	@DEBUG_VALUE: I2C_EERPOM_WriteCMD:cmd <- $r8
	.loc	4 381 8 is_stmt 1       @ ../Driver/i2c_eeprom.c:381:8
	ldrh	r0, [r4, #24]
.Ltmp241:
	@DEBUG_VALUE: I2C_EERPOM_WriteCMD:timeout <- 12288
	.loc	4 384 10                @ ../Driver/i2c_eeprom.c:384:10
	add.w	r7, r5, #127
	mov	r0, r4
	mov	r1, r7
	bl	I2C_GetFlagStatus
	.loc	4 384 2 is_stmt 0       @ ../Driver/i2c_eeprom.c:384:2
	cbnz	r0, .LBB7_12
.Ltmp242:
@ %bb.9:
	@DEBUG_VALUE: I2C_EERPOM_WriteCMD:cmd <- $r8
	.loc	4 0 2                   @ ../Driver/i2c_eeprom.c:0:2
	mvn	r6, #12288
.Ltmp243:
	.p2align	2
.LBB7_10:                               @ =>This Inner Loop Header: Depth=1
	@DEBUG_VALUE: I2C_EERPOM_WriteCMD:cmd <- $r8
	@DEBUG_VALUE: I2C_EERPOM_WriteCMD:timeout <- undef
	.loc	4 386 14 is_stmt 1      @ ../Driver/i2c_eeprom.c:386:14
	adds	r6, #1
.Ltmp244:
	.loc	4 386 6 is_stmt 0       @ ../Driver/i2c_eeprom.c:386:6
	beq	.LBB7_20
.Ltmp245:
@ %bb.11:                               @   in Loop: Header=BB7_10 Depth=1
	@DEBUG_VALUE: I2C_EERPOM_WriteCMD:cmd <- $r8
	@DEBUG_VALUE: I2C_EERPOM_WriteCMD:timeout <- [DW_OP_constu 1, DW_OP_minus, DW_OP_stack_value] undef
	.loc	4 384 10 is_stmt 1      @ ../Driver/i2c_eeprom.c:384:10
	mov	r0, r4
	mov	r1, r7
	bl	I2C_GetFlagStatus
	.loc	4 384 2 is_stmt 0       @ ../Driver/i2c_eeprom.c:384:2
	cmp	r0, #0
	beq	.LBB7_10
.Ltmp246:
.LBB7_12:
	@DEBUG_VALUE: I2C_EERPOM_WriteCMD:cmd <- $r8
	@DEBUG_VALUE: I2C_EERPOM_WriteCMD:cmd <- $r8
	.loc	4 390 2 is_stmt 1       @ ../Driver/i2c_eeprom.c:390:2
	mov	r0, r4
	mov	r1, r8
	bl	I2C_SendData
	mvn	r6, #12288
.Ltmp247:
	@DEBUG_VALUE: I2C_EERPOM_WriteCMD:timeout <- 12288
	.loc	4 0 2 is_stmt 0         @ ../Driver/i2c_eeprom.c:0:2
	adds	r5, #3
.Ltmp248:
	.p2align	2
.LBB7_13:                               @ =>This Inner Loop Header: Depth=1
	@DEBUG_VALUE: I2C_EERPOM_WriteCMD:cmd <- $r8
	@DEBUG_VALUE: I2C_EERPOM_WriteCMD:timeout <- undef
	.loc	4 393 11 is_stmt 1      @ ../Driver/i2c_eeprom.c:393:11
	mov	r0, r4
	mov	r1, r7
	bl	I2C_GetFlagStatus
	.loc	4 393 50 is_stmt 0      @ ../Driver/i2c_eeprom.c:393:50
	cbz	r0, .LBB7_15
.Ltmp249:
@ %bb.14:                               @   in Loop: Header=BB7_13 Depth=1
	@DEBUG_VALUE: I2C_EERPOM_WriteCMD:cmd <- $r8
	.loc	4 393 55                @ ../Driver/i2c_eeprom.c:393:55
	mov	r0, r4
	mov	r1, r5
	bl	I2C_GetFlagStatus
	.loc	4 393 2                 @ ../Driver/i2c_eeprom.c:393:2
	cbnz	r0, .LBB7_17
.Ltmp250:
.LBB7_15:                               @   in Loop: Header=BB7_13 Depth=1
	@DEBUG_VALUE: I2C_EERPOM_WriteCMD:cmd <- $r8
	@DEBUG_VALUE: I2C_EERPOM_WriteCMD:timeout <- [DW_OP_constu 1, DW_OP_minus, DW_OP_stack_value] undef
	.loc	4 395 14 is_stmt 1      @ ../Driver/i2c_eeprom.c:395:14
	adds	r6, #1
.Ltmp251:
	.loc	4 395 6 is_stmt 0       @ ../Driver/i2c_eeprom.c:395:6
	bne	.LBB7_13
.Ltmp252:
@ %bb.16:
	@DEBUG_VALUE: I2C_EERPOM_WriteCMD:cmd <- $r8
	.loc	4 396 15 is_stmt 1      @ ../Driver/i2c_eeprom.c:396:15
	mvn	r0, #3
	bl	I2C_EEPROM_timeout
	movw	r0, #65532
	b	.LBB7_22
.Ltmp253:
.LBB7_17:
	@DEBUG_VALUE: I2C_EERPOM_WriteCMD:cmd <- $r8
	.loc	4 399 2                 @ ../Driver/i2c_eeprom.c:399:2
	mov	r0, r4
	movs	r1, #1
	bl	I2C_GenerateSTOP
	movs	r0, #0
	@DEBUG_VALUE: I2C_EERPOM_WriteCMD:ret_data <- 0
	b	.LBB7_22
.Ltmp254:
.LBB7_18:
	@DEBUG_VALUE: I2C_EERPOM_WriteCMD:slave_address <- $r7
	@DEBUG_VALUE: I2C_EERPOM_WriteCMD:cmd <- $r8
	.loc	4 0 2 is_stmt 0         @ ../Driver/i2c_eeprom.c:0:2
	mvn	r0, #3
.Ltmp255:
	.loc	4 369 15 is_stmt 1      @ ../Driver/i2c_eeprom.c:369:15
	adds	r0, #3
	b	.LBB7_21
.Ltmp256:
.LBB7_19:
	@DEBUG_VALUE: I2C_EERPOM_WriteCMD:cmd <- $r8
	.loc	4 0 15 is_stmt 0        @ ../Driver/i2c_eeprom.c:0:15
	mvn	r0, #3
.Ltmp257:
	.loc	4 378 15 is_stmt 1      @ ../Driver/i2c_eeprom.c:378:15
	adds	r0, #2
	b	.LBB7_21
.Ltmp258:
.LBB7_20:
	@DEBUG_VALUE: I2C_EERPOM_WriteCMD:cmd <- $r8
	.loc	4 0 15 is_stmt 0        @ ../Driver/i2c_eeprom.c:0:15
	mvn	r0, #3
.Ltmp259:
	.loc	4 387 15 is_stmt 1      @ ../Driver/i2c_eeprom.c:387:15
	adds	r0, #1
.Ltmp260:
.LBB7_21:
	@DEBUG_VALUE: I2C_EERPOM_WriteCMD:cmd <- $r8
	.loc	4 0 0 is_stmt 0         @ ../Driver/i2c_eeprom.c:0:0
	bl	I2C_EEPROM_timeout
.Ltmp261:
.LBB7_22:
	@DEBUG_VALUE: I2C_EERPOM_WriteCMD:cmd <- $r8
	.loc	4 402 1 is_stmt 1       @ ../Driver/i2c_eeprom.c:402:1
	sxth	r0, r0
	pop.w	{r4, r5, r6, r7, r8, pc}
.Ltmp262:
.Lfunc_end7:
	.size	I2C_EERPOM_WriteCMD, .Lfunc_end7-I2C_EERPOM_WriteCMD
	.cfi_endproc
	.cantunwind
	.fnend
                                        @ -- End function
	.section	.text.I2C_EERPOM_ReadByte16,"ax",%progbits
	.hidden	I2C_EERPOM_ReadByte16   @ -- Begin function I2C_EERPOM_ReadByte16
	.globl	I2C_EERPOM_ReadByte16
	.p2align	1
	.type	I2C_EERPOM_ReadByte16,%function
	.code	16                      @ @I2C_EERPOM_ReadByte16
	.thumb_func
I2C_EERPOM_ReadByte16:
.Lfunc_begin8:
	.loc	4 406 0                 @ ../Driver/i2c_eeprom.c:406:0
	.fnstart
	.cfi_startproc
@ %bb.0:
	.save	{r4, r5, r6, r7, r8, r9, r10, r11, lr}
	push.w	{r4, r5, r6, r7, r8, r9, r10, r11, lr}
	.cfi_def_cfa_offset 36
	.cfi_offset lr, -4
	.cfi_offset r11, -8
	.cfi_offset r10, -12
	.cfi_offset r9, -16
	.cfi_offset r8, -20
	.cfi_offset r7, -24
	.cfi_offset r6, -28
	.cfi_offset r5, -32
	.cfi_offset r4, -36
	.pad	#4
	sub	sp, #4
	.cfi_def_cfa_offset 40
	@DEBUG_VALUE: I2C_EERPOM_ReadByte16:slave_address <- $r0
	@DEBUG_VALUE: I2C_EERPOM_ReadByte16:data_address <- $r1
	movw	r4, #22528
	mov	r9, r1
	mov	r8, r0
.Ltmp263:
	@DEBUG_VALUE: I2C_EERPOM_ReadByte16:data_address <- $r9
	@DEBUG_VALUE: I2C_EERPOM_ReadByte16:slave_address <- $r8
	.loc	4 414 2 prologue_end    @ ../Driver/i2c_eeprom.c:414:2
	movs	r1, #1
	movt	r4, #16384
	mov	r0, r4
	bl	I2C_GenerateSTART
.Ltmp264:
	@DEBUG_VALUE: I2C_EERPOM_ReadByte16:timeout <- 12288
	.loc	4 0 2 is_stmt 0         @ ../Driver/i2c_eeprom.c:0:2
	movw	r10, #1
	.loc	4 417 10 is_stmt 1      @ ../Driver/i2c_eeprom.c:417:10
	mov	r0, r4
	movt	r10, #4096
	mov	r1, r10
	bl	I2C_GetFlagStatus
.Ltmp265:
	@DEBUG_VALUE: I2C_EERPOM_ReadByte16:ret_data <- 0
	.loc	4 417 2 is_stmt 0       @ ../Driver/i2c_eeprom.c:417:2
	cbnz	r0, .LBB8_4
.Ltmp266:
@ %bb.1:
	@DEBUG_VALUE: I2C_EERPOM_ReadByte16:slave_address <- $r8
	@DEBUG_VALUE: I2C_EERPOM_ReadByte16:data_address <- $r9
	.loc	4 0 2                   @ ../Driver/i2c_eeprom.c:0:2
	mvn	r5, #12288
.Ltmp267:
	.p2align	2
.LBB8_2:                                @ =>This Inner Loop Header: Depth=1
	@DEBUG_VALUE: I2C_EERPOM_ReadByte16:slave_address <- $r8
	@DEBUG_VALUE: I2C_EERPOM_ReadByte16:data_address <- $r9
	@DEBUG_VALUE: I2C_EERPOM_ReadByte16:timeout <- undef
	.loc	4 419 14 is_stmt 1      @ ../Driver/i2c_eeprom.c:419:14
	adds	r5, #1
.Ltmp268:
	.loc	4 419 6 is_stmt 0       @ ../Driver/i2c_eeprom.c:419:6
	beq	.LBB8_21
.Ltmp269:
@ %bb.3:                                @   in Loop: Header=BB8_2 Depth=1
	@DEBUG_VALUE: I2C_EERPOM_ReadByte16:slave_address <- $r8
	@DEBUG_VALUE: I2C_EERPOM_ReadByte16:data_address <- $r9
	@DEBUG_VALUE: I2C_EERPOM_ReadByte16:timeout <- [DW_OP_constu 1, DW_OP_minus, DW_OP_stack_value] undef
	.loc	4 417 10 is_stmt 1      @ ../Driver/i2c_eeprom.c:417:10
	mov	r0, r4
	mov	r1, r10
	bl	I2C_GetFlagStatus
	.loc	4 417 2 is_stmt 0       @ ../Driver/i2c_eeprom.c:417:2
	cmp	r0, #0
	beq	.LBB8_2
.Ltmp270:
.LBB8_4:
	@DEBUG_VALUE: I2C_EERPOM_ReadByte16:slave_address <- $r8
	@DEBUG_VALUE: I2C_EERPOM_ReadByte16:data_address <- $r9
	@DEBUG_VALUE: I2C_EERPOM_ReadByte16:slave_address <- $r8
	.loc	4 423 2 is_stmt 1       @ ../Driver/i2c_eeprom.c:423:2
	mov	r0, r4
	movs	r1, #0
	bl	I2C_AcknowledgeConfig
	.loc	4 424 2                 @ ../Driver/i2c_eeprom.c:424:2
	mov	r0, r4
	mov	r1, r8
	movs	r2, #0
	bl	I2C_Send7bitAddress
.Ltmp271:
	@DEBUG_VALUE: I2C_EERPOM_ReadByte16:timeout <- 12288
	.loc	4 427 10                @ ../Driver/i2c_eeprom.c:427:10
	add.w	r11, r10, #1
	mov	r0, r4
	mov	r1, r11
	bl	I2C_GetFlagStatus
	.loc	4 427 2 is_stmt 0       @ ../Driver/i2c_eeprom.c:427:2
	cbnz	r0, .LBB8_8
.Ltmp272:
@ %bb.5:
	@DEBUG_VALUE: I2C_EERPOM_ReadByte16:slave_address <- $r8
	@DEBUG_VALUE: I2C_EERPOM_ReadByte16:data_address <- $r9
	.loc	4 0 2                   @ ../Driver/i2c_eeprom.c:0:2
	mvn	r5, #12288
.Ltmp273:
	.p2align	2
.LBB8_6:                                @ =>This Inner Loop Header: Depth=1
	@DEBUG_VALUE: I2C_EERPOM_ReadByte16:slave_address <- $r8
	@DEBUG_VALUE: I2C_EERPOM_ReadByte16:data_address <- $r9
	@DEBUG_VALUE: I2C_EERPOM_ReadByte16:timeout <- undef
	.loc	4 429 13 is_stmt 1      @ ../Driver/i2c_eeprom.c:429:13
	adds	r5, #1
.Ltmp274:
	.loc	4 429 6 is_stmt 0       @ ../Driver/i2c_eeprom.c:429:6
	beq	.LBB8_22
.Ltmp275:
@ %bb.7:                                @   in Loop: Header=BB8_6 Depth=1
	@DEBUG_VALUE: I2C_EERPOM_ReadByte16:slave_address <- $r8
	@DEBUG_VALUE: I2C_EERPOM_ReadByte16:data_address <- $r9
	@DEBUG_VALUE: I2C_EERPOM_ReadByte16:timeout <- [DW_OP_constu 1, DW_OP_minus, DW_OP_stack_value] undef
	.loc	4 427 10 is_stmt 1      @ ../Driver/i2c_eeprom.c:427:10
	mov	r0, r4
	mov	r1, r11
	bl	I2C_GetFlagStatus
	.loc	4 427 2 is_stmt 0       @ ../Driver/i2c_eeprom.c:427:2
	cmp	r0, #0
	beq	.LBB8_6
.Ltmp276:
.LBB8_8:
	@DEBUG_VALUE: I2C_EERPOM_ReadByte16:slave_address <- $r8
	@DEBUG_VALUE: I2C_EERPOM_ReadByte16:data_address <- $r9
	.loc	4 433 8 is_stmt 1       @ ../Driver/i2c_eeprom.c:433:8
	ldrh	r0, [r4, #24]
.Ltmp277:
	@DEBUG_VALUE: I2C_EERPOM_ReadByte16:timeout <- 12288
	.loc	4 436 10                @ ../Driver/i2c_eeprom.c:436:10
	add.w	r6, r10, #127
	mov	r0, r4
	mov	r1, r6
	bl	I2C_GetFlagStatus
	.loc	4 436 2 is_stmt 0       @ ../Driver/i2c_eeprom.c:436:2
	cbnz	r0, .LBB8_12
.Ltmp278:
@ %bb.9:
	@DEBUG_VALUE: I2C_EERPOM_ReadByte16:slave_address <- $r8
	@DEBUG_VALUE: I2C_EERPOM_ReadByte16:data_address <- $r9
	.loc	4 0 2                   @ ../Driver/i2c_eeprom.c:0:2
	mvn	r5, #12288
.Ltmp279:
	.p2align	2
.LBB8_10:                               @ =>This Inner Loop Header: Depth=1
	@DEBUG_VALUE: I2C_EERPOM_ReadByte16:slave_address <- $r8
	@DEBUG_VALUE: I2C_EERPOM_ReadByte16:data_address <- $r9
	@DEBUG_VALUE: I2C_EERPOM_ReadByte16:timeout <- undef
	.loc	4 438 14 is_stmt 1      @ ../Driver/i2c_eeprom.c:438:14
	adds	r5, #1
.Ltmp280:
	.loc	4 438 6 is_stmt 0       @ ../Driver/i2c_eeprom.c:438:6
	beq	.LBB8_23
.Ltmp281:
@ %bb.11:                               @   in Loop: Header=BB8_10 Depth=1
	@DEBUG_VALUE: I2C_EERPOM_ReadByte16:slave_address <- $r8
	@DEBUG_VALUE: I2C_EERPOM_ReadByte16:data_address <- $r9
	@DEBUG_VALUE: I2C_EERPOM_ReadByte16:timeout <- [DW_OP_constu 1, DW_OP_minus, DW_OP_stack_value] undef
	.loc	4 436 10 is_stmt 1      @ ../Driver/i2c_eeprom.c:436:10
	mov	r0, r4
	mov	r1, r6
	bl	I2C_GetFlagStatus
	.loc	4 436 2 is_stmt 0       @ ../Driver/i2c_eeprom.c:436:2
	cmp	r0, #0
	beq	.LBB8_10
.Ltmp282:
.LBB8_12:
	@DEBUG_VALUE: I2C_EERPOM_ReadByte16:slave_address <- $r8
	@DEBUG_VALUE: I2C_EERPOM_ReadByte16:data_address <- $r9
	.loc	4 0 2                   @ ../Driver/i2c_eeprom.c:0:2
	lsr.w	r1, r9, #8
	.loc	4 442 2 is_stmt 1       @ ../Driver/i2c_eeprom.c:442:2
	mov	r0, r4
	bl	I2C_SendData
	mvn	r7, #12288
.Ltmp283:
	@DEBUG_VALUE: I2C_EERPOM_ReadByte16:timeout <- 12288
	.loc	4 0 2 is_stmt 0         @ ../Driver/i2c_eeprom.c:0:2
	add.w	r5, r10, #3
.Ltmp284:
	.p2align	2
.LBB8_13:                               @ =>This Inner Loop Header: Depth=1
	@DEBUG_VALUE: I2C_EERPOM_ReadByte16:slave_address <- $r8
	@DEBUG_VALUE: I2C_EERPOM_ReadByte16:data_address <- $r9
	@DEBUG_VALUE: I2C_EERPOM_ReadByte16:timeout <- undef
	.loc	4 445 11 is_stmt 1      @ ../Driver/i2c_eeprom.c:445:11
	mov	r0, r4
	mov	r1, r6
	bl	I2C_GetFlagStatus
	.loc	4 445 50 is_stmt 0      @ ../Driver/i2c_eeprom.c:445:50
	cbz	r0, .LBB8_15
.Ltmp285:
@ %bb.14:                               @   in Loop: Header=BB8_13 Depth=1
	@DEBUG_VALUE: I2C_EERPOM_ReadByte16:slave_address <- $r8
	@DEBUG_VALUE: I2C_EERPOM_ReadByte16:data_address <- $r9
	.loc	4 445 55                @ ../Driver/i2c_eeprom.c:445:55
	mov	r0, r4
	mov	r1, r5
	bl	I2C_GetFlagStatus
	.loc	4 445 2                 @ ../Driver/i2c_eeprom.c:445:2
	cbnz	r0, .LBB8_16
.Ltmp286:
.LBB8_15:                               @   in Loop: Header=BB8_13 Depth=1
	@DEBUG_VALUE: I2C_EERPOM_ReadByte16:slave_address <- $r8
	@DEBUG_VALUE: I2C_EERPOM_ReadByte16:data_address <- $r9
	@DEBUG_VALUE: I2C_EERPOM_ReadByte16:timeout <- [DW_OP_constu 1, DW_OP_minus, DW_OP_stack_value] undef
	.loc	4 447 14 is_stmt 1      @ ../Driver/i2c_eeprom.c:447:14
	adds	r7, #1
.Ltmp287:
	.loc	4 447 6 is_stmt 0       @ ../Driver/i2c_eeprom.c:447:6
	bne	.LBB8_13
	b	.LBB8_20
.Ltmp288:
.LBB8_16:
	@DEBUG_VALUE: I2C_EERPOM_ReadByte16:slave_address <- $r8
	@DEBUG_VALUE: I2C_EERPOM_ReadByte16:data_address <- $r9
	.loc	4 451 2 is_stmt 1       @ ../Driver/i2c_eeprom.c:451:2
	uxtb.w	r1, r9
	mov	r0, r4
	bl	I2C_SendData
	mvn	r7, #12288
.Ltmp289:
	@DEBUG_VALUE: I2C_EERPOM_ReadByte16:timeout <- 12288
	.p2align	2
.LBB8_17:                               @ =>This Inner Loop Header: Depth=1
	@DEBUG_VALUE: I2C_EERPOM_ReadByte16:slave_address <- $r8
	@DEBUG_VALUE: I2C_EERPOM_ReadByte16:data_address <- $r9
	@DEBUG_VALUE: I2C_EERPOM_ReadByte16:timeout <- undef
	.loc	4 454 11                @ ../Driver/i2c_eeprom.c:454:11
	mov	r0, r4
	mov	r1, r6
	bl	I2C_GetFlagStatus
	.loc	4 454 50 is_stmt 0      @ ../Driver/i2c_eeprom.c:454:50
	cbz	r0, .LBB8_19
.Ltmp290:
@ %bb.18:                               @   in Loop: Header=BB8_17 Depth=1
	@DEBUG_VALUE: I2C_EERPOM_ReadByte16:slave_address <- $r8
	@DEBUG_VALUE: I2C_EERPOM_ReadByte16:data_address <- $r9
	.loc	4 454 55                @ ../Driver/i2c_eeprom.c:454:55
	mov	r0, r4
	mov	r1, r5
	bl	I2C_GetFlagStatus
	.loc	4 454 2                 @ ../Driver/i2c_eeprom.c:454:2
	cbnz	r0, .LBB8_26
.Ltmp291:
.LBB8_19:                               @   in Loop: Header=BB8_17 Depth=1
	@DEBUG_VALUE: I2C_EERPOM_ReadByte16:slave_address <- $r8
	@DEBUG_VALUE: I2C_EERPOM_ReadByte16:data_address <- $r9
	@DEBUG_VALUE: I2C_EERPOM_ReadByte16:timeout <- [DW_OP_constu 1, DW_OP_minus, DW_OP_stack_value] undef
	.loc	4 456 14 is_stmt 1      @ ../Driver/i2c_eeprom.c:456:14
	adds	r7, #1
.Ltmp292:
	.loc	4 456 6 is_stmt 0       @ ../Driver/i2c_eeprom.c:456:6
	bne	.LBB8_17
.Ltmp293:
.LBB8_20:
	@DEBUG_VALUE: I2C_EERPOM_ReadByte16:slave_address <- $r8
	@DEBUG_VALUE: I2C_EERPOM_ReadByte16:data_address <- $r9
	.loc	4 0 6                   @ ../Driver/i2c_eeprom.c:0:6
	mvn	r0, #6
	adds	r5, r0, #3
	b	.LBB8_24
.Ltmp294:
.LBB8_21:
	@DEBUG_VALUE: I2C_EERPOM_ReadByte16:slave_address <- $r8
	@DEBUG_VALUE: I2C_EERPOM_ReadByte16:data_address <- $r9
	mvn	r0, #6
.Ltmp295:
	.loc	4 420 15 is_stmt 1      @ ../Driver/i2c_eeprom.c:420:15
	adds	r5, r0, #6
	b	.LBB8_24
.Ltmp296:
.LBB8_22:
	@DEBUG_VALUE: I2C_EERPOM_ReadByte16:slave_address <- $r8
	@DEBUG_VALUE: I2C_EERPOM_ReadByte16:data_address <- $r9
	.loc	4 0 15 is_stmt 0        @ ../Driver/i2c_eeprom.c:0:15
	mvn	r0, #6
.Ltmp297:
	.loc	4 430 15 is_stmt 1      @ ../Driver/i2c_eeprom.c:430:15
	adds	r5, r0, #5
	b	.LBB8_24
.Ltmp298:
.LBB8_23:
	@DEBUG_VALUE: I2C_EERPOM_ReadByte16:slave_address <- $r8
	@DEBUG_VALUE: I2C_EERPOM_ReadByte16:data_address <- $r9
	.loc	4 0 15 is_stmt 0        @ ../Driver/i2c_eeprom.c:0:15
	mvn	r0, #6
.Ltmp299:
	.loc	4 439 15 is_stmt 1      @ ../Driver/i2c_eeprom.c:439:15
	adds	r5, r0, #4
.Ltmp300:
.LBB8_24:
	@DEBUG_VALUE: I2C_EERPOM_ReadByte16:slave_address <- $r8
	@DEBUG_VALUE: I2C_EERPOM_ReadByte16:data_address <- $r9
	.loc	4 0 0 is_stmt 0         @ ../Driver/i2c_eeprom.c:0:0
	mov	r0, r5
	bl	I2C_EEPROM_timeout
.Ltmp301:
.LBB8_25:
	@DEBUG_VALUE: I2C_EERPOM_ReadByte16:slave_address <- $r8
	@DEBUG_VALUE: I2C_EERPOM_ReadByte16:data_address <- $r9
	.loc	4 492 1 is_stmt 1       @ ../Driver/i2c_eeprom.c:492:1
	sxth	r0, r5
	add	sp, #4
	pop.w	{r4, r5, r6, r7, r8, r9, r10, r11, pc}
.Ltmp302:
.LBB8_26:
	@DEBUG_VALUE: I2C_EERPOM_ReadByte16:slave_address <- $r8
	@DEBUG_VALUE: I2C_EERPOM_ReadByte16:data_address <- $r9
	.loc	4 460 2                 @ ../Driver/i2c_eeprom.c:460:2
	mov	r0, r4
	movs	r1, #1
	bl	I2C_GenerateSTART
.Ltmp303:
	@DEBUG_VALUE: I2C_EERPOM_ReadByte16:timeout <- 12288
	.loc	4 463 10                @ ../Driver/i2c_eeprom.c:463:10
	mov	r0, r4
	mov	r1, r10
	bl	I2C_GetFlagStatus
	.loc	4 463 2 is_stmt 0       @ ../Driver/i2c_eeprom.c:463:2
	cbnz	r0, .LBB8_30
.Ltmp304:
@ %bb.27:
	@DEBUG_VALUE: I2C_EERPOM_ReadByte16:slave_address <- $r8
	@DEBUG_VALUE: I2C_EERPOM_ReadByte16:data_address <- $r9
	.loc	4 0 2                   @ ../Driver/i2c_eeprom.c:0:2
	mvn	r5, #12288
.Ltmp305:
	.p2align	2
.LBB8_28:                               @ =>This Inner Loop Header: Depth=1
	@DEBUG_VALUE: I2C_EERPOM_ReadByte16:slave_address <- $r8
	@DEBUG_VALUE: I2C_EERPOM_ReadByte16:data_address <- $r9
	@DEBUG_VALUE: I2C_EERPOM_ReadByte16:timeout <- undef
	.loc	4 465 14 is_stmt 1      @ ../Driver/i2c_eeprom.c:465:14
	adds	r5, #1
.Ltmp306:
	.loc	4 465 6 is_stmt 0       @ ../Driver/i2c_eeprom.c:465:6
	beq	.LBB8_39
.Ltmp307:
@ %bb.29:                               @   in Loop: Header=BB8_28 Depth=1
	@DEBUG_VALUE: I2C_EERPOM_ReadByte16:slave_address <- $r8
	@DEBUG_VALUE: I2C_EERPOM_ReadByte16:data_address <- $r9
	@DEBUG_VALUE: I2C_EERPOM_ReadByte16:timeout <- [DW_OP_constu 1, DW_OP_minus, DW_OP_stack_value] undef
	.loc	4 463 10 is_stmt 1      @ ../Driver/i2c_eeprom.c:463:10
	mov	r0, r4
	mov	r1, r10
	bl	I2C_GetFlagStatus
	.loc	4 463 2 is_stmt 0       @ ../Driver/i2c_eeprom.c:463:2
	cmp	r0, #0
	beq	.LBB8_28
.Ltmp308:
.LBB8_30:
	@DEBUG_VALUE: I2C_EERPOM_ReadByte16:slave_address <- $r8
	@DEBUG_VALUE: I2C_EERPOM_ReadByte16:data_address <- $r9
	.loc	4 469 2 is_stmt 1       @ ../Driver/i2c_eeprom.c:469:2
	mov	r0, r4
	mov	r1, r8
	movs	r2, #1
	bl	I2C_Send7bitAddress
.Ltmp309:
	@DEBUG_VALUE: I2C_EERPOM_ReadByte16:timeout <- 12288
	.loc	4 472 10                @ ../Driver/i2c_eeprom.c:472:10
	mov	r0, r4
	mov	r1, r11
	bl	I2C_GetFlagStatus
	.loc	4 472 2 is_stmt 0       @ ../Driver/i2c_eeprom.c:472:2
	cbnz	r0, .LBB8_34
.Ltmp310:
@ %bb.31:
	@DEBUG_VALUE: I2C_EERPOM_ReadByte16:slave_address <- $r8
	@DEBUG_VALUE: I2C_EERPOM_ReadByte16:data_address <- $r9
	.loc	4 0 2                   @ ../Driver/i2c_eeprom.c:0:2
	mvn	r5, #12288
.Ltmp311:
	.p2align	2
.LBB8_32:                               @ =>This Inner Loop Header: Depth=1
	@DEBUG_VALUE: I2C_EERPOM_ReadByte16:slave_address <- $r8
	@DEBUG_VALUE: I2C_EERPOM_ReadByte16:data_address <- $r9
	@DEBUG_VALUE: I2C_EERPOM_ReadByte16:timeout <- undef
	.loc	4 474 14 is_stmt 1      @ ../Driver/i2c_eeprom.c:474:14
	adds	r5, #1
.Ltmp312:
	.loc	4 474 6 is_stmt 0       @ ../Driver/i2c_eeprom.c:474:6
	beq	.LBB8_40
.Ltmp313:
@ %bb.33:                               @   in Loop: Header=BB8_32 Depth=1
	@DEBUG_VALUE: I2C_EERPOM_ReadByte16:slave_address <- $r8
	@DEBUG_VALUE: I2C_EERPOM_ReadByte16:data_address <- $r9
	@DEBUG_VALUE: I2C_EERPOM_ReadByte16:timeout <- [DW_OP_constu 1, DW_OP_minus, DW_OP_stack_value] undef
	.loc	4 472 10 is_stmt 1      @ ../Driver/i2c_eeprom.c:472:10
	mov	r0, r4
	mov	r1, r11
	bl	I2C_GetFlagStatus
	.loc	4 472 2 is_stmt 0       @ ../Driver/i2c_eeprom.c:472:2
	cmp	r0, #0
	beq	.LBB8_32
.Ltmp314:
.LBB8_34:
	@DEBUG_VALUE: I2C_EERPOM_ReadByte16:slave_address <- $r8
	@DEBUG_VALUE: I2C_EERPOM_ReadByte16:data_address <- $r9
	.loc	4 479 8 is_stmt 1       @ ../Driver/i2c_eeprom.c:479:8
	ldrh	r0, [r4, #24]
.Ltmp315:
	@DEBUG_VALUE: I2C_EERPOM_ReadByte16:timeout <- 12288
	.loc	4 482 10                @ ../Driver/i2c_eeprom.c:482:10
	add.w	r5, r10, #63
	mov	r0, r4
	mov	r1, r5
	bl	I2C_GetFlagStatus
	.loc	4 482 2 is_stmt 0       @ ../Driver/i2c_eeprom.c:482:2
	cbnz	r0, .LBB8_38
.Ltmp316:
@ %bb.35:
	@DEBUG_VALUE: I2C_EERPOM_ReadByte16:slave_address <- $r8
	@DEBUG_VALUE: I2C_EERPOM_ReadByte16:data_address <- $r9
	.loc	4 0 2                   @ ../Driver/i2c_eeprom.c:0:2
	mvn	r6, #12288
.Ltmp317:
	.p2align	2
.LBB8_36:                               @ =>This Inner Loop Header: Depth=1
	@DEBUG_VALUE: I2C_EERPOM_ReadByte16:slave_address <- $r8
	@DEBUG_VALUE: I2C_EERPOM_ReadByte16:data_address <- $r9
	@DEBUG_VALUE: I2C_EERPOM_ReadByte16:timeout <- undef
	.loc	4 484 14 is_stmt 1      @ ../Driver/i2c_eeprom.c:484:14
	adds	r6, #1
.Ltmp318:
	.loc	4 484 6 is_stmt 0       @ ../Driver/i2c_eeprom.c:484:6
	beq	.LBB8_41
.Ltmp319:
@ %bb.37:                               @   in Loop: Header=BB8_36 Depth=1
	@DEBUG_VALUE: I2C_EERPOM_ReadByte16:slave_address <- $r8
	@DEBUG_VALUE: I2C_EERPOM_ReadByte16:data_address <- $r9
	@DEBUG_VALUE: I2C_EERPOM_ReadByte16:timeout <- [DW_OP_constu 1, DW_OP_minus, DW_OP_stack_value] undef
	.loc	4 482 10 is_stmt 1      @ ../Driver/i2c_eeprom.c:482:10
	mov	r0, r4
	mov	r1, r5
	bl	I2C_GetFlagStatus
	.loc	4 482 2 is_stmt 0       @ ../Driver/i2c_eeprom.c:482:2
	cmp	r0, #0
	beq	.LBB8_36
.Ltmp320:
.LBB8_38:
	@DEBUG_VALUE: I2C_EERPOM_ReadByte16:slave_address <- $r8
	@DEBUG_VALUE: I2C_EERPOM_ReadByte16:data_address <- $r9
	.loc	4 488 2 is_stmt 1       @ ../Driver/i2c_eeprom.c:488:2
	mov	r0, r4
	movs	r1, #1
	bl	I2C_GenerateSTOP
	.loc	4 489 23                @ ../Driver/i2c_eeprom.c:489:23
	mov	r0, r4
	bl	I2C_ReceiveData
	mov	r5, r0
.Ltmp321:
	@DEBUG_VALUE: I2C_EERPOM_ReadByte16:ret_data <- undef
	.loc	4 490 2                 @ ../Driver/i2c_eeprom.c:490:2
	mov	r0, r4
	movs	r1, #1
	bl	I2C_AcknowledgeConfig
	b	.LBB8_25
.Ltmp322:
.LBB8_39:
	@DEBUG_VALUE: I2C_EERPOM_ReadByte16:slave_address <- $r8
	@DEBUG_VALUE: I2C_EERPOM_ReadByte16:data_address <- $r9
	.loc	4 0 2 is_stmt 0         @ ../Driver/i2c_eeprom.c:0:2
	mvn	r0, #6
.Ltmp323:
	.loc	4 466 15 is_stmt 1      @ ../Driver/i2c_eeprom.c:466:15
	adds	r5, r0, #2
	b	.LBB8_24
.Ltmp324:
.LBB8_40:
	@DEBUG_VALUE: I2C_EERPOM_ReadByte16:slave_address <- $r8
	@DEBUG_VALUE: I2C_EERPOM_ReadByte16:data_address <- $r9
	.loc	4 0 15 is_stmt 0        @ ../Driver/i2c_eeprom.c:0:15
	mvn	r0, #6
.Ltmp325:
	.loc	4 475 15 is_stmt 1      @ ../Driver/i2c_eeprom.c:475:15
	adds	r5, r0, #1
	b	.LBB8_24
.Ltmp326:
.LBB8_41:
	@DEBUG_VALUE: I2C_EERPOM_ReadByte16:slave_address <- $r8
	@DEBUG_VALUE: I2C_EERPOM_ReadByte16:data_address <- $r9
	.loc	4 485 15                @ ../Driver/i2c_eeprom.c:485:15
	mvn	r0, #6
	bl	I2C_EEPROM_timeout
	movw	r5, #65529
	b	.LBB8_25
.Ltmp327:
.Lfunc_end8:
	.size	I2C_EERPOM_ReadByte16, .Lfunc_end8-I2C_EERPOM_ReadByte16
	.cfi_endproc
	.cantunwind
	.fnend
                                        @ -- End function
	.section	.text.I2C_EERPOM_WriteByte16,"ax",%progbits
	.hidden	I2C_EERPOM_WriteByte16  @ -- Begin function I2C_EERPOM_WriteByte16
	.globl	I2C_EERPOM_WriteByte16
	.p2align	1
	.type	I2C_EERPOM_WriteByte16,%function
	.code	16                      @ @I2C_EERPOM_WriteByte16
	.thumb_func
I2C_EERPOM_WriteByte16:
.Lfunc_begin9:
	.loc	4 496 0                 @ ../Driver/i2c_eeprom.c:496:0
	.fnstart
	.cfi_startproc
@ %bb.0:
	.save	{r4, r5, r6, r7, r8, r9, lr}
	push.w	{r4, r5, r6, r7, r8, r9, lr}
	.cfi_def_cfa_offset 28
	.cfi_offset lr, -4
	.cfi_offset r9, -8
	.cfi_offset r8, -12
	.cfi_offset r7, -16
	.cfi_offset r6, -20
	.cfi_offset r5, -24
	.cfi_offset r4, -28
	.pad	#4
	sub	sp, #4
	.cfi_def_cfa_offset 32
	@DEBUG_VALUE: I2C_EERPOM_WriteByte16:slave_address <- $r0
	@DEBUG_VALUE: I2C_EERPOM_WriteByte16:data_address <- $r1
	@DEBUG_VALUE: I2C_EERPOM_WriteByte16:data <- $r2
	movw	r4, #22528
	mov	r9, r1
	mov	r5, r0
.Ltmp328:
	@DEBUG_VALUE: I2C_EERPOM_WriteByte16:data <- $r8
	@DEBUG_VALUE: I2C_EERPOM_WriteByte16:data_address <- $r9
	@DEBUG_VALUE: I2C_EERPOM_WriteByte16:slave_address <- $r5
	.loc	4 503 2 prologue_end    @ ../Driver/i2c_eeprom.c:503:2
	movs	r1, #1
	mov	r8, r2
.Ltmp329:
	.loc	4 0 2 is_stmt 0         @ ../Driver/i2c_eeprom.c:0:2
	movt	r4, #16384
	.loc	4 503 2                 @ ../Driver/i2c_eeprom.c:503:2
	mov	r0, r4
	bl	I2C_GenerateSTART
.Ltmp330:
	@DEBUG_VALUE: I2C_EERPOM_WriteByte16:timeout <- 12288
	.loc	4 0 2                   @ ../Driver/i2c_eeprom.c:0:2
	movs	r6, #1
	.loc	4 506 10 is_stmt 1      @ ../Driver/i2c_eeprom.c:506:10
	mov	r0, r4
	movt	r6, #4096
	mov	r1, r6
	bl	I2C_GetFlagStatus
.Ltmp331:
	@DEBUG_VALUE: I2C_EERPOM_WriteByte16:ret_data <- 0
	.loc	4 506 2 is_stmt 0       @ ../Driver/i2c_eeprom.c:506:2
	cbnz	r0, .LBB9_4
.Ltmp332:
@ %bb.1:
	@DEBUG_VALUE: I2C_EERPOM_WriteByte16:slave_address <- $r5
	@DEBUG_VALUE: I2C_EERPOM_WriteByte16:data_address <- $r9
	.loc	4 0 2                   @ ../Driver/i2c_eeprom.c:0:2
	mvn	r7, #12288
.Ltmp333:
	.p2align	2
.LBB9_2:                                @ =>This Inner Loop Header: Depth=1
	@DEBUG_VALUE: I2C_EERPOM_WriteByte16:slave_address <- $r5
	@DEBUG_VALUE: I2C_EERPOM_WriteByte16:data_address <- $r9
	@DEBUG_VALUE: I2C_EERPOM_WriteByte16:timeout <- undef
	.loc	4 508 14 is_stmt 1      @ ../Driver/i2c_eeprom.c:508:14
	adds	r7, #1
.Ltmp334:
	.loc	4 508 6 is_stmt 0       @ ../Driver/i2c_eeprom.c:508:6
	beq	.LBB9_25
.Ltmp335:
@ %bb.3:                                @   in Loop: Header=BB9_2 Depth=1
	@DEBUG_VALUE: I2C_EERPOM_WriteByte16:slave_address <- $r5
	@DEBUG_VALUE: I2C_EERPOM_WriteByte16:data_address <- $r9
	@DEBUG_VALUE: I2C_EERPOM_WriteByte16:timeout <- [DW_OP_constu 1, DW_OP_minus, DW_OP_stack_value] undef
	.loc	4 506 10 is_stmt 1      @ ../Driver/i2c_eeprom.c:506:10
	mov	r0, r4
	mov	r1, r6
	bl	I2C_GetFlagStatus
	.loc	4 506 2 is_stmt 0       @ ../Driver/i2c_eeprom.c:506:2
	cmp	r0, #0
	beq	.LBB9_2
.Ltmp336:
.LBB9_4:
	@DEBUG_VALUE: I2C_EERPOM_WriteByte16:slave_address <- $r5
	@DEBUG_VALUE: I2C_EERPOM_WriteByte16:data_address <- $r9
	@DEBUG_VALUE: I2C_EERPOM_WriteByte16:slave_address <- $r5
	.loc	4 512 2 is_stmt 1       @ ../Driver/i2c_eeprom.c:512:2
	mov	r0, r4
	mov	r1, r5
	movs	r2, #0
	bl	I2C_Send7bitAddress
.Ltmp337:
	@DEBUG_VALUE: I2C_EERPOM_WriteByte16:timeout <- 12288
	.loc	4 515 10                @ ../Driver/i2c_eeprom.c:515:10
	adds	r5, r6, #1
.Ltmp338:
	mov	r0, r4
	mov	r1, r5
	bl	I2C_GetFlagStatus
	.loc	4 515 2 is_stmt 0       @ ../Driver/i2c_eeprom.c:515:2
	cbnz	r0, .LBB9_8
.Ltmp339:
@ %bb.5:
	@DEBUG_VALUE: I2C_EERPOM_WriteByte16:data_address <- $r9
	.loc	4 0 2                   @ ../Driver/i2c_eeprom.c:0:2
	mvn	r7, #12288
.Ltmp340:
	.p2align	2
.LBB9_6:                                @ =>This Inner Loop Header: Depth=1
	@DEBUG_VALUE: I2C_EERPOM_WriteByte16:data_address <- $r9
	@DEBUG_VALUE: I2C_EERPOM_WriteByte16:timeout <- undef
	.loc	4 517 14 is_stmt 1      @ ../Driver/i2c_eeprom.c:517:14
	adds	r7, #1
.Ltmp341:
	.loc	4 517 6 is_stmt 0       @ ../Driver/i2c_eeprom.c:517:6
	beq	.LBB9_27
.Ltmp342:
@ %bb.7:                                @   in Loop: Header=BB9_6 Depth=1
	@DEBUG_VALUE: I2C_EERPOM_WriteByte16:data_address <- $r9
	@DEBUG_VALUE: I2C_EERPOM_WriteByte16:timeout <- [DW_OP_constu 1, DW_OP_minus, DW_OP_stack_value] undef
	.loc	4 515 10 is_stmt 1      @ ../Driver/i2c_eeprom.c:515:10
	mov	r0, r4
	mov	r1, r5
	bl	I2C_GetFlagStatus
	.loc	4 515 2 is_stmt 0       @ ../Driver/i2c_eeprom.c:515:2
	cmp	r0, #0
	beq	.LBB9_6
.Ltmp343:
.LBB9_8:
	@DEBUG_VALUE: I2C_EERPOM_WriteByte16:data_address <- $r9
	.loc	4 521 8 is_stmt 1       @ ../Driver/i2c_eeprom.c:521:8
	ldrh	r0, [r4, #24]
.Ltmp344:
	@DEBUG_VALUE: I2C_EERPOM_WriteByte16:timeout <- 12288
	.loc	4 524 10                @ ../Driver/i2c_eeprom.c:524:10
	add.w	r5, r6, #127
	mov	r0, r4
	mov	r1, r5
	bl	I2C_GetFlagStatus
	.loc	4 524 2 is_stmt 0       @ ../Driver/i2c_eeprom.c:524:2
	cbnz	r0, .LBB9_12
.Ltmp345:
@ %bb.9:
	@DEBUG_VALUE: I2C_EERPOM_WriteByte16:data_address <- $r9
	.loc	4 0 2                   @ ../Driver/i2c_eeprom.c:0:2
	mvn	r7, #12288
.Ltmp346:
	.p2align	2
.LBB9_10:                               @ =>This Inner Loop Header: Depth=1
	@DEBUG_VALUE: I2C_EERPOM_WriteByte16:data_address <- $r9
	@DEBUG_VALUE: I2C_EERPOM_WriteByte16:timeout <- undef
	.loc	4 526 14 is_stmt 1      @ ../Driver/i2c_eeprom.c:526:14
	adds	r7, #1
.Ltmp347:
	.loc	4 526 6 is_stmt 0       @ ../Driver/i2c_eeprom.c:526:6
	beq	.LBB9_28
.Ltmp348:
@ %bb.11:                               @   in Loop: Header=BB9_10 Depth=1
	@DEBUG_VALUE: I2C_EERPOM_WriteByte16:data_address <- $r9
	@DEBUG_VALUE: I2C_EERPOM_WriteByte16:timeout <- [DW_OP_constu 1, DW_OP_minus, DW_OP_stack_value] undef
	.loc	4 524 10 is_stmt 1      @ ../Driver/i2c_eeprom.c:524:10
	mov	r0, r4
	mov	r1, r5
	bl	I2C_GetFlagStatus
	.loc	4 524 2 is_stmt 0       @ ../Driver/i2c_eeprom.c:524:2
	cmp	r0, #0
	beq	.LBB9_10
.Ltmp349:
.LBB9_12:
	@DEBUG_VALUE: I2C_EERPOM_WriteByte16:data_address <- $r9
	.loc	4 0 2                   @ ../Driver/i2c_eeprom.c:0:2
	lsr.w	r1, r9, #8
	.loc	4 530 2 is_stmt 1       @ ../Driver/i2c_eeprom.c:530:2
	mov	r0, r4
	bl	I2C_SendData
.Ltmp350:
	@DEBUG_VALUE: I2C_EERPOM_WriteByte16:timeout <- 12288
	.loc	4 533 10                @ ../Driver/i2c_eeprom.c:533:10
	mov	r0, r4
	mov	r1, r5
	bl	I2C_GetFlagStatus
	.loc	4 533 2 is_stmt 0       @ ../Driver/i2c_eeprom.c:533:2
	cbnz	r0, .LBB9_16
.Ltmp351:
@ %bb.13:
	@DEBUG_VALUE: I2C_EERPOM_WriteByte16:data_address <- $r9
	.loc	4 0 2                   @ ../Driver/i2c_eeprom.c:0:2
	mvn	r7, #12288
.Ltmp352:
	.p2align	2
.LBB9_14:                               @ =>This Inner Loop Header: Depth=1
	@DEBUG_VALUE: I2C_EERPOM_WriteByte16:data_address <- $r9
	@DEBUG_VALUE: I2C_EERPOM_WriteByte16:timeout <- undef
	.loc	4 535 14 is_stmt 1      @ ../Driver/i2c_eeprom.c:535:14
	adds	r7, #1
.Ltmp353:
	.loc	4 535 6 is_stmt 0       @ ../Driver/i2c_eeprom.c:535:6
	beq	.LBB9_26
.Ltmp354:
@ %bb.15:                               @   in Loop: Header=BB9_14 Depth=1
	@DEBUG_VALUE: I2C_EERPOM_WriteByte16:data_address <- $r9
	@DEBUG_VALUE: I2C_EERPOM_WriteByte16:timeout <- [DW_OP_constu 1, DW_OP_minus, DW_OP_stack_value] undef
	.loc	4 533 10 is_stmt 1      @ ../Driver/i2c_eeprom.c:533:10
	mov	r0, r4
	mov	r1, r5
	bl	I2C_GetFlagStatus
	.loc	4 533 2 is_stmt 0       @ ../Driver/i2c_eeprom.c:533:2
	cmp	r0, #0
	beq	.LBB9_14
.Ltmp355:
.LBB9_16:
	@DEBUG_VALUE: I2C_EERPOM_WriteByte16:data_address <- $r9
	.loc	4 539 2 is_stmt 1       @ ../Driver/i2c_eeprom.c:539:2
	uxtb.w	r1, r9
	mov	r0, r4
	bl	I2C_SendData
.Ltmp356:
	@DEBUG_VALUE: I2C_EERPOM_WriteByte16:timeout <- 12288
	.loc	4 542 10                @ ../Driver/i2c_eeprom.c:542:10
	mov	r0, r4
	mov	r1, r5
	bl	I2C_GetFlagStatus
	.loc	4 542 2 is_stmt 0       @ ../Driver/i2c_eeprom.c:542:2
	cbnz	r0, .LBB9_20
.Ltmp357:
@ %bb.17:
	@DEBUG_VALUE: I2C_EERPOM_WriteByte16:data_address <- $r9
	.loc	4 0 2                   @ ../Driver/i2c_eeprom.c:0:2
	mvn	r7, #12288
.Ltmp358:
	.p2align	2
.LBB9_18:                               @ =>This Inner Loop Header: Depth=1
	@DEBUG_VALUE: I2C_EERPOM_WriteByte16:data_address <- $r9
	@DEBUG_VALUE: I2C_EERPOM_WriteByte16:timeout <- undef
	.loc	4 544 14 is_stmt 1      @ ../Driver/i2c_eeprom.c:544:14
	adds	r7, #1
.Ltmp359:
	.loc	4 544 6 is_stmt 0       @ ../Driver/i2c_eeprom.c:544:6
	beq	.LBB9_26
.Ltmp360:
@ %bb.19:                               @   in Loop: Header=BB9_18 Depth=1
	@DEBUG_VALUE: I2C_EERPOM_WriteByte16:data_address <- $r9
	@DEBUG_VALUE: I2C_EERPOM_WriteByte16:timeout <- [DW_OP_constu 1, DW_OP_minus, DW_OP_stack_value] undef
	.loc	4 542 10 is_stmt 1      @ ../Driver/i2c_eeprom.c:542:10
	mov	r0, r4
	mov	r1, r5
	bl	I2C_GetFlagStatus
	.loc	4 542 2 is_stmt 0       @ ../Driver/i2c_eeprom.c:542:2
	cmp	r0, #0
	beq	.LBB9_18
.Ltmp361:
.LBB9_20:
	@DEBUG_VALUE: I2C_EERPOM_WriteByte16:data_address <- $r9
	@DEBUG_VALUE: I2C_EERPOM_WriteByte16:data <- $r8
	.loc	4 548 2 is_stmt 1       @ ../Driver/i2c_eeprom.c:548:2
	mov	r0, r4
	mov	r1, r8
	bl	I2C_SendData
	mvn	r7, #12288
.Ltmp362:
	@DEBUG_VALUE: I2C_EERPOM_WriteByte16:timeout <- 12288
	.loc	4 0 2 is_stmt 0         @ ../Driver/i2c_eeprom.c:0:2
	adds	r6, #3
.Ltmp363:
	.p2align	2
.LBB9_21:                               @ =>This Inner Loop Header: Depth=1
	@DEBUG_VALUE: I2C_EERPOM_WriteByte16:data_address <- $r9
	@DEBUG_VALUE: I2C_EERPOM_WriteByte16:data <- $r8
	@DEBUG_VALUE: I2C_EERPOM_WriteByte16:timeout <- undef
	.loc	4 551 11 is_stmt 1      @ ../Driver/i2c_eeprom.c:551:11
	mov	r0, r4
	mov	r1, r5
	bl	I2C_GetFlagStatus
	.loc	4 551 50 is_stmt 0      @ ../Driver/i2c_eeprom.c:551:50
	cbz	r0, .LBB9_23
.Ltmp364:
@ %bb.22:                               @   in Loop: Header=BB9_21 Depth=1
	@DEBUG_VALUE: I2C_EERPOM_WriteByte16:data_address <- $r9
	@DEBUG_VALUE: I2C_EERPOM_WriteByte16:data <- $r8
	.loc	4 551 55                @ ../Driver/i2c_eeprom.c:551:55
	mov	r0, r4
	mov	r1, r6
	bl	I2C_GetFlagStatus
	.loc	4 551 2                 @ ../Driver/i2c_eeprom.c:551:2
	cbnz	r0, .LBB9_31
.Ltmp365:
.LBB9_23:                               @   in Loop: Header=BB9_21 Depth=1
	@DEBUG_VALUE: I2C_EERPOM_WriteByte16:data_address <- $r9
	@DEBUG_VALUE: I2C_EERPOM_WriteByte16:data <- $r8
	@DEBUG_VALUE: I2C_EERPOM_WriteByte16:timeout <- [DW_OP_constu 1, DW_OP_minus, DW_OP_stack_value] undef
	.loc	4 553 14 is_stmt 1      @ ../Driver/i2c_eeprom.c:553:14
	adds	r7, #1
.Ltmp366:
	.loc	4 553 6 is_stmt 0       @ ../Driver/i2c_eeprom.c:553:6
	bne	.LBB9_21
.Ltmp367:
@ %bb.24:
	@DEBUG_VALUE: I2C_EERPOM_WriteByte16:data_address <- $r9
	@DEBUG_VALUE: I2C_EERPOM_WriteByte16:data <- $r8
	.loc	4 554 15 is_stmt 1      @ ../Driver/i2c_eeprom.c:554:15
	mvn	r0, #4
	bl	I2C_EEPROM_timeout
	movw	r0, #65531
	b	.LBB9_30
.Ltmp368:
.LBB9_25:
	@DEBUG_VALUE: I2C_EERPOM_WriteByte16:slave_address <- $r5
	@DEBUG_VALUE: I2C_EERPOM_WriteByte16:data_address <- $r9
	.loc	4 0 15 is_stmt 0        @ ../Driver/i2c_eeprom.c:0:15
	mvn	r0, #4
.Ltmp369:
	.loc	4 509 15 is_stmt 1      @ ../Driver/i2c_eeprom.c:509:15
	adds	r0, #4
	b	.LBB9_29
.Ltmp370:
.LBB9_26:
	@DEBUG_VALUE: I2C_EERPOM_WriteByte16:data_address <- $r9
	.loc	4 0 15 is_stmt 0        @ ../Driver/i2c_eeprom.c:0:15
	mvn	r0, #4
	adds	r0, #1
	b	.LBB9_29
.Ltmp371:
.LBB9_27:
	@DEBUG_VALUE: I2C_EERPOM_WriteByte16:data_address <- $r9
	mvn	r0, #4
.Ltmp372:
	.loc	4 518 15 is_stmt 1      @ ../Driver/i2c_eeprom.c:518:15
	adds	r0, #3
	b	.LBB9_29
.Ltmp373:
.LBB9_28:
	@DEBUG_VALUE: I2C_EERPOM_WriteByte16:data_address <- $r9
	.loc	4 0 15 is_stmt 0        @ ../Driver/i2c_eeprom.c:0:15
	mvn	r0, #4
.Ltmp374:
	.loc	4 527 15 is_stmt 1      @ ../Driver/i2c_eeprom.c:527:15
	adds	r0, #2
.Ltmp375:
.LBB9_29:
	@DEBUG_VALUE: I2C_EERPOM_WriteByte16:data_address <- $r9
	.loc	4 0 0 is_stmt 0         @ ../Driver/i2c_eeprom.c:0:0
	bl	I2C_EEPROM_timeout
.Ltmp376:
.LBB9_30:
	@DEBUG_VALUE: I2C_EERPOM_WriteByte16:data_address <- $r9
	.loc	4 560 1 is_stmt 1       @ ../Driver/i2c_eeprom.c:560:1
	sxth	r0, r0
	add	sp, #4
	pop.w	{r4, r5, r6, r7, r8, r9, pc}
.Ltmp377:
.LBB9_31:
	@DEBUG_VALUE: I2C_EERPOM_WriteByte16:data_address <- $r9
	@DEBUG_VALUE: I2C_EERPOM_WriteByte16:data <- $r8
	.loc	4 557 2                 @ ../Driver/i2c_eeprom.c:557:2
	mov	r0, r4
	movs	r1, #1
	bl	I2C_GenerateSTOP
	movs	r0, #0
	@DEBUG_VALUE: I2C_EERPOM_WriteByte16:ret_data <- 0
	b	.LBB9_30
.Ltmp378:
.Lfunc_end9:
	.size	I2C_EERPOM_WriteByte16, .Lfunc_end9-I2C_EERPOM_WriteByte16
	.cfi_endproc
	.cantunwind
	.fnend
                                        @ -- End function
	.section	.text.I2C_EERPOM_ReadBytes16,"ax",%progbits
	.hidden	I2C_EERPOM_ReadBytes16  @ -- Begin function I2C_EERPOM_ReadBytes16
	.globl	I2C_EERPOM_ReadBytes16
	.p2align	1
	.type	I2C_EERPOM_ReadBytes16,%function
	.code	16                      @ @I2C_EERPOM_ReadBytes16
	.thumb_func
I2C_EERPOM_ReadBytes16:
.Lfunc_begin10:
	.loc	4 564 0                 @ ../Driver/i2c_eeprom.c:564:0
	.fnstart
	.cfi_startproc
@ %bb.0:
	.save	{r4, r5, r6, r7, r8, r9, r10, r11, lr}
	push.w	{r4, r5, r6, r7, r8, r9, r10, r11, lr}
	.cfi_def_cfa_offset 36
	.cfi_offset lr, -4
	.cfi_offset r11, -8
	.cfi_offset r10, -12
	.cfi_offset r9, -16
	.cfi_offset r8, -20
	.cfi_offset r7, -24
	.cfi_offset r6, -28
	.cfi_offset r5, -32
	.cfi_offset r4, -36
	.pad	#12
	sub	sp, #12
	.cfi_def_cfa_offset 48
	@DEBUG_VALUE: I2C_EERPOM_ReadBytes16:slave_address <- $r0
	@DEBUG_VALUE: I2C_EERPOM_ReadBytes16:data_address <- $r1
	@DEBUG_VALUE: I2C_EERPOM_ReadBytes16:cnt <- $r2
	movw	r8, #65528
.Ltmp379:
	@DEBUG_VALUE: I2C_EERPOM_ReadBytes16:timeout <- 12288
	@DEBUG_VALUE: I2C_EERPOM_ReadBytes16:ret_data <- 0
	.loc	4 569 5 prologue_end    @ ../Driver/i2c_eeprom.c:569:5
	cmp	r2, #0
	beq.w	.LBB10_46
.Ltmp380:
@ %bb.1:
	@DEBUG_VALUE: I2C_EERPOM_ReadBytes16:cnt <- $r2
	@DEBUG_VALUE: I2C_EERPOM_ReadBytes16:data_address <- $r1
	@DEBUG_VALUE: I2C_EERPOM_ReadBytes16:slave_address <- $r0
	.loc	4 0 5 is_stmt 0         @ ../Driver/i2c_eeprom.c:0:5
	movw	r5, #22528
	mov	r6, r1
.Ltmp381:
	@DEBUG_VALUE: I2C_EERPOM_ReadBytes16:data_address <- $r6
	@DEBUG_VALUE: I2C_EERPOM_ReadBytes16:data_address <- $r6
	mov	r9, r0
.Ltmp382:
	@DEBUG_VALUE: I2C_EERPOM_ReadBytes16:slave_address <- $r9
	@DEBUG_VALUE: I2C_EERPOM_ReadBytes16:slave_address <- $r9
	.loc	4 573 2 is_stmt 1       @ ../Driver/i2c_eeprom.c:573:2
	movs	r1, #1
	mov	r7, r2
.Ltmp383:
	@DEBUG_VALUE: I2C_EERPOM_ReadBytes16:cnt <- $r7
	@DEBUG_VALUE: I2C_EERPOM_ReadBytes16:cnt <- $r7
	.loc	4 0 2 is_stmt 0         @ ../Driver/i2c_eeprom.c:0:2
	movt	r5, #16384
	.loc	4 573 2                 @ ../Driver/i2c_eeprom.c:573:2
	mov	r0, r5
	bl	I2C_GenerateSTART
	@DEBUG_VALUE: I2C_EERPOM_ReadBytes16:timeout <- 12288
	movw	r11, #1
	.loc	4 576 10 is_stmt 1      @ ../Driver/i2c_eeprom.c:576:10
	mov	r0, r5
	movt	r11, #4096
	mov	r1, r11
	bl	I2C_GetFlagStatus
	.loc	4 576 2 is_stmt 0       @ ../Driver/i2c_eeprom.c:576:2
	cbnz	r0, .LBB10_5
.Ltmp384:
@ %bb.2:
	@DEBUG_VALUE: I2C_EERPOM_ReadBytes16:cnt <- $r7
	@DEBUG_VALUE: I2C_EERPOM_ReadBytes16:slave_address <- $r9
	@DEBUG_VALUE: I2C_EERPOM_ReadBytes16:data_address <- $r6
	.loc	4 0 2                   @ ../Driver/i2c_eeprom.c:0:2
	mvn	r4, #12288
.Ltmp385:
	.p2align	2
.LBB10_3:                               @ =>This Inner Loop Header: Depth=1
	@DEBUG_VALUE: I2C_EERPOM_ReadBytes16:cnt <- $r7
	@DEBUG_VALUE: I2C_EERPOM_ReadBytes16:slave_address <- $r9
	@DEBUG_VALUE: I2C_EERPOM_ReadBytes16:data_address <- $r6
	@DEBUG_VALUE: I2C_EERPOM_ReadBytes16:timeout <- undef
	.loc	4 578 14 is_stmt 1      @ ../Driver/i2c_eeprom.c:578:14
	adds	r4, #1
.Ltmp386:
	.loc	4 578 6 is_stmt 0       @ ../Driver/i2c_eeprom.c:578:6
	beq	.LBB10_22
.Ltmp387:
@ %bb.4:                                @   in Loop: Header=BB10_3 Depth=1
	@DEBUG_VALUE: I2C_EERPOM_ReadBytes16:cnt <- $r7
	@DEBUG_VALUE: I2C_EERPOM_ReadBytes16:slave_address <- $r9
	@DEBUG_VALUE: I2C_EERPOM_ReadBytes16:data_address <- $r6
	@DEBUG_VALUE: I2C_EERPOM_ReadBytes16:timeout <- [DW_OP_constu 1, DW_OP_minus, DW_OP_stack_value] undef
	.loc	4 576 10 is_stmt 1      @ ../Driver/i2c_eeprom.c:576:10
	mov	r0, r5
	mov	r1, r11
	bl	I2C_GetFlagStatus
	.loc	4 576 2 is_stmt 0       @ ../Driver/i2c_eeprom.c:576:2
	cmp	r0, #0
	beq	.LBB10_3
.Ltmp388:
.LBB10_5:
	@DEBUG_VALUE: I2C_EERPOM_ReadBytes16:cnt <- $r7
	@DEBUG_VALUE: I2C_EERPOM_ReadBytes16:slave_address <- $r9
	@DEBUG_VALUE: I2C_EERPOM_ReadBytes16:data_address <- $r6
	@DEBUG_VALUE: I2C_EERPOM_ReadBytes16:slave_address <- $r9
	.loc	4 588 3 is_stmt 1       @ ../Driver/i2c_eeprom.c:588:3
	mov	r0, r5
.Ltmp389:
	.loc	4 582 5                 @ ../Driver/i2c_eeprom.c:582:5
	cmp	r7, #1
	str	r6, [sp, #8]            @ 4-byte Spill
.Ltmp390:
	@DEBUG_VALUE: I2C_EERPOM_ReadBytes16:data_address <- [DW_OP_plus_uconst 8] [$sp+0]
	.loc	4 588 3                 @ ../Driver/i2c_eeprom.c:588:3
	ite	ne
	movne	r1, #1
.Ltmp391:
	.loc	4 584 3                 @ ../Driver/i2c_eeprom.c:584:3
	moveq	r1, #0
.Ltmp392:
	.loc	4 0 0 is_stmt 0         @ ../Driver/i2c_eeprom.c:0:0
	bl	I2C_AcknowledgeConfig
.Ltmp393:
	.loc	4 591 2 is_stmt 1       @ ../Driver/i2c_eeprom.c:591:2
	mov	r0, r5
	mov	r1, r9
	movs	r2, #0
	bl	I2C_Send7bitAddress
.Ltmp394:
	@DEBUG_VALUE: I2C_EERPOM_ReadBytes16:timeout <- 12288
	.loc	4 594 10                @ ../Driver/i2c_eeprom.c:594:10
	add.w	r10, r11, #1
	mov	r0, r5
	mov	r1, r10
	bl	I2C_GetFlagStatus
	.loc	4 594 2 is_stmt 0       @ ../Driver/i2c_eeprom.c:594:2
	cbnz	r0, .LBB10_9
.Ltmp395:
@ %bb.6:
	@DEBUG_VALUE: I2C_EERPOM_ReadBytes16:data_address <- [DW_OP_plus_uconst 8] [$sp+0]
	@DEBUG_VALUE: I2C_EERPOM_ReadBytes16:cnt <- $r7
	@DEBUG_VALUE: I2C_EERPOM_ReadBytes16:slave_address <- $r9
	.loc	4 0 2                   @ ../Driver/i2c_eeprom.c:0:2
	mvn	r4, #12288
.Ltmp396:
	.p2align	2
.LBB10_7:                               @ =>This Inner Loop Header: Depth=1
	@DEBUG_VALUE: I2C_EERPOM_ReadBytes16:data_address <- [DW_OP_plus_uconst 8] [$sp+0]
	@DEBUG_VALUE: I2C_EERPOM_ReadBytes16:cnt <- $r7
	@DEBUG_VALUE: I2C_EERPOM_ReadBytes16:slave_address <- $r9
	@DEBUG_VALUE: I2C_EERPOM_ReadBytes16:timeout <- undef
	.loc	4 596 13 is_stmt 1      @ ../Driver/i2c_eeprom.c:596:13
	adds	r4, #1
.Ltmp397:
	.loc	4 596 6 is_stmt 0       @ ../Driver/i2c_eeprom.c:596:6
	beq	.LBB10_23
.Ltmp398:
@ %bb.8:                                @   in Loop: Header=BB10_7 Depth=1
	@DEBUG_VALUE: I2C_EERPOM_ReadBytes16:data_address <- [DW_OP_plus_uconst 8] [$sp+0]
	@DEBUG_VALUE: I2C_EERPOM_ReadBytes16:cnt <- $r7
	@DEBUG_VALUE: I2C_EERPOM_ReadBytes16:slave_address <- $r9
	@DEBUG_VALUE: I2C_EERPOM_ReadBytes16:timeout <- [DW_OP_constu 1, DW_OP_minus, DW_OP_stack_value] undef
	.loc	4 594 10 is_stmt 1      @ ../Driver/i2c_eeprom.c:594:10
	mov	r0, r5
	mov	r1, r10
	bl	I2C_GetFlagStatus
	.loc	4 594 2 is_stmt 0       @ ../Driver/i2c_eeprom.c:594:2
	cmp	r0, #0
	beq	.LBB10_7
.Ltmp399:
.LBB10_9:
	@DEBUG_VALUE: I2C_EERPOM_ReadBytes16:data_address <- [DW_OP_plus_uconst 8] [$sp+0]
	@DEBUG_VALUE: I2C_EERPOM_ReadBytes16:cnt <- $r7
	@DEBUG_VALUE: I2C_EERPOM_ReadBytes16:slave_address <- $r9
	.loc	4 600 8 is_stmt 1       @ ../Driver/i2c_eeprom.c:600:8
	ldrh	r0, [r5, #24]
.Ltmp400:
	@DEBUG_VALUE: I2C_EERPOM_ReadBytes16:timeout <- 12288
	.loc	4 603 10                @ ../Driver/i2c_eeprom.c:603:10
	add.w	r4, r11, #127
	mov	r0, r5
	mov	r1, r4
	bl	I2C_GetFlagStatus
	.loc	4 603 2 is_stmt 0       @ ../Driver/i2c_eeprom.c:603:2
	cbnz	r0, .LBB10_13
.Ltmp401:
@ %bb.10:
	@DEBUG_VALUE: I2C_EERPOM_ReadBytes16:data_address <- [DW_OP_plus_uconst 8] [$sp+0]
	@DEBUG_VALUE: I2C_EERPOM_ReadBytes16:cnt <- $r7
	@DEBUG_VALUE: I2C_EERPOM_ReadBytes16:slave_address <- $r9
	.loc	4 0 2                   @ ../Driver/i2c_eeprom.c:0:2
	mvn	r6, #12288
.Ltmp402:
	.p2align	2
.LBB10_11:                              @ =>This Inner Loop Header: Depth=1
	@DEBUG_VALUE: I2C_EERPOM_ReadBytes16:data_address <- [DW_OP_plus_uconst 8] [$sp+0]
	@DEBUG_VALUE: I2C_EERPOM_ReadBytes16:cnt <- $r7
	@DEBUG_VALUE: I2C_EERPOM_ReadBytes16:slave_address <- $r9
	@DEBUG_VALUE: I2C_EERPOM_ReadBytes16:timeout <- undef
	.loc	4 605 14 is_stmt 1      @ ../Driver/i2c_eeprom.c:605:14
	adds	r6, #1
.Ltmp403:
	.loc	4 605 6 is_stmt 0       @ ../Driver/i2c_eeprom.c:605:6
	beq	.LBB10_24
.Ltmp404:
@ %bb.12:                               @   in Loop: Header=BB10_11 Depth=1
	@DEBUG_VALUE: I2C_EERPOM_ReadBytes16:data_address <- [DW_OP_plus_uconst 8] [$sp+0]
	@DEBUG_VALUE: I2C_EERPOM_ReadBytes16:cnt <- $r7
	@DEBUG_VALUE: I2C_EERPOM_ReadBytes16:slave_address <- $r9
	@DEBUG_VALUE: I2C_EERPOM_ReadBytes16:timeout <- [DW_OP_constu 1, DW_OP_minus, DW_OP_stack_value] undef
	.loc	4 603 10 is_stmt 1      @ ../Driver/i2c_eeprom.c:603:10
	mov	r0, r5
	mov	r1, r4
	bl	I2C_GetFlagStatus
	.loc	4 603 2 is_stmt 0       @ ../Driver/i2c_eeprom.c:603:2
	cmp	r0, #0
	beq	.LBB10_11
.Ltmp405:
.LBB10_13:
	@DEBUG_VALUE: I2C_EERPOM_ReadBytes16:data_address <- [DW_OP_plus_uconst 8] [$sp+0]
	@DEBUG_VALUE: I2C_EERPOM_ReadBytes16:cnt <- $r7
	@DEBUG_VALUE: I2C_EERPOM_ReadBytes16:slave_address <- $r9
	.loc	4 0 0                   @ ../Driver/i2c_eeprom.c:0:0
	ldr	r0, [sp, #8]            @ 4-byte Reload
	str.w	r9, [sp, #4]            @ 4-byte Spill
.Ltmp406:
	@DEBUG_VALUE: I2C_EERPOM_ReadBytes16:slave_address <- [DW_OP_plus_uconst 4] [$sp+0]
	lsrs	r1, r0, #8
	.loc	4 609 2 is_stmt 1       @ ../Driver/i2c_eeprom.c:609:2
	mov	r0, r5
	bl	I2C_SendData
	mvn	r9, #12288
.Ltmp407:
	@DEBUG_VALUE: I2C_EERPOM_ReadBytes16:timeout <- 12288
	.loc	4 0 2 is_stmt 0         @ ../Driver/i2c_eeprom.c:0:2
	add.w	r6, r11, #3
.Ltmp408:
	.p2align	2
.LBB10_14:                              @ =>This Inner Loop Header: Depth=1
	@DEBUG_VALUE: I2C_EERPOM_ReadBytes16:slave_address <- [DW_OP_plus_uconst 4] [$sp+0]
	@DEBUG_VALUE: I2C_EERPOM_ReadBytes16:data_address <- [DW_OP_plus_uconst 8] [$sp+0]
	@DEBUG_VALUE: I2C_EERPOM_ReadBytes16:cnt <- $r7
	@DEBUG_VALUE: I2C_EERPOM_ReadBytes16:timeout <- undef
	.loc	4 612 11 is_stmt 1      @ ../Driver/i2c_eeprom.c:612:11
	mov	r0, r5
	mov	r1, r4
	bl	I2C_GetFlagStatus
	.loc	4 612 50 is_stmt 0      @ ../Driver/i2c_eeprom.c:612:50
	cbz	r0, .LBB10_16
.Ltmp409:
@ %bb.15:                               @   in Loop: Header=BB10_14 Depth=1
	@DEBUG_VALUE: I2C_EERPOM_ReadBytes16:slave_address <- [DW_OP_plus_uconst 4] [$sp+0]
	@DEBUG_VALUE: I2C_EERPOM_ReadBytes16:data_address <- [DW_OP_plus_uconst 8] [$sp+0]
	@DEBUG_VALUE: I2C_EERPOM_ReadBytes16:cnt <- $r7
	.loc	4 612 55                @ ../Driver/i2c_eeprom.c:612:55
	mov	r0, r5
	mov	r1, r6
	bl	I2C_GetFlagStatus
	.loc	4 612 2                 @ ../Driver/i2c_eeprom.c:612:2
	cbnz	r0, .LBB10_17
.Ltmp410:
.LBB10_16:                              @   in Loop: Header=BB10_14 Depth=1
	@DEBUG_VALUE: I2C_EERPOM_ReadBytes16:slave_address <- [DW_OP_plus_uconst 4] [$sp+0]
	@DEBUG_VALUE: I2C_EERPOM_ReadBytes16:data_address <- [DW_OP_plus_uconst 8] [$sp+0]
	@DEBUG_VALUE: I2C_EERPOM_ReadBytes16:cnt <- $r7
	@DEBUG_VALUE: I2C_EERPOM_ReadBytes16:timeout <- [DW_OP_constu 1, DW_OP_minus, DW_OP_stack_value] undef
	.loc	4 614 14 is_stmt 1      @ ../Driver/i2c_eeprom.c:614:14
	adds.w	r9, r9, #1
.Ltmp411:
	.loc	4 614 6 is_stmt 0       @ ../Driver/i2c_eeprom.c:614:6
	bne	.LBB10_14
	b	.LBB10_21
.Ltmp412:
.LBB10_17:
	@DEBUG_VALUE: I2C_EERPOM_ReadBytes16:slave_address <- [DW_OP_plus_uconst 4] [$sp+0]
	@DEBUG_VALUE: I2C_EERPOM_ReadBytes16:data_address <- [DW_OP_plus_uconst 8] [$sp+0]
	@DEBUG_VALUE: I2C_EERPOM_ReadBytes16:cnt <- $r7
	.loc	4 618 2 is_stmt 1       @ ../Driver/i2c_eeprom.c:618:2
	ldr	r0, [sp, #8]            @ 4-byte Reload
	mov	r9, r7
.Ltmp413:
	@DEBUG_VALUE: I2C_EERPOM_ReadBytes16:cnt <- $r9
	uxtb	r1, r0
	mov	r0, r5
	bl	I2C_SendData
	mvn	r7, #12288
.Ltmp414:
	@DEBUG_VALUE: I2C_EERPOM_ReadBytes16:timeout <- 12288
	.p2align	2
.LBB10_18:                              @ =>This Inner Loop Header: Depth=1
	@DEBUG_VALUE: I2C_EERPOM_ReadBytes16:cnt <- $r9
	@DEBUG_VALUE: I2C_EERPOM_ReadBytes16:slave_address <- [DW_OP_plus_uconst 4] [$sp+0]
	@DEBUG_VALUE: I2C_EERPOM_ReadBytes16:data_address <- [DW_OP_plus_uconst 8] [$sp+0]
	@DEBUG_VALUE: I2C_EERPOM_ReadBytes16:timeout <- undef
	.loc	4 621 11                @ ../Driver/i2c_eeprom.c:621:11
	mov	r0, r5
	mov	r1, r4
	bl	I2C_GetFlagStatus
	.loc	4 621 50 is_stmt 0      @ ../Driver/i2c_eeprom.c:621:50
	cbz	r0, .LBB10_20
.Ltmp415:
@ %bb.19:                               @   in Loop: Header=BB10_18 Depth=1
	@DEBUG_VALUE: I2C_EERPOM_ReadBytes16:cnt <- $r9
	@DEBUG_VALUE: I2C_EERPOM_ReadBytes16:slave_address <- [DW_OP_plus_uconst 4] [$sp+0]
	@DEBUG_VALUE: I2C_EERPOM_ReadBytes16:data_address <- [DW_OP_plus_uconst 8] [$sp+0]
	.loc	4 621 55                @ ../Driver/i2c_eeprom.c:621:55
	mov	r0, r5
	mov	r1, r6
	bl	I2C_GetFlagStatus
	.loc	4 621 2                 @ ../Driver/i2c_eeprom.c:621:2
	cbnz	r0, .LBB10_25
.Ltmp416:
.LBB10_20:                              @   in Loop: Header=BB10_18 Depth=1
	@DEBUG_VALUE: I2C_EERPOM_ReadBytes16:cnt <- $r9
	@DEBUG_VALUE: I2C_EERPOM_ReadBytes16:slave_address <- [DW_OP_plus_uconst 4] [$sp+0]
	@DEBUG_VALUE: I2C_EERPOM_ReadBytes16:data_address <- [DW_OP_plus_uconst 8] [$sp+0]
	@DEBUG_VALUE: I2C_EERPOM_ReadBytes16:timeout <- [DW_OP_constu 1, DW_OP_minus, DW_OP_stack_value] undef
	.loc	4 623 14 is_stmt 1      @ ../Driver/i2c_eeprom.c:623:14
	adds	r7, #1
.Ltmp417:
	.loc	4 623 6 is_stmt 0       @ ../Driver/i2c_eeprom.c:623:6
	bne	.LBB10_18
.Ltmp418:
.LBB10_21:
	@DEBUG_VALUE: I2C_EERPOM_ReadBytes16:slave_address <- [DW_OP_plus_uconst 4] [$sp+0]
	@DEBUG_VALUE: I2C_EERPOM_ReadBytes16:data_address <- [DW_OP_plus_uconst 8] [$sp+0]
	.loc	4 0 0                   @ ../Driver/i2c_eeprom.c:0:0
	add.w	r8, r8, #4
	b	.LBB10_45
.Ltmp419:
.LBB10_22:
	@DEBUG_VALUE: I2C_EERPOM_ReadBytes16:cnt <- $r7
	@DEBUG_VALUE: I2C_EERPOM_ReadBytes16:slave_address <- $r9
	@DEBUG_VALUE: I2C_EERPOM_ReadBytes16:data_address <- $r6
	.loc	4 579 15 is_stmt 1      @ ../Driver/i2c_eeprom.c:579:15
	add.w	r8, r8, #7
	b	.LBB10_45
.Ltmp420:
.LBB10_23:
	@DEBUG_VALUE: I2C_EERPOM_ReadBytes16:data_address <- [DW_OP_plus_uconst 8] [$sp+0]
	@DEBUG_VALUE: I2C_EERPOM_ReadBytes16:cnt <- $r7
	@DEBUG_VALUE: I2C_EERPOM_ReadBytes16:slave_address <- $r9
	.loc	4 597 15                @ ../Driver/i2c_eeprom.c:597:15
	add.w	r8, r8, #6
	b	.LBB10_45
.Ltmp421:
.LBB10_24:
	@DEBUG_VALUE: I2C_EERPOM_ReadBytes16:data_address <- [DW_OP_plus_uconst 8] [$sp+0]
	@DEBUG_VALUE: I2C_EERPOM_ReadBytes16:cnt <- $r7
	@DEBUG_VALUE: I2C_EERPOM_ReadBytes16:slave_address <- $r9
	.loc	4 606 15                @ ../Driver/i2c_eeprom.c:606:15
	add.w	r8, r8, #5
	b	.LBB10_45
.Ltmp422:
.LBB10_25:
	@DEBUG_VALUE: I2C_EERPOM_ReadBytes16:cnt <- $r9
	@DEBUG_VALUE: I2C_EERPOM_ReadBytes16:slave_address <- [DW_OP_plus_uconst 4] [$sp+0]
	@DEBUG_VALUE: I2C_EERPOM_ReadBytes16:data_address <- [DW_OP_plus_uconst 8] [$sp+0]
	.loc	4 627 2                 @ ../Driver/i2c_eeprom.c:627:2
	mov	r0, r5
	movs	r1, #1
	bl	I2C_GenerateSTART
.Ltmp423:
	@DEBUG_VALUE: I2C_EERPOM_ReadBytes16:timeout <- 12288
	.loc	4 630 10                @ ../Driver/i2c_eeprom.c:630:10
	mov	r0, r5
	mov	r1, r11
	bl	I2C_GetFlagStatus
	.loc	4 630 2 is_stmt 0       @ ../Driver/i2c_eeprom.c:630:2
	cmp	r0, #0
	mov	r7, r9
	bne	.LBB10_29
.Ltmp424:
@ %bb.26:
	@DEBUG_VALUE: I2C_EERPOM_ReadBytes16:cnt <- $r9
	@DEBUG_VALUE: I2C_EERPOM_ReadBytes16:slave_address <- [DW_OP_plus_uconst 4] [$sp+0]
	@DEBUG_VALUE: I2C_EERPOM_ReadBytes16:data_address <- [DW_OP_plus_uconst 8] [$sp+0]
	.loc	4 0 2                   @ ../Driver/i2c_eeprom.c:0:2
	mvn	r4, #12288
.Ltmp425:
	.p2align	2
.LBB10_27:                              @ =>This Inner Loop Header: Depth=1
	@DEBUG_VALUE: I2C_EERPOM_ReadBytes16:cnt <- $r9
	@DEBUG_VALUE: I2C_EERPOM_ReadBytes16:slave_address <- [DW_OP_plus_uconst 4] [$sp+0]
	@DEBUG_VALUE: I2C_EERPOM_ReadBytes16:data_address <- [DW_OP_plus_uconst 8] [$sp+0]
	@DEBUG_VALUE: I2C_EERPOM_ReadBytes16:timeout <- undef
	.loc	4 632 14 is_stmt 1      @ ../Driver/i2c_eeprom.c:632:14
	adds	r4, #1
.Ltmp426:
	.loc	4 632 6 is_stmt 0       @ ../Driver/i2c_eeprom.c:632:6
	beq	.LBB10_43
.Ltmp427:
@ %bb.28:                               @   in Loop: Header=BB10_27 Depth=1
	@DEBUG_VALUE: I2C_EERPOM_ReadBytes16:cnt <- $r9
	@DEBUG_VALUE: I2C_EERPOM_ReadBytes16:slave_address <- [DW_OP_plus_uconst 4] [$sp+0]
	@DEBUG_VALUE: I2C_EERPOM_ReadBytes16:data_address <- [DW_OP_plus_uconst 8] [$sp+0]
	@DEBUG_VALUE: I2C_EERPOM_ReadBytes16:timeout <- [DW_OP_constu 1, DW_OP_minus, DW_OP_stack_value] undef
	.loc	4 630 10 is_stmt 1      @ ../Driver/i2c_eeprom.c:630:10
	mov	r0, r5
	mov	r1, r11
	bl	I2C_GetFlagStatus
	.loc	4 630 2 is_stmt 0       @ ../Driver/i2c_eeprom.c:630:2
	cmp	r0, #0
	beq	.LBB10_27
.Ltmp428:
.LBB10_29:
	@DEBUG_VALUE: I2C_EERPOM_ReadBytes16:cnt <- $r9
	@DEBUG_VALUE: I2C_EERPOM_ReadBytes16:slave_address <- [DW_OP_plus_uconst 4] [$sp+0]
	@DEBUG_VALUE: I2C_EERPOM_ReadBytes16:data_address <- [DW_OP_plus_uconst 8] [$sp+0]
	.loc	4 636 2 is_stmt 1       @ ../Driver/i2c_eeprom.c:636:2
	ldr	r1, [sp, #4]            @ 4-byte Reload
	mov	r0, r5
	movs	r2, #1
	bl	I2C_Send7bitAddress
.Ltmp429:
	@DEBUG_VALUE: I2C_EERPOM_ReadBytes16:timeout <- 12288
	.loc	4 639 10                @ ../Driver/i2c_eeprom.c:639:10
	mov	r0, r5
	mov	r1, r10
	bl	I2C_GetFlagStatus
	.loc	4 639 2 is_stmt 0       @ ../Driver/i2c_eeprom.c:639:2
	cbnz	r0, .LBB10_33
.Ltmp430:
@ %bb.30:
	@DEBUG_VALUE: I2C_EERPOM_ReadBytes16:cnt <- $r9
	@DEBUG_VALUE: I2C_EERPOM_ReadBytes16:slave_address <- [DW_OP_plus_uconst 4] [$sp+0]
	@DEBUG_VALUE: I2C_EERPOM_ReadBytes16:data_address <- [DW_OP_plus_uconst 8] [$sp+0]
	.loc	4 0 2                   @ ../Driver/i2c_eeprom.c:0:2
	mvn	r4, #12288
.Ltmp431:
	.p2align	2
.LBB10_31:                              @ =>This Inner Loop Header: Depth=1
	@DEBUG_VALUE: I2C_EERPOM_ReadBytes16:cnt <- $r9
	@DEBUG_VALUE: I2C_EERPOM_ReadBytes16:slave_address <- [DW_OP_plus_uconst 4] [$sp+0]
	@DEBUG_VALUE: I2C_EERPOM_ReadBytes16:data_address <- [DW_OP_plus_uconst 8] [$sp+0]
	@DEBUG_VALUE: I2C_EERPOM_ReadBytes16:timeout <- undef
	.loc	4 641 14 is_stmt 1      @ ../Driver/i2c_eeprom.c:641:14
	adds	r4, #1
.Ltmp432:
	.loc	4 641 6 is_stmt 0       @ ../Driver/i2c_eeprom.c:641:6
	beq	.LBB10_44
.Ltmp433:
@ %bb.32:                               @   in Loop: Header=BB10_31 Depth=1
	@DEBUG_VALUE: I2C_EERPOM_ReadBytes16:cnt <- $r9
	@DEBUG_VALUE: I2C_EERPOM_ReadBytes16:slave_address <- [DW_OP_plus_uconst 4] [$sp+0]
	@DEBUG_VALUE: I2C_EERPOM_ReadBytes16:data_address <- [DW_OP_plus_uconst 8] [$sp+0]
	@DEBUG_VALUE: I2C_EERPOM_ReadBytes16:timeout <- [DW_OP_constu 1, DW_OP_minus, DW_OP_stack_value] undef
	.loc	4 639 10 is_stmt 1      @ ../Driver/i2c_eeprom.c:639:10
	mov	r0, r5
	mov	r1, r10
	bl	I2C_GetFlagStatus
	.loc	4 639 2 is_stmt 0       @ ../Driver/i2c_eeprom.c:639:2
	cmp	r0, #0
	beq	.LBB10_31
.Ltmp434:
.LBB10_33:
	@DEBUG_VALUE: I2C_EERPOM_ReadBytes16:cnt <- $r9
	@DEBUG_VALUE: I2C_EERPOM_ReadBytes16:slave_address <- [DW_OP_plus_uconst 4] [$sp+0]
	@DEBUG_VALUE: I2C_EERPOM_ReadBytes16:data_address <- [DW_OP_plus_uconst 8] [$sp+0]
	.loc	4 0 2                   @ ../Driver/i2c_eeprom.c:0:2
	add.w	r4, r11, #63
	movw	r11, :lower16:i2c_ee_buffer
	.loc	4 645 8 is_stmt 1       @ ../Driver/i2c_eeprom.c:645:8
	ldrh	r0, [r5, #24]
	movs	r6, #0
.Ltmp435:
	@DEBUG_VALUE: I2C_EERPOM_ReadBytes16:n <- 0
	.loc	4 0 8 is_stmt 0         @ ../Driver/i2c_eeprom.c:0:8
	movt	r11, :upper16:i2c_ee_buffer
.Ltmp436:
.LBB10_34:                              @ =>This Loop Header: Depth=1
                                        @     Child Loop BB10_38 Depth 2
	@DEBUG_VALUE: I2C_EERPOM_ReadBytes16:cnt <- $r9
	@DEBUG_VALUE: I2C_EERPOM_ReadBytes16:slave_address <- [DW_OP_plus_uconst 4] [$sp+0]
	@DEBUG_VALUE: I2C_EERPOM_ReadBytes16:data_address <- [DW_OP_plus_uconst 8] [$sp+0]
	@DEBUG_VALUE: I2C_EERPOM_ReadBytes16:n <- $r6
	.loc	4 650 9 is_stmt 1       @ ../Driver/i2c_eeprom.c:650:9
	add.w	r10, r6, #1
.Ltmp437:
	.loc	4 650 6 is_stmt 0       @ ../Driver/i2c_eeprom.c:650:6
	cmp	r10, r7
	blo	.LBB10_36
.Ltmp438:
@ %bb.35:                               @   in Loop: Header=BB10_34 Depth=1
	@DEBUG_VALUE: I2C_EERPOM_ReadBytes16:cnt <- $r9
	@DEBUG_VALUE: I2C_EERPOM_ReadBytes16:slave_address <- [DW_OP_plus_uconst 4] [$sp+0]
	@DEBUG_VALUE: I2C_EERPOM_ReadBytes16:data_address <- [DW_OP_plus_uconst 8] [$sp+0]
	@DEBUG_VALUE: I2C_EERPOM_ReadBytes16:n <- $r6
	.loc	4 652 4 is_stmt 1       @ ../Driver/i2c_eeprom.c:652:4
	mov	r0, r5
	movs	r1, #0
	bl	I2C_AcknowledgeConfig
	.loc	4 653 4                 @ ../Driver/i2c_eeprom.c:653:4
	mov	r0, r5
	movs	r1, #1
	bl	I2C_GenerateSTOP
.Ltmp439:
.LBB10_36:                              @   in Loop: Header=BB10_34 Depth=1
	@DEBUG_VALUE: I2C_EERPOM_ReadBytes16:cnt <- $r9
	@DEBUG_VALUE: I2C_EERPOM_ReadBytes16:slave_address <- [DW_OP_plus_uconst 4] [$sp+0]
	@DEBUG_VALUE: I2C_EERPOM_ReadBytes16:data_address <- [DW_OP_plus_uconst 8] [$sp+0]
	@DEBUG_VALUE: I2C_EERPOM_ReadBytes16:n <- $r6
	@DEBUG_VALUE: I2C_EERPOM_ReadBytes16:timeout <- 12288
	.loc	4 658 11                @ ../Driver/i2c_eeprom.c:658:11
	mov	r0, r5
	mov	r1, r4
	bl	I2C_GetFlagStatus
	.loc	4 658 3 is_stmt 0       @ ../Driver/i2c_eeprom.c:658:3
	cbnz	r0, .LBB10_40
.Ltmp440:
@ %bb.37:                               @   in Loop: Header=BB10_34 Depth=1
	@DEBUG_VALUE: I2C_EERPOM_ReadBytes16:cnt <- $r9
	@DEBUG_VALUE: I2C_EERPOM_ReadBytes16:slave_address <- [DW_OP_plus_uconst 4] [$sp+0]
	@DEBUG_VALUE: I2C_EERPOM_ReadBytes16:data_address <- [DW_OP_plus_uconst 8] [$sp+0]
	@DEBUG_VALUE: I2C_EERPOM_ReadBytes16:n <- $r6
	.loc	4 0 3                   @ ../Driver/i2c_eeprom.c:0:3
	mvn	r7, #12288
.Ltmp441:
	.p2align	2
.LBB10_38:                              @   Parent Loop BB10_34 Depth=1
                                        @ =>  This Inner Loop Header: Depth=2
	@DEBUG_VALUE: I2C_EERPOM_ReadBytes16:cnt <- $r9
	@DEBUG_VALUE: I2C_EERPOM_ReadBytes16:slave_address <- [DW_OP_plus_uconst 4] [$sp+0]
	@DEBUG_VALUE: I2C_EERPOM_ReadBytes16:data_address <- [DW_OP_plus_uconst 8] [$sp+0]
	@DEBUG_VALUE: I2C_EERPOM_ReadBytes16:n <- $r6
	@DEBUG_VALUE: I2C_EERPOM_ReadBytes16:timeout <- undef
	.loc	4 660 15 is_stmt 1      @ ../Driver/i2c_eeprom.c:660:15
	adds	r7, #1
.Ltmp442:
	.loc	4 660 7 is_stmt 0       @ ../Driver/i2c_eeprom.c:660:7
	beq	.LBB10_42
.Ltmp443:
@ %bb.39:                               @   in Loop: Header=BB10_38 Depth=2
	@DEBUG_VALUE: I2C_EERPOM_ReadBytes16:cnt <- $r9
	@DEBUG_VALUE: I2C_EERPOM_ReadBytes16:slave_address <- [DW_OP_plus_uconst 4] [$sp+0]
	@DEBUG_VALUE: I2C_EERPOM_ReadBytes16:data_address <- [DW_OP_plus_uconst 8] [$sp+0]
	@DEBUG_VALUE: I2C_EERPOM_ReadBytes16:n <- $r6
	@DEBUG_VALUE: I2C_EERPOM_ReadBytes16:timeout <- [DW_OP_constu 1, DW_OP_minus, DW_OP_stack_value] undef
	.loc	4 658 11 is_stmt 1      @ ../Driver/i2c_eeprom.c:658:11
	mov	r0, r5
	mov	r1, r4
	bl	I2C_GetFlagStatus
	.loc	4 658 3 is_stmt 0       @ ../Driver/i2c_eeprom.c:658:3
	cmp	r0, #0
	beq	.LBB10_38
.Ltmp444:
.LBB10_40:                              @   in Loop: Header=BB10_34 Depth=1
	@DEBUG_VALUE: I2C_EERPOM_ReadBytes16:cnt <- $r9
	@DEBUG_VALUE: I2C_EERPOM_ReadBytes16:slave_address <- [DW_OP_plus_uconst 4] [$sp+0]
	@DEBUG_VALUE: I2C_EERPOM_ReadBytes16:data_address <- [DW_OP_plus_uconst 8] [$sp+0]
	@DEBUG_VALUE: I2C_EERPOM_ReadBytes16:n <- $r6
	.loc	4 664 22 is_stmt 1      @ ../Driver/i2c_eeprom.c:664:22
	mov	r0, r5
	bl	I2C_ReceiveData
	.loc	4 664 20 is_stmt 0      @ ../Driver/i2c_eeprom.c:664:20
	strb.w	r0, [r11, r6]
.Ltmp445:
	@DEBUG_VALUE: I2C_EERPOM_ReadBytes16:n <- [DW_OP_plus_uconst 1, DW_OP_stack_value] undef
	.loc	4 0 20                  @ ../Driver/i2c_eeprom.c:0:20
	mov	r7, r9
.Ltmp446:
	.loc	4 647 2 is_stmt 1       @ ../Driver/i2c_eeprom.c:647:2
	cmp	r10, r9
	mov	r6, r10
	blo	.LBB10_34
.Ltmp447:
@ %bb.41:
	@DEBUG_VALUE: I2C_EERPOM_ReadBytes16:cnt <- $r9
	@DEBUG_VALUE: I2C_EERPOM_ReadBytes16:slave_address <- [DW_OP_plus_uconst 4] [$sp+0]
	@DEBUG_VALUE: I2C_EERPOM_ReadBytes16:data_address <- [DW_OP_plus_uconst 8] [$sp+0]
	.loc	4 667 2                 @ ../Driver/i2c_eeprom.c:667:2
	mov	r0, r5
	movs	r1, #1
	bl	I2C_AcknowledgeConfig
	mov.w	r8, #0
	@DEBUG_VALUE: I2C_EERPOM_ReadBytes16:ret_data <- 0
	b	.LBB10_46
.Ltmp448:
.LBB10_42:
	@DEBUG_VALUE: I2C_EERPOM_ReadBytes16:cnt <- $r9
	@DEBUG_VALUE: I2C_EERPOM_ReadBytes16:slave_address <- [DW_OP_plus_uconst 4] [$sp+0]
	@DEBUG_VALUE: I2C_EERPOM_ReadBytes16:data_address <- [DW_OP_plus_uconst 8] [$sp+0]
	@DEBUG_VALUE: I2C_EERPOM_ReadBytes16:n <- $r6
	.loc	4 661 16                @ ../Driver/i2c_eeprom.c:661:16
	add.w	r8, r8, #1
	b	.LBB10_45
.Ltmp449:
.LBB10_43:
	@DEBUG_VALUE: I2C_EERPOM_ReadBytes16:cnt <- $r9
	@DEBUG_VALUE: I2C_EERPOM_ReadBytes16:slave_address <- [DW_OP_plus_uconst 4] [$sp+0]
	@DEBUG_VALUE: I2C_EERPOM_ReadBytes16:data_address <- [DW_OP_plus_uconst 8] [$sp+0]
	.loc	4 633 15                @ ../Driver/i2c_eeprom.c:633:15
	add.w	r8, r8, #3
	b	.LBB10_45
.Ltmp450:
.LBB10_44:
	@DEBUG_VALUE: I2C_EERPOM_ReadBytes16:cnt <- $r9
	@DEBUG_VALUE: I2C_EERPOM_ReadBytes16:slave_address <- [DW_OP_plus_uconst 4] [$sp+0]
	@DEBUG_VALUE: I2C_EERPOM_ReadBytes16:data_address <- [DW_OP_plus_uconst 8] [$sp+0]
	.loc	4 642 15                @ ../Driver/i2c_eeprom.c:642:15
	add.w	r8, r8, #2
.Ltmp451:
.LBB10_45:
	.loc	4 0 0 is_stmt 0         @ ../Driver/i2c_eeprom.c:0:0
	sxth.w	r0, r8
	bl	I2C_EEPROM_timeout
.LBB10_46:
	.loc	4 670 1 is_stmt 1       @ ../Driver/i2c_eeprom.c:670:1
	sxth.w	r0, r8
	add	sp, #12
	pop.w	{r4, r5, r6, r7, r8, r9, r10, r11, pc}
.Ltmp452:
.Lfunc_end10:
	.size	I2C_EERPOM_ReadBytes16, .Lfunc_end10-I2C_EERPOM_ReadBytes16
	.cfi_endproc
	.cantunwind
	.fnend
                                        @ -- End function
	.section	.text.I2C_EERPOM_WriteBytes16,"ax",%progbits
	.hidden	I2C_EERPOM_WriteBytes16 @ -- Begin function I2C_EERPOM_WriteBytes16
	.globl	I2C_EERPOM_WriteBytes16
	.p2align	1
	.type	I2C_EERPOM_WriteBytes16,%function
	.code	16                      @ @I2C_EERPOM_WriteBytes16
	.thumb_func
I2C_EERPOM_WriteBytes16:
.Lfunc_begin11:
	.loc	4 674 0                 @ ../Driver/i2c_eeprom.c:674:0
	.fnstart
	.cfi_startproc
@ %bb.0:
	.save	{r4, r5, r6, r7, r8, r9, r10, lr}
	push.w	{r4, r5, r6, r7, r8, r9, r10, lr}
	.cfi_def_cfa_offset 32
	.cfi_offset lr, -4
	.cfi_offset r10, -8
	.cfi_offset r9, -12
	.cfi_offset r8, -16
	.cfi_offset r7, -20
	.cfi_offset r6, -24
	.cfi_offset r5, -28
	.cfi_offset r4, -32
	@DEBUG_VALUE: I2C_EERPOM_WriteBytes16:slave_address <- $r0
	@DEBUG_VALUE: I2C_EERPOM_WriteBytes16:data_address <- $r1
	@DEBUG_VALUE: I2C_EERPOM_WriteBytes16:cnt <- $r2
	movw	r5, #22528
	mov	r9, r1
	mov	r7, r0
.Ltmp453:
	@DEBUG_VALUE: I2C_EERPOM_WriteBytes16:cnt <- $r8
	@DEBUG_VALUE: I2C_EERPOM_WriteBytes16:data_address <- $r9
	@DEBUG_VALUE: I2C_EERPOM_WriteBytes16:slave_address <- $r7
	.loc	4 681 2 prologue_end    @ ../Driver/i2c_eeprom.c:681:2
	movs	r1, #1
	mov	r8, r2
.Ltmp454:
	.loc	4 0 2 is_stmt 0         @ ../Driver/i2c_eeprom.c:0:2
	movt	r5, #16384
	.loc	4 681 2                 @ ../Driver/i2c_eeprom.c:681:2
	mov	r0, r5
	bl	I2C_GenerateSTART
.Ltmp455:
	@DEBUG_VALUE: I2C_EERPOM_WriteBytes16:timeout <- 12288
	.loc	4 0 2                   @ ../Driver/i2c_eeprom.c:0:2
	movs	r6, #1
	.loc	4 684 10 is_stmt 1      @ ../Driver/i2c_eeprom.c:684:10
	mov	r0, r5
	movt	r6, #4096
	mov	r1, r6
	bl	I2C_GetFlagStatus
.Ltmp456:
	@DEBUG_VALUE: I2C_EERPOM_WriteBytes16:ret_data <- 0
	.loc	4 684 2 is_stmt 0       @ ../Driver/i2c_eeprom.c:684:2
	cbnz	r0, .LBB11_4
.Ltmp457:
@ %bb.1:
	@DEBUG_VALUE: I2C_EERPOM_WriteBytes16:slave_address <- $r7
	@DEBUG_VALUE: I2C_EERPOM_WriteBytes16:data_address <- $r9
	.loc	4 0 2                   @ ../Driver/i2c_eeprom.c:0:2
	mvn	r4, #12288
.Ltmp458:
	.p2align	2
.LBB11_2:                               @ =>This Inner Loop Header: Depth=1
	@DEBUG_VALUE: I2C_EERPOM_WriteBytes16:slave_address <- $r7
	@DEBUG_VALUE: I2C_EERPOM_WriteBytes16:data_address <- $r9
	@DEBUG_VALUE: I2C_EERPOM_WriteBytes16:timeout <- undef
	.loc	4 686 14 is_stmt 1      @ ../Driver/i2c_eeprom.c:686:14
	adds	r4, #1
.Ltmp459:
	.loc	4 686 6 is_stmt 0       @ ../Driver/i2c_eeprom.c:686:6
	beq.w	.LBB11_29
.Ltmp460:
@ %bb.3:                                @   in Loop: Header=BB11_2 Depth=1
	@DEBUG_VALUE: I2C_EERPOM_WriteBytes16:slave_address <- $r7
	@DEBUG_VALUE: I2C_EERPOM_WriteBytes16:data_address <- $r9
	@DEBUG_VALUE: I2C_EERPOM_WriteBytes16:timeout <- [DW_OP_constu 1, DW_OP_minus, DW_OP_stack_value] undef
	.loc	4 684 10 is_stmt 1      @ ../Driver/i2c_eeprom.c:684:10
	mov	r0, r5
	mov	r1, r6
	bl	I2C_GetFlagStatus
	.loc	4 684 2 is_stmt 0       @ ../Driver/i2c_eeprom.c:684:2
	cmp	r0, #0
	beq	.LBB11_2
.Ltmp461:
.LBB11_4:
	@DEBUG_VALUE: I2C_EERPOM_WriteBytes16:slave_address <- $r7
	@DEBUG_VALUE: I2C_EERPOM_WriteBytes16:data_address <- $r9
	@DEBUG_VALUE: I2C_EERPOM_WriteBytes16:slave_address <- $r7
	.loc	4 690 2 is_stmt 1       @ ../Driver/i2c_eeprom.c:690:2
	mov	r0, r5
	mov	r1, r7
	movs	r2, #0
	bl	I2C_Send7bitAddress
.Ltmp462:
	@DEBUG_VALUE: I2C_EERPOM_WriteBytes16:timeout <- 12288
	.loc	4 693 10                @ ../Driver/i2c_eeprom.c:693:10
	adds	r7, r6, #1
.Ltmp463:
	mov	r0, r5
	mov	r1, r7
	bl	I2C_GetFlagStatus
	.loc	4 693 2 is_stmt 0       @ ../Driver/i2c_eeprom.c:693:2
	cbnz	r0, .LBB11_8
.Ltmp464:
@ %bb.5:
	@DEBUG_VALUE: I2C_EERPOM_WriteBytes16:data_address <- $r9
	.loc	4 0 2                   @ ../Driver/i2c_eeprom.c:0:2
	mvn	r4, #12288
.Ltmp465:
	.p2align	2
.LBB11_6:                               @ =>This Inner Loop Header: Depth=1
	@DEBUG_VALUE: I2C_EERPOM_WriteBytes16:data_address <- $r9
	@DEBUG_VALUE: I2C_EERPOM_WriteBytes16:timeout <- undef
	.loc	4 695 14 is_stmt 1      @ ../Driver/i2c_eeprom.c:695:14
	adds	r4, #1
.Ltmp466:
	.loc	4 695 6 is_stmt 0       @ ../Driver/i2c_eeprom.c:695:6
	beq	.LBB11_31
.Ltmp467:
@ %bb.7:                                @   in Loop: Header=BB11_6 Depth=1
	@DEBUG_VALUE: I2C_EERPOM_WriteBytes16:data_address <- $r9
	@DEBUG_VALUE: I2C_EERPOM_WriteBytes16:timeout <- [DW_OP_constu 1, DW_OP_minus, DW_OP_stack_value] undef
	.loc	4 693 10 is_stmt 1      @ ../Driver/i2c_eeprom.c:693:10
	mov	r0, r5
	mov	r1, r7
	bl	I2C_GetFlagStatus
	.loc	4 693 2 is_stmt 0       @ ../Driver/i2c_eeprom.c:693:2
	cmp	r0, #0
	beq	.LBB11_6
.Ltmp468:
.LBB11_8:
	@DEBUG_VALUE: I2C_EERPOM_WriteBytes16:data_address <- $r9
	.loc	4 699 8 is_stmt 1       @ ../Driver/i2c_eeprom.c:699:8
	ldrh	r0, [r5, #24]
.Ltmp469:
	@DEBUG_VALUE: I2C_EERPOM_WriteBytes16:timeout <- 12288
	.loc	4 702 10                @ ../Driver/i2c_eeprom.c:702:10
	add.w	r7, r6, #127
	mov	r0, r5
	mov	r1, r7
	bl	I2C_GetFlagStatus
	.loc	4 702 2 is_stmt 0       @ ../Driver/i2c_eeprom.c:702:2
	cbnz	r0, .LBB11_12
.Ltmp470:
@ %bb.9:
	@DEBUG_VALUE: I2C_EERPOM_WriteBytes16:data_address <- $r9
	.loc	4 0 2                   @ ../Driver/i2c_eeprom.c:0:2
	mvn	r4, #12288
.Ltmp471:
	.p2align	2
.LBB11_10:                              @ =>This Inner Loop Header: Depth=1
	@DEBUG_VALUE: I2C_EERPOM_WriteBytes16:data_address <- $r9
	@DEBUG_VALUE: I2C_EERPOM_WriteBytes16:timeout <- undef
	.loc	4 704 14 is_stmt 1      @ ../Driver/i2c_eeprom.c:704:14
	adds	r4, #1
.Ltmp472:
	.loc	4 704 6 is_stmt 0       @ ../Driver/i2c_eeprom.c:704:6
	beq	.LBB11_32
.Ltmp473:
@ %bb.11:                               @   in Loop: Header=BB11_10 Depth=1
	@DEBUG_VALUE: I2C_EERPOM_WriteBytes16:data_address <- $r9
	@DEBUG_VALUE: I2C_EERPOM_WriteBytes16:timeout <- [DW_OP_constu 1, DW_OP_minus, DW_OP_stack_value] undef
	.loc	4 702 10 is_stmt 1      @ ../Driver/i2c_eeprom.c:702:10
	mov	r0, r5
	mov	r1, r7
	bl	I2C_GetFlagStatus
	.loc	4 702 2 is_stmt 0       @ ../Driver/i2c_eeprom.c:702:2
	cmp	r0, #0
	beq	.LBB11_10
.Ltmp474:
.LBB11_12:
	@DEBUG_VALUE: I2C_EERPOM_WriteBytes16:data_address <- $r9
	.loc	4 0 2                   @ ../Driver/i2c_eeprom.c:0:2
	lsr.w	r1, r9, #8
	.loc	4 708 2 is_stmt 1       @ ../Driver/i2c_eeprom.c:708:2
	mov	r0, r5
	bl	I2C_SendData
.Ltmp475:
	@DEBUG_VALUE: I2C_EERPOM_WriteBytes16:timeout <- 12288
	.loc	4 711 10                @ ../Driver/i2c_eeprom.c:711:10
	mov	r0, r5
	mov	r1, r7
	bl	I2C_GetFlagStatus
	.loc	4 711 2 is_stmt 0       @ ../Driver/i2c_eeprom.c:711:2
	cbnz	r0, .LBB11_16
.Ltmp476:
@ %bb.13:
	@DEBUG_VALUE: I2C_EERPOM_WriteBytes16:data_address <- $r9
	.loc	4 0 2                   @ ../Driver/i2c_eeprom.c:0:2
	mvn	r4, #12288
.Ltmp477:
	.p2align	2
.LBB11_14:                              @ =>This Inner Loop Header: Depth=1
	@DEBUG_VALUE: I2C_EERPOM_WriteBytes16:data_address <- $r9
	@DEBUG_VALUE: I2C_EERPOM_WriteBytes16:timeout <- undef
	.loc	4 713 14 is_stmt 1      @ ../Driver/i2c_eeprom.c:713:14
	adds	r4, #1
.Ltmp478:
	.loc	4 713 6 is_stmt 0       @ ../Driver/i2c_eeprom.c:713:6
	beq	.LBB11_30
.Ltmp479:
@ %bb.15:                               @   in Loop: Header=BB11_14 Depth=1
	@DEBUG_VALUE: I2C_EERPOM_WriteBytes16:data_address <- $r9
	@DEBUG_VALUE: I2C_EERPOM_WriteBytes16:timeout <- [DW_OP_constu 1, DW_OP_minus, DW_OP_stack_value] undef
	.loc	4 711 10 is_stmt 1      @ ../Driver/i2c_eeprom.c:711:10
	mov	r0, r5
	mov	r1, r7
	bl	I2C_GetFlagStatus
	.loc	4 711 2 is_stmt 0       @ ../Driver/i2c_eeprom.c:711:2
	cmp	r0, #0
	beq	.LBB11_14
.Ltmp480:
.LBB11_16:
	@DEBUG_VALUE: I2C_EERPOM_WriteBytes16:data_address <- $r9
	.loc	4 717 2 is_stmt 1       @ ../Driver/i2c_eeprom.c:717:2
	uxtb.w	r1, r9
	mov	r0, r5
	bl	I2C_SendData
.Ltmp481:
	@DEBUG_VALUE: I2C_EERPOM_WriteBytes16:timeout <- 12288
	.loc	4 720 10                @ ../Driver/i2c_eeprom.c:720:10
	mov	r0, r5
	mov	r1, r7
	bl	I2C_GetFlagStatus
	.loc	4 720 2 is_stmt 0       @ ../Driver/i2c_eeprom.c:720:2
	cbnz	r0, .LBB11_20
.Ltmp482:
@ %bb.17:
	@DEBUG_VALUE: I2C_EERPOM_WriteBytes16:data_address <- $r9
	.loc	4 0 2                   @ ../Driver/i2c_eeprom.c:0:2
	mvn	r4, #12288
.Ltmp483:
	.p2align	2
.LBB11_18:                              @ =>This Inner Loop Header: Depth=1
	@DEBUG_VALUE: I2C_EERPOM_WriteBytes16:data_address <- $r9
	@DEBUG_VALUE: I2C_EERPOM_WriteBytes16:timeout <- undef
	.loc	4 722 14 is_stmt 1      @ ../Driver/i2c_eeprom.c:722:14
	adds	r4, #1
.Ltmp484:
	.loc	4 722 6 is_stmt 0       @ ../Driver/i2c_eeprom.c:722:6
	beq	.LBB11_30
.Ltmp485:
@ %bb.19:                               @   in Loop: Header=BB11_18 Depth=1
	@DEBUG_VALUE: I2C_EERPOM_WriteBytes16:data_address <- $r9
	@DEBUG_VALUE: I2C_EERPOM_WriteBytes16:timeout <- [DW_OP_constu 1, DW_OP_minus, DW_OP_stack_value] undef
	.loc	4 720 10 is_stmt 1      @ ../Driver/i2c_eeprom.c:720:10
	mov	r0, r5
	mov	r1, r7
	bl	I2C_GetFlagStatus
	.loc	4 720 2 is_stmt 0       @ ../Driver/i2c_eeprom.c:720:2
	cmp	r0, #0
	beq	.LBB11_18
.Ltmp486:
.LBB11_20:
	@DEBUG_VALUE: I2C_EERPOM_WriteBytes16:data_address <- $r9
	@DEBUG_VALUE: I2C_EERPOM_WriteBytes16:n <- 0
	.loc	4 726 2 is_stmt 1       @ ../Driver/i2c_eeprom.c:726:2
	cmp.w	r8, #0
	beq	.LBB11_27
.Ltmp487:
@ %bb.21:
	@DEBUG_VALUE: I2C_EERPOM_WriteBytes16:data_address <- $r9
	.loc	4 0 2 is_stmt 0         @ ../Driver/i2c_eeprom.c:0:2
	movw	r10, :lower16:i2c_ee_buffer
	mov.w	r9, #0
.Ltmp488:
	adds	r4, r6, #3
	movt	r10, :upper16:i2c_ee_buffer
.LBB11_22:                              @ =>This Loop Header: Depth=1
                                        @     Child Loop BB11_23 Depth 2
.Ltmp489:
	@DEBUG_VALUE: I2C_EERPOM_WriteBytes16:n <- $r9
	.loc	4 728 22 is_stmt 1      @ ../Driver/i2c_eeprom.c:728:22
	ldrb.w	r1, [r10, r9]
	.loc	4 728 3 is_stmt 0       @ ../Driver/i2c_eeprom.c:728:3
	mov	r0, r5
	bl	I2C_SendData
	mvn	r6, #12288
.Ltmp490:
	@DEBUG_VALUE: I2C_EERPOM_WriteBytes16:timeout <- 12288
	.p2align	2
.LBB11_23:                              @   Parent Loop BB11_22 Depth=1
                                        @ =>  This Inner Loop Header: Depth=2
	@DEBUG_VALUE: I2C_EERPOM_WriteBytes16:n <- $r9
	@DEBUG_VALUE: I2C_EERPOM_WriteBytes16:timeout <- undef
	.loc	4 731 12 is_stmt 1      @ ../Driver/i2c_eeprom.c:731:12
	mov	r0, r5
	mov	r1, r7
	bl	I2C_GetFlagStatus
	cbz	r0, .LBB11_25
.Ltmp491:
@ %bb.24:                               @   in Loop: Header=BB11_23 Depth=2
	@DEBUG_VALUE: I2C_EERPOM_WriteBytes16:n <- $r9
	.loc	4 731 56 is_stmt 0      @ ../Driver/i2c_eeprom.c:731:56
	mov	r0, r5
	mov	r1, r4
	bl	I2C_GetFlagStatus
	cbnz	r0, .LBB11_26
.Ltmp492:
.LBB11_25:                              @   in Loop: Header=BB11_23 Depth=2
	@DEBUG_VALUE: I2C_EERPOM_WriteBytes16:n <- $r9
	@DEBUG_VALUE: I2C_EERPOM_WriteBytes16:timeout <- [DW_OP_constu 1, DW_OP_minus, DW_OP_stack_value] undef
	.loc	4 733 15 is_stmt 1      @ ../Driver/i2c_eeprom.c:733:15
	adds	r6, #1
	bne	.LBB11_23
	b	.LBB11_28
.Ltmp493:
.LBB11_26:                              @   in Loop: Header=BB11_22 Depth=1
	@DEBUG_VALUE: I2C_EERPOM_WriteBytes16:n <- $r9
	.loc	4 726 23                @ ../Driver/i2c_eeprom.c:726:23
	add.w	r9, r9, #1
.Ltmp494:
	@DEBUG_VALUE: I2C_EERPOM_WriteBytes16:n <- [DW_OP_plus_uconst 1, DW_OP_stack_value] undef
	.loc	4 726 2 is_stmt 0       @ ../Driver/i2c_eeprom.c:726:2
	cmp	r9, r8
	blo	.LBB11_22
.Ltmp495:
.LBB11_27:
	.loc	4 738 2 is_stmt 1       @ ../Driver/i2c_eeprom.c:738:2
	mov	r0, r5
	movs	r1, #1
	bl	I2C_GenerateSTOP
	movs	r0, #0
	@DEBUG_VALUE: I2C_EERPOM_WriteBytes16:ret_data <- 0
	b	.LBB11_34
.LBB11_28:
.Ltmp496:
	@DEBUG_VALUE: I2C_EERPOM_WriteBytes16:n <- $r9
	.loc	4 734 16                @ ../Driver/i2c_eeprom.c:734:16
	mvn	r0, #4
	bl	I2C_EEPROM_timeout
	movw	r0, #65531
	b	.LBB11_34
.Ltmp497:
.LBB11_29:
	@DEBUG_VALUE: I2C_EERPOM_WriteBytes16:slave_address <- $r7
	@DEBUG_VALUE: I2C_EERPOM_WriteBytes16:data_address <- $r9
	.loc	4 0 16 is_stmt 0        @ ../Driver/i2c_eeprom.c:0:16
	mvn	r0, #4
.Ltmp498:
	.loc	4 687 15 is_stmt 1      @ ../Driver/i2c_eeprom.c:687:15
	adds	r0, #4
	b	.LBB11_33
.Ltmp499:
.LBB11_30:
	@DEBUG_VALUE: I2C_EERPOM_WriteBytes16:data_address <- $r9
	.loc	4 0 15 is_stmt 0        @ ../Driver/i2c_eeprom.c:0:15
	mvn	r0, #4
	adds	r0, #1
	b	.LBB11_33
.Ltmp500:
.LBB11_31:
	@DEBUG_VALUE: I2C_EERPOM_WriteBytes16:data_address <- $r9
	mvn	r0, #4
.Ltmp501:
	.loc	4 696 15 is_stmt 1      @ ../Driver/i2c_eeprom.c:696:15
	adds	r0, #3
	b	.LBB11_33
.Ltmp502:
.LBB11_32:
	@DEBUG_VALUE: I2C_EERPOM_WriteBytes16:data_address <- $r9
	.loc	4 0 15 is_stmt 0        @ ../Driver/i2c_eeprom.c:0:15
	mvn	r0, #4
.Ltmp503:
	.loc	4 705 15 is_stmt 1      @ ../Driver/i2c_eeprom.c:705:15
	adds	r0, #2
.Ltmp504:
.LBB11_33:
	@DEBUG_VALUE: I2C_EERPOM_WriteBytes16:data_address <- $r9
	.loc	4 0 0 is_stmt 0         @ ../Driver/i2c_eeprom.c:0:0
	bl	I2C_EEPROM_timeout
.Ltmp505:
.LBB11_34:
	.loc	4 741 1 is_stmt 1       @ ../Driver/i2c_eeprom.c:741:1
	sxth	r0, r0
	pop.w	{r4, r5, r6, r7, r8, r9, r10, pc}
.Ltmp506:
.Lfunc_end11:
	.size	I2C_EERPOM_WriteBytes16, .Lfunc_end11-I2C_EERPOM_WriteBytes16
	.cfi_endproc
	.cantunwind
	.fnend
                                        @ -- End function
	.hidden	I2C2DEV                 @ @I2C2DEV
	.type	I2C2DEV,%object
	.section	.data.I2C2DEV,"aw",%progbits
	.globl	I2C2DEV
	.p2align	2
I2C2DEV:
	.long	1073880064
	.short	16                      @ 0x10
	.zero	2
	.long	128                     @ 0x80
	.byte	4                       @ 0x4
	.zero	3
	.long	1073880064
	.short	32                      @ 0x20
	.zero	2
	.long	128                     @ 0x80
	.byte	5                       @ 0x5
	.zero	3
	.size	I2C2DEV, 32

	.type	I2C_EERPOM_Init.init_ok,%object @ @I2C_EERPOM_Init.init_ok
	.section	.bss.I2C_EERPOM_Init.init_ok,"aw",%nobits
I2C_EERPOM_Init.init_ok:
	.byte	0                       @ 0x0
	.size	I2C_EERPOM_Init.init_ok, 1

	.hidden	i2c_ee_buffer           @ @i2c_ee_buffer
	.type	i2c_ee_buffer,%object
	.section	.bss.i2c_ee_buffer,"aw",%nobits
	.globl	i2c_ee_buffer
i2c_ee_buffer:
	.zero	512
	.size	i2c_ee_buffer, 512

	.hidden	p_i2c_ee_buffer         @ @p_i2c_ee_buffer
	.type	p_i2c_ee_buffer,%object
	.section	.bss.p_i2c_ee_buffer,"aw",%nobits
	.globl	p_i2c_ee_buffer
	.p2align	2
p_i2c_ee_buffer:
	.long	0
	.size	p_i2c_ee_buffer, 4

	.file	6 "F:\\SkyDrive\\OtvoreniProjekti\\HotelSaplast\\fw\\KontrolerHotela\\HC070318\\Project" "../Libraries/STM32F4xx_StdPeriph_Driver/inc\\stm32f4xx_i2c.h"
	.section	".note.GNU-stack","",%progbits
	.eabi_attribute	30, 3	@ Tag_ABI_optimization_goals
	.ARM_attribute	16, 1	@ Tag_AV_eba