	.text
	.syntax unified
	.eabi_attribute	67, "2.09"	@ Tag_conformance
	.cpu	cortex-m4
	.eabi_attribute	6, 13	@ Tag_CPU_arch
	.eabi_attribute	7, 77	@ Tag_CPU_arch_profile
	.eabi_attribute	8, 0	@ Tag_ARM_ISA_use
	.eabi_attribute	9, 2	@ Tag_THUMB_ISA_use
	.fpu	fpv4-sp-d16
	.eabi_attribute	27, 1	@ Tag_ABI_HardFP_use
	.eabi_attribute	36, 1	@ Tag_FP_HP_extension
	.eabi_attribute	34, 1	@ Tag_CPU_unaligned_access
	.eabi_attribute	17, 1	@ Tag_ABI_PCS_GOT_use
	.eabi_attribute	20, 2	@ Tag_ABI_FP_denormal
	.eabi_attribute	21, 0	@ Tag_ABI_FP_exceptions
	.eabi_attribute	23, 1	@ Tag_ABI_FP_number_model
	.eabi_attribute	24, 1	@ Tag_ABI_align_needed
	.eabi_attribute	25, 1	@ Tag_ABI_align_preserved
	.eabi_attribute	28, 1	@ Tag_ABI_VFP_args
	.eabi_attribute	38, 1	@ Tag_ABI_FP_16bit_format
	.eabi_attribute	18, 2	@ Tag_ABI_PCS_wchar_t
	.eabi_attribute	26, 1	@ Tag_ABI_enum_size
	.eabi_attribute	14, 0	@ Tag_ABI_PCS_R9_use
	.file	"ip.c"
	.file	1 "F:\\SkyDrive\\OtvoreniProjekti\\HotelSaplast\\fw\\KontrolerHotela\\HC070318\\Project" "../Libraries/lwip-1.4.1/src/include\\lwip/netif.h"
	.file	2 "F:\\SkyDrive\\OtvoreniProjekti\\HotelSaplast\\fw\\KontrolerHotela\\HC070318\\Project" "../Libraries/lwip-1.4.1/port/arch\\cc.h"
	.file	3 "F:\\SkyDrive\\OtvoreniProjekti\\HotelSaplast\\fw\\KontrolerHotela\\HC070318\\Project" "../Libraries/lwip-1.4.1/src/include/ipv4\\lwip/ip_addr.h"
	.file	4 "F:\\SkyDrive\\OtvoreniProjekti\\HotelSaplast\\fw\\KontrolerHotela\\HC070318\\Project" "../Libraries/lwip-1.4.1/src/include\\lwip/err.h"
	.file	5 "F:\\SkyDrive\\OtvoreniProjekti\\HotelSaplast\\fw\\KontrolerHotela\\HC070318\\Project" "../Libraries/lwip-1.4.1/src/include\\lwip/pbuf.h"
	.file	6 "F:\\SkyDrive\\OtvoreniProjekti\\HotelSaplast\\fw\\KontrolerHotela\\HC070318\\Project" "../Libraries/lwip-1.4.1/src/core/ipv4/ip.c"
	.file	7 "F:\\SkyDrive\\OtvoreniProjekti\\HotelSaplast\\fw\\KontrolerHotela\\HC070318\\Project" "../Libraries/lwip-1.4.1/src/include/ipv4\\lwip/ip.h"
	.file	8 "F:\\SkyDrive\\OtvoreniProjekti\\HotelSaplast\\fw\\KontrolerHotela\\HC070318\\Project" "../Libraries/lwip-1.4.1/src/include/ipv4\\lwip/icmp.h"
	.section	.text.ip_route,"ax",%progbits
	.hidden	ip_route                @ -- Begin function ip_route
	.globl	ip_route
	.p2align	1
	.type	ip_route,%function
	.code	16                      @ @ip_route
	.thumb_func
ip_route:
.Lfunc_begin0:
	.loc	6 125 0                 @ ../Libraries/lwip-1.4.1/src/core/ipv4/ip.c:125:0
	.fnstart
	.cfi_sections .debug_frame
	.cfi_startproc
@ %bb.0:
	@DEBUG_VALUE: ip_route:dest <- $r0
	mov	r12, r0
.Ltmp0:
	@DEBUG_VALUE: ip_route:dest <- $r12
	.loc	6 0 0 prologue_end      @ ../Libraries/lwip-1.4.1/src/core/ipv4/ip.c:0:0
	movw	r0, :lower16:netif_list
	movt	r0, :upper16:netif_list
	b	.LBB0_3
.Ltmp1:
	.p2align	2
.LBB0_1:                                @   in Loop: Header=BB0_3 Depth=1
	@DEBUG_VALUE: ip_route:netif <- [DW_OP_deref] $r0
	@DEBUG_VALUE: ip_route:dest <- $r12
	.loc	6 138 9                 @ ../Libraries/lwip-1.4.1/src/core/ipv4/ip.c:138:9
	ldrb.w	r2, [r0, #45]
.Ltmp2:
	.loc	6 138 9 is_stmt 0       @ ../Libraries/lwip-1.4.1/src/core/ipv4/ip.c:138:9
	lsls	r2, r2, #31
	beq	.LBB0_3
.Ltmp3:
@ %bb.2:                                @   in Loop: Header=BB0_3 Depth=1
	@DEBUG_VALUE: ip_route:netif <- [DW_OP_deref] $r0
	@DEBUG_VALUE: ip_route:dest <- $r12
	.loc	6 139 11 is_stmt 1      @ ../Libraries/lwip-1.4.1/src/core/ipv4/ip.c:139:11
	ldr.w	r2, [r12]
	ldrd	r3, r1, [r0, #4]
	eors	r2, r3
.Ltmp4:
	.loc	6 139 11 is_stmt 0      @ ../Libraries/lwip-1.4.1/src/core/ipv4/ip.c:139:11
	tst	r2, r1
.Ltmp5:
	.loc	6 0 0                   @ ../Libraries/lwip-1.4.1/src/core/ipv4/ip.c:0:0
	it	eq
	bxeq	lr
.Ltmp6:
.LBB0_3:                                @ =>This Inner Loop Header: Depth=1
	@DEBUG_VALUE: ip_route:dest <- $r12
	@DEBUG_VALUE: ip_route:netif <- [DW_OP_deref] $r0
	ldr	r0, [r0]
.Ltmp7:
	@DEBUG_VALUE: ip_route:netif <- $r0
	.loc	6 136 3 is_stmt 1       @ ../Libraries/lwip-1.4.1/src/core/ipv4/ip.c:136:3
	cmp	r0, #0
	bne	.LBB0_1
.Ltmp8:
@ %bb.4:
	@DEBUG_VALUE: ip_route:netif <- [DW_OP_deref] $r0
	@DEBUG_VALUE: ip_route:dest <- $r12
	.loc	6 145 8                 @ ../Libraries/lwip-1.4.1/src/core/ipv4/ip.c:145:8
	movw	r0, :lower16:netif_default
.Ltmp9:
	movt	r0, :upper16:netif_default
	ldr	r0, [r0]
	.loc	6 145 31 is_stmt 0      @ ../Libraries/lwip-1.4.1/src/core/ipv4/ip.c:145:31
	cbz	r0, .LBB0_6
.Ltmp10:
@ %bb.5:
	@DEBUG_VALUE: ip_route:dest <- $r12
	.loc	6 145 36                @ ../Libraries/lwip-1.4.1/src/core/ipv4/ip.c:145:36
	ldrb.w	r1, [r0, #45]
	and	r1, r1, #1
	rsbs	r1, r1, #0
.Ltmp11:
	.loc	6 145 7                 @ ../Libraries/lwip-1.4.1/src/core/ipv4/ip.c:145:7
	ands	r0, r1
	.loc	6 0 0                   @ ../Libraries/lwip-1.4.1/src/core/ipv4/ip.c:0:0
	bx	lr
.Ltmp12:
.LBB0_6:
	@DEBUG_VALUE: ip_route:dest <- $r12
	movs	r0, #0
	bx	lr
.Ltmp13:
.Lfunc_end0:
	.size	ip_route, .Lfunc_end0-ip_route
	.cfi_endproc
	.cantunwind
	.fnend
                                        @ -- End function
	.section	.text.ip_input,"ax",%progbits
	.hidden	ip_input                @ -- Begin function ip_input
	.globl	ip_input
	.p2align	1
	.type	ip_input,%function
	.code	16                      @ @ip_input
	.thumb_func
ip_input:
.Lfunc_begin1:
	.loc	6 306 0 is_stmt 1       @ ../Libraries/lwip-1.4.1/src/core/ipv4/ip.c:306:0
	.fnstart
	.cfi_startproc
@ %bb.0:
	.save	{r4, r5, r6, r7, r8, r9, r10, r11, lr}
	push.w	{r4, r5, r6, r7, r8, r9, r10, r11, lr}
	.cfi_def_cfa_offset 36
	.cfi_offset lr, -4
	.cfi_offset r11, -8
	.cfi_offset r10, -12
	.cfi_offset r9, -16
	.cfi_offset r8, -20
	.cfi_offset r7, -24
	.cfi_offset r6, -28
	.cfi_offset r5, -32
	.cfi_offset r4, -36
	.pad	#4
	sub	sp, #4
	.cfi_def_cfa_offset 40
	@DEBUG_VALUE: ip_input:p <- $r0
	@DEBUG_VALUE: ip_input:inp <- $r1
.Ltmp14:
	.loc	6 319 31 prologue_end   @ ../Libraries/lwip-1.4.1/src/core/ipv4/ip.c:319:31
	ldr	r6, [r0, #4]
.Ltmp15:
	@DEBUG_VALUE: ip_input:iphdr <- $r6
	.loc	6 0 31 is_stmt 0        @ ../Libraries/lwip-1.4.1/src/core/ipv4/ip.c:0:31
	mov	r4, r0
.Ltmp16:
	@DEBUG_VALUE: ip_input:inp <- $r8
	@DEBUG_VALUE: ip_input:p <- $r4
	mov	r8, r1
.Ltmp17:
	.loc	6 320 7 is_stmt 1       @ ../Libraries/lwip-1.4.1/src/core/ipv4/ip.c:320:7
	ldrb	r0, [r6]
	.loc	6 320 20 is_stmt 0      @ ../Libraries/lwip-1.4.1/src/core/ipv4/ip.c:320:20
	and	r1, r0, #240
.Ltmp18:
	.loc	6 320 7                 @ ../Libraries/lwip-1.4.1/src/core/ipv4/ip.c:320:7
	cmp	r1, #64
	bne	.LBB1_13
.Ltmp19:
@ %bb.1:
	@DEBUG_VALUE: ip_input:p <- $r4
	@DEBUG_VALUE: ip_input:iphdr <- $r6
	.loc	6 0 7                   @ ../Libraries/lwip-1.4.1/src/core/ipv4/ip.c:0:7
	movs	r1, #60
	.loc	6 340 14 is_stmt 1      @ ../Libraries/lwip-1.4.1/src/core/ipv4/ip.c:340:14
	and.w	r5, r1, r0, lsl #2
.Ltmp20:
	@DEBUG_VALUE: ip_input:iphdr_hlen <- undef
	.loc	6 342 15                @ ../Libraries/lwip-1.4.1/src/core/ipv4/ip.c:342:15
	ldrh	r0, [r6, #2]
	bl	lwip_ntohs
	mov	r7, r0
.Ltmp21:
	@DEBUG_VALUE: ip_input:iphdr_len <- undef
	.loc	6 345 24                @ ../Libraries/lwip-1.4.1/src/core/ipv4/ip.c:345:24
	ldrh	r0, [r4, #10]
	.loc	6 345 29 is_stmt 0      @ ../Libraries/lwip-1.4.1/src/core/ipv4/ip.c:345:29
	cmp	r5, r0
	bhi	.LBB1_13
.Ltmp22:
@ %bb.2:
	@DEBUG_VALUE: ip_input:p <- $r4
	@DEBUG_VALUE: ip_input:iphdr <- $r6
	.loc	6 345 48                @ ../Libraries/lwip-1.4.1/src/core/ipv4/ip.c:345:48
	ldrh	r0, [r4, #8]
.Ltmp23:
	.loc	6 345 7                 @ ../Libraries/lwip-1.4.1/src/core/ipv4/ip.c:345:7
	cmp	r7, r0
	bhi	.LBB1_13
.Ltmp24:
@ %bb.3:
	@DEBUG_VALUE: ip_input:p <- $r4
	@DEBUG_VALUE: ip_input:iphdr <- $r6
	.loc	6 366 7 is_stmt 1       @ ../Libraries/lwip-1.4.1/src/core/ipv4/ip.c:366:7
	mov	r0, r6
	mov	r1, r5
	bl	inet_chksum
.Ltmp25:
	.loc	6 366 7 is_stmt 0       @ ../Libraries/lwip-1.4.1/src/core/ipv4/ip.c:366:7
	cmp	r0, #0
	bne	.LBB1_13
.Ltmp26:
@ %bb.4:
	@DEBUG_VALUE: ip_input:p <- $r4
	@DEBUG_VALUE: ip_input:iphdr <- $r6
	.loc	6 381 3 is_stmt 1       @ ../Libraries/lwip-1.4.1/src/core/ipv4/ip.c:381:3
	mov	r0, r4
	mov	r1, r7
	bl	pbuf_realloc
	.loc	6 384 3                 @ ../Libraries/lwip-1.4.1/src/core/ipv4/ip.c:384:3
	movw	r11, :lower16:current_iphdr_dest
	ldr	r0, [r6, #16]
	.loc	6 385 3                 @ ../Libraries/lwip-1.4.1/src/core/ipv4/ip.c:385:3
	movw	r9, :lower16:current_iphdr_src
	movw	r10, :lower16:netif_list
	movs	r5, #1
.Ltmp27:
	.loc	6 0 0 is_stmt 0         @ ../Libraries/lwip-1.4.1/src/core/ipv4/ip.c:0:0
	mov	r7, r8
.Ltmp28:
	.loc	6 384 3 is_stmt 1       @ ../Libraries/lwip-1.4.1/src/core/ipv4/ip.c:384:3
	movt	r11, :upper16:current_iphdr_dest
	.loc	6 385 3                 @ ../Libraries/lwip-1.4.1/src/core/ipv4/ip.c:385:3
	movt	r9, :upper16:current_iphdr_src
	movt	r10, :upper16:netif_list
.Ltmp29:
	@DEBUG_VALUE: first <- 1
	.loc	6 384 3                 @ ../Libraries/lwip-1.4.1/src/core/ipv4/ip.c:384:3
	str.w	r0, [r11]
	.loc	6 385 3                 @ ../Libraries/lwip-1.4.1/src/core/ipv4/ip.c:385:3
	ldr	r0, [r6, #12]
	str.w	r0, [r9]
.Ltmp30:
	.p2align	2
.LBB1_5:                                @ =>This Inner Loop Header: Depth=1
	@DEBUG_VALUE: ip_input:p <- $r4
	@DEBUG_VALUE: ip_input:iphdr <- $r6
	@DEBUG_VALUE: first <- $r5
	@DEBUG_VALUE: ip_input:netif <- $r7
	.loc	6 411 12                @ ../Libraries/lwip-1.4.1/src/core/ipv4/ip.c:411:12
	ldrb.w	r0, [r7, #45]
	.loc	6 411 32 is_stmt 0      @ ../Libraries/lwip-1.4.1/src/core/ipv4/ip.c:411:32
	lsls	r0, r0, #31
	beq	.LBB1_9
.Ltmp31:
@ %bb.6:                                @   in Loop: Header=BB1_5 Depth=1
	@DEBUG_VALUE: ip_input:netif <- $r7
	@DEBUG_VALUE: first <- $r5
	@DEBUG_VALUE: ip_input:p <- $r4
	@DEBUG_VALUE: ip_input:iphdr <- $r6
	.loc	6 411 37                @ ../Libraries/lwip-1.4.1/src/core/ipv4/ip.c:411:37
	ldr	r1, [r7, #4]
.Ltmp32:
	.loc	6 411 11                @ ../Libraries/lwip-1.4.1/src/core/ipv4/ip.c:411:11
	cbz	r1, .LBB1_9
.Ltmp33:
@ %bb.7:                                @   in Loop: Header=BB1_5 Depth=1
	@DEBUG_VALUE: ip_input:netif <- $r7
	@DEBUG_VALUE: first <- $r5
	@DEBUG_VALUE: ip_input:p <- $r4
	@DEBUG_VALUE: ip_input:iphdr <- $r6
	.loc	6 413 13 is_stmt 1      @ ../Libraries/lwip-1.4.1/src/core/ipv4/ip.c:413:13
	ldr.w	r0, [r11]
	.loc	6 413 65 is_stmt 0      @ ../Libraries/lwip-1.4.1/src/core/ipv4/ip.c:413:65
	cmp	r0, r1
	beq	.LBB1_10
.Ltmp34:
@ %bb.8:                                @   in Loop: Header=BB1_5 Depth=1
	@DEBUG_VALUE: ip_input:netif <- $r7
	@DEBUG_VALUE: first <- $r5
	@DEBUG_VALUE: ip_input:p <- $r4
	@DEBUG_VALUE: ip_input:iphdr <- $r6
	.loc	6 415 13 is_stmt 1      @ ../Libraries/lwip-1.4.1/src/core/ipv4/ip.c:415:13
	mov	r1, r7
	bl	ip4_addr_isbroadcast
.Ltmp35:
	.loc	6 413 13                @ ../Libraries/lwip-1.4.1/src/core/ipv4/ip.c:413:13
	cbnz	r0, .LBB1_10
.Ltmp36:
.LBB1_9:                                @   in Loop: Header=BB1_5 Depth=1
	@DEBUG_VALUE: ip_input:netif <- $r7
	@DEBUG_VALUE: first <- $r5
	@DEBUG_VALUE: ip_input:p <- $r4
	@DEBUG_VALUE: ip_input:iphdr <- $r6
	.loc	6 433 11                @ ../Libraries/lwip-1.4.1/src/core/ipv4/ip.c:433:11
	cmp	r5, #0
	it	ne
	movne	r7, r10
.Ltmp37:
	.loc	6 0 11 is_stmt 0        @ ../Libraries/lwip-1.4.1/src/core/ipv4/ip.c:0:11
	movs	r5, #0
.Ltmp38:
	ldr	r7, [r7]
.Ltmp39:
	@DEBUG_VALUE: ip_input:netif <- $r7
	@DEBUG_VALUE: first <- 0
	.loc	6 439 11 is_stmt 1      @ ../Libraries/lwip-1.4.1/src/core/ipv4/ip.c:439:11
	cmp	r7, r8
.Ltmp40:
	.loc	6 440 24                @ ../Libraries/lwip-1.4.1/src/core/ipv4/ip.c:440:24
	it	eq
	ldreq.w	r7, [r8]
.Ltmp41:
	@DEBUG_VALUE: ip_input:netif <- $r7
	.loc	6 442 5                 @ ../Libraries/lwip-1.4.1/src/core/ipv4/ip.c:442:5
	cmp	r7, #0
	bne	.LBB1_5
	b	.LBB1_11
.Ltmp42:
.LBB1_10:
	@DEBUG_VALUE: ip_input:netif <- $r7
	@DEBUG_VALUE: first <- $r5
	@DEBUG_VALUE: ip_input:p <- $r4
	@DEBUG_VALUE: ip_input:iphdr <- $r6
	.loc	6 0 0 is_stmt 0         @ ../Libraries/lwip-1.4.1/src/core/ipv4/ip.c:0:0
	mov	r5, r7
.Ltmp43:
	@DEBUG_VALUE: ip_input:netif <- $r5
.LBB1_11:
	@DEBUG_VALUE: ip_input:p <- $r4
	@DEBUG_VALUE: ip_input:iphdr <- $r6
	@DEBUG_VALUE: ip_input:netif <- $r5
	.loc	6 475 11 is_stmt 1      @ ../Libraries/lwip-1.4.1/src/core/ipv4/ip.c:475:11
	ldr.w	r0, [r9]
	mov	r1, r8
	bl	ip4_addr_isbroadcast
	.loc	6 475 57 is_stmt 0      @ ../Libraries/lwip-1.4.1/src/core/ipv4/ip.c:475:57
	cbnz	r0, .LBB1_13
.Ltmp44:
@ %bb.12:
	@DEBUG_VALUE: ip_input:netif <- $r5
	@DEBUG_VALUE: ip_input:p <- $r4
	@DEBUG_VALUE: ip_input:iphdr <- $r6
	.loc	6 476 11 is_stmt 1      @ ../Libraries/lwip-1.4.1/src/core/ipv4/ip.c:476:11
	ldr.w	r0, [r9]
	and	r0, r0, #240
.Ltmp45:
	.loc	6 475 10                @ ../Libraries/lwip-1.4.1/src/core/ipv4/ip.c:475:10
	cmp	r0, #224
.Ltmp46:
	.loc	6 489 7                 @ ../Libraries/lwip-1.4.1/src/core/ipv4/ip.c:489:7
	it	ne
	cmpne	r5, #0
	bne	.LBB1_15
.Ltmp47:
.LBB1_13:
	@DEBUG_VALUE: ip_input:p <- $r4
	@DEBUG_VALUE: ip_input:iphdr <- $r6
	.loc	6 0 0 is_stmt 0         @ ../Libraries/lwip-1.4.1/src/core/ipv4/ip.c:0:0
	mov	r0, r4
	bl	pbuf_free
.Ltmp48:
.LBB1_14:
	@DEBUG_VALUE: ip_input:p <- $r4
	@DEBUG_VALUE: ip_input:iphdr <- $r6
	.loc	6 613 1 is_stmt 1       @ ../Libraries/lwip-1.4.1/src/core/ipv4/ip.c:613:1
	movs	r0, #0
	add	sp, #4
	pop.w	{r4, r5, r6, r7, r8, r9, r10, r11, pc}
.Ltmp49:
.LBB1_15:
	@DEBUG_VALUE: ip_input:netif <- $r5
	@DEBUG_VALUE: ip_input:p <- $r4
	@DEBUG_VALUE: ip_input:iphdr <- $r6
	.loc	6 507 8                 @ ../Libraries/lwip-1.4.1/src/core/ipv4/ip.c:507:8
	ldrh	r0, [r6, #6]
	mvn	r1, #192
.Ltmp50:
	.loc	6 507 7 is_stmt 0       @ ../Libraries/lwip-1.4.1/src/core/ipv4/ip.c:507:7
	tst	r0, r1
	beq	.LBB1_18
.Ltmp51:
@ %bb.16:
	@DEBUG_VALUE: ip_input:netif <- $r5
	@DEBUG_VALUE: ip_input:p <- $r4
	@DEBUG_VALUE: ip_input:iphdr <- $r6
	.loc	6 512 9 is_stmt 1       @ ../Libraries/lwip-1.4.1/src/core/ipv4/ip.c:512:9
	mov	r0, r4
	bl	ip_reass
	.loc	6 514 9                 @ ../Libraries/lwip-1.4.1/src/core/ipv4/ip.c:514:9
	cmp	r0, #0
	beq	.LBB1_14
.Ltmp52:
@ %bb.17:
	@DEBUG_VALUE: ip_input:netif <- $r5
	@DEBUG_VALUE: ip_input:p <- $r4
	@DEBUG_VALUE: ip_input:iphdr <- $r6
	.loc	6 517 33                @ ../Libraries/lwip-1.4.1/src/core/ipv4/ip.c:517:33
	ldr	r6, [r0, #4]
.Ltmp53:
	@DEBUG_VALUE: ip_input:iphdr <- $r6
	.loc	6 0 0 is_stmt 0         @ ../Libraries/lwip-1.4.1/src/core/ipv4/ip.c:0:0
	mov	r4, r0
.Ltmp54:
	@DEBUG_VALUE: ip_input:p <- $r4
.LBB1_18:
	@DEBUG_VALUE: ip_input:netif <- $r5
	@DEBUG_VALUE: ip_input:p <- $r4
	@DEBUG_VALUE: ip_input:iphdr <- $r6
	@DEBUG_VALUE: ip_input:p <- $r4
	@DEBUG_VALUE: ip_input:iphdr <- $r6
	.loc	6 554 18 is_stmt 1      @ ../Libraries/lwip-1.4.1/src/core/ipv4/ip.c:554:18
	movw	r10, :lower16:current_header
	.loc	6 553 17                @ ../Libraries/lwip-1.4.1/src/core/ipv4/ip.c:553:17
	movw	r7, :lower16:current_netif
.Ltmp55:
	.loc	6 558 7                 @ ../Libraries/lwip-1.4.1/src/core/ipv4/ip.c:558:7
	mov	r0, r4
	mov	r1, r8
.Ltmp56:
	.loc	6 554 18                @ ../Libraries/lwip-1.4.1/src/core/ipv4/ip.c:554:18
	movt	r10, :upper16:current_header
	.loc	6 553 17                @ ../Libraries/lwip-1.4.1/src/core/ipv4/ip.c:553:17
	movt	r7, :upper16:current_netif
	.loc	6 554 18                @ ../Libraries/lwip-1.4.1/src/core/ipv4/ip.c:554:18
	str.w	r6, [r10]
	.loc	6 553 17                @ ../Libraries/lwip-1.4.1/src/core/ipv4/ip.c:553:17
	str.w	r8, [r7]
.Ltmp57:
	.loc	6 558 7                 @ ../Libraries/lwip-1.4.1/src/core/ipv4/ip.c:558:7
	bl	raw_input
.Ltmp58:
	.loc	6 558 7 is_stmt 0       @ ../Libraries/lwip-1.4.1/src/core/ipv4/ip.c:558:7
	cbz	r0, .LBB1_20
.Ltmp59:
.LBB1_19:
	@DEBUG_VALUE: ip_input:netif <- $r5
	@DEBUG_VALUE: ip_input:p <- $r4
	@DEBUG_VALUE: ip_input:iphdr <- $r6
	.loc	6 0 7                   @ ../Libraries/lwip-1.4.1/src/core/ipv4/ip.c:0:7
	movs	r0, #0
	.loc	6 608 18 is_stmt 1      @ ../Libraries/lwip-1.4.1/src/core/ipv4/ip.c:608:18
	str.w	r0, [r10]
	.loc	6 607 17                @ ../Libraries/lwip-1.4.1/src/core/ipv4/ip.c:607:17
	str	r0, [r7]
	.loc	6 609 3                 @ ../Libraries/lwip-1.4.1/src/core/ipv4/ip.c:609:3
	str.w	r0, [r9]
	.loc	6 610 3                 @ ../Libraries/lwip-1.4.1/src/core/ipv4/ip.c:610:3
	str.w	r0, [r11]
	b	.LBB1_14
.Ltmp60:
.LBB1_20:
	@DEBUG_VALUE: ip_input:netif <- $r5
	@DEBUG_VALUE: ip_input:p <- $r4
	@DEBUG_VALUE: ip_input:iphdr <- $r6
	.loc	6 561 13                @ ../Libraries/lwip-1.4.1/src/core/ipv4/ip.c:561:13
	ldrb	r0, [r6, #9]
	.loc	6 561 5 is_stmt 0       @ ../Libraries/lwip-1.4.1/src/core/ipv4/ip.c:561:5
	cmp	r0, #1
	beq	.LBB1_24
.Ltmp61:
@ %bb.21:
	@DEBUG_VALUE: ip_input:netif <- $r5
	@DEBUG_VALUE: ip_input:p <- $r4
	@DEBUG_VALUE: ip_input:iphdr <- $r6
	cmp	r0, #6
	beq	.LBB1_25
.Ltmp62:
@ %bb.22:
	@DEBUG_VALUE: ip_input:netif <- $r5
	@DEBUG_VALUE: ip_input:p <- $r4
	@DEBUG_VALUE: ip_input:iphdr <- $r6
	cmp	r0, #17
	bne	.LBB1_26
.Ltmp63:
@ %bb.23:
	@DEBUG_VALUE: ip_input:netif <- $r5
	@DEBUG_VALUE: ip_input:p <- $r4
	@DEBUG_VALUE: ip_input:iphdr <- $r6
	.loc	6 568 7 is_stmt 1       @ ../Libraries/lwip-1.4.1/src/core/ipv4/ip.c:568:7
	mov	r0, r4
	mov	r1, r8
	bl	udp_input
	b	.LBB1_19
.Ltmp64:
.LBB1_24:
	@DEBUG_VALUE: ip_input:netif <- $r5
	@DEBUG_VALUE: ip_input:p <- $r4
	@DEBUG_VALUE: ip_input:iphdr <- $r6
	.loc	6 580 7                 @ ../Libraries/lwip-1.4.1/src/core/ipv4/ip.c:580:7
	mov	r0, r4
	mov	r1, r8
	bl	icmp_input
	b	.LBB1_19
.Ltmp65:
.LBB1_25:
	@DEBUG_VALUE: ip_input:netif <- $r5
	@DEBUG_VALUE: ip_input:p <- $r4
	@DEBUG_VALUE: ip_input:iphdr <- $r6
	.loc	6 574 7                 @ ../Libraries/lwip-1.4.1/src/core/ipv4/ip.c:574:7
	mov	r0, r4
	mov	r1, r8
	bl	tcp_input
	b	.LBB1_19
.Ltmp66:
.LBB1_26:
	@DEBUG_VALUE: ip_input:netif <- $r5
	@DEBUG_VALUE: ip_input:p <- $r4
	@DEBUG_VALUE: ip_input:iphdr <- $r6
	.loc	6 591 12                @ ../Libraries/lwip-1.4.1/src/core/ipv4/ip.c:591:12
	ldr.w	r0, [r11]
	mov	r1, r8
	bl	ip4_addr_isbroadcast
	.loc	6 591 58 is_stmt 0      @ ../Libraries/lwip-1.4.1/src/core/ipv4/ip.c:591:58
	cbnz	r0, .LBB1_29
.Ltmp67:
@ %bb.27:
	@DEBUG_VALUE: ip_input:netif <- $r5
	@DEBUG_VALUE: ip_input:p <- $r4
	@DEBUG_VALUE: ip_input:iphdr <- $r6
	.loc	6 592 12 is_stmt 1      @ ../Libraries/lwip-1.4.1/src/core/ipv4/ip.c:592:12
	ldr.w	r0, [r11]
	and	r0, r0, #240
.Ltmp68:
	.loc	6 591 11                @ ../Libraries/lwip-1.4.1/src/core/ipv4/ip.c:591:11
	cmp	r0, #224
	beq	.LBB1_29
.Ltmp69:
@ %bb.28:
	@DEBUG_VALUE: ip_input:netif <- $r5
	@DEBUG_VALUE: ip_input:p <- $r4
	@DEBUG_VALUE: ip_input:iphdr <- $r6
	.loc	6 594 9                 @ ../Libraries/lwip-1.4.1/src/core/ipv4/ip.c:594:9
	mov	r0, r4
	movs	r1, #2
	.loc	6 593 20                @ ../Libraries/lwip-1.4.1/src/core/ipv4/ip.c:593:20
	str	r6, [r4, #4]
	.loc	6 594 9                 @ ../Libraries/lwip-1.4.1/src/core/ipv4/ip.c:594:9
	bl	icmp_dest_unreach
.Ltmp70:
.LBB1_29:
	@DEBUG_VALUE: ip_input:netif <- $r5
	@DEBUG_VALUE: ip_input:p <- $r4
	@DEBUG_VALUE: ip_input:iphdr <- $r6
	.loc	6 597 7                 @ ../Libraries/lwip-1.4.1/src/core/ipv4/ip.c:597:7
	mov	r0, r4
	bl	pbuf_free
	b	.LBB1_19
.Ltmp71:
.Lfunc_end1:
	.size	ip_input, .Lfunc_end1-ip_input
	.cfi_endproc
	.cantunwind
	.fnend
                                        @ -- End function
	.section	.text.ip_output_if,"ax",%progbits
	.hidden	ip_output_if            @ -- Begin function ip_output_if
	.globl	ip_output_if
	.p2align	1
	.type	ip_output_if,%function
	.code	16                      @ @ip_output_if
	.thumb_func
ip_output_if:
.Lfunc_begin2:
	.loc	6 644 0                 @ ../Libraries/lwip-1.4.1/src/core/ipv4/ip.c:644:0
	.fnstart
	.cfi_startproc
@ %bb.0:
	.save	{r4, r5, r6, r7, r8, r9, r10, r11, lr}
	push.w	{r4, r5, r6, r7, r8, r9, r10, r11, lr}
	.cfi_def_cfa_offset 36
	.cfi_offset lr, -4
	.cfi_offset r11, -8
	.cfi_offset r10, -12
	.cfi_offset r9, -16
	.cfi_offset r8, -20
	.cfi_offset r7, -24
	.cfi_offset r6, -28
	.cfi_offset r5, -32
	.cfi_offset r4, -36
	.pad	#12
	sub	sp, #12
	.cfi_def_cfa_offset 48
	@DEBUG_VALUE: ip_output_if:p <- $r0
	@DEBUG_VALUE: ip_output_if:src <- $r1
	@DEBUG_VALUE: ip_output_if:dest <- $r2
	@DEBUG_VALUE: ip_output_if:ttl <- $r3
	ldr	r6, [sp, #56]
.Ltmp72:
	@DEBUG_VALUE: ip_output_if:chk_sum <- 0
	@DEBUG_VALUE: ip_output_if:netif <- [DW_OP_plus_uconst 56] [$sp+0]
	@DEBUG_VALUE: ip_output_if:p <- $r5
	mov	r5, r0
.Ltmp73:
	.loc	6 673 7 prologue_end    @ ../Libraries/lwip-1.4.1/src/core/ipv4/ip.c:673:7
	cbz	r2, .LBB2_3
.Ltmp74:
@ %bb.1:
	@DEBUG_VALUE: ip_output_if:netif <- [DW_OP_plus_uconst 56] [$sp+0]
	@DEBUG_VALUE: ip_output_if:ttl <- $r3
	@DEBUG_VALUE: ip_output_if:dest <- $r2
	@DEBUG_VALUE: ip_output_if:src <- $r1
	.loc	6 0 7 is_stmt 0         @ ../Libraries/lwip-1.4.1/src/core/ipv4/ip.c:0:7
	mov	r10, r1
.Ltmp75:
	@DEBUG_VALUE: ip_output_if:src <- $r10
	@DEBUG_VALUE: ip_output_if:src <- $r10
	@DEBUG_VALUE: ip_hlen <- 20
	.loc	6 704 9 is_stmt 1       @ ../Libraries/lwip-1.4.1/src/core/ipv4/ip.c:704:9
	mov	r0, r5
	movs	r1, #20
	mov	r9, r3
.Ltmp76:
	@DEBUG_VALUE: ip_output_if:ttl <- $r9
	@DEBUG_VALUE: ip_output_if:ttl <- $r9
	.loc	6 0 9 is_stmt 0         @ ../Libraries/lwip-1.4.1/src/core/ipv4/ip.c:0:9
	mov	r4, r2
.Ltmp77:
	@DEBUG_VALUE: ip_output_if:dest <- $r4
	@DEBUG_VALUE: ip_output_if:dest <- $r4
	.loc	6 704 9                 @ ../Libraries/lwip-1.4.1/src/core/ipv4/ip.c:704:9
	bl	pbuf_header
.Ltmp78:
	.loc	6 704 9                 @ ../Libraries/lwip-1.4.1/src/core/ipv4/ip.c:704:9
	cbz	r0, .LBB2_4
.Ltmp79:
@ %bb.2:
	@DEBUG_VALUE: ip_output_if:dest <- $r4
	@DEBUG_VALUE: ip_output_if:ttl <- $r9
	@DEBUG_VALUE: ip_output_if:src <- $r10
	@DEBUG_VALUE: ip_output_if:netif <- [DW_OP_plus_uconst 56] [$sp+0]
	.loc	6 0 9                   @ ../Libraries/lwip-1.4.1/src/core/ipv4/ip.c:0:9
	movs	r0, #254
	b	.LBB2_12
.Ltmp80:
.LBB2_3:
	@DEBUG_VALUE: ip_output_if:netif <- [DW_OP_plus_uconst 56] [$sp+0]
	@DEBUG_VALUE: ip_output_if:ttl <- $r3
	@DEBUG_VALUE: ip_output_if:dest <- $r2
	@DEBUG_VALUE: ip_output_if:src <- $r1
	.loc	6 767 33 is_stmt 1      @ ../Libraries/lwip-1.4.1/src/core/ipv4/ip.c:767:33
	ldr	r0, [r5, #4]
.Ltmp81:
	@DEBUG_VALUE: ip_output_if:iphdr <- $r0
	.loc	6 0 33 is_stmt 0        @ ../Libraries/lwip-1.4.1/src/core/ipv4/ip.c:0:33
	add	r4, sp, #8
.Ltmp82:
	@DEBUG_VALUE: ip_output_if:dest <- [DW_OP_plus_uconst 8] $sp
	.loc	6 768 5 is_stmt 1       @ ../Libraries/lwip-1.4.1/src/core/ipv4/ip.c:768:5
	ldr	r0, [r0, #16]
.Ltmp83:
	str	r0, [sp, #8]
	b	.LBB2_8
.Ltmp84:
.LBB2_4:
	@DEBUG_VALUE: ip_output_if:dest <- $r4
	@DEBUG_VALUE: ip_output_if:ttl <- $r9
	@DEBUG_VALUE: ip_output_if:src <- $r10
	@DEBUG_VALUE: ip_output_if:netif <- [DW_OP_plus_uconst 56] [$sp+0]
	@DEBUG_VALUE: ip_output_if:proto <- $r1
	.loc	6 0 5 is_stmt 0         @ ../Libraries/lwip-1.4.1/src/core/ipv4/ip.c:0:5
	ldrd	r0, r1, [sp, #48]
.Ltmp85:
	@DEBUG_VALUE: ip_output_if:tos <- $r0
	.loc	6 712 33 is_stmt 1      @ ../Libraries/lwip-1.4.1/src/core/ipv4/ip.c:712:33
	ldr	r7, [r5, #4]
.Ltmp86:
	@DEBUG_VALUE: ip_output_if:iphdr <- $r7
	.loc	6 717 5                 @ ../Libraries/lwip-1.4.1/src/core/ipv4/ip.c:717:5
	strb	r1, [r7, #9]
.Ltmp87:
	@DEBUG_VALUE: ip_output_if:proto <- undef
	.loc	6 716 5                 @ ../Libraries/lwip-1.4.1/src/core/ipv4/ip.c:716:5
	strb.w	r9, [r7, #8]
	.loc	6 723 5                 @ ../Libraries/lwip-1.4.1/src/core/ipv4/ip.c:723:5
	ldr.w	r11, [r4]
	.loc	6 730 5                 @ ../Libraries/lwip-1.4.1/src/core/ipv4/ip.c:730:5
	strb	r0, [r7, #1]
.Ltmp88:
	@DEBUG_VALUE: ip_output_if:tos <- undef
	.loc	6 0 5 is_stmt 0         @ ../Libraries/lwip-1.4.1/src/core/ipv4/ip.c:0:5
	movs	r0, #69
.Ltmp89:
	@DEBUG_VALUE: ip_output_if:chk_sum <- undef
	.loc	6 729 5 is_stmt 1       @ ../Libraries/lwip-1.4.1/src/core/ipv4/ip.c:729:5
	strb	r0, [r7]
	.loc	6 723 5                 @ ../Libraries/lwip-1.4.1/src/core/ipv4/ip.c:723:5
	str.w	r11, [r7, #16]
	@DEBUG_VALUE: ip_output_if:chk_sum <- undef
	.loc	6 734 5                 @ ../Libraries/lwip-1.4.1/src/core/ipv4/ip.c:734:5
	ldrh	r0, [r5, #8]
	bl	lwip_htons
	.loc	6 739 5                 @ ../Libraries/lwip-1.4.1/src/core/ipv4/ip.c:739:5
	movw	r8, :lower16:ip_id
	movs	r1, #0
	@DEBUG_VALUE: ip_output_if:chk_sum <- undef
	str	r0, [sp, #4]            @ 4-byte Spill
	.loc	6 738 5                 @ ../Libraries/lwip-1.4.1/src/core/ipv4/ip.c:738:5
	strh	r1, [r7, #6]
	.loc	6 734 5                 @ ../Libraries/lwip-1.4.1/src/core/ipv4/ip.c:734:5
	strh	r0, [r7, #2]
	.loc	6 739 5                 @ ../Libraries/lwip-1.4.1/src/core/ipv4/ip.c:739:5
	movt	r8, :upper16:ip_id
	ldrh.w	r0, [r8]
	bl	lwip_htons
	strh	r0, [r7, #4]
	@DEBUG_VALUE: ip_output_if:chk_sum <- undef
	.loc	6 726 47                @ ../Libraries/lwip-1.4.1/src/core/ipv4/ip.c:726:47
	lsr.w	lr, r11, #16
	.loc	6 725 47                @ ../Libraries/lwip-1.4.1/src/core/ipv4/ip.c:725:47
	uxth.w	r2, r11
.Ltmp90:
	.loc	6 745 9                 @ ../Libraries/lwip-1.4.1/src/core/ipv4/ip.c:745:9
	cmp.w	r10, #0
.Ltmp91:
	.loc	6 743 5                 @ ../Libraries/lwip-1.4.1/src/core/ipv4/ip.c:743:5
	ldrh.w	r1, [r8]
	add.w	r1, r1, #1
	strh.w	r1, [r8]
	.loc	6 719 16                @ ../Libraries/lwip-1.4.1/src/core/ipv4/ip.c:719:16
	ldr	r1, [sp, #52]
	orr.w	r12, r9, r1, lsl #8
.Ltmp92:
	@DEBUG_VALUE: ip_output_if:chk_sum <- $r12
	.loc	6 732 16                @ ../Libraries/lwip-1.4.1/src/core/ipv4/ip.c:732:16
	ldr	r1, [sp, #48]
	lsl.w	r1, r1, #8
	add.w	r3, r1, #69
.Ltmp93:
	@DEBUG_VALUE: ip_output_if:chk_sum <- undef
	.loc	6 745 9                 @ ../Libraries/lwip-1.4.1/src/core/ipv4/ip.c:745:9
	beq	.LBB2_6
.Ltmp94:
@ %bb.5:
	@DEBUG_VALUE: ip_output_if:iphdr <- $r7
	@DEBUG_VALUE: ip_output_if:dest <- $r4
	@DEBUG_VALUE: ip_output_if:ttl <- $r9
	@DEBUG_VALUE: ip_output_if:src <- $r10
	@DEBUG_VALUE: ip_output_if:netif <- [DW_OP_plus_uconst 56] [$sp+0]
	ldr.w	r1, [r10]
.Ltmp95:
	.loc	6 745 9 is_stmt 0       @ ../Libraries/lwip-1.4.1/src/core/ipv4/ip.c:745:9
	cmp	r1, #0
.Ltmp96:
	.loc	6 746 7 is_stmt 1       @ ../Libraries/lwip-1.4.1/src/core/ipv4/ip.c:746:7
	it	eq
	ldreq	r1, [r6, #4]
	b	.LBB2_7
.Ltmp97:
.LBB2_6:
	@DEBUG_VALUE: ip_output_if:iphdr <- $r7
	@DEBUG_VALUE: ip_output_if:dest <- $r4
	@DEBUG_VALUE: ip_output_if:ttl <- $r9
	@DEBUG_VALUE: ip_output_if:src <- $r10
	@DEBUG_VALUE: ip_output_if:netif <- [DW_OP_plus_uconst 56] [$sp+0]
	ldr	r1, [r6, #4]
.Ltmp98:
.LBB2_7:
	@DEBUG_VALUE: ip_output_if:iphdr <- $r7
	@DEBUG_VALUE: ip_output_if:dest <- $r4
	@DEBUG_VALUE: ip_output_if:ttl <- $r9
	@DEBUG_VALUE: ip_output_if:src <- $r10
	@DEBUG_VALUE: ip_output_if:netif <- [DW_OP_plus_uconst 56] [$sp+0]
	.loc	6 725 13                @ ../Libraries/lwip-1.4.1/src/core/ipv4/ip.c:725:13
	add	r3, r12
.Ltmp99:
	.loc	6 0 0 is_stmt 0         @ ../Libraries/lwip-1.4.1/src/core/ipv4/ip.c:0:0
	str	r1, [r7, #12]
.Ltmp100:
	@DEBUG_VALUE: ip_output_if:chk_sum <- undef
	.loc	6 726 13 is_stmt 1      @ ../Libraries/lwip-1.4.1/src/core/ipv4/ip.c:726:13
	add	r3, r2
	.loc	6 732 13                @ ../Libraries/lwip-1.4.1/src/core/ipv4/ip.c:732:13
	add.w	r2, r3, lr
	.loc	6 736 13                @ ../Libraries/lwip-1.4.1/src/core/ipv4/ip.c:736:13
	ldr	r3, [sp, #4]            @ 4-byte Reload
	add	r2, r3
	.loc	6 741 13                @ ../Libraries/lwip-1.4.1/src/core/ipv4/ip.c:741:13
	add	r0, r2
	.loc	6 753 13                @ ../Libraries/lwip-1.4.1/src/core/ipv4/ip.c:753:13
	uxtah	r0, r0, r1
	.loc	6 754 13                @ ../Libraries/lwip-1.4.1/src/core/ipv4/ip.c:754:13
	add.w	r0, r0, r1, lsr #16
.Ltmp101:
	@DEBUG_VALUE: ip_output_if:chk_sum <- $r0
	.loc	6 755 24                @ ../Libraries/lwip-1.4.1/src/core/ipv4/ip.c:755:24
	lsrs	r1, r0, #16
	.loc	6 755 31 is_stmt 0      @ ../Libraries/lwip-1.4.1/src/core/ipv4/ip.c:755:31
	uxtah	r0, r1, r0
.Ltmp102:
	@DEBUG_VALUE: ip_output_if:chk_sum <- $r0
	.loc	6 756 31 is_stmt 1      @ ../Libraries/lwip-1.4.1/src/core/ipv4/ip.c:756:31
	add.w	r0, r0, r0, lsr #16
.Ltmp103:
	@DEBUG_VALUE: ip_output_if:chk_sum <- [DW_OP_constu 65535, DW_OP_xor, DW_OP_stack_value] $r0
	@DEBUG_VALUE: ip_output_if:chk_sum <- $r0
	.loc	6 758 22                @ ../Libraries/lwip-1.4.1/src/core/ipv4/ip.c:758:22
	mvns	r0, r0
.Ltmp104:
	.loc	6 758 20 is_stmt 0      @ ../Libraries/lwip-1.4.1/src/core/ipv4/ip.c:758:20
	strh	r0, [r7, #10]
.Ltmp105:
.LBB2_8:
	@DEBUG_VALUE: ip_output_if:netif <- [DW_OP_plus_uconst 56] [$sp+0]
	@DEBUG_VALUE: ip_output_if:dest <- $r4
	.loc	6 791 14 is_stmt 1      @ ../Libraries/lwip-1.4.1/src/core/ipv4/ip.c:791:14
	ldrh	r0, [r6, #36]
	.loc	6 791 18 is_stmt 0      @ ../Libraries/lwip-1.4.1/src/core/ipv4/ip.c:791:18
	cbz	r0, .LBB2_11
.Ltmp106:
@ %bb.9:
	@DEBUG_VALUE: ip_output_if:dest <- $r4
	@DEBUG_VALUE: ip_output_if:netif <- [DW_OP_plus_uconst 56] [$sp+0]
	.loc	6 791 25                @ ../Libraries/lwip-1.4.1/src/core/ipv4/ip.c:791:25
	ldrh	r1, [r5, #8]
.Ltmp107:
	.loc	6 791 7                 @ ../Libraries/lwip-1.4.1/src/core/ipv4/ip.c:791:7
	cmp	r1, r0
	bls	.LBB2_11
.Ltmp108:
@ %bb.10:
	@DEBUG_VALUE: ip_output_if:dest <- $r4
	@DEBUG_VALUE: ip_output_if:netif <- [DW_OP_plus_uconst 56] [$sp+0]
	.loc	6 792 12 is_stmt 1      @ ../Libraries/lwip-1.4.1/src/core/ipv4/ip.c:792:12
	mov	r0, r5
	mov	r1, r6
	mov	r2, r4
	bl	ip_frag
	b	.LBB2_12
.Ltmp109:
.LBB2_11:
	@DEBUG_VALUE: ip_output_if:dest <- $r4
	@DEBUG_VALUE: ip_output_if:netif <- [DW_OP_plus_uconst 56] [$sp+0]
	.loc	6 797 17                @ ../Libraries/lwip-1.4.1/src/core/ipv4/ip.c:797:17
	ldr	r3, [r6, #20]
	.loc	6 797 10 is_stmt 0      @ ../Libraries/lwip-1.4.1/src/core/ipv4/ip.c:797:10
	mov	r0, r6
	mov	r1, r5
	mov	r2, r4
	blx	r3
.Ltmp110:
.LBB2_12:
	@DEBUG_VALUE: ip_output_if:dest <- $r4
	@DEBUG_VALUE: ip_output_if:netif <- [DW_OP_plus_uconst 56] [$sp+0]
	.loc	6 798 1 is_stmt 1       @ ../Libraries/lwip-1.4.1/src/core/ipv4/ip.c:798:1
	sxtb	r0, r0
	add	sp, #12
.Ltmp111:
	pop.w	{r4, r5, r6, r7, r8, r9, r10, r11, pc}
.Ltmp112:
.Lfunc_end2:
	.size	ip_output_if, .Lfunc_end2-ip_output_if
	.cfi_endproc
	.cantunwind
	.fnend
                                        @ -- End function
	.section	.text.ip_output,"ax",%progbits
	.hidden	ip_output               @ -- Begin function ip_output
	.globl	ip_output
	.p2align	1
	.type	ip_output,%function
	.code	16                      @ @ip_output
	.thumb_func
ip_output:
.Lfunc_begin3:
	.loc	6 820 0                 @ ../Libraries/lwip-1.4.1/src/core/ipv4/ip.c:820:0
	.fnstart
	.cfi_startproc
@ %bb.0:
	.save	{r4, r5, r6, r7, lr}
	push	{r4, r5, r6, r7, lr}
	.cfi_def_cfa_offset 20
	.cfi_offset lr, -4
	.cfi_offset r7, -8
	.cfi_offset r6, -12
	.cfi_offset r5, -16
	.cfi_offset r4, -20
	.pad	#12
	sub	sp, #12
	.cfi_def_cfa_offset 32
	@DEBUG_VALUE: ip_output:p <- $r0
	@DEBUG_VALUE: ip_output:src <- $r1
	@DEBUG_VALUE: ip_output:dest <- $r2
	@DEBUG_VALUE: ip_output:ttl <- $r3
	mov	r7, r0
.Ltmp113:
	@DEBUG_VALUE: ip_output:ttl <- $r4
	@DEBUG_VALUE: ip_output:dest <- $r5
	@DEBUG_VALUE: ip_output:src <- $r6
	@DEBUG_VALUE: ip_output:p <- $r7
	.loc	6 827 16 prologue_end   @ ../Libraries/lwip-1.4.1/src/core/ipv4/ip.c:827:16
	mov	r0, r2
	mov	r4, r3
.Ltmp114:
	.loc	6 0 16 is_stmt 0        @ ../Libraries/lwip-1.4.1/src/core/ipv4/ip.c:0:16
	mov	r5, r2
.Ltmp115:
	mov	r6, r1
.Ltmp116:
	.loc	6 827 16                @ ../Libraries/lwip-1.4.1/src/core/ipv4/ip.c:827:16
	bl	ip_route
.Ltmp117:
	@DEBUG_VALUE: ip_output:netif <- $r0
	.loc	6 827 7                 @ ../Libraries/lwip-1.4.1/src/core/ipv4/ip.c:827:7
	cbz	r0, .LBB3_2
.Ltmp118:
@ %bb.1:
	@DEBUG_VALUE: ip_output:netif <- $r0
	@DEBUG_VALUE: ip_output:p <- $r7
	@DEBUG_VALUE: ip_output:ttl <- $r4
	@DEBUG_VALUE: ip_output:proto <- $r1
	.loc	6 0 7                   @ ../Libraries/lwip-1.4.1/src/core/ipv4/ip.c:0:7
	ldrd	r2, r1, [sp, #32]
.Ltmp119:
	@DEBUG_VALUE: ip_output:tos <- $r2
	.loc	6 834 10 is_stmt 1      @ ../Libraries/lwip-1.4.1/src/core/ipv4/ip.c:834:10
	mov	r3, r4
	strd	r2, r1, [sp]
	str	r0, [sp, #8]
	mov	r0, r7
.Ltmp120:
	mov	r1, r6
	mov	r2, r5
.Ltmp121:
	bl	ip_output_if
	.loc	6 835 1                 @ ../Libraries/lwip-1.4.1/src/core/ipv4/ip.c:835:1
	add	sp, #12
	pop	{r4, r5, r6, r7, pc}
.Ltmp122:
.LBB3_2:
	@DEBUG_VALUE: ip_output:netif <- $r0
	@DEBUG_VALUE: ip_output:p <- $r7
	mvn	r0, #3
.Ltmp123:
	add	sp, #12
	pop	{r4, r5, r6, r7, pc}
.Ltmp124:
.Lfunc_end3:
	.size	ip_output, .Lfunc_end3-ip_output
	.cfi_endproc
	.cantunwind
	.fnend
                                        @ -- End function
	.hidden	current_iphdr_dest      @ @current_iphdr_dest
	.type	current_iphdr_dest,%object
	.section	.bss.current_iphdr_dest,"aw",%nobits
	.globl	current_iphdr_dest
	.p2align	2
current_iphdr_dest:
	.zero	4
	.size	current_iphdr_dest, 4

	.hidden	current_iphdr_src       @ @current_iphdr_src
	.type	current_iphdr_src,%object
	.section	.bss.current_iphdr_src,"aw",%nobits
	.globl	current_iphdr_src
	.p2align	2
current_iphdr_src:
	.zero	4
	.size	current_iphdr_src, 4

	.hidden	current_netif           @ @current_netif
	.type	current_netif,%object
	.section	.bss.current_netif,"aw",%nobits
	.globl	current_netif
	.p2align	2
current_netif:
	.long	0
	.size	current_netif, 4

	.hidden	current_header          @ @current_header
	.type	current_header,%object
	.section	.bss.current_header,"aw",%nobits
	.globl	current_header
	.p2align	2
current_header:
	.long	0
	.size	current_header, 4

	.type	ip_id,%object           @ @ip_id
	.section	.bss.ip_id,"aw",%nobits
	.p2align	1
ip_id:
	.short	0                       @ 0x0
	.size	ip_id, 2

	.section	".note.GNU-stack","",%progbits
	.eabi_attribute	30, 3	@ Tag_ABI_optimization_goals
	.ARM_attribute	16, 1	@ Tag_AV_eba