	.text
	.syntax unified
	.eabi_attribute	67, "2.09"	@ Tag_conformance
	.cpu	cortex-m4
	.eabi_attribute	6, 13	@ Tag_CPU_arch
	.eabi_attribute	7, 77	@ Tag_CPU_arch_profile
	.eabi_attribute	8, 0	@ Tag_ARM_ISA_use
	.eabi_attribute	9, 2	@ Tag_THUMB_ISA_use
	.fpu	fpv4-sp-d16
	.eabi_attribute	27, 1	@ Tag_ABI_HardFP_use
	.eabi_attribute	36, 1	@ Tag_FP_HP_extension
	.eabi_attribute	34, 1	@ Tag_CPU_unaligned_access
	.eabi_attribute	17, 1	@ Tag_ABI_PCS_GOT_use
	.eabi_attribute	20, 2	@ Tag_ABI_FP_denormal
	.eabi_attribute	21, 0	@ Tag_ABI_FP_exceptions
	.eabi_attribute	23, 1	@ Tag_ABI_FP_number_model
	.eabi_attribute	24, 1	@ Tag_ABI_align_needed
	.eabi_attribute	25, 1	@ Tag_ABI_align_preserved
	.eabi_attribute	28, 1	@ Tag_ABI_VFP_args
	.eabi_attribute	38, 1	@ Tag_ABI_FP_16bit_format
	.eabi_attribute	18, 2	@ Tag_ABI_PCS_wchar_t
	.eabi_attribute	26, 1	@ Tag_ABI_enum_size
	.eabi_attribute	14, 0	@ Tag_ABI_PCS_R9_use
	.file	"ip_addr.c"
	.file	1 "F:\\SkyDrive\\OtvoreniProjekti\\HotelSaplast\\fw\\KontrolerHotela\\HC070318\\Project" "../Libraries/lwip-1.4.1/port/arch\\cc.h"
	.file	2 "F:\\SkyDrive\\OtvoreniProjekti\\HotelSaplast\\fw\\KontrolerHotela\\HC070318\\Project" "../Libraries/lwip-1.4.1/src/include/ipv4\\lwip/ip_addr.h"
	.file	3 "F:\\SkyDrive\\OtvoreniProjekti\\HotelSaplast\\fw\\KontrolerHotela\\HC070318\\Project" "../Libraries/lwip-1.4.1/src/core/ipv4/ip_addr.c"
	.section	.text.ip4_addr_isbroadcast,"ax",%progbits
	.hidden	ip4_addr_isbroadcast    @ -- Begin function ip4_addr_isbroadcast
	.globl	ip4_addr_isbroadcast
	.p2align	1
	.type	ip4_addr_isbroadcast,%function
	.code	16                      @ @ip4_addr_isbroadcast
	.thumb_func
ip4_addr_isbroadcast:
.Lfunc_begin0:
	.loc	3 56 0                  @ ../Libraries/lwip-1.4.1/src/core/ipv4/ip_addr.c:56:0
	.fnstart
	.cfi_sections .debug_frame
	.cfi_startproc
@ %bb.0:
	@DEBUG_VALUE: ip4_addr_isbroadcast:addr <- $r0
	@DEBUG_VALUE: ip4_addr_isbroadcast:addr <- $r0
	@DEBUG_VALUE: ip4_addr_isbroadcast:netif <- $r1
	@DEBUG_VALUE: ip4_addr_isbroadcast:netif <- $r1
	@DEBUG_VALUE: ip4_addr_isbroadcast:ipaddr <- $r0
	@DEBUG_VALUE: ip4_addr_isbroadcast:ipaddr <- $r0
	.loc	3 61 29 prologue_end    @ ../Libraries/lwip-1.4.1/src/core/ipv4/ip_addr.c:61:29
	adds	r2, r0, #1
	cmp	r2, #2
	bhs	.LBB0_2
.Ltmp0:
.LBB0_1:
	.loc	3 0 29 is_stmt 0        @ ../Libraries/lwip-1.4.1/src/core/ipv4/ip_addr.c:0:29
	movs	r0, #1
	.loc	3 82 1 is_stmt 1        @ ../Libraries/lwip-1.4.1/src/core/ipv4/ip_addr.c:82:1
	bx	lr
.LBB0_2:
.Ltmp1:
	@DEBUG_VALUE: ip4_addr_isbroadcast:ipaddr <- $r0
	@DEBUG_VALUE: ip4_addr_isbroadcast:netif <- $r1
	@DEBUG_VALUE: ip4_addr_isbroadcast:addr <- $r0
	.loc	3 65 22                 @ ../Libraries/lwip-1.4.1/src/core/ipv4/ip_addr.c:65:22
	ldrb.w	r2, [r1, #45]
.Ltmp2:
	.loc	3 65 14 is_stmt 0       @ ../Libraries/lwip-1.4.1/src/core/ipv4/ip_addr.c:65:14
	lsls	r2, r2, #30
	bpl	.LBB0_6
.Ltmp3:
@ %bb.3:
	@DEBUG_VALUE: ip4_addr_isbroadcast:ipaddr <- $r0
	@DEBUG_VALUE: ip4_addr_isbroadcast:netif <- $r1
	@DEBUG_VALUE: ip4_addr_isbroadcast:addr <- $r0
	.loc	3 70 22 is_stmt 1       @ ../Libraries/lwip-1.4.1/src/core/ipv4/ip_addr.c:70:22
	ldr	r2, [r1, #4]
.Ltmp4:
	.loc	3 70 14 is_stmt 0       @ ../Libraries/lwip-1.4.1/src/core/ipv4/ip_addr.c:70:14
	cmp	r2, r0
	beq	.LBB0_6
.Ltmp5:
@ %bb.4:
	@DEBUG_VALUE: ip4_addr_isbroadcast:ipaddr <- $r0
	@DEBUG_VALUE: ip4_addr_isbroadcast:netif <- $r1
	@DEBUG_VALUE: ip4_addr_isbroadcast:addr <- $r0
	.loc	3 73 14 is_stmt 1       @ ../Libraries/lwip-1.4.1/src/core/ipv4/ip_addr.c:73:14
	ldr	r1, [r1, #8]
.Ltmp6:
	eors	r2, r0
	.loc	3 75 11                 @ ../Libraries/lwip-1.4.1/src/core/ipv4/ip_addr.c:75:11
	tst	r1, r2
	bne	.LBB0_6
.Ltmp7:
@ %bb.5:
	@DEBUG_VALUE: ip4_addr_isbroadcast:ipaddr <- $r0
	@DEBUG_VALUE: ip4_addr_isbroadcast:addr <- $r0
	.loc	3 75 21 is_stmt 0       @ ../Libraries/lwip-1.4.1/src/core/ipv4/ip_addr.c:75:21
	bics	r0, r1
.Ltmp8:
	.loc	3 75 23                 @ ../Libraries/lwip-1.4.1/src/core/ipv4/ip_addr.c:75:23
	mvns	r1, r1
.Ltmp9:
	.loc	3 73 14 is_stmt 1       @ ../Libraries/lwip-1.4.1/src/core/ipv4/ip_addr.c:73:14
	cmp	r0, r1
	beq	.LBB0_1
.Ltmp10:
.LBB0_6:
	.loc	3 0 14 is_stmt 0        @ ../Libraries/lwip-1.4.1/src/core/ipv4/ip_addr.c:0:14
	movs	r0, #0
	.loc	3 82 1 is_stmt 1        @ ../Libraries/lwip-1.4.1/src/core/ipv4/ip_addr.c:82:1
	bx	lr
.Ltmp11:
.Lfunc_end0:
	.size	ip4_addr_isbroadcast, .Lfunc_end0-ip4_addr_isbroadcast
	.cfi_endproc
	.cantunwind
	.fnend
                                        @ -- End function
	.section	.text.ip4_addr_netmask_valid,"ax",%progbits
	.hidden	ip4_addr_netmask_valid  @ -- Begin function ip4_addr_netmask_valid
	.globl	ip4_addr_netmask_valid
	.p2align	1
	.type	ip4_addr_netmask_valid,%function
	.code	16                      @ @ip4_addr_netmask_valid
	.thumb_func
ip4_addr_netmask_valid:
.Lfunc_begin1:
	.loc	3 91 0                  @ ../Libraries/lwip-1.4.1/src/core/ipv4/ip_addr.c:91:0
	.fnstart
	.cfi_startproc
@ %bb.0:
	.save	{r7, lr}
	push	{r7, lr}
	.cfi_def_cfa_offset 8
	.cfi_offset lr, -4
	.cfi_offset r7, -8
	@DEBUG_VALUE: ip4_addr_netmask_valid:netmask <- $r0
	@DEBUG_VALUE: ip4_addr_netmask_valid:netmask <- $r0
	@DEBUG_VALUE: ip4_addr_netmask_valid:netmask <- $r0
.Ltmp12:
	.loc	3 93 24 prologue_end    @ ../Libraries/lwip-1.4.1/src/core/ipv4/ip_addr.c:93:24
	bl	lwip_htonl
.Ltmp13:
	@DEBUG_VALUE: ip4_addr_netmask_valid:nm_hostorder <- $r0
	.loc	3 0 24 is_stmt 0        @ ../Libraries/lwip-1.4.1/src/core/ipv4/ip_addr.c:0:24
	mov.w	r2, #-2147483648
.Ltmp14:
	@DEBUG_VALUE: ip4_addr_netmask_valid:mask <- -2147483648
	.p2align	2
.LBB1_1:                                @ =>This Inner Loop Header: Depth=1
	@DEBUG_VALUE: ip4_addr_netmask_valid:nm_hostorder <- $r0
	mov	r1, r2
.Ltmp15:
	@DEBUG_VALUE: ip4_addr_netmask_valid:mask <- $r1
	.loc	3 96 43 is_stmt 1       @ ../Libraries/lwip-1.4.1/src/core/ipv4/ip_addr.c:96:43
	lsrs	r2, r2, #1
.Ltmp16:
	@DEBUG_VALUE: ip4_addr_netmask_valid:mask <- $r2
	.loc	3 96 3 is_stmt 0        @ ../Libraries/lwip-1.4.1/src/core/ipv4/ip_addr.c:96:3
	tst	r1, r0
	bne	.LBB1_1
.Ltmp17:
@ %bb.2:
	@DEBUG_VALUE: ip4_addr_netmask_valid:mask <- $r2
	@DEBUG_VALUE: ip4_addr_netmask_valid:nm_hostorder <- $r0
	.loc	3 102 3 is_stmt 1       @ ../Libraries/lwip-1.4.1/src/core/ipv4/ip_addr.c:102:3
	cbz	r1, .LBB1_5
.Ltmp18:
	.p2align	2
.LBB1_3:                                @ =>This Inner Loop Header: Depth=1
	@DEBUG_VALUE: ip4_addr_netmask_valid:mask <- $r2
	@DEBUG_VALUE: ip4_addr_netmask_valid:nm_hostorder <- $r0
	@DEBUG_VALUE: ip4_addr_netmask_valid:mask <- $r1
	.loc	3 103 9                 @ ../Libraries/lwip-1.4.1/src/core/ipv4/ip_addr.c:103:9
	tst	r1, r0
	itt	ne
	movne	r0, #0
.Ltmp19:
	.loc	3 110 1                 @ ../Libraries/lwip-1.4.1/src/core/ipv4/ip_addr.c:110:1
	popne	{r7, pc}
.Ltmp20:
.LBB1_4:                                @   in Loop: Header=BB1_3 Depth=1
	@DEBUG_VALUE: ip4_addr_netmask_valid:mask <- $r1
	.loc	3 0 1 is_stmt 0         @ ../Libraries/lwip-1.4.1/src/core/ipv4/ip_addr.c:0:1
	lsrs	r1, r1, #1
.Ltmp21:
	@DEBUG_VALUE: ip4_addr_netmask_valid:mask <- $r1
	.loc	3 102 3 is_stmt 1       @ ../Libraries/lwip-1.4.1/src/core/ipv4/ip_addr.c:102:3
	bne	.LBB1_3
.Ltmp22:
.LBB1_5:
	.loc	3 0 3 is_stmt 0         @ ../Libraries/lwip-1.4.1/src/core/ipv4/ip_addr.c:0:3
	movs	r0, #1
	.loc	3 110 1 is_stmt 1       @ ../Libraries/lwip-1.4.1/src/core/ipv4/ip_addr.c:110:1
	pop	{r7, pc}
.Ltmp23:
.Lfunc_end1:
	.size	ip4_addr_netmask_valid, .Lfunc_end1-ip4_addr_netmask_valid
	.cfi_endproc
	.cantunwind
	.fnend
                                        @ -- End function
	.section	.text.ipaddr_addr,"ax",%progbits
	.hidden	ipaddr_addr             @ -- Begin function ipaddr_addr
	.globl	ipaddr_addr
	.p2align	1
	.type	ipaddr_addr,%function
	.code	16                      @ @ipaddr_addr
	.thumb_func
ipaddr_addr:
.Lfunc_begin2:
	.loc	3 131 0                 @ ../Libraries/lwip-1.4.1/src/core/ipv4/ip_addr.c:131:0
	.fnstart
	.cfi_startproc
@ %bb.0:
	.save	{r7, lr}
	push	{r7, lr}
	.cfi_def_cfa_offset 8
	.cfi_offset lr, -4
	.cfi_offset r7, -8
	.pad	#8
	sub	sp, #8
	.cfi_def_cfa_offset 16
	@DEBUG_VALUE: ipaddr_addr:cp <- $r0
	@DEBUG_VALUE: ipaddr_addr:cp <- $r0
.Ltmp24:
	@DEBUG_VALUE: ipaddr_addr:val <- [DW_OP_plus_uconst 4, DW_OP_deref] $sp
	add	r1, sp, #4
	@DEBUG_VALUE: ipaddr_addr:cp <- $r0
.Ltmp25:
	.loc	3 134 7 prologue_end    @ ../Libraries/lwip-1.4.1/src/core/ipv4/ip_addr.c:134:7
	bl	ipaddr_aton
.Ltmp26:
	.loc	3 134 7 is_stmt 0       @ ../Libraries/lwip-1.4.1/src/core/ipv4/ip_addr.c:134:7
	ldr	r1, [sp, #4]
	cmp	r0, #0
	it	eq
	moveq.w	r1, #-1
	.loc	3 138 1 is_stmt 1       @ ../Libraries/lwip-1.4.1/src/core/ipv4/ip_addr.c:138:1
	mov	r0, r1
	add	sp, #8
.Ltmp27:
	pop	{r7, pc}
.Ltmp28:
.Lfunc_end2:
	.size	ipaddr_addr, .Lfunc_end2-ipaddr_addr
	.cfi_endproc
	.cantunwind
	.fnend
                                        @ -- End function
	.section	.text.ipaddr_aton,"ax",%progbits
	.hidden	ipaddr_aton             @ -- Begin function ipaddr_aton
	.globl	ipaddr_aton
	.p2align	2
	.type	ipaddr_aton,%function
	.code	16                      @ @ipaddr_aton
	.thumb_func
ipaddr_aton:
.Lfunc_begin3:
	.loc	3 153 0                 @ ../Libraries/lwip-1.4.1/src/core/ipv4/ip_addr.c:153:0
	.fnstart
	.cfi_startproc
@ %bb.0:
	.save	{r4, r5, r6, r7, r8, lr}
	push.w	{r4, r5, r6, r7, r8, lr}
	.cfi_def_cfa_offset 24
	.cfi_offset lr, -4
	.cfi_offset r8, -8
	.cfi_offset r7, -12
	.cfi_offset r6, -16
	.cfi_offset r5, -20
	.cfi_offset r4, -24
	.pad	#16
	sub	sp, #16
	.cfi_def_cfa_offset 40
	@DEBUG_VALUE: ipaddr_aton:cp <- $r0
	@DEBUG_VALUE: ipaddr_aton:addr <- $r1
.Ltmp29:
	@DEBUG_VALUE: ipaddr_aton:c <- [DW_OP_deref] $r0
	.loc	3 0 0 prologue_end      @ ../Libraries/lwip-1.4.1/src/core/ipv4/ip_addr.c:0:0
	ldrb	r5, [r0]
	mov	r8, r1
	mov	r1, r0
.Ltmp30:
	@DEBUG_VALUE: ipaddr_aton:pp <- $sp
	@DEBUG_VALUE: ipaddr_aton:c <- [DW_OP_deref] $r1
	@DEBUG_VALUE: ipaddr_aton:addr <- $r8
	@DEBUG_VALUE: ipaddr_aton:cp <- $r1
	.loc	3 167 10                @ ../Libraries/lwip-1.4.1/src/core/ipv4/ip_addr.c:167:10
	sub.w	r0, r5, #48
.Ltmp31:
	@DEBUG_VALUE: ipaddr_aton:c <- undef
	cmp	r0, #9
	bhi	.LBB3_20
.Ltmp32:
@ %bb.1:
	@DEBUG_VALUE: ipaddr_aton:cp <- $r1
	@DEBUG_VALUE: ipaddr_aton:addr <- $r8
	@DEBUG_VALUE: ipaddr_aton:pp <- $sp
	.loc	3 0 10 is_stmt 0        @ ../Libraries/lwip-1.4.1/src/core/ipv4/ip_addr.c:0:10
	mov	r2, sp
	add.w	r4, r2, #12
	mov	r3, r2
.Ltmp33:
.LBB3_2:                                @ =>This Loop Header: Depth=1
                                        @     Child Loop BB3_11 Depth 2
	@DEBUG_VALUE: ipaddr_aton:cp <- $r1
	@DEBUG_VALUE: ipaddr_aton:addr <- $r8
	@DEBUG_VALUE: ipaddr_aton:pp <- $sp
	@DEBUG_VALUE: ipaddr_aton:cp <- $r1
	@DEBUG_VALUE: ipaddr_aton:pp <- $r3
	@DEBUG_VALUE: ipaddr_aton:val <- 0
	@DEBUG_VALUE: ipaddr_aton:base <- 10
	.loc	3 171 9 is_stmt 1       @ ../Libraries/lwip-1.4.1/src/core/ipv4/ip_addr.c:171:9
	cmp	r5, #48
	bne	.LBB3_5
.Ltmp34:
@ %bb.3:                                @   in Loop: Header=BB3_2 Depth=1
	@DEBUG_VALUE: ipaddr_aton:pp <- $r3
	@DEBUG_VALUE: ipaddr_aton:cp <- $r1
	@DEBUG_VALUE: ipaddr_aton:addr <- $r8
	@DEBUG_VALUE: ipaddr_aton:cp <- undef
	.loc	3 172 11                @ ../Libraries/lwip-1.4.1/src/core/ipv4/ip_addr.c:172:11
	mov	r0, r1
	ldrb	r5, [r0, #1]!
.Ltmp35:
	.loc	3 173 20                @ ../Libraries/lwip-1.4.1/src/core/ipv4/ip_addr.c:173:20
	orr	r6, r5, #32
	@DEBUG_VALUE: ipaddr_aton:c <- undef
	cmp	r6, #120
	bne	.LBB3_6
.Ltmp36:
@ %bb.4:                                @   in Loop: Header=BB3_2 Depth=1
	@DEBUG_VALUE: ipaddr_aton:pp <- $r3
	@DEBUG_VALUE: ipaddr_aton:addr <- $r8
	@DEBUG_VALUE: ipaddr_aton:cp <- $r1
	@DEBUG_VALUE: ipaddr_aton:base <- 16
	.loc	3 175 13                @ ../Libraries/lwip-1.4.1/src/core/ipv4/ip_addr.c:175:13
	ldrb	r5, [r1, #2]!
.Ltmp37:
	.loc	3 0 13 is_stmt 0        @ ../Libraries/lwip-1.4.1/src/core/ipv4/ip_addr.c:0:13
	movs	r6, #16
	@DEBUG_VALUE: ipaddr_aton:c <- undef
	b	.LBB3_7
.Ltmp38:
	.p2align	2
.LBB3_5:                                @   in Loop: Header=BB3_2 Depth=1
	@DEBUG_VALUE: ipaddr_aton:pp <- $r3
	@DEBUG_VALUE: ipaddr_aton:cp <- $r1
	@DEBUG_VALUE: ipaddr_aton:addr <- $r8
	movs	r6, #10
	b	.LBB3_7
.Ltmp39:
.LBB3_6:                                @   in Loop: Header=BB3_2 Depth=1
	@DEBUG_VALUE: ipaddr_aton:pp <- $r3
	@DEBUG_VALUE: ipaddr_aton:addr <- $r8
	movs	r6, #8
	mov	r1, r0
.Ltmp40:
	.p2align	2
.LBB3_7:                                @   in Loop: Header=BB3_2 Depth=1
	@DEBUG_VALUE: ipaddr_aton:pp <- $r3
	@DEBUG_VALUE: ipaddr_aton:addr <- $r8
	@DEBUG_VALUE: ipaddr_aton:cp <- $r1
	@DEBUG_VALUE: ipaddr_aton:c <- $r5
	.loc	3 179 5 is_stmt 1       @ ../Libraries/lwip-1.4.1/src/core/ipv4/ip_addr.c:179:5
	adds	r1, #1
.Ltmp41:
	.loc	3 0 5 is_stmt 0         @ ../Libraries/lwip-1.4.1/src/core/ipv4/ip_addr.c:0:5
	movs	r0, #0
	b	.LBB3_11
.Ltmp42:
	.p2align	2
.LBB3_8:                                @   in Loop: Header=BB3_11 Depth=2
	@DEBUG_VALUE: ipaddr_aton:val <- $r0
	@DEBUG_VALUE: ipaddr_aton:c <- $r5
	@DEBUG_VALUE: ipaddr_aton:pp <- $r3
	@DEBUG_VALUE: ipaddr_aton:addr <- $r8
	.loc	3 183 18 is_stmt 1      @ ../Libraries/lwip-1.4.1/src/core/ipv4/ip_addr.c:183:18
	cmp	r5, #70
	bhi	.LBB3_20
.Ltmp43:
.LBB3_9:                                @   in Loop: Header=BB3_11 Depth=2
	@DEBUG_VALUE: ipaddr_aton:val <- $r0
	@DEBUG_VALUE: ipaddr_aton:c <- $r5
	@DEBUG_VALUE: ipaddr_aton:pp <- $r3
	@DEBUG_VALUE: ipaddr_aton:addr <- $r8
	.loc	3 184 44                @ ../Libraries/lwip-1.4.1/src/core/ipv4/ip_addr.c:184:44
	sub.w	r7, r5, #97
	cmp	r7, #26
	mvn	r7, #64
	it	lo
	mvnlo	r7, #96
	.loc	3 184 36 is_stmt 0      @ ../Libraries/lwip-1.4.1/src/core/ipv4/ip_addr.c:184:36
	add	r7, r5
	.loc	3 184 41                @ ../Libraries/lwip-1.4.1/src/core/ipv4/ip_addr.c:184:41
	adds	r7, #10
	.loc	3 184 26                @ ../Libraries/lwip-1.4.1/src/core/ipv4/ip_addr.c:184:26
	orr.w	r0, r7, r0, lsl #4
.Ltmp44:
	@DEBUG_VALUE: ipaddr_aton:c <- [DW_OP_plus_uconst 1, DW_OP_deref, DW_OP_stack_value] undef
	@DEBUG_VALUE: ipaddr_aton:cp <- [DW_OP_plus_uconst 1, DW_OP_stack_value] undef
	@DEBUG_VALUE: ipaddr_aton:val <- $r0
.LBB3_10:                               @   in Loop: Header=BB3_11 Depth=2
	@DEBUG_VALUE: ipaddr_aton:val <- $r0
	@DEBUG_VALUE: ipaddr_aton:pp <- $r3
	@DEBUG_VALUE: ipaddr_aton:addr <- $r8
	@DEBUG_VALUE: ipaddr_aton:val <- $r0
	.loc	3 0 0                   @ ../Libraries/lwip-1.4.1/src/core/ipv4/ip_addr.c:0:0
	ldrb	r5, [r1], #1
	@DEBUG_VALUE: ipaddr_aton:cp <- [DW_OP_plus_uconst 1, DW_OP_stack_value] undef
.Ltmp45:
	@DEBUG_VALUE: ipaddr_aton:c <- undef
.LBB3_11:                               @   Parent Loop BB3_2 Depth=1
                                        @ =>  This Inner Loop Header: Depth=2
	@DEBUG_VALUE: ipaddr_aton:c <- $r5
	@DEBUG_VALUE: ipaddr_aton:pp <- $r3
	@DEBUG_VALUE: ipaddr_aton:addr <- $r8
	@DEBUG_VALUE: ipaddr_aton:cp <- undef
	@DEBUG_VALUE: ipaddr_aton:c <- $r5
	@DEBUG_VALUE: ipaddr_aton:val <- $r0
	.loc	3 180 11 is_stmt 1      @ ../Libraries/lwip-1.4.1/src/core/ipv4/ip_addr.c:180:11
	sub.w	r7, r5, #48
	cmp	r7, #9
	bhi	.LBB3_13
.Ltmp46:
@ %bb.12:                               @   in Loop: Header=BB3_11 Depth=2
	@DEBUG_VALUE: ipaddr_aton:val <- $r0
	@DEBUG_VALUE: ipaddr_aton:c <- $r5
	@DEBUG_VALUE: ipaddr_aton:pp <- $r3
	@DEBUG_VALUE: ipaddr_aton:addr <- $r8
	.loc	3 181 38                @ ../Libraries/lwip-1.4.1/src/core/ipv4/ip_addr.c:181:38
	mla	r0, r0, r6, r5
.Ltmp47:
	.loc	3 181 28 is_stmt 0      @ ../Libraries/lwip-1.4.1/src/core/ipv4/ip_addr.c:181:28
	subs	r0, #48
.Ltmp48:
	@DEBUG_VALUE: ipaddr_aton:c <- [DW_OP_plus_uconst 1, DW_OP_deref, DW_OP_stack_value] undef
	@DEBUG_VALUE: ipaddr_aton:cp <- [DW_OP_plus_uconst 1, DW_OP_stack_value] undef
	@DEBUG_VALUE: ipaddr_aton:val <- $r0
	.loc	3 0 28                  @ ../Libraries/lwip-1.4.1/src/core/ipv4/ip_addr.c:0:28
	b	.LBB3_10
.Ltmp49:
	.p2align	2
.LBB3_13:                               @   in Loop: Header=BB3_11 Depth=2
	@DEBUG_VALUE: ipaddr_aton:val <- $r0
	@DEBUG_VALUE: ipaddr_aton:c <- $r5
	@DEBUG_VALUE: ipaddr_aton:pp <- $r3
	@DEBUG_VALUE: ipaddr_aton:addr <- $r8
	.loc	3 183 29 is_stmt 1      @ ../Libraries/lwip-1.4.1/src/core/ipv4/ip_addr.c:183:29
	cmp	r6, #16
	bne	.LBB3_17
.Ltmp50:
@ %bb.14:                               @   in Loop: Header=BB3_11 Depth=2
	@DEBUG_VALUE: ipaddr_aton:val <- $r0
	@DEBUG_VALUE: ipaddr_aton:c <- $r5
	@DEBUG_VALUE: ipaddr_aton:pp <- $r3
	@DEBUG_VALUE: ipaddr_aton:addr <- $r8
	.loc	3 183 32 is_stmt 0      @ ../Libraries/lwip-1.4.1/src/core/ipv4/ip_addr.c:183:32
	cmp	r5, #97
	blo	.LBB3_16
.Ltmp51:
@ %bb.15:                               @   in Loop: Header=BB3_11 Depth=2
	@DEBUG_VALUE: ipaddr_aton:val <- $r0
	@DEBUG_VALUE: ipaddr_aton:c <- $r5
	@DEBUG_VALUE: ipaddr_aton:pp <- $r3
	@DEBUG_VALUE: ipaddr_aton:addr <- $r8
	cmp	r5, #103
	blo	.LBB3_9
	b	.LBB3_20
.Ltmp52:
	.p2align	2
.LBB3_16:                               @   in Loop: Header=BB3_11 Depth=2
	@DEBUG_VALUE: ipaddr_aton:val <- $r0
	@DEBUG_VALUE: ipaddr_aton:c <- $r5
	@DEBUG_VALUE: ipaddr_aton:pp <- $r3
	@DEBUG_VALUE: ipaddr_aton:addr <- $r8
	cmp	r5, #65
	bhs	.LBB3_8
.Ltmp53:
.LBB3_17:                               @   in Loop: Header=BB3_2 Depth=1
	@DEBUG_VALUE: ipaddr_aton:val <- $r0
	@DEBUG_VALUE: ipaddr_aton:c <- $r5
	@DEBUG_VALUE: ipaddr_aton:pp <- $r3
	@DEBUG_VALUE: ipaddr_aton:addr <- $r8
	@DEBUG_VALUE: ipaddr_aton:cp <- undef
	.loc	3 189 9 is_stmt 1       @ ../Libraries/lwip-1.4.1/src/core/ipv4/ip_addr.c:189:9
	cmp	r5, #46
	bne	.LBB3_22
.Ltmp54:
@ %bb.18:                               @   in Loop: Header=BB3_2 Depth=1
	@DEBUG_VALUE: ipaddr_aton:val <- $r0
	@DEBUG_VALUE: ipaddr_aton:c <- $r5
	@DEBUG_VALUE: ipaddr_aton:pp <- $r3
	@DEBUG_VALUE: ipaddr_aton:addr <- $r8
	.loc	3 196 11                @ ../Libraries/lwip-1.4.1/src/core/ipv4/ip_addr.c:196:11
	cmp	r3, r4
	bhs	.LBB3_20
.Ltmp55:
@ %bb.19:                               @   in Loop: Header=BB3_2 Depth=1
	@DEBUG_VALUE: ipaddr_aton:val <- $r0
	@DEBUG_VALUE: ipaddr_aton:c <- $r5
	@DEBUG_VALUE: ipaddr_aton:pp <- $r3
	@DEBUG_VALUE: ipaddr_aton:addr <- $r8
	@DEBUG_VALUE: ipaddr_aton:pp <- $r3
	.loc	3 199 13                @ ../Libraries/lwip-1.4.1/src/core/ipv4/ip_addr.c:199:13
	str	r0, [r3], #4
.Ltmp56:
	.loc	3 0 0 is_stmt 0         @ ../Libraries/lwip-1.4.1/src/core/ipv4/ip_addr.c:0:0
	ldrb	r5, [r1]
.Ltmp57:
	.loc	3 167 10 is_stmt 1      @ ../Libraries/lwip-1.4.1/src/core/ipv4/ip_addr.c:167:10
	sub.w	r0, r5, #48
.Ltmp58:
	@DEBUG_VALUE: ipaddr_aton:c <- undef
	cmp	r0, #10
	blo	.LBB3_2
.Ltmp59:
.LBB3_20:
	@DEBUG_VALUE: ipaddr_aton:addr <- $r8
	.loc	3 0 10 is_stmt 0        @ ../Libraries/lwip-1.4.1/src/core/ipv4/ip_addr.c:0:10
	movs	r1, #0
.Ltmp60:
.LBB3_21:
	@DEBUG_VALUE: ipaddr_aton:addr <- $r8
	.loc	3 250 1 is_stmt 1       @ ../Libraries/lwip-1.4.1/src/core/ipv4/ip_addr.c:250:1
	mov	r0, r1
	add	sp, #16
	pop.w	{r4, r5, r6, r7, r8, pc}
.Ltmp61:
.LBB3_22:
	@DEBUG_VALUE: ipaddr_aton:val <- $r0
	@DEBUG_VALUE: ipaddr_aton:c <- $r5
	@DEBUG_VALUE: ipaddr_aton:pp <- $r3
	@DEBUG_VALUE: ipaddr_aton:addr <- $r8
	.loc	3 0 1 is_stmt 0         @ ../Libraries/lwip-1.4.1/src/core/ipv4/ip_addr.c:0:1
	sub.w	r1, r5, #9
	cmp	r1, #23
	bhi	.LBB3_30
.Ltmp62:
@ %bb.23:
	@DEBUG_VALUE: ipaddr_aton:val <- $r0
	@DEBUG_VALUE: ipaddr_aton:c <- $r5
	@DEBUG_VALUE: ipaddr_aton:pp <- $r3
	@DEBUG_VALUE: ipaddr_aton:addr <- $r8
	movs	r7, #1
	lsl.w	r1, r7, r1
	movs	r7, #31
	movt	r7, #128
	tst	r1, r7
	beq	.LBB3_30
.Ltmp63:
.LBB3_24:
	@DEBUG_VALUE: ipaddr_aton:val <- $r0
	@DEBUG_VALUE: ipaddr_aton:c <- $r5
	@DEBUG_VALUE: ipaddr_aton:pp <- $r3
	@DEBUG_VALUE: ipaddr_aton:addr <- $r8
	.loc	3 214 14 is_stmt 1      @ ../Libraries/lwip-1.4.1/src/core/ipv4/ip_addr.c:214:14
	subs	r1, r3, r2
	movs	r2, #1
	.loc	3 214 3 is_stmt 0       @ ../Libraries/lwip-1.4.1/src/core/ipv4/ip_addr.c:214:3
	add.w	r2, r2, r1, asr #2
	cmp	r2, #4
	bhi	.LBB3_35
.Ltmp64:
@ %bb.25:
	@DEBUG_VALUE: ipaddr_aton:val <- $r0
	@DEBUG_VALUE: ipaddr_aton:c <- $r5
	@DEBUG_VALUE: ipaddr_aton:pp <- $r3
	@DEBUG_VALUE: ipaddr_aton:addr <- $r8
	.loc	3 0 3                   @ ../Libraries/lwip-1.4.1/src/core/ipv4/ip_addr.c:0:3
	movs	r1, #0
.LCPI3_0:
	tbb	[pc, r2]
.Ltmp65:
@ %bb.26:
.LJTI3_0:
	.byte	(.LBB3_27-(.LCPI3_0+4))/2
	.byte	(.LBB3_35-(.LCPI3_0+4))/2
	.byte	(.LBB3_28-(.LCPI3_0+4))/2
	.byte	(.LBB3_31-(.LCPI3_0+4))/2
	.byte	(.LBB3_33-(.LCPI3_0+4))/2
	.p2align	1
.LBB3_27:
.Ltmp66:
	@DEBUG_VALUE: ipaddr_aton:val <- $r0
	@DEBUG_VALUE: ipaddr_aton:c <- $r5
	@DEBUG_VALUE: ipaddr_aton:pp <- $r3
	@DEBUG_VALUE: ipaddr_aton:addr <- $r8
	b	.LBB3_21
.Ltmp67:
.LBB3_28:
	@DEBUG_VALUE: ipaddr_aton:val <- $r0
	@DEBUG_VALUE: ipaddr_aton:c <- $r5
	@DEBUG_VALUE: ipaddr_aton:pp <- $r3
	@DEBUG_VALUE: ipaddr_aton:addr <- $r8
	movs	r1, #0
.Ltmp68:
	.loc	3 223 9 is_stmt 1       @ ../Libraries/lwip-1.4.1/src/core/ipv4/ip_addr.c:223:9
	cmp.w	r1, r0, lsr #24
	bne	.LBB3_21
.Ltmp69:
@ %bb.29:
	@DEBUG_VALUE: ipaddr_aton:val <- $r0
	@DEBUG_VALUE: ipaddr_aton:c <- $r5
	@DEBUG_VALUE: ipaddr_aton:pp <- $r3
	@DEBUG_VALUE: ipaddr_aton:addr <- $r8
	.loc	3 226 12                @ ../Libraries/lwip-1.4.1/src/core/ipv4/ip_addr.c:226:12
	ldr	r1, [sp]
	.loc	3 226 9 is_stmt 0       @ ../Libraries/lwip-1.4.1/src/core/ipv4/ip_addr.c:226:9
	orr.w	r0, r0, r1, lsl #24
.Ltmp70:
	@DEBUG_VALUE: ipaddr_aton:val <- $r0
	.loc	3 0 9                   @ ../Libraries/lwip-1.4.1/src/core/ipv4/ip_addr.c:0:9
	b	.LBB3_35
.Ltmp71:
.LBB3_30:
	@DEBUG_VALUE: ipaddr_aton:val <- $r0
	@DEBUG_VALUE: ipaddr_aton:c <- $r5
	@DEBUG_VALUE: ipaddr_aton:pp <- $r3
	@DEBUG_VALUE: ipaddr_aton:addr <- $r8
	.loc	3 189 9 is_stmt 1       @ ../Libraries/lwip-1.4.1/src/core/ipv4/ip_addr.c:189:9
	cmp	r5, #0
	bne	.LBB3_20
	b	.LBB3_24
.Ltmp72:
.LBB3_31:
	@DEBUG_VALUE: ipaddr_aton:val <- $r0
	@DEBUG_VALUE: ipaddr_aton:c <- $r5
	@DEBUG_VALUE: ipaddr_aton:pp <- $r3
	@DEBUG_VALUE: ipaddr_aton:addr <- $r8
	.loc	3 0 9 is_stmt 0         @ ../Libraries/lwip-1.4.1/src/core/ipv4/ip_addr.c:0:9
	movs	r1, #0
.Ltmp73:
	.loc	3 230 9 is_stmt 1       @ ../Libraries/lwip-1.4.1/src/core/ipv4/ip_addr.c:230:9
	cmp.w	r1, r0, lsr #16
	bne	.LBB3_21
.Ltmp74:
@ %bb.32:
	@DEBUG_VALUE: ipaddr_aton:val <- $r0
	@DEBUG_VALUE: ipaddr_aton:c <- $r5
	@DEBUG_VALUE: ipaddr_aton:pp <- $r3
	@DEBUG_VALUE: ipaddr_aton:addr <- $r8
	.loc	3 233 13                @ ../Libraries/lwip-1.4.1/src/core/ipv4/ip_addr.c:233:13
	ldrd	r1, r2, [sp]
	.loc	3 233 29 is_stmt 0      @ ../Libraries/lwip-1.4.1/src/core/ipv4/ip_addr.c:233:29
	orr.w	r0, r0, r1, lsl #24
.Ltmp75:
	.loc	3 233 9                 @ ../Libraries/lwip-1.4.1/src/core/ipv4/ip_addr.c:233:9
	orr.w	r0, r0, r2, lsl #16
.Ltmp76:
	@DEBUG_VALUE: ipaddr_aton:val <- $r0
	.loc	3 0 9                   @ ../Libraries/lwip-1.4.1/src/core/ipv4/ip_addr.c:0:9
	b	.LBB3_35
.Ltmp77:
.LBB3_33:
	@DEBUG_VALUE: ipaddr_aton:val <- $r0
	@DEBUG_VALUE: ipaddr_aton:c <- $r5
	@DEBUG_VALUE: ipaddr_aton:pp <- $r3
	@DEBUG_VALUE: ipaddr_aton:addr <- $r8
	.loc	3 237 9 is_stmt 1       @ ../Libraries/lwip-1.4.1/src/core/ipv4/ip_addr.c:237:9
	cmp	r0, #255
	bhi	.LBB3_20
.Ltmp78:
@ %bb.34:
	@DEBUG_VALUE: ipaddr_aton:val <- $r0
	@DEBUG_VALUE: ipaddr_aton:c <- $r5
	@DEBUG_VALUE: ipaddr_aton:pp <- $r3
	@DEBUG_VALUE: ipaddr_aton:addr <- $r8
	.loc	3 240 13                @ ../Libraries/lwip-1.4.1/src/core/ipv4/ip_addr.c:240:13
	ldm.w	sp, {r1, r2, r3}
.Ltmp79:
	.loc	3 240 29 is_stmt 0      @ ../Libraries/lwip-1.4.1/src/core/ipv4/ip_addr.c:240:29
	orr.w	r0, r0, r1, lsl #24
.Ltmp80:
	.loc	3 240 48                @ ../Libraries/lwip-1.4.1/src/core/ipv4/ip_addr.c:240:48
	orr.w	r0, r0, r2, lsl #16
	.loc	3 240 9                 @ ../Libraries/lwip-1.4.1/src/core/ipv4/ip_addr.c:240:9
	orr.w	r0, r0, r3, lsl #8
.Ltmp81:
	@DEBUG_VALUE: ipaddr_aton:val <- $r0
.LBB3_35:
	@DEBUG_VALUE: ipaddr_aton:val <- $r0
	@DEBUG_VALUE: ipaddr_aton:c <- $r5
	@DEBUG_VALUE: ipaddr_aton:addr <- $r8
	@DEBUG_VALUE: ipaddr_aton:val <- $r0
	.loc	3 246 7 is_stmt 1       @ ../Libraries/lwip-1.4.1/src/core/ipv4/ip_addr.c:246:7
	cmp.w	r8, #0
	beq	.LBB3_37
.Ltmp82:
@ %bb.36:
	@DEBUG_VALUE: ipaddr_aton:val <- $r0
	@DEBUG_VALUE: ipaddr_aton:c <- $r5
	@DEBUG_VALUE: ipaddr_aton:addr <- $r8
	.loc	3 247 5                 @ ../Libraries/lwip-1.4.1/src/core/ipv4/ip_addr.c:247:5
	bl	lwip_htonl
.Ltmp83:
	str.w	r0, [r8]
.Ltmp84:
.LBB3_37:
	@DEBUG_VALUE: ipaddr_aton:c <- $r5
	@DEBUG_VALUE: ipaddr_aton:addr <- $r8
	.loc	3 0 5 is_stmt 0         @ ../Libraries/lwip-1.4.1/src/core/ipv4/ip_addr.c:0:5
	movs	r1, #1
	b	.LBB3_21
.Lfunc_end3:
	.size	ipaddr_aton, .Lfunc_end3-ipaddr_aton
	.cfi_endproc
	.cantunwind
	.fnend
                                        @ -- End function
	.section	.text.ipaddr_ntoa,"ax",%progbits
	.hidden	ipaddr_ntoa             @ -- Begin function ipaddr_ntoa
	.globl	ipaddr_ntoa
	.p2align	1
	.type	ipaddr_ntoa,%function
	.code	16                      @ @ipaddr_ntoa
	.thumb_func
ipaddr_ntoa:
.Lfunc_begin4:
	.loc	3 262 0 is_stmt 1       @ ../Libraries/lwip-1.4.1/src/core/ipv4/ip_addr.c:262:0
	.fnstart
	.cfi_startproc
@ %bb.0:
	@DEBUG_VALUE: ipaddr_ntoa:addr <- $r0
	@DEBUG_VALUE: ipaddr_ntoa:addr <- $r0
	.loc	3 264 10 prologue_end   @ ../Libraries/lwip-1.4.1/src/core/ipv4/ip_addr.c:264:10
	movw	r1, :lower16:ipaddr_ntoa.str
	movs	r2, #16
	movt	r1, :upper16:ipaddr_ntoa.str
	@DEBUG_VALUE: ipaddr_ntoa:addr <- $r0
	b	ipaddr_ntoa_r
.Ltmp85:
.Lfunc_end4:
	.size	ipaddr_ntoa, .Lfunc_end4-ipaddr_ntoa
	.cfi_endproc
	.cantunwind
	.fnend
                                        @ -- End function
	.section	.text.ipaddr_ntoa_r,"ax",%progbits
	.hidden	ipaddr_ntoa_r           @ -- Begin function ipaddr_ntoa_r
	.globl	ipaddr_ntoa_r
	.p2align	1
	.type	ipaddr_ntoa_r,%function
	.code	16                      @ @ipaddr_ntoa_r
	.thumb_func
ipaddr_ntoa_r:
.Lfunc_begin5:
	.loc	3 277 0                 @ ../Libraries/lwip-1.4.1/src/core/ipv4/ip_addr.c:277:0
	.fnstart
	.cfi_startproc
@ %bb.0:
	.save	{r4, r5, r6, r7, r8, r9, r10, lr}
	push.w	{r4, r5, r6, r7, r8, r9, r10, lr}
	.cfi_def_cfa_offset 32
	.cfi_offset lr, -4
	.cfi_offset r10, -8
	.cfi_offset r9, -12
	.cfi_offset r8, -16
	.cfi_offset r7, -20
	.cfi_offset r6, -24
	.cfi_offset r5, -28
	.cfi_offset r4, -32
	.pad	#8
	sub	sp, #8
	.cfi_def_cfa_offset 40
	@DEBUG_VALUE: ipaddr_ntoa_r:addr <- $r0
	@DEBUG_VALUE: ipaddr_ntoa_r:buf <- $r1
	@DEBUG_VALUE: ipaddr_ntoa_r:buflen <- $r2
.Ltmp86:
	@DEBUG_VALUE: ipaddr_ntoa_r:rp <- $r1
	.loc	3 287 12 prologue_end   @ ../Libraries/lwip-1.4.1/src/core/ipv4/ip_addr.c:287:12
	ldr	r4, [r0]
.Ltmp87:
	@DEBUG_VALUE: ipaddr_ntoa_r:s_addr <- $r4
	.loc	3 0 12 is_stmt 0        @ ../Libraries/lwip-1.4.1/src/core/ipv4/ip_addr.c:0:12
	movw	lr, #52429
	mov	r12, r1
.Ltmp88:
	@DEBUG_VALUE: ipaddr_ntoa_r:len <- 0
	@DEBUG_VALUE: ipaddr_ntoa_r:rp <- $r12
	@DEBUG_VALUE: ipaddr_ntoa_r:buflen <- $r2
	@DEBUG_VALUE: ipaddr_ntoa_r:buf <- $r12
	@DEBUG_VALUE: ipaddr_ntoa_r:addr <- $r0
	movs	r0, #0
.Ltmp89:
	@DEBUG_VALUE: ipaddr_ntoa_r:n <- 0
	add	r3, sp, #4
.Ltmp90:
	@DEBUG_VALUE: ipaddr_ntoa_r:ap <- [DW_OP_plus_uconst 4] $sp
	add.w	r10, sp, #1
	mov.w	r8, #46
	mov.w	r9, #0
	mov	r5, r1
	movt	lr, #52428
	.loc	3 287 10                @ ../Libraries/lwip-1.4.1/src/core/ipv4/ip_addr.c:287:10
	str	r4, [sp, #4]
	b	.LBB5_3
.Ltmp91:
	.p2align	2
.LBB5_1:                                @   in Loop: Header=BB5_3 Depth=1
	@DEBUG_VALUE: ipaddr_ntoa_r:len <- $r0
	@DEBUG_VALUE: ipaddr_ntoa_r:rp <- $r5
	@DEBUG_VALUE: ipaddr_ntoa_r:ap <- $r3
	@DEBUG_VALUE: ipaddr_ntoa_r:n <- $r9
	@DEBUG_VALUE: ipaddr_ntoa_r:buf <- $r12
	@DEBUG_VALUE: ipaddr_ntoa_r:buflen <- $r2
	.loc	3 291 22 is_stmt 1      @ ../Libraries/lwip-1.4.1/src/core/ipv4/ip_addr.c:291:22
	add.w	r9, r9, #1
.Ltmp92:
	@DEBUG_VALUE: ipaddr_ntoa_r:n <- $r9
	.loc	3 307 11                @ ../Libraries/lwip-1.4.1/src/core/ipv4/ip_addr.c:307:11
	strb.w	r8, [r5]
.Ltmp93:
	.loc	3 291 3                 @ ../Libraries/lwip-1.4.1/src/core/ipv4/ip_addr.c:291:3
	cmp.w	r9, #3
	bhi	.LBB5_11
.Ltmp94:
@ %bb.2:                                @   in Loop: Header=BB5_3 Depth=1
	@DEBUG_VALUE: ipaddr_ntoa_r:len <- $r0
	@DEBUG_VALUE: ipaddr_ntoa_r:rp <- $r5
	@DEBUG_VALUE: ipaddr_ntoa_r:ap <- $r3
	@DEBUG_VALUE: ipaddr_ntoa_r:n <- $r9
	@DEBUG_VALUE: ipaddr_ntoa_r:buf <- $r12
	@DEBUG_VALUE: ipaddr_ntoa_r:buflen <- $r2
	.loc	3 0 0 is_stmt 0         @ ../Libraries/lwip-1.4.1/src/core/ipv4/ip_addr.c:0:0
	adds	r3, #1
.Ltmp95:
	@DEBUG_VALUE: ipaddr_ntoa_r:ap <- $r3
	.loc	3 307 8 is_stmt 1       @ ../Libraries/lwip-1.4.1/src/core/ipv4/ip_addr.c:307:8
	adds	r5, #1
.Ltmp96:
	@DEBUG_VALUE: ipaddr_ntoa_r:rp <- $r5
	.loc	3 294 13                @ ../Libraries/lwip-1.4.1/src/core/ipv4/ip_addr.c:294:13
	ldrb	r4, [r3]
.Ltmp97:
.LBB5_3:                                @ =>This Loop Header: Depth=1
                                        @     Child Loop BB5_4 Depth 2
                                        @     Child Loop BB5_6 Depth 2
	@DEBUG_VALUE: ipaddr_ntoa_r:ap <- [DW_OP_plus_uconst 4] $sp
	@DEBUG_VALUE: ipaddr_ntoa_r:buf <- $r12
	@DEBUG_VALUE: ipaddr_ntoa_r:rp <- $r12
	@DEBUG_VALUE: ipaddr_ntoa_r:s_addr <- $r4
	@DEBUG_VALUE: ipaddr_ntoa_r:buflen <- $r2
	.loc	3 0 13 is_stmt 0        @ ../Libraries/lwip-1.4.1/src/core/ipv4/ip_addr.c:0:13
	movs	r7, #0
.Ltmp98:
	@DEBUG_VALUE: ipaddr_ntoa_r:ap <- $r3
	@DEBUG_VALUE: ipaddr_ntoa_r:n <- $r9
	@DEBUG_VALUE: ipaddr_ntoa_r:len <- $r0
	@DEBUG_VALUE: ipaddr_ntoa_r:rp <- $r5
	.p2align	2
.LBB5_4:                                @   Parent Loop BB5_3 Depth=1
                                        @ =>  This Inner Loop Header: Depth=2
	@DEBUG_VALUE: ipaddr_ntoa_r:len <- $r0
	@DEBUG_VALUE: ipaddr_ntoa_r:rp <- $r5
	@DEBUG_VALUE: ipaddr_ntoa_r:ap <- $r3
	@DEBUG_VALUE: ipaddr_ntoa_r:n <- $r9
	@DEBUG_VALUE: ipaddr_ntoa_r:buf <- $r12
	@DEBUG_VALUE: ipaddr_ntoa_r:s_addr <- $r4
	@DEBUG_VALUE: ipaddr_ntoa_r:buflen <- $r2
	mov	r6, r7
.Ltmp99:
	@DEBUG_VALUE: ipaddr_ntoa_r:i <- $r6
	.loc	3 295 11 is_stmt 1      @ ../Libraries/lwip-1.4.1/src/core/ipv4/ip_addr.c:295:11
	uxtb	r7, r4
	umull	r7, r1, r7, lr
	lsrs	r1, r1, #3
	.loc	3 296 12                @ ../Libraries/lwip-1.4.1/src/core/ipv4/ip_addr.c:296:12
	adds	r7, r6, #1
.Ltmp100:
	@DEBUG_VALUE: ipaddr_ntoa_r:i <- $r7
	.loc	3 295 11                @ ../Libraries/lwip-1.4.1/src/core/ipv4/ip_addr.c:295:11
	strb	r1, [r3]
	add.w	r1, r1, r1, lsl #2
	sub.w	r1, r4, r1, lsl #1
.Ltmp101:
	@DEBUG_VALUE: ipaddr_ntoa_r:rem <- $r1
	.loc	3 296 7                 @ ../Libraries/lwip-1.4.1/src/core/ipv4/ip_addr.c:296:7
	uxtb	r4, r6
.Ltmp102:
	.loc	3 296 22 is_stmt 0      @ ../Libraries/lwip-1.4.1/src/core/ipv4/ip_addr.c:296:22
	orr	r1, r1, #48
.Ltmp103:
	.loc	3 296 16                @ ../Libraries/lwip-1.4.1/src/core/ipv4/ip_addr.c:296:16
	strb.w	r1, [r10, r4]
.Ltmp104:
	.loc	3 297 13 is_stmt 1      @ ../Libraries/lwip-1.4.1/src/core/ipv4/ip_addr.c:297:13
	ldrb	r4, [r3]
.Ltmp105:
	.loc	3 297 5 is_stmt 0       @ ../Libraries/lwip-1.4.1/src/core/ipv4/ip_addr.c:297:5
	cmp	r4, #0
	bne	.LBB5_4
.Ltmp106:
@ %bb.5:                                @   in Loop: Header=BB5_3 Depth=1
	@DEBUG_VALUE: ipaddr_ntoa_r:i <- $r7
	@DEBUG_VALUE: ipaddr_ntoa_r:len <- $r0
	@DEBUG_VALUE: ipaddr_ntoa_r:rp <- $r5
	@DEBUG_VALUE: ipaddr_ntoa_r:ap <- $r3
	@DEBUG_VALUE: ipaddr_ntoa_r:n <- $r9
	@DEBUG_VALUE: ipaddr_ntoa_r:buf <- $r12
	@DEBUG_VALUE: ipaddr_ntoa_r:buflen <- $r2
	.loc	3 0 0                   @ ../Libraries/lwip-1.4.1/src/core/ipv4/ip_addr.c:0:0
	cmp	r0, r2
	mov.w	r4, #0
	add.w	r0, r0, #1
.Ltmp107:
	@DEBUG_VALUE: ipaddr_ntoa_r:len <- $r0
	it	ge
	movge	r4, #1
	.loc	3 298 5 is_stmt 1       @ ../Libraries/lwip-1.4.1/src/core/ipv4/ip_addr.c:298:5
	lsls	r1, r7, #24
	beq	.LBB5_8
.Ltmp108:
	.p2align	2
.LBB5_6:                                @   Parent Loop BB5_3 Depth=1
                                        @ =>  This Inner Loop Header: Depth=2
	@DEBUG_VALUE: ipaddr_ntoa_r:i <- $r7
	@DEBUG_VALUE: ipaddr_ntoa_r:len <- $r0
	@DEBUG_VALUE: ipaddr_ntoa_r:rp <- $r5
	@DEBUG_VALUE: ipaddr_ntoa_r:ap <- $r3
	@DEBUG_VALUE: ipaddr_ntoa_r:n <- $r9
	@DEBUG_VALUE: ipaddr_ntoa_r:buf <- $r12
	@DEBUG_VALUE: ipaddr_ntoa_r:buflen <- $r2
	@DEBUG_VALUE: ipaddr_ntoa_r:rp <- $r5
	@DEBUG_VALUE: ipaddr_ntoa_r:len <- $r0
	@DEBUG_VALUE: ipaddr_ntoa_r:i <- $r6
	.loc	3 299 11                @ ../Libraries/lwip-1.4.1/src/core/ipv4/ip_addr.c:299:11
	lsls	r1, r4, #31
	bne	.LBB5_9
.Ltmp109:
@ %bb.7:                                @   in Loop: Header=BB5_6 Depth=2
	@DEBUG_VALUE: ipaddr_ntoa_r:i <- $r6
	@DEBUG_VALUE: ipaddr_ntoa_r:len <- $r0
	@DEBUG_VALUE: ipaddr_ntoa_r:rp <- $r5
	@DEBUG_VALUE: ipaddr_ntoa_r:ap <- $r3
	@DEBUG_VALUE: ipaddr_ntoa_r:n <- $r9
	@DEBUG_VALUE: ipaddr_ntoa_r:buf <- $r12
	@DEBUG_VALUE: ipaddr_ntoa_r:buflen <- $r2
	.loc	3 302 15                @ ../Libraries/lwip-1.4.1/src/core/ipv4/ip_addr.c:302:15
	uxtb	r1, r6
.Ltmp110:
	.loc	3 0 0 is_stmt 0         @ ../Libraries/lwip-1.4.1/src/core/ipv4/ip_addr.c:0:0
	movs	r4, #0
	cmp	r0, r2
	add.w	r0, r0, #1
.Ltmp111:
	@DEBUG_VALUE: ipaddr_ntoa_r:len <- $r0
	.loc	3 298 12 is_stmt 1      @ ../Libraries/lwip-1.4.1/src/core/ipv4/ip_addr.c:298:12
	sub.w	r6, r6, #1
.Ltmp112:
	@DEBUG_VALUE: ipaddr_ntoa_r:i <- $r6
	.loc	3 0 0 is_stmt 0         @ ../Libraries/lwip-1.4.1/src/core/ipv4/ip_addr.c:0:0
	it	ge
	movge	r4, #1
.Ltmp113:
	.loc	3 302 15 is_stmt 1      @ ../Libraries/lwip-1.4.1/src/core/ipv4/ip_addr.c:302:15
	ldrb.w	r7, [r10, r1]
.Ltmp114:
	@DEBUG_VALUE: ipaddr_ntoa_r:rp <- $r5
	.loc	3 298 5                 @ ../Libraries/lwip-1.4.1/src/core/ipv4/ip_addr.c:298:5
	cmp	r1, #0
.Ltmp115:
	.loc	3 302 13                @ ../Libraries/lwip-1.4.1/src/core/ipv4/ip_addr.c:302:13
	strb	r7, [r5], #1
.Ltmp116:
	.loc	3 298 5                 @ ../Libraries/lwip-1.4.1/src/core/ipv4/ip_addr.c:298:5
	bne	.LBB5_6
.Ltmp117:
.LBB5_8:                                @   in Loop: Header=BB5_3 Depth=1
	@DEBUG_VALUE: ipaddr_ntoa_r:len <- $r0
	@DEBUG_VALUE: ipaddr_ntoa_r:ap <- $r3
	@DEBUG_VALUE: ipaddr_ntoa_r:n <- $r9
	@DEBUG_VALUE: ipaddr_ntoa_r:buf <- $r12
	@DEBUG_VALUE: ipaddr_ntoa_r:buflen <- $r2
	@DEBUG_VALUE: ipaddr_ntoa_r:rp <- $r5
	@DEBUG_VALUE: ipaddr_ntoa_r:len <- $r0
	.loc	3 304 9                 @ ../Libraries/lwip-1.4.1/src/core/ipv4/ip_addr.c:304:9
	cmp	r4, #0
	beq	.LBB5_1
.Ltmp118:
.LBB5_9:
	@DEBUG_VALUE: ipaddr_ntoa_r:len <- $r0
	@DEBUG_VALUE: ipaddr_ntoa_r:rp <- $r5
	@DEBUG_VALUE: ipaddr_ntoa_r:ap <- $r3
	@DEBUG_VALUE: ipaddr_ntoa_r:n <- $r9
	@DEBUG_VALUE: ipaddr_ntoa_r:buf <- $r12
	@DEBUG_VALUE: ipaddr_ntoa_r:buflen <- $r2
	.loc	3 0 9 is_stmt 0         @ ../Libraries/lwip-1.4.1/src/core/ipv4/ip_addr.c:0:9
	mov.w	r12, #0
.Ltmp119:
.LBB5_10:
	@DEBUG_VALUE: ipaddr_ntoa_r:rp <- $r5
	@DEBUG_VALUE: ipaddr_ntoa_r:ap <- $r3
	@DEBUG_VALUE: ipaddr_ntoa_r:n <- $r9
	@DEBUG_VALUE: ipaddr_ntoa_r:buflen <- $r2
	.loc	3 312 1 is_stmt 1       @ ../Libraries/lwip-1.4.1/src/core/ipv4/ip_addr.c:312:1
	mov	r0, r12
	add	sp, #8
	pop.w	{r4, r5, r6, r7, r8, r9, r10, pc}
.Ltmp120:
.LBB5_11:
	@DEBUG_VALUE: ipaddr_ntoa_r:len <- $r0
	@DEBUG_VALUE: ipaddr_ntoa_r:rp <- $r5
	@DEBUG_VALUE: ipaddr_ntoa_r:ap <- $r3
	@DEBUG_VALUE: ipaddr_ntoa_r:n <- $r9
	@DEBUG_VALUE: ipaddr_ntoa_r:buf <- $r12
	@DEBUG_VALUE: ipaddr_ntoa_r:buflen <- $r2
	.loc	3 0 1 is_stmt 0         @ ../Libraries/lwip-1.4.1/src/core/ipv4/ip_addr.c:0:1
	movs	r0, #0
.Ltmp121:
	.loc	3 310 9 is_stmt 1       @ ../Libraries/lwip-1.4.1/src/core/ipv4/ip_addr.c:310:9
	strb	r0, [r5]
	b	.LBB5_10
.Ltmp122:
.Lfunc_end5:
	.size	ipaddr_ntoa_r, .Lfunc_end5-ipaddr_ntoa_r
	.cfi_endproc
	.cantunwind
	.fnend
                                        @ -- End function
	.hidden	ip_addr_any             @ @ip_addr_any
	.type	ip_addr_any,%object
	.section	.rodata.ip_addr_any,"a",%progbits
	.globl	ip_addr_any
	.p2align	2
ip_addr_any:
	.zero	4
	.size	ip_addr_any, 4

	.hidden	ip_addr_broadcast       @ @ip_addr_broadcast
	.type	ip_addr_broadcast,%object
	.section	.rodata.ip_addr_broadcast,"a",%progbits
	.globl	ip_addr_broadcast
	.p2align	2
ip_addr_broadcast:
	.long	4294967295              @ 0xffffffff
	.size	ip_addr_broadcast, 4

	.type	ipaddr_ntoa.str,%object @ @ipaddr_ntoa.str
	.section	.bss.ipaddr_ntoa.str,"aw",%nobits
ipaddr_ntoa.str:
	.zero	16
	.size	ipaddr_ntoa.str, 16

	.file	4 "F:\\SkyDrive\\OtvoreniProjekti\\HotelSaplast\\fw\\KontrolerHotela\\HC070318\\Project" "../Libraries/lwip-1.4.1/src/include\\lwip/netif.h"
	.file	5 "F:\\SkyDrive\\OtvoreniProjekti\\HotelSaplast\\fw\\KontrolerHotela\\HC070318\\Project" "../Libraries/lwip-1.4.1/src/include\\lwip/err.h"
	.file	6 "F:\\SkyDrive\\OtvoreniProjekti\\HotelSaplast\\fw\\KontrolerHotela\\HC070318\\Project" "../Libraries/lwip-1.4.1/src/include\\lwip/pbuf.h"
	.section	".note.GNU-stack","",%progbits
	.eabi_attribute	30, 3	@ Tag_ABI_optimization_goals
	.ARM_attribute	16, 1	@ Tag_AV_eba