	.text
	.syntax unified
	.eabi_attribute	67, "2.09"	@ Tag_conformance
	.cpu	cortex-m4
	.eabi_attribute	6, 13	@ Tag_CPU_arch
	.eabi_attribute	7, 77	@ Tag_CPU_arch_profile
	.eabi_attribute	8, 0	@ Tag_ARM_ISA_use
	.eabi_attribute	9, 2	@ Tag_THUMB_ISA_use
	.fpu	fpv4-sp-d16
	.eabi_attribute	27, 1	@ Tag_ABI_HardFP_use
	.eabi_attribute	36, 1	@ Tag_FP_HP_extension
	.eabi_attribute	34, 1	@ Tag_CPU_unaligned_access
	.eabi_attribute	17, 1	@ Tag_ABI_PCS_GOT_use
	.eabi_attribute	20, 2	@ Tag_ABI_FP_denormal
	.eabi_attribute	21, 0	@ Tag_ABI_FP_exceptions
	.eabi_attribute	23, 1	@ Tag_ABI_FP_number_model
	.eabi_attribute	24, 1	@ Tag_ABI_align_needed
	.eabi_attribute	25, 1	@ Tag_ABI_align_preserved
	.eabi_attribute	28, 1	@ Tag_ABI_VFP_args
	.eabi_attribute	38, 1	@ Tag_ABI_FP_16bit_format
	.eabi_attribute	18, 2	@ Tag_ABI_PCS_wchar_t
	.eabi_attribute	26, 1	@ Tag_ABI_enum_size
	.eabi_attribute	14, 0	@ Tag_ABI_PCS_R9_use
	.file	"netbios.c"
	.file	1 "F:\\SkyDrive\\OtvoreniProjekti\\HotelSaplast\\fw\\KontrolerHotela\\HC070318\\Project" "../Libraries/lwip-1.4.1/src/include\\lwip/pbuf.h"
	.file	2 "F:\\SkyDrive\\OtvoreniProjekti\\HotelSaplast\\fw\\KontrolerHotela\\HC070318\\Project" "../Libraries/lwip-1.4.1/port/arch\\cc.h"
	.file	3 "F:\\SkyDrive\\OtvoreniProjekti\\HotelSaplast\\fw\\KontrolerHotela\\HC070318\\Project" "../Libraries/lwip-1.4.1/src/include/ipv4\\lwip/ip_addr.h"
	.file	4 "F:\\SkyDrive\\OtvoreniProjekti\\HotelSaplast\\fw\\KontrolerHotela\\HC070318\\Project" "../User/NetBIOS/netbios.c"
	.section	.text.netbios_init,"ax",%progbits
	.hidden	netbios_init            @ -- Begin function netbios_init
	.globl	netbios_init
	.p2align	1
	.type	netbios_init,%function
	.code	16                      @ @netbios_init
	.thumb_func
netbios_init:
.Lfunc_begin0:
	.loc	4 324 0                 @ ../User/NetBIOS/netbios.c:324:0
	.fnstart
	.cfi_sections .debug_frame
	.cfi_startproc
@ %bb.0:
	.save	{r4, lr}
	push	{r4, lr}
	.cfi_def_cfa_offset 8
	.cfi_offset lr, -4
	.cfi_offset r4, -8
.Ltmp0:
	.loc	4 329 9 prologue_end    @ ../User/NetBIOS/netbios.c:329:9
	bl	udp_new
	.loc	4 330 7                 @ ../User/NetBIOS/netbios.c:330:7
	cbz	r0, .LBB0_2
@ %bb.1:
	.loc	4 0 0 is_stmt 0         @ ../User/NetBIOS/netbios.c:0:0
	mov	r4, r0
.Ltmp1:
	@DEBUG_VALUE: netbios_init:pcb <- $r4
	.loc	4 332 21 is_stmt 1      @ ../User/NetBIOS/netbios.c:332:21
	ldrb	r0, [r0, #8]
	.loc	4 333 5                 @ ../User/NetBIOS/netbios.c:333:5
	movw	r1, :lower16:ip_addr_any
	movs	r2, #137
	movt	r1, :upper16:ip_addr_any
	.loc	4 332 21                @ ../User/NetBIOS/netbios.c:332:21
	orr	r0, r0, #32
	strb	r0, [r4, #8]
	.loc	4 333 5                 @ ../User/NetBIOS/netbios.c:333:5
	mov	r0, r4
	bl	udp_bind
	.loc	4 334 5                 @ ../User/NetBIOS/netbios.c:334:5
	movw	r1, :lower16:netbios_recv
	mov	r0, r4
	mov	r2, r4
	movt	r1, :upper16:netbios_recv
	pop.w	{r4, lr}
.Ltmp2:
	b	udp_recv
.Ltmp3:
.LBB0_2:
	.loc	4 336 1                 @ ../User/NetBIOS/netbios.c:336:1
	pop	{r4, pc}
.Ltmp4:
.Lfunc_end0:
	.size	netbios_init, .Lfunc_end0-netbios_init
	.cfi_endproc
	.cantunwind
	.fnend
                                        @ -- End function
	.section	.text.netbios_recv,"ax",%progbits
	.p2align	2               @ -- Begin function netbios_recv
	.type	netbios_recv,%function
	.code	16                      @ @netbios_recv
	.thumb_func
netbios_recv:
.Lfunc_begin1:
	.loc	4 261 0                 @ ../User/NetBIOS/netbios.c:261:0
	.fnstart
	.cfi_startproc
@ %bb.0:
	@DEBUG_VALUE: netbios_recv:arg <- $r0
	@DEBUG_VALUE: netbios_recv:upcb <- $r1
	@DEBUG_VALUE: netbios_recv:p <- $r2
	@DEBUG_VALUE: netbios_recv:addr <- $r3
	.loc	4 265 7 prologue_end    @ ../User/NetBIOS/netbios.c:265:7
	cmp	r2, #0
	beq.w	.LBB1_17
.Ltmp5:
@ %bb.1:
	@DEBUG_VALUE: netbios_recv:addr <- $r3
	@DEBUG_VALUE: netbios_recv:p <- $r2
	@DEBUG_VALUE: netbios_recv:upcb <- $r1
	@DEBUG_VALUE: netbios_recv:arg <- $r0
	.save	{r4, r5, r6, r7, r8, r9, r10, r11, lr}
	push.w	{r4, r5, r6, r7, r8, r9, r10, r11, lr}
	.cfi_def_cfa_offset 36
	.cfi_offset lr, -4
	.cfi_offset r11, -8
	.cfi_offset r10, -12
	.cfi_offset r9, -16
	.cfi_offset r8, -20
	.cfi_offset r7, -24
	.cfi_offset r6, -28
	.cfi_offset r5, -32
	.cfi_offset r4, -36
	.pad	#20
	sub	sp, #20
	.cfi_def_cfa_offset 56
.Ltmp6:
	.loc	4 271 9                 @ ../User/NetBIOS/netbios.c:271:9
	movw	r11, :lower16:netif_default
	mov	r4, r2
.Ltmp7:
	@DEBUG_VALUE: netbios_recv:p <- $r4
	@DEBUG_VALUE: netbios_recv:p <- $r4
	@DEBUG_VALUE: netbios_name_decoding:name_dec <- undef
	movt	r11, :upper16:netif_default
	ldr.w	r0, [r11]
.Ltmp8:
	.loc	4 271 9 is_stmt 0       @ ../User/NetBIOS/netbios.c:271:9
	cmp	r0, #0
	beq	.LBB1_16
.Ltmp9:
@ %bb.2:
	@DEBUG_VALUE: netbios_recv:p <- $r4
	@DEBUG_VALUE: netbios_recv:addr <- $r3
	@DEBUG_VALUE: netbios_recv:upcb <- $r1
	.loc	4 0 0                   @ ../User/NetBIOS/netbios.c:0:0
	ldr	r7, [r4, #4]
.Ltmp10:
	@DEBUG_VALUE: netbios_hdr <- $r7
	.loc	4 274 26 is_stmt 1      @ ../User/NetBIOS/netbios.c:274:26
	ldrh	r0, [r7, #2]
	.loc	4 274 106 is_stmt 0     @ ../User/NetBIOS/netbios.c:274:106
	tst.w	r0, #248
	bne	.LBB1_16
.Ltmp11:
@ %bb.3:
	@DEBUG_VALUE: netbios_hdr <- $r7
	@DEBUG_VALUE: netbios_recv:p <- $r4
	@DEBUG_VALUE: netbios_recv:addr <- $r3
	@DEBUG_VALUE: netbios_recv:upcb <- $r1
	.loc	4 276 26 is_stmt 1      @ ../User/NetBIOS/netbios.c:276:26
	ldrh	r0, [r7, #4]
.Ltmp12:
	.loc	4 274 11                @ ../User/NetBIOS/netbios.c:274:11
	cmp.w	r0, #256
	bne	.LBB1_16
.Ltmp13:
@ %bb.4:
	@DEBUG_VALUE: netbios_hdr <- $r7
	@DEBUG_VALUE: netbios_recv:p <- $r4
	@DEBUG_VALUE: netbios_recv:addr <- $r3
	@DEBUG_VALUE: netbios_recv:upcb <- $r1
	.loc	4 0 0 is_stmt 0         @ ../User/NetBIOS/netbios.c:0:0
	add.w	r0, r7, #12
.Ltmp14:
	@DEBUG_VALUE: netbios_name_hdr <- $r0
	mov	r8, r3
.Ltmp15:
	@DEBUG_VALUE: netbios_recv:addr <- $r8
	@DEBUG_VALUE: netbios_recv:addr <- $r8
	mov	r6, r1
.Ltmp16:
	@DEBUG_VALUE: netbios_recv:upcb <- $r6
	@DEBUG_VALUE: netbios_recv:upcb <- $r6
	@DEBUG_VALUE: netbios_recv:port <- undef
	mvn	r12, #15
	add.w	lr, sp, #3
.Ltmp17:
	.loc	4 278 39 is_stmt 1      @ ../User/NetBIOS/netbios.c:278:39
	add.w	r9, r0, #1
.Ltmp18:
	@DEBUG_VALUE: netbios_name_decoding:pname <- $r9
	@DEBUG_VALUE: netbios_name_decoding:name_enc <- $r9
	.loc	4 0 39 is_stmt 0        @ ../User/NetBIOS/netbios.c:0:39
	movs	r0, #0
.Ltmp19:
	@DEBUG_VALUE: netbios_name_decoding:index <- 0
	@DEBUG_VALUE: netbios_name_decoding:name_dec_len <- undef
	mov	r3, r9
.Ltmp20:
	@DEBUG_VALUE: netbios_name_decoding:index <- $r0
	b	.LBB1_10
.Ltmp21:
	.p2align	2
.LBB1_5:                                @   in Loop: Header=BB1_10 Depth=1
	@DEBUG_VALUE: netbios_name_decoding:cname <- $r1
	@DEBUG_VALUE: netbios_name_decoding:pname <- $r3
	@DEBUG_VALUE: netbios_name_decoding:index <- $r0
	@DEBUG_VALUE: netbios_name_decoding:name_enc <- $r9
	@DEBUG_VALUE: netbios_recv:upcb <- $r6
	@DEBUG_VALUE: netbios_recv:addr <- $r8
	@DEBUG_VALUE: netbios_hdr <- $r7
	@DEBUG_VALUE: netbios_recv:p <- $r4
	.loc	4 183 13 is_stmt 1      @ ../User/NetBIOS/netbios.c:183:13
	ldrb	r2, [r3, #1]
.Ltmp22:
	@DEBUG_VALUE: netbios_name_decoding:cname <- $r2
	.loc	4 184 23                @ ../User/NetBIOS/netbios.c:184:23
	cbz	r2, .LBB1_13
.Ltmp23:
@ %bb.6:                                @   in Loop: Header=BB1_10 Depth=1
	@DEBUG_VALUE: netbios_name_decoding:pname <- $r3
	@DEBUG_VALUE: netbios_name_decoding:cname <- $r2
	@DEBUG_VALUE: netbios_name_decoding:index <- $r0
	@DEBUG_VALUE: netbios_name_decoding:name_enc <- $r9
	@DEBUG_VALUE: netbios_recv:upcb <- $r6
	@DEBUG_VALUE: netbios_recv:addr <- $r8
	@DEBUG_VALUE: netbios_hdr <- $r7
	@DEBUG_VALUE: netbios_recv:p <- $r4
	cmp	r2, #46
	beq	.LBB1_13
.Ltmp24:
@ %bb.7:                                @   in Loop: Header=BB1_10 Depth=1
	@DEBUG_VALUE: netbios_name_decoding:pname <- $r3
	@DEBUG_VALUE: netbios_name_decoding:cname <- $r2
	@DEBUG_VALUE: netbios_name_decoding:index <- $r0
	@DEBUG_VALUE: netbios_name_decoding:name_enc <- $r9
	@DEBUG_VALUE: netbios_recv:upcb <- $r6
	@DEBUG_VALUE: netbios_recv:addr <- $r8
	@DEBUG_VALUE: netbios_hdr <- $r7
	@DEBUG_VALUE: netbios_recv:p <- $r4
	.loc	4 189 21                @ ../User/NetBIOS/netbios.c:189:21
	subs	r2, #65
.Ltmp25:
	@DEBUG_VALUE: netbios_name_decoding:cname <- $r2
	uxtb	r5, r2
	cmp	r5, #25
	bhi	.LBB1_13
.Ltmp26:
@ %bb.8:                                @   in Loop: Header=BB1_10 Depth=1
	@DEBUG_VALUE: netbios_name_decoding:pname <- $r3
	@DEBUG_VALUE: netbios_name_decoding:cname <- $r2
	@DEBUG_VALUE: netbios_name_decoding:index <- $r0
	@DEBUG_VALUE: netbios_name_decoding:name_enc <- $r9
	@DEBUG_VALUE: netbios_recv:upcb <- $r6
	@DEBUG_VALUE: netbios_recv:addr <- $r8
	@DEBUG_VALUE: netbios_hdr <- $r7
	@DEBUG_VALUE: netbios_recv:p <- $r4
	.loc	4 195 10                @ ../User/NetBIOS/netbios.c:195:10
	adds	r3, #2
.Ltmp27:
	@DEBUG_VALUE: netbios_name_decoding:pname <- $r3
	.loc	4 198 9                 @ ../User/NetBIOS/netbios.c:198:9
	cmp	r0, #15
	bhi	.LBB1_10
.Ltmp28:
@ %bb.9:                                @   in Loop: Header=BB1_10 Depth=1
	@DEBUG_VALUE: netbios_name_decoding:pname <- $r3
	@DEBUG_VALUE: netbios_name_decoding:cname <- $r2
	@DEBUG_VALUE: netbios_name_decoding:index <- $r0
	@DEBUG_VALUE: netbios_name_decoding:name_enc <- $r9
	@DEBUG_VALUE: netbios_recv:upcb <- $r6
	@DEBUG_VALUE: netbios_recv:addr <- $r8
	@DEBUG_VALUE: netbios_hdr <- $r7
	@DEBUG_VALUE: netbios_recv:p <- $r4
	.loc	4 180 21                @ ../User/NetBIOS/netbios.c:180:21
	add.w	r1, r12, r1, lsl #4
	.loc	4 194 13                @ ../User/NetBIOS/netbios.c:194:13
	orrs	r1, r2
.Ltmp29:
	@DEBUG_VALUE: netbios_name_decoding:cnbname <- $r1
	uxtb	r2, r1
.Ltmp30:
	.loc	4 200 28                @ ../User/NetBIOS/netbios.c:200:28
	subs	r2, #32
	it	ne
	movne	r2, r1
	.loc	4 200 25 is_stmt 0      @ ../User/NetBIOS/netbios.c:200:25
	strb.w	r2, [lr, r0]
	.loc	4 200 21                @ ../User/NetBIOS/netbios.c:200:21
	adds	r0, #1
.Ltmp31:
	@DEBUG_VALUE: netbios_name_decoding:index <- $r0
	@DEBUG_VALUE: netbios_name_decoding:index <- $r0
	.p2align	2
.LBB1_10:                               @ =>This Inner Loop Header: Depth=1
	@DEBUG_VALUE: netbios_name_decoding:index <- $r0
	@DEBUG_VALUE: netbios_name_decoding:name_enc <- $r9
	@DEBUG_VALUE: netbios_name_decoding:pname <- $r9
	@DEBUG_VALUE: netbios_recv:upcb <- $r6
	@DEBUG_VALUE: netbios_recv:addr <- $r8
	@DEBUG_VALUE: netbios_hdr <- $r7
	@DEBUG_VALUE: netbios_recv:p <- $r4
	@DEBUG_VALUE: netbios_name_decoding:pname <- $r3
	.loc	4 170 13 is_stmt 1      @ ../User/NetBIOS/netbios.c:170:13
	ldrb	r1, [r3]
.Ltmp32:
	@DEBUG_VALUE: netbios_name_decoding:cname <- $r1
	@DEBUG_VALUE: netbios_name_decoding:cname <- [DW_OP_plus_uconst 15, DW_OP_stack_value] $r1
	.loc	4 171 9                 @ ../User/NetBIOS/netbios.c:171:9
	cbz	r1, .LBB1_13
.Ltmp33:
@ %bb.11:                               @   in Loop: Header=BB1_10 Depth=1
	@DEBUG_VALUE: netbios_name_decoding:cname <- $r1
	@DEBUG_VALUE: netbios_name_decoding:pname <- $r3
	@DEBUG_VALUE: netbios_name_decoding:index <- $r0
	@DEBUG_VALUE: netbios_name_decoding:name_enc <- $r9
	@DEBUG_VALUE: netbios_recv:upcb <- $r6
	@DEBUG_VALUE: netbios_recv:addr <- $r8
	@DEBUG_VALUE: netbios_hdr <- $r7
	@DEBUG_VALUE: netbios_recv:p <- $r4
	cmp	r1, #46
	beq	.LBB1_13
.Ltmp34:
@ %bb.12:                               @   in Loop: Header=BB1_10 Depth=1
	@DEBUG_VALUE: netbios_name_decoding:cname <- $r1
	@DEBUG_VALUE: netbios_name_decoding:pname <- $r3
	@DEBUG_VALUE: netbios_name_decoding:index <- $r0
	@DEBUG_VALUE: netbios_name_decoding:name_enc <- $r9
	@DEBUG_VALUE: netbios_recv:upcb <- $r6
	@DEBUG_VALUE: netbios_recv:addr <- $r8
	@DEBUG_VALUE: netbios_hdr <- $r7
	@DEBUG_VALUE: netbios_recv:p <- $r4
	.loc	4 175 21                @ ../User/NetBIOS/netbios.c:175:21
	sub.w	r2, r1, #65
	uxtb	r2, r2
	cmp	r2, #25
	bls	.LBB1_5
.Ltmp35:
.LBB1_13:
	@DEBUG_VALUE: netbios_recv:upcb <- $r6
	@DEBUG_VALUE: netbios_recv:addr <- $r8
	@DEBUG_VALUE: netbios_hdr <- $r7
	@DEBUG_VALUE: netbios_recv:p <- $r4
	.loc	4 0 21 is_stmt 0        @ ../User/NetBIOS/netbios.c:0:21
	add.w	r0, sp, #3
.Ltmp36:
	.loc	4 280 13 is_stmt 1      @ ../User/NetBIOS/netbios.c:280:13
	adr	r1, .LCPI1_0
	movs	r2, #11
	bl	memcmp
.Ltmp37:
	.loc	4 280 13 is_stmt 0      @ ../User/NetBIOS/netbios.c:280:13
	cbnz	r0, .LBB1_16
.Ltmp38:
@ %bb.14:
	@DEBUG_VALUE: netbios_recv:upcb <- $r6
	@DEBUG_VALUE: netbios_recv:addr <- $r8
	@DEBUG_VALUE: netbios_hdr <- $r7
	@DEBUG_VALUE: netbios_recv:p <- $r4
	.loc	4 284 15 is_stmt 1      @ ../User/NetBIOS/netbios.c:284:15
	movs	r0, #0
	movs	r1, #62
	movs	r2, #0
	bl	pbuf_alloc
	.loc	4 285 15                @ ../User/NetBIOS/netbios.c:285:15
	cbz	r0, .LBB1_16
.Ltmp39:
@ %bb.15:
	@DEBUG_VALUE: netbios_recv:upcb <- $r6
	@DEBUG_VALUE: netbios_recv:addr <- $r8
	@DEBUG_VALUE: netbios_hdr <- $r7
	@DEBUG_VALUE: netbios_recv:p <- $r4
	.loc	4 0 0 is_stmt 0         @ ../User/NetBIOS/netbios.c:0:0
	mov	r10, r0
.Ltmp40:
	@DEBUG_VALUE: q <- $r10
	movs	r1, #0
.Ltmp41:
	.loc	4 289 57 is_stmt 1      @ ../User/NetBIOS/netbios.c:289:57
	ldrh	r0, [r7]
	.loc	4 300 13                @ ../User/NetBIOS/netbios.c:300:13
	movs	r2, #33
	.loc	4 286 45                @ ../User/NetBIOS/netbios.c:286:45
	ldr.w	r5, [r10, #4]
.Ltmp42:
	@DEBUG_VALUE: resp <- $r5
	.loc	4 297 42                @ ../User/NetBIOS/netbios.c:297:42
	strh	r1, [r5, #10]
	mov.w	r1, #256
	.loc	4 295 42                @ ../User/NetBIOS/netbios.c:295:42
	str.w	r1, [r5, #6]
	movs	r1, #133
	.loc	4 290 42                @ ../User/NetBIOS/netbios.c:290:42
	str.w	r1, [r5, #2]
	.loc	4 289 42                @ ../User/NetBIOS/netbios.c:289:42
	strh	r0, [r5]
	.loc	4 300 13                @ ../User/NetBIOS/netbios.c:300:13
	add.w	r0, r5, #13
	mov	r1, r9
	bl	__aeabi_memcpy
	.loc	4 301 62                @ ../User/NetBIOS/netbios.c:301:62
	ldrb	r0, [r7, #12]
	mov.w	r1, #1536
	.loc	4 310 13                @ ../User/NetBIOS/netbios.c:310:13
	ldr	r3, [sp, #56]
	mov	r2, r8
	.loc	4 301 42                @ ../User/NetBIOS/netbios.c:301:42
	strb	r0, [r5, #12]
	.loc	4 302 62                @ ../User/NetBIOS/netbios.c:302:62
	ldrh	r0, [r7, #46]
	.loc	4 302 42 is_stmt 0      @ ../User/NetBIOS/netbios.c:302:42
	strh	r0, [r5, #46]
	.loc	4 303 62 is_stmt 1      @ ../User/NetBIOS/netbios.c:303:62
	ldrh	r0, [r7, #48]
	.loc	4 305 42                @ ../User/NetBIOS/netbios.c:305:42
	str.w	r1, [r5, #54]
	movw	r1, #1024
	movt	r1, #57491
	.loc	4 304 42                @ ../User/NetBIOS/netbios.c:304:42
	str.w	r1, [r5, #50]
	.loc	4 303 42                @ ../User/NetBIOS/netbios.c:303:42
	strh	r0, [r5, #48]
	.loc	4 310 13                @ ../User/NetBIOS/netbios.c:310:13
	mov	r1, r10
	.loc	4 307 13                @ ../User/NetBIOS/netbios.c:307:13
	ldr.w	r0, [r11]
	ldr	r0, [r0, #4]
	str.w	r0, [r5, #58]
	.loc	4 310 13                @ ../User/NetBIOS/netbios.c:310:13
	mov	r0, r6
	bl	udp_sendto
	.loc	4 313 13                @ ../User/NetBIOS/netbios.c:313:13
	mov	r0, r10
	bl	pbuf_free
.Ltmp43:
.LBB1_16:
	@DEBUG_VALUE: netbios_recv:p <- $r4
	.loc	4 319 5                 @ ../User/NetBIOS/netbios.c:319:5
	mov	r0, r4
	bl	pbuf_free
	add	sp, #20
	pop.w	{r4, r5, r6, r7, r8, r9, r10, r11, lr}
.Ltmp44:
.LBB1_17:
	.loc	4 321 1                 @ ../User/NetBIOS/netbios.c:321:1
	bx	lr
.Ltmp45:
	.p2align	2
@ %bb.18:
	.loc	4 0 1 is_stmt 0         @ ../User/NetBIOS/netbios.c:0:1
.LCPI1_0:
.L.str:
	.asciz	"HOTEL_CTRL\000"
.Lfunc_end1:
	.size	netbios_recv, .Lfunc_end1-netbios_recv
	.cfi_endproc
	.cantunwind
	.fnend
                                        @ -- End function
	.file	5 "F:\\SkyDrive\\OtvoreniProjekti\\HotelSaplast\\fw\\KontrolerHotela\\HC070318\\Project" "../Libraries/lwip-1.4.1/src/include\\lwip/udp.h"
	.section	".note.GNU-stack","",%progbits
	.eabi_attribute	30, 3	@ Tag_ABI_optimization_goals
	.ARM_attribute	16, 1	@ Tag_AV_eba