	.text
	.syntax unified
	.eabi_attribute	67, "2.09"	@ Tag_conformance
	.cpu	cortex-m4
	.eabi_attribute	6, 13	@ Tag_CPU_arch
	.eabi_attribute	7, 77	@ Tag_CPU_arch_profile
	.eabi_attribute	8, 0	@ Tag_ARM_ISA_use
	.eabi_attribute	9, 2	@ Tag_THUMB_ISA_use
	.fpu	fpv4-sp-d16
	.eabi_attribute	27, 1	@ Tag_ABI_HardFP_use
	.eabi_attribute	36, 1	@ Tag_FP_HP_extension
	.eabi_attribute	34, 1	@ Tag_CPU_unaligned_access
	.eabi_attribute	17, 1	@ Tag_ABI_PCS_GOT_use
	.eabi_attribute	20, 2	@ Tag_ABI_FP_denormal
	.eabi_attribute	21, 0	@ Tag_ABI_FP_exceptions
	.eabi_attribute	23, 1	@ Tag_ABI_FP_number_model
	.eabi_attribute	24, 1	@ Tag_ABI_align_needed
	.eabi_attribute	25, 1	@ Tag_ABI_align_preserved
	.eabi_attribute	28, 1	@ Tag_ABI_VFP_args
	.eabi_attribute	38, 1	@ Tag_ABI_FP_16bit_format
	.eabi_attribute	18, 2	@ Tag_ABI_PCS_wchar_t
	.eabi_attribute	26, 1	@ Tag_ABI_enum_size
	.eabi_attribute	14, 0	@ Tag_ABI_PCS_R9_use
	.file	"netconf.c"
	.file	1 "C:\\Keil\\ARM\\ARMCLANG\\Bin\\..\\include" "stdint.h"
	.file	2 "F:\\SkyDrive\\OtvoreniProjekti\\HotelSaplast\\fw\\KontrolerHotela\\HC070318\\Project" "../User/TFTP_Server/netconf.c"
	.file	3 "F:\\SkyDrive\\OtvoreniProjekti\\HotelSaplast\\fw\\KontrolerHotela\\HC070318\\Project" "../Libraries/lwip-1.4.1/src/include\\lwip/netif.h"
	.file	4 "F:\\SkyDrive\\OtvoreniProjekti\\HotelSaplast\\fw\\KontrolerHotela\\HC070318\\Project" "../Libraries/lwip-1.4.1/port/arch\\cc.h"
	.file	5 "F:\\SkyDrive\\OtvoreniProjekti\\HotelSaplast\\fw\\KontrolerHotela\\HC070318\\Project" "../Libraries/lwip-1.4.1/src/include/ipv4\\lwip/ip_addr.h"
	.file	6 "F:\\SkyDrive\\OtvoreniProjekti\\HotelSaplast\\fw\\KontrolerHotela\\HC070318\\Project" "../Libraries/lwip-1.4.1/src/include\\lwip/err.h"
	.file	7 "F:\\SkyDrive\\OtvoreniProjekti\\HotelSaplast\\fw\\KontrolerHotela\\HC070318\\Project" "../Libraries/lwip-1.4.1/src/include\\lwip/pbuf.h"
	.section	.text.LwIP_Init,"ax",%progbits
	.hidden	LwIP_Init               @ -- Begin function LwIP_Init
	.globl	LwIP_Init
	.p2align	1
	.type	LwIP_Init,%function
	.code	16                      @ @LwIP_Init
	.thumb_func
LwIP_Init:
.Lfunc_begin0:
	.loc	2 56 0                  @ ../User/TFTP_Server/netconf.c:56:0
	.fnstart
	.cfi_sections .debug_frame
	.cfi_startproc
@ %bb.0:
	.save	{r4, r5, r6, r7, r8, r9, lr}
	push.w	{r4, r5, r6, r7, r8, r9, lr}
	.cfi_def_cfa_offset 28
	.cfi_offset lr, -4
	.cfi_offset r9, -8
	.cfi_offset r8, -12
	.cfi_offset r7, -16
	.cfi_offset r6, -20
	.cfi_offset r5, -24
	.cfi_offset r4, -28
	.pad	#28
	sub	sp, #28
	.cfi_def_cfa_offset 56
.Ltmp0:
	.loc	2 62 3 prologue_end     @ ../User/TFTP_Server/netconf.c:62:3
	bl	mem_init
	.loc	2 65 3                  @ ../User/TFTP_Server/netconf.c:65:3
	bl	memp_init
	.loc	2 72 2                  @ ../User/TFTP_Server/netconf.c:72:2
	movw	r6, :lower16:ip_address
	.loc	2 73 2                  @ ../User/TFTP_Server/netconf.c:73:2
	movw	r5, :lower16:subnet_mask
	.loc	2 74 2                  @ ../User/TFTP_Server/netconf.c:74:2
	movw	r4, :lower16:gateway_address
	.loc	2 76 2                  @ ../User/TFTP_Server/netconf.c:76:2
	movw	r7, :lower16:iptxt
	movs	r1, #20
	.loc	2 72 2                  @ ../User/TFTP_Server/netconf.c:72:2
	movt	r6, :upper16:ip_address
	.loc	2 73 2                  @ ../User/TFTP_Server/netconf.c:73:2
	movt	r5, :upper16:subnet_mask
	.loc	2 74 2                  @ ../User/TFTP_Server/netconf.c:74:2
	movt	r4, :upper16:gateway_address
	.loc	2 76 2                  @ ../User/TFTP_Server/netconf.c:76:2
	movt	r7, :upper16:iptxt
	.loc	2 72 2                  @ ../User/TFTP_Server/netconf.c:72:2
	ldr	r0, [r6]
	str	r0, [sp, #24]
	.loc	2 73 2                  @ ../User/TFTP_Server/netconf.c:73:2
	ldr	r0, [r5]
	str	r0, [sp, #20]
	.loc	2 74 2                  @ ../User/TFTP_Server/netconf.c:74:2
	ldr	r0, [r4]
	str	r0, [sp, #16]
	.loc	2 76 2                  @ ../User/TFTP_Server/netconf.c:76:2
	mov	r0, r7
	bl	ClearBuffer
	.loc	2 77 2                  @ ../User/TFTP_Server/netconf.c:77:2
	movw	r9, :lower16:sbnttxt
	movs	r1, #20
	movt	r9, :upper16:sbnttxt
	mov	r0, r9
	bl	ClearBuffer
	.loc	2 78 2                  @ ../User/TFTP_Server/netconf.c:78:2
	movw	r8, :lower16:gtwtxt
	movs	r1, #20
	movt	r8, :upper16:gtwtxt
	mov	r0, r8
	bl	ClearBuffer
	.loc	2 79 39                 @ ../User/TFTP_Server/netconf.c:79:39
	ldrb	r2, [r6]
	.loc	2 79 54 is_stmt 0       @ ../User/TFTP_Server/netconf.c:79:54
	ldrb	r3, [r6, #1]
	.loc	2 79 69                 @ ../User/TFTP_Server/netconf.c:79:69
	ldrb	r0, [r6, #2]
	.loc	2 79 84                 @ ../User/TFTP_Server/netconf.c:79:84
	ldrb	r1, [r6, #3]
	.loc	2 79 2                  @ ../User/TFTP_Server/netconf.c:79:2
	movw	r6, :lower16:.L.str
	movt	r6, :upper16:.L.str
	strd	r0, r1, [sp]
	mov	r0, r7
	mov	r1, r6
	bl	__2sprintf
	.loc	2 80 73 is_stmt 1       @ ../User/TFTP_Server/netconf.c:80:73
	ldrb	r0, [r5, #2]
	.loc	2 80 89 is_stmt 0       @ ../User/TFTP_Server/netconf.c:80:89
	ldrb	r1, [r5, #3]
	.loc	2 80 41                 @ ../User/TFTP_Server/netconf.c:80:41
	ldrb	r2, [r5]
	.loc	2 80 57                 @ ../User/TFTP_Server/netconf.c:80:57
	ldrb	r3, [r5, #1]
	.loc	2 80 2                  @ ../User/TFTP_Server/netconf.c:80:2
	strd	r0, r1, [sp]
	mov	r0, r9
	mov	r1, r6
	bl	__2sprintf
	.loc	2 81 80 is_stmt 1       @ ../User/TFTP_Server/netconf.c:81:80
	ldrb	r0, [r4, #2]
	.loc	2 81 100 is_stmt 0      @ ../User/TFTP_Server/netconf.c:81:100
	ldrb	r1, [r4, #3]
	.loc	2 81 40                 @ ../User/TFTP_Server/netconf.c:81:40
	ldrb	r2, [r4]
	.loc	2 81 60                 @ ../User/TFTP_Server/netconf.c:81:60
	ldrb	r3, [r4, #1]
	.loc	2 81 2                  @ ../User/TFTP_Server/netconf.c:81:2
	strd	r0, r1, [sp]
	mov	r0, r8
	mov	r1, r6
	bl	__2sprintf
.Ltmp1:
	@DEBUG_VALUE: LwIP_Init:gw <- [DW_OP_plus_uconst 16, DW_OP_deref] $sp
	@DEBUG_VALUE: LwIP_Init:netmask <- [DW_OP_plus_uconst 20, DW_OP_deref] $sp
	@DEBUG_VALUE: LwIP_Init:ipaddr <- [DW_OP_plus_uconst 24, DW_OP_deref] $sp
	.loc	2 97 3 is_stmt 1        @ ../User/TFTP_Server/netconf.c:97:3
	movw	r0, :lower16:ethernet_input
	movw	r1, :lower16:ethernetif_init
	movw	r4, :lower16:netif
	movs	r2, #0
	add	r3, sp, #16
	movt	r1, :upper16:ethernetif_init
	movt	r0, :upper16:ethernet_input
	movt	r4, :upper16:netif
	strd	r2, r1, [sp]
	str	r0, [sp, #8]
	add	r1, sp, #24
	add	r2, sp, #20
	mov	r0, r4
	bl	netif_add
	.loc	2 100 3                 @ ../User/TFTP_Server/netconf.c:100:3
	mov	r0, r4
	bl	netif_set_default
	.loc	2 103 3                 @ ../User/TFTP_Server/netconf.c:103:3
	mov	r0, r4
	bl	netif_set_up
	.loc	2 104 1                 @ ../User/TFTP_Server/netconf.c:104:1
	add	sp, #28
.Ltmp2:
	pop.w	{r4, r5, r6, r7, r8, r9, pc}
.Ltmp3:
.Lfunc_end0:
	.size	LwIP_Init, .Lfunc_end0-LwIP_Init
	.cfi_endproc
	.cantunwind
	.fnend
                                        @ -- End function
	.section	.text.LwIP_Pkt_Handle,"ax",%progbits
	.hidden	LwIP_Pkt_Handle         @ -- Begin function LwIP_Pkt_Handle
	.globl	LwIP_Pkt_Handle
	.p2align	1
	.type	LwIP_Pkt_Handle,%function
	.code	16                      @ @LwIP_Pkt_Handle
	.thumb_func
LwIP_Pkt_Handle:
.Lfunc_begin1:
	.loc	2 112 0                 @ ../User/TFTP_Server/netconf.c:112:0
	.fnstart
	.cfi_startproc
@ %bb.0:
	.loc	2 114 3 prologue_end    @ ../User/TFTP_Server/netconf.c:114:3
	movw	r0, :lower16:netif
	movt	r0, :upper16:netif
	b	ethernetif_input
.Ltmp4:
.Lfunc_end1:
	.size	LwIP_Pkt_Handle, .Lfunc_end1-LwIP_Pkt_Handle
	.cfi_endproc
	.cantunwind
	.fnend
                                        @ -- End function
	.section	.text.LwIP_Periodic_Handle,"ax",%progbits
	.hidden	LwIP_Periodic_Handle    @ -- Begin function LwIP_Periodic_Handle
	.globl	LwIP_Periodic_Handle
	.p2align	1
	.type	LwIP_Periodic_Handle,%function
	.code	16                      @ @LwIP_Periodic_Handle
	.thumb_func
LwIP_Periodic_Handle:
.Lfunc_begin2:
	.loc	2 123 0                 @ ../User/TFTP_Server/netconf.c:123:0
	.fnstart
	.cfi_startproc
@ %bb.0:
	.save	{r7, lr}
	push	{r7, lr}
	.cfi_def_cfa_offset 8
	.cfi_offset lr, -4
	.cfi_offset r7, -8
	.pad	#8
	sub	sp, #8
	.cfi_def_cfa_offset 16
	str	r0, [sp, #4]
.Ltmp5:
	.loc	2 126 19 prologue_end   @ ../User/TFTP_Server/netconf.c:126:19
	movw	r0, :lower16:TCPTimer
	movt	r0, :upper16:TCPTimer
	ldr	r1, [r0]
	.loc	2 126 7 is_stmt 0       @ ../User/TFTP_Server/netconf.c:126:7
	ldr	r2, [sp, #4]
	.loc	2 126 17                @ ../User/TFTP_Server/netconf.c:126:17
	subs	r1, r2, r1
.Ltmp6:
	.loc	2 126 7                 @ ../User/TFTP_Server/netconf.c:126:7
	cmp	r1, #250
	blo	.LBB2_2
@ %bb.1:
.Ltmp7:
	.loc	2 127 17 is_stmt 1      @ ../User/TFTP_Server/netconf.c:127:17
	ldr	r1, [sp, #4]
	.loc	2 127 14 is_stmt 0      @ ../User/TFTP_Server/netconf.c:127:14
	str	r1, [r0]
	.loc	2 128 5 is_stmt 1       @ ../User/TFTP_Server/netconf.c:128:5
	bl	tcp_tmr
.Ltmp8:
.LBB2_2:
	.loc	2 133 20                @ ../User/TFTP_Server/netconf.c:133:20
	movw	r0, :lower16:ARPTimer
	movt	r0, :upper16:ARPTimer
	ldr	r1, [r0]
	.loc	2 133 8 is_stmt 0       @ ../User/TFTP_Server/netconf.c:133:8
	ldr	r2, [sp, #4]
	.loc	2 133 18                @ ../User/TFTP_Server/netconf.c:133:18
	subs	r1, r2, r1
	movw	r2, #5000
.Ltmp9:
	.loc	2 133 7                 @ ../User/TFTP_Server/netconf.c:133:7
	cmp	r1, r2
	.loc	2 156 1 is_stmt 1       @ ../User/TFTP_Server/netconf.c:156:1
	itt	lo
	addlo	sp, #8
	poplo	{r7, pc}
.Ltmp10:
	.loc	2 134 17                @ ../User/TFTP_Server/netconf.c:134:17
	ldr	r1, [sp, #4]
	.loc	2 134 14 is_stmt 0      @ ../User/TFTP_Server/netconf.c:134:14
	str	r1, [r0]
	.loc	2 135 5 is_stmt 1       @ ../User/TFTP_Server/netconf.c:135:5
	add	sp, #8
	pop.w	{r7, lr}
	b	etharp_tmr
.Ltmp11:
.Lfunc_end2:
	.size	LwIP_Periodic_Handle, .Lfunc_end2-LwIP_Periodic_Handle
	.cfi_endproc
	.cantunwind
	.fnend
                                        @ -- End function
	.hidden	TCPTimer                @ @TCPTimer
	.type	TCPTimer,%object
	.section	.bss.TCPTimer,"aw",%nobits
	.globl	TCPTimer
	.p2align	2
TCPTimer:
	.long	0                       @ 0x0
	.size	TCPTimer, 4

	.hidden	ARPTimer                @ @ARPTimer
	.type	ARPTimer,%object
	.section	.bss.ARPTimer,"aw",%nobits
	.globl	ARPTimer
	.p2align	2
ARPTimer:
	.long	0                       @ 0x0
	.size	ARPTimer, 4

	.hidden	IPaddress               @ @IPaddress
	.type	IPaddress,%object
	.section	.bss.IPaddress,"aw",%nobits
	.globl	IPaddress
	.p2align	2
IPaddress:
	.long	0                       @ 0x0
	.size	IPaddress, 4

	.hidden	ip_address              @ @ip_address
	.type	ip_address,%object
	.section	.bss.ip_address,"aw",%nobits
	.globl	ip_address
ip_address:
	.zero	4
	.size	ip_address, 4

	.hidden	subnet_mask             @ @subnet_mask
	.type	subnet_mask,%object
	.section	.bss.subnet_mask,"aw",%nobits
	.globl	subnet_mask
subnet_mask:
	.zero	4
	.size	subnet_mask, 4

	.hidden	gateway_address         @ @gateway_address
	.type	gateway_address,%object
	.section	.bss.gateway_address,"aw",%nobits
	.globl	gateway_address
gateway_address:
	.zero	4
	.size	gateway_address, 4

	.hidden	iptxt                   @ @iptxt
	.type	iptxt,%object
	.section	.bss.iptxt,"aw",%nobits
	.globl	iptxt
iptxt:
	.zero	20
	.size	iptxt, 20

	.hidden	sbnttxt                 @ @sbnttxt
	.type	sbnttxt,%object
	.section	.bss.sbnttxt,"aw",%nobits
	.globl	sbnttxt
sbnttxt:
	.zero	20
	.size	sbnttxt, 20

	.hidden	gtwtxt                  @ @gtwtxt
	.type	gtwtxt,%object
	.section	.bss.gtwtxt,"aw",%nobits
	.globl	gtwtxt
gtwtxt:
	.zero	20
	.size	gtwtxt, 20

	.type	.L.str,%object          @ @.str
	.section	.rodata.str1.1,"aMS",%progbits,1
.L.str:
	.asciz	"%d.%d.%d.%d"
	.size	.L.str, 12

	.hidden	netif                   @ @netif
	.type	netif,%object
	.section	.bss.netif,"aw",%nobits
	.globl	netif
	.p2align	2
netif:
	.zero	52
	.size	netif, 52

	.globl	_printf_percent
	.globl	_printf_d
	.globl	_printf_int_dec
	.hidden	_printf_percent
	.hidden	_printf_d
	.hidden	_printf_int_dec
	.section	".note.GNU-stack","",%progbits
	.eabi_attribute	30, 3	@ Tag_ABI_optimization_goals
	.ARM_attribute	16, 1	@ Tag_AV_eba