	.text
	.syntax unified
	.eabi_attribute	67, "2.09"	@ Tag_conformance
	.cpu	cortex-m4
	.eabi_attribute	6, 13	@ Tag_CPU_arch
	.eabi_attribute	7, 77	@ Tag_CPU_arch_profile
	.eabi_attribute	8, 0	@ Tag_ARM_ISA_use
	.eabi_attribute	9, 2	@ Tag_THUMB_ISA_use
	.fpu	fpv4-sp-d16
	.eabi_attribute	27, 1	@ Tag_ABI_HardFP_use
	.eabi_attribute	36, 1	@ Tag_FP_HP_extension
	.eabi_attribute	34, 1	@ Tag_CPU_unaligned_access
	.eabi_attribute	17, 1	@ Tag_ABI_PCS_GOT_use
	.eabi_attribute	20, 2	@ Tag_ABI_FP_denormal
	.eabi_attribute	21, 0	@ Tag_ABI_FP_exceptions
	.eabi_attribute	23, 1	@ Tag_ABI_FP_number_model
	.eabi_attribute	24, 1	@ Tag_ABI_align_needed
	.eabi_attribute	25, 1	@ Tag_ABI_align_preserved
	.eabi_attribute	28, 1	@ Tag_ABI_VFP_args
	.eabi_attribute	38, 1	@ Tag_ABI_FP_16bit_format
	.eabi_attribute	18, 2	@ Tag_ABI_PCS_wchar_t
	.eabi_attribute	26, 1	@ Tag_ABI_enum_size
	.eabi_attribute	14, 0	@ Tag_ABI_PCS_R9_use
	.file	"netif.c"
	.file	1 "F:\\SkyDrive\\OtvoreniProjekti\\HotelSaplast\\fw\\KontrolerHotela\\HC070318\\Project" "../Libraries/lwip-1.4.1/src/include\\lwip/netif.h"
	.file	2 "F:\\SkyDrive\\OtvoreniProjekti\\HotelSaplast\\fw\\KontrolerHotela\\HC070318\\Project" "../Libraries/lwip-1.4.1/port/arch\\cc.h"
	.file	3 "F:\\SkyDrive\\OtvoreniProjekti\\HotelSaplast\\fw\\KontrolerHotela\\HC070318\\Project" "../Libraries/lwip-1.4.1/src/include/ipv4\\lwip/ip_addr.h"
	.file	4 "F:\\SkyDrive\\OtvoreniProjekti\\HotelSaplast\\fw\\KontrolerHotela\\HC070318\\Project" "../Libraries/lwip-1.4.1/src/include\\lwip/err.h"
	.file	5 "F:\\SkyDrive\\OtvoreniProjekti\\HotelSaplast\\fw\\KontrolerHotela\\HC070318\\Project" "../Libraries/lwip-1.4.1/src/include\\lwip/pbuf.h"
	.file	6 "F:\\SkyDrive\\OtvoreniProjekti\\HotelSaplast\\fw\\KontrolerHotela\\HC070318\\Project" "../Libraries/lwip-1.4.1/src/core/netif.c"
	.file	7 "F:\\SkyDrive\\OtvoreniProjekti\\HotelSaplast\\fw\\KontrolerHotela\\HC070318\\Project" "../Libraries/lwip-1.4.1/src/include\\lwip/tcp.h"
	.section	.text.netif_init,"ax",%progbits
	.hidden	netif_init              @ -- Begin function netif_init
	.globl	netif_init
	.p2align	1
	.type	netif_init,%function
	.code	16                      @ @netif_init
	.thumb_func
netif_init:
.Lfunc_begin0:
	.loc	6 107 0                 @ ../Libraries/lwip-1.4.1/src/core/netif.c:107:0
	.fnstart
	.cfi_sections .debug_frame
	.cfi_startproc
@ %bb.0:
	.loc	6 122 1 prologue_end    @ ../Libraries/lwip-1.4.1/src/core/netif.c:122:1
	bx	lr
.Ltmp0:
.Lfunc_end0:
	.size	netif_init, .Lfunc_end0-netif_init
	.cfi_endproc
	.cantunwind
	.fnend
                                        @ -- End function
	.section	.text.netif_add,"ax",%progbits
	.hidden	netif_add               @ -- Begin function netif_add
	.globl	netif_add
	.p2align	1
	.type	netif_add,%function
	.code	16                      @ @netif_add
	.thumb_func
netif_add:
.Lfunc_begin1:
	.loc	6 141 0                 @ ../Libraries/lwip-1.4.1/src/core/netif.c:141:0
	.fnstart
	.cfi_startproc
@ %bb.0:
	.save	{r4, r5, r6, r7, lr}
	push	{r4, r5, r6, r7, lr}
	.cfi_def_cfa_offset 20
	.cfi_offset lr, -4
	.cfi_offset r7, -8
	.cfi_offset r6, -12
	.cfi_offset r5, -16
	.cfi_offset r4, -20
	.pad	#4
	sub	sp, #4
	.cfi_def_cfa_offset 24
	@DEBUG_VALUE: netif_add:netif <- $r0
	@DEBUG_VALUE: netif_add:ipaddr <- $r1
	@DEBUG_VALUE: netif_add:netmask <- $r2
	@DEBUG_VALUE: netif_add:gw <- $r3
.Ltmp1:
	@DEBUG_VALUE: netif_set_addr:netif <- $r0
	@DEBUG_VALUE: netif_set_addr:ipaddr <- $r1
	@DEBUG_VALUE: netif_set_addr:netmask <- $r2
	@DEBUG_VALUE: netif_set_addr:gw <- $r3
	@DEBUG_VALUE: netif_set_netmask:netif <- $r0
	@DEBUG_VALUE: netif_set_netmask:netmask <- $r2
	@DEBUG_VALUE: netif_set_gw:gw <- $r3
	@DEBUG_VALUE: netif_set_gw:netif <- $r0
	movs	r7, #0
	@DEBUG_VALUE: netif_add:input <- [DW_OP_plus_uconst 32] [$sp+0]
	@DEBUG_VALUE: netif_add:init <- [DW_OP_plus_uconst 28] [$sp+0]
	@DEBUG_VALUE: netif_add:state <- [DW_OP_plus_uconst 24] [$sp+0]
.Ltmp2:
	@DEBUG_VALUE: netif_add:gw <- $r5
	@DEBUG_VALUE: netif_add:netmask <- $r6
	@DEBUG_VALUE: netif_add:ipaddr <- $r1
	@DEBUG_VALUE: netif_add:netif <- $r4
	mov	r4, r0
.Ltmp3:
	@DEBUG_VALUE: netif_set_gw:netif <- $r4
	mov	r6, r2
.Ltmp4:
	mov	r5, r3
.Ltmp5:
	@DEBUG_VALUE: netif_set_gw:gw <- $r5
	.loc	6 149 18 prologue_end   @ ../Libraries/lwip-1.4.1/src/core/netif.c:149:18
	strb.w	r7, [r0, #45]
	.loc	6 148 5                 @ ../Libraries/lwip-1.4.1/src/core/netif.c:148:5
	str	r7, [r0, #12]
	.loc	6 146 5                 @ ../Libraries/lwip-1.4.1/src/core/netif.c:146:5
	strd	r7, r7, [r0, #4]
	ldr	r0, [sp, #24]
.Ltmp6:
	.loc	6 173 18                @ ../Libraries/lwip-1.4.1/src/core/netif.c:173:18
	str	r0, [r4, #28]
	.loc	6 174 27                @ ../Libraries/lwip-1.4.1/src/core/netif.c:174:27
	movw	r0, :lower16:netif_num
	movt	r0, :upper16:netif_num
	ldrb	r2, [r0]
.Ltmp7:
	adds	r3, r2, #1
.Ltmp8:
	strb	r3, [r0]
	ldr	r0, [sp, #32]
	.loc	6 175 18                @ ../Libraries/lwip-1.4.1/src/core/netif.c:175:18
	str	r0, [r4, #16]
.Ltmp9:
	.loc	6 226 5                 @ ../Libraries/lwip-1.4.1/src/core/netif.c:226:5
	mov	r0, r4
.Ltmp10:
	@DEBUG_VALUE: netif_set_addr:ipaddr <- $r1
	@DEBUG_VALUE: netif_add:ipaddr <- $r1
	.loc	6 174 16                @ ../Libraries/lwip-1.4.1/src/core/netif.c:174:16
	strb.w	r2, [r4, #48]
.Ltmp11:
	@DEBUG_VALUE: netif_set_addr:gw <- $r5
	@DEBUG_VALUE: netif_set_addr:netmask <- $r6
	@DEBUG_VALUE: netif_set_addr:ipaddr <- $r1
	@DEBUG_VALUE: netif_set_addr:netif <- $r4
	.loc	6 226 5                 @ ../Libraries/lwip-1.4.1/src/core/netif.c:226:5
	bl	netif_set_ipaddr
.Ltmp12:
	@DEBUG_VALUE: netif_set_netmask:netmask <- $r6
	@DEBUG_VALUE: netif_set_netmask:netif <- $r4
	.loc	6 435 5                 @ ../Libraries/lwip-1.4.1/src/core/netif.c:435:5
	cbz	r6, .LBB1_2
.Ltmp13:
@ %bb.1:
	@DEBUG_VALUE: netif_set_netmask:netif <- $r4
	@DEBUG_VALUE: netif_set_netmask:netmask <- $r6
	@DEBUG_VALUE: netif_set_addr:netif <- $r4
	@DEBUG_VALUE: netif_set_addr:netmask <- $r6
	@DEBUG_VALUE: netif_set_addr:gw <- $r5
	@DEBUG_VALUE: netif_add:state <- [DW_OP_plus_uconst 24] [$sp+0]
	@DEBUG_VALUE: netif_add:init <- [DW_OP_plus_uconst 28] [$sp+0]
	@DEBUG_VALUE: netif_add:input <- [DW_OP_plus_uconst 32] [$sp+0]
	ldr	r7, [r6]
.Ltmp14:
.LBB1_2:
	@DEBUG_VALUE: netif_set_netmask:netif <- $r4
	@DEBUG_VALUE: netif_set_netmask:netmask <- $r6
	@DEBUG_VALUE: netif_set_addr:netif <- $r4
	@DEBUG_VALUE: netif_set_addr:netmask <- $r6
	@DEBUG_VALUE: netif_set_addr:gw <- $r5
	@DEBUG_VALUE: netif_add:state <- [DW_OP_plus_uconst 24] [$sp+0]
	@DEBUG_VALUE: netif_add:init <- [DW_OP_plus_uconst 28] [$sp+0]
	@DEBUG_VALUE: netif_add:input <- [DW_OP_plus_uconst 32] [$sp+0]
	str	r7, [r4, #8]
.Ltmp15:
	.loc	6 412 5                 @ ../Libraries/lwip-1.4.1/src/core/netif.c:412:5
	cmp	r5, #0
	ldr	r1, [sp, #28]
	ite	ne
	ldrne	r0, [r5]
	moveq	r0, #0
	str	r0, [r4, #12]
.Ltmp16:
	.loc	6 184 9                 @ ../Libraries/lwip-1.4.1/src/core/netif.c:184:9
	mov	r0, r4
	blx	r1
.Ltmp17:
	.loc	6 184 9 is_stmt 0       @ ../Libraries/lwip-1.4.1/src/core/netif.c:184:9
	cbz	r0, .LBB1_4
.Ltmp18:
@ %bb.3:
	@DEBUG_VALUE: netif_set_netmask:netif <- $r4
	@DEBUG_VALUE: netif_set_netmask:netmask <- $r6
	@DEBUG_VALUE: netif_set_addr:netif <- $r4
	@DEBUG_VALUE: netif_set_addr:netmask <- $r6
	@DEBUG_VALUE: netif_set_addr:gw <- $r5
	@DEBUG_VALUE: netif_add:state <- [DW_OP_plus_uconst 24] [$sp+0]
	@DEBUG_VALUE: netif_add:init <- [DW_OP_plus_uconst 28] [$sp+0]
	@DEBUG_VALUE: netif_add:input <- [DW_OP_plus_uconst 32] [$sp+0]
	.loc	6 0 9                   @ ../Libraries/lwip-1.4.1/src/core/netif.c:0:9
	movs	r4, #0
.Ltmp19:
	b	.LBB1_5
.Ltmp20:
.LBB1_4:
	@DEBUG_VALUE: netif_add:state <- [DW_OP_plus_uconst 24] [$sp+0]
	@DEBUG_VALUE: netif_add:init <- [DW_OP_plus_uconst 28] [$sp+0]
	@DEBUG_VALUE: netif_add:input <- [DW_OP_plus_uconst 32] [$sp+0]
	.loc	6 190 19 is_stmt 1      @ ../Libraries/lwip-1.4.1/src/core/netif.c:190:19
	movw	r0, :lower16:netif_list
	movt	r0, :upper16:netif_list
	ldr	r1, [r0]
	.loc	6 190 17 is_stmt 0      @ ../Libraries/lwip-1.4.1/src/core/netif.c:190:17
	str	r1, [r4]
	.loc	6 191 16 is_stmt 1      @ ../Libraries/lwip-1.4.1/src/core/netif.c:191:16
	str	r4, [r0]
.Ltmp21:
.LBB1_5:
	@DEBUG_VALUE: netif_add:state <- [DW_OP_plus_uconst 24] [$sp+0]
	@DEBUG_VALUE: netif_add:init <- [DW_OP_plus_uconst 28] [$sp+0]
	@DEBUG_VALUE: netif_add:input <- [DW_OP_plus_uconst 32] [$sp+0]
	.loc	6 211 1                 @ ../Libraries/lwip-1.4.1/src/core/netif.c:211:1
	mov	r0, r4
	add	sp, #4
.Ltmp22:
	pop	{r4, r5, r6, r7, pc}
.Ltmp23:
.Lfunc_end1:
	.size	netif_add, .Lfunc_end1-netif_add
	.cfi_endproc
	.cantunwind
	.fnend
                                        @ -- End function
	.section	.text.netif_set_addr,"ax",%progbits
	.hidden	netif_set_addr          @ -- Begin function netif_set_addr
	.globl	netif_set_addr
	.p2align	1
	.type	netif_set_addr,%function
	.code	16                      @ @netif_set_addr
	.thumb_func
netif_set_addr:
.Lfunc_begin2:
	.loc	6 225 0                 @ ../Libraries/lwip-1.4.1/src/core/netif.c:225:0
	.fnstart
	.cfi_startproc
@ %bb.0:
	.save	{r4, r5, r6, lr}
	push	{r4, r5, r6, lr}
	.cfi_def_cfa_offset 16
	.cfi_offset lr, -4
	.cfi_offset r6, -8
	.cfi_offset r5, -12
	.cfi_offset r4, -16
	@DEBUG_VALUE: netif_set_addr:netif <- $r0
	@DEBUG_VALUE: netif_set_addr:ipaddr <- $r1
	@DEBUG_VALUE: netif_set_addr:netmask <- $r2
	@DEBUG_VALUE: netif_set_addr:gw <- $r3
.Ltmp24:
	@DEBUG_VALUE: netif_set_netmask:netif <- $r0
	@DEBUG_VALUE: netif_set_netmask:netmask <- $r2
	@DEBUG_VALUE: netif_set_gw:gw <- $r3
	@DEBUG_VALUE: netif_set_gw:netif <- $r0
	mov	r5, r3
.Ltmp25:
	@DEBUG_VALUE: netif_set_gw:gw <- $r5
	mov	r6, r2
	mov	r4, r0
.Ltmp26:
	@DEBUG_VALUE: netif_set_gw:netif <- $r4
	@DEBUG_VALUE: netif_set_addr:gw <- $r5
	@DEBUG_VALUE: netif_set_addr:netmask <- $r6
	@DEBUG_VALUE: netif_set_addr:ipaddr <- $r1
	@DEBUG_VALUE: netif_set_addr:netif <- $r4
	@DEBUG_VALUE: netif_set_addr:ipaddr <- $r1
	.loc	6 226 5 prologue_end    @ ../Libraries/lwip-1.4.1/src/core/netif.c:226:5
	bl	netif_set_ipaddr
.Ltmp27:
	@DEBUG_VALUE: netif_set_netmask:netmask <- $r6
	@DEBUG_VALUE: netif_set_netmask:netif <- $r4
	.loc	6 435 5                 @ ../Libraries/lwip-1.4.1/src/core/netif.c:435:5
	cmp	r6, #0
	ite	ne
	ldrne	r0, [r6]
	moveq	r0, #0
	str	r0, [r4, #8]
.Ltmp28:
	.loc	6 412 5                 @ ../Libraries/lwip-1.4.1/src/core/netif.c:412:5
	cmp	r5, #0
	ite	ne
	ldrne	r0, [r5]
	moveq	r0, #0
	str	r0, [r4, #12]
.Ltmp29:
	.loc	6 229 1                 @ ../Libraries/lwip-1.4.1/src/core/netif.c:229:1
	pop	{r4, r5, r6, pc}
.Ltmp30:
.Lfunc_end2:
	.size	netif_set_addr, .Lfunc_end2-netif_set_addr
	.cfi_endproc
	.cantunwind
	.fnend
                                        @ -- End function
	.section	.text.netif_set_ipaddr,"ax",%progbits
	.hidden	netif_set_ipaddr        @ -- Begin function netif_set_ipaddr
	.globl	netif_set_ipaddr
	.p2align	1
	.type	netif_set_ipaddr,%function
	.code	16                      @ @netif_set_ipaddr
	.thumb_func
netif_set_ipaddr:
.Lfunc_begin3:
	.loc	6 339 0                 @ ../Libraries/lwip-1.4.1/src/core/netif.c:339:0
	.fnstart
	.cfi_startproc
@ %bb.0:
	.save	{r4, r5, r6, lr}
	push	{r4, r5, r6, lr}
	.cfi_def_cfa_offset 16
	.cfi_offset lr, -4
	.cfi_offset r6, -8
	.cfi_offset r5, -12
	.cfi_offset r4, -16
	@DEBUG_VALUE: netif_set_ipaddr:netif <- $r0
	@DEBUG_VALUE: netif_set_ipaddr:ipaddr <- $r1
	mov	r4, r0
.Ltmp31:
	@DEBUG_VALUE: netif_set_ipaddr:netif <- $r4
	.loc	6 347 16 prologue_end   @ ../Libraries/lwip-1.4.1/src/core/netif.c:347:16
	cbz	r1, .LBB3_11
.Ltmp32:
@ %bb.1:
	@DEBUG_VALUE: netif_set_ipaddr:netif <- $r4
	@DEBUG_VALUE: netif_set_ipaddr:ipaddr <- $r1
	.loc	6 0 16 is_stmt 0        @ ../Libraries/lwip-1.4.1/src/core/netif.c:0:16
	mov	r5, r1
.Ltmp33:
	@DEBUG_VALUE: netif_set_ipaddr:ipaddr <- $r5
	@DEBUG_VALUE: netif_set_ipaddr:ipaddr <- $r5
	.loc	6 347 20                @ ../Libraries/lwip-1.4.1/src/core/netif.c:347:20
	ldr	r1, [r4, #4]
	ldr	r0, [r5]
.Ltmp34:
	.loc	6 347 9                 @ ../Libraries/lwip-1.4.1/src/core/netif.c:347:9
	cmp	r0, r1
	beq	.LBB3_10
.Ltmp35:
@ %bb.2:
	@DEBUG_VALUE: netif_set_ipaddr:ipaddr <- $r5
	@DEBUG_VALUE: netif_set_ipaddr:netif <- $r4
	.loc	6 351 15 is_stmt 1      @ ../Libraries/lwip-1.4.1/src/core/netif.c:351:15
	movw	r0, :lower16:tcp_active_pcbs
	movt	r0, :upper16:tcp_active_pcbs
	ldr	r0, [r0]
.Ltmp36:
	@DEBUG_VALUE: netif_set_ipaddr:pcb <- $r0
	.loc	6 352 9                 @ ../Libraries/lwip-1.4.1/src/core/netif.c:352:9
	cbnz	r0, .LBB3_4
	b	.LBB3_5
.Ltmp37:
	.p2align	2
.LBB3_3:                                @   in Loop: Header=BB3_4 Depth=1
	@DEBUG_VALUE: netif_set_ipaddr:pcb <- $r6
	@DEBUG_VALUE: netif_set_ipaddr:ipaddr <- $r5
	@DEBUG_VALUE: netif_set_ipaddr:netif <- $r4
	.loc	6 355 17                @ ../Libraries/lwip-1.4.1/src/core/netif.c:355:17
	ldr	r1, [r4, #4]
	mov	r0, r6
.Ltmp38:
.LBB3_4:                                @ =>This Inner Loop Header: Depth=1
	@DEBUG_VALUE: netif_set_ipaddr:pcb <- $r0
	@DEBUG_VALUE: netif_set_ipaddr:ipaddr <- $r5
	@DEBUG_VALUE: netif_set_ipaddr:netif <- $r4
	@DEBUG_VALUE: netif_set_ipaddr:pcb <- $r0
	ldr	r2, [r0]
	.loc	6 0 0 is_stmt 0         @ ../Libraries/lwip-1.4.1/src/core/netif.c:0:0
	ldr	r6, [r0, #12]
.Ltmp39:
	@DEBUG_VALUE: next <- $r6
	@DEBUG_VALUE: netif_set_ipaddr:pcb <- $r6
	.loc	6 355 17                @ ../Libraries/lwip-1.4.1/src/core/netif.c:355:17
	cmp	r2, r1
.Ltmp40:
	.loc	6 365 17 is_stmt 1      @ ../Libraries/lwip-1.4.1/src/core/netif.c:365:17
	it	eq
	bleq	tcp_abort
.Ltmp41:
	.loc	6 352 9                 @ ../Libraries/lwip-1.4.1/src/core/netif.c:352:9
	cmp	r6, #0
	bne	.LBB3_3
.Ltmp42:
.LBB3_5:
	@DEBUG_VALUE: netif_set_ipaddr:ipaddr <- $r5
	@DEBUG_VALUE: netif_set_ipaddr:netif <- $r4
	.loc	6 0 0 is_stmt 0         @ ../Libraries/lwip-1.4.1/src/core/netif.c:0:0
	movw	r0, :lower16:tcp_listen_pcbs
	movt	r0, :upper16:tcp_listen_pcbs
	ldr	r0, [r0]
	b	.LBB3_9
.Ltmp43:
	.p2align	2
.LBB3_6:                                @   in Loop: Header=BB3_9 Depth=1
	@DEBUG_VALUE: netif_set_ipaddr:lpcb <- [DW_OP_plus_uconst 12, DW_OP_deref, DW_OP_stack_value] $r0
	@DEBUG_VALUE: netif_set_ipaddr:ipaddr <- $r5
	@DEBUG_VALUE: netif_set_ipaddr:netif <- $r4
	.loc	6 376 20 is_stmt 1      @ ../Libraries/lwip-1.4.1/src/core/netif.c:376:20
	ldr	r1, [r0]
	cbz	r1, .LBB3_8
.Ltmp44:
@ %bb.7:                                @   in Loop: Header=BB3_9 Depth=1
	@DEBUG_VALUE: netif_set_ipaddr:lpcb <- [DW_OP_plus_uconst 12, DW_OP_deref, DW_OP_stack_value] $r0
	@DEBUG_VALUE: netif_set_ipaddr:ipaddr <- $r5
	@DEBUG_VALUE: netif_set_ipaddr:netif <- $r4
	.loc	6 377 22                @ ../Libraries/lwip-1.4.1/src/core/netif.c:377:22
	ldr	r2, [r4, #4]
.Ltmp45:
	.loc	6 376 17                @ ../Libraries/lwip-1.4.1/src/core/netif.c:376:17
	cmp	r1, r2
.Ltmp46:
	.loc	6 381 17                @ ../Libraries/lwip-1.4.1/src/core/netif.c:381:17
	itt	eq
	ldreq	r1, [r5]
	streq	r1, [r0]
.Ltmp47:
.LBB3_8:                                @   in Loop: Header=BB3_9 Depth=1
	@DEBUG_VALUE: netif_set_ipaddr:lpcb <- [DW_OP_plus_uconst 12, DW_OP_deref, DW_OP_stack_value] $r0
	@DEBUG_VALUE: netif_set_ipaddr:ipaddr <- $r5
	@DEBUG_VALUE: netif_set_ipaddr:netif <- $r4
	@DEBUG_VALUE: netif_set_ipaddr:lpcb <- [DW_OP_plus_uconst 12, DW_OP_deref, DW_OP_stack_value] $r0
	.loc	6 0 0 is_stmt 0         @ ../Libraries/lwip-1.4.1/src/core/netif.c:0:0
	ldr	r0, [r0, #12]
.Ltmp48:
.LBB3_9:                                @ =>This Inner Loop Header: Depth=1
	@DEBUG_VALUE: netif_set_ipaddr:ipaddr <- $r5
	@DEBUG_VALUE: netif_set_ipaddr:netif <- $r4
	@DEBUG_VALUE: netif_set_ipaddr:lpcb <- $r0
	.loc	6 373 9 is_stmt 1       @ ../Libraries/lwip-1.4.1/src/core/netif.c:373:9
	cmp	r0, #0
	bne	.LBB3_6
.Ltmp49:
.LBB3_10:
	@DEBUG_VALUE: netif_set_ipaddr:ipaddr <- $r5
	@DEBUG_VALUE: netif_set_ipaddr:netif <- $r4
	.loc	6 389 5                 @ ../Libraries/lwip-1.4.1/src/core/netif.c:389:5
	ldr	r0, [r5]
	b	.LBB3_12
.Ltmp50:
.LBB3_11:
	@DEBUG_VALUE: netif_set_ipaddr:netif <- $r4
	@DEBUG_VALUE: netif_set_ipaddr:ipaddr <- $r1
	.loc	6 0 5 is_stmt 0         @ ../Libraries/lwip-1.4.1/src/core/netif.c:0:5
	movs	r0, #0
.Ltmp51:
.LBB3_12:
	@DEBUG_VALUE: netif_set_ipaddr:netif <- $r4
	.loc	6 389 5                 @ ../Libraries/lwip-1.4.1/src/core/netif.c:389:5
	str	r0, [r4, #4]
	.loc	6 399 1 is_stmt 1       @ ../Libraries/lwip-1.4.1/src/core/netif.c:399:1
	pop	{r4, r5, r6, pc}
.Ltmp52:
.Lfunc_end3:
	.size	netif_set_ipaddr, .Lfunc_end3-netif_set_ipaddr
	.cfi_endproc
	.cantunwind
	.fnend
                                        @ -- End function
	.section	.text.netif_set_netmask,"ax",%progbits
	.hidden	netif_set_netmask       @ -- Begin function netif_set_netmask
	.globl	netif_set_netmask
	.p2align	1
	.type	netif_set_netmask,%function
	.code	16                      @ @netif_set_netmask
	.thumb_func
netif_set_netmask:
.Lfunc_begin4:
	.loc	6 432 0                 @ ../Libraries/lwip-1.4.1/src/core/netif.c:432:0
	.fnstart
	.cfi_startproc
@ %bb.0:
	@DEBUG_VALUE: netif_set_netmask:netif <- $r0
	@DEBUG_VALUE: netif_set_netmask:netif <- $r0
	@DEBUG_VALUE: netif_set_netmask:netmask <- $r1
	@DEBUG_VALUE: netif_set_netmask:netmask <- $r1
	.loc	6 435 5 prologue_end    @ ../Libraries/lwip-1.4.1/src/core/netif.c:435:5
	cmp	r1, #0
	ite	ne
	ldrne	r1, [r1]
.Ltmp53:
	.loc	6 0 5 is_stmt 0         @ ../Libraries/lwip-1.4.1/src/core/netif.c:0:5
	moveq	r1, #0
	.loc	6 435 5                 @ ../Libraries/lwip-1.4.1/src/core/netif.c:435:5
	str	r1, [r0, #8]
	.loc	6 443 1 is_stmt 1       @ ../Libraries/lwip-1.4.1/src/core/netif.c:443:1
	bx	lr
.Ltmp54:
.Lfunc_end4:
	.size	netif_set_netmask, .Lfunc_end4-netif_set_netmask
	.cfi_endproc
	.cantunwind
	.fnend
                                        @ -- End function
	.section	.text.netif_set_gw,"ax",%progbits
	.hidden	netif_set_gw            @ -- Begin function netif_set_gw
	.globl	netif_set_gw
	.p2align	1
	.type	netif_set_gw,%function
	.code	16                      @ @netif_set_gw
	.thumb_func
netif_set_gw:
.Lfunc_begin5:
	.loc	6 411 0                 @ ../Libraries/lwip-1.4.1/src/core/netif.c:411:0
	.fnstart
	.cfi_startproc
@ %bb.0:
	@DEBUG_VALUE: netif_set_gw:netif <- $r0
	@DEBUG_VALUE: netif_set_gw:netif <- $r0
	@DEBUG_VALUE: netif_set_gw:gw <- $r1
	@DEBUG_VALUE: netif_set_gw:gw <- $r1
	.loc	6 412 5 prologue_end    @ ../Libraries/lwip-1.4.1/src/core/netif.c:412:5
	cmp	r1, #0
	ite	ne
	ldrne	r1, [r1]
.Ltmp55:
	.loc	6 0 5 is_stmt 0         @ ../Libraries/lwip-1.4.1/src/core/netif.c:0:5
	moveq	r1, #0
	.loc	6 412 5                 @ ../Libraries/lwip-1.4.1/src/core/netif.c:412:5
	str	r1, [r0, #12]
	.loc	6 419 1 is_stmt 1       @ ../Libraries/lwip-1.4.1/src/core/netif.c:419:1
	bx	lr
.Ltmp56:
.Lfunc_end5:
	.size	netif_set_gw, .Lfunc_end5-netif_set_gw
	.cfi_endproc
	.cantunwind
	.fnend
                                        @ -- End function
	.section	.text.netif_remove,"ax",%progbits
	.hidden	netif_remove            @ -- Begin function netif_remove
	.globl	netif_remove
	.p2align	1
	.type	netif_remove,%function
	.code	16                      @ @netif_remove
	.thumb_func
netif_remove:
.Lfunc_begin6:
	.loc	6 238 0                 @ ../Libraries/lwip-1.4.1/src/core/netif.c:238:0
	.fnstart
	.cfi_startproc
@ %bb.0:
	.save	{r4, lr}
	push	{r4, lr}
	.cfi_def_cfa_offset 8
	.cfi_offset lr, -4
	.cfi_offset r4, -8
	@DEBUG_VALUE: netif_remove:netif <- $r0
.Ltmp57:
	@DEBUG_VALUE: netif_set_down:netif <- $r0
	.loc	6 239 9 prologue_end    @ ../Libraries/lwip-1.4.1/src/core/netif.c:239:9
	cbz	r0, .LBB6_9
.Ltmp58:
@ %bb.1:
	@DEBUG_VALUE: netif_set_down:netif <- $r0
	@DEBUG_VALUE: netif_remove:netif <- $r0
	.loc	6 0 9 is_stmt 0         @ ../Libraries/lwip-1.4.1/src/core/netif.c:0:9
	mov	r4, r0
.Ltmp59:
	@DEBUG_VALUE: netif_remove:netif <- $r4
	@DEBUG_VALUE: netif_set_down:netif <- $r4
	.loc	6 251 9 is_stmt 1       @ ../Libraries/lwip-1.4.1/src/core/netif.c:251:9
	ldrb.w	r0, [r0, #45]
.Ltmp60:
	.loc	6 251 9 is_stmt 0       @ ../Libraries/lwip-1.4.1/src/core/netif.c:251:9
	lsls	r1, r0, #31
	beq	.LBB6_4
.Ltmp61:
@ %bb.2:
	@DEBUG_VALUE: netif_set_down:netif <- $r4
	@DEBUG_VALUE: netif_remove:netif <- $r4
	.loc	6 523 22 is_stmt 1      @ ../Libraries/lwip-1.4.1/src/core/netif.c:523:22
	and	r1, r0, #254
	.loc	6 529 13                @ ../Libraries/lwip-1.4.1/src/core/netif.c:529:13
	lsls	r0, r0, #26
	.loc	6 523 22                @ ../Libraries/lwip-1.4.1/src/core/netif.c:523:22
	strb.w	r1, [r4, #45]
	.loc	6 529 13                @ ../Libraries/lwip-1.4.1/src/core/netif.c:529:13
	bpl	.LBB6_4
.Ltmp62:
@ %bb.3:
	@DEBUG_VALUE: netif_set_down:netif <- $r4
	@DEBUG_VALUE: netif_remove:netif <- $r4
	.loc	6 531 13                @ ../Libraries/lwip-1.4.1/src/core/netif.c:531:13
	mov	r0, r4
	bl	etharp_cleanup_netif
.Ltmp63:
.LBB6_4:
	@DEBUG_VALUE: netif_remove:netif <- $r4
	.loc	6 260 9                 @ ../Libraries/lwip-1.4.1/src/core/netif.c:260:9
	movw	r0, :lower16:netif_list
	movt	r0, :upper16:netif_list
	b	.LBB6_7
.Ltmp64:
	.p2align	2
.LBB6_5:                                @   in Loop: Header=BB6_7 Depth=1
	@DEBUG_VALUE: netif_remove:netif <- $r4
	.loc	6 268 9                 @ ../Libraries/lwip-1.4.1/src/core/netif.c:268:9
	cbz	r1, .LBB6_9
.Ltmp65:
@ %bb.6:                                @   in Loop: Header=BB6_7 Depth=1
	@DEBUG_VALUE: netif_remove:netif <- $r4
	.loc	6 0 0 is_stmt 0         @ ../Libraries/lwip-1.4.1/src/core/netif.c:0:0
	mov	r0, r1
.Ltmp66:
.LBB6_7:                                @ =>This Inner Loop Header: Depth=1
	@DEBUG_VALUE: netif_remove:netif <- $r4
	ldr	r1, [r0]
.Ltmp67:
	cmp	r1, r4
	bne	.LBB6_5
.Ltmp68:
@ %bb.8:
	@DEBUG_VALUE: netif_remove:netif <- $r4
	ldr	r1, [r4]
	str	r1, [r0]
.Ltmp69:
	.loc	6 281 9 is_stmt 1       @ ../Libraries/lwip-1.4.1/src/core/netif.c:281:9
	movw	r0, :lower16:netif_default
	movt	r0, :upper16:netif_default
	ldr	r1, [r0]
.Ltmp70:
	.loc	6 281 9 is_stmt 0       @ ../Libraries/lwip-1.4.1/src/core/netif.c:281:9
	cmp	r1, r4
	itt	eq
	moveq	r1, #0
.Ltmp71:
	@DEBUG_VALUE: netif_set_default:netif <- 0
	.loc	6 464 19 is_stmt 1      @ ../Libraries/lwip-1.4.1/src/core/netif.c:464:19
	streq	r1, [r0]
.Ltmp72:
.LBB6_9:
	.loc	6 293 1                 @ ../Libraries/lwip-1.4.1/src/core/netif.c:293:1
	pop	{r4, pc}
.Ltmp73:
.Lfunc_end6:
	.size	netif_remove, .Lfunc_end6-netif_remove
	.cfi_endproc
	.cantunwind
	.fnend
                                        @ -- End function
	.section	.text.netif_set_down,"ax",%progbits
	.hidden	netif_set_down          @ -- Begin function netif_set_down
	.globl	netif_set_down
	.p2align	1
	.type	netif_set_down,%function
	.code	16                      @ @netif_set_down
	.thumb_func
netif_set_down:
.Lfunc_begin7:
	.loc	6 520 0                 @ ../Libraries/lwip-1.4.1/src/core/netif.c:520:0
	.fnstart
	.cfi_startproc
@ %bb.0:
	@DEBUG_VALUE: netif_set_down:netif <- $r0
	@DEBUG_VALUE: netif_set_down:netif <- $r0
	.loc	6 521 16 prologue_end   @ ../Libraries/lwip-1.4.1/src/core/netif.c:521:16
	ldrb.w	r1, [r0, #45]
.Ltmp74:
	.loc	6 521 9 is_stmt 0       @ ../Libraries/lwip-1.4.1/src/core/netif.c:521:9
	lsls	r2, r1, #31
	.loc	6 536 1 is_stmt 1       @ ../Libraries/lwip-1.4.1/src/core/netif.c:536:1
	it	eq
	bxeq	lr
.Ltmp75:
	.loc	6 523 22                @ ../Libraries/lwip-1.4.1/src/core/netif.c:523:22
	and	r2, r1, #254
	.loc	6 529 13                @ ../Libraries/lwip-1.4.1/src/core/netif.c:529:13
	lsls	r1, r1, #26
	.loc	6 523 22                @ ../Libraries/lwip-1.4.1/src/core/netif.c:523:22
	strb.w	r2, [r0, #45]
.Ltmp76:
	.loc	6 531 13                @ ../Libraries/lwip-1.4.1/src/core/netif.c:531:13
	it	mi
	bmi	etharp_cleanup_netif
.Ltmp77:
	.loc	6 536 1                 @ ../Libraries/lwip-1.4.1/src/core/netif.c:536:1
	bx	lr
.Ltmp78:
.Lfunc_end7:
	.size	netif_set_down, .Lfunc_end7-netif_set_down
	.cfi_endproc
	.cantunwind
	.fnend
                                        @ -- End function
	.section	.text.netif_set_default,"ax",%progbits
	.hidden	netif_set_default       @ -- Begin function netif_set_default
	.globl	netif_set_default
	.p2align	1
	.type	netif_set_default,%function
	.code	16                      @ @netif_set_default
	.thumb_func
netif_set_default:
.Lfunc_begin8:
	.loc	6 453 0                 @ ../Libraries/lwip-1.4.1/src/core/netif.c:453:0
	.fnstart
	.cfi_startproc
@ %bb.0:
	@DEBUG_VALUE: netif_set_default:netif <- $r0
	@DEBUG_VALUE: netif_set_default:netif <- $r0
	.loc	6 464 19 prologue_end   @ ../Libraries/lwip-1.4.1/src/core/netif.c:464:19
	movw	r1, :lower16:netif_default
	movt	r1, :upper16:netif_default
	str	r0, [r1]
	.loc	6 467 1                 @ ../Libraries/lwip-1.4.1/src/core/netif.c:467:1
	bx	lr
.Ltmp79:
.Lfunc_end8:
	.size	netif_set_default, .Lfunc_end8-netif_set_default
	.cfi_endproc
	.cantunwind
	.fnend
                                        @ -- End function
	.section	.text.netif_find,"ax",%progbits
	.hidden	netif_find              @ -- Begin function netif_find
	.globl	netif_find
	.p2align	1
	.type	netif_find,%function
	.code	16                      @ @netif_find
	.thumb_func
netif_find:
.Lfunc_begin9:
	.loc	6 303 0                 @ ../Libraries/lwip-1.4.1/src/core/netif.c:303:0
	.fnstart
	.cfi_startproc
@ %bb.0:
	@DEBUG_VALUE: netif_find:name <- $r0
	.loc	6 307 9 prologue_end    @ ../Libraries/lwip-1.4.1/src/core/netif.c:307:9
	cbz	r0, .LBB9_7
.Ltmp80:
@ %bb.1:
	@DEBUG_VALUE: netif_find:name <- $r0
	.loc	6 0 9 is_stmt 0         @ ../Libraries/lwip-1.4.1/src/core/netif.c:0:9
	mov	r12, r0
.Ltmp81:
	@DEBUG_VALUE: netif_find:name <- $r12
	movw	r0, :lower16:netif_list
	movt	r0, :upper16:netif_list
.Ltmp82:
	@DEBUG_VALUE: netif_find:netif <- [DW_OP_deref] $r0
	ldr	r0, [r0]
.Ltmp83:
	@DEBUG_VALUE: netif_find:netif <- $r0
	.loc	6 314 5 is_stmt 1       @ ../Libraries/lwip-1.4.1/src/core/netif.c:314:5
	cbz	r0, .LBB9_7
.Ltmp84:
@ %bb.2:
	@DEBUG_VALUE: netif_find:netif <- [DW_OP_deref] $r0
	@DEBUG_VALUE: netif_find:name <- $r12
	.loc	6 0 5 is_stmt 0         @ ../Libraries/lwip-1.4.1/src/core/netif.c:0:5
	ldrb.w	r2, [r12, #2]
	subs	r2, #48
.Ltmp85:
	@DEBUG_VALUE: netif_find:num <- $r2
	uxtb	r2, r2
.Ltmp86:
	.p2align	2
.LBB9_3:                                @ =>This Inner Loop Header: Depth=1
	@DEBUG_VALUE: netif_find:netif <- [DW_OP_deref] $r0
	@DEBUG_VALUE: netif_find:name <- $r12
	.loc	6 316 27 is_stmt 1      @ ../Libraries/lwip-1.4.1/src/core/netif.c:316:27
	ldrb.w	r3, [r0, #48]
	.loc	6 316 31 is_stmt 0      @ ../Libraries/lwip-1.4.1/src/core/netif.c:316:31
	cmp	r2, r3
	bne	.LBB9_6
.Ltmp87:
@ %bb.4:                                @   in Loop: Header=BB9_3 Depth=1
	@DEBUG_VALUE: netif_find:netif <- [DW_OP_deref] $r0
	@DEBUG_VALUE: netif_find:name <- $r12
	.loc	6 317 28 is_stmt 1      @ ../Libraries/lwip-1.4.1/src/core/netif.c:317:28
	ldrb.w	r3, [r0, #46]
	.loc	6 317 17 is_stmt 0      @ ../Libraries/lwip-1.4.1/src/core/netif.c:317:17
	ldrb.w	r1, [r12]
	.loc	6 317 43                @ ../Libraries/lwip-1.4.1/src/core/netif.c:317:43
	cmp	r1, r3
	bne	.LBB9_6
.Ltmp88:
@ %bb.5:                                @   in Loop: Header=BB9_3 Depth=1
	@DEBUG_VALUE: netif_find:netif <- [DW_OP_deref] $r0
	@DEBUG_VALUE: netif_find:name <- $r12
	.loc	6 318 28 is_stmt 1      @ ../Libraries/lwip-1.4.1/src/core/netif.c:318:28
	ldrb.w	r1, [r0, #47]
	.loc	6 318 17 is_stmt 0      @ ../Libraries/lwip-1.4.1/src/core/netif.c:318:17
	ldrb.w	r3, [r12, #1]
.Ltmp89:
	.loc	6 316 13 is_stmt 1      @ ../Libraries/lwip-1.4.1/src/core/netif.c:316:13
	cmp	r3, r1
.Ltmp90:
	.loc	6 326 1                 @ ../Libraries/lwip-1.4.1/src/core/netif.c:326:1
	it	eq
	bxeq	lr
.Ltmp91:
.LBB9_6:                                @   in Loop: Header=BB9_3 Depth=1
	@DEBUG_VALUE: netif_find:netif <- [DW_OP_deref] $r0
	@DEBUG_VALUE: netif_find:name <- $r12
	@DEBUG_VALUE: netif_find:netif <- [DW_OP_deref] $r0
	.loc	6 0 0 is_stmt 0         @ ../Libraries/lwip-1.4.1/src/core/netif.c:0:0
	ldr	r0, [r0]
.Ltmp92:
	@DEBUG_VALUE: netif_find:netif <- $r0
	.loc	6 314 5 is_stmt 1       @ ../Libraries/lwip-1.4.1/src/core/netif.c:314:5
	cmp	r0, #0
	bne	.LBB9_3
.Ltmp93:
.LBB9_7:
	.loc	6 0 5 is_stmt 0         @ ../Libraries/lwip-1.4.1/src/core/netif.c:0:5
	movs	r0, #0
	.loc	6 326 1 is_stmt 1       @ ../Libraries/lwip-1.4.1/src/core/netif.c:326:1
	bx	lr
.Ltmp94:
.Lfunc_end9:
	.size	netif_find, .Lfunc_end9-netif_find
	.cfi_endproc
	.cantunwind
	.fnend
                                        @ -- End function
	.section	.text.netif_set_up,"ax",%progbits
	.hidden	netif_set_up            @ -- Begin function netif_set_up
	.globl	netif_set_up
	.p2align	1
	.type	netif_set_up,%function
	.code	16                      @ @netif_set_up
	.thumb_func
netif_set_up:
.Lfunc_begin10:
	.loc	6 479 0                 @ ../Libraries/lwip-1.4.1/src/core/netif.c:479:0
	.fnstart
	.cfi_startproc
@ %bb.0:
	@DEBUG_VALUE: netif_set_up:netif <- $r0
	@DEBUG_VALUE: netif_set_up:netif <- $r0
	.loc	6 480 18 prologue_end   @ ../Libraries/lwip-1.4.1/src/core/netif.c:480:18
	ldrb.w	r1, [r0, #45]
.Ltmp95:
	.loc	6 480 9 is_stmt 0       @ ../Libraries/lwip-1.4.1/src/core/netif.c:480:9
	lsls	r2, r1, #31
	.loc	6 509 1 is_stmt 1       @ ../Libraries/lwip-1.4.1/src/core/netif.c:509:1
	it	ne
	bxne	lr
.Ltmp96:
	.loc	6 482 22                @ ../Libraries/lwip-1.4.1/src/core/netif.c:482:22
	orr	r2, r1, #1
	.loc	6 490 13                @ ../Libraries/lwip-1.4.1/src/core/netif.c:490:13
	and	r1, r1, #48
	cmp	r1, #48
	.loc	6 482 22                @ ../Libraries/lwip-1.4.1/src/core/netif.c:482:22
	strb.w	r2, [r0, #45]
	.loc	6 490 13                @ ../Libraries/lwip-1.4.1/src/core/netif.c:490:13
	bne	.LBB10_2
@ %bb.1:
	@DEBUG_VALUE: netif_set_up:netif <- $r0
.Ltmp97:
	.loc	6 496 17                @ ../Libraries/lwip-1.4.1/src/core/netif.c:496:17
	adds	r1, r0, #4
	b	etharp_request
.Ltmp98:
.LBB10_2:
	@DEBUG_VALUE: netif_set_up:netif <- $r0
	.loc	6 509 1                 @ ../Libraries/lwip-1.4.1/src/core/netif.c:509:1
	bx	lr
.Ltmp99:
.Lfunc_end10:
	.size	netif_set_up, .Lfunc_end10-netif_set_up
	.cfi_endproc
	.cantunwind
	.fnend
                                        @ -- End function
	.section	.text.netif_set_link_up,"ax",%progbits
	.hidden	netif_set_link_up       @ -- Begin function netif_set_link_up
	.globl	netif_set_link_up
	.p2align	1
	.type	netif_set_link_up,%function
	.code	16                      @ @netif_set_link_up
	.thumb_func
netif_set_link_up:
.Lfunc_begin11:
	.loc	6 571 0                 @ ../Libraries/lwip-1.4.1/src/core/netif.c:571:0
	.fnstart
	.cfi_startproc
@ %bb.0:
	@DEBUG_VALUE: netif_set_link_up:netif <- $r0
	@DEBUG_VALUE: netif_set_link_up:netif <- $r0
	.loc	6 572 18 prologue_end   @ ../Libraries/lwip-1.4.1/src/core/netif.c:572:18
	ldrb.w	r1, [r0, #45]
.Ltmp100:
	.loc	6 572 9 is_stmt 0       @ ../Libraries/lwip-1.4.1/src/core/netif.c:572:9
	lsls	r2, r1, #27
	.loc	6 610 1 is_stmt 1       @ ../Libraries/lwip-1.4.1/src/core/netif.c:610:1
	it	mi
	bxmi	lr
.Ltmp101:
	.loc	6 574 22                @ ../Libraries/lwip-1.4.1/src/core/netif.c:574:22
	orr	r2, r1, #16
	.loc	6 590 13                @ ../Libraries/lwip-1.4.1/src/core/netif.c:590:13
	and	r1, r1, #33
	cmp	r1, #33
	.loc	6 574 22                @ ../Libraries/lwip-1.4.1/src/core/netif.c:574:22
	strb.w	r2, [r0, #45]
	.loc	6 590 13                @ ../Libraries/lwip-1.4.1/src/core/netif.c:590:13
	bne	.LBB11_2
@ %bb.1:
	@DEBUG_VALUE: netif_set_link_up:netif <- $r0
.Ltmp102:
	.loc	6 596 17                @ ../Libraries/lwip-1.4.1/src/core/netif.c:596:17
	adds	r1, r0, #4
	b	etharp_request
.Ltmp103:
.LBB11_2:
	@DEBUG_VALUE: netif_set_link_up:netif <- $r0
	.loc	6 610 1                 @ ../Libraries/lwip-1.4.1/src/core/netif.c:610:1
	bx	lr
.Ltmp104:
.Lfunc_end11:
	.size	netif_set_link_up, .Lfunc_end11-netif_set_link_up
	.cfi_endproc
	.cantunwind
	.fnend
                                        @ -- End function
	.section	.text.netif_set_link_down,"ax",%progbits
	.hidden	netif_set_link_down     @ -- Begin function netif_set_link_down
	.globl	netif_set_link_down
	.p2align	1
	.type	netif_set_link_down,%function
	.code	16                      @ @netif_set_link_down
	.thumb_func
netif_set_link_down:
.Lfunc_begin12:
	.loc	6 616 0                 @ ../Libraries/lwip-1.4.1/src/core/netif.c:616:0
	.fnstart
	.cfi_startproc
@ %bb.0:
	@DEBUG_VALUE: netif_set_link_down:netif <- $r0
	@DEBUG_VALUE: netif_set_link_down:netif <- $r0
	.loc	6 617 16 prologue_end   @ ../Libraries/lwip-1.4.1/src/core/netif.c:617:16
	ldrb.w	r1, [r0, #45]
.Ltmp105:
	.loc	6 617 9 is_stmt 0       @ ../Libraries/lwip-1.4.1/src/core/netif.c:617:9
	lsls	r2, r1, #27
.Ltmp106:
	.loc	6 619 22 is_stmt 1      @ ../Libraries/lwip-1.4.1/src/core/netif.c:619:22
	itt	mi
	andmi	r1, r1, #239
	strbmi.w	r1, [r0, #45]
.Ltmp107:
	.loc	6 622 1                 @ ../Libraries/lwip-1.4.1/src/core/netif.c:622:1
	bx	lr
.Ltmp108:
.Lfunc_end12:
	.size	netif_set_link_down, .Lfunc_end12-netif_set_link_down
	.cfi_endproc
	.cantunwind
	.fnend
                                        @ -- End function
	.type	netif_num,%object       @ @netif_num
	.section	.bss.netif_num,"aw",%nobits
netif_num:
	.byte	0                       @ 0x0
	.size	netif_num, 1

	.hidden	netif_list              @ @netif_list
	.type	netif_list,%object
	.section	.bss.netif_list,"aw",%nobits
	.globl	netif_list
	.p2align	2
netif_list:
	.long	0
	.size	netif_list, 4

	.hidden	netif_default           @ @netif_default
	.type	netif_default,%object
	.section	.bss.netif_default,"aw",%nobits
	.globl	netif_default
	.p2align	2
netif_default:
	.long	0
	.size	netif_default, 4

	.file	8 "F:\\SkyDrive\\OtvoreniProjekti\\HotelSaplast\\fw\\KontrolerHotela\\HC070318\\Project" "../Libraries/lwip-1.4.1/src/include\\lwip/tcp_impl.h"
	.section	".note.GNU-stack","",%progbits
	.eabi_attribute	30, 3	@ Tag_ABI_optimization_goals
	.ARM_attribute	16, 1	@ Tag_AV_eba