	.text
	.syntax unified
	.eabi_attribute	67, "2.09"	@ Tag_conformance
	.cpu	cortex-m4
	.eabi_attribute	6, 13	@ Tag_CPU_arch
	.eabi_attribute	7, 77	@ Tag_CPU_arch_profile
	.eabi_attribute	8, 0	@ Tag_ARM_ISA_use
	.eabi_attribute	9, 2	@ Tag_THUMB_ISA_use
	.fpu	fpv4-sp-d16
	.eabi_attribute	27, 1	@ Tag_ABI_HardFP_use
	.eabi_attribute	36, 1	@ Tag_FP_HP_extension
	.eabi_attribute	34, 1	@ Tag_CPU_unaligned_access
	.eabi_attribute	17, 1	@ Tag_ABI_PCS_GOT_use
	.eabi_attribute	20, 2	@ Tag_ABI_FP_denormal
	.eabi_attribute	21, 0	@ Tag_ABI_FP_exceptions
	.eabi_attribute	23, 1	@ Tag_ABI_FP_number_model
	.eabi_attribute	24, 1	@ Tag_ABI_align_needed
	.eabi_attribute	25, 1	@ Tag_ABI_align_preserved
	.eabi_attribute	28, 1	@ Tag_ABI_VFP_args
	.eabi_attribute	38, 1	@ Tag_ABI_FP_16bit_format
	.eabi_attribute	18, 2	@ Tag_ABI_PCS_wchar_t
	.eabi_attribute	26, 1	@ Tag_ABI_enum_size
	.eabi_attribute	14, 0	@ Tag_ABI_PCS_R9_use
	.file	"pbuf.c"
	.file	1 "F:\\SkyDrive\\OtvoreniProjekti\\HotelSaplast\\fw\\KontrolerHotela\\HC070318\\Project" "../Libraries/lwip-1.4.1/port/arch\\cc.h"
	.file	2 "F:\\SkyDrive\\OtvoreniProjekti\\HotelSaplast\\fw\\KontrolerHotela\\HC070318\\Project" "../Libraries/lwip-1.4.1/src/core/pbuf.c"
	.file	3 "F:\\SkyDrive\\OtvoreniProjekti\\HotelSaplast\\fw\\KontrolerHotela\\HC070318\\Project" "../Libraries/lwip-1.4.1/src/include\\lwip/tcp.h"
	.file	4 "F:\\SkyDrive\\OtvoreniProjekti\\HotelSaplast\\fw\\KontrolerHotela\\HC070318\\Project" "../Libraries/lwip-1.4.1/src/include\\lwip/pbuf.h"
	.file	5 "F:\\SkyDrive\\OtvoreniProjekti\\HotelSaplast\\fw\\KontrolerHotela\\HC070318\\Project" "../Libraries/lwip-1.4.1/src/include\\lwip/memp.h"
	.section	.text.pbuf_free_ooseq,"ax",%progbits
	.hidden	pbuf_free_ooseq         @ -- Begin function pbuf_free_ooseq
	.globl	pbuf_free_ooseq
	.p2align	1
	.type	pbuf_free_ooseq,%function
	.code	16                      @ @pbuf_free_ooseq
	.thumb_func
pbuf_free_ooseq:
.Lfunc_begin0:
	.loc	2 119 0                 @ ../Libraries/lwip-1.4.1/src/core/pbuf.c:119:0
	.fnstart
	.cfi_sections .debug_frame
	.cfi_startproc
@ %bb.0:
	.save	{r4, lr}
	push	{r4, lr}
	.cfi_def_cfa_offset 8
	.cfi_offset lr, -4
	.cfi_offset r4, -8
.Ltmp0:
	.loc	2 124 29 prologue_end   @ ../Libraries/lwip-1.4.1/src/core/pbuf.c:124:29
	movw	r0, :lower16:pbuf_free_ooseq_pending
	movs	r1, #0
	movt	r0, :upper16:pbuf_free_ooseq_pending
	strb	r1, [r0]
.Ltmp1:
	.loc	2 0 0 is_stmt 0         @ ../Libraries/lwip-1.4.1/src/core/pbuf.c:0:0
	movw	r0, :lower16:tcp_active_pcbs
	movt	r0, :upper16:tcp_active_pcbs
.Ltmp2:
	@DEBUG_VALUE: pbuf_free_ooseq:pcb <- [DW_OP_deref] $r0
	ldr	r4, [r0]
	b	.LBB0_2
.Ltmp3:
	.p2align	2
.LBB0_1:                                @   in Loop: Header=BB0_2 Depth=1
	@DEBUG_VALUE: pbuf_free_ooseq:pcb <- [DW_OP_plus_uconst 12, DW_OP_deref, DW_OP_stack_value] $r4
	ldr	r4, [r4, #12]
.Ltmp4:
.LBB0_2:                                @ =>This Inner Loop Header: Depth=1
	@DEBUG_VALUE: pbuf_free_ooseq:pcb <- [DW_OP_deref] $r0
	@DEBUG_VALUE: pbuf_free_ooseq:pcb <- $r4
	.loc	2 127 5 is_stmt 1       @ ../Libraries/lwip-1.4.1/src/core/pbuf.c:127:5
	cmp	r4, #0
.Ltmp5:
	.loc	2 138 1                 @ ../Libraries/lwip-1.4.1/src/core/pbuf.c:138:1
	it	eq
	popeq	{r4, pc}
.Ltmp6:
	.loc	2 129 26                @ ../Libraries/lwip-1.4.1/src/core/pbuf.c:129:26
	ldr	r0, [r4, #116]
.Ltmp7:
	.loc	2 129 13 is_stmt 0      @ ../Libraries/lwip-1.4.1/src/core/pbuf.c:129:13
	cmp	r0, #0
	beq	.LBB0_1
@ %bb.3:
.Ltmp8:
	.loc	2 133 13 is_stmt 1      @ ../Libraries/lwip-1.4.1/src/core/pbuf.c:133:13
	bl	tcp_segs_free
	movs	r0, #0
	.loc	2 134 24                @ ../Libraries/lwip-1.4.1/src/core/pbuf.c:134:24
	str	r0, [r4, #116]
.Ltmp9:
	.loc	2 138 1                 @ ../Libraries/lwip-1.4.1/src/core/pbuf.c:138:1
	pop	{r4, pc}
.Ltmp10:
.Lfunc_end0:
	.size	pbuf_free_ooseq, .Lfunc_end0-pbuf_free_ooseq
	.cfi_endproc
	.cantunwind
	.fnend
                                        @ -- End function
	.section	.text.pbuf_alloc,"ax",%progbits
	.hidden	pbuf_alloc              @ -- Begin function pbuf_alloc
	.globl	pbuf_alloc
	.p2align	2
	.type	pbuf_alloc,%function
	.code	16                      @ @pbuf_alloc
	.thumb_func
pbuf_alloc:
.Lfunc_begin1:
	.loc	2 212 0                 @ ../Libraries/lwip-1.4.1/src/core/pbuf.c:212:0
	.fnstart
	.cfi_startproc
@ %bb.0:
	.save	{r4, r5, r6, r7, r8, r9, r10, lr}
	push.w	{r4, r5, r6, r7, r8, r9, r10, lr}
	.cfi_def_cfa_offset 32
	.cfi_offset lr, -4
	.cfi_offset r10, -8
	.cfi_offset r9, -12
	.cfi_offset r8, -16
	.cfi_offset r7, -20
	.cfi_offset r6, -24
	.cfi_offset r5, -28
	.cfi_offset r4, -32
	@DEBUG_VALUE: pbuf_alloc:layer <- $r0
	@DEBUG_VALUE: pbuf_alloc:length <- $r1
	@DEBUG_VALUE: pbuf_alloc:type <- $r2
	@DEBUG_VALUE: pbuf_alloc:layer <- $r0
.Ltmp11:
	.loc	2 219 5 prologue_end    @ ../Libraries/lwip-1.4.1/src/core/pbuf.c:219:5
	cmp	r0, #3
	bhi.w	.LBB1_17
.Ltmp12:
@ %bb.1:
	@DEBUG_VALUE: pbuf_alloc:type <- $r2
	@DEBUG_VALUE: pbuf_alloc:length <- $r1
	@DEBUG_VALUE: pbuf_alloc:layer <- $r0
	.loc	2 0 5 is_stmt 0         @ ../Libraries/lwip-1.4.1/src/core/pbuf.c:0:5
	mov	r5, r1
.Ltmp13:
	@DEBUG_VALUE: pbuf_alloc:length <- $r5
	@DEBUG_VALUE: pbuf_alloc:length <- $r5
	.loc	2 241 5 is_stmt 1       @ ../Libraries/lwip-1.4.1/src/core/pbuf.c:241:5
	subs	r1, r2, #1
	mov	r6, r2
.Ltmp14:
	@DEBUG_VALUE: pbuf_alloc:type <- $r6
	@DEBUG_VALUE: pbuf_alloc:type <- $r6
	cmp	r1, #2
	blo	.LBB1_9
.Ltmp15:
@ %bb.2:
	@DEBUG_VALUE: pbuf_alloc:type <- $r6
	@DEBUG_VALUE: pbuf_alloc:length <- $r5
	@DEBUG_VALUE: pbuf_alloc:layer <- $r0
	.loc	2 0 5 is_stmt 0         @ ../Libraries/lwip-1.4.1/src/core/pbuf.c:0:5
	sxtb	r0, r0
.Ltmp16:
	adr	r1, .LCPI1_0
	.loc	2 241 5                 @ ../Libraries/lwip-1.4.1/src/core/pbuf.c:241:5
	cmp	r6, #0
	ldr.w	r4, [r1, r0, lsl #2]
	beq	.LBB1_11
.Ltmp17:
@ %bb.3:
	@DEBUG_VALUE: pbuf_alloc:type <- $r6
	@DEBUG_VALUE: pbuf_alloc:length <- $r5
	cmp	r6, #3
	bne	.LBB1_17
.Ltmp18:
@ %bb.4:
	@DEBUG_VALUE: pbuf_alloc:type <- $r6
	@DEBUG_VALUE: pbuf_alloc:length <- $r5
	.loc	2 245 29 is_stmt 1      @ ../Libraries/lwip-1.4.1/src/core/pbuf.c:245:29
	movs	r0, #9
	bl	memp_malloc
	.loc	2 247 13                @ ../Libraries/lwip-1.4.1/src/core/pbuf.c:247:13
	cmp	r0, #0
	beq	.LBB1_15
.Ltmp19:
@ %bb.5:
	@DEBUG_VALUE: pbuf_alloc:type <- $r6
	@DEBUG_VALUE: pbuf_alloc:length <- $r5
	.loc	2 0 13 is_stmt 0        @ ../Libraries/lwip-1.4.1/src/core/pbuf.c:0:13
	mov.w	r8, #1
	mov.w	r10, #3
	mov	r7, r0
.Ltmp20:
	@DEBUG_VALUE: pbuf_alloc:r <- $r7
	@DEBUG_VALUE: pbuf_alloc:p <- $r7
	mov.w	r9, #0
	movw	r6, #1516
.Ltmp21:
	.loc	2 269 16 is_stmt 1      @ ../Libraries/lwip-1.4.1/src/core/pbuf.c:269:16
	strh.w	r8, [r0, #14]
	.loc	2 260 20                @ ../Libraries/lwip-1.4.1/src/core/pbuf.c:260:20
	strh	r5, [r0, #8]
	.loc	2 252 17                @ ../Libraries/lwip-1.4.1/src/core/pbuf.c:252:17
	strb.w	r10, [r0, #12]
	.loc	2 245 13                @ ../Libraries/lwip-1.4.1/src/core/pbuf.c:245:13
	add	r0, r4
	.loc	2 256 22                @ ../Libraries/lwip-1.4.1/src/core/pbuf.c:256:22
	adds	r0, #19
	bic	r0, r0, #3
	.loc	2 253 17                @ ../Libraries/lwip-1.4.1/src/core/pbuf.c:253:17
	strd	r9, r0, [r7]
	.loc	2 262 18                @ ../Libraries/lwip-1.4.1/src/core/pbuf.c:262:18
	adds	r0, r4, #3
	and	r0, r0, #124
	subs	r0, r6, r0
	cmp	r0, r5
	it	hi
	movhi	r0, r5
	.loc	2 276 26                @ ../Libraries/lwip-1.4.1/src/core/pbuf.c:276:26
	subs	r5, r5, r0
.Ltmp22:
	@DEBUG_VALUE: pbuf_alloc:rem_len <- $r5
	.loc	2 262 16                @ ../Libraries/lwip-1.4.1/src/core/pbuf.c:262:16
	strh	r0, [r7, #10]
	.loc	2 278 9                 @ ../Libraries/lwip-1.4.1/src/core/pbuf.c:278:9
	cmp	r5, #1
	blt	.LBB1_14
.Ltmp23:
@ %bb.6:
	@DEBUG_VALUE: pbuf_alloc:rem_len <- $r5
	@DEBUG_VALUE: pbuf_alloc:p <- $r7
	@DEBUG_VALUE: pbuf_alloc:r <- $r7
	.loc	2 0 9 is_stmt 0         @ ../Libraries/lwip-1.4.1/src/core/pbuf.c:0:9
	mov	r4, r7
.Ltmp24:
	.p2align	2
.LBB1_7:                                @ =>This Inner Loop Header: Depth=1
	@DEBUG_VALUE: pbuf_alloc:rem_len <- $r5
	@DEBUG_VALUE: pbuf_alloc:p <- $r7
	@DEBUG_VALUE: pbuf_alloc:r <- $r7
	@DEBUG_VALUE: pbuf_alloc:r <- $r4
	@DEBUG_VALUE: pbuf_alloc:rem_len <- $r5
	.loc	2 280 33 is_stmt 1      @ ../Libraries/lwip-1.4.1/src/core/pbuf.c:280:33
	movs	r0, #9
	bl	memp_malloc
	.loc	2 281 17                @ ../Libraries/lwip-1.4.1/src/core/pbuf.c:281:17
	cmp	r0, #0
	beq	.LBB1_16
.Ltmp25:
@ %bb.8:                                @   in Loop: Header=BB1_7 Depth=1
	@DEBUG_VALUE: pbuf_alloc:r <- $r4
	@DEBUG_VALUE: pbuf_alloc:rem_len <- $r5
	@DEBUG_VALUE: pbuf_alloc:p <- $r7
	@DEBUG_VALUE: pbuf_alloc:r <- $r0
	@DEBUG_VALUE: pbuf_alloc:q <- $r0
	.loc	2 298 22                @ ../Libraries/lwip-1.4.1/src/core/pbuf.c:298:22
	uxth	r1, r5
	.loc	2 289 21                @ ../Libraries/lwip-1.4.1/src/core/pbuf.c:289:21
	strh.w	r10, [r0, #12]
	.loc	2 291 21                @ ../Libraries/lwip-1.4.1/src/core/pbuf.c:291:21
	str.w	r9, [r0]
	.loc	2 293 21                @ ../Libraries/lwip-1.4.1/src/core/pbuf.c:293:21
	str	r0, [r4]
	.loc	2 299 47                @ ../Libraries/lwip-1.4.1/src/core/pbuf.c:299:47
	add.w	r2, r0, #16
	mov	r4, r0
.Ltmp26:
	@DEBUG_VALUE: pbuf_alloc:q <- $r4
	@DEBUG_VALUE: pbuf_alloc:r <- $r4
	.loc	2 298 22                @ ../Libraries/lwip-1.4.1/src/core/pbuf.c:298:22
	cmp	r1, r6
	it	hs
	movhs	r1, r6
	.loc	2 298 20 is_stmt 0      @ ../Libraries/lwip-1.4.1/src/core/pbuf.c:298:20
	strh	r1, [r0, #10]
	.loc	2 296 24 is_stmt 1      @ ../Libraries/lwip-1.4.1/src/core/pbuf.c:296:24
	strh	r5, [r0, #8]
	.loc	2 307 21                @ ../Libraries/lwip-1.4.1/src/core/pbuf.c:307:21
	subs	r5, r5, r1
.Ltmp27:
	@DEBUG_VALUE: pbuf_alloc:rem_len <- $r5
	.loc	2 305 20                @ ../Libraries/lwip-1.4.1/src/core/pbuf.c:305:20
	strh.w	r8, [r0, #14]
	.loc	2 299 24                @ ../Libraries/lwip-1.4.1/src/core/pbuf.c:299:24
	str	r2, [r0, #4]
.Ltmp28:
	.loc	2 278 9                 @ ../Libraries/lwip-1.4.1/src/core/pbuf.c:278:9
	cmp	r5, #0
	bgt	.LBB1_7
	b	.LBB1_14
.Ltmp29:
.LBB1_9:
	@DEBUG_VALUE: pbuf_alloc:type <- $r6
	@DEBUG_VALUE: pbuf_alloc:length <- $r5
	@DEBUG_VALUE: pbuf_alloc:layer <- $r0
	.loc	2 336 29                @ ../Libraries/lwip-1.4.1/src/core/pbuf.c:336:29
	movs	r0, #8
.Ltmp30:
	bl	memp_malloc
	movs	r7, #0
	.loc	2 337 13                @ ../Libraries/lwip-1.4.1/src/core/pbuf.c:337:13
	cbz	r0, .LBB1_18
.Ltmp31:
@ %bb.10:
	@DEBUG_VALUE: pbuf_alloc:type <- $r6
	@DEBUG_VALUE: pbuf_alloc:length <- $r5
	@DEBUG_VALUE: pbuf_alloc:p <- $r0
	.loc	2 346 16                @ ../Libraries/lwip-1.4.1/src/core/pbuf.c:346:16
	strh	r5, [r0, #10]
	.loc	2 346 29 is_stmt 0      @ ../Libraries/lwip-1.4.1/src/core/pbuf.c:346:29
	strh	r5, [r0, #8]
	.loc	2 348 17 is_stmt 1      @ ../Libraries/lwip-1.4.1/src/core/pbuf.c:348:17
	strb	r6, [r0, #12]
	.loc	2 347 17                @ ../Libraries/lwip-1.4.1/src/core/pbuf.c:347:17
	strd	r7, r7, [r0]
	b	.LBB1_13
.Ltmp32:
.LBB1_11:
	@DEBUG_VALUE: pbuf_alloc:type <- $r6
	@DEBUG_VALUE: pbuf_alloc:length <- $r5
	.loc	2 317 90                @ ../Libraries/lwip-1.4.1/src/core/pbuf.c:317:90
	adds	r0, r5, #3
	.loc	2 317 39 is_stmt 0      @ ../Libraries/lwip-1.4.1/src/core/pbuf.c:317:39
	add.w	r1, r4, #19
	.loc	2 317 90                @ ../Libraries/lwip-1.4.1/src/core/pbuf.c:317:90
	bic	r0, r0, #3
	.loc	2 317 39                @ ../Libraries/lwip-1.4.1/src/core/pbuf.c:317:39
	and	r1, r1, #124
	add	r0, r1
	.loc	2 317 28                @ ../Libraries/lwip-1.4.1/src/core/pbuf.c:317:28
	uxth	r0, r0
	bl	mem_malloc
	movs	r7, #0
	.loc	2 318 13 is_stmt 1      @ ../Libraries/lwip-1.4.1/src/core/pbuf.c:318:13
	cbz	r0, .LBB1_18
.Ltmp33:
@ %bb.12:
	@DEBUG_VALUE: pbuf_alloc:type <- $r6
	@DEBUG_VALUE: pbuf_alloc:length <- $r5
	@DEBUG_VALUE: pbuf_alloc:p <- $r0
	.loc	2 323 22                @ ../Libraries/lwip-1.4.1/src/core/pbuf.c:323:22
	adds	r1, r0, r4
	.loc	2 324 16                @ ../Libraries/lwip-1.4.1/src/core/pbuf.c:324:16
	strh	r5, [r0, #10]
	.loc	2 324 29 is_stmt 0      @ ../Libraries/lwip-1.4.1/src/core/pbuf.c:324:29
	strh	r5, [r0, #8]
	.loc	2 326 17 is_stmt 1      @ ../Libraries/lwip-1.4.1/src/core/pbuf.c:326:17
	strb	r7, [r0, #12]
	.loc	2 323 22                @ ../Libraries/lwip-1.4.1/src/core/pbuf.c:323:22
	adds	r1, #19
	bic	r1, r1, #3
	.loc	2 325 17                @ ../Libraries/lwip-1.4.1/src/core/pbuf.c:325:17
	strd	r7, r1, [r0]
.Ltmp34:
.LBB1_13:
	@DEBUG_VALUE: pbuf_alloc:p <- $r0
	@DEBUG_VALUE: pbuf_alloc:type <- $r6
	@DEBUG_VALUE: pbuf_alloc:length <- $r5
	.loc	2 0 0 is_stmt 0         @ ../Libraries/lwip-1.4.1/src/core/pbuf.c:0:0
	mov	r7, r0
.Ltmp35:
	@DEBUG_VALUE: pbuf_alloc:p <- $r7
	@DEBUG_VALUE: pbuf_alloc:p <- $r7
.LBB1_14:
	@DEBUG_VALUE: pbuf_alloc:p <- $r7
	@DEBUG_VALUE: pbuf_alloc:p <- $r7
	movs	r0, #0
	.loc	2 357 14 is_stmt 1      @ ../Libraries/lwip-1.4.1/src/core/pbuf.c:357:14
	strb	r0, [r7, #13]
	movs	r0, #1
	.loc	2 355 12                @ ../Libraries/lwip-1.4.1/src/core/pbuf.c:355:12
	strh	r0, [r7, #14]
	b	.LBB1_18
.Ltmp36:
.LBB1_15:
	@DEBUG_VALUE: pbuf_alloc:type <- $r6
	@DEBUG_VALUE: pbuf_alloc:length <- $r5
	.loc	2 160 29                @ ../Libraries/lwip-1.4.1/src/core/pbuf.c:160:29
	movw	r0, :lower16:pbuf_free_ooseq_pending
	movs	r1, #1
	movt	r0, :upper16:pbuf_free_ooseq_pending
	strb	r1, [r0]
	b	.LBB1_17
.Ltmp37:
.LBB1_16:
	@DEBUG_VALUE: pbuf_alloc:r <- $r4
	@DEBUG_VALUE: pbuf_alloc:rem_len <- $r5
	@DEBUG_VALUE: pbuf_alloc:p <- $r7
	.loc	2 160 29 is_stmt 0      @ ../Libraries/lwip-1.4.1/src/core/pbuf.c:160:29
	movw	r0, :lower16:pbuf_free_ooseq_pending
	movs	r1, #1
	movt	r0, :upper16:pbuf_free_ooseq_pending
	strb	r1, [r0]
.Ltmp38:
	.loc	2 285 17 is_stmt 1      @ ../Libraries/lwip-1.4.1/src/core/pbuf.c:285:17
	mov	r0, r7
	bl	pbuf_free
.Ltmp39:
.LBB1_17:
	.loc	2 0 17 is_stmt 0        @ ../Libraries/lwip-1.4.1/src/core/pbuf.c:0:17
	movs	r7, #0
.LBB1_18:
	.loc	2 360 1 is_stmt 1       @ ../Libraries/lwip-1.4.1/src/core/pbuf.c:360:1
	mov	r0, r7
	pop.w	{r4, r5, r6, r7, r8, r9, r10, pc}
.Ltmp40:
	.p2align	2
@ %bb.19:
	.loc	2 0 1 is_stmt 0         @ ../Libraries/lwip-1.4.1/src/core/pbuf.c:0:1
.LCPI1_0:
.Lswitch.table.pbuf_alloc:
	.long	54                      @ 0x36
	.long	34                      @ 0x22
	.long	14                      @ 0xe
	.long	0                       @ 0x0
.Lfunc_end1:
	.size	pbuf_alloc, .Lfunc_end1-pbuf_alloc
	.cfi_endproc
	.cantunwind
	.fnend
                                        @ -- End function
	.section	.text.pbuf_free,"ax",%progbits
	.hidden	pbuf_free               @ -- Begin function pbuf_free
	.globl	pbuf_free
	.p2align	1
	.type	pbuf_free,%function
	.code	16                      @ @pbuf_free
	.thumb_func
pbuf_free:
.Lfunc_begin2:
	.loc	2 653 0 is_stmt 1       @ ../Libraries/lwip-1.4.1/src/core/pbuf.c:653:0
	.fnstart
	.cfi_startproc
@ %bb.0:
	.save	{r4, r5, r7, lr}
	push	{r4, r5, r7, lr}
	.cfi_def_cfa_offset 16
	.cfi_offset lr, -4
	.cfi_offset r7, -8
	.cfi_offset r5, -12
	.cfi_offset r4, -16
	@DEBUG_VALUE: pbuf_free:p <- $r0
.Ltmp41:
	.loc	2 658 9 prologue_end    @ ../Libraries/lwip-1.4.1/src/core/pbuf.c:658:9
	cbz	r0, .LBB2_12
.Ltmp42:
@ %bb.1:
	@DEBUG_VALUE: pbuf_free:p <- $r0
	.loc	2 0 9 is_stmt 0         @ ../Libraries/lwip-1.4.1/src/core/pbuf.c:0:9
	mov	r4, r0
.Ltmp43:
	@DEBUG_VALUE: pbuf_free:p <- $r4
	@DEBUG_VALUE: pbuf_free:p <- $r4
	movs	r5, #0
.Ltmp44:
	.p2align	2
.LBB2_2:                                @ =>This Inner Loop Header: Depth=1
	@DEBUG_VALUE: pbuf_free:p <- $r4
	@DEBUG_VALUE: pbuf_free:count <- $r5
	.loc	2 686 9 is_stmt 1       @ ../Libraries/lwip-1.4.1/src/core/pbuf.c:686:9
	ldrh	r0, [r4, #14]
.Ltmp45:
	.loc	2 688 15                @ ../Libraries/lwip-1.4.1/src/core/pbuf.c:688:15
	subs	r0, #1
.Ltmp46:
	@DEBUG_VALUE: ref <- $r0
	strh	r0, [r4, #14]
	.loc	2 691 13                @ ../Libraries/lwip-1.4.1/src/core/pbuf.c:691:13
	lsls	r0, r0, #16
.Ltmp47:
	bne	.LBB2_13
.Ltmp48:
@ %bb.3:                                @   in Loop: Header=BB2_2 Depth=1
	@DEBUG_VALUE: pbuf_free:count <- $r5
	@DEBUG_VALUE: pbuf_free:p <- $r4
	.loc	2 0 13 is_stmt 0        @ ../Libraries/lwip-1.4.1/src/core/pbuf.c:0:13
	mov	r1, r4
.Ltmp49:
	@DEBUG_VALUE: pbuf_free:p <- $r1
	@DEBUG_VALUE: pc <- $r1
	.loc	2 694 20 is_stmt 1      @ ../Libraries/lwip-1.4.1/src/core/pbuf.c:694:20
	ldr	r4, [r4]
.Ltmp50:
	@DEBUG_VALUE: pbuf_free:q <- $r4
	@DEBUG_VALUE: pbuf_free:p <- $r4
	.loc	2 699 21                @ ../Libraries/lwip-1.4.1/src/core/pbuf.c:699:21
	ldrb	r0, [r1, #13]
.Ltmp51:
	.loc	2 699 17 is_stmt 0      @ ../Libraries/lwip-1.4.1/src/core/pbuf.c:699:17
	lsls	r0, r0, #30
	bmi	.LBB2_6
.Ltmp52:
@ %bb.4:                                @   in Loop: Header=BB2_2 Depth=1
	@DEBUG_VALUE: pbuf_free:q <- $r4
	@DEBUG_VALUE: pbuf_free:count <- $r5
	@DEBUG_VALUE: pbuf_free:p <- $r4
	.loc	2 696 23 is_stmt 1      @ ../Libraries/lwip-1.4.1/src/core/pbuf.c:696:23
	ldrb	r0, [r1, #12]
.Ltmp53:
	.loc	2 709 21                @ ../Libraries/lwip-1.4.1/src/core/pbuf.c:709:21
	subs	r2, r0, #1
	cmp	r2, #2
	bhs	.LBB2_7
.Ltmp54:
@ %bb.5:                                @   in Loop: Header=BB2_2 Depth=1
	@DEBUG_VALUE: pbuf_free:q <- $r4
	@DEBUG_VALUE: pbuf_free:count <- $r5
	@DEBUG_VALUE: pbuf_free:p <- $r4
	.loc	2 716 21                @ ../Libraries/lwip-1.4.1/src/core/pbuf.c:716:21
	movs	r0, #8
	b	.LBB2_9
.Ltmp55:
	.p2align	2
.LBB2_6:                                @   in Loop: Header=BB2_2 Depth=1
	@DEBUG_VALUE: pbuf_free:q <- $r4
	@DEBUG_VALUE: pc <- $r1
	@DEBUG_VALUE: pbuf_free:count <- $r5
	@DEBUG_VALUE: pbuf_free:p <- $r4
	.loc	2 702 17                @ ../Libraries/lwip-1.4.1/src/core/pbuf.c:702:17
	ldr	r2, [r1, #16]
.Ltmp56:
	.loc	2 703 17                @ ../Libraries/lwip-1.4.1/src/core/pbuf.c:703:17
	mov	r0, r1
	blx	r2
.Ltmp57:
	.loc	2 0 17 is_stmt 0        @ ../Libraries/lwip-1.4.1/src/core/pbuf.c:0:17
	b	.LBB2_11
.Ltmp58:
	.p2align	2
.LBB2_7:                                @   in Loop: Header=BB2_2 Depth=1
	@DEBUG_VALUE: pbuf_free:q <- $r4
	@DEBUG_VALUE: pbuf_free:count <- $r5
	@DEBUG_VALUE: pbuf_free:p <- $r4
	.loc	2 709 21 is_stmt 1      @ ../Libraries/lwip-1.4.1/src/core/pbuf.c:709:21
	cmp	r0, #3
	bne	.LBB2_10
.Ltmp59:
@ %bb.8:                                @   in Loop: Header=BB2_2 Depth=1
	@DEBUG_VALUE: pbuf_free:q <- $r4
	@DEBUG_VALUE: pbuf_free:count <- $r5
	@DEBUG_VALUE: pbuf_free:p <- $r4
	.loc	2 711 21                @ ../Libraries/lwip-1.4.1/src/core/pbuf.c:711:21
	movs	r0, #9
.Ltmp60:
.LBB2_9:                                @   in Loop: Header=BB2_2 Depth=1
	@DEBUG_VALUE: pbuf_free:q <- $r4
	@DEBUG_VALUE: pbuf_free:count <- $r5
	@DEBUG_VALUE: pbuf_free:p <- $r4
	.loc	2 0 0 is_stmt 0         @ ../Libraries/lwip-1.4.1/src/core/pbuf.c:0:0
	bl	memp_free
	b	.LBB2_11
.Ltmp61:
.LBB2_10:                               @   in Loop: Header=BB2_2 Depth=1
	@DEBUG_VALUE: pbuf_free:q <- $r4
	@DEBUG_VALUE: pbuf_free:count <- $r5
	@DEBUG_VALUE: pbuf_free:p <- $r4
	.loc	2 721 21 is_stmt 1      @ ../Libraries/lwip-1.4.1/src/core/pbuf.c:721:21
	mov	r0, r1
	bl	mem_free
.Ltmp62:
	.p2align	2
.LBB2_11:                               @   in Loop: Header=BB2_2 Depth=1
	@DEBUG_VALUE: pbuf_free:q <- $r4
	@DEBUG_VALUE: pbuf_free:count <- $r5
	@DEBUG_VALUE: pbuf_free:p <- $r4
	.loc	2 724 18                @ ../Libraries/lwip-1.4.1/src/core/pbuf.c:724:18
	adds	r5, #1
.Ltmp63:
	@DEBUG_VALUE: pbuf_free:count <- $r5
	.loc	2 677 5                 @ ../Libraries/lwip-1.4.1/src/core/pbuf.c:677:5
	cmp	r4, #0
	bne	.LBB2_2
	b	.LBB2_13
.Ltmp64:
.LBB2_12:
	@DEBUG_VALUE: pbuf_free:p <- $r0
	.loc	2 0 5 is_stmt 0         @ ../Libraries/lwip-1.4.1/src/core/pbuf.c:0:5
	movs	r5, #0
.Ltmp65:
.LBB2_13:
	.loc	2 740 1 is_stmt 1       @ ../Libraries/lwip-1.4.1/src/core/pbuf.c:740:1
	uxtb	r0, r5
	pop	{r4, r5, r7, pc}
.Ltmp66:
.Lfunc_end2:
	.size	pbuf_free, .Lfunc_end2-pbuf_free
	.cfi_endproc
	.cantunwind
	.fnend
                                        @ -- End function
	.section	.text.pbuf_alloced_custom,"ax",%progbits
	.hidden	pbuf_alloced_custom     @ -- Begin function pbuf_alloced_custom
	.globl	pbuf_alloced_custom
	.p2align	2
	.type	pbuf_alloced_custom,%function
	.code	16                      @ @pbuf_alloced_custom
	.thumb_func
pbuf_alloced_custom:
.Lfunc_begin3:
	.loc	2 381 0                 @ ../Libraries/lwip-1.4.1/src/core/pbuf.c:381:0
	.fnstart
	.cfi_startproc
@ %bb.0:
	.save	{r4, lr}
	push	{r4, lr}
	.cfi_def_cfa_offset 8
	.cfi_offset lr, -4
	.cfi_offset r4, -8
	@DEBUG_VALUE: pbuf_alloced_custom:l <- $r0
	@DEBUG_VALUE: pbuf_alloced_custom:l <- $r0
	@DEBUG_VALUE: pbuf_alloced_custom:length <- $r1
	@DEBUG_VALUE: pbuf_alloced_custom:length <- $r1
	@DEBUG_VALUE: pbuf_alloced_custom:type <- $r2
	@DEBUG_VALUE: pbuf_alloced_custom:type <- $r2
	@DEBUG_VALUE: pbuf_alloced_custom:p <- $r3
	@DEBUG_VALUE: pbuf_alloced_custom:p <- $r3
	@DEBUG_VALUE: pbuf_alloced_custom:payload_mem <- [DW_OP_plus_uconst 8] [$sp+0]
.Ltmp67:
	.loc	2 386 5 prologue_end    @ ../Libraries/lwip-1.4.1/src/core/pbuf.c:386:5
	cmp	r0, #3
	itt	hi
	movhi	r0, #0
.Ltmp68:
	.loc	2 428 1                 @ ../Libraries/lwip-1.4.1/src/core/pbuf.c:428:1
	pophi	{r4, pc}
	.loc	2 386 5                 @ ../Libraries/lwip-1.4.1/src/core/pbuf.c:386:5
	sxtb.w	r12, r0
	adr	r0, .LCPI3_0
	ldr.w	lr, [sp, #12]
	@DEBUG_VALUE: pbuf_alloced_custom:payload_mem_len <- $lr
	ldr.w	r12, [r0, r12, lsl #2]
	movs	r0, #0
.Ltmp69:
	.loc	2 408 37                @ ../Libraries/lwip-1.4.1/src/core/pbuf.c:408:37
	add.w	r4, r12, r1
.Ltmp70:
	.loc	2 408 9 is_stmt 0       @ ../Libraries/lwip-1.4.1/src/core/pbuf.c:408:9
	cmp	r4, lr
	.loc	2 428 1 is_stmt 1       @ ../Libraries/lwip-1.4.1/src/core/pbuf.c:428:1
	it	hi
	pophi	{r4, pc}
	@DEBUG_VALUE: pbuf_alloced_custom:type <- $r2
	ldr.w	lr, [sp, #8]
.Ltmp71:
	.loc	2 0 1 is_stmt 0         @ ../Libraries/lwip-1.4.1/src/core/pbuf.c:0:1
	movs	r4, #2
	.loc	2 423 19 is_stmt 1      @ ../Libraries/lwip-1.4.1/src/core/pbuf.c:423:19
	strb	r4, [r3, #13]
	movs	r4, #1
	.loc	2 426 17                @ ../Libraries/lwip-1.4.1/src/core/pbuf.c:426:17
	strh	r4, [r3, #14]
	.loc	2 425 18                @ ../Libraries/lwip-1.4.1/src/core/pbuf.c:425:18
	strb	r2, [r3, #12]
	.loc	2 424 17                @ ../Libraries/lwip-1.4.1/src/core/pbuf.c:424:17
	strh	r1, [r3, #10]
	.loc	2 424 35 is_stmt 0      @ ../Libraries/lwip-1.4.1/src/core/pbuf.c:424:35
	strh	r1, [r3, #8]
	.loc	2 415 9 is_stmt 1       @ ../Libraries/lwip-1.4.1/src/core/pbuf.c:415:9
	cmp.w	lr, #0
	it	ne
	addne	lr, r12
	.loc	2 414 18                @ ../Libraries/lwip-1.4.1/src/core/pbuf.c:414:18
	strd	r0, lr, [r3]
	.loc	2 0 0 is_stmt 0         @ ../Libraries/lwip-1.4.1/src/core/pbuf.c:0:0
	mov	r0, r3
	.loc	2 428 1 is_stmt 1       @ ../Libraries/lwip-1.4.1/src/core/pbuf.c:428:1
	pop	{r4, pc}
.Ltmp72:
	.p2align	2
@ %bb.1:
	.loc	2 0 1 is_stmt 0         @ ../Libraries/lwip-1.4.1/src/core/pbuf.c:0:1
.LCPI3_0:
.Lswitch.table.pbuf_alloced_custom:
	.long	56                      @ 0x38
	.long	36                      @ 0x24
	.long	16                      @ 0x10
	.long	0                       @ 0x0
.Lfunc_end3:
	.size	pbuf_alloced_custom, .Lfunc_end3-pbuf_alloced_custom
	.cfi_endproc
	.cantunwind
	.fnend
                                        @ -- End function
	.section	.text.pbuf_realloc,"ax",%progbits
	.hidden	pbuf_realloc            @ -- Begin function pbuf_realloc
	.globl	pbuf_realloc
	.p2align	1
	.type	pbuf_realloc,%function
	.code	16                      @ @pbuf_realloc
	.thumb_func
pbuf_realloc:
.Lfunc_begin4:
	.loc	2 448 0 is_stmt 1       @ ../Libraries/lwip-1.4.1/src/core/pbuf.c:448:0
	.fnstart
	.cfi_startproc
@ %bb.0:
	@DEBUG_VALUE: pbuf_realloc:p <- $r0
	@DEBUG_VALUE: pbuf_realloc:new_len <- $r1
	@DEBUG_VALUE: pbuf_realloc:q <- $r0
	@DEBUG_VALUE: pbuf_realloc:new_len <- $r1
	.loc	2 460 23 prologue_end   @ ../Libraries/lwip-1.4.1/src/core/pbuf.c:460:23
	ldrh	r2, [r0, #8]
.Ltmp73:
	@DEBUG_VALUE: pbuf_realloc:rem_len <- $r1
	.loc	2 460 9 is_stmt 0       @ ../Libraries/lwip-1.4.1/src/core/pbuf.c:460:9
	cmp	r2, r1
	.loc	2 509 1 is_stmt 1       @ ../Libraries/lwip-1.4.1/src/core/pbuf.c:509:1
	it	ls
	bxls	lr
	.save	{r4, r5, r7, lr}
	push	{r4, r5, r7, lr}
	.cfi_def_cfa_offset 16
	.cfi_offset lr, -4
	.cfi_offset r7, -8
	.cfi_offset r5, -12
	.cfi_offset r4, -16
	mov	r4, r0
.Ltmp74:
	@DEBUG_VALUE: pbuf_realloc:p <- $r4
	@DEBUG_VALUE: pbuf_realloc:q <- $r4
	.loc	2 474 25                @ ../Libraries/lwip-1.4.1/src/core/pbuf.c:474:25
	ldrh	r0, [r0, #10]
	.loc	2 474 5 is_stmt 0       @ ../Libraries/lwip-1.4.1/src/core/pbuf.c:474:5
	cmp	r0, r1
	bhs	.LBB4_4
.Ltmp75:
@ %bb.1:
	@DEBUG_VALUE: pbuf_realloc:q <- $r4
	@DEBUG_VALUE: pbuf_realloc:p <- $r4
	@DEBUG_VALUE: pbuf_realloc:rem_len <- $r1
	@DEBUG_VALUE: pbuf_realloc:q <- $r0
	@DEBUG_VALUE: pbuf_realloc:new_len <- $r1
	@DEBUG_VALUE: pbuf_realloc:p <- $r0
	.loc	2 480 20 is_stmt 1      @ ../Libraries/lwip-1.4.1/src/core/pbuf.c:480:20
	strh	r1, [r4, #8]
	.loc	2 477 17                @ ../Libraries/lwip-1.4.1/src/core/pbuf.c:477:17
	subs	r5, r1, r0
.Ltmp76:
	@DEBUG_VALUE: pbuf_realloc:rem_len <- $r5
	.loc	2 482 16                @ ../Libraries/lwip-1.4.1/src/core/pbuf.c:482:16
	ldr	r4, [r4]
.Ltmp77:
	@DEBUG_VALUE: pbuf_realloc:q <- $r4
	.loc	2 477 17                @ ../Libraries/lwip-1.4.1/src/core/pbuf.c:477:17
	uxth	r3, r5
.Ltmp78:
	.loc	2 474 25                @ ../Libraries/lwip-1.4.1/src/core/pbuf.c:474:25
	ldrh	r0, [r4, #10]
.Ltmp79:
	.loc	2 474 5 is_stmt 0       @ ../Libraries/lwip-1.4.1/src/core/pbuf.c:474:5
	cmp	r3, r0
	bls	.LBB4_5
.Ltmp80:
@ %bb.2:
	@DEBUG_VALUE: pbuf_realloc:rem_len <- $r5
	@DEBUG_VALUE: pbuf_realloc:q <- $r4
	@DEBUG_VALUE: pbuf_realloc:new_len <- $r1
	.loc	2 0 5                   @ ../Libraries/lwip-1.4.1/src/core/pbuf.c:0:5
	subs	r1, r1, r2
.Ltmp81:
	.p2align	2
.LBB4_3:                                @ =>This Inner Loop Header: Depth=1
	@DEBUG_VALUE: pbuf_realloc:rem_len <- $r5
	@DEBUG_VALUE: pbuf_realloc:q <- $r4
	@DEBUG_VALUE: pbuf_realloc:q <- $r4
	@DEBUG_VALUE: pbuf_realloc:rem_len <- $r5
	.loc	2 480 20 is_stmt 1      @ ../Libraries/lwip-1.4.1/src/core/pbuf.c:480:20
	ldrh	r2, [r4, #8]
	.loc	2 477 17                @ ../Libraries/lwip-1.4.1/src/core/pbuf.c:477:17
	subs	r5, r5, r0
.Ltmp82:
	@DEBUG_VALUE: pbuf_realloc:rem_len <- $r5
	.loc	2 480 20                @ ../Libraries/lwip-1.4.1/src/core/pbuf.c:480:20
	add	r2, r1
	strh	r2, [r4, #8]
	.loc	2 477 17                @ ../Libraries/lwip-1.4.1/src/core/pbuf.c:477:17
	uxth	r2, r5
	.loc	2 482 16                @ ../Libraries/lwip-1.4.1/src/core/pbuf.c:482:16
	ldr	r4, [r4]
.Ltmp83:
	@DEBUG_VALUE: pbuf_realloc:q <- $r4
	.loc	2 474 25                @ ../Libraries/lwip-1.4.1/src/core/pbuf.c:474:25
	ldrh	r0, [r4, #10]
	.loc	2 474 5 is_stmt 0       @ ../Libraries/lwip-1.4.1/src/core/pbuf.c:474:5
	cmp	r2, r0
	bhi	.LBB4_3
	b	.LBB4_5
.Ltmp84:
.LBB4_4:
	@DEBUG_VALUE: pbuf_realloc:q <- $r4
	@DEBUG_VALUE: pbuf_realloc:p <- $r4
	@DEBUG_VALUE: pbuf_realloc:rem_len <- $r1
	@DEBUG_VALUE: pbuf_realloc:q <- $r0
	@DEBUG_VALUE: pbuf_realloc:new_len <- $r1
	@DEBUG_VALUE: pbuf_realloc:p <- $r0
	.loc	2 0 0                   @ ../Libraries/lwip-1.4.1/src/core/pbuf.c:0:0
	mov	r5, r1
.Ltmp85:
	@DEBUG_VALUE: pbuf_realloc:new_len <- $r5
.LBB4_5:
	@DEBUG_VALUE: pbuf_realloc:q <- $r4
	@DEBUG_VALUE: pbuf_realloc:rem_len <- $r5
	.loc	2 490 43 is_stmt 1      @ ../Libraries/lwip-1.4.1/src/core/pbuf.c:490:43
	uxth	r1, r5
	.loc	2 490 31 is_stmt 0      @ ../Libraries/lwip-1.4.1/src/core/pbuf.c:490:31
	cmp	r1, r0
	beq	.LBB4_8
.Ltmp86:
@ %bb.6:
	@DEBUG_VALUE: pbuf_realloc:rem_len <- $r5
	@DEBUG_VALUE: pbuf_realloc:q <- $r4
	.loc	2 0 0                   @ ../Libraries/lwip-1.4.1/src/core/pbuf.c:0:0
	ldrb	r0, [r4, #12]
	.loc	2 490 31                @ ../Libraries/lwip-1.4.1/src/core/pbuf.c:490:31
	cbnz	r0, .LBB4_8
.Ltmp87:
@ %bb.7:
	@DEBUG_VALUE: pbuf_realloc:rem_len <- $r5
	@DEBUG_VALUE: pbuf_realloc:q <- $r4
	.loc	2 493 62 is_stmt 1      @ ../Libraries/lwip-1.4.1/src/core/pbuf.c:493:62
	ldr	r0, [r4, #4]
	.loc	2 493 70 is_stmt 0      @ ../Libraries/lwip-1.4.1/src/core/pbuf.c:493:70
	subs	r0, r0, r4
	.loc	2 493 41                @ ../Libraries/lwip-1.4.1/src/core/pbuf.c:493:41
	add	r0, r5
	.loc	2 493 29                @ ../Libraries/lwip-1.4.1/src/core/pbuf.c:493:29
	uxth	r1, r0
	mov	r0, r4
	bl	mem_trim
	mov	r4, r0
.Ltmp88:
	@DEBUG_VALUE: pbuf_realloc:q <- $r4
.LBB4_8:
	@DEBUG_VALUE: pbuf_realloc:rem_len <- $r5
	@DEBUG_VALUE: pbuf_realloc:q <- $r4
	@DEBUG_VALUE: pbuf_realloc:q <- $r4
	.loc	2 498 16 is_stmt 1      @ ../Libraries/lwip-1.4.1/src/core/pbuf.c:498:16
	strh	r5, [r4, #8]
	.loc	2 497 12                @ ../Libraries/lwip-1.4.1/src/core/pbuf.c:497:12
	strh	r5, [r4, #10]
.Ltmp89:
	.loc	2 501 12                @ ../Libraries/lwip-1.4.1/src/core/pbuf.c:501:12
	ldr	r0, [r4]
.Ltmp90:
	.loc	2 501 9 is_stmt 0       @ ../Libraries/lwip-1.4.1/src/core/pbuf.c:501:9
	cbz	r0, .LBB4_10
.Ltmp91:
@ %bb.9:
	@DEBUG_VALUE: pbuf_realloc:rem_len <- $r5
	@DEBUG_VALUE: pbuf_realloc:q <- $r4
	.loc	2 504 9 is_stmt 1       @ ../Libraries/lwip-1.4.1/src/core/pbuf.c:504:9
	bl	pbuf_free
.Ltmp92:
.LBB4_10:
	@DEBUG_VALUE: pbuf_realloc:rem_len <- $r5
	@DEBUG_VALUE: pbuf_realloc:q <- $r4
	.loc	2 0 9 is_stmt 0         @ ../Libraries/lwip-1.4.1/src/core/pbuf.c:0:9
	movs	r0, #0
	.loc	2 507 13 is_stmt 1      @ ../Libraries/lwip-1.4.1/src/core/pbuf.c:507:13
	str	r0, [r4]
	pop.w	{r4, r5, r7, lr}
.Ltmp93:
	.loc	2 509 1                 @ ../Libraries/lwip-1.4.1/src/core/pbuf.c:509:1
	bx	lr
.Ltmp94:
.Lfunc_end4:
	.size	pbuf_realloc, .Lfunc_end4-pbuf_realloc
	.cfi_endproc
	.cantunwind
	.fnend
                                        @ -- End function
	.section	.text.pbuf_header,"ax",%progbits
	.hidden	pbuf_header             @ -- Begin function pbuf_header
	.globl	pbuf_header
	.p2align	1
	.type	pbuf_header,%function
	.code	16                      @ @pbuf_header
	.thumb_func
pbuf_header:
.Lfunc_begin5:
	.loc	2 533 0                 @ ../Libraries/lwip-1.4.1/src/core/pbuf.c:533:0
	.fnstart
	.cfi_startproc
@ %bb.0:
	.save	{r4, lr}
	push	{r4, lr}
	.cfi_def_cfa_offset 8
	.cfi_offset lr, -4
	.cfi_offset r4, -8
	@DEBUG_VALUE: pbuf_header:p <- $r0
	@DEBUG_VALUE: pbuf_header:header_size_increment <- $r1
	movs	r2, #0
	@DEBUG_VALUE: pbuf_header:header_size_increment <- $r1
	@DEBUG_VALUE: pbuf_header:p <- $r0
.Ltmp95:
	.loc	2 539 38 prologue_end   @ ../Libraries/lwip-1.4.1/src/core/pbuf.c:539:38
	cbz	r0, .LBB5_15
.Ltmp96:
@ %bb.1:
	@DEBUG_VALUE: pbuf_header:header_size_increment <- $r1
	@DEBUG_VALUE: pbuf_header:p <- $r0
	cbz	r1, .LBB5_15
.Ltmp97:
@ %bb.2:
	@DEBUG_VALUE: pbuf_header:header_size_increment <- $r1
	@DEBUG_VALUE: pbuf_header:p <- $r0
	.loc	2 544 9                 @ ../Libraries/lwip-1.4.1/src/core/pbuf.c:544:9
	cmp.w	r1, #-1
.Ltmp98:
	.loc	2 0 0 is_stmt 0         @ ../Libraries/lwip-1.4.1/src/core/pbuf.c:0:0
	mov	r4, r1
.Ltmp99:
	.loc	2 544 9                 @ ../Libraries/lwip-1.4.1/src/core/pbuf.c:544:9
	bgt	.LBB5_4
.Ltmp100:
@ %bb.3:
	@DEBUG_VALUE: pbuf_header:header_size_increment <- $r1
	@DEBUG_VALUE: pbuf_header:p <- $r0
	.loc	2 546 31 is_stmt 1      @ ../Libraries/lwip-1.4.1/src/core/pbuf.c:546:31
	rsbs	r4, r1, #0
.Ltmp101:
	@DEBUG_VALUE: pbuf_header:increment_magnitude <- $r4
	.loc	2 548 9                 @ ../Libraries/lwip-1.4.1/src/core/pbuf.c:548:9
	ldrh.w	r12, [r0, #10]
.Ltmp102:
	.loc	2 546 31                @ ../Libraries/lwip-1.4.1/src/core/pbuf.c:546:31
	uxth	r2, r4
.Ltmp103:
	.loc	2 548 9                 @ ../Libraries/lwip-1.4.1/src/core/pbuf.c:548:9
	cmp	r12, r2
	blo	.LBB5_11
.Ltmp104:
.LBB5_4:
	@DEBUG_VALUE: pbuf_header:header_size_increment <- $r1
	@DEBUG_VALUE: pbuf_header:p <- $r0
	@DEBUG_VALUE: pbuf_header:increment_magnitude <- $r4
	@DEBUG_VALUE: pbuf_header:payload <- [DW_OP_plus_uconst 4, DW_OP_deref, DW_OP_stack_value] $r0
	.loc	2 565 15                @ ../Libraries/lwip-1.4.1/src/core/pbuf.c:565:15
	ldrb	r2, [r0, #12]
	.loc	2 567 18                @ ../Libraries/lwip-1.4.1/src/core/pbuf.c:567:18
	ldr.w	lr, [r0, #4]
.Ltmp105:
	.loc	2 570 26                @ ../Libraries/lwip-1.4.1/src/core/pbuf.c:570:26
	subs	r3, r2, #1
	cmp	r3, #2
	blo	.LBB5_9
.Ltmp106:
@ %bb.5:
	@DEBUG_VALUE: pbuf_header:payload <- [DW_OP_plus_uconst 4, DW_OP_deref, DW_OP_stack_value] $r0
	@DEBUG_VALUE: pbuf_header:increment_magnitude <- $r4
	@DEBUG_VALUE: pbuf_header:header_size_increment <- $r1
	@DEBUG_VALUE: pbuf_header:p <- $r0
	cmp	r2, #3
	beq	.LBB5_7
.Ltmp107:
@ %bb.6:
	@DEBUG_VALUE: pbuf_header:payload <- [DW_OP_plus_uconst 4, DW_OP_deref, DW_OP_stack_value] $r0
	@DEBUG_VALUE: pbuf_header:increment_magnitude <- $r4
	@DEBUG_VALUE: pbuf_header:header_size_increment <- $r1
	@DEBUG_VALUE: pbuf_header:p <- $r0
	cbnz	r2, .LBB5_11
.Ltmp108:
.LBB5_7:
	@DEBUG_VALUE: pbuf_header:payload <- [DW_OP_plus_uconst 4, DW_OP_deref, DW_OP_stack_value] $r0
	@DEBUG_VALUE: pbuf_header:increment_magnitude <- $r4
	@DEBUG_VALUE: pbuf_header:header_size_increment <- $r1
	@DEBUG_VALUE: pbuf_header:p <- $r0
	.loc	2 573 42                @ ../Libraries/lwip-1.4.1/src/core/pbuf.c:573:42
	sub.w	r2, lr, r1
.Ltmp109:
	.loc	2 575 46                @ ../Libraries/lwip-1.4.1/src/core/pbuf.c:575:46
	add.w	r3, r0, #16
.Ltmp110:
	.loc	2 575 13 is_stmt 0      @ ../Libraries/lwip-1.4.1/src/core/pbuf.c:575:13
	cmp	r2, r3
	.loc	2 573 20 is_stmt 1      @ ../Libraries/lwip-1.4.1/src/core/pbuf.c:573:20
	str	r2, [r0, #4]
	.loc	2 575 13                @ ../Libraries/lwip-1.4.1/src/core/pbuf.c:575:13
	bhs	.LBB5_12
.Ltmp111:
@ %bb.8:
	@DEBUG_VALUE: pbuf_header:payload <- [DW_OP_plus_uconst 4, DW_OP_deref, DW_OP_stack_value] $r0
	@DEBUG_VALUE: pbuf_header:increment_magnitude <- $r4
	@DEBUG_VALUE: pbuf_header:header_size_increment <- $r1
	@DEBUG_VALUE: pbuf_header:p <- $r0
	.loc	2 581 24                @ ../Libraries/lwip-1.4.1/src/core/pbuf.c:581:24
	str.w	lr, [r0, #4]
	b	.LBB5_11
.Ltmp112:
.LBB5_9:
	@DEBUG_VALUE: pbuf_header:payload <- [DW_OP_plus_uconst 4, DW_OP_deref, DW_OP_stack_value] $r0
	@DEBUG_VALUE: pbuf_header:increment_magnitude <- $r4
	@DEBUG_VALUE: pbuf_header:header_size_increment <- $r1
	@DEBUG_VALUE: pbuf_header:p <- $r0
	.loc	2 590 41                @ ../Libraries/lwip-1.4.1/src/core/pbuf.c:590:41
	cmp.w	r1, #-1
	bgt	.LBB5_11
.Ltmp113:
@ %bb.10:
	@DEBUG_VALUE: pbuf_header:payload <- [DW_OP_plus_uconst 4, DW_OP_deref, DW_OP_stack_value] $r0
	@DEBUG_VALUE: pbuf_header:increment_magnitude <- $r4
	@DEBUG_VALUE: pbuf_header:header_size_increment <- $r1
	@DEBUG_VALUE: pbuf_header:p <- $r0
	.loc	2 590 71 is_stmt 0      @ ../Libraries/lwip-1.4.1/src/core/pbuf.c:590:71
	ldrh.w	r12, [r0, #10]
	.loc	2 590 65                @ ../Libraries/lwip-1.4.1/src/core/pbuf.c:590:65
	uxth	r2, r4
.Ltmp114:
	.loc	2 590 13                @ ../Libraries/lwip-1.4.1/src/core/pbuf.c:590:13
	cmp	r2, r12
	bls	.LBB5_13
.Ltmp115:
.LBB5_11:
	@DEBUG_VALUE: pbuf_header:increment_magnitude <- $r4
	@DEBUG_VALUE: pbuf_header:header_size_increment <- $r1
	@DEBUG_VALUE: pbuf_header:p <- $r0
	.loc	2 0 13                  @ ../Libraries/lwip-1.4.1/src/core/pbuf.c:0:13
	movs	r2, #1
	b	.LBB5_15
.Ltmp116:
.LBB5_12:
	@DEBUG_VALUE: pbuf_header:payload <- [DW_OP_plus_uconst 4, DW_OP_deref, DW_OP_stack_value] $r0
	@DEBUG_VALUE: pbuf_header:increment_magnitude <- $r4
	@DEBUG_VALUE: pbuf_header:header_size_increment <- $r1
	@DEBUG_VALUE: pbuf_header:p <- $r0
	.loc	2 609 12 is_stmt 1      @ ../Libraries/lwip-1.4.1/src/core/pbuf.c:609:12
	ldrh.w	r12, [r0, #10]
	b	.LBB5_14
.Ltmp117:
.LBB5_13:
	@DEBUG_VALUE: pbuf_header:payload <- [DW_OP_plus_uconst 4, DW_OP_deref, DW_OP_stack_value] $r0
	@DEBUG_VALUE: pbuf_header:increment_magnitude <- $r4
	@DEBUG_VALUE: pbuf_header:header_size_increment <- $r1
	@DEBUG_VALUE: pbuf_header:p <- $r0
	.loc	2 593 46                @ ../Libraries/lwip-1.4.1/src/core/pbuf.c:593:46
	sub.w	r2, lr, r1
	.loc	2 593 24 is_stmt 0      @ ../Libraries/lwip-1.4.1/src/core/pbuf.c:593:24
	str	r2, [r0, #4]
.Ltmp118:
.LBB5_14:
	@DEBUG_VALUE: pbuf_header:payload <- [DW_OP_plus_uconst 4, DW_OP_deref, DW_OP_stack_value] $r0
	@DEBUG_VALUE: pbuf_header:increment_magnitude <- $r4
	@DEBUG_VALUE: pbuf_header:header_size_increment <- $r1
	@DEBUG_VALUE: pbuf_header:p <- $r0
	.loc	2 609 12 is_stmt 1      @ ../Libraries/lwip-1.4.1/src/core/pbuf.c:609:12
	add.w	r2, r12, r1
	strh	r2, [r0, #10]
	.loc	2 610 16                @ ../Libraries/lwip-1.4.1/src/core/pbuf.c:610:16
	ldrh	r2, [r0, #8]
	add	r1, r2
.Ltmp119:
	.loc	2 0 16 is_stmt 0        @ ../Libraries/lwip-1.4.1/src/core/pbuf.c:0:16
	movs	r2, #0
	.loc	2 610 16                @ ../Libraries/lwip-1.4.1/src/core/pbuf.c:610:16
	strh	r1, [r0, #8]
.Ltmp120:
.LBB5_15:
	@DEBUG_VALUE: pbuf_header:p <- $r0
	.loc	2 616 1 is_stmt 1       @ ../Libraries/lwip-1.4.1/src/core/pbuf.c:616:1
	mov	r0, r2
	pop	{r4, pc}
.Ltmp121:
.Lfunc_end5:
	.size	pbuf_header, .Lfunc_end5-pbuf_header
	.cfi_endproc
	.cantunwind
	.fnend
                                        @ -- End function
	.section	.text.pbuf_clen,"ax",%progbits
	.hidden	pbuf_clen               @ -- Begin function pbuf_clen
	.globl	pbuf_clen
	.p2align	1
	.type	pbuf_clen,%function
	.code	16                      @ @pbuf_clen
	.thumb_func
pbuf_clen:
.Lfunc_begin6:
	.loc	2 751 0                 @ ../Libraries/lwip-1.4.1/src/core/pbuf.c:751:0
	.fnstart
	.cfi_startproc
@ %bb.0:
	@DEBUG_VALUE: pbuf_clen:p <- $r0
	@DEBUG_VALUE: pbuf_clen:p <- $r0
	@DEBUG_VALUE: pbuf_clen:len <- 0
	movs	r1, #0
	b	.LBB6_2
.Ltmp122:
	.p2align	2
.LBB6_1:                                @   in Loop: Header=BB6_2 Depth=1
	@DEBUG_VALUE: pbuf_clen:p <- $r0
	@DEBUG_VALUE: pbuf_clen:p <- $r0
	@DEBUG_VALUE: pbuf_clen:len <- $r1
	.loc	2 758 16 prologue_end   @ ../Libraries/lwip-1.4.1/src/core/pbuf.c:758:16
	ldr	r0, [r0]
.Ltmp123:
	.loc	2 757 9                 @ ../Libraries/lwip-1.4.1/src/core/pbuf.c:757:9
	adds	r1, #1
.Ltmp124:
	@DEBUG_VALUE: pbuf_clen:len <- $r1
.LBB6_2:                                @ =>This Inner Loop Header: Depth=1
	@DEBUG_VALUE: pbuf_clen:p <- $r0
	@DEBUG_VALUE: pbuf_clen:p <- $r0
	.loc	2 755 5                 @ ../Libraries/lwip-1.4.1/src/core/pbuf.c:755:5
	cmp	r0, #0
	bne	.LBB6_1
.Ltmp125:
@ %bb.3:
	@DEBUG_VALUE: pbuf_clen:p <- $r0
	@DEBUG_VALUE: pbuf_clen:len <- $r1
	.loc	2 760 5                 @ ../Libraries/lwip-1.4.1/src/core/pbuf.c:760:5
	uxtb	r0, r1
.Ltmp126:
	bx	lr
.Ltmp127:
.Lfunc_end6:
	.size	pbuf_clen, .Lfunc_end6-pbuf_clen
	.cfi_endproc
	.cantunwind
	.fnend
                                        @ -- End function
	.section	.text.pbuf_ref,"ax",%progbits
	.hidden	pbuf_ref                @ -- Begin function pbuf_ref
	.globl	pbuf_ref
	.p2align	1
	.type	pbuf_ref,%function
	.code	16                      @ @pbuf_ref
	.thumb_func
pbuf_ref:
.Lfunc_begin7:
	.loc	2 771 0                 @ ../Libraries/lwip-1.4.1/src/core/pbuf.c:771:0
	.fnstart
	.cfi_startproc
@ %bb.0:
	@DEBUG_VALUE: pbuf_ref:p <- $r0
	@DEBUG_VALUE: pbuf_ref:p <- $r0
	.loc	2 774 9 prologue_end    @ ../Libraries/lwip-1.4.1/src/core/pbuf.c:774:9
	cbz	r0, .LBB7_2
@ %bb.1:
	@DEBUG_VALUE: pbuf_ref:p <- $r0
.Ltmp128:
	.loc	2 777 9                 @ ../Libraries/lwip-1.4.1/src/core/pbuf.c:777:9
	ldrh	r1, [r0, #14]
	adds	r1, #1
	strh	r1, [r0, #14]
.Ltmp129:
.LBB7_2:
	@DEBUG_VALUE: pbuf_ref:p <- $r0
	.loc	2 780 1                 @ ../Libraries/lwip-1.4.1/src/core/pbuf.c:780:1
	bx	lr
.Ltmp130:
.Lfunc_end7:
	.size	pbuf_ref, .Lfunc_end7-pbuf_ref
	.cfi_endproc
	.cantunwind
	.fnend
                                        @ -- End function
	.section	.text.pbuf_cat,"ax",%progbits
	.hidden	pbuf_cat                @ -- Begin function pbuf_cat
	.globl	pbuf_cat
	.p2align	1
	.type	pbuf_cat,%function
	.code	16                      @ @pbuf_cat
	.thumb_func
pbuf_cat:
.Lfunc_begin8:
	.loc	2 794 0                 @ ../Libraries/lwip-1.4.1/src/core/pbuf.c:794:0
	.fnstart
	.cfi_startproc
@ %bb.0:
	@DEBUG_VALUE: pbuf_cat:h <- $r0
	@DEBUG_VALUE: pbuf_cat:h <- $r0
	@DEBUG_VALUE: pbuf_cat:t <- $r1
	@DEBUG_VALUE: pbuf_cat:t <- $r1
	@DEBUG_VALUE: pbuf_cat:p <- $r0
	@DEBUG_VALUE: pbuf_cat:p <- $r0
	.loc	2 797 5 prologue_end    @ ../Libraries/lwip-1.4.1/src/core/pbuf.c:797:5
	cbz	r0, .LBB8_6
.Ltmp131:
@ %bb.1:
	@DEBUG_VALUE: pbuf_cat:p <- $r0
	@DEBUG_VALUE: pbuf_cat:t <- $r1
	@DEBUG_VALUE: pbuf_cat:h <- $r0
	cbz	r1, .LBB8_6
.Ltmp132:
@ %bb.2:
	@DEBUG_VALUE: pbuf_cat:p <- $r0
	@DEBUG_VALUE: pbuf_cat:t <- $r1
	@DEBUG_VALUE: pbuf_cat:h <- $r0
	.loc	2 801 20                @ ../Libraries/lwip-1.4.1/src/core/pbuf.c:801:20
	ldr	r2, [r0]
.Ltmp133:
	.loc	2 801 5 is_stmt 0       @ ../Libraries/lwip-1.4.1/src/core/pbuf.c:801:5
	cbz	r2, .LBB8_5
.Ltmp134:
	.p2align	2
.LBB8_3:                                @ =>This Inner Loop Header: Depth=1
	@DEBUG_VALUE: pbuf_cat:p <- $r0
	@DEBUG_VALUE: pbuf_cat:t <- $r1
	@DEBUG_VALUE: pbuf_cat:h <- $r0
	.loc	2 0 5                   @ ../Libraries/lwip-1.4.1/src/core/pbuf.c:0:5
	mov	r3, r2
	@DEBUG_VALUE: pbuf_cat:p <- $r0
.Ltmp135:
	.loc	2 804 26 is_stmt 1      @ ../Libraries/lwip-1.4.1/src/core/pbuf.c:804:26
	ldrh.w	r12, [r1, #8]
	.loc	2 804 20 is_stmt 0      @ ../Libraries/lwip-1.4.1/src/core/pbuf.c:804:20
	ldrh	r2, [r0, #8]
	add	r2, r12
	strh	r2, [r0, #8]
	mov	r0, r3
.Ltmp136:
	.loc	2 801 20 is_stmt 1      @ ../Libraries/lwip-1.4.1/src/core/pbuf.c:801:20
	ldr	r2, [r3]
.Ltmp137:
	.loc	2 801 5 is_stmt 0       @ ../Libraries/lwip-1.4.1/src/core/pbuf.c:801:5
	cmp	r2, #0
	bne	.LBB8_3
@ %bb.4:
	@DEBUG_VALUE: pbuf_cat:t <- $r1
	.loc	2 0 0                   @ ../Libraries/lwip-1.4.1/src/core/pbuf.c:0:0
	mov	r0, r3
.Ltmp138:
.LBB8_5:
	@DEBUG_VALUE: pbuf_cat:t <- $r1
	@DEBUG_VALUE: pbuf_cat:p <- $r0
	.loc	2 807 5 is_stmt 1       @ ../Libraries/lwip-1.4.1/src/core/pbuf.c:807:5
	ldrh	r2, [r0, #8]
.Ltmp139:
	.loc	2 810 22                @ ../Libraries/lwip-1.4.1/src/core/pbuf.c:810:22
	ldrh	r3, [r1, #8]
	.loc	2 810 16 is_stmt 0      @ ../Libraries/lwip-1.4.1/src/core/pbuf.c:810:16
	add	r2, r3
	strh	r2, [r0, #8]
	.loc	2 812 13 is_stmt 1      @ ../Libraries/lwip-1.4.1/src/core/pbuf.c:812:13
	str	r1, [r0]
.Ltmp140:
.LBB8_6:
	@DEBUG_VALUE: pbuf_cat:p <- $r0
	@DEBUG_VALUE: pbuf_cat:t <- $r1
	.loc	2 816 1                 @ ../Libraries/lwip-1.4.1/src/core/pbuf.c:816:1
	bx	lr
.Ltmp141:
.Lfunc_end8:
	.size	pbuf_cat, .Lfunc_end8-pbuf_cat
	.cfi_endproc
	.cantunwind
	.fnend
                                        @ -- End function
	.section	.text.pbuf_chain,"ax",%progbits
	.hidden	pbuf_chain              @ -- Begin function pbuf_chain
	.globl	pbuf_chain
	.p2align	1
	.type	pbuf_chain,%function
	.code	16                      @ @pbuf_chain
	.thumb_func
pbuf_chain:
.Lfunc_begin9:
	.loc	2 836 0                 @ ../Libraries/lwip-1.4.1/src/core/pbuf.c:836:0
	.fnstart
	.cfi_startproc
@ %bb.0:
	.save	{r4, lr}
	push	{r4, lr}
	.cfi_def_cfa_offset 8
	.cfi_offset lr, -4
	.cfi_offset r4, -8
	@DEBUG_VALUE: pbuf_chain:h <- $r0
	@DEBUG_VALUE: pbuf_chain:t <- $r1
.Ltmp142:
	@DEBUG_VALUE: pbuf_ref:p <- $r1
	mov	r4, r1
.Ltmp143:
	@DEBUG_VALUE: pbuf_chain:t <- $r4
	@DEBUG_VALUE: pbuf_chain:h <- $r0
	@DEBUG_VALUE: pbuf_chain:h <- $r0
	.loc	2 837 5 prologue_end    @ ../Libraries/lwip-1.4.1/src/core/pbuf.c:837:5
	bl	pbuf_cat
.Ltmp144:
	@DEBUG_VALUE: pbuf_ref:p <- $r4
	.loc	2 774 9                 @ ../Libraries/lwip-1.4.1/src/core/pbuf.c:774:9
	cbz	r4, .LBB9_2
.Ltmp145:
@ %bb.1:
	@DEBUG_VALUE: pbuf_ref:p <- $r4
	@DEBUG_VALUE: pbuf_chain:t <- $r4
	.loc	2 777 9                 @ ../Libraries/lwip-1.4.1/src/core/pbuf.c:777:9
	ldrh	r0, [r4, #14]
	adds	r0, #1
	strh	r0, [r4, #14]
.Ltmp146:
.LBB9_2:
	@DEBUG_VALUE: pbuf_chain:t <- $r4
	.loc	2 841 1                 @ ../Libraries/lwip-1.4.1/src/core/pbuf.c:841:1
	pop	{r4, pc}
.Ltmp147:
.Lfunc_end9:
	.size	pbuf_chain, .Lfunc_end9-pbuf_chain
	.cfi_endproc
	.cantunwind
	.fnend
                                        @ -- End function
	.section	.text.pbuf_dechain,"ax",%progbits
	.hidden	pbuf_dechain            @ -- Begin function pbuf_dechain
	.globl	pbuf_dechain
	.p2align	1
	.type	pbuf_dechain,%function
	.code	16                      @ @pbuf_dechain
	.thumb_func
pbuf_dechain:
.Lfunc_begin10:
	.loc	2 853 0                 @ ../Libraries/lwip-1.4.1/src/core/pbuf.c:853:0
	.fnstart
	.cfi_startproc
@ %bb.0:
	.save	{r4, r5, r7, lr}
	push	{r4, r5, r7, lr}
	.cfi_def_cfa_offset 16
	.cfi_offset lr, -4
	.cfi_offset r7, -8
	.cfi_offset r5, -12
	.cfi_offset r4, -16
	@DEBUG_VALUE: pbuf_dechain:p <- $r0
	@DEBUG_VALUE: pbuf_dechain:p <- $r0
.Ltmp148:
	@DEBUG_VALUE: pbuf_dechain:tail_gone <- 1
	.loc	2 857 12 prologue_end   @ ../Libraries/lwip-1.4.1/src/core/pbuf.c:857:12
	ldr	r5, [r0]
.Ltmp149:
	@DEBUG_VALUE: pbuf_dechain:q <- $r5
	.loc	2 0 12 is_stmt 0        @ ../Libraries/lwip-1.4.1/src/core/pbuf.c:0:12
	movs	r4, #0
	.loc	2 859 9 is_stmt 1       @ ../Libraries/lwip-1.4.1/src/core/pbuf.c:859:9
	cbz	r5, .LBB10_2
.Ltmp150:
@ %bb.1:
	@DEBUG_VALUE: pbuf_dechain:q <- $r5
	@DEBUG_VALUE: pbuf_dechain:p <- $r0
	.loc	2 862 9                 @ ../Libraries/lwip-1.4.1/src/core/pbuf.c:862:9
	ldrh	r1, [r0, #10]
	ldrh	r2, [r0, #8]
	subs	r2, r2, r1
.Ltmp151:
	.loc	2 864 20                @ ../Libraries/lwip-1.4.1/src/core/pbuf.c:864:20
	strh	r2, [r5, #8]
	.loc	2 868 20                @ ../Libraries/lwip-1.4.1/src/core/pbuf.c:868:20
	strh	r1, [r0, #8]
	.loc	2 866 17                @ ../Libraries/lwip-1.4.1/src/core/pbuf.c:866:17
	str	r4, [r0]
	.loc	2 871 21                @ ../Libraries/lwip-1.4.1/src/core/pbuf.c:871:21
	mov	r0, r5
.Ltmp152:
	bl	pbuf_free
.Ltmp153:
	@DEBUG_VALUE: pbuf_dechain:tail_gone <- $r0
	.loc	2 878 5                 @ ../Libraries/lwip-1.4.1/src/core/pbuf.c:878:5
	cmp	r0, #0
	it	eq
	moveq	r4, r5
.Ltmp154:
	@DEBUG_VALUE: pbuf_dechain:q <- $r4
.LBB10_2:
	.loc	2 881 5                 @ ../Libraries/lwip-1.4.1/src/core/pbuf.c:881:5
	mov	r0, r4
	pop	{r4, r5, r7, pc}
.Ltmp155:
.Lfunc_end10:
	.size	pbuf_dechain, .Lfunc_end10-pbuf_dechain
	.cfi_endproc
	.cantunwind
	.fnend
                                        @ -- End function
	.section	.text.pbuf_copy,"ax",%progbits
	.hidden	pbuf_copy               @ -- Begin function pbuf_copy
	.globl	pbuf_copy
	.p2align	1
	.type	pbuf_copy,%function
	.code	16                      @ @pbuf_copy
	.thumb_func
pbuf_copy:
.Lfunc_begin11:
	.loc	2 904 0                 @ ../Libraries/lwip-1.4.1/src/core/pbuf.c:904:0
	.fnstart
	.cfi_startproc
@ %bb.0:
	.save	{r4, r5, r6, r7, r8, lr}
	push.w	{r4, r5, r6, r7, r8, lr}
	.cfi_def_cfa_offset 24
	.cfi_offset lr, -4
	.cfi_offset r8, -8
	.cfi_offset r7, -12
	.cfi_offset r6, -16
	.cfi_offset r5, -20
	.cfi_offset r4, -24
	@DEBUG_VALUE: pbuf_copy:p_to <- $r0
	@DEBUG_VALUE: pbuf_copy:p_from <- $r1
	mov	r5, r0
	movs	r0, #242
.Ltmp156:
	@DEBUG_VALUE: pbuf_copy:offset_from <- 0
	@DEBUG_VALUE: pbuf_copy:offset_to <- 0
	@DEBUG_VALUE: pbuf_copy:p_to <- $r5
	.loc	2 911 5 prologue_end    @ ../Libraries/lwip-1.4.1/src/core/pbuf.c:911:5
	cmp	r5, #0
	beq	.LBB11_17
.Ltmp157:
@ %bb.1:
	@DEBUG_VALUE: pbuf_copy:p_to <- $r5
	@DEBUG_VALUE: pbuf_copy:p_from <- $r1
	.loc	2 0 5 is_stmt 0         @ ../Libraries/lwip-1.4.1/src/core/pbuf.c:0:5
	mov	r4, r1
.Ltmp158:
	@DEBUG_VALUE: pbuf_copy:p_from <- $r4
	.loc	2 911 5                 @ ../Libraries/lwip-1.4.1/src/core/pbuf.c:911:5
	cmp	r1, #0
	beq	.LBB11_17
.Ltmp159:
@ %bb.2:
	@DEBUG_VALUE: pbuf_copy:p_from <- $r4
	@DEBUG_VALUE: pbuf_copy:p_to <- $r5
	ldrh	r0, [r4, #8]
	ldrh	r1, [r5, #8]
.Ltmp160:
	.loc	2 911 5                 @ ../Libraries/lwip-1.4.1/src/core/pbuf.c:911:5
	cmp	r1, r0
	blo	.LBB11_16
.Ltmp161:
@ %bb.3:
	@DEBUG_VALUE: pbuf_copy:p_from <- $r4
	@DEBUG_VALUE: pbuf_copy:p_to <- $r5
	.loc	2 0 5                   @ ../Libraries/lwip-1.4.1/src/core/pbuf.c:0:5
	mov.w	r8, #0
	movs	r7, #0
.Ltmp162:
	.p2align	2
.LBB11_4:                               @ =>This Inner Loop Header: Depth=1
	@DEBUG_VALUE: pbuf_copy:p_from <- $r4
	@DEBUG_VALUE: pbuf_copy:p_to <- $r5
	@DEBUG_VALUE: pbuf_copy:p_to <- $r5
	@DEBUG_VALUE: pbuf_copy:p_from <- $r4
	.loc	2 918 20 is_stmt 1      @ ../Libraries/lwip-1.4.1/src/core/pbuf.c:918:20
	ldrh	r0, [r5, #10]
	.loc	2 918 26 is_stmt 0      @ ../Libraries/lwip-1.4.1/src/core/pbuf.c:918:26
	uxth.w	r1, r8
	.loc	2 918 55                @ ../Libraries/lwip-1.4.1/src/core/pbuf.c:918:55
	uxth	r2, r7
	.loc	2 918 24                @ ../Libraries/lwip-1.4.1/src/core/pbuf.c:918:24
	subs	r0, r0, r1
	.loc	2 918 49                @ ../Libraries/lwip-1.4.1/src/core/pbuf.c:918:49
	ldrh	r1, [r4, #10]
	.loc	2 918 53                @ ../Libraries/lwip-1.4.1/src/core/pbuf.c:918:53
	subs	r1, r1, r2
.Ltmp163:
	.loc	2 918 13                @ ../Libraries/lwip-1.4.1/src/core/pbuf.c:918:13
	cmp	r0, r1
	it	lt
	movlt	r1, r0
	.loc	2 928 9 is_stmt 1       @ ../Libraries/lwip-1.4.1/src/core/pbuf.c:928:9
	uxth	r6, r1
	ldr	r0, [r5, #4]
	ldr	r1, [r4, #4]
	mov	r2, r6
	uxtah	r0, r0, r8
	uxtah	r1, r1, r7
	bl	__aeabi_memcpy
	.loc	2 930 21                @ ../Libraries/lwip-1.4.1/src/core/pbuf.c:930:21
	uxtah	r7, r6, r7
.Ltmp164:
	.loc	2 932 9                 @ ../Libraries/lwip-1.4.1/src/core/pbuf.c:932:9
	ldrh	r1, [r4, #10]
.Ltmp165:
	.loc	2 929 19                @ ../Libraries/lwip-1.4.1/src/core/pbuf.c:929:19
	uxtah	r8, r6, r8
.Ltmp166:
	.loc	2 932 9                 @ ../Libraries/lwip-1.4.1/src/core/pbuf.c:932:9
	uxth	r0, r7
.Ltmp167:
	.loc	2 933 13                @ ../Libraries/lwip-1.4.1/src/core/pbuf.c:933:13
	cmp	r0, r1
	@DEBUG_VALUE: pbuf_copy:offset_from <- 0
.Ltmp168:
	.loc	2 937 30                @ ../Libraries/lwip-1.4.1/src/core/pbuf.c:937:30
	itt	hs
	ldrhs	r4, [r4]
.Ltmp169:
	@DEBUG_VALUE: pbuf_copy:p_from <- $r4
	.loc	2 0 30 is_stmt 0        @ ../Libraries/lwip-1.4.1/src/core/pbuf.c:0:30
	movhs	r7, #0
.Ltmp170:
	@DEBUG_VALUE: pbuf_copy:p_from <- $r4
	.loc	2 939 32 is_stmt 1      @ ../Libraries/lwip-1.4.1/src/core/pbuf.c:939:32
	ldrh	r0, [r5, #10]
	.loc	2 939 23 is_stmt 0      @ ../Libraries/lwip-1.4.1/src/core/pbuf.c:939:23
	uxth.w	r1, r8
.Ltmp171:
	.loc	2 939 13                @ ../Libraries/lwip-1.4.1/src/core/pbuf.c:939:13
	cmp	r0, r1
	bne	.LBB11_7
.Ltmp172:
@ %bb.5:                                @   in Loop: Header=BB11_4 Depth=1
	@DEBUG_VALUE: pbuf_copy:p_from <- $r4
	@DEBUG_VALUE: pbuf_copy:p_to <- $r5
	@DEBUG_VALUE: pbuf_copy:offset_to <- 0
	.loc	2 943 26 is_stmt 1      @ ../Libraries/lwip-1.4.1/src/core/pbuf.c:943:26
	ldr	r5, [r5]
.Ltmp173:
	@DEBUG_VALUE: pbuf_copy:p_to <- $r5
	.loc	2 0 26 is_stmt 0        @ ../Libraries/lwip-1.4.1/src/core/pbuf.c:0:26
	mov.w	r8, #0
.Ltmp174:
	.loc	2 944 13 is_stmt 1      @ ../Libraries/lwip-1.4.1/src/core/pbuf.c:944:13
	cbz	r4, .LBB11_7
.Ltmp175:
@ %bb.6:                                @   in Loop: Header=BB11_4 Depth=1
	@DEBUG_VALUE: pbuf_copy:p_from <- $r4
	@DEBUG_VALUE: pbuf_copy:p_to <- $r5
	cbz	r5, .LBB11_16
.Ltmp176:
.LBB11_7:                               @   in Loop: Header=BB11_4 Depth=1
	@DEBUG_VALUE: pbuf_copy:p_from <- $r4
	@DEBUG_VALUE: pbuf_copy:p_to <- $r5
	@DEBUG_VALUE: pbuf_copy:p_to <- $r5
	.loc	2 947 30                @ ../Libraries/lwip-1.4.1/src/core/pbuf.c:947:30
	cbz	r4, .LBB11_10
.Ltmp177:
@ %bb.8:                                @   in Loop: Header=BB11_4 Depth=1
	@DEBUG_VALUE: pbuf_copy:p_from <- $r4
	@DEBUG_VALUE: pbuf_copy:p_to <- $r5
	.loc	2 947 57 is_stmt 0      @ ../Libraries/lwip-1.4.1/src/core/pbuf.c:947:57
	ldrh	r0, [r4, #8]
	.loc	2 947 42                @ ../Libraries/lwip-1.4.1/src/core/pbuf.c:947:42
	ldrh	r1, [r4, #10]
.Ltmp178:
	.loc	2 947 13                @ ../Libraries/lwip-1.4.1/src/core/pbuf.c:947:13
	cmp	r1, r0
	bne	.LBB11_10
.Ltmp179:
@ %bb.9:                                @   in Loop: Header=BB11_4 Depth=1
	@DEBUG_VALUE: pbuf_copy:p_from <- $r4
	@DEBUG_VALUE: pbuf_copy:p_to <- $r5
	.loc	2 950 13 is_stmt 1      @ ../Libraries/lwip-1.4.1/src/core/pbuf.c:950:13
	ldr	r0, [r4]
.Ltmp180:
	.loc	2 950 13 is_stmt 0      @ ../Libraries/lwip-1.4.1/src/core/pbuf.c:950:13
	cbnz	r0, .LBB11_18
.Ltmp181:
.LBB11_10:                              @   in Loop: Header=BB11_4 Depth=1
	@DEBUG_VALUE: pbuf_copy:p_from <- $r4
	@DEBUG_VALUE: pbuf_copy:p_to <- $r5
	.loc	2 953 28 is_stmt 1      @ ../Libraries/lwip-1.4.1/src/core/pbuf.c:953:28
	cbz	r5, .LBB11_14
.Ltmp182:
@ %bb.11:                               @   in Loop: Header=BB11_4 Depth=1
	@DEBUG_VALUE: pbuf_copy:p_from <- $r4
	@DEBUG_VALUE: pbuf_copy:p_to <- $r5
	.loc	2 953 51 is_stmt 0      @ ../Libraries/lwip-1.4.1/src/core/pbuf.c:953:51
	ldrh	r0, [r5, #8]
	.loc	2 953 38                @ ../Libraries/lwip-1.4.1/src/core/pbuf.c:953:38
	ldrh	r1, [r5, #10]
.Ltmp183:
	.loc	2 953 13                @ ../Libraries/lwip-1.4.1/src/core/pbuf.c:953:13
	cmp	r1, r0
	bne	.LBB11_14
.Ltmp184:
@ %bb.12:                               @   in Loop: Header=BB11_4 Depth=1
	@DEBUG_VALUE: pbuf_copy:p_from <- $r4
	@DEBUG_VALUE: pbuf_copy:p_to <- $r5
	.loc	2 956 13 is_stmt 1      @ ../Libraries/lwip-1.4.1/src/core/pbuf.c:956:13
	ldr	r0, [r5]
.Ltmp185:
	.loc	2 956 13 is_stmt 0      @ ../Libraries/lwip-1.4.1/src/core/pbuf.c:956:13
	cbnz	r0, .LBB11_19
.Ltmp186:
@ %bb.13:                               @   in Loop: Header=BB11_4 Depth=1
	@DEBUG_VALUE: pbuf_copy:p_from <- $r4
	@DEBUG_VALUE: pbuf_copy:p_to <- $r5
	cmp	r4, #0
	bne	.LBB11_4
	b	.LBB11_19
.Ltmp187:
	.p2align	2
.LBB11_14:                              @   in Loop: Header=BB11_4 Depth=1
	@DEBUG_VALUE: pbuf_copy:p_from <- $r4
	@DEBUG_VALUE: pbuf_copy:p_to <- $r5
	.loc	2 959 5 is_stmt 1       @ ../Libraries/lwip-1.4.1/src/core/pbuf.c:959:5
	cmp	r4, #0
	bne	.LBB11_4
.Ltmp188:
@ %bb.15:
	@DEBUG_VALUE: pbuf_copy:p_from <- $r4
	@DEBUG_VALUE: pbuf_copy:p_to <- $r5
	.loc	2 0 5 is_stmt 0         @ ../Libraries/lwip-1.4.1/src/core/pbuf.c:0:5
	movs	r0, #0
	b	.LBB11_17
.Ltmp189:
.LBB11_16:
	@DEBUG_VALUE: pbuf_copy:p_from <- $r4
	@DEBUG_VALUE: pbuf_copy:p_to <- $r5
	movs	r0, #242
.Ltmp190:
.LBB11_17:
	@DEBUG_VALUE: pbuf_copy:p_to <- $r5
	.loc	2 963 1 is_stmt 1       @ ../Libraries/lwip-1.4.1/src/core/pbuf.c:963:1
	sxtb	r0, r0
	pop.w	{r4, r5, r6, r7, r8, pc}
.Ltmp191:
.LBB11_18:
	@DEBUG_VALUE: pbuf_copy:p_from <- $r4
	@DEBUG_VALUE: pbuf_copy:p_to <- $r5
	.loc	2 0 1 is_stmt 0         @ ../Libraries/lwip-1.4.1/src/core/pbuf.c:0:1
	movs	r0, #250
	b	.LBB11_17
.Ltmp192:
.LBB11_19:
	@DEBUG_VALUE: pbuf_copy:p_from <- $r4
	@DEBUG_VALUE: pbuf_copy:p_to <- $r5
	.loc	2 956 13 is_stmt 1      @ ../Libraries/lwip-1.4.1/src/core/pbuf.c:956:13
	cmp	r0, #0
	it	ne
	mvnne	r0, #5
	b	.LBB11_17
.Ltmp193:
.Lfunc_end11:
	.size	pbuf_copy, .Lfunc_end11-pbuf_copy
	.cfi_endproc
	.cantunwind
	.fnend
                                        @ -- End function
	.section	.text.pbuf_copy_partial,"ax",%progbits
	.hidden	pbuf_copy_partial       @ -- Begin function pbuf_copy_partial
	.globl	pbuf_copy_partial
	.p2align	1
	.type	pbuf_copy_partial,%function
	.code	16                      @ @pbuf_copy_partial
	.thumb_func
pbuf_copy_partial:
.Lfunc_begin12:
	.loc	2 978 0                 @ ../Libraries/lwip-1.4.1/src/core/pbuf.c:978:0
	.fnstart
	.cfi_startproc
@ %bb.0:
	.save	{r4, r5, r6, r7, r8, r9, lr}
	push.w	{r4, r5, r6, r7, r8, r9, lr}
	.cfi_def_cfa_offset 28
	.cfi_offset lr, -4
	.cfi_offset r9, -8
	.cfi_offset r8, -12
	.cfi_offset r7, -16
	.cfi_offset r6, -20
	.cfi_offset r5, -24
	.cfi_offset r4, -28
	.pad	#4
	sub	sp, #4
	.cfi_def_cfa_offset 32
	@DEBUG_VALUE: pbuf_copy_partial:buf <- $r0
	@DEBUG_VALUE: pbuf_copy_partial:dataptr <- $r1
	@DEBUG_VALUE: pbuf_copy_partial:len <- $r2
	@DEBUG_VALUE: pbuf_copy_partial:offset <- $r3
.Ltmp194:
	@DEBUG_VALUE: pbuf_copy_partial:p <- $r0
	mov.w	r9, #0
.Ltmp195:
	@DEBUG_VALUE: pbuf_copy_partial:left <- 0
	@DEBUG_VALUE: pbuf_copy_partial:copied_total <- 0
	@DEBUG_VALUE: pbuf_copy_partial:offset <- $r3
	.loc	2 984 5 prologue_end    @ ../Libraries/lwip-1.4.1/src/core/pbuf.c:984:5
	cbz	r0, .LBB12_10
.Ltmp196:
@ %bb.1:
	@DEBUG_VALUE: pbuf_copy_partial:p <- $r0
	@DEBUG_VALUE: pbuf_copy_partial:offset <- $r3
	@DEBUG_VALUE: pbuf_copy_partial:len <- $r2
	@DEBUG_VALUE: pbuf_copy_partial:dataptr <- $r1
	@DEBUG_VALUE: pbuf_copy_partial:buf <- $r0
	.loc	2 0 5 is_stmt 0         @ ../Libraries/lwip-1.4.1/src/core/pbuf.c:0:5
	mov	r8, r1
.Ltmp197:
	@DEBUG_VALUE: pbuf_copy_partial:dataptr <- $r8
	.loc	2 984 5                 @ ../Libraries/lwip-1.4.1/src/core/pbuf.c:984:5
	cbz	r1, .LBB12_10
.Ltmp198:
@ %bb.2:
	@DEBUG_VALUE: pbuf_copy_partial:dataptr <- $r8
	@DEBUG_VALUE: pbuf_copy_partial:p <- $r0
	@DEBUG_VALUE: pbuf_copy_partial:offset <- $r3
	@DEBUG_VALUE: pbuf_copy_partial:len <- $r2
	@DEBUG_VALUE: pbuf_copy_partial:buf <- $r0
	.loc	2 0 5                   @ ../Libraries/lwip-1.4.1/src/core/pbuf.c:0:5
	mov	r4, r2
.Ltmp199:
	@DEBUG_VALUE: pbuf_copy_partial:len <- $r4
	.loc	2 984 5                 @ ../Libraries/lwip-1.4.1/src/core/pbuf.c:984:5
	cbz	r2, .LBB12_10
.Ltmp200:
@ %bb.3:
	@DEBUG_VALUE: pbuf_copy_partial:len <- $r4
	@DEBUG_VALUE: pbuf_copy_partial:dataptr <- $r8
	@DEBUG_VALUE: pbuf_copy_partial:p <- $r0
	@DEBUG_VALUE: pbuf_copy_partial:offset <- $r3
	@DEBUG_VALUE: pbuf_copy_partial:buf <- $r0
	.loc	2 0 5                   @ ../Libraries/lwip-1.4.1/src/core/pbuf.c:0:5
	mov	r6, r0
.Ltmp201:
	@DEBUG_VALUE: pbuf_copy_partial:buf <- $r6
	@DEBUG_VALUE: pbuf_copy_partial:buf <- $r6
	@DEBUG_VALUE: pbuf_copy_partial:p <- $r6
	@DEBUG_VALUE: pbuf_copy_partial:offset <- $r3
	mov.w	r9, #0
	movs	r5, #0
.Ltmp202:
	.p2align	2
.LBB12_4:                               @ =>This Inner Loop Header: Depth=1
	@DEBUG_VALUE: pbuf_copy_partial:p <- $r6
	@DEBUG_VALUE: pbuf_copy_partial:buf <- $r6
	@DEBUG_VALUE: pbuf_copy_partial:len <- $r4
	@DEBUG_VALUE: pbuf_copy_partial:dataptr <- $r8
	@DEBUG_VALUE: pbuf_copy_partial:offset <- $r3
	@DEBUG_VALUE: pbuf_copy_partial:len <- $r4
	@DEBUG_VALUE: pbuf_copy_partial:offset <- $r3
	@DEBUG_VALUE: pbuf_copy_partial:p <- $r6
	@DEBUG_VALUE: pbuf_copy_partial:copied_total <- $r9
	@DEBUG_VALUE: pbuf_copy_partial:left <- $r5
	ldrh	r0, [r6, #10]
	.loc	2 997 27 is_stmt 1      @ ../Libraries/lwip-1.4.1/src/core/pbuf.c:997:27
	lsls	r1, r3, #16
	beq	.LBB12_7
.Ltmp203:
@ %bb.5:                                @   in Loop: Header=BB12_4 Depth=1
	@DEBUG_VALUE: pbuf_copy_partial:left <- $r5
	@DEBUG_VALUE: pbuf_copy_partial:copied_total <- $r9
	@DEBUG_VALUE: pbuf_copy_partial:p <- $r6
	@DEBUG_VALUE: pbuf_copy_partial:buf <- $r6
	@DEBUG_VALUE: pbuf_copy_partial:len <- $r4
	@DEBUG_VALUE: pbuf_copy_partial:dataptr <- $r8
	@DEBUG_VALUE: pbuf_copy_partial:offset <- $r3
	.loc	2 0 27 is_stmt 0        @ ../Libraries/lwip-1.4.1/src/core/pbuf.c:0:27
	uxth	r1, r3
	.loc	2 997 27                @ ../Libraries/lwip-1.4.1/src/core/pbuf.c:997:27
	cmp	r1, r0
	blo	.LBB12_7
.Ltmp204:
@ %bb.6:                                @   in Loop: Header=BB12_4 Depth=1
	@DEBUG_VALUE: pbuf_copy_partial:left <- $r5
	@DEBUG_VALUE: pbuf_copy_partial:copied_total <- $r9
	@DEBUG_VALUE: pbuf_copy_partial:p <- $r6
	@DEBUG_VALUE: pbuf_copy_partial:buf <- $r6
	@DEBUG_VALUE: pbuf_copy_partial:len <- $r4
	@DEBUG_VALUE: pbuf_copy_partial:dataptr <- $r8
	@DEBUG_VALUE: pbuf_copy_partial:offset <- $r3
	.loc	2 1000 20 is_stmt 1     @ ../Libraries/lwip-1.4.1/src/core/pbuf.c:1000:20
	subs	r3, r3, r0
.Ltmp205:
	@DEBUG_VALUE: pbuf_copy_partial:offset <- $r3
	.loc	2 0 20 is_stmt 0        @ ../Libraries/lwip-1.4.1/src/core/pbuf.c:0:20
	b	.LBB12_8
.Ltmp206:
	.p2align	2
.LBB12_7:                               @   in Loop: Header=BB12_4 Depth=1
	@DEBUG_VALUE: pbuf_copy_partial:left <- $r5
	@DEBUG_VALUE: pbuf_copy_partial:copied_total <- $r9
	@DEBUG_VALUE: pbuf_copy_partial:p <- $r6
	@DEBUG_VALUE: pbuf_copy_partial:buf <- $r6
	@DEBUG_VALUE: pbuf_copy_partial:len <- $r4
	@DEBUG_VALUE: pbuf_copy_partial:dataptr <- $r8
	@DEBUG_VALUE: pbuf_copy_partial:offset <- $r3
	.loc	2 1005 35 is_stmt 1     @ ../Libraries/lwip-1.4.1/src/core/pbuf.c:1005:35
	subs	r7, r0, r3
.Ltmp207:
	@DEBUG_VALUE: pbuf_copy_partial:buf_copy_len <- $r7
	.loc	2 1006 30               @ ../Libraries/lwip-1.4.1/src/core/pbuf.c:1006:30
	uxth	r1, r4
.Ltmp208:
	.loc	2 1005 35               @ ../Libraries/lwip-1.4.1/src/core/pbuf.c:1005:35
	uxth	r0, r7
	.loc	2 1006 17               @ ../Libraries/lwip-1.4.1/src/core/pbuf.c:1006:17
	cmp	r0, r1
	it	hi
	movhi	r7, r4
.Ltmp209:
	@DEBUG_VALUE: pbuf_copy_partial:buf_copy_len <- $r7
	.loc	2 1009 13               @ ../Libraries/lwip-1.4.1/src/core/pbuf.c:1009:13
	ldr	r1, [r6, #4]
	uxth	r2, r7
	uxtah	r0, r8, r5
	uxtah	r1, r1, r3
	bl	__aeabi_memcpy
.Ltmp210:
	.loc	2 1012 17               @ ../Libraries/lwip-1.4.1/src/core/pbuf.c:1012:17
	subs	r4, r4, r7
.Ltmp211:
	@DEBUG_VALUE: pbuf_copy_partial:len <- $r4
	.loc	2 1011 18               @ ../Libraries/lwip-1.4.1/src/core/pbuf.c:1011:18
	add	r5, r7
.Ltmp212:
	@DEBUG_VALUE: pbuf_copy_partial:left <- $r5
	.loc	2 1010 26               @ ../Libraries/lwip-1.4.1/src/core/pbuf.c:1010:26
	add	r9, r7
.Ltmp213:
	@DEBUG_VALUE: pbuf_copy_partial:copied_total <- $r9
	.loc	2 0 26 is_stmt 0        @ ../Libraries/lwip-1.4.1/src/core/pbuf.c:0:26
	movs	r3, #0
.Ltmp214:
	@DEBUG_VALUE: pbuf_copy_partial:offset <- 0
.LBB12_8:                               @   in Loop: Header=BB12_4 Depth=1
	@DEBUG_VALUE: pbuf_copy_partial:left <- $r5
	@DEBUG_VALUE: pbuf_copy_partial:copied_total <- $r9
	@DEBUG_VALUE: pbuf_copy_partial:p <- $r6
	@DEBUG_VALUE: pbuf_copy_partial:buf <- $r6
	@DEBUG_VALUE: pbuf_copy_partial:len <- $r4
	@DEBUG_VALUE: pbuf_copy_partial:dataptr <- $r8
	@DEBUG_VALUE: pbuf_copy_partial:len <- $r4
	@DEBUG_VALUE: pbuf_copy_partial:offset <- $r3
	@DEBUG_VALUE: pbuf_copy_partial:copied_total <- $r9
	@DEBUG_VALUE: pbuf_copy_partial:left <- $r5
	.loc	2 995 5 is_stmt 1       @ ../Libraries/lwip-1.4.1/src/core/pbuf.c:995:5
	lsls	r0, r4, #16
	beq	.LBB12_10
.Ltmp215:
@ %bb.9:                                @   in Loop: Header=BB12_4 Depth=1
	@DEBUG_VALUE: pbuf_copy_partial:left <- $r5
	@DEBUG_VALUE: pbuf_copy_partial:copied_total <- $r9
	@DEBUG_VALUE: pbuf_copy_partial:p <- $r6
	@DEBUG_VALUE: pbuf_copy_partial:buf <- $r6
	@DEBUG_VALUE: pbuf_copy_partial:len <- $r4
	@DEBUG_VALUE: pbuf_copy_partial:dataptr <- $r8
	@DEBUG_VALUE: pbuf_copy_partial:offset <- $r3
	.loc	2 0 0 is_stmt 0         @ ../Libraries/lwip-1.4.1/src/core/pbuf.c:0:0
	ldr	r6, [r6]
.Ltmp216:
	@DEBUG_VALUE: pbuf_copy_partial:p <- $r6
	.loc	2 995 5                 @ ../Libraries/lwip-1.4.1/src/core/pbuf.c:995:5
	cmp	r6, #0
	bne	.LBB12_4
.Ltmp217:
.LBB12_10:
	@DEBUG_VALUE: pbuf_copy_partial:offset <- $r3
	.loc	2 1017 1 is_stmt 1      @ ../Libraries/lwip-1.4.1/src/core/pbuf.c:1017:1
	uxth.w	r0, r9
	add	sp, #4
	pop.w	{r4, r5, r6, r7, r8, r9, pc}
.Ltmp218:
.Lfunc_end12:
	.size	pbuf_copy_partial, .Lfunc_end12-pbuf_copy_partial
	.cfi_endproc
	.cantunwind
	.fnend
                                        @ -- End function
	.section	.text.pbuf_take,"ax",%progbits
	.hidden	pbuf_take               @ -- Begin function pbuf_take
	.globl	pbuf_take
	.p2align	1
	.type	pbuf_take,%function
	.code	16                      @ @pbuf_take
	.thumb_func
pbuf_take:
.Lfunc_begin13:
	.loc	2 1031 0                @ ../Libraries/lwip-1.4.1/src/core/pbuf.c:1031:0
	.fnstart
	.cfi_startproc
@ %bb.0:
	.save	{r4, r5, r6, r7, r8, lr}
	push.w	{r4, r5, r6, r7, r8, lr}
	.cfi_def_cfa_offset 24
	.cfi_offset lr, -4
	.cfi_offset r8, -8
	.cfi_offset r7, -12
	.cfi_offset r6, -16
	.cfi_offset r5, -20
	.cfi_offset r4, -24
	@DEBUG_VALUE: pbuf_take:buf <- $r0
	@DEBUG_VALUE: pbuf_take:dataptr <- $r1
	@DEBUG_VALUE: pbuf_take:len <- $r2
.Ltmp219:
	@DEBUG_VALUE: pbuf_take:total_copy_len <- $r2
	mov	r6, r0
	movs	r0, #0
.Ltmp220:
	@DEBUG_VALUE: pbuf_take:copied_total <- 0
	@DEBUG_VALUE: pbuf_take:buf <- $r6
	.loc	2 1037 5 prologue_end   @ ../Libraries/lwip-1.4.1/src/core/pbuf.c:1037:5
	cbz	r6, .LBB13_8
.Ltmp221:
@ %bb.1:
	@DEBUG_VALUE: pbuf_take:buf <- $r6
	@DEBUG_VALUE: pbuf_take:total_copy_len <- $r2
	@DEBUG_VALUE: pbuf_take:len <- $r2
	@DEBUG_VALUE: pbuf_take:dataptr <- $r1
	.loc	2 0 5 is_stmt 0         @ ../Libraries/lwip-1.4.1/src/core/pbuf.c:0:5
	mov	r8, r1
.Ltmp222:
	@DEBUG_VALUE: pbuf_take:dataptr <- $r8
	.loc	2 1037 5                @ ../Libraries/lwip-1.4.1/src/core/pbuf.c:1037:5
	cbz	r1, .LBB13_8
.Ltmp223:
@ %bb.2:
	@DEBUG_VALUE: pbuf_take:dataptr <- $r8
	@DEBUG_VALUE: pbuf_take:buf <- $r6
	@DEBUG_VALUE: pbuf_take:total_copy_len <- $r2
	@DEBUG_VALUE: pbuf_take:len <- $r2
	.loc	2 1040 53 is_stmt 1     @ ../Libraries/lwip-1.4.1/src/core/pbuf.c:1040:53
	ldrh	r0, [r6, #8]
	mov	r4, r2
.Ltmp224:
	@DEBUG_VALUE: pbuf_take:total_copy_len <- $r4
	@DEBUG_VALUE: pbuf_take:len <- $r4
	.loc	2 1040 9 is_stmt 0      @ ../Libraries/lwip-1.4.1/src/core/pbuf.c:1040:9
	cmp	r0, r2
	bhs	.LBB13_4
.Ltmp225:
@ %bb.3:
	@DEBUG_VALUE: pbuf_take:len <- $r4
	@DEBUG_VALUE: pbuf_take:total_copy_len <- $r4
	@DEBUG_VALUE: pbuf_take:dataptr <- $r8
	@DEBUG_VALUE: pbuf_take:buf <- $r6
	.loc	2 0 9                   @ ../Libraries/lwip-1.4.1/src/core/pbuf.c:0:9
	movs	r0, #242
	b	.LBB13_8
.Ltmp226:
.LBB13_4:
	@DEBUG_VALUE: pbuf_take:len <- $r4
	@DEBUG_VALUE: pbuf_take:total_copy_len <- $r4
	@DEBUG_VALUE: pbuf_take:dataptr <- $r8
	@DEBUG_VALUE: pbuf_take:buf <- $r6
	.loc	2 1046 5 is_stmt 1      @ ../Libraries/lwip-1.4.1/src/core/pbuf.c:1046:5
	cbz	r4, .LBB13_7
.Ltmp227:
@ %bb.5:
	@DEBUG_VALUE: pbuf_take:len <- $r4
	@DEBUG_VALUE: pbuf_take:total_copy_len <- $r4
	@DEBUG_VALUE: pbuf_take:dataptr <- $r8
	@DEBUG_VALUE: pbuf_take:buf <- $r6
	.loc	2 0 5 is_stmt 0         @ ../Libraries/lwip-1.4.1/src/core/pbuf.c:0:5
	movs	r7, #0
.Ltmp228:
	.p2align	2
.LBB13_6:                               @ =>This Inner Loop Header: Depth=1
	@DEBUG_VALUE: pbuf_take:len <- $r4
	@DEBUG_VALUE: pbuf_take:total_copy_len <- $r4
	@DEBUG_VALUE: pbuf_take:dataptr <- $r8
	@DEBUG_VALUE: pbuf_take:buf <- $r6
	@DEBUG_VALUE: pbuf_take:total_copy_len <- $r4
	@DEBUG_VALUE: pbuf_take:buf_copy_len <- $r4
	@DEBUG_VALUE: pbuf_take:p <- $r6
	.loc	2 1050 31 is_stmt 1     @ ../Libraries/lwip-1.4.1/src/core/pbuf.c:1050:31
	ldrh	r5, [r6, #10]
	.loc	2 1050 26 is_stmt 0     @ ../Libraries/lwip-1.4.1/src/core/pbuf.c:1050:26
	uxth	r0, r4
.Ltmp229:
	.loc	2 1056 9 is_stmt 1      @ ../Libraries/lwip-1.4.1/src/core/pbuf.c:1056:9
	uxtah	r1, r8, r7
	.loc	2 1050 13               @ ../Libraries/lwip-1.4.1/src/core/pbuf.c:1050:13
	cmp	r0, r5
	it	ls
	movls	r5, r4
.Ltmp230:
	@DEBUG_VALUE: pbuf_take:buf_copy_len <- $r5
	.loc	2 1056 9                @ ../Libraries/lwip-1.4.1/src/core/pbuf.c:1056:9
	ldr	r0, [r6, #4]
	uxth	r2, r5
	bl	__aeabi_memcpy
	uxth	r0, r7
	.loc	2 1057 24               @ ../Libraries/lwip-1.4.1/src/core/pbuf.c:1057:24
	subs	r4, r4, r5
.Ltmp231:
	@DEBUG_VALUE: pbuf_take:total_copy_len <- $r4
	.loc	2 1046 47               @ ../Libraries/lwip-1.4.1/src/core/pbuf.c:1046:47
	ldr	r6, [r6]
.Ltmp232:
	@DEBUG_VALUE: pbuf_take:p <- $r6
	.loc	2 1058 22               @ ../Libraries/lwip-1.4.1/src/core/pbuf.c:1058:22
	uxtah	r7, r0, r5
.Ltmp233:
	.loc	2 1046 5                @ ../Libraries/lwip-1.4.1/src/core/pbuf.c:1046:5
	lsls	r0, r4, #16
	bne	.LBB13_6
.Ltmp234:
.LBB13_7:
	@DEBUG_VALUE: pbuf_take:total_copy_len <- $r4
	@DEBUG_VALUE: pbuf_take:dataptr <- $r8
	.loc	2 0 5 is_stmt 0         @ ../Libraries/lwip-1.4.1/src/core/pbuf.c:0:5
	movs	r0, #0
.Ltmp235:
.LBB13_8:
	.loc	2 1062 1 is_stmt 1      @ ../Libraries/lwip-1.4.1/src/core/pbuf.c:1062:1
	sxtb	r0, r0
	pop.w	{r4, r5, r6, r7, r8, pc}
.Ltmp236:
.Lfunc_end13:
	.size	pbuf_take, .Lfunc_end13-pbuf_take
	.cfi_endproc
	.cantunwind
	.fnend
                                        @ -- End function
	.section	.text.pbuf_coalesce,"ax",%progbits
	.hidden	pbuf_coalesce           @ -- Begin function pbuf_coalesce
	.globl	pbuf_coalesce
	.p2align	1
	.type	pbuf_coalesce,%function
	.code	16                      @ @pbuf_coalesce
	.thumb_func
pbuf_coalesce:
.Lfunc_begin14:
	.loc	2 1078 0                @ ../Libraries/lwip-1.4.1/src/core/pbuf.c:1078:0
	.fnstart
	.cfi_startproc
@ %bb.0:
	.save	{r4, r5, r7, lr}
	push	{r4, r5, r7, lr}
	.cfi_def_cfa_offset 16
	.cfi_offset lr, -4
	.cfi_offset r7, -8
	.cfi_offset r5, -12
	.cfi_offset r4, -16
	@DEBUG_VALUE: pbuf_coalesce:p <- $r0
	@DEBUG_VALUE: pbuf_coalesce:layer <- $r1
	mov	r4, r0
	@DEBUG_VALUE: pbuf_coalesce:layer <- $r1
.Ltmp237:
	@DEBUG_VALUE: pbuf_coalesce:p <- $r4
	.loc	2 1081 12 prologue_end  @ ../Libraries/lwip-1.4.1/src/core/pbuf.c:1081:12
	ldr	r0, [r0]
.Ltmp238:
	.loc	2 1081 9 is_stmt 0      @ ../Libraries/lwip-1.4.1/src/core/pbuf.c:1081:9
	cbz	r0, .LBB14_3
.Ltmp239:
@ %bb.1:
	@DEBUG_VALUE: pbuf_coalesce:p <- $r4
	@DEBUG_VALUE: pbuf_coalesce:layer <- $r1
	@DEBUG_VALUE: pbuf_coalesce:layer <- $r1
	.loc	2 1085 30 is_stmt 1     @ ../Libraries/lwip-1.4.1/src/core/pbuf.c:1085:30
	ldrh	r2, [r4, #8]
	.loc	2 1085 9 is_stmt 0      @ ../Libraries/lwip-1.4.1/src/core/pbuf.c:1085:9
	mov	r0, r1
	mov	r1, r2
.Ltmp240:
	movs	r2, #0
	bl	pbuf_alloc
	.loc	2 1086 9 is_stmt 1      @ ../Libraries/lwip-1.4.1/src/core/pbuf.c:1086:9
	cbz	r0, .LBB14_3
.Ltmp241:
@ %bb.2:
	@DEBUG_VALUE: pbuf_coalesce:p <- $r4
	.loc	2 1091 11               @ ../Libraries/lwip-1.4.1/src/core/pbuf.c:1091:11
	mov	r1, r4
	.loc	2 0 0 is_stmt 0         @ ../Libraries/lwip-1.4.1/src/core/pbuf.c:0:0
	mov	r5, r0
.Ltmp242:
	@DEBUG_VALUE: pbuf_coalesce:q <- $r5
	.loc	2 1091 11               @ ../Libraries/lwip-1.4.1/src/core/pbuf.c:1091:11
	bl	pbuf_copy
.Ltmp243:
	@DEBUG_VALUE: pbuf_coalesce:err <- undef
	.loc	2 1093 5 is_stmt 1      @ ../Libraries/lwip-1.4.1/src/core/pbuf.c:1093:5
	mov	r0, r4
	bl	pbuf_free
	b	.LBB14_4
.Ltmp244:
.LBB14_3:
	@DEBUG_VALUE: pbuf_coalesce:p <- $r4
	.loc	2 0 0 is_stmt 0         @ ../Libraries/lwip-1.4.1/src/core/pbuf.c:0:0
	mov	r5, r4
.Ltmp245:
	@DEBUG_VALUE: pbuf_coalesce:p <- $r5
.LBB14_4:
	.loc	2 1095 1 is_stmt 1      @ ../Libraries/lwip-1.4.1/src/core/pbuf.c:1095:1
	mov	r0, r5
	pop	{r4, r5, r7, pc}
.Ltmp246:
.Lfunc_end14:
	.size	pbuf_coalesce, .Lfunc_end14-pbuf_coalesce
	.cfi_endproc
	.cantunwind
	.fnend
                                        @ -- End function
	.section	.text.pbuf_fill_chksum,"ax",%progbits
	.hidden	pbuf_fill_chksum        @ -- Begin function pbuf_fill_chksum
	.globl	pbuf_fill_chksum
	.p2align	1
	.type	pbuf_fill_chksum,%function
	.code	16                      @ @pbuf_fill_chksum
	.thumb_func
pbuf_fill_chksum:
.Lfunc_begin15:
	.loc	2 1114 0                @ ../Libraries/lwip-1.4.1/src/core/pbuf.c:1114:0
	.fnstart
	.cfi_startproc
@ %bb.0:
	.save	{r4, r5, r7, lr}
	push	{r4, r5, r7, lr}
	.cfi_def_cfa_offset 16
	.cfi_offset lr, -4
	.cfi_offset r7, -8
	.cfi_offset r5, -12
	.cfi_offset r4, -16
	@DEBUG_VALUE: pbuf_fill_chksum:p <- $r0
	@DEBUG_VALUE: pbuf_fill_chksum:start_offset <- $r1
	@DEBUG_VALUE: pbuf_fill_chksum:dataptr <- $r2
	@DEBUG_VALUE: pbuf_fill_chksum:len <- $r3
	mov	r5, r1
	@DEBUG_VALUE: pbuf_fill_chksum:chksum <- [DW_OP_plus_uconst 16] [$sp+0]
	@DEBUG_VALUE: pbuf_fill_chksum:len <- $r3
	@DEBUG_VALUE: pbuf_fill_chksum:dataptr <- $r2
.Ltmp247:
	@DEBUG_VALUE: pbuf_fill_chksum:start_offset <- $r5
	@DEBUG_VALUE: pbuf_fill_chksum:p <- $r0
	.loc	2 1123 29 prologue_end  @ ../Libraries/lwip-1.4.1/src/core/pbuf.c:1123:29
	ldrh	r1, [r0, #10]
	.loc	2 1123 34 is_stmt 0     @ ../Libraries/lwip-1.4.1/src/core/pbuf.c:1123:34
	cmp	r1, r5
	bls	.LBB15_2
.Ltmp248:
@ %bb.1:
	@DEBUG_VALUE: pbuf_fill_chksum:start_offset <- $r5
	@DEBUG_VALUE: pbuf_fill_chksum:chksum <- [DW_OP_plus_uconst 16] [$sp+0]
	@DEBUG_VALUE: pbuf_fill_chksum:len <- $r3
	@DEBUG_VALUE: pbuf_fill_chksum:dataptr <- $r2
	@DEBUG_VALUE: pbuf_fill_chksum:p <- $r0
	.loc	2 1123 51               @ ../Libraries/lwip-1.4.1/src/core/pbuf.c:1123:51
	adds	r4, r3, r5
.Ltmp249:
	.loc	2 1123 9                @ ../Libraries/lwip-1.4.1/src/core/pbuf.c:1123:9
	cmp	r4, r1
	bls	.LBB15_3
.Ltmp250:
.LBB15_2:
	@DEBUG_VALUE: pbuf_fill_chksum:start_offset <- $r5
	@DEBUG_VALUE: pbuf_fill_chksum:chksum <- [DW_OP_plus_uconst 16] [$sp+0]
	@DEBUG_VALUE: pbuf_fill_chksum:len <- $r3
	@DEBUG_VALUE: pbuf_fill_chksum:dataptr <- $r2
	@DEBUG_VALUE: pbuf_fill_chksum:p <- $r0
	.loc	2 0 9                   @ ../Libraries/lwip-1.4.1/src/core/pbuf.c:0:9
	movs	r0, #242
.Ltmp251:
	b	.LBB15_4
.Ltmp252:
.LBB15_3:
	@DEBUG_VALUE: pbuf_fill_chksum:start_offset <- $r5
	@DEBUG_VALUE: pbuf_fill_chksum:chksum <- [DW_OP_plus_uconst 16] [$sp+0]
	@DEBUG_VALUE: pbuf_fill_chksum:len <- $r3
	@DEBUG_VALUE: pbuf_fill_chksum:dataptr <- $r2
	@DEBUG_VALUE: pbuf_fill_chksum:p <- $r0
	.loc	2 1128 27 is_stmt 1     @ ../Libraries/lwip-1.4.1/src/core/pbuf.c:1128:27
	ldr	r0, [r0, #4]
.Ltmp253:
	.loc	2 1129 19               @ ../Libraries/lwip-1.4.1/src/core/pbuf.c:1129:19
	mov	r1, r2
	ldr	r4, [sp, #16]
	mov	r2, r3
.Ltmp254:
	.loc	2 1128 36               @ ../Libraries/lwip-1.4.1/src/core/pbuf.c:1128:36
	add	r0, r5
.Ltmp255:
	@DEBUG_VALUE: pbuf_fill_chksum:dst_ptr <- $r0
	.loc	2 1129 19               @ ../Libraries/lwip-1.4.1/src/core/pbuf.c:1129:19
	bl	lwip_chksum_copy
.Ltmp256:
	@DEBUG_VALUE: pbuf_fill_chksum:copy_chksum <- $r0
	.loc	2 1130 9                @ ../Libraries/lwip-1.4.1/src/core/pbuf.c:1130:9
	lsls	r1, r5, #31
	it	ne
	rev16ne	r0, r0
.Ltmp257:
	@DEBUG_VALUE: pbuf_fill_chksum:copy_chksum <- $r0
	.loc	2 1134 11               @ ../Libraries/lwip-1.4.1/src/core/pbuf.c:1134:11
	ldrh	r1, [r4]
.Ltmp258:
	@DEBUG_VALUE: pbuf_fill_chksum:acc <- $r1
	.loc	2 1135 9                @ ../Libraries/lwip-1.4.1/src/core/pbuf.c:1135:9
	add	r0, r1
.Ltmp259:
	@DEBUG_VALUE: pbuf_fill_chksum:acc <- $r0
	.loc	2 1136 15               @ ../Libraries/lwip-1.4.1/src/core/pbuf.c:1136:15
	add.w	r0, r0, r0, lsr #16
.Ltmp260:
	.loc	2 1136 13 is_stmt 0     @ ../Libraries/lwip-1.4.1/src/core/pbuf.c:1136:13
	strh	r0, [r4]
	movs	r0, #0
.Ltmp261:
.LBB15_4:
	@DEBUG_VALUE: pbuf_fill_chksum:start_offset <- $r5
	@DEBUG_VALUE: pbuf_fill_chksum:chksum <- [DW_OP_plus_uconst 16] [$sp+0]
	.loc	2 1138 1 is_stmt 1      @ ../Libraries/lwip-1.4.1/src/core/pbuf.c:1138:1
	sxtb	r0, r0
	pop	{r4, r5, r7, pc}
.Ltmp262:
.Lfunc_end15:
	.size	pbuf_fill_chksum, .Lfunc_end15-pbuf_fill_chksum
	.cfi_endproc
	.cantunwind
	.fnend
                                        @ -- End function
	.section	.text.pbuf_get_at,"ax",%progbits
	.hidden	pbuf_get_at             @ -- Begin function pbuf_get_at
	.globl	pbuf_get_at
	.p2align	1
	.type	pbuf_get_at,%function
	.code	16                      @ @pbuf_get_at
	.thumb_func
pbuf_get_at:
.Lfunc_begin16:
	.loc	2 1150 0                @ ../Libraries/lwip-1.4.1/src/core/pbuf.c:1150:0
	.fnstart
	.cfi_startproc
@ %bb.0:
	b	.LBB16_3
	.p2align	2
.LBB16_1:                               @   in Loop: Header=BB16_3 Depth=1
	@DEBUG_VALUE: pbuf_get_at:offset <- $r1
	@DEBUG_VALUE: pbuf_get_at:p <- $r0
.Ltmp263:
	@DEBUG_VALUE: pbuf_get_at:q <- $r0
	@DEBUG_VALUE: pbuf_get_at:copy_from <- $r1
	@DEBUG_VALUE: pbuf_get_at:copy_from <- $r1
	@DEBUG_VALUE: pbuf_get_at:q <- $r0
	.loc	2 1155 31 prologue_end  @ ../Libraries/lwip-1.4.1/src/core/pbuf.c:1155:31
	ldrh	r2, [r0, #10]
	.loc	2 1155 35 is_stmt 0     @ ../Libraries/lwip-1.4.1/src/core/pbuf.c:1155:35
	uxth	r3, r1
	.loc	2 1155 5                @ ../Libraries/lwip-1.4.1/src/core/pbuf.c:1155:5
	cmp	r3, r2
	blo	.LBB16_5
.Ltmp264:
@ %bb.2:                                @   in Loop: Header=BB16_3 Depth=1
	@DEBUG_VALUE: pbuf_get_at:offset <- $r1
	@DEBUG_VALUE: pbuf_get_at:p <- $r0
	@DEBUG_VALUE: pbuf_get_at:q <- $r0
	@DEBUG_VALUE: pbuf_get_at:copy_from <- $r1
	.loc	2 1158 16 is_stmt 1     @ ../Libraries/lwip-1.4.1/src/core/pbuf.c:1158:16
	ldr	r0, [r0]
.Ltmp265:
	.loc	2 1157 19               @ ../Libraries/lwip-1.4.1/src/core/pbuf.c:1157:19
	subs	r1, r1, r2
.Ltmp266:
	@DEBUG_VALUE: pbuf_get_at:copy_from <- $r1
.LBB16_3:                               @ =>This Inner Loop Header: Depth=1
	@DEBUG_VALUE: pbuf_get_at:p <- $r0
	@DEBUG_VALUE: pbuf_get_at:p <- $r0
	@DEBUG_VALUE: pbuf_get_at:offset <- $r1
	@DEBUG_VALUE: pbuf_get_at:offset <- $r1
	@DEBUG_VALUE: pbuf_get_at:copy_from <- $r1
	@DEBUG_VALUE: pbuf_get_at:copy_from <- $r1
	@DEBUG_VALUE: pbuf_get_at:q <- $r0
	@DEBUG_VALUE: pbuf_get_at:q <- $r0
	.loc	2 1155 24               @ ../Libraries/lwip-1.4.1/src/core/pbuf.c:1155:24
	cmp	r0, #0
	bne	.LBB16_1
.Ltmp267:
@ %bb.4:
	@DEBUG_VALUE: pbuf_get_at:offset <- $r1
	@DEBUG_VALUE: pbuf_get_at:p <- $r0
	@DEBUG_VALUE: pbuf_get_at:q <- $r0
	@DEBUG_VALUE: pbuf_get_at:copy_from <- $r1
	.loc	2 0 24 is_stmt 0        @ ../Libraries/lwip-1.4.1/src/core/pbuf.c:0:24
	movs	r0, #0
.Ltmp268:
	.loc	2 1166 1 is_stmt 1      @ ../Libraries/lwip-1.4.1/src/core/pbuf.c:1166:1
	bx	lr
.Ltmp269:
.LBB16_5:
	@DEBUG_VALUE: pbuf_get_at:offset <- $r1
	@DEBUG_VALUE: pbuf_get_at:p <- $r0
	@DEBUG_VALUE: pbuf_get_at:q <- $r0
	@DEBUG_VALUE: pbuf_get_at:copy_from <- $r1
	.loc	2 1163 28               @ ../Libraries/lwip-1.4.1/src/core/pbuf.c:1163:28
	ldr	r0, [r0, #4]
.Ltmp270:
	.loc	2 1163 16 is_stmt 0     @ ../Libraries/lwip-1.4.1/src/core/pbuf.c:1163:16
	ldrb	r0, [r0, r3]
.Ltmp271:
	.loc	2 1166 1 is_stmt 1      @ ../Libraries/lwip-1.4.1/src/core/pbuf.c:1166:1
	bx	lr
.Ltmp272:
.Lfunc_end16:
	.size	pbuf_get_at, .Lfunc_end16-pbuf_get_at
	.cfi_endproc
	.cantunwind
	.fnend
                                        @ -- End function
	.section	.text.pbuf_memcmp,"ax",%progbits
	.hidden	pbuf_memcmp             @ -- Begin function pbuf_memcmp
	.globl	pbuf_memcmp
	.p2align	1
	.type	pbuf_memcmp,%function
	.code	16                      @ @pbuf_memcmp
	.thumb_func
pbuf_memcmp:
.Lfunc_begin17:
	.loc	2 1179 0                @ ../Libraries/lwip-1.4.1/src/core/pbuf.c:1179:0
	.fnstart
	.cfi_startproc
@ %bb.0:
	.save	{r4, r5, r6, r7, lr}
	push	{r4, r5, r6, r7, lr}
	.cfi_def_cfa_offset 20
	.cfi_offset lr, -4
	.cfi_offset r7, -8
	.cfi_offset r6, -12
	.cfi_offset r5, -16
	.cfi_offset r4, -20
	@DEBUG_VALUE: pbuf_memcmp:p <- $r0
	@DEBUG_VALUE: pbuf_memcmp:offset <- $r1
	@DEBUG_VALUE: pbuf_memcmp:s2 <- $r2
	@DEBUG_VALUE: pbuf_memcmp:n <- $r3
.Ltmp273:
	@DEBUG_VALUE: pbuf_memcmp:start <- $r1
	@DEBUG_VALUE: pbuf_memcmp:q <- $r0
	movw	r12, #65535
	b	.LBB17_3
.Ltmp274:
	.p2align	2
.LBB17_1:                               @   in Loop: Header=BB17_3 Depth=1
	@DEBUG_VALUE: pbuf_memcmp:q <- $r0
	@DEBUG_VALUE: pbuf_memcmp:start <- $r1
	@DEBUG_VALUE: pbuf_memcmp:n <- $r3
	@DEBUG_VALUE: pbuf_memcmp:s2 <- $r2
	@DEBUG_VALUE: pbuf_memcmp:offset <- $r1
	@DEBUG_VALUE: pbuf_memcmp:p <- $r0
	@DEBUG_VALUE: pbuf_memcmp:start <- $r1
	@DEBUG_VALUE: pbuf_memcmp:q <- $r0
	@DEBUG_VALUE: pbuf_get_at:q <- $r0
	@DEBUG_VALUE: pbuf_get_at:p <- $r0
	.loc	2 1184 31 prologue_end  @ ../Libraries/lwip-1.4.1/src/core/pbuf.c:1184:31
	ldrh	r5, [r0, #10]
	.loc	2 1184 35 is_stmt 0     @ ../Libraries/lwip-1.4.1/src/core/pbuf.c:1184:35
	uxth	r7, r1
	.loc	2 1184 5                @ ../Libraries/lwip-1.4.1/src/core/pbuf.c:1184:5
	cmp	r7, r5
	blo	.LBB17_4
.Ltmp275:
@ %bb.2:                                @   in Loop: Header=BB17_3 Depth=1
	@DEBUG_VALUE: pbuf_memcmp:q <- $r0
	@DEBUG_VALUE: pbuf_memcmp:start <- $r1
	@DEBUG_VALUE: pbuf_memcmp:n <- $r3
	@DEBUG_VALUE: pbuf_memcmp:s2 <- $r2
	@DEBUG_VALUE: pbuf_memcmp:offset <- $r1
	@DEBUG_VALUE: pbuf_memcmp:p <- $r0
	.loc	2 1187 16 is_stmt 1     @ ../Libraries/lwip-1.4.1/src/core/pbuf.c:1187:16
	ldr	r0, [r0]
.Ltmp276:
	.loc	2 1186 15               @ ../Libraries/lwip-1.4.1/src/core/pbuf.c:1186:15
	subs	r1, r1, r5
.Ltmp277:
	@DEBUG_VALUE: pbuf_memcmp:start <- $r1
.LBB17_3:                               @ =>This Inner Loop Header: Depth=1
	@DEBUG_VALUE: pbuf_memcmp:q <- $r0
	@DEBUG_VALUE: pbuf_memcmp:start <- $r1
	@DEBUG_VALUE: pbuf_memcmp:n <- $r3
	@DEBUG_VALUE: pbuf_memcmp:s2 <- $r2
	@DEBUG_VALUE: pbuf_memcmp:offset <- $r1
	@DEBUG_VALUE: pbuf_memcmp:p <- $r0
	@DEBUG_VALUE: pbuf_memcmp:q <- $r0
	@DEBUG_VALUE: pbuf_memcmp:start <- $r1
	@DEBUG_VALUE: pbuf_memcmp:n <- $r3
	@DEBUG_VALUE: pbuf_memcmp:s2 <- $r2
	@DEBUG_VALUE: pbuf_memcmp:offset <- $r1
	@DEBUG_VALUE: pbuf_memcmp:p <- $r0
	.loc	2 1184 24               @ ../Libraries/lwip-1.4.1/src/core/pbuf.c:1184:24
	cmp	r0, #0
	bne	.LBB17_1
	b	.LBB17_13
.Ltmp278:
.LBB17_4:
	@DEBUG_VALUE: pbuf_get_at:p <- $r0
	@DEBUG_VALUE: pbuf_get_at:q <- $r0
	@DEBUG_VALUE: pbuf_memcmp:q <- $r0
	@DEBUG_VALUE: pbuf_memcmp:start <- $r1
	@DEBUG_VALUE: pbuf_memcmp:n <- $r3
	@DEBUG_VALUE: pbuf_memcmp:s2 <- $r2
	@DEBUG_VALUE: pbuf_memcmp:offset <- $r1
	@DEBUG_VALUE: pbuf_memcmp:p <- $r0
	.loc	2 0 24 is_stmt 0        @ ../Libraries/lwip-1.4.1/src/core/pbuf.c:0:24
	mov.w	r12, #0
.Ltmp279:
	.p2align	2
.LBB17_5:                               @ =>This Loop Header: Depth=1
                                        @     Child Loop BB17_7 Depth 2
	@DEBUG_VALUE: pbuf_memcmp:q <- $r0
	@DEBUG_VALUE: pbuf_memcmp:start <- $r1
	@DEBUG_VALUE: pbuf_memcmp:n <- $r3
	@DEBUG_VALUE: pbuf_memcmp:s2 <- $r2
	@DEBUG_VALUE: pbuf_memcmp:offset <- $r1
	@DEBUG_VALUE: pbuf_memcmp:p <- $r0
	@DEBUG_VALUE: i <- $r12
	.loc	2 1193 23 is_stmt 1     @ ../Libraries/lwip-1.4.1/src/core/pbuf.c:1193:23
	uxth.w	lr, r12
.Ltmp280:
	.loc	2 1193 9 is_stmt 0      @ ../Libraries/lwip-1.4.1/src/core/pbuf.c:1193:9
	cmp	lr, r3
	bhs	.LBB17_12
.Ltmp281:
@ %bb.6:                                @   in Loop: Header=BB17_5 Depth=1
	@DEBUG_VALUE: i <- $r12
	@DEBUG_VALUE: pbuf_memcmp:q <- $r0
	@DEBUG_VALUE: pbuf_memcmp:start <- $r1
	@DEBUG_VALUE: pbuf_memcmp:n <- $r3
	@DEBUG_VALUE: pbuf_memcmp:s2 <- $r2
	@DEBUG_VALUE: pbuf_memcmp:offset <- $r1
	@DEBUG_VALUE: pbuf_memcmp:p <- $r0
	.loc	2 1195 43 is_stmt 1     @ ../Libraries/lwip-1.4.1/src/core/pbuf.c:1195:43
	add.w	r4, r12, r1
.Ltmp282:
	@DEBUG_VALUE: pbuf_get_at:offset <- $r4
	.loc	2 0 43 is_stmt 0        @ ../Libraries/lwip-1.4.1/src/core/pbuf.c:0:43
	mov	r5, r0
.Ltmp283:
	.p2align	2
.LBB17_7:                               @   Parent Loop BB17_5 Depth=1
                                        @ =>  This Inner Loop Header: Depth=2
	@DEBUG_VALUE: pbuf_get_at:offset <- $r4
	@DEBUG_VALUE: i <- $r12
	@DEBUG_VALUE: pbuf_memcmp:q <- $r0
	@DEBUG_VALUE: pbuf_memcmp:start <- $r1
	@DEBUG_VALUE: pbuf_memcmp:n <- $r3
	@DEBUG_VALUE: pbuf_memcmp:s2 <- $r2
	@DEBUG_VALUE: pbuf_memcmp:offset <- $r1
	@DEBUG_VALUE: pbuf_memcmp:p <- $r0
	@DEBUG_VALUE: pbuf_get_at:q <- $r5
	@DEBUG_VALUE: pbuf_get_at:copy_from <- $r4
	.loc	2 1155 31 is_stmt 1     @ ../Libraries/lwip-1.4.1/src/core/pbuf.c:1155:31
	ldrh	r6, [r5, #10]
	.loc	2 1155 35 is_stmt 0     @ ../Libraries/lwip-1.4.1/src/core/pbuf.c:1155:35
	uxth	r7, r4
	.loc	2 1155 5                @ ../Libraries/lwip-1.4.1/src/core/pbuf.c:1155:5
	cmp	r7, r6
	blo	.LBB17_10
.Ltmp284:
@ %bb.8:                                @   in Loop: Header=BB17_7 Depth=2
	@DEBUG_VALUE: pbuf_get_at:copy_from <- $r4
	@DEBUG_VALUE: pbuf_get_at:q <- $r5
	@DEBUG_VALUE: pbuf_get_at:offset <- $r4
	@DEBUG_VALUE: i <- $r12
	@DEBUG_VALUE: pbuf_memcmp:q <- $r0
	@DEBUG_VALUE: pbuf_memcmp:start <- $r1
	@DEBUG_VALUE: pbuf_memcmp:n <- $r3
	@DEBUG_VALUE: pbuf_memcmp:s2 <- $r2
	@DEBUG_VALUE: pbuf_memcmp:offset <- $r1
	@DEBUG_VALUE: pbuf_memcmp:p <- $r0
	.loc	2 1158 16 is_stmt 1     @ ../Libraries/lwip-1.4.1/src/core/pbuf.c:1158:16
	ldr	r5, [r5]
.Ltmp285:
	@DEBUG_VALUE: pbuf_get_at:q <- $r5
	.loc	2 1157 19               @ ../Libraries/lwip-1.4.1/src/core/pbuf.c:1157:19
	subs	r4, r4, r6
.Ltmp286:
	@DEBUG_VALUE: pbuf_get_at:copy_from <- $r4
	.loc	2 1155 24               @ ../Libraries/lwip-1.4.1/src/core/pbuf.c:1155:24
	cmp	r5, #0
	bne	.LBB17_7
.Ltmp287:
@ %bb.9:                                @   in Loop: Header=BB17_5 Depth=1
	@DEBUG_VALUE: pbuf_get_at:copy_from <- $r4
	@DEBUG_VALUE: pbuf_get_at:q <- $r5
	@DEBUG_VALUE: i <- $r12
	@DEBUG_VALUE: pbuf_memcmp:q <- $r0
	@DEBUG_VALUE: pbuf_memcmp:start <- $r1
	@DEBUG_VALUE: pbuf_memcmp:n <- $r3
	@DEBUG_VALUE: pbuf_memcmp:s2 <- $r2
	@DEBUG_VALUE: pbuf_memcmp:offset <- $r1
	@DEBUG_VALUE: pbuf_memcmp:p <- $r0
	.loc	2 0 24 is_stmt 0        @ ../Libraries/lwip-1.4.1/src/core/pbuf.c:0:24
	movs	r4, #0
.Ltmp288:
	b	.LBB17_11
.Ltmp289:
	.p2align	2
.LBB17_10:                              @   in Loop: Header=BB17_5 Depth=1
	@DEBUG_VALUE: pbuf_get_at:copy_from <- $r4
	@DEBUG_VALUE: pbuf_get_at:q <- $r5
	@DEBUG_VALUE: pbuf_get_at:offset <- $r4
	@DEBUG_VALUE: i <- $r12
	@DEBUG_VALUE: pbuf_memcmp:q <- $r0
	@DEBUG_VALUE: pbuf_memcmp:start <- $r1
	@DEBUG_VALUE: pbuf_memcmp:n <- $r3
	@DEBUG_VALUE: pbuf_memcmp:s2 <- $r2
	@DEBUG_VALUE: pbuf_memcmp:offset <- $r1
	@DEBUG_VALUE: pbuf_memcmp:p <- $r0
	.loc	2 1163 28 is_stmt 1     @ ../Libraries/lwip-1.4.1/src/core/pbuf.c:1163:28
	ldr	r4, [r5, #4]
.Ltmp290:
	.loc	2 1163 16 is_stmt 0     @ ../Libraries/lwip-1.4.1/src/core/pbuf.c:1163:16
	ldrb	r4, [r4, r7]
.Ltmp291:
.LBB17_11:                              @   in Loop: Header=BB17_5 Depth=1
	@DEBUG_VALUE: i <- $r12
	@DEBUG_VALUE: pbuf_memcmp:q <- $r0
	@DEBUG_VALUE: pbuf_memcmp:start <- $r1
	@DEBUG_VALUE: pbuf_memcmp:n <- $r3
	@DEBUG_VALUE: pbuf_memcmp:s2 <- $r2
	@DEBUG_VALUE: pbuf_memcmp:offset <- $r1
	@DEBUG_VALUE: pbuf_memcmp:p <- $r0
	@DEBUG_VALUE: a <- $r4
	.loc	2 1196 22 is_stmt 1     @ ../Libraries/lwip-1.4.1/src/core/pbuf.c:1196:22
	ldrb.w	r7, [r2, lr]
.Ltmp292:
	@DEBUG_VALUE: b <- undef
	.loc	2 0 0 is_stmt 0         @ ../Libraries/lwip-1.4.1/src/core/pbuf.c:0:0
	add.w	r12, r12, #1
.Ltmp293:
	.loc	2 1197 17 is_stmt 1     @ ../Libraries/lwip-1.4.1/src/core/pbuf.c:1197:17
	cmp	r4, r7
	@DEBUG_VALUE: a <- $r4
	beq	.LBB17_5
	b	.LBB17_13
.Ltmp294:
.LBB17_12:
	@DEBUG_VALUE: i <- $r12
	@DEBUG_VALUE: pbuf_memcmp:q <- $r0
	@DEBUG_VALUE: pbuf_memcmp:start <- $r1
	@DEBUG_VALUE: pbuf_memcmp:n <- $r3
	@DEBUG_VALUE: pbuf_memcmp:s2 <- $r2
	@DEBUG_VALUE: pbuf_memcmp:offset <- $r1
	@DEBUG_VALUE: pbuf_memcmp:p <- $r0
	.loc	2 0 17 is_stmt 0        @ ../Libraries/lwip-1.4.1/src/core/pbuf.c:0:17
	mov.w	r12, #0
.Ltmp295:
.LBB17_13:
	@DEBUG_VALUE: pbuf_memcmp:q <- $r0
	@DEBUG_VALUE: pbuf_memcmp:start <- $r1
	@DEBUG_VALUE: pbuf_memcmp:n <- $r3
	@DEBUG_VALUE: pbuf_memcmp:s2 <- $r2
	@DEBUG_VALUE: pbuf_memcmp:offset <- $r1
	@DEBUG_VALUE: pbuf_memcmp:p <- $r0
	.loc	2 1205 1 is_stmt 1      @ ../Libraries/lwip-1.4.1/src/core/pbuf.c:1205:1
	uxth.w	r0, r12
.Ltmp296:
	pop	{r4, r5, r6, r7, pc}
.Ltmp297:
.Lfunc_end17:
	.size	pbuf_memcmp, .Lfunc_end17-pbuf_memcmp
	.cfi_endproc
	.cantunwind
	.fnend
                                        @ -- End function
	.section	.text.pbuf_memfind,"ax",%progbits
	.hidden	pbuf_memfind            @ -- Begin function pbuf_memfind
	.globl	pbuf_memfind
	.p2align	1
	.type	pbuf_memfind,%function
	.code	16                      @ @pbuf_memfind
	.thumb_func
pbuf_memfind:
.Lfunc_begin18:
	.loc	2 1219 0                @ ../Libraries/lwip-1.4.1/src/core/pbuf.c:1219:0
	.fnstart
	.cfi_startproc
@ %bb.0:
	.save	{r4, r5, r6, r7, r8, r9, lr}
	push.w	{r4, r5, r6, r7, r8, r9, lr}
	.cfi_def_cfa_offset 28
	.cfi_offset lr, -4
	.cfi_offset r9, -8
	.cfi_offset r8, -12
	.cfi_offset r7, -16
	.cfi_offset r6, -20
	.cfi_offset r5, -24
	.cfi_offset r4, -28
	.pad	#4
	sub	sp, #4
	.cfi_def_cfa_offset 32
	@DEBUG_VALUE: pbuf_memfind:p <- $r0
	@DEBUG_VALUE: pbuf_memfind:mem <- $r1
	@DEBUG_VALUE: pbuf_memfind:mem_len <- $r2
	@DEBUG_VALUE: pbuf_memfind:start_offset <- $r3
.Ltmp298:
	@DEBUG_VALUE: pbuf_memfind:i <- $r3
	mov	r7, r0
.Ltmp299:
	@DEBUG_VALUE: pbuf_memfind:mem <- $r9
	@DEBUG_VALUE: pbuf_memfind:p <- $r7
	.loc	2 1221 20 prologue_end  @ ../Libraries/lwip-1.4.1/src/core/pbuf.c:1221:20
	ldrh	r0, [r0, #8]
	mov	r9, r1
.Ltmp300:
	.loc	2 1222 31               @ ../Libraries/lwip-1.4.1/src/core/pbuf.c:1222:31
	adds	r1, r3, r2
	movw	r8, #65535
.Ltmp301:
	.loc	2 1222 9 is_stmt 0      @ ../Libraries/lwip-1.4.1/src/core/pbuf.c:1222:9
	cmp	r1, r0
	bhi	.LBB18_5
.Ltmp302:
@ %bb.1:
	@DEBUG_VALUE: pbuf_memfind:p <- $r7
	@DEBUG_VALUE: pbuf_memfind:i <- $r3
	@DEBUG_VALUE: pbuf_memfind:start_offset <- $r3
	@DEBUG_VALUE: pbuf_memfind:mem_len <- $r2
	.loc	2 0 9                   @ ../Libraries/lwip-1.4.1/src/core/pbuf.c:0:9
	subs	r0, r0, r2
.Ltmp303:
	@DEBUG_VALUE: pbuf_memfind:max <- $r0
	mov	r4, r3
.Ltmp304:
	@DEBUG_VALUE: pbuf_memfind:start_offset <- $r4
	@DEBUG_VALUE: pbuf_memfind:i <- $r4
	mov	r5, r2
.Ltmp305:
	@DEBUG_VALUE: pbuf_memfind:mem_len <- $r5
	@DEBUG_VALUE: pbuf_memfind:mem_len <- $r5
	uxth	r6, r0
	.loc	2 1222 9                @ ../Libraries/lwip-1.4.1/src/core/pbuf.c:1222:9
	cmp	r6, r3
	blo	.LBB18_5
.Ltmp306:
	.p2align	2
.LBB18_2:                               @ =>This Inner Loop Header: Depth=1
	@DEBUG_VALUE: pbuf_memfind:mem_len <- $r5
	@DEBUG_VALUE: pbuf_memfind:i <- $r4
	@DEBUG_VALUE: pbuf_memfind:start_offset <- $r4
	@DEBUG_VALUE: pbuf_memfind:max <- $r0
	@DEBUG_VALUE: pbuf_memfind:p <- $r7
	@DEBUG_VALUE: pbuf_memfind:i <- $r4
	.loc	2 1226 26 is_stmt 1     @ ../Libraries/lwip-1.4.1/src/core/pbuf.c:1226:26
	uxth	r1, r4
	mov	r0, r7
.Ltmp307:
	mov	r2, r9
	mov	r3, r5
	bl	pbuf_memcmp
.Ltmp308:
	@DEBUG_VALUE: plus <- $r0
	.loc	2 1227 17               @ ../Libraries/lwip-1.4.1/src/core/pbuf.c:1227:17
	cbz	r0, .LBB18_4
.Ltmp309:
@ %bb.3:                                @   in Loop: Header=BB18_2 Depth=1
	@DEBUG_VALUE: pbuf_memfind:mem_len <- $r5
	@DEBUG_VALUE: pbuf_memfind:i <- $r4
	@DEBUG_VALUE: pbuf_memfind:start_offset <- $r4
	@DEBUG_VALUE: pbuf_memfind:p <- $r7
	.loc	2 0 0 is_stmt 0         @ ../Libraries/lwip-1.4.1/src/core/pbuf.c:0:0
	add	r4, r0
.Ltmp310:
	@DEBUG_VALUE: pbuf_memfind:i <- $r4
	.loc	2 1224 34 is_stmt 1     @ ../Libraries/lwip-1.4.1/src/core/pbuf.c:1224:34
	uxth	r0, r4
.Ltmp311:
	.loc	2 1224 9 is_stmt 0      @ ../Libraries/lwip-1.4.1/src/core/pbuf.c:1224:9
	cmp	r0, r6
	bls	.LBB18_2
	b	.LBB18_5
.Ltmp312:
.LBB18_4:
	@DEBUG_VALUE: plus <- $r0
	@DEBUG_VALUE: pbuf_memfind:mem_len <- $r5
	@DEBUG_VALUE: pbuf_memfind:i <- $r4
	@DEBUG_VALUE: pbuf_memfind:start_offset <- $r4
	@DEBUG_VALUE: pbuf_memfind:p <- $r7
	.loc	2 0 0                   @ ../Libraries/lwip-1.4.1/src/core/pbuf.c:0:0
	mov	r8, r4
.Ltmp313:
	@DEBUG_VALUE: pbuf_memfind:start_offset <- $r8
.LBB18_5:
	@DEBUG_VALUE: pbuf_memfind:p <- $r7
	.loc	2 1238 1 is_stmt 1      @ ../Libraries/lwip-1.4.1/src/core/pbuf.c:1238:1
	uxth.w	r0, r8
	add	sp, #4
	pop.w	{r4, r5, r6, r7, r8, r9, pc}
.Ltmp314:
.Lfunc_end18:
	.size	pbuf_memfind, .Lfunc_end18-pbuf_memfind
	.cfi_endproc
	.cantunwind
	.fnend
                                        @ -- End function
	.section	.text.pbuf_strstr,"ax",%progbits
	.hidden	pbuf_strstr             @ -- Begin function pbuf_strstr
	.globl	pbuf_strstr
	.p2align	1
	.type	pbuf_strstr,%function
	.code	16                      @ @pbuf_strstr
	.thumb_func
pbuf_strstr:
.Lfunc_begin19:
	.loc	2 1252 0                @ ../Libraries/lwip-1.4.1/src/core/pbuf.c:1252:0
	.fnstart
	.cfi_startproc
@ %bb.0:
	.save	{r4, r5, r6, lr}
	push	{r4, r5, r6, lr}
	.cfi_def_cfa_offset 16
	.cfi_offset lr, -4
	.cfi_offset r6, -8
	.cfi_offset r5, -12
	.cfi_offset r4, -16
	@DEBUG_VALUE: pbuf_strstr:p <- $r0
	@DEBUG_VALUE: pbuf_strstr:substr <- $r1
	movw	r4, #65535
.Ltmp315:
	.loc	2 1254 26 prologue_end  @ ../Libraries/lwip-1.4.1/src/core/pbuf.c:1254:26
	cbz	r1, .LBB19_5
.Ltmp316:
@ %bb.1:
	@DEBUG_VALUE: pbuf_strstr:substr <- $r1
	@DEBUG_VALUE: pbuf_strstr:p <- $r0
	.loc	2 0 26 is_stmt 0        @ ../Libraries/lwip-1.4.1/src/core/pbuf.c:0:26
	mov	r6, r0
.Ltmp317:
	@DEBUG_VALUE: pbuf_strstr:p <- $r6
	@DEBUG_VALUE: pbuf_strstr:p <- $r6
	.loc	2 1254 30               @ ../Libraries/lwip-1.4.1/src/core/pbuf.c:1254:30
	ldrb	r0, [r1]
	mov	r5, r1
.Ltmp318:
	@DEBUG_VALUE: pbuf_strstr:substr <- $r5
	@DEBUG_VALUE: pbuf_strstr:substr <- $r5
	.loc	2 1254 46               @ ../Libraries/lwip-1.4.1/src/core/pbuf.c:1254:46
	cbz	r0, .LBB19_5
.Ltmp319:
@ %bb.2:
	@DEBUG_VALUE: pbuf_strstr:substr <- $r5
	@DEBUG_VALUE: pbuf_strstr:p <- $r6
	.loc	2 1254 53               @ ../Libraries/lwip-1.4.1/src/core/pbuf.c:1254:53
	ldrh	r0, [r6, #8]
.Ltmp320:
	.loc	2 1254 9                @ ../Libraries/lwip-1.4.1/src/core/pbuf.c:1254:9
	cmp	r0, r4
	beq	.LBB19_5
.Ltmp321:
@ %bb.3:
	@DEBUG_VALUE: pbuf_strstr:substr <- $r5
	@DEBUG_VALUE: pbuf_strstr:p <- $r6
	.loc	2 1258 18 is_stmt 1     @ ../Libraries/lwip-1.4.1/src/core/pbuf.c:1258:18
	mov	r0, r5
	bl	strlen
.Ltmp322:
	@DEBUG_VALUE: pbuf_strstr:substr_len <- $r0
	.loc	2 0 18 is_stmt 0        @ ../Libraries/lwip-1.4.1/src/core/pbuf.c:0:18
	movw	r1, #65534
	.loc	2 1259 9 is_stmt 1      @ ../Libraries/lwip-1.4.1/src/core/pbuf.c:1259:9
	cmp	r0, r1
	bhi	.LBB19_5
.Ltmp323:
@ %bb.4:
	@DEBUG_VALUE: pbuf_strstr:substr_len <- $r0
	@DEBUG_VALUE: pbuf_strstr:substr <- $r5
	@DEBUG_VALUE: pbuf_strstr:p <- $r6
	.loc	2 1263 12               @ ../Libraries/lwip-1.4.1/src/core/pbuf.c:1263:12
	uxth	r2, r0
	mov	r0, r6
.Ltmp324:
	mov	r1, r5
	movs	r3, #0
	bl	pbuf_memfind
	mov	r4, r0
.Ltmp325:
.LBB19_5:
	.loc	2 1264 1                @ ../Libraries/lwip-1.4.1/src/core/pbuf.c:1264:1
	mov	r0, r4
	pop	{r4, r5, r6, pc}
.Ltmp326:
.Lfunc_end19:
	.size	pbuf_strstr, .Lfunc_end19-pbuf_strstr
	.cfi_endproc
	.cantunwind
	.fnend
                                        @ -- End function
	.hidden	pbuf_free_ooseq_pending @ @pbuf_free_ooseq_pending
	.type	pbuf_free_ooseq_pending,%object
	.section	.bss.pbuf_free_ooseq_pending,"aw",%nobits
	.globl	pbuf_free_ooseq_pending
pbuf_free_ooseq_pending:
	.byte	0                       @ 0x0
	.size	pbuf_free_ooseq_pending, 1

	.file	6 "F:\\SkyDrive\\OtvoreniProjekti\\HotelSaplast\\fw\\KontrolerHotela\\HC070318\\Project" "../Libraries/lwip-1.4.1/src/include\\lwip/err.h"
	.file	7 "F:\\SkyDrive\\OtvoreniProjekti\\HotelSaplast\\fw\\KontrolerHotela\\HC070318\\Project" "../Libraries/lwip-1.4.1/src/include/ipv4\\lwip/ip_addr.h"
	.file	8 "F:\\SkyDrive\\OtvoreniProjekti\\HotelSaplast\\fw\\KontrolerHotela\\HC070318\\Project" "../Libraries/lwip-1.4.1/src/include\\lwip/tcp_impl.h"
	.file	9 "C:\\Keil\\ARM\\ARMCLANG\\Bin\\..\\include" "string.h"
	.section	".note.GNU-stack","",%progbits
	.eabi_attribute	30, 3	@ Tag_ABI_optimization_goals
	.ARM_attribute	16, 1	@ Tag_AV_eba