	.text
	.syntax unified
	.eabi_attribute	67, "2.09"	@ Tag_conformance
	.cpu	cortex-m4
	.eabi_attribute	6, 13	@ Tag_CPU_arch
	.eabi_attribute	7, 77	@ Tag_CPU_arch_profile
	.eabi_attribute	8, 0	@ Tag_ARM_ISA_use
	.eabi_attribute	9, 2	@ Tag_THUMB_ISA_use
	.fpu	fpv4-sp-d16
	.eabi_attribute	27, 1	@ Tag_ABI_HardFP_use
	.eabi_attribute	36, 1	@ Tag_FP_HP_extension
	.eabi_attribute	34, 1	@ Tag_CPU_unaligned_access
	.eabi_attribute	17, 1	@ Tag_ABI_PCS_GOT_use
	.eabi_attribute	20, 2	@ Tag_ABI_FP_denormal
	.eabi_attribute	21, 0	@ Tag_ABI_FP_exceptions
	.eabi_attribute	23, 1	@ Tag_ABI_FP_number_model
	.eabi_attribute	24, 1	@ Tag_ABI_align_needed
	.eabi_attribute	25, 1	@ Tag_ABI_align_preserved
	.eabi_attribute	28, 1	@ Tag_ABI_VFP_args
	.eabi_attribute	38, 1	@ Tag_ABI_FP_16bit_format
	.eabi_attribute	18, 2	@ Tag_ABI_PCS_wchar_t
	.eabi_attribute	26, 1	@ Tag_ABI_enum_size
	.eabi_attribute	14, 0	@ Tag_ABI_PCS_R9_use
	.file	"raw.c"
	.file	1 "F:\\SkyDrive\\OtvoreniProjekti\\HotelSaplast\\fw\\KontrolerHotela\\HC070318\\Project" "../Libraries/lwip-1.4.1/port/arch\\cc.h"
	.file	2 "F:\\SkyDrive\\OtvoreniProjekti\\HotelSaplast\\fw\\KontrolerHotela\\HC070318\\Project" "../Libraries/lwip-1.4.1/src/include/ipv4\\lwip/ip_addr.h"
	.file	3 "F:\\SkyDrive\\OtvoreniProjekti\\HotelSaplast\\fw\\KontrolerHotela\\HC070318\\Project" "../Libraries/lwip-1.4.1/src/include\\lwip/raw.h"
	.file	4 "F:\\SkyDrive\\OtvoreniProjekti\\HotelSaplast\\fw\\KontrolerHotela\\HC070318\\Project" "../Libraries/lwip-1.4.1/src/include\\lwip/pbuf.h"
	.file	5 "F:\\SkyDrive\\OtvoreniProjekti\\HotelSaplast\\fw\\KontrolerHotela\\HC070318\\Project" "../Libraries/lwip-1.4.1/src/core/raw.c"
	.file	6 "F:\\SkyDrive\\OtvoreniProjekti\\HotelSaplast\\fw\\KontrolerHotela\\HC070318\\Project" "../Libraries/lwip-1.4.1/src/include\\lwip/memp.h"
	.file	7 "F:\\SkyDrive\\OtvoreniProjekti\\HotelSaplast\\fw\\KontrolerHotela\\HC070318\\Project" "../Libraries/lwip-1.4.1/src/include/ipv4\\lwip/ip.h"
	.section	.text.raw_input,"ax",%progbits
	.hidden	raw_input               @ -- Begin function raw_input
	.globl	raw_input
	.p2align	1
	.type	raw_input,%function
	.code	16                      @ @raw_input
	.thumb_func
raw_input:
.Lfunc_begin0:
	.loc	5 77 0                  @ ../Libraries/lwip-1.4.1/src/core/raw.c:77:0
	.fnstart
	.cfi_sections .debug_frame
	.cfi_startproc
@ %bb.0:
	.save	{r4, r5, r6, r7, r8, r9, r10, r11, lr}
	push.w	{r4, r5, r6, r7, r8, r9, r10, r11, lr}
	.cfi_def_cfa_offset 36
	.cfi_offset lr, -4
	.cfi_offset r11, -8
	.cfi_offset r10, -12
	.cfi_offset r9, -16
	.cfi_offset r8, -20
	.cfi_offset r7, -24
	.cfi_offset r6, -28
	.cfi_offset r5, -32
	.cfi_offset r4, -36
	.pad	#4
	sub	sp, #4
	.cfi_def_cfa_offset 40
	@DEBUG_VALUE: raw_input:p <- $r0
	@DEBUG_VALUE: raw_input:inp <- $r1
	mov	r11, r0
.Ltmp0:
	@DEBUG_VALUE: raw_input:prev <- 0
	@DEBUG_VALUE: raw_input:eaten <- 0
	@DEBUG_VALUE: raw_input:p <- $r11
	.loc	5 0 0 prologue_end      @ ../Libraries/lwip-1.4.1/src/core/raw.c:0:0
	movw	r0, :lower16:raw_pcbs
	movt	r0, :upper16:raw_pcbs
.Ltmp1:
	@DEBUG_VALUE: raw_input:pcb <- [DW_OP_deref] $r0
	ldr	r0, [r0]
.Ltmp2:
	@DEBUG_VALUE: raw_input:pcb <- $r0
	@DEBUG_VALUE: raw_input:pcb <- [DW_OP_deref] $r0
	.loc	5 92 5                  @ ../Libraries/lwip-1.4.1/src/core/raw.c:92:5
	cbz	r0, .LBB0_10
.Ltmp3:
@ %bb.1:
	@DEBUG_VALUE: raw_input:pcb <- [DW_OP_deref] $r0
	@DEBUG_VALUE: raw_input:p <- $r11
	@DEBUG_VALUE: raw_input:inp <- $r1
	.loc	5 0 5 is_stmt 0         @ ../Libraries/lwip-1.4.1/src/core/raw.c:0:5
	mov	r10, r1
.Ltmp4:
	@DEBUG_VALUE: raw_input:inp <- $r10
	@DEBUG_VALUE: raw_input:inp <- $r10
	ldr.w	r1, [r11, #4]
.Ltmp5:
	@DEBUG_VALUE: raw_input:iphdr <- $r1
	movw	r8, :lower16:current_iphdr_dest
	movw	r9, :lower16:current_iphdr_src
	movs	r6, #0
	movt	r8, :upper16:current_iphdr_dest
	movt	r9, :upper16:current_iphdr_src
	ldrb	r7, [r1, #9]
.Ltmp6:
	.p2align	2
.LBB0_2:                                @ =>This Inner Loop Header: Depth=1
	@DEBUG_VALUE: raw_input:iphdr <- $r1
	@DEBUG_VALUE: raw_input:inp <- $r10
	@DEBUG_VALUE: raw_input:pcb <- [DW_OP_deref] $r0
	@DEBUG_VALUE: raw_input:p <- $r11
	mov	r5, r6
	mov	r6, r0
.Ltmp7:
	@DEBUG_VALUE: raw_input:prev <- $r5
	.loc	5 94 19 is_stmt 1       @ ../Libraries/lwip-1.4.1/src/core/raw.c:94:19
	ldrb	r0, [r0, #16]
.Ltmp8:
	.loc	5 94 38 is_stmt 0       @ ../Libraries/lwip-1.4.1/src/core/raw.c:94:38
	cmp	r0, r7
	bne	.LBB0_9
.Ltmp9:
@ %bb.3:                                @   in Loop: Header=BB0_2 Depth=1
	@DEBUG_VALUE: raw_input:prev <- $r5
	@DEBUG_VALUE: raw_input:iphdr <- $r1
	@DEBUG_VALUE: raw_input:inp <- $r10
	@DEBUG_VALUE: raw_input:p <- $r11
	.loc	5 95 18 is_stmt 1       @ ../Libraries/lwip-1.4.1/src/core/raw.c:95:18
	ldr	r1, [r6]
.Ltmp10:
	.loc	5 96 17                 @ ../Libraries/lwip-1.4.1/src/core/raw.c:96:17
	ldr.w	r0, [r8]
	.loc	5 95 48                 @ ../Libraries/lwip-1.4.1/src/core/raw.c:95:48
	cbz	r1, .LBB0_5
.Ltmp11:
@ %bb.4:                                @   in Loop: Header=BB0_2 Depth=1
	@DEBUG_VALUE: raw_input:prev <- $r5
	@DEBUG_VALUE: raw_input:inp <- $r10
	@DEBUG_VALUE: raw_input:p <- $r11
	cmp	r1, r0
	bne	.LBB0_9
.Ltmp12:
.LBB0_5:                                @   in Loop: Header=BB0_2 Depth=1
	@DEBUG_VALUE: raw_input:prev <- $r5
	@DEBUG_VALUE: raw_input:inp <- $r10
	@DEBUG_VALUE: raw_input:p <- $r11
	.loc	5 100 17                @ ../Libraries/lwip-1.4.1/src/core/raw.c:100:17
	ldrb	r1, [r6, #8]
	.loc	5 100 51 is_stmt 0      @ ../Libraries/lwip-1.4.1/src/core/raw.c:100:51
	lsls	r1, r1, #26
	bmi	.LBB0_7
.Ltmp13:
@ %bb.6:                                @   in Loop: Header=BB0_2 Depth=1
	@DEBUG_VALUE: raw_input:prev <- $r5
	@DEBUG_VALUE: raw_input:inp <- $r10
	@DEBUG_VALUE: raw_input:p <- $r11
	.loc	5 100 55                @ ../Libraries/lwip-1.4.1/src/core/raw.c:100:55
	mov	r1, r10
	bl	ip4_addr_isbroadcast
.Ltmp14:
	.loc	5 100 17                @ ../Libraries/lwip-1.4.1/src/core/raw.c:100:17
	cbnz	r0, .LBB0_9
.Ltmp15:
.LBB0_7:                                @   in Loop: Header=BB0_2 Depth=1
	@DEBUG_VALUE: raw_input:prev <- $r5
	@DEBUG_VALUE: raw_input:inp <- $r10
	@DEBUG_VALUE: raw_input:p <- $r11
	.loc	5 104 26 is_stmt 1      @ ../Libraries/lwip-1.4.1/src/core/raw.c:104:26
	ldr	r4, [r6, #20]
.Ltmp16:
	.loc	5 104 21 is_stmt 0      @ ../Libraries/lwip-1.4.1/src/core/raw.c:104:21
	cbz	r4, .LBB0_9
.Ltmp17:
@ %bb.8:                                @   in Loop: Header=BB0_2 Depth=1
	@DEBUG_VALUE: raw_input:prev <- $r5
	@DEBUG_VALUE: raw_input:inp <- $r10
	@DEBUG_VALUE: raw_input:p <- $r11
	.loc	5 107 40 is_stmt 1      @ ../Libraries/lwip-1.4.1/src/core/raw.c:107:40
	ldr	r0, [r6, #24]
	.loc	5 107 25 is_stmt 0      @ ../Libraries/lwip-1.4.1/src/core/raw.c:107:25
	mov	r1, r6
	mov	r2, r11
	mov	r3, r9
	blx	r4
.Ltmp18:
	.loc	5 107 25                @ ../Libraries/lwip-1.4.1/src/core/raw.c:107:25
	cbnz	r0, .LBB0_12
.Ltmp19:
	.p2align	2
.LBB0_9:                                @   in Loop: Header=BB0_2 Depth=1
	@DEBUG_VALUE: raw_input:prev <- $r5
	@DEBUG_VALUE: raw_input:inp <- $r10
	@DEBUG_VALUE: raw_input:p <- $r11
	@DEBUG_VALUE: raw_input:pcb <- [DW_OP_plus_uconst 12, DW_OP_deref, DW_OP_stack_value] $r6
	.loc	5 0 0                   @ ../Libraries/lwip-1.4.1/src/core/raw.c:0:0
	ldr	r0, [r6, #12]
.Ltmp20:
	@DEBUG_VALUE: raw_input:pcb <- $r0
	@DEBUG_VALUE: raw_input:eaten <- 0
	.loc	5 92 5 is_stmt 1        @ ../Libraries/lwip-1.4.1/src/core/raw.c:92:5
	cmp	r0, #0
	bne	.LBB0_2
.Ltmp21:
.LBB0_10:
	@DEBUG_VALUE: raw_input:pcb <- [DW_OP_deref] $r0
	@DEBUG_VALUE: raw_input:p <- $r11
	.loc	5 0 5 is_stmt 0         @ ../Libraries/lwip-1.4.1/src/core/raw.c:0:5
	movs	r0, #0
.Ltmp22:
.LBB0_11:
	@DEBUG_VALUE: raw_input:eaten <- $r0
	.loc	5 129 5 is_stmt 1       @ ../Libraries/lwip-1.4.1/src/core/raw.c:129:5
	add	sp, #4
	pop.w	{r4, r5, r6, r7, r8, r9, r10, r11, pc}
.Ltmp23:
.LBB0_12:
	@DEBUG_VALUE: raw_input:prev <- $r5
	@DEBUG_VALUE: raw_input:inp <- $r10
	@DEBUG_VALUE: raw_input:p <- $r11
	@DEBUG_VALUE: raw_input:p <- 0
	@DEBUG_VALUE: raw_input:eaten <- 1
	.loc	5 112 29                @ ../Libraries/lwip-1.4.1/src/core/raw.c:112:29
	cbz	r5, .LBB0_14
.Ltmp24:
@ %bb.13:
	@DEBUG_VALUE: raw_input:prev <- $r5
	@DEBUG_VALUE: raw_input:inp <- $r10
	.loc	5 116 47                @ ../Libraries/lwip-1.4.1/src/core/raw.c:116:47
	ldr	r0, [r6, #12]
	.loc	5 116 40 is_stmt 0      @ ../Libraries/lwip-1.4.1/src/core/raw.c:116:40
	str	r0, [r5, #12]
	movw	r0, :lower16:raw_pcbs
	movt	r0, :upper16:raw_pcbs
	mov	r1, r0
	.loc	5 117 41 is_stmt 1      @ ../Libraries/lwip-1.4.1/src/core/raw.c:117:41
	ldr	r0, [r0]
	.loc	5 117 39 is_stmt 0      @ ../Libraries/lwip-1.4.1/src/core/raw.c:117:39
	str	r0, [r6, #12]
	.loc	5 118 38 is_stmt 1      @ ../Libraries/lwip-1.4.1/src/core/raw.c:118:38
	str	r6, [r1]
.Ltmp25:
.LBB0_14:
	@DEBUG_VALUE: raw_input:prev <- $r5
	@DEBUG_VALUE: raw_input:inp <- $r10
	.loc	5 0 38 is_stmt 0        @ ../Libraries/lwip-1.4.1/src/core/raw.c:0:38
	movs	r0, #1
	b	.LBB0_11
.Lfunc_end0:
	.size	raw_input, .Lfunc_end0-raw_input
	.cfi_endproc
	.cantunwind
	.fnend
                                        @ -- End function
	.section	.text.raw_bind,"ax",%progbits
	.hidden	raw_bind                @ -- Begin function raw_bind
	.globl	raw_bind
	.p2align	1
	.type	raw_bind,%function
	.code	16                      @ @raw_bind
	.thumb_func
raw_bind:
.Lfunc_begin1:
	.loc	5 148 0 is_stmt 1       @ ../Libraries/lwip-1.4.1/src/core/raw.c:148:0
	.fnstart
	.cfi_startproc
@ %bb.0:
	@DEBUG_VALUE: raw_bind:pcb <- $r0
	@DEBUG_VALUE: raw_bind:pcb <- $r0
	@DEBUG_VALUE: raw_bind:ipaddr <- $r1
	@DEBUG_VALUE: raw_bind:ipaddr <- $r1
	.loc	5 149 5 prologue_end    @ ../Libraries/lwip-1.4.1/src/core/raw.c:149:5
	cmp	r1, #0
	ite	ne
	ldrne	r1, [r1]
.Ltmp26:
	.loc	5 0 5 is_stmt 0         @ ../Libraries/lwip-1.4.1/src/core/raw.c:0:5
	moveq	r1, #0
	.loc	5 149 5                 @ ../Libraries/lwip-1.4.1/src/core/raw.c:149:5
	str	r1, [r0]
	.loc	5 150 5 is_stmt 1       @ ../Libraries/lwip-1.4.1/src/core/raw.c:150:5
	movs	r0, #0
	bx	lr
.Ltmp27:
.Lfunc_end1:
	.size	raw_bind, .Lfunc_end1-raw_bind
	.cfi_endproc
	.cantunwind
	.fnend
                                        @ -- End function
	.section	.text.raw_connect,"ax",%progbits
	.hidden	raw_connect             @ -- Begin function raw_connect
	.globl	raw_connect
	.p2align	1
	.type	raw_connect,%function
	.code	16                      @ @raw_connect
	.thumb_func
raw_connect:
.Lfunc_begin2:
	.loc	5 168 0                 @ ../Libraries/lwip-1.4.1/src/core/raw.c:168:0
	.fnstart
	.cfi_startproc
@ %bb.0:
	@DEBUG_VALUE: raw_connect:pcb <- $r0
	@DEBUG_VALUE: raw_connect:pcb <- $r0
	@DEBUG_VALUE: raw_connect:ipaddr <- $r1
	@DEBUG_VALUE: raw_connect:ipaddr <- $r1
	.loc	5 169 5 prologue_end    @ ../Libraries/lwip-1.4.1/src/core/raw.c:169:5
	cmp	r1, #0
	ite	ne
	ldrne	r1, [r1]
.Ltmp28:
	.loc	5 0 5 is_stmt 0         @ ../Libraries/lwip-1.4.1/src/core/raw.c:0:5
	moveq	r1, #0
	.loc	5 169 5                 @ ../Libraries/lwip-1.4.1/src/core/raw.c:169:5
	str	r1, [r0, #4]
	.loc	5 170 5 is_stmt 1       @ ../Libraries/lwip-1.4.1/src/core/raw.c:170:5
	movs	r0, #0
	bx	lr
.Ltmp29:
.Lfunc_end2:
	.size	raw_connect, .Lfunc_end2-raw_connect
	.cfi_endproc
	.cantunwind
	.fnend
                                        @ -- End function
	.section	.text.raw_recv,"ax",%progbits
	.hidden	raw_recv                @ -- Begin function raw_recv
	.globl	raw_recv
	.p2align	1
	.type	raw_recv,%function
	.code	16                      @ @raw_recv
	.thumb_func
raw_recv:
.Lfunc_begin3:
	.loc	5 188 0                 @ ../Libraries/lwip-1.4.1/src/core/raw.c:188:0
	.fnstart
	.cfi_startproc
@ %bb.0:
	@DEBUG_VALUE: raw_recv:pcb <- $r0
	@DEBUG_VALUE: raw_recv:pcb <- $r0
	@DEBUG_VALUE: raw_recv:recv <- $r1
	@DEBUG_VALUE: raw_recv:recv <- $r1
	@DEBUG_VALUE: raw_recv:recv_arg <- $r2
	@DEBUG_VALUE: raw_recv:recv_arg <- $r2
	.loc	5 190 15 prologue_end   @ ../Libraries/lwip-1.4.1/src/core/raw.c:190:15
	strd	r1, r2, [r0, #20]
	.loc	5 192 1                 @ ../Libraries/lwip-1.4.1/src/core/raw.c:192:1
	bx	lr
.Ltmp30:
.Lfunc_end3:
	.size	raw_recv, .Lfunc_end3-raw_recv
	.cfi_endproc
	.cantunwind
	.fnend
                                        @ -- End function
	.section	.text.raw_sendto,"ax",%progbits
	.hidden	raw_sendto              @ -- Begin function raw_sendto
	.globl	raw_sendto
	.p2align	1
	.type	raw_sendto,%function
	.code	16                      @ @raw_sendto
	.thumb_func
raw_sendto:
.Lfunc_begin4:
	.loc	5 208 0                 @ ../Libraries/lwip-1.4.1/src/core/raw.c:208:0
	.fnstart
	.cfi_startproc
@ %bb.0:
	.save	{r4, r5, r6, r7, r8, lr}
	push.w	{r4, r5, r6, r7, r8, lr}
	.cfi_def_cfa_offset 24
	.cfi_offset lr, -4
	.cfi_offset r8, -8
	.cfi_offset r7, -12
	.cfi_offset r6, -16
	.cfi_offset r5, -20
	.cfi_offset r4, -24
	.pad	#16
	sub	sp, #16
	.cfi_def_cfa_offset 40
	@DEBUG_VALUE: raw_sendto:pcb <- $r0
	@DEBUG_VALUE: raw_sendto:p <- $r1
	@DEBUG_VALUE: raw_sendto:ipaddr <- $r2
.Ltmp31:
	@DEBUG_VALUE: raw_sendto:q <- $r1
	mov	r6, r0
.Ltmp32:
	@DEBUG_VALUE: raw_sendto:q <- $r4
	@DEBUG_VALUE: raw_sendto:ipaddr <- $r8
	@DEBUG_VALUE: raw_sendto:p <- $r4
	@DEBUG_VALUE: raw_sendto:pcb <- $r6
	mov	r4, r1
.Ltmp33:
	.loc	5 217 9 prologue_end    @ ../Libraries/lwip-1.4.1/src/core/raw.c:217:9
	mov	r0, r1
	movs	r1, #20
	mov	r8, r2
.Ltmp34:
	bl	pbuf_header
.Ltmp35:
	.loc	5 217 9 is_stmt 0       @ ../Libraries/lwip-1.4.1/src/core/raw.c:217:9
	cbz	r0, .LBB4_4
.Ltmp36:
@ %bb.1:
	@DEBUG_VALUE: raw_sendto:pcb <- $r6
	.loc	5 220 13 is_stmt 1      @ ../Libraries/lwip-1.4.1/src/core/raw.c:220:13
	movs	r0, #1
	movs	r1, #0
	movs	r2, #0
	bl	pbuf_alloc
	.loc	5 222 13                @ ../Libraries/lwip-1.4.1/src/core/raw.c:222:13
	cbz	r0, .LBB4_5
.Ltmp37:
@ %bb.2:
	@DEBUG_VALUE: raw_sendto:pcb <- $r6
	.loc	5 0 0 is_stmt 0         @ ../Libraries/lwip-1.4.1/src/core/raw.c:0:0
	mov	r7, r0
.Ltmp38:
	@DEBUG_VALUE: raw_sendto:q <- $r7
	.loc	5 227 16 is_stmt 1      @ ../Libraries/lwip-1.4.1/src/core/raw.c:227:16
	ldrh	r0, [r4, #8]
.Ltmp39:
	.loc	5 227 13 is_stmt 0      @ ../Libraries/lwip-1.4.1/src/core/raw.c:227:13
	cbz	r0, .LBB4_6
.Ltmp40:
@ %bb.3:
	@DEBUG_VALUE: raw_sendto:q <- $r7
	@DEBUG_VALUE: raw_sendto:pcb <- $r6
	.loc	5 230 13 is_stmt 1      @ ../Libraries/lwip-1.4.1/src/core/raw.c:230:13
	mov	r0, r7
	mov	r1, r4
	bl	pbuf_chain
	b	.LBB4_6
.Ltmp41:
.LBB4_4:
	@DEBUG_VALUE: raw_sendto:pcb <- $r6
	.loc	5 239 13                @ ../Libraries/lwip-1.4.1/src/core/raw.c:239:13
	mov	r0, r4
	mvn	r1, #19
	bl	pbuf_header
.Ltmp42:
	.loc	5 239 13 is_stmt 0      @ ../Libraries/lwip-1.4.1/src/core/raw.c:239:13
	cmp	r0, #0
.Ltmp43:
	.loc	5 0 0                   @ ../Libraries/lwip-1.4.1/src/core/raw.c:0:0
	mov	r7, r4
.Ltmp44:
	.loc	5 239 13                @ ../Libraries/lwip-1.4.1/src/core/raw.c:239:13
	beq	.LBB4_6
.Ltmp45:
.LBB4_5:
	@DEBUG_VALUE: raw_sendto:pcb <- $r6
	.loc	5 0 13                  @ ../Libraries/lwip-1.4.1/src/core/raw.c:0:13
	movs	r5, #255
	b	.LBB4_17
.Ltmp46:
.LBB4_6:
	@DEBUG_VALUE: raw_sendto:pcb <- $r6
	@DEBUG_VALUE: raw_sendto:q <- $r7
	.loc	5 246 18 is_stmt 1      @ ../Libraries/lwip-1.4.1/src/core/raw.c:246:18
	mov	r0, r8
	bl	ip_route
.Ltmp47:
	.loc	5 246 9 is_stmt 0       @ ../Libraries/lwip-1.4.1/src/core/raw.c:246:9
	cbz	r0, .LBB4_14
.Ltmp48:
@ %bb.7:
	@DEBUG_VALUE: raw_sendto:q <- $r7
	@DEBUG_VALUE: raw_sendto:pcb <- $r6
	.loc	5 0 0                   @ ../Libraries/lwip-1.4.1/src/core/raw.c:0:0
	mov	r5, r0
.Ltmp49:
	@DEBUG_VALUE: raw_sendto:netif <- $r5
	.loc	5 260 10 is_stmt 1      @ ../Libraries/lwip-1.4.1/src/core/raw.c:260:10
	ldrb	r0, [r6, #8]
	.loc	5 260 44 is_stmt 0      @ ../Libraries/lwip-1.4.1/src/core/raw.c:260:44
	lsls	r0, r0, #26
	bmi	.LBB4_12
.Ltmp50:
@ %bb.8:
	@DEBUG_VALUE: raw_sendto:netif <- $r5
	@DEBUG_VALUE: raw_sendto:q <- $r7
	@DEBUG_VALUE: raw_sendto:pcb <- $r6
	.loc	5 260 47                @ ../Libraries/lwip-1.4.1/src/core/raw.c:260:47
	ldr.w	r0, [r8]
	mov	r1, r5
	bl	ip4_addr_isbroadcast
.Ltmp51:
	.loc	5 260 9                 @ ../Libraries/lwip-1.4.1/src/core/raw.c:260:9
	cbz	r0, .LBB4_12
.Ltmp52:
@ %bb.9:
	@DEBUG_VALUE: raw_sendto:netif <- $r5
	@DEBUG_VALUE: raw_sendto:q <- $r7
	@DEBUG_VALUE: raw_sendto:pcb <- $r6
	.loc	5 264 13 is_stmt 1      @ ../Libraries/lwip-1.4.1/src/core/raw.c:264:13
	cmp	r7, r4
	beq	.LBB4_11
.Ltmp53:
@ %bb.10:
	@DEBUG_VALUE: raw_sendto:netif <- $r5
	@DEBUG_VALUE: raw_sendto:q <- $r7
	@DEBUG_VALUE: raw_sendto:pcb <- $r6
	.loc	5 266 13                @ ../Libraries/lwip-1.4.1/src/core/raw.c:266:13
	mov	r0, r7
	bl	pbuf_free
.Ltmp54:
.LBB4_11:
	@DEBUG_VALUE: raw_sendto:netif <- $r5
	@DEBUG_VALUE: raw_sendto:q <- $r7
	@DEBUG_VALUE: raw_sendto:pcb <- $r6
	.loc	5 0 13 is_stmt 0        @ ../Libraries/lwip-1.4.1/src/core/raw.c:0:13
	movs	r5, #250
.Ltmp55:
	b	.LBB4_17
.Ltmp56:
.LBB4_12:
	@DEBUG_VALUE: raw_sendto:netif <- $r5
	@DEBUG_VALUE: raw_sendto:q <- $r7
	@DEBUG_VALUE: raw_sendto:pcb <- $r6
	.loc	5 272 9 is_stmt 1       @ ../Libraries/lwip-1.4.1/src/core/raw.c:272:9
	ldr	r0, [r6]
.Ltmp57:
	.loc	5 284 58                @ ../Libraries/lwip-1.4.1/src/core/raw.c:284:58
	ldrb	r1, [r6, #9]
	.loc	5 284 48 is_stmt 0      @ ../Libraries/lwip-1.4.1/src/core/raw.c:284:48
	ldrb	r3, [r6, #10]
	.loc	5 284 68                @ ../Libraries/lwip-1.4.1/src/core/raw.c:284:68
	ldrb	r2, [r6, #16]
	.loc	5 284 11                @ ../Libraries/lwip-1.4.1/src/core/raw.c:284:11
	stm.w	sp, {r1, r2, r5}
	.loc	5 272 9 is_stmt 1       @ ../Libraries/lwip-1.4.1/src/core/raw.c:272:9
	cmp	r0, #0
	it	eq
	addeq	r6, r5, #4
.Ltmp58:
	@DEBUG_VALUE: raw_sendto:src_ip <- $r6
	.loc	5 284 11                @ ../Libraries/lwip-1.4.1/src/core/raw.c:284:11
	mov	r0, r7
	mov	r1, r6
	mov	r2, r8
	bl	ip_output_if
	mov	r5, r0
.Ltmp59:
	@DEBUG_VALUE: raw_sendto:err <- undef
	.loc	5 288 9                 @ ../Libraries/lwip-1.4.1/src/core/raw.c:288:9
	cmp	r7, r4
	beq	.LBB4_17
.Ltmp60:
@ %bb.13:
	@DEBUG_VALUE: raw_sendto:src_ip <- $r6
	@DEBUG_VALUE: raw_sendto:q <- $r7
	.loc	5 291 9                 @ ../Libraries/lwip-1.4.1/src/core/raw.c:291:9
	mov	r0, r7
	bl	pbuf_free
	b	.LBB4_17
.Ltmp61:
.LBB4_14:
	@DEBUG_VALUE: raw_sendto:q <- $r7
	@DEBUG_VALUE: raw_sendto:pcb <- $r6
	.loc	5 251 13                @ ../Libraries/lwip-1.4.1/src/core/raw.c:251:13
	cmp	r7, r4
	beq	.LBB4_16
.Ltmp62:
@ %bb.15:
	@DEBUG_VALUE: raw_sendto:q <- $r7
	@DEBUG_VALUE: raw_sendto:pcb <- $r6
	.loc	5 253 13                @ ../Libraries/lwip-1.4.1/src/core/raw.c:253:13
	mov	r0, r7
	bl	pbuf_free
.Ltmp63:
.LBB4_16:
	@DEBUG_VALUE: raw_sendto:q <- $r7
	@DEBUG_VALUE: raw_sendto:pcb <- $r6
	.loc	5 0 13 is_stmt 0        @ ../Libraries/lwip-1.4.1/src/core/raw.c:0:13
	movs	r5, #252
.Ltmp64:
.LBB4_17:
	.loc	5 294 1 is_stmt 1       @ ../Libraries/lwip-1.4.1/src/core/raw.c:294:1
	sxtb	r0, r5
	add	sp, #16
	pop.w	{r4, r5, r6, r7, r8, pc}
.Ltmp65:
.Lfunc_end4:
	.size	raw_sendto, .Lfunc_end4-raw_sendto
	.cfi_endproc
	.cantunwind
	.fnend
                                        @ -- End function
	.section	.text.raw_send,"ax",%progbits
	.hidden	raw_send                @ -- Begin function raw_send
	.globl	raw_send
	.p2align	1
	.type	raw_send,%function
	.code	16                      @ @raw_send
	.thumb_func
raw_send:
.Lfunc_begin5:
	.loc	5 305 0                 @ ../Libraries/lwip-1.4.1/src/core/raw.c:305:0
	.fnstart
	.cfi_startproc
@ %bb.0:
	@DEBUG_VALUE: raw_send:pcb <- $r0
	@DEBUG_VALUE: raw_send:pcb <- $r0
	@DEBUG_VALUE: raw_send:p <- $r1
	@DEBUG_VALUE: raw_send:p <- $r1
	.loc	5 306 37 prologue_end   @ ../Libraries/lwip-1.4.1/src/core/raw.c:306:37
	adds	r2, r0, #4
	@DEBUG_VALUE: raw_send:p <- $r1
	.loc	5 306 12 is_stmt 0      @ ../Libraries/lwip-1.4.1/src/core/raw.c:306:12
	b	raw_sendto
.Ltmp66:
.Lfunc_end5:
	.size	raw_send, .Lfunc_end5-raw_send
	.cfi_endproc
	.cantunwind
	.fnend
                                        @ -- End function
	.section	.text.raw_remove,"ax",%progbits
	.hidden	raw_remove              @ -- Begin function raw_remove
	.globl	raw_remove
	.p2align	1
	.type	raw_remove,%function
	.code	16                      @ @raw_remove
	.thumb_func
raw_remove:
.Lfunc_begin6:
	.loc	5 319 0 is_stmt 1       @ ../Libraries/lwip-1.4.1/src/core/raw.c:319:0
	.fnstart
	.cfi_startproc
@ %bb.0:
	@DEBUG_VALUE: raw_remove:pcb <- $r0
	.loc	5 322 9 prologue_end    @ ../Libraries/lwip-1.4.1/src/core/raw.c:322:9
	movw	r2, :lower16:raw_pcbs
	mov	r1, r0
.Ltmp67:
	@DEBUG_VALUE: raw_remove:pcb <- $r1
	movt	r2, :upper16:raw_pcbs
	ldr	r0, [r2]
.Ltmp68:
	@DEBUG_VALUE: raw_remove:pcb2 <- $r0
	.loc	5 322 9 is_stmt 0       @ ../Libraries/lwip-1.4.1/src/core/raw.c:322:9
	cmp	r0, r1
	bne	.LBB6_4
.Ltmp69:
@ %bb.1:
	@DEBUG_VALUE: raw_remove:pcb2 <- $r0
	@DEBUG_VALUE: raw_remove:pcb <- $r1
	.loc	5 325 30 is_stmt 1      @ ../Libraries/lwip-1.4.1/src/core/raw.c:325:30
	ldr	r0, [r1, #12]
.Ltmp70:
	.loc	5 325 18 is_stmt 0      @ ../Libraries/lwip-1.4.1/src/core/raw.c:325:18
	str	r0, [r2]
	b	.LBB6_5
.Ltmp71:
	.p2align	2
.LBB6_2:                                @   in Loop: Header=BB6_4 Depth=1
	@DEBUG_VALUE: raw_remove:pcb2 <- $r0
	@DEBUG_VALUE: raw_remove:pcb <- $r1
	.loc	5 0 18                  @ ../Libraries/lwip-1.4.1/src/core/raw.c:0:18
	mov	r2, r0
.Ltmp72:
	@DEBUG_VALUE: raw_remove:pcb2 <- $r2
	.loc	5 333 23 is_stmt 1      @ ../Libraries/lwip-1.4.1/src/core/raw.c:333:23
	ldr	r0, [r0, #12]
	.loc	5 333 36 is_stmt 0      @ ../Libraries/lwip-1.4.1/src/core/raw.c:333:36
	cbz	r0, .LBB6_4
.Ltmp73:
@ %bb.3:                                @   in Loop: Header=BB6_4 Depth=1
	@DEBUG_VALUE: raw_remove:pcb2 <- $r2
	@DEBUG_VALUE: raw_remove:pcb <- $r1
	cmp	r0, r1
.Ltmp74:
	.loc	5 336 35 is_stmt 1      @ ../Libraries/lwip-1.4.1/src/core/raw.c:336:35
	itt	eq
	ldreq	r0, [r1, #12]
	.loc	5 336 28 is_stmt 0      @ ../Libraries/lwip-1.4.1/src/core/raw.c:336:28
	streq	r0, [r2, #12]
.Ltmp75:
.LBB6_4:                                @ =>This Inner Loop Header: Depth=1
	@DEBUG_VALUE: raw_remove:pcb2 <- $r0
	@DEBUG_VALUE: raw_remove:pcb <- $r1
	.loc	5 330 9 is_stmt 1       @ ../Libraries/lwip-1.4.1/src/core/raw.c:330:9
	cmp	r0, #0
	bne	.LBB6_2
.Ltmp76:
.LBB6_5:
	@DEBUG_VALUE: raw_remove:pcb <- $r1
	.loc	5 340 5                 @ ../Libraries/lwip-1.4.1/src/core/raw.c:340:5
	movs	r0, #0
	b	memp_free
.Ltmp77:
.Lfunc_end6:
	.size	raw_remove, .Lfunc_end6-raw_remove
	.cfi_endproc
	.cantunwind
	.fnend
                                        @ -- End function
	.section	.text.raw_new,"ax",%progbits
	.hidden	raw_new                 @ -- Begin function raw_new
	.globl	raw_new
	.p2align	1
	.type	raw_new,%function
	.code	16                      @ @raw_new
	.thumb_func
raw_new:
.Lfunc_begin7:
	.loc	5 355 0                 @ ../Libraries/lwip-1.4.1/src/core/raw.c:355:0
	.fnstart
	.cfi_startproc
@ %bb.0:
	.save	{r4, r5, r7, lr}
	push	{r4, r5, r7, lr}
	.cfi_def_cfa_offset 16
	.cfi_offset lr, -4
	.cfi_offset r7, -8
	.cfi_offset r5, -12
	.cfi_offset r4, -16
	@DEBUG_VALUE: raw_new:proto <- $r0
	mov	r5, r0
.Ltmp78:
	@DEBUG_VALUE: raw_new:proto <- $r5
	.loc	5 360 30 prologue_end   @ ../Libraries/lwip-1.4.1/src/core/raw.c:360:30
	movs	r0, #0
	bl	memp_malloc
	mov	r4, r0
.Ltmp79:
	@DEBUG_VALUE: raw_new:pcb <- $r4
	.loc	5 362 9                 @ ../Libraries/lwip-1.4.1/src/core/raw.c:362:9
	cbz	r0, .LBB7_2
.Ltmp80:
@ %bb.1:
	@DEBUG_VALUE: raw_new:pcb <- $r4
	@DEBUG_VALUE: raw_new:proto <- $r5
	@DEBUG_VALUE: raw_new:proto <- $r5
	.loc	5 365 9                 @ ../Libraries/lwip-1.4.1/src/core/raw.c:365:9
	mov	r0, r4
	movs	r1, #28
	bl	__aeabi_memclr4
	movs	r0, #255
	.loc	5 367 18                @ ../Libraries/lwip-1.4.1/src/core/raw.c:367:18
	strb	r0, [r4, #10]
	.loc	5 368 21                @ ../Libraries/lwip-1.4.1/src/core/raw.c:368:21
	movw	r0, :lower16:raw_pcbs
	.loc	5 366 23                @ ../Libraries/lwip-1.4.1/src/core/raw.c:366:23
	strb	r5, [r4, #16]
	.loc	5 368 21                @ ../Libraries/lwip-1.4.1/src/core/raw.c:368:21
	movt	r0, :upper16:raw_pcbs
	ldr	r1, [r0]
	.loc	5 368 19 is_stmt 0      @ ../Libraries/lwip-1.4.1/src/core/raw.c:368:19
	str	r1, [r4, #12]
	.loc	5 369 18 is_stmt 1      @ ../Libraries/lwip-1.4.1/src/core/raw.c:369:18
	str	r4, [r0]
.Ltmp81:
.LBB7_2:
	@DEBUG_VALUE: raw_new:pcb <- $r4
	@DEBUG_VALUE: raw_new:proto <- $r5
	.loc	5 371 5                 @ ../Libraries/lwip-1.4.1/src/core/raw.c:371:5
	mov	r0, r4
	pop	{r4, r5, r7, pc}
.Ltmp82:
.Lfunc_end7:
	.size	raw_new, .Lfunc_end7-raw_new
	.cfi_endproc
	.cantunwind
	.fnend
                                        @ -- End function
	.type	raw_pcbs,%object        @ @raw_pcbs
	.section	.bss.raw_pcbs,"aw",%nobits
	.p2align	2
raw_pcbs:
	.long	0
	.size	raw_pcbs, 4

	.file	8 "F:\\SkyDrive\\OtvoreniProjekti\\HotelSaplast\\fw\\KontrolerHotela\\HC070318\\Project" "../Libraries/lwip-1.4.1/src/include\\lwip/err.h"
	.file	9 "F:\\SkyDrive\\OtvoreniProjekti\\HotelSaplast\\fw\\KontrolerHotela\\HC070318\\Project" "../Libraries/lwip-1.4.1/src/include\\lwip/netif.h"
	.section	".note.GNU-stack","",%progbits
	.eabi_attribute	30, 3	@ Tag_ABI_optimization_goals
	.ARM_attribute	16, 1	@ Tag_AV_eba