	.text
	.syntax unified
	.eabi_attribute	67, "2.09"	@ Tag_conformance
	.cpu	cortex-m4
	.eabi_attribute	6, 13	@ Tag_CPU_arch
	.eabi_attribute	7, 77	@ Tag_CPU_arch_profile
	.eabi_attribute	8, 0	@ Tag_ARM_ISA_use
	.eabi_attribute	9, 2	@ Tag_THUMB_ISA_use
	.fpu	fpv4-sp-d16
	.eabi_attribute	27, 1	@ Tag_ABI_HardFP_use
	.eabi_attribute	36, 1	@ Tag_FP_HP_extension
	.eabi_attribute	34, 1	@ Tag_CPU_unaligned_access
	.eabi_attribute	17, 1	@ Tag_ABI_PCS_GOT_use
	.eabi_attribute	20, 2	@ Tag_ABI_FP_denormal
	.eabi_attribute	21, 0	@ Tag_ABI_FP_exceptions
	.eabi_attribute	23, 1	@ Tag_ABI_FP_number_model
	.eabi_attribute	24, 1	@ Tag_ABI_align_needed
	.eabi_attribute	25, 1	@ Tag_ABI_align_preserved
	.eabi_attribute	28, 1	@ Tag_ABI_VFP_args
	.eabi_attribute	38, 1	@ Tag_ABI_FP_16bit_format
	.eabi_attribute	18, 2	@ Tag_ABI_PCS_wchar_t
	.eabi_attribute	26, 1	@ Tag_ABI_enum_size
	.eabi_attribute	14, 0	@ Tag_ABI_PCS_R9_use
	.file	"rtc.c"
	.file	1 "C:\\Keil\\ARM\\ARMCLANG\\Bin\\..\\include" "stdint.h"
	.file	2 "F:\\SkyDrive\\OtvoreniProjekti\\HotelSaplast\\fw\\KontrolerHotela\\HC070318\\Project" "../Application/rtc.c"
	.file	3 "F:\\SkyDrive\\OtvoreniProjekti\\HotelSaplast\\fw\\KontrolerHotela\\HC070318\\Project" "../Libraries/STM32F4xx_StdPeriph_Driver/inc\\stm32f4xx_rtc.h"
	.file	4 "F:\\SkyDrive\\OtvoreniProjekti\\HotelSaplast\\fw\\KontrolerHotela\\HC070318\\Project" "../Libraries/CMSIS/Device/ST/STM32F4xx/Include\\stm32f4xx.h"
	.file	5 "C:/Keil\\ARM\\CMSIS\\Include" "core_cm4.h"
	.section	.text.RTC_Config,"ax",%progbits
	.hidden	RTC_Config              @ -- Begin function RTC_Config
	.globl	RTC_Config
	.p2align	1
	.type	RTC_Config,%function
	.code	16                      @ @RTC_Config
	.thumb_func
RTC_Config:
.Lfunc_begin0:
	.loc	2 58 0                  @ ../Application/rtc.c:58:0
	.fnstart
	.cfi_sections .debug_frame
	.cfi_startproc
@ %bb.0:
	.save	{r4, r5, r7, lr}
	push	{r4, r5, r7, lr}
	.cfi_def_cfa_offset 16
	.cfi_offset lr, -4
	.cfi_offset r7, -8
	.cfi_offset r5, -12
	.cfi_offset r4, -16
.Ltmp0:
	.loc	2 59 17 prologue_end    @ ../Application/rtc.c:59:17
	movw	r0, :lower16:SystemCoreClock
	movw	r1, #19923
	movs	r5, #0
	movt	r0, :upper16:SystemCoreClock
	movt	r1, #4194
	ldr	r0, [r0]
	.loc	2 59 33 is_stmt 0       @ ../Application/rtc.c:59:33
	umull	r0, r1, r0, r1
	mov.w	r0, #-1
.Ltmp1:
	@DEBUG_VALUE: SysTick_Config:ticks <- undef
	.loc	5 1664 14 is_stmt 1     @ C:/Keil\ARM\CMSIS\Include\core_cm4.h:1664:14
	add.w	r0, r0, r1, lsr #6
.Ltmp2:
	.loc	5 1664 7 is_stmt 0      @ C:/Keil\ARM\CMSIS\Include\core_cm4.h:1664:7
	cmp.w	r5, r0, lsr #24
	bne	.LBB0_2
@ %bb.1:
	.loc	5 0 7                   @ C:/Keil\ARM\CMSIS\Include\core_cm4.h:0:7
	movw	r1, #57360
	movs	r2, #240
.Ltmp3:
	@DEBUG_VALUE: NVIC_SetPriority:priority <- 15
	@DEBUG_VALUE: NVIC_SetPriority:IRQn <- -1
	movt	r1, #57344
	.loc	5 1666 18 is_stmt 1     @ C:/Keil\ARM\CMSIS\Include\core_cm4.h:1666:18
	str	r0, [r1, #4]
	movw	r0, #60707
	movt	r0, #57344
.Ltmp4:
	.loc	5 1538 42               @ C:/Keil\ARM\CMSIS\Include\core_cm4.h:1538:42
	strb	r2, [r0]
	movs	r0, #7
.Ltmp5:
	.loc	5 1668 18               @ C:/Keil\ARM\CMSIS\Include\core_cm4.h:1668:18
	str	r5, [r1, #8]
	.loc	5 1669 18               @ C:/Keil\ARM\CMSIS\Include\core_cm4.h:1669:18
	str	r0, [r1]
.Ltmp6:
.LBB0_2:
	.loc	2 60 2                  @ ../Application/rtc.c:60:2
	mov.w	r0, #4096
	movs	r1, #1
	bl	RCC_AHB1PeriphClockCmd
	.loc	2 61 12                 @ ../Application/rtc.c:61:12
	movw	r4, :lower16:RTC_Error
.Ltmp7:
	.loc	2 63 6                  @ ../Application/rtc.c:63:6
	movs	r0, #1
.Ltmp8:
	.loc	2 61 12                 @ ../Application/rtc.c:61:12
	movt	r4, :upper16:RTC_Error
	strb	r5, [r4]
.Ltmp9:
	.loc	2 63 6                  @ ../Application/rtc.c:63:6
	bl	RTC_ReadBackupRegister
	movw	r1, #42405
.Ltmp10:
	.loc	2 63 6 is_stmt 0        @ ../Application/rtc.c:63:6
	cmp	r0, r1
	bne	.LBB0_6
@ %bb.3:
.Ltmp11:
	.loc	2 78 7 is_stmt 1        @ ../Application/rtc.c:78:7
	movs	r0, #123
	bl	RCC_GetFlagStatus
.Ltmp12:
	.loc	2 78 7 is_stmt 0        @ ../Application/rtc.c:78:7
	cbnz	r0, .LBB0_5
@ %bb.4:
.Ltmp13:
	.loc	2 82 12 is_stmt 1       @ ../Application/rtc.c:82:12
	movs	r0, #122
	bl	RCC_GetFlagStatus
.Ltmp14:
.LBB0_5:
	.loc	2 87 3                  @ ../Application/rtc.c:87:3
	bl	RTC_WaitForSynchro
	b	.LBB0_9
.Ltmp15:
.LBB0_6:
	.loc	2 65 3                  @ ../Application/rtc.c:65:3
	mov.w	r0, #268435456
	movs	r1, #1
	bl	RCC_APB1PeriphClockCmd
	.loc	2 66 3                  @ ../Application/rtc.c:66:3
	movs	r0, #1
	bl	PWR_BackupAccessCmd
	.loc	2 67 3                  @ ../Application/rtc.c:67:3
	movs	r0, #1
	bl	RCC_BackupResetCmd
	.loc	2 68 3                  @ ../Application/rtc.c:68:3
	movs	r0, #0
	bl	RCC_BackupResetCmd
	.loc	2 69 3                  @ ../Application/rtc.c:69:3
	movs	r0, #1
	bl	RCC_LSEConfig
	.p2align	2
.LBB0_7:                                @ =>This Inner Loop Header: Depth=1
	.loc	2 70 10                 @ ../Application/rtc.c:70:10
	movs	r0, #65
	bl	RCC_GetFlagStatus
	.loc	2 70 3 is_stmt 0        @ ../Application/rtc.c:70:3
	cmp	r0, #0
	beq	.LBB0_7
@ %bb.8:
	.loc	2 71 3 is_stmt 1        @ ../Application/rtc.c:71:3
	mov.w	r0, #256
	bl	RCC_RTCCLKConfig
	.loc	2 72 3                  @ ../Application/rtc.c:72:3
	movs	r0, #1
	bl	RCC_RTCCLKCmd
	.loc	2 73 3                  @ ../Application/rtc.c:73:3
	bl	RTC_WaitForSynchro
	.loc	2 74 3                  @ ../Application/rtc.c:74:3
	movs	r0, #1
	movw	r1, #42405
	bl	RTC_WriteBackupRegister
.Ltmp16:
.LBB0_9:
	.loc	2 90 2                  @ ../Application/rtc.c:90:2
	bl	RCC_ClearFlag
	.loc	2 91 9                  @ ../Application/rtc.c:91:9
	ldrsb.w	r0, [r4]
	.loc	2 91 2 is_stmt 0        @ ../Application/rtc.c:91:2
	pop	{r4, r5, r7, pc}
.Ltmp17:
.Lfunc_end0:
	.size	RTC_Config, .Lfunc_end0-RTC_Config
	.cfi_endproc
	.cantunwind
	.fnend
                                        @ -- End function
	.section	.text.GetLSIFrequency,"ax",%progbits
	.hidden	GetLSIFrequency         @ -- Begin function GetLSIFrequency
	.globl	GetLSIFrequency
	.p2align	1
	.type	GetLSIFrequency,%function
	.code	16                      @ @GetLSIFrequency
	.thumb_func
GetLSIFrequency:
.Lfunc_begin1:
	.loc	2 100 0 is_stmt 1       @ ../Application/rtc.c:100:0
	.fnstart
	.cfi_startproc
@ %bb.0:
	.save	{r4, r5, r7, lr}
	push	{r4, r5, r7, lr}
	.cfi_def_cfa_offset 16
	.cfi_offset lr, -4
	.cfi_offset r7, -8
	.cfi_offset r5, -12
	.cfi_offset r4, -16
	.pad	#16
	sub	sp, #16
	.cfi_def_cfa_offset 32
.Ltmp18:
	.loc	2 105 3 prologue_end    @ ../Application/rtc.c:105:3
	movs	r0, #1
	bl	RCC_LSICmd
	.p2align	2
.LBB1_1:                                @ =>This Inner Loop Header: Depth=1
	.loc	2 108 10                @ ../Application/rtc.c:108:10
	movs	r0, #97
	bl	RCC_GetFlagStatus
	.loc	2 108 3 is_stmt 0       @ ../Application/rtc.c:108:3
	cmp	r0, #0
	beq	.LBB1_1
@ %bb.2:
	.loc	2 113 3 is_stmt 1       @ ../Application/rtc.c:113:3
	movs	r0, #8
	movs	r1, #1
	bl	RCC_APB1PeriphClockCmd
	movw	r4, #3072
	.loc	2 116 3                 @ ../Application/rtc.c:116:3
	movs	r1, #64
	movt	r4, #16384
	mov	r0, r4
	bl	TIM_RemapConfig
	.loc	2 119 3                 @ ../Application/rtc.c:119:3
	mov	r0, r4
	movs	r1, #0
	movs	r2, #1
	movs	r5, #0
	bl	TIM_PrescalerConfig
	movs	r0, #1
	.loc	2 130 36                @ ../Application/rtc.c:130:36
	strh.w	r5, [sp, #8]
	mov	r1, sp
	movt	r0, #12
	.loc	2 128 39                @ ../Application/rtc.c:128:39
	str	r0, [sp, #4]
	movs	r0, #12
	.loc	2 126 35                @ ../Application/rtc.c:126:35
	str	r0, [sp]
.Ltmp19:
	@DEBUG_VALUE: GetLSIFrequency:TIM_ICInitStructure <- [DW_OP_deref] $sp
	.loc	2 131 3                 @ ../Application/rtc.c:131:3
	mov	r0, r4
	bl	TIM_ICInit
	movs	r0, #50
	movt	r0, #256
	.loc	2 134 38                @ ../Application/rtc.c:134:38
	str	r0, [sp, #12]
.Ltmp20:
	@DEBUG_VALUE: GetLSIFrequency:NVIC_InitStructure <- [DW_OP_plus_uconst 12, DW_OP_deref] $sp
	.loc	2 0 38 is_stmt 0        @ ../Application/rtc.c:0:38
	add	r0, sp, #12
	.loc	2 138 3 is_stmt 1       @ ../Application/rtc.c:138:3
	bl	NVIC_Init
	.loc	2 141 3                 @ ../Application/rtc.c:141:3
	mov	r0, r4
	movs	r1, #1
	bl	TIM_Cmd
	.loc	2 147 3                 @ ../Application/rtc.c:147:3
	mov	r0, r4
	movs	r1, #16
	movs	r2, #1
	.loc	2 144 12                @ ../Application/rtc.c:144:12
	strh	r5, [r4, #16]
	.loc	2 147 3                 @ ../Application/rtc.c:147:3
	bl	TIM_ITConfig
	movw	r0, :lower16:CaptureNumber
	movt	r0, :upper16:CaptureNumber
.Ltmp21:
	.p2align	2
.LBB1_3:                                @ =>This Inner Loop Header: Depth=1
	@DEBUG_VALUE: GetLSIFrequency:NVIC_InitStructure <- [DW_OP_plus_uconst 12, DW_OP_deref] $sp
	@DEBUG_VALUE: GetLSIFrequency:TIM_ICInitStructure <- [DW_OP_deref] $sp
	.loc	2 152 9                 @ ../Application/rtc.c:152:9
	ldr	r1, [r0]
	.loc	2 152 3 is_stmt 0       @ ../Application/rtc.c:152:3
	cmp	r1, #2
	bne	.LBB1_3
.Ltmp22:
@ %bb.4:
	@DEBUG_VALUE: GetLSIFrequency:NVIC_InitStructure <- [DW_OP_plus_uconst 12, DW_OP_deref] $sp
	@DEBUG_VALUE: GetLSIFrequency:TIM_ICInitStructure <- [DW_OP_deref] $sp
	.loc	2 156 3 is_stmt 1       @ ../Application/rtc.c:156:3
	mov	r0, r4
	bl	TIM_DeInit
	movw	r0, #14344
.Ltmp23:
	.loc	2 0 0 is_stmt 0         @ ../Application/rtc.c:0:0
	movw	r1, :lower16:SystemCoreClock
	movt	r0, #16386
	movt	r1, :upper16:SystemCoreClock
	.loc	2 159 13 is_stmt 1      @ ../Application/rtc.c:159:13
	ldr	r0, [r0]
	.loc	2 159 18 is_stmt 0      @ ../Application/rtc.c:159:18
	ands	r0, r0, #7168
	.loc	2 159 36                @ ../Application/rtc.c:159:36
	it	ne
	movne	r0, #1
	.loc	2 0 0                   @ ../Application/rtc.c:0:0
	ldr	r1, [r1]
	lsrs	r1, r1, #2
.Ltmp24:
	.loc	2 159 7                 @ ../Application/rtc.c:159:7
	lsl.w	r0, r1, r0
.Ltmp25:
	.loc	2 0 0                   @ ../Application/rtc.c:0:0
	movw	r1, :lower16:PeriodValue
	movt	r1, :upper16:PeriodValue
	ldr	r1, [r1]
	udiv	r0, r0, r1
	lsls	r0, r0, #3
.Ltmp26:
	.loc	2 168 1 is_stmt 1       @ ../Application/rtc.c:168:1
	add	sp, #16
.Ltmp27:
	pop	{r4, r5, r7, pc}
.Ltmp28:
.Lfunc_end1:
	.size	GetLSIFrequency, .Lfunc_end1-GetLSIFrequency
	.cfi_endproc
	.cantunwind
	.fnend
                                        @ -- End function
	.section	.text.RTC_Alarm_IRQHandler,"ax",%progbits
	.hidden	RTC_Alarm_IRQHandler    @ -- Begin function RTC_Alarm_IRQHandler
	.globl	RTC_Alarm_IRQHandler
	.p2align	1
	.type	RTC_Alarm_IRQHandler,%function
	.code	16                      @ @RTC_Alarm_IRQHandler
	.thumb_func
RTC_Alarm_IRQHandler:
.Lfunc_begin2:
	.loc	2 176 0                 @ ../Application/rtc.c:176:0
	.fnstart
	.cfi_startproc
@ %bb.0:
	.save	{r7, lr}
	push	{r7, lr}
	.cfi_def_cfa_offset 8
	.cfi_offset lr, -4
	.cfi_offset r7, -8
.Ltmp29:
	.loc	2 178 3 prologue_end    @ ../Application/rtc.c:178:3
	mov.w	r0, #131072
	bl	EXTI_ClearITPendingBit
.Ltmp30:
	.loc	2 181 7                 @ ../Application/rtc.c:181:7
	mov.w	r0, #4096
	bl	RTC_GetITStatus
.Ltmp31:
	.loc	2 181 7 is_stmt 0       @ ../Application/rtc.c:181:7
	cbz	r0, .LBB2_2
@ %bb.1:
.Ltmp32:
	.loc	2 184 15 is_stmt 1      @ ../Application/rtc.c:184:15
	movw	r0, :lower16:alarm_now
	movs	r1, #0
	movt	r0, :upper16:alarm_now
	strb	r1, [r0]
	.loc	2 186 5                 @ ../Application/rtc.c:186:5
	mov.w	r0, #4096
	bl	RTC_ClearITPendingBit
	.loc	2 187 21                @ ../Application/rtc.c:187:21
	movw	r0, :lower16:RTC_HandlerFlag
	movs	r1, #1
	movt	r0, :upper16:RTC_HandlerFlag
	strb	r1, [r0]
.Ltmp33:
.LBB2_2:
	.loc	2 189 1                 @ ../Application/rtc.c:189:1
	pop	{r7, pc}
.Ltmp34:
.Lfunc_end2:
	.size	RTC_Alarm_IRQHandler, .Lfunc_end2-RTC_Alarm_IRQHandler
	.cfi_endproc
	.cantunwind
	.fnend
                                        @ -- End function
	.section	.text.RTC_HttpCgiDateTimeUpdate,"ax",%progbits
	.hidden	RTC_HttpCgiDateTimeUpdate @ -- Begin function RTC_HttpCgiDateTimeUpdate
	.globl	RTC_HttpCgiDateTimeUpdate
	.p2align	1
	.type	RTC_HttpCgiDateTimeUpdate,%function
	.code	16                      @ @RTC_HttpCgiDateTimeUpdate
	.thumb_func
RTC_HttpCgiDateTimeUpdate:
.Lfunc_begin3:
	.loc	2 192 0                 @ ../Application/rtc.c:192:0
	.fnstart
	.cfi_startproc
@ %bb.0:
	.save	{r4, r5, r7, lr}
	push	{r4, r5, r7, lr}
	.cfi_def_cfa_offset 16
	.cfi_offset lr, -4
	.cfi_offset r7, -8
	.cfi_offset r5, -12
	.cfi_offset r4, -16
	@DEBUG_VALUE: RTC_HttpCgiDateTimeUpdate:ibuff <- $r0
	@DEBUG_VALUE: RTC_HttpCgiDateTimeUpdate:ibuff <- $r0
.Ltmp35:
	.loc	2 197 26 prologue_end   @ ../Application/rtc.c:197:26
	ldrb	r1, [r0]
	.loc	2 197 23 is_stmt 0      @ ../Application/rtc.c:197:23
	movw	r4, :lower16:RTC_Date
	.loc	2 207 21 is_stmt 1      @ ../Application/rtc.c:207:21
	movw	r5, :lower16:RTC_Time
	.loc	2 197 23                @ ../Application/rtc.c:197:23
	movt	r4, :upper16:RTC_Date
	.loc	2 207 21                @ ../Application/rtc.c:207:21
	movt	r5, :upper16:RTC_Time
	.loc	2 197 35                @ ../Application/rtc.c:197:35
	subs	r1, #48
	.loc	2 197 23 is_stmt 0      @ ../Application/rtc.c:197:23
	strb	r1, [r4]
	.loc	2 198 23 is_stmt 1      @ ../Application/rtc.c:198:23
	ldrb	r1, [r0, #1]
	.loc	2 198 38 is_stmt 0      @ ../Application/rtc.c:198:38
	lsls	r2, r1, #4
	.loc	2 198 20                @ ../Application/rtc.c:198:20
	strb	r2, [r4, #2]
	.loc	2 199 23 is_stmt 1      @ ../Application/rtc.c:199:23
	ldrb	r2, [r0, #2]
	.loc	2 199 32 is_stmt 0      @ ../Application/rtc.c:199:32
	add.w	r1, r2, r1, lsl #4
	.loc	2 199 20                @ ../Application/rtc.c:199:20
	subs	r1, #48
	strb	r1, [r4, #2]
	.loc	2 200 24 is_stmt 1      @ ../Application/rtc.c:200:24
	ldrb	r1, [r0, #3]
	.loc	2 201 24                @ ../Application/rtc.c:201:24
	ldrb	r2, [r0, #4]
	.loc	2 201 33 is_stmt 0      @ ../Application/rtc.c:201:33
	add.w	r1, r2, r1, lsl #4
	.loc	2 201 21                @ ../Application/rtc.c:201:21
	subs	r1, #48
	strb	r1, [r4, #1]
	.loc	2 204 23 is_stmt 1      @ ../Application/rtc.c:204:23
	ldrb	r1, [r0, #7]
	.loc	2 205 23                @ ../Application/rtc.c:205:23
	ldrb	r2, [r0, #8]
	.loc	2 205 32 is_stmt 0      @ ../Application/rtc.c:205:32
	add.w	r1, r2, r1, lsl #4
	.loc	2 205 20                @ ../Application/rtc.c:205:20
	subs	r1, #48
	strb	r1, [r4, #3]
	.loc	2 206 24 is_stmt 1      @ ../Application/rtc.c:206:24
	ldrb	r1, [r0, #9]
	.loc	2 207 24                @ ../Application/rtc.c:207:24
	ldrb	r2, [r0, #10]
	.loc	2 207 34 is_stmt 0      @ ../Application/rtc.c:207:34
	add.w	r1, r2, r1, lsl #4
	.loc	2 207 21                @ ../Application/rtc.c:207:21
	subs	r1, #48
	strb	r1, [r5]
	.loc	2 208 26 is_stmt 1      @ ../Application/rtc.c:208:26
	ldrb	r1, [r0, #11]
	.loc	2 209 26                @ ../Application/rtc.c:209:26
	ldrb	r2, [r0, #12]
	.loc	2 209 36 is_stmt 0      @ ../Application/rtc.c:209:36
	add.w	r1, r2, r1, lsl #4
	.loc	2 209 23                @ ../Application/rtc.c:209:23
	subs	r1, #48
	strb	r1, [r5, #1]
	.loc	2 210 26 is_stmt 1      @ ../Application/rtc.c:210:26
	ldrb	r1, [r0, #13]
	.loc	2 211 26                @ ../Application/rtc.c:211:26
	ldrb	r0, [r0, #14]
.Ltmp36:
	.loc	2 211 36 is_stmt 0      @ ../Application/rtc.c:211:36
	add.w	r0, r0, r1, lsl #4
	.loc	2 211 23                @ ../Application/rtc.c:211:23
	subs	r0, #48
	strb	r0, [r5, #2]
	.loc	2 213 2 is_stmt 1       @ ../Application/rtc.c:213:2
	movs	r0, #1
	bl	PWR_BackupAccessCmd
	.loc	2 214 2                 @ ../Application/rtc.c:214:2
	movs	r0, #1
	mov	r1, r5
	bl	RTC_SetTime
	.loc	2 215 2                 @ ../Application/rtc.c:215:2
	movs	r0, #1
	mov	r1, r4
	bl	RTC_SetDate
	.loc	2 216 2                 @ ../Application/rtc.c:216:2
	movs	r0, #0
	pop.w	{r4, r5, r7, lr}
	b	PWR_BackupAccessCmd
.Ltmp37:
.Lfunc_end3:
	.size	RTC_HttpCgiDateTimeUpdate, .Lfunc_end3-RTC_HttpCgiDateTimeUpdate
	.cfi_endproc
	.cantunwind
	.fnend
                                        @ -- End function
	.hidden	RTC_Timeout             @ @RTC_Timeout
	.type	RTC_Timeout,%object
	.section	.data.RTC_Timeout,"aw",%progbits
	.globl	RTC_Timeout
	.p2align	2
RTC_Timeout:
	.long	65536                   @ 0x10000
	.size	RTC_Timeout, 4

	.hidden	RTC_Error               @ @RTC_Error
	.type	RTC_Error,%object
	.section	.bss.RTC_Error,"aw",%nobits
	.globl	RTC_Error
RTC_Error:
	.byte	0                       @ 0x0
	.size	RTC_Error, 1

	.hidden	alarm_now               @ @alarm_now
	.type	alarm_now,%object
	.section	.data.alarm_now,"aw",%progbits
	.globl	alarm_now
alarm_now:
	.byte	1                       @ 0x1
	.size	alarm_now, 1

	.hidden	LsiFreq                 @ @LsiFreq
	.type	LsiFreq,%object
	.section	.bss.LsiFreq,"aw",%nobits
	.globl	LsiFreq
	.p2align	2
LsiFreq:
	.long	0                       @ 0x0
	.size	LsiFreq, 4

	.hidden	CaptureNumber           @ @CaptureNumber
	.type	CaptureNumber,%object
	.section	.bss.CaptureNumber,"aw",%nobits
	.globl	CaptureNumber
	.p2align	2
CaptureNumber:
	.long	0                       @ 0x0
	.size	CaptureNumber, 4

	.hidden	PeriodValue             @ @PeriodValue
	.type	PeriodValue,%object
	.section	.bss.PeriodValue,"aw",%nobits
	.globl	PeriodValue
	.p2align	2
PeriodValue:
	.long	0                       @ 0x0
	.size	PeriodValue, 4

	.hidden	RTC_HandlerFlag         @ @RTC_HandlerFlag
	.type	RTC_HandlerFlag,%object
	.section	.bss.RTC_HandlerFlag,"aw",%nobits
	.globl	RTC_HandlerFlag
RTC_HandlerFlag:
	.byte	0                       @ 0x0
	.size	RTC_HandlerFlag, 1

	.hidden	RTC_Date                @ @RTC_Date
	.type	RTC_Date,%object
	.section	.bss.RTC_Date,"aw",%nobits
	.globl	RTC_Date
RTC_Date:
	.zero	4
	.size	RTC_Date, 4

	.hidden	RTC_Time                @ @RTC_Time
	.type	RTC_Time,%object
	.section	.bss.RTC_Time,"aw",%nobits
	.globl	RTC_Time
RTC_Time:
	.zero	4
	.size	RTC_Time, 4

	.hidden	RTC_InitStructure       @ @RTC_InitStructure
	.type	RTC_InitStructure,%object
	.section	.bss.RTC_InitStructure,"aw",%nobits
	.globl	RTC_InitStructure
	.p2align	2
RTC_InitStructure:
	.zero	12
	.size	RTC_InitStructure, 12

	.file	6 "F:\\SkyDrive\\OtvoreniProjekti\\HotelSaplast\\fw\\KontrolerHotela\\HC070318\\Project" "../Libraries/STM32F4xx_StdPeriph_Driver/inc\\stm32f4xx_tim.h"
	.file	7 "F:\\SkyDrive\\OtvoreniProjekti\\HotelSaplast\\fw\\KontrolerHotela\\HC070318\\Project" "../Libraries/STM32F4xx_StdPeriph_Driver/inc\\misc.h"
	.section	".note.GNU-stack","",%progbits
	.eabi_attribute	30, 3	@ Tag_ABI_optimization_goals
	.ARM_attribute	16, 1	@ Tag_AV_eba