	.text
	.syntax unified
	.eabi_attribute	67, "2.09"	@ Tag_conformance
	.cpu	cortex-m4
	.eabi_attribute	6, 13	@ Tag_CPU_arch
	.eabi_attribute	7, 77	@ Tag_CPU_arch_profile
	.eabi_attribute	8, 0	@ Tag_ARM_ISA_use
	.eabi_attribute	9, 2	@ Tag_THUMB_ISA_use
	.fpu	fpv4-sp-d16
	.eabi_attribute	27, 1	@ Tag_ABI_HardFP_use
	.eabi_attribute	36, 1	@ Tag_FP_HP_extension
	.eabi_attribute	34, 1	@ Tag_CPU_unaligned_access
	.eabi_attribute	17, 1	@ Tag_ABI_PCS_GOT_use
	.eabi_attribute	20, 2	@ Tag_ABI_FP_denormal
	.eabi_attribute	21, 0	@ Tag_ABI_FP_exceptions
	.eabi_attribute	23, 1	@ Tag_ABI_FP_number_model
	.eabi_attribute	24, 1	@ Tag_ABI_align_needed
	.eabi_attribute	25, 1	@ Tag_ABI_align_preserved
	.eabi_attribute	28, 1	@ Tag_ABI_VFP_args
	.eabi_attribute	38, 1	@ Tag_ABI_FP_16bit_format
	.eabi_attribute	18, 2	@ Tag_ABI_PCS_wchar_t
	.eabi_attribute	26, 1	@ Tag_ABI_enum_size
	.eabi_attribute	14, 0	@ Tag_ABI_PCS_R9_use
	.file	"stm32f4xx_sdio.c"
	.file	1 "F:\\SkyDrive\\OtvoreniProjekti\\HotelSaplast\\fw\\KontrolerHotela\\HC070318\\Project" "../Libraries/CMSIS/Device/ST/STM32F4xx/Include\\stm32f4xx.h"
	.file	2 "C:\\Keil\\ARM\\ARMCLANG\\Bin\\..\\include" "stdint.h"
	.section	.text.SDIO_DeInit,"ax",%progbits
	.hidden	SDIO_DeInit             @ -- Begin function SDIO_DeInit
	.globl	SDIO_DeInit
	.p2align	1
	.type	SDIO_DeInit,%function
	.code	16                      @ @SDIO_DeInit
	.thumb_func
SDIO_DeInit:
.Lfunc_begin0:
	.file	3 "F:\\SkyDrive\\OtvoreniProjekti\\HotelSaplast\\fw\\KontrolerHotela\\HC070318\\Project" "../Libraries/STM32F4xx_StdPeriph_Driver/src/stm32f4xx_sdio.c"
	.loc	3 267 0                 @ ../Libraries/STM32F4xx_StdPeriph_Driver/src/stm32f4xx_sdio.c:267:0
	.fnstart
	.cfi_sections .debug_frame
	.cfi_startproc
@ %bb.0:
	.save	{r7, lr}
	push	{r7, lr}
	.cfi_def_cfa_offset 8
	.cfi_offset lr, -4
	.cfi_offset r7, -8
.Ltmp0:
	.loc	3 268 3 prologue_end    @ ../Libraries/STM32F4xx_StdPeriph_Driver/src/stm32f4xx_sdio.c:268:3
	mov.w	r0, #2048
	movs	r1, #1
	bl	RCC_APB2PeriphResetCmd
	.loc	3 269 3                 @ ../Libraries/STM32F4xx_StdPeriph_Driver/src/stm32f4xx_sdio.c:269:3
	mov.w	r0, #2048
	movs	r1, #0
	pop.w	{r7, lr}
	b	RCC_APB2PeriphResetCmd
.Ltmp1:
.Lfunc_end0:
	.size	SDIO_DeInit, .Lfunc_end0-SDIO_DeInit
	.cfi_endproc
	.cantunwind
	.fnend
                                        @ -- End function
	.section	.text.SDIO_Init,"ax",%progbits
	.hidden	SDIO_Init               @ -- Begin function SDIO_Init
	.globl	SDIO_Init
	.p2align	1
	.type	SDIO_Init,%function
	.code	16                      @ @SDIO_Init
	.thumb_func
SDIO_Init:
.Lfunc_begin1:
	.loc	3 280 0                 @ ../Libraries/STM32F4xx_StdPeriph_Driver/src/stm32f4xx_sdio.c:280:0
	.fnstart
	.cfi_startproc
@ %bb.0:
	.save	{r4, lr}
	push	{r4, lr}
	.cfi_def_cfa_offset 8
	.cfi_offset lr, -4
	.cfi_offset r4, -8
	@DEBUG_VALUE: SDIO_Init:SDIO_InitStruct <- $r0
	movw	r12, #11268
	movw	r3, #32511
	movt	r12, #16385
.Ltmp2:
	@DEBUG_VALUE: SDIO_Init:tmpreg <- 0
	@DEBUG_VALUE: SDIO_Init:SDIO_InitStruct <- $r0
	.loc	3 292 18 prologue_end   @ ../Libraries/STM32F4xx_StdPeriph_Driver/src/stm32f4xx_sdio.c:292:18
	ldr.w	r2, [r12]
.Ltmp3:
	@DEBUG_VALUE: SDIO_Init:tmpreg <- $r2
	.loc	3 295 10                @ ../Libraries/STM32F4xx_StdPeriph_Driver/src/stm32f4xx_sdio.c:295:10
	bics	r2, r3
.Ltmp4:
	@DEBUG_VALUE: SDIO_Init:tmpreg <- $r2
	.loc	3 303 31                @ ../Libraries/STM32F4xx_StdPeriph_Driver/src/stm32f4xx_sdio.c:303:31
	ldrb	r3, [r0, #20]
	.loc	3 305 31                @ ../Libraries/STM32F4xx_StdPeriph_Driver/src/stm32f4xx_sdio.c:305:31
	ldrd	lr, r1, [r0]
	.loc	3 303 46                @ ../Libraries/STM32F4xx_StdPeriph_Driver/src/stm32f4xx_sdio.c:303:46
	add	r2, r3
.Ltmp5:
	.loc	3 303 65 is_stmt 0      @ ../Libraries/STM32F4xx_StdPeriph_Driver/src/stm32f4xx_sdio.c:303:65
	ldrd	r3, r4, [r0, #8]
	.loc	3 305 65 is_stmt 1      @ ../Libraries/STM32F4xx_StdPeriph_Driver/src/stm32f4xx_sdio.c:305:65
	ldr	r0, [r0, #16]
.Ltmp6:
	.loc	3 303 85                @ ../Libraries/STM32F4xx_StdPeriph_Driver/src/stm32f4xx_sdio.c:303:85
	orrs	r2, r3
	.loc	3 304 48                @ ../Libraries/STM32F4xx_StdPeriph_Driver/src/stm32f4xx_sdio.c:304:48
	orrs	r1, r2
	.loc	3 304 80 is_stmt 0      @ ../Libraries/STM32F4xx_StdPeriph_Driver/src/stm32f4xx_sdio.c:304:80
	orrs	r1, r4
	.loc	3 305 46 is_stmt 1      @ ../Libraries/STM32F4xx_StdPeriph_Driver/src/stm32f4xx_sdio.c:305:46
	orr.w	r1, r1, lr
	.loc	3 303 10                @ ../Libraries/STM32F4xx_StdPeriph_Driver/src/stm32f4xx_sdio.c:303:10
	orrs	r0, r1
.Ltmp7:
	@DEBUG_VALUE: SDIO_Init:tmpreg <- $r0
	.loc	3 308 15                @ ../Libraries/STM32F4xx_StdPeriph_Driver/src/stm32f4xx_sdio.c:308:15
	str.w	r0, [r12]
	.loc	3 309 1                 @ ../Libraries/STM32F4xx_StdPeriph_Driver/src/stm32f4xx_sdio.c:309:1
	pop	{r4, pc}
.Ltmp8:
.Lfunc_end1:
	.size	SDIO_Init, .Lfunc_end1-SDIO_Init
	.cfi_endproc
	.cantunwind
	.fnend
                                        @ -- End function
	.section	.text.SDIO_StructInit,"ax",%progbits
	.hidden	SDIO_StructInit         @ -- Begin function SDIO_StructInit
	.globl	SDIO_StructInit
	.p2align	1
	.type	SDIO_StructInit,%function
	.code	16                      @ @SDIO_StructInit
	.thumb_func
SDIO_StructInit:
.Lfunc_begin2:
	.loc	3 318 0                 @ ../Libraries/STM32F4xx_StdPeriph_Driver/src/stm32f4xx_sdio.c:318:0
	.fnstart
	.cfi_startproc
@ %bb.0:
	.save	{r7, lr}
	push	{r7, lr}
	.cfi_def_cfa_offset 8
	.cfi_offset lr, -4
	.cfi_offset r7, -8
	@DEBUG_VALUE: SDIO_StructInit:SDIO_InitStruct <- $r0
	@DEBUG_VALUE: SDIO_StructInit:SDIO_InitStruct <- $r0
	@DEBUG_VALUE: SDIO_StructInit:SDIO_InitStruct <- $r0
.Ltmp9:
	.loc	3 321 35 prologue_end   @ ../Libraries/STM32F4xx_StdPeriph_Driver/src/stm32f4xx_sdio.c:321:35
	movs	r1, #21
	bl	__aeabi_memclr4
.Ltmp10:
	.loc	3 326 1                 @ ../Libraries/STM32F4xx_StdPeriph_Driver/src/stm32f4xx_sdio.c:326:1
	pop	{r7, pc}
.Ltmp11:
.Lfunc_end2:
	.size	SDIO_StructInit, .Lfunc_end2-SDIO_StructInit
	.cfi_endproc
	.cantunwind
	.fnend
                                        @ -- End function
	.section	.text.SDIO_ClockCmd,"ax",%progbits
	.hidden	SDIO_ClockCmd           @ -- Begin function SDIO_ClockCmd
	.globl	SDIO_ClockCmd
	.p2align	1
	.type	SDIO_ClockCmd,%function
	.code	16                      @ @SDIO_ClockCmd
	.thumb_func
SDIO_ClockCmd:
.Lfunc_begin3:
	.loc	3 335 0                 @ ../Libraries/STM32F4xx_StdPeriph_Driver/src/stm32f4xx_sdio.c:335:0
	.fnstart
	.cfi_startproc
@ %bb.0:
	@DEBUG_VALUE: SDIO_ClockCmd:NewState <- $r0
	movw	r1, #32928
	movt	r1, #16933
	@DEBUG_VALUE: SDIO_ClockCmd:NewState <- $r0
.Ltmp12:
	.loc	3 339 37 prologue_end   @ ../Libraries/STM32F4xx_StdPeriph_Driver/src/stm32f4xx_sdio.c:339:37
	str	r0, [r1]
	.loc	3 340 1                 @ ../Libraries/STM32F4xx_StdPeriph_Driver/src/stm32f4xx_sdio.c:340:1
	bx	lr
.Ltmp13:
.Lfunc_end3:
	.size	SDIO_ClockCmd, .Lfunc_end3-SDIO_ClockCmd
	.cfi_endproc
	.cantunwind
	.fnend
                                        @ -- End function
	.section	.text.SDIO_SetPowerState,"ax",%progbits
	.hidden	SDIO_SetPowerState      @ -- Begin function SDIO_SetPowerState
	.globl	SDIO_SetPowerState
	.p2align	1
	.type	SDIO_SetPowerState,%function
	.code	16                      @ @SDIO_SetPowerState
	.thumb_func
SDIO_SetPowerState:
.Lfunc_begin4:
	.loc	3 351 0                 @ ../Libraries/STM32F4xx_StdPeriph_Driver/src/stm32f4xx_sdio.c:351:0
	.fnstart
	.cfi_startproc
@ %bb.0:
	@DEBUG_VALUE: SDIO_SetPowerState:SDIO_PowerState <- $r0
	movw	r1, #11264
	movt	r1, #16385
	@DEBUG_VALUE: SDIO_SetPowerState:SDIO_PowerState <- $r0
.Ltmp14:
	.loc	3 355 15 prologue_end   @ ../Libraries/STM32F4xx_StdPeriph_Driver/src/stm32f4xx_sdio.c:355:15
	str	r0, [r1]
	.loc	3 356 1                 @ ../Libraries/STM32F4xx_StdPeriph_Driver/src/stm32f4xx_sdio.c:356:1
	bx	lr
.Ltmp15:
.Lfunc_end4:
	.size	SDIO_SetPowerState, .Lfunc_end4-SDIO_SetPowerState
	.cfi_endproc
	.cantunwind
	.fnend
                                        @ -- End function
	.section	.text.SDIO_GetPowerState,"ax",%progbits
	.hidden	SDIO_GetPowerState      @ -- Begin function SDIO_GetPowerState
	.globl	SDIO_GetPowerState
	.p2align	1
	.type	SDIO_GetPowerState,%function
	.code	16                      @ @SDIO_GetPowerState
	.thumb_func
SDIO_GetPowerState:
.Lfunc_begin5:
	.loc	3 368 0                 @ ../Libraries/STM32F4xx_StdPeriph_Driver/src/stm32f4xx_sdio.c:368:0
	.fnstart
	.cfi_startproc
@ %bb.0:
	movw	r0, #11264
	movt	r0, #16385
.Ltmp16:
	.loc	3 369 17 prologue_end   @ ../Libraries/STM32F4xx_StdPeriph_Driver/src/stm32f4xx_sdio.c:369:17
	ldr	r0, [r0]
	.loc	3 369 23 is_stmt 0      @ ../Libraries/STM32F4xx_StdPeriph_Driver/src/stm32f4xx_sdio.c:369:23
	and	r0, r0, #3
	.loc	3 369 3                 @ ../Libraries/STM32F4xx_StdPeriph_Driver/src/stm32f4xx_sdio.c:369:3
	bx	lr
.Ltmp17:
.Lfunc_end5:
	.size	SDIO_GetPowerState, .Lfunc_end5-SDIO_GetPowerState
	.cfi_endproc
	.cantunwind
	.fnend
                                        @ -- End function
	.section	.text.SDIO_SendCommand,"ax",%progbits
	.hidden	SDIO_SendCommand        @ -- Begin function SDIO_SendCommand
	.globl	SDIO_SendCommand
	.p2align	1
	.type	SDIO_SendCommand,%function
	.code	16                      @ @SDIO_SendCommand
	.thumb_func
SDIO_SendCommand:
.Lfunc_begin6:
	.loc	3 400 0 is_stmt 1       @ ../Libraries/STM32F4xx_StdPeriph_Driver/src/stm32f4xx_sdio.c:400:0
	.fnstart
	.cfi_startproc
@ %bb.0:
	.save	{r7, lr}
	push	{r7, lr}
	.cfi_def_cfa_offset 8
	.cfi_offset lr, -4
	.cfi_offset r7, -8
	@DEBUG_VALUE: SDIO_SendCommand:SDIO_CmdInitStruct <- $r0
	@DEBUG_VALUE: SDIO_SendCommand:SDIO_CmdInitStruct <- $r0
.Ltmp18:
	@DEBUG_VALUE: SDIO_SendCommand:tmpreg <- 0
	movw	r12, #11272
.Ltmp19:
	.loc	3 411 35 prologue_end   @ ../Libraries/STM32F4xx_StdPeriph_Driver/src/stm32f4xx_sdio.c:411:35
	ldr	r1, [r0]
	movw	r3, #2047
	movt	r12, #16385
	.loc	3 411 13 is_stmt 0      @ ../Libraries/STM32F4xx_StdPeriph_Driver/src/stm32f4xx_sdio.c:411:13
	str.w	r1, [r12]
	.loc	3 415 18 is_stmt 1      @ ../Libraries/STM32F4xx_StdPeriph_Driver/src/stm32f4xx_sdio.c:415:18
	ldr.w	r1, [r12, #4]
.Ltmp20:
	@DEBUG_VALUE: SDIO_SendCommand:tmpreg <- $r1
	.loc	3 417 10                @ ../Libraries/STM32F4xx_StdPeriph_Driver/src/stm32f4xx_sdio.c:417:10
	bic.w	lr, r1, r3
.Ltmp21:
	@DEBUG_VALUE: SDIO_SendCommand:tmpreg <- $lr
	.loc	3 422 43                @ ../Libraries/STM32F4xx_StdPeriph_Driver/src/stm32f4xx_sdio.c:422:43
	ldrd	r3, r2, [r0, #4]
	.loc	3 423 34                @ ../Libraries/STM32F4xx_StdPeriph_Driver/src/stm32f4xx_sdio.c:423:34
	ldrd	r1, r0, [r0, #12]
.Ltmp22:
	.loc	3 422 57                @ ../Libraries/STM32F4xx_StdPeriph_Driver/src/stm32f4xx_sdio.c:422:57
	orr.w	r3, r3, lr
	.loc	3 423 12                @ ../Libraries/STM32F4xx_StdPeriph_Driver/src/stm32f4xx_sdio.c:423:12
	orrs	r2, r3
	.loc	3 423 44 is_stmt 0      @ ../Libraries/STM32F4xx_StdPeriph_Driver/src/stm32f4xx_sdio.c:423:44
	orrs	r1, r2
	.loc	3 422 10 is_stmt 1      @ ../Libraries/STM32F4xx_StdPeriph_Driver/src/stm32f4xx_sdio.c:422:10
	orrs	r0, r1
.Ltmp23:
	@DEBUG_VALUE: SDIO_SendCommand:tmpreg <- $r0
	.loc	3 426 13                @ ../Libraries/STM32F4xx_StdPeriph_Driver/src/stm32f4xx_sdio.c:426:13
	str.w	r0, [r12, #4]
	.loc	3 427 1                 @ ../Libraries/STM32F4xx_StdPeriph_Driver/src/stm32f4xx_sdio.c:427:1
	pop	{r7, pc}
.Ltmp24:
.Lfunc_end6:
	.size	SDIO_SendCommand, .Lfunc_end6-SDIO_SendCommand
	.cfi_endproc
	.cantunwind
	.fnend
                                        @ -- End function
	.section	.text.SDIO_CmdStructInit,"ax",%progbits
	.hidden	SDIO_CmdStructInit      @ -- Begin function SDIO_CmdStructInit
	.globl	SDIO_CmdStructInit
	.p2align	1
	.type	SDIO_CmdStructInit,%function
	.code	16                      @ @SDIO_CmdStructInit
	.thumb_func
SDIO_CmdStructInit:
.Lfunc_begin7:
	.loc	3 436 0                 @ ../Libraries/STM32F4xx_StdPeriph_Driver/src/stm32f4xx_sdio.c:436:0
	.fnstart
	.cfi_startproc
@ %bb.0:
	.save	{r7, lr}
	push	{r7, lr}
	.cfi_def_cfa_offset 8
	.cfi_offset lr, -4
	.cfi_offset r7, -8
	@DEBUG_VALUE: SDIO_CmdStructInit:SDIO_CmdInitStruct <- $r0
	@DEBUG_VALUE: SDIO_CmdStructInit:SDIO_CmdInitStruct <- $r0
	@DEBUG_VALUE: SDIO_CmdStructInit:SDIO_CmdInitStruct <- $r0
.Ltmp25:
	.loc	3 439 37 prologue_end   @ ../Libraries/STM32F4xx_StdPeriph_Driver/src/stm32f4xx_sdio.c:439:37
	movs	r1, #20
	bl	__aeabi_memclr4
.Ltmp26:
	.loc	3 443 1                 @ ../Libraries/STM32F4xx_StdPeriph_Driver/src/stm32f4xx_sdio.c:443:1
	pop	{r7, pc}
.Ltmp27:
.Lfunc_end7:
	.size	SDIO_CmdStructInit, .Lfunc_end7-SDIO_CmdStructInit
	.cfi_endproc
	.cantunwind
	.fnend
                                        @ -- End function
	.section	.text.SDIO_GetCommandResponse,"ax",%progbits
	.hidden	SDIO_GetCommandResponse @ -- Begin function SDIO_GetCommandResponse
	.globl	SDIO_GetCommandResponse
	.p2align	1
	.type	SDIO_GetCommandResponse,%function
	.code	16                      @ @SDIO_GetCommandResponse
	.thumb_func
SDIO_GetCommandResponse:
.Lfunc_begin8:
	.loc	3 451 0                 @ ../Libraries/STM32F4xx_StdPeriph_Driver/src/stm32f4xx_sdio.c:451:0
	.fnstart
	.cfi_startproc
@ %bb.0:
	movw	r0, #11280
	movt	r0, #16385
.Ltmp28:
	.loc	3 452 26 prologue_end   @ ../Libraries/STM32F4xx_StdPeriph_Driver/src/stm32f4xx_sdio.c:452:26
	ldr	r0, [r0]
	.loc	3 452 3 is_stmt 0       @ ../Libraries/STM32F4xx_StdPeriph_Driver/src/stm32f4xx_sdio.c:452:3
	uxtb	r0, r0
	bx	lr
.Ltmp29:
.Lfunc_end8:
	.size	SDIO_GetCommandResponse, .Lfunc_end8-SDIO_GetCommandResponse
	.cfi_endproc
	.cantunwind
	.fnend
                                        @ -- End function
	.section	.text.SDIO_GetResponse,"ax",%progbits
	.hidden	SDIO_GetResponse        @ -- Begin function SDIO_GetResponse
	.globl	SDIO_GetResponse
	.p2align	1
	.type	SDIO_GetResponse,%function
	.code	16                      @ @SDIO_GetResponse
	.thumb_func
SDIO_GetResponse:
.Lfunc_begin9:
	.loc	3 466 0 is_stmt 1       @ ../Libraries/STM32F4xx_StdPeriph_Driver/src/stm32f4xx_sdio.c:466:0
	.fnstart
	.cfi_startproc
@ %bb.0:
	.pad	#4
	sub	sp, #4
	.cfi_def_cfa_offset 4
	@DEBUG_VALUE: SDIO_GetResponse:SDIO_RESP <- $r0
	movs	r1, #0
	@DEBUG_VALUE: SDIO_GetResponse:SDIO_RESP <- $r0
.Ltmp30:
	.loc	3 467 17 prologue_end   @ ../Libraries/STM32F4xx_StdPeriph_Driver/src/stm32f4xx_sdio.c:467:17
	str	r1, [sp]
	movw	r1, #11284
	movt	r1, #16385
	.loc	3 472 24                @ ../Libraries/STM32F4xx_StdPeriph_Driver/src/stm32f4xx_sdio.c:472:24
	add	r0, r1
.Ltmp31:
	.loc	3 472 7 is_stmt 0       @ ../Libraries/STM32F4xx_StdPeriph_Driver/src/stm32f4xx_sdio.c:472:7
	str	r0, [sp]
	.loc	3 474 30 is_stmt 1      @ ../Libraries/STM32F4xx_StdPeriph_Driver/src/stm32f4xx_sdio.c:474:30
	ldr	r0, [sp]
	.loc	3 474 11 is_stmt 0      @ ../Libraries/STM32F4xx_StdPeriph_Driver/src/stm32f4xx_sdio.c:474:11
	ldr	r0, [r0]
	.loc	3 474 3                 @ ../Libraries/STM32F4xx_StdPeriph_Driver/src/stm32f4xx_sdio.c:474:3
	add	sp, #4
	bx	lr
.Ltmp32:
.Lfunc_end9:
	.size	SDIO_GetResponse, .Lfunc_end9-SDIO_GetResponse
	.cfi_endproc
	.cantunwind
	.fnend
                                        @ -- End function
	.section	.text.SDIO_DataConfig,"ax",%progbits
	.hidden	SDIO_DataConfig         @ -- Begin function SDIO_DataConfig
	.globl	SDIO_DataConfig
	.p2align	1
	.type	SDIO_DataConfig,%function
	.code	16                      @ @SDIO_DataConfig
	.thumb_func
SDIO_DataConfig:
.Lfunc_begin10:
	.loc	3 504 0 is_stmt 1       @ ../Libraries/STM32F4xx_StdPeriph_Driver/src/stm32f4xx_sdio.c:504:0
	.fnstart
	.cfi_startproc
@ %bb.0:
	.save	{r7, lr}
	push	{r7, lr}
	.cfi_def_cfa_offset 8
	.cfi_offset lr, -4
	.cfi_offset r7, -8
	@DEBUG_VALUE: SDIO_DataConfig:SDIO_DataInitStruct <- $r0
	@DEBUG_VALUE: SDIO_DataConfig:SDIO_DataInitStruct <- $r0
.Ltmp33:
	@DEBUG_VALUE: SDIO_DataConfig:tmpreg <- 0
	movw	r12, #11300
.Ltmp34:
	.loc	3 516 39 prologue_end   @ ../Libraries/STM32F4xx_StdPeriph_Driver/src/stm32f4xx_sdio.c:516:39
	ldr	r1, [r0]
	movt	r12, #16385
	.loc	3 516 16 is_stmt 0      @ ../Libraries/STM32F4xx_StdPeriph_Driver/src/stm32f4xx_sdio.c:516:16
	str.w	r1, [r12]
	.loc	3 520 37 is_stmt 1      @ ../Libraries/STM32F4xx_StdPeriph_Driver/src/stm32f4xx_sdio.c:520:37
	ldr	r1, [r0, #4]
	.loc	3 520 14 is_stmt 0      @ ../Libraries/STM32F4xx_StdPeriph_Driver/src/stm32f4xx_sdio.c:520:14
	str.w	r1, [r12, #4]
	.loc	3 524 18 is_stmt 1      @ ../Libraries/STM32F4xx_StdPeriph_Driver/src/stm32f4xx_sdio.c:524:18
	ldr.w	r1, [r12, #8]
.Ltmp35:
	@DEBUG_VALUE: SDIO_DataConfig:tmpreg <- $r1
	.loc	3 531 44                @ ../Libraries/STM32F4xx_StdPeriph_Driver/src/stm32f4xx_sdio.c:531:44
	ldrd	r3, r2, [r0, #8]
	.loc	3 532 35                @ ../Libraries/STM32F4xx_StdPeriph_Driver/src/stm32f4xx_sdio.c:532:35
	ldrd	lr, r0, [r0, #16]
.Ltmp36:
	.loc	3 526 10                @ ../Libraries/STM32F4xx_StdPeriph_Driver/src/stm32f4xx_sdio.c:526:10
	bic	r1, r1, #247
.Ltmp37:
	@DEBUG_VALUE: SDIO_DataConfig:tmpreg <- $r1
	.loc	3 531 63                @ ../Libraries/STM32F4xx_StdPeriph_Driver/src/stm32f4xx_sdio.c:531:63
	orrs	r1, r3
.Ltmp38:
	.loc	3 532 12                @ ../Libraries/STM32F4xx_StdPeriph_Driver/src/stm32f4xx_sdio.c:532:12
	orrs	r1, r2
	.loc	3 532 53 is_stmt 0      @ ../Libraries/STM32F4xx_StdPeriph_Driver/src/stm32f4xx_sdio.c:532:53
	orr.w	r1, r1, lr
	.loc	3 531 10 is_stmt 1      @ ../Libraries/STM32F4xx_StdPeriph_Driver/src/stm32f4xx_sdio.c:531:10
	orrs	r0, r1
.Ltmp39:
	@DEBUG_VALUE: SDIO_DataConfig:tmpreg <- $r0
	.loc	3 535 15                @ ../Libraries/STM32F4xx_StdPeriph_Driver/src/stm32f4xx_sdio.c:535:15
	str.w	r0, [r12, #8]
	.loc	3 536 1                 @ ../Libraries/STM32F4xx_StdPeriph_Driver/src/stm32f4xx_sdio.c:536:1
	pop	{r7, pc}
.Ltmp40:
.Lfunc_end10:
	.size	SDIO_DataConfig, .Lfunc_end10-SDIO_DataConfig
	.cfi_endproc
	.cantunwind
	.fnend
                                        @ -- End function
	.section	.text.SDIO_DataStructInit,"ax",%progbits
	.hidden	SDIO_DataStructInit     @ -- Begin function SDIO_DataStructInit
	.globl	SDIO_DataStructInit
	.p2align	1
	.type	SDIO_DataStructInit,%function
	.code	16                      @ @SDIO_DataStructInit
	.thumb_func
SDIO_DataStructInit:
.Lfunc_begin11:
	.loc	3 545 0                 @ ../Libraries/STM32F4xx_StdPeriph_Driver/src/stm32f4xx_sdio.c:545:0
	.fnstart
	.cfi_startproc
@ %bb.0:
	.save	{r7, lr}
	push	{r7, lr}
	.cfi_def_cfa_offset 8
	.cfi_offset lr, -4
	.cfi_offset r7, -8
	@DEBUG_VALUE: SDIO_DataStructInit:SDIO_DataInitStruct <- $r0
	mov.w	r1, #-1
	@DEBUG_VALUE: SDIO_DataStructInit:SDIO_DataInitStruct <- $r0
.Ltmp41:
	.loc	3 547 41 prologue_end   @ ../Libraries/STM32F4xx_StdPeriph_Driver/src/stm32f4xx_sdio.c:547:41
	str	r1, [r0], #4
.Ltmp42:
	.loc	3 549 43                @ ../Libraries/STM32F4xx_StdPeriph_Driver/src/stm32f4xx_sdio.c:549:43
	movs	r1, #20
	bl	__aeabi_memclr4
	.loc	3 553 1                 @ ../Libraries/STM32F4xx_StdPeriph_Driver/src/stm32f4xx_sdio.c:553:1
	pop	{r7, pc}
.Ltmp43:
.Lfunc_end11:
	.size	SDIO_DataStructInit, .Lfunc_end11-SDIO_DataStructInit
	.cfi_endproc
	.cantunwind
	.fnend
                                        @ -- End function
	.section	.text.SDIO_GetDataCounter,"ax",%progbits
	.hidden	SDIO_GetDataCounter     @ -- Begin function SDIO_GetDataCounter
	.globl	SDIO_GetDataCounter
	.p2align	1
	.type	SDIO_GetDataCounter,%function
	.code	16                      @ @SDIO_GetDataCounter
	.thumb_func
SDIO_GetDataCounter:
.Lfunc_begin12:
	.loc	3 561 0                 @ ../Libraries/STM32F4xx_StdPeriph_Driver/src/stm32f4xx_sdio.c:561:0
	.fnstart
	.cfi_startproc
@ %bb.0:
	movw	r0, #11312
	movt	r0, #16385
.Ltmp44:
	.loc	3 562 16 prologue_end   @ ../Libraries/STM32F4xx_StdPeriph_Driver/src/stm32f4xx_sdio.c:562:16
	ldr	r0, [r0]
	.loc	3 562 3 is_stmt 0       @ ../Libraries/STM32F4xx_StdPeriph_Driver/src/stm32f4xx_sdio.c:562:3
	bx	lr
.Ltmp45:
.Lfunc_end12:
	.size	SDIO_GetDataCounter, .Lfunc_end12-SDIO_GetDataCounter
	.cfi_endproc
	.cantunwind
	.fnend
                                        @ -- End function
	.section	.text.SDIO_ReadData,"ax",%progbits
	.hidden	SDIO_ReadData           @ -- Begin function SDIO_ReadData
	.globl	SDIO_ReadData
	.p2align	1
	.type	SDIO_ReadData,%function
	.code	16                      @ @SDIO_ReadData
	.thumb_func
SDIO_ReadData:
.Lfunc_begin13:
	.loc	3 571 0 is_stmt 1       @ ../Libraries/STM32F4xx_StdPeriph_Driver/src/stm32f4xx_sdio.c:571:0
	.fnstart
	.cfi_startproc
@ %bb.0:
	movw	r0, #11392
	movt	r0, #16385
.Ltmp46:
	.loc	3 572 16 prologue_end   @ ../Libraries/STM32F4xx_StdPeriph_Driver/src/stm32f4xx_sdio.c:572:16
	ldr	r0, [r0]
	.loc	3 572 3 is_stmt 0       @ ../Libraries/STM32F4xx_StdPeriph_Driver/src/stm32f4xx_sdio.c:572:3
	bx	lr
.Ltmp47:
.Lfunc_end13:
	.size	SDIO_ReadData, .Lfunc_end13-SDIO_ReadData
	.cfi_endproc
	.cantunwind
	.fnend
                                        @ -- End function
	.section	.text.SDIO_WriteData,"ax",%progbits
	.hidden	SDIO_WriteData          @ -- Begin function SDIO_WriteData
	.globl	SDIO_WriteData
	.p2align	1
	.type	SDIO_WriteData,%function
	.code	16                      @ @SDIO_WriteData
	.thumb_func
SDIO_WriteData:
.Lfunc_begin14:
	.loc	3 581 0 is_stmt 1       @ ../Libraries/STM32F4xx_StdPeriph_Driver/src/stm32f4xx_sdio.c:581:0
	.fnstart
	.cfi_startproc
@ %bb.0:
	@DEBUG_VALUE: SDIO_WriteData:Data <- $r0
	movw	r1, #11392
	movt	r1, #16385
	@DEBUG_VALUE: SDIO_WriteData:Data <- $r0
.Ltmp48:
	.loc	3 582 14 prologue_end   @ ../Libraries/STM32F4xx_StdPeriph_Driver/src/stm32f4xx_sdio.c:582:14
	str	r0, [r1]
	.loc	3 583 1                 @ ../Libraries/STM32F4xx_StdPeriph_Driver/src/stm32f4xx_sdio.c:583:1
	bx	lr
.Ltmp49:
.Lfunc_end14:
	.size	SDIO_WriteData, .Lfunc_end14-SDIO_WriteData
	.cfi_endproc
	.cantunwind
	.fnend
                                        @ -- End function
	.section	.text.SDIO_GetFIFOCount,"ax",%progbits
	.hidden	SDIO_GetFIFOCount       @ -- Begin function SDIO_GetFIFOCount
	.globl	SDIO_GetFIFOCount
	.p2align	1
	.type	SDIO_GetFIFOCount,%function
	.code	16                      @ @SDIO_GetFIFOCount
	.thumb_func
SDIO_GetFIFOCount:
.Lfunc_begin15:
	.loc	3 591 0                 @ ../Libraries/STM32F4xx_StdPeriph_Driver/src/stm32f4xx_sdio.c:591:0
	.fnstart
	.cfi_startproc
@ %bb.0:
	movw	r0, #11336
	movt	r0, #16385
.Ltmp50:
	.loc	3 592 16 prologue_end   @ ../Libraries/STM32F4xx_StdPeriph_Driver/src/stm32f4xx_sdio.c:592:16
	ldr	r0, [r0]
	.loc	3 592 3 is_stmt 0       @ ../Libraries/STM32F4xx_StdPeriph_Driver/src/stm32f4xx_sdio.c:592:3
	bx	lr
.Ltmp51:
.Lfunc_end15:
	.size	SDIO_GetFIFOCount, .Lfunc_end15-SDIO_GetFIFOCount
	.cfi_endproc
	.cantunwind
	.fnend
                                        @ -- End function
	.section	.text.SDIO_StartSDIOReadWait,"ax",%progbits
	.hidden	SDIO_StartSDIOReadWait  @ -- Begin function SDIO_StartSDIOReadWait
	.globl	SDIO_StartSDIOReadWait
	.p2align	1
	.type	SDIO_StartSDIOReadWait,%function
	.code	16                      @ @SDIO_StartSDIOReadWait
	.thumb_func
SDIO_StartSDIOReadWait:
.Lfunc_begin16:
	.loc	3 620 0 is_stmt 1       @ ../Libraries/STM32F4xx_StdPeriph_Driver/src/stm32f4xx_sdio.c:620:0
	.fnstart
	.cfi_startproc
@ %bb.0:
	@DEBUG_VALUE: SDIO_StartSDIOReadWait:NewState <- $r0
	movw	r1, #34208
	movt	r1, #16933
	@DEBUG_VALUE: SDIO_StartSDIOReadWait:NewState <- $r0
.Ltmp52:
	.loc	3 624 39 prologue_end   @ ../Libraries/STM32F4xx_StdPeriph_Driver/src/stm32f4xx_sdio.c:624:39
	str	r0, [r1]
	.loc	3 625 1                 @ ../Libraries/STM32F4xx_StdPeriph_Driver/src/stm32f4xx_sdio.c:625:1
	bx	lr
.Ltmp53:
.Lfunc_end16:
	.size	SDIO_StartSDIOReadWait, .Lfunc_end16-SDIO_StartSDIOReadWait
	.cfi_endproc
	.cantunwind
	.fnend
                                        @ -- End function
	.section	.text.SDIO_StopSDIOReadWait,"ax",%progbits
	.hidden	SDIO_StopSDIOReadWait   @ -- Begin function SDIO_StopSDIOReadWait
	.globl	SDIO_StopSDIOReadWait
	.p2align	1
	.type	SDIO_StopSDIOReadWait,%function
	.code	16                      @ @SDIO_StopSDIOReadWait
	.thumb_func
SDIO_StopSDIOReadWait:
.Lfunc_begin17:
	.loc	3 634 0                 @ ../Libraries/STM32F4xx_StdPeriph_Driver/src/stm32f4xx_sdio.c:634:0
	.fnstart
	.cfi_startproc
@ %bb.0:
	@DEBUG_VALUE: SDIO_StopSDIOReadWait:NewState <- $r0
	movw	r1, #34212
	movt	r1, #16933
	@DEBUG_VALUE: SDIO_StopSDIOReadWait:NewState <- $r0
.Ltmp54:
	.loc	3 638 38 prologue_end   @ ../Libraries/STM32F4xx_StdPeriph_Driver/src/stm32f4xx_sdio.c:638:38
	str	r0, [r1]
	.loc	3 639 1                 @ ../Libraries/STM32F4xx_StdPeriph_Driver/src/stm32f4xx_sdio.c:639:1
	bx	lr
.Ltmp55:
.Lfunc_end17:
	.size	SDIO_StopSDIOReadWait, .Lfunc_end17-SDIO_StopSDIOReadWait
	.cfi_endproc
	.cantunwind
	.fnend
                                        @ -- End function
	.section	.text.SDIO_SetSDIOReadWaitMode,"ax",%progbits
	.hidden	SDIO_SetSDIOReadWaitMode @ -- Begin function SDIO_SetSDIOReadWaitMode
	.globl	SDIO_SetSDIOReadWaitMode
	.p2align	1
	.type	SDIO_SetSDIOReadWaitMode,%function
	.code	16                      @ @SDIO_SetSDIOReadWaitMode
	.thumb_func
SDIO_SetSDIOReadWaitMode:
.Lfunc_begin18:
	.loc	3 650 0                 @ ../Libraries/STM32F4xx_StdPeriph_Driver/src/stm32f4xx_sdio.c:650:0
	.fnstart
	.cfi_startproc
@ %bb.0:
	@DEBUG_VALUE: SDIO_SetSDIOReadWaitMode:SDIO_ReadWaitMode <- $r0
	movw	r1, #34216
	movt	r1, #16933
	@DEBUG_VALUE: SDIO_SetSDIOReadWaitMode:SDIO_ReadWaitMode <- $r0
.Ltmp56:
	.loc	3 654 37 prologue_end   @ ../Libraries/STM32F4xx_StdPeriph_Driver/src/stm32f4xx_sdio.c:654:37
	str	r0, [r1]
	.loc	3 655 1                 @ ../Libraries/STM32F4xx_StdPeriph_Driver/src/stm32f4xx_sdio.c:655:1
	bx	lr
.Ltmp57:
.Lfunc_end18:
	.size	SDIO_SetSDIOReadWaitMode, .Lfunc_end18-SDIO_SetSDIOReadWaitMode
	.cfi_endproc
	.cantunwind
	.fnend
                                        @ -- End function
	.section	.text.SDIO_SetSDIOOperation,"ax",%progbits
	.hidden	SDIO_SetSDIOOperation   @ -- Begin function SDIO_SetSDIOOperation
	.globl	SDIO_SetSDIOOperation
	.p2align	1
	.type	SDIO_SetSDIOOperation,%function
	.code	16                      @ @SDIO_SetSDIOOperation
	.thumb_func
SDIO_SetSDIOOperation:
.Lfunc_begin19:
	.loc	3 664 0                 @ ../Libraries/STM32F4xx_StdPeriph_Driver/src/stm32f4xx_sdio.c:664:0
	.fnstart
	.cfi_startproc
@ %bb.0:
	@DEBUG_VALUE: SDIO_SetSDIOOperation:NewState <- $r0
	movw	r1, #34220
	movt	r1, #16933
	@DEBUG_VALUE: SDIO_SetSDIOOperation:NewState <- $r0
.Ltmp58:
	.loc	3 668 38 prologue_end   @ ../Libraries/STM32F4xx_StdPeriph_Driver/src/stm32f4xx_sdio.c:668:38
	str	r0, [r1]
	.loc	3 669 1                 @ ../Libraries/STM32F4xx_StdPeriph_Driver/src/stm32f4xx_sdio.c:669:1
	bx	lr
.Ltmp59:
.Lfunc_end19:
	.size	SDIO_SetSDIOOperation, .Lfunc_end19-SDIO_SetSDIOOperation
	.cfi_endproc
	.cantunwind
	.fnend
                                        @ -- End function
	.section	.text.SDIO_SendSDIOSuspendCmd,"ax",%progbits
	.hidden	SDIO_SendSDIOSuspendCmd @ -- Begin function SDIO_SendSDIOSuspendCmd
	.globl	SDIO_SendSDIOSuspendCmd
	.p2align	1
	.type	SDIO_SendSDIOSuspendCmd,%function
	.code	16                      @ @SDIO_SendSDIOSuspendCmd
	.thumb_func
SDIO_SendSDIOSuspendCmd:
.Lfunc_begin20:
	.loc	3 678 0                 @ ../Libraries/STM32F4xx_StdPeriph_Driver/src/stm32f4xx_sdio.c:678:0
	.fnstart
	.cfi_startproc
@ %bb.0:
	@DEBUG_VALUE: SDIO_SendSDIOSuspendCmd:NewState <- $r0
	movw	r1, #33196
	movt	r1, #16933
	@DEBUG_VALUE: SDIO_SendSDIOSuspendCmd:NewState <- $r0
.Ltmp60:
	.loc	3 682 41 prologue_end   @ ../Libraries/STM32F4xx_StdPeriph_Driver/src/stm32f4xx_sdio.c:682:41
	str	r0, [r1]
	.loc	3 683 1                 @ ../Libraries/STM32F4xx_StdPeriph_Driver/src/stm32f4xx_sdio.c:683:1
	bx	lr
.Ltmp61:
.Lfunc_end20:
	.size	SDIO_SendSDIOSuspendCmd, .Lfunc_end20-SDIO_SendSDIOSuspendCmd
	.cfi_endproc
	.cantunwind
	.fnend
                                        @ -- End function
	.section	.text.SDIO_CommandCompletionCmd,"ax",%progbits
	.hidden	SDIO_CommandCompletionCmd @ -- Begin function SDIO_CommandCompletionCmd
	.globl	SDIO_CommandCompletionCmd
	.p2align	1
	.type	SDIO_CommandCompletionCmd,%function
	.code	16                      @ @SDIO_CommandCompletionCmd
	.thumb_func
SDIO_CommandCompletionCmd:
.Lfunc_begin21:
	.loc	3 710 0                 @ ../Libraries/STM32F4xx_StdPeriph_Driver/src/stm32f4xx_sdio.c:710:0
	.fnstart
	.cfi_startproc
@ %bb.0:
	@DEBUG_VALUE: SDIO_CommandCompletionCmd:NewState <- $r0
	movw	r1, #33200
	movt	r1, #16933
	@DEBUG_VALUE: SDIO_CommandCompletionCmd:NewState <- $r0
.Ltmp62:
	.loc	3 714 40 prologue_end   @ ../Libraries/STM32F4xx_StdPeriph_Driver/src/stm32f4xx_sdio.c:714:40
	str	r0, [r1]
	.loc	3 715 1                 @ ../Libraries/STM32F4xx_StdPeriph_Driver/src/stm32f4xx_sdio.c:715:1
	bx	lr
.Ltmp63:
.Lfunc_end21:
	.size	SDIO_CommandCompletionCmd, .Lfunc_end21-SDIO_CommandCompletionCmd
	.cfi_endproc
	.cantunwind
	.fnend
                                        @ -- End function
	.section	.text.SDIO_CEATAITCmd,"ax",%progbits
	.hidden	SDIO_CEATAITCmd         @ -- Begin function SDIO_CEATAITCmd
	.globl	SDIO_CEATAITCmd
	.p2align	1
	.type	SDIO_CEATAITCmd,%function
	.code	16                      @ @SDIO_CEATAITCmd
	.thumb_func
SDIO_CEATAITCmd:
.Lfunc_begin22:
	.loc	3 724 0                 @ ../Libraries/STM32F4xx_StdPeriph_Driver/src/stm32f4xx_sdio.c:724:0
	.fnstart
	.cfi_startproc
@ %bb.0:
	@DEBUG_VALUE: SDIO_CEATAITCmd:NewState <- $r0
	movs	r1, #1
	@DEBUG_VALUE: SDIO_CEATAITCmd:NewState <- $r0
.Ltmp64:
	.loc	3 728 71 prologue_end   @ ../Libraries/STM32F4xx_StdPeriph_Driver/src/stm32f4xx_sdio.c:728:71
	bic.w	r0, r1, r0
.Ltmp65:
	.loc	3 0 71 is_stmt 0        @ ../Libraries/STM32F4xx_StdPeriph_Driver/src/stm32f4xx_sdio.c:0:71
	movw	r1, #33204
	movt	r1, #16933
	.loc	3 728 34                @ ../Libraries/STM32F4xx_StdPeriph_Driver/src/stm32f4xx_sdio.c:728:34
	str	r0, [r1]
	.loc	3 729 1 is_stmt 1       @ ../Libraries/STM32F4xx_StdPeriph_Driver/src/stm32f4xx_sdio.c:729:1
	bx	lr
.Ltmp66:
.Lfunc_end22:
	.size	SDIO_CEATAITCmd, .Lfunc_end22-SDIO_CEATAITCmd
	.cfi_endproc
	.cantunwind
	.fnend
                                        @ -- End function
	.section	.text.SDIO_SendCEATACmd,"ax",%progbits
	.hidden	SDIO_SendCEATACmd       @ -- Begin function SDIO_SendCEATACmd
	.globl	SDIO_SendCEATACmd
	.p2align	1
	.type	SDIO_SendCEATACmd,%function
	.code	16                      @ @SDIO_SendCEATACmd
	.thumb_func
SDIO_SendCEATACmd:
.Lfunc_begin23:
	.loc	3 738 0                 @ ../Libraries/STM32F4xx_StdPeriph_Driver/src/stm32f4xx_sdio.c:738:0
	.fnstart
	.cfi_startproc
@ %bb.0:
	@DEBUG_VALUE: SDIO_SendCEATACmd:NewState <- $r0
	movw	r1, #33208
	movt	r1, #16933
	@DEBUG_VALUE: SDIO_SendCEATACmd:NewState <- $r0
.Ltmp67:
	.loc	3 742 36 prologue_end   @ ../Libraries/STM32F4xx_StdPeriph_Driver/src/stm32f4xx_sdio.c:742:36
	str	r0, [r1]
	.loc	3 743 1                 @ ../Libraries/STM32F4xx_StdPeriph_Driver/src/stm32f4xx_sdio.c:743:1
	bx	lr
.Ltmp68:
.Lfunc_end23:
	.size	SDIO_SendCEATACmd, .Lfunc_end23-SDIO_SendCEATACmd
	.cfi_endproc
	.cantunwind
	.fnend
                                        @ -- End function
	.section	.text.SDIO_DMACmd,"ax",%progbits
	.hidden	SDIO_DMACmd             @ -- Begin function SDIO_DMACmd
	.globl	SDIO_DMACmd
	.p2align	1
	.type	SDIO_DMACmd,%function
	.code	16                      @ @SDIO_DMACmd
	.thumb_func
SDIO_DMACmd:
.Lfunc_begin24:
	.loc	3 770 0                 @ ../Libraries/STM32F4xx_StdPeriph_Driver/src/stm32f4xx_sdio.c:770:0
	.fnstart
	.cfi_startproc
@ %bb.0:
	@DEBUG_VALUE: SDIO_DMACmd:NewState <- $r0
	movw	r1, #34188
	movt	r1, #16933
	@DEBUG_VALUE: SDIO_DMACmd:NewState <- $r0
.Ltmp69:
	.loc	3 774 37 prologue_end   @ ../Libraries/STM32F4xx_StdPeriph_Driver/src/stm32f4xx_sdio.c:774:37
	str	r0, [r1]
	.loc	3 775 1                 @ ../Libraries/STM32F4xx_StdPeriph_Driver/src/stm32f4xx_sdio.c:775:1
	bx	lr
.Ltmp70:
.Lfunc_end24:
	.size	SDIO_DMACmd, .Lfunc_end24-SDIO_DMACmd
	.cfi_endproc
	.cantunwind
	.fnend
                                        @ -- End function
	.section	.text.SDIO_ITConfig,"ax",%progbits
	.hidden	SDIO_ITConfig           @ -- Begin function SDIO_ITConfig
	.globl	SDIO_ITConfig
	.p2align	1
	.type	SDIO_ITConfig,%function
	.code	16                      @ @SDIO_ITConfig
	.thumb_func
SDIO_ITConfig:
.Lfunc_begin25:
	.loc	3 828 0                 @ ../Libraries/STM32F4xx_StdPeriph_Driver/src/stm32f4xx_sdio.c:828:0
	.fnstart
	.cfi_startproc
@ %bb.0:
	@DEBUG_VALUE: SDIO_ITConfig:SDIO_IT <- $r0
	@DEBUG_VALUE: SDIO_ITConfig:NewState <- $r1
	movw	r2, #11324
.Ltmp71:
	.loc	3 833 7 prologue_end    @ ../Libraries/STM32F4xx_StdPeriph_Driver/src/stm32f4xx_sdio.c:833:7
	cmp	r1, #0
	movt	r2, #16385
	@DEBUG_VALUE: SDIO_ITConfig:NewState <- $r1
	@DEBUG_VALUE: SDIO_ITConfig:SDIO_IT <- $r0
.Ltmp72:
	.loc	3 841 16                @ ../Libraries/STM32F4xx_StdPeriph_Driver/src/stm32f4xx_sdio.c:841:16
	ldr	r1, [r2]
.Ltmp73:
	ite	eq
	biceq.w	r0, r1, r0
.Ltmp74:
	.loc	3 836 16                @ ../Libraries/STM32F4xx_StdPeriph_Driver/src/stm32f4xx_sdio.c:836:16
	orrne	r0, r1
.Ltmp75:
	.loc	3 0 0 is_stmt 0         @ ../Libraries/STM32F4xx_StdPeriph_Driver/src/stm32f4xx_sdio.c:0:0
	str	r0, [r2]
.Ltmp76:
	.loc	3 843 1 is_stmt 1       @ ../Libraries/STM32F4xx_StdPeriph_Driver/src/stm32f4xx_sdio.c:843:1
	bx	lr
.Ltmp77:
.Lfunc_end25:
	.size	SDIO_ITConfig, .Lfunc_end25-SDIO_ITConfig
	.cfi_endproc
	.cantunwind
	.fnend
                                        @ -- End function
	.section	.text.SDIO_GetFlagStatus,"ax",%progbits
	.hidden	SDIO_GetFlagStatus      @ -- Begin function SDIO_GetFlagStatus
	.globl	SDIO_GetFlagStatus
	.p2align	1
	.type	SDIO_GetFlagStatus,%function
	.code	16                      @ @SDIO_GetFlagStatus
	.thumb_func
SDIO_GetFlagStatus:
.Lfunc_begin26:
	.loc	3 876 0                 @ ../Libraries/STM32F4xx_StdPeriph_Driver/src/stm32f4xx_sdio.c:876:0
	.fnstart
	.cfi_startproc
@ %bb.0:
	@DEBUG_VALUE: SDIO_GetFlagStatus:SDIO_FLAG <- $r0
	movw	r1, #11316
	movt	r1, #16385
.Ltmp78:
	@DEBUG_VALUE: SDIO_GetFlagStatus:bitstatus <- 0
	@DEBUG_VALUE: SDIO_GetFlagStatus:SDIO_FLAG <- $r0
	.loc	3 882 14 prologue_end   @ ../Libraries/STM32F4xx_StdPeriph_Driver/src/stm32f4xx_sdio.c:882:14
	ldr	r1, [r1]
	.loc	3 882 18 is_stmt 0      @ ../Libraries/STM32F4xx_StdPeriph_Driver/src/stm32f4xx_sdio.c:882:18
	ands	r0, r1
.Ltmp79:
	.loc	3 882 31                @ ../Libraries/STM32F4xx_StdPeriph_Driver/src/stm32f4xx_sdio.c:882:31
	it	ne
	movne	r0, #1
.Ltmp80:
	@DEBUG_VALUE: SDIO_GetFlagStatus:bitstatus <- undef
	.loc	3 890 3 is_stmt 1       @ ../Libraries/STM32F4xx_StdPeriph_Driver/src/stm32f4xx_sdio.c:890:3
	bx	lr
.Ltmp81:
.Lfunc_end26:
	.size	SDIO_GetFlagStatus, .Lfunc_end26-SDIO_GetFlagStatus
	.cfi_endproc
	.cantunwind
	.fnend
                                        @ -- End function
	.section	.text.SDIO_ClearFlag,"ax",%progbits
	.hidden	SDIO_ClearFlag          @ -- Begin function SDIO_ClearFlag
	.globl	SDIO_ClearFlag
	.p2align	1
	.type	SDIO_ClearFlag,%function
	.code	16                      @ @SDIO_ClearFlag
	.thumb_func
SDIO_ClearFlag:
.Lfunc_begin27:
	.loc	3 913 0                 @ ../Libraries/STM32F4xx_StdPeriph_Driver/src/stm32f4xx_sdio.c:913:0
	.fnstart
	.cfi_startproc
@ %bb.0:
	@DEBUG_VALUE: SDIO_ClearFlag:SDIO_FLAG <- $r0
	movw	r1, #11320
	movt	r1, #16385
	@DEBUG_VALUE: SDIO_ClearFlag:SDIO_FLAG <- $r0
.Ltmp82:
	.loc	3 917 13 prologue_end   @ ../Libraries/STM32F4xx_StdPeriph_Driver/src/stm32f4xx_sdio.c:917:13
	str	r0, [r1]
	.loc	3 918 1                 @ ../Libraries/STM32F4xx_StdPeriph_Driver/src/stm32f4xx_sdio.c:918:1
	bx	lr
.Ltmp83:
.Lfunc_end27:
	.size	SDIO_ClearFlag, .Lfunc_end27-SDIO_ClearFlag
	.cfi_endproc
	.cantunwind
	.fnend
                                        @ -- End function
	.section	.text.SDIO_GetITStatus,"ax",%progbits
	.hidden	SDIO_GetITStatus        @ -- Begin function SDIO_GetITStatus
	.globl	SDIO_GetITStatus
	.p2align	1
	.type	SDIO_GetITStatus,%function
	.code	16                      @ @SDIO_GetITStatus
	.thumb_func
SDIO_GetITStatus:
.Lfunc_begin28:
	.loc	3 952 0                 @ ../Libraries/STM32F4xx_StdPeriph_Driver/src/stm32f4xx_sdio.c:952:0
	.fnstart
	.cfi_startproc
@ %bb.0:
	@DEBUG_VALUE: SDIO_GetITStatus:SDIO_IT <- $r0
	movw	r1, #11316
	movt	r1, #16385
.Ltmp84:
	@DEBUG_VALUE: SDIO_GetITStatus:bitstatus <- 0
	@DEBUG_VALUE: SDIO_GetITStatus:SDIO_IT <- $r0
	.loc	3 957 14 prologue_end   @ ../Libraries/STM32F4xx_StdPeriph_Driver/src/stm32f4xx_sdio.c:957:14
	ldr	r1, [r1]
	.loc	3 957 18 is_stmt 0      @ ../Libraries/STM32F4xx_StdPeriph_Driver/src/stm32f4xx_sdio.c:957:18
	ands	r0, r1
.Ltmp85:
	.loc	3 957 29                @ ../Libraries/STM32F4xx_StdPeriph_Driver/src/stm32f4xx_sdio.c:957:29
	it	ne
	movne	r0, #1
.Ltmp86:
	@DEBUG_VALUE: SDIO_GetITStatus:bitstatus <- undef
	.loc	3 965 3 is_stmt 1       @ ../Libraries/STM32F4xx_StdPeriph_Driver/src/stm32f4xx_sdio.c:965:3
	bx	lr
.Ltmp87:
.Lfunc_end28:
	.size	SDIO_GetITStatus, .Lfunc_end28-SDIO_GetITStatus
	.cfi_endproc
	.cantunwind
	.fnend
                                        @ -- End function
	.section	.text.SDIO_ClearITPendingBit,"ax",%progbits
	.hidden	SDIO_ClearITPendingBit  @ -- Begin function SDIO_ClearITPendingBit
	.globl	SDIO_ClearITPendingBit
	.p2align	1
	.type	SDIO_ClearITPendingBit,%function
	.code	16                      @ @SDIO_ClearITPendingBit
	.thumb_func
SDIO_ClearITPendingBit:
.Lfunc_begin29:
	.loc	3 988 0                 @ ../Libraries/STM32F4xx_StdPeriph_Driver/src/stm32f4xx_sdio.c:988:0
	.fnstart
	.cfi_startproc
@ %bb.0:
	@DEBUG_VALUE: SDIO_ClearITPendingBit:SDIO_IT <- $r0
	movw	r1, #11320
	movt	r1, #16385
	@DEBUG_VALUE: SDIO_ClearITPendingBit:SDIO_IT <- $r0
.Ltmp88:
	.loc	3 992 13 prologue_end   @ ../Libraries/STM32F4xx_StdPeriph_Driver/src/stm32f4xx_sdio.c:992:13
	str	r0, [r1]
	.loc	3 993 1                 @ ../Libraries/STM32F4xx_StdPeriph_Driver/src/stm32f4xx_sdio.c:993:1
	bx	lr
.Ltmp89:
.Lfunc_end29:
	.size	SDIO_ClearITPendingBit, .Lfunc_end29-SDIO_ClearITPendingBit
	.cfi_endproc
	.cantunwind
	.fnend
                                        @ -- End function
	.file	4 "F:\\SkyDrive\\OtvoreniProjekti\\HotelSaplast\\fw\\KontrolerHotela\\HC070318\\Project" "../Libraries/STM32F4xx_StdPeriph_Driver/inc\\stm32f4xx_sdio.h"
	.section	".note.GNU-stack","",%progbits
	.eabi_attribute	30, 3	@ Tag_ABI_optimization_goals
	.ARM_attribute	16, 1	@ Tag_AV_eba