	.text
	.syntax unified
	.eabi_attribute	67, "2.09"	@ Tag_conformance
	.cpu	cortex-m4
	.eabi_attribute	6, 13	@ Tag_CPU_arch
	.eabi_attribute	7, 77	@ Tag_CPU_arch_profile
	.eabi_attribute	8, 0	@ Tag_ARM_ISA_use
	.eabi_attribute	9, 2	@ Tag_THUMB_ISA_use
	.fpu	fpv4-sp-d16
	.eabi_attribute	27, 1	@ Tag_ABI_HardFP_use
	.eabi_attribute	36, 1	@ Tag_FP_HP_extension
	.eabi_attribute	34, 1	@ Tag_CPU_unaligned_access
	.eabi_attribute	17, 1	@ Tag_ABI_PCS_GOT_use
	.eabi_attribute	20, 2	@ Tag_ABI_FP_denormal
	.eabi_attribute	21, 0	@ Tag_ABI_FP_exceptions
	.eabi_attribute	23, 1	@ Tag_ABI_FP_number_model
	.eabi_attribute	24, 1	@ Tag_ABI_align_needed
	.eabi_attribute	25, 1	@ Tag_ABI_align_preserved
	.eabi_attribute	28, 1	@ Tag_ABI_VFP_args
	.eabi_attribute	38, 1	@ Tag_ABI_FP_16bit_format
	.eabi_attribute	18, 2	@ Tag_ABI_PCS_wchar_t
	.eabi_attribute	26, 1	@ Tag_ABI_enum_size
	.eabi_attribute	14, 0	@ Tag_ABI_PCS_R9_use
	.file	"stm32f4xx_rtc.c"
	.file	1 "F:\\SkyDrive\\OtvoreniProjekti\\HotelSaplast\\fw\\KontrolerHotela\\HC070318\\Project" "../Libraries/CMSIS/Device/ST/STM32F4xx/Include\\stm32f4xx.h"
	.file	2 "C:\\Keil\\ARM\\ARMCLANG\\Bin\\..\\include" "stdint.h"
	.section	.text.RTC_DeInit,"ax",%progbits
	.hidden	RTC_DeInit              @ -- Begin function RTC_DeInit
	.globl	RTC_DeInit
	.p2align	1
	.type	RTC_DeInit,%function
	.code	16                      @ @RTC_DeInit
	.thumb_func
RTC_DeInit:
.Lfunc_begin0:
	.file	3 "F:\\SkyDrive\\OtvoreniProjekti\\HotelSaplast\\fw\\KontrolerHotela\\HC070318\\Project" "../Libraries/STM32F4xx_StdPeriph_Driver/src/stm32f4xx_rtc.c"
	.loc	3 376 0                 @ ../Libraries/STM32F4xx_StdPeriph_Driver/src/stm32f4xx_rtc.c:376:0
	.fnstart
	.cfi_sections .debug_frame
	.cfi_startproc
@ %bb.0:
	.save	{r4, r5, r7, lr}
	push	{r4, r5, r7, lr}
	.cfi_def_cfa_offset 16
	.cfi_offset lr, -4
	.cfi_offset r7, -8
	.cfi_offset r5, -12
	.cfi_offset r4, -16
	.pad	#8
	sub	sp, #8
	.cfi_def_cfa_offset 24
	movw	r5, #10240
	movs	r4, #0
	movs	r0, #202
.Ltmp0:
	@DEBUG_VALUE: RTC_DeInit:status <- 0
	@DEBUG_VALUE: RTC_DeInit:wutwfstatus <- 0
	movt	r5, #16384
.Ltmp1:
	.loc	3 377 17 prologue_end   @ ../Libraries/STM32F4xx_StdPeriph_Driver/src/stm32f4xx_rtc.c:377:17
	str	r4, [sp, #4]
	.loc	3 382 12                @ ../Libraries/STM32F4xx_StdPeriph_Driver/src/stm32f4xx_rtc.c:382:12
	str	r0, [r5, #36]
	movs	r0, #83
	.loc	3 383 12                @ ../Libraries/STM32F4xx_StdPeriph_Driver/src/stm32f4xx_rtc.c:383:12
	str	r0, [r5, #36]
.Ltmp2:
	.loc	3 386 7                 @ ../Libraries/STM32F4xx_StdPeriph_Driver/src/stm32f4xx_rtc.c:386:7
	bl	RTC_EnterInitMode
.Ltmp3:
	.loc	3 386 7 is_stmt 0       @ ../Libraries/STM32F4xx_StdPeriph_Driver/src/stm32f4xx_rtc.c:386:7
	cbz	r0, .LBB0_6
@ %bb.1:
	.loc	3 0 7                   @ ../Libraries/STM32F4xx_StdPeriph_Driver/src/stm32f4xx_rtc.c:0:7
	movw	r0, #8449
.Ltmp4:
	.loc	3 393 13 is_stmt 1      @ ../Libraries/STM32F4xx_StdPeriph_Driver/src/stm32f4xx_rtc.c:393:13
	str	r4, [r5]
	.loc	3 394 13                @ ../Libraries/STM32F4xx_StdPeriph_Driver/src/stm32f4xx_rtc.c:394:13
	str	r0, [r5, #4]
	.loc	3 396 13                @ ../Libraries/STM32F4xx_StdPeriph_Driver/src/stm32f4xx_rtc.c:396:13
	ldr	r0, [r5, #8]
	and	r0, r0, #7
	str	r0, [r5, #8]
	.p2align	2
.LBB0_2:                                @ =>This Inner Loop Header: Depth=1
.Ltmp5:
	.loc	3 401 26                @ ../Libraries/STM32F4xx_StdPeriph_Driver/src/stm32f4xx_rtc.c:401:26
	ldr	r0, [r5, #12]
.Ltmp6:
	@DEBUG_VALUE: RTC_DeInit:wutwfstatus <- undef
	.loc	3 402 17                @ ../Libraries/STM32F4xx_StdPeriph_Driver/src/stm32f4xx_rtc.c:402:17
	ldr	r1, [sp, #4]
	adds	r1, #1
	.loc	3 403 5                 @ ../Libraries/STM32F4xx_StdPeriph_Driver/src/stm32f4xx_rtc.c:403:5
	lsls	r0, r0, #29
	.loc	3 402 17                @ ../Libraries/STM32F4xx_StdPeriph_Driver/src/stm32f4xx_rtc.c:402:17
	str	r1, [sp, #4]
.Ltmp7:
	.loc	3 403 14                @ ../Libraries/STM32F4xx_StdPeriph_Driver/src/stm32f4xx_rtc.c:403:14
	ldr	r0, [sp, #4]
.Ltmp8:
	.loc	3 403 5 is_stmt 0       @ ../Libraries/STM32F4xx_StdPeriph_Driver/src/stm32f4xx_rtc.c:403:5
	bmi	.LBB0_4
@ %bb.3:                                @   in Loop: Header=BB0_2 Depth=1
	cmp.w	r0, #65536
	bne	.LBB0_2
.Ltmp9:
.LBB0_4:
	.loc	3 405 15 is_stmt 1      @ ../Libraries/STM32F4xx_StdPeriph_Driver/src/stm32f4xx_rtc.c:405:15
	ldr	r0, [r5, #12]
	movs	r4, #0
.Ltmp10:
	.loc	3 405 9 is_stmt 0       @ ../Libraries/STM32F4xx_StdPeriph_Driver/src/stm32f4xx_rtc.c:405:9
	lsls	r0, r0, #29
	bpl	.LBB0_6
@ %bb.5:
.Ltmp11:
	.loc	3 412 15 is_stmt 1      @ ../Libraries/STM32F4xx_StdPeriph_Driver/src/stm32f4xx_rtc.c:412:15
	ldr	r0, [r5, #8]
	str	r4, [r5, #8]
	movw	r0, #65535
	.loc	3 413 17                @ ../Libraries/STM32F4xx_StdPeriph_Driver/src/stm32f4xx_rtc.c:413:17
	str	r0, [r5, #20]
	movs	r0, #255
	movt	r0, #127
	.loc	3 414 17                @ ../Libraries/STM32F4xx_StdPeriph_Driver/src/stm32f4xx_rtc.c:414:17
	str	r0, [r5, #16]
	.loc	3 415 19                @ ../Libraries/STM32F4xx_StdPeriph_Driver/src/stm32f4xx_rtc.c:415:19
	str	r4, [r5, #24]
	.loc	3 416 19                @ ../Libraries/STM32F4xx_StdPeriph_Driver/src/stm32f4xx_rtc.c:416:19
	str	r4, [r5, #28]
	.loc	3 417 19                @ ../Libraries/STM32F4xx_StdPeriph_Driver/src/stm32f4xx_rtc.c:417:19
	str	r4, [r5, #32]
	.loc	3 418 19                @ ../Libraries/STM32F4xx_StdPeriph_Driver/src/stm32f4xx_rtc.c:418:19
	str	r4, [r5, #44]
	.loc	3 419 17                @ ../Libraries/STM32F4xx_StdPeriph_Driver/src/stm32f4xx_rtc.c:419:17
	str	r4, [r5, #60]
	.loc	3 420 21                @ ../Libraries/STM32F4xx_StdPeriph_Driver/src/stm32f4xx_rtc.c:420:21
	str	r4, [r5, #68]
	.loc	3 421 21                @ ../Libraries/STM32F4xx_StdPeriph_Driver/src/stm32f4xx_rtc.c:421:21
	str	r4, [r5, #72]
	.loc	3 424 16                @ ../Libraries/STM32F4xx_StdPeriph_Driver/src/stm32f4xx_rtc.c:424:16
	str	r4, [r5, #12]
	.loc	3 427 18                @ ../Libraries/STM32F4xx_StdPeriph_Driver/src/stm32f4xx_rtc.c:427:18
	str	r4, [r5, #64]
.Ltmp12:
	.loc	3 429 10                @ ../Libraries/STM32F4xx_StdPeriph_Driver/src/stm32f4xx_rtc.c:429:10
	bl	RTC_WaitForSynchro
	mov	r4, r0
	.loc	3 429 31 is_stmt 0      @ ../Libraries/STM32F4xx_StdPeriph_Driver/src/stm32f4xx_rtc.c:429:31
	cmp	r0, #0
	it	ne
	movne	r4, #1
.Ltmp13:
.LBB0_6:
	@DEBUG_VALUE: RTC_DeInit:status <- $r4
	.loc	3 0 31                  @ ../Libraries/STM32F4xx_StdPeriph_Driver/src/stm32f4xx_rtc.c:0:31
	movs	r0, #255
	.loc	3 441 12 is_stmt 1      @ ../Libraries/STM32F4xx_StdPeriph_Driver/src/stm32f4xx_rtc.c:441:12
	str	r0, [r5, #36]
	.loc	3 443 3                 @ ../Libraries/STM32F4xx_StdPeriph_Driver/src/stm32f4xx_rtc.c:443:3
	mov	r0, r4
	add	sp, #8
	pop	{r4, r5, r7, pc}
.Ltmp14:
.Lfunc_end0:
	.size	RTC_DeInit, .Lfunc_end0-RTC_DeInit
	.cfi_endproc
	.cantunwind
	.fnend
                                        @ -- End function
	.section	.text.RTC_EnterInitMode,"ax",%progbits
	.hidden	RTC_EnterInitMode       @ -- Begin function RTC_EnterInitMode
	.globl	RTC_EnterInitMode
	.p2align	1
	.type	RTC_EnterInitMode,%function
	.code	16                      @ @RTC_EnterInitMode
	.thumb_func
RTC_EnterInitMode:
.Lfunc_begin1:
	.loc	3 553 0                 @ ../Libraries/STM32F4xx_StdPeriph_Driver/src/stm32f4xx_rtc.c:553:0
	.fnstart
	.cfi_startproc
@ %bb.0:
	.pad	#4
	sub	sp, #4
	.cfi_def_cfa_offset 4
	movs	r0, #0
.Ltmp15:
	.loc	3 554 17 prologue_end   @ ../Libraries/STM32F4xx_StdPeriph_Driver/src/stm32f4xx_rtc.c:554:17
	str	r0, [sp]
	movw	r0, #10252
	movt	r0, #16384
.Ltmp16:
	@DEBUG_VALUE: RTC_EnterInitMode:initstatus <- 0
	@DEBUG_VALUE: RTC_EnterInitMode:status <- 0
	.loc	3 559 13                @ ../Libraries/STM32F4xx_StdPeriph_Driver/src/stm32f4xx_rtc.c:559:13
	ldr	r1, [r0]
.Ltmp17:
	.loc	3 559 7 is_stmt 0       @ ../Libraries/STM32F4xx_StdPeriph_Driver/src/stm32f4xx_rtc.c:559:7
	lsls	r1, r1, #25
	bmi	.LBB1_5
@ %bb.1:
	.loc	3 0 7                   @ ../Libraries/STM32F4xx_StdPeriph_Driver/src/stm32f4xx_rtc.c:0:7
	mov.w	r1, #-1
.Ltmp18:
	.loc	3 562 14 is_stmt 1      @ ../Libraries/STM32F4xx_StdPeriph_Driver/src/stm32f4xx_rtc.c:562:14
	str	r1, [r0]
	.p2align	2
.LBB1_2:                                @ =>This Inner Loop Header: Depth=1
.Ltmp19:
	.loc	3 567 25                @ ../Libraries/STM32F4xx_StdPeriph_Driver/src/stm32f4xx_rtc.c:567:25
	ldr	r1, [r0]
.Ltmp20:
	@DEBUG_VALUE: RTC_EnterInitMode:initstatus <- undef
	.loc	3 568 18                @ ../Libraries/STM32F4xx_StdPeriph_Driver/src/stm32f4xx_rtc.c:568:18
	ldr	r2, [sp]
	adds	r2, #1
	.loc	3 569 5                 @ ../Libraries/STM32F4xx_StdPeriph_Driver/src/stm32f4xx_rtc.c:569:5
	lsls	r1, r1, #25
	.loc	3 568 18                @ ../Libraries/STM32F4xx_StdPeriph_Driver/src/stm32f4xx_rtc.c:568:18
	str	r2, [sp]
.Ltmp21:
	.loc	3 569 14                @ ../Libraries/STM32F4xx_StdPeriph_Driver/src/stm32f4xx_rtc.c:569:14
	ldr	r1, [sp]
.Ltmp22:
	.loc	3 569 5 is_stmt 0       @ ../Libraries/STM32F4xx_StdPeriph_Driver/src/stm32f4xx_rtc.c:569:5
	bmi	.LBB1_4
@ %bb.3:                                @   in Loop: Header=BB1_2 Depth=1
	cmp.w	r1, #65536
	bne	.LBB1_2
.Ltmp23:
.LBB1_4:
	.loc	3 571 15 is_stmt 1      @ ../Libraries/STM32F4xx_StdPeriph_Driver/src/stm32f4xx_rtc.c:571:15
	ldr	r0, [r0]
.Ltmp24:
	.loc	3 571 9 is_stmt 0       @ ../Libraries/STM32F4xx_StdPeriph_Driver/src/stm32f4xx_rtc.c:571:9
	ubfx	r0, r0, #6, #1
	b	.LBB1_6
.Ltmp25:
.LBB1_5:
	.loc	3 0 9                   @ ../Libraries/STM32F4xx_StdPeriph_Driver/src/stm32f4xx_rtc.c:0:9
	movs	r0, #1
.LBB1_6:
.Ltmp26:
	@DEBUG_VALUE: RTC_EnterInitMode:status <- $r0
	.loc	3 585 3 is_stmt 1       @ ../Libraries/STM32F4xx_StdPeriph_Driver/src/stm32f4xx_rtc.c:585:3
	add	sp, #4
	bx	lr
.Ltmp27:
.Lfunc_end1:
	.size	RTC_EnterInitMode, .Lfunc_end1-RTC_EnterInitMode
	.cfi_endproc
	.cantunwind
	.fnend
                                        @ -- End function
	.section	.text.RTC_WaitForSynchro,"ax",%progbits
	.hidden	RTC_WaitForSynchro      @ -- Begin function RTC_WaitForSynchro
	.globl	RTC_WaitForSynchro
	.p2align	1
	.type	RTC_WaitForSynchro,%function
	.code	16                      @ @RTC_WaitForSynchro
	.thumb_func
RTC_WaitForSynchro:
.Lfunc_begin2:
	.loc	3 620 0                 @ ../Libraries/STM32F4xx_StdPeriph_Driver/src/stm32f4xx_rtc.c:620:0
	.fnstart
	.cfi_startproc
@ %bb.0:
	.pad	#4
	sub	sp, #4
	.cfi_def_cfa_offset 4
	movs	r0, #0
	movs	r1, #202
.Ltmp28:
	@DEBUG_VALUE: RTC_WaitForSynchro:synchrostatus <- 0
	@DEBUG_VALUE: RTC_WaitForSynchro:status <- 0
	.loc	3 621 17 prologue_end   @ ../Libraries/STM32F4xx_StdPeriph_Driver/src/stm32f4xx_rtc.c:621:17
	str	r0, [sp]
	movw	r0, #10252
	movt	r0, #16384
	.loc	3 626 12                @ ../Libraries/STM32F4xx_StdPeriph_Driver/src/stm32f4xx_rtc.c:626:12
	str	r1, [r0, #24]
	movs	r1, #83
	.loc	3 627 12                @ ../Libraries/STM32F4xx_StdPeriph_Driver/src/stm32f4xx_rtc.c:627:12
	str	r1, [r0, #24]
	.loc	3 630 12                @ ../Libraries/STM32F4xx_StdPeriph_Driver/src/stm32f4xx_rtc.c:630:12
	ldr	r1, [r0]
	bic	r1, r1, #160
	str	r1, [r0]
	.p2align	2
.LBB2_1:                                @ =>This Inner Loop Header: Depth=1
.Ltmp29:
	.loc	3 635 26                @ ../Libraries/STM32F4xx_StdPeriph_Driver/src/stm32f4xx_rtc.c:635:26
	ldr	r1, [r0]
.Ltmp30:
	@DEBUG_VALUE: RTC_WaitForSynchro:synchrostatus <- undef
	.loc	3 636 19                @ ../Libraries/STM32F4xx_StdPeriph_Driver/src/stm32f4xx_rtc.c:636:19
	ldr	r2, [sp]
	adds	r2, #1
	.loc	3 637 3                 @ ../Libraries/STM32F4xx_StdPeriph_Driver/src/stm32f4xx_rtc.c:637:3
	lsls	r1, r1, #26
	.loc	3 636 19                @ ../Libraries/STM32F4xx_StdPeriph_Driver/src/stm32f4xx_rtc.c:636:19
	str	r2, [sp]
.Ltmp31:
	.loc	3 637 12                @ ../Libraries/STM32F4xx_StdPeriph_Driver/src/stm32f4xx_rtc.c:637:12
	ldr	r1, [sp]
.Ltmp32:
	.loc	3 637 3 is_stmt 0       @ ../Libraries/STM32F4xx_StdPeriph_Driver/src/stm32f4xx_rtc.c:637:3
	bmi	.LBB2_3
@ %bb.2:                                @   in Loop: Header=BB2_1 Depth=1
	cmp.w	r1, #131072
	bne	.LBB2_1
.Ltmp33:
.LBB2_3:
	.loc	3 639 13 is_stmt 1      @ ../Libraries/STM32F4xx_StdPeriph_Driver/src/stm32f4xx_rtc.c:639:13
	ldr	r1, [r0]
	movs	r2, #255
.Ltmp34:
	@DEBUG_VALUE: RTC_WaitForSynchro:status <- undef
	.loc	3 649 12                @ ../Libraries/STM32F4xx_StdPeriph_Driver/src/stm32f4xx_rtc.c:649:12
	str	r2, [r0, #24]
	.loc	3 651 3                 @ ../Libraries/STM32F4xx_StdPeriph_Driver/src/stm32f4xx_rtc.c:651:3
	ubfx	r0, r1, #5, #1
	add	sp, #4
	bx	lr
.Ltmp35:
.Lfunc_end2:
	.size	RTC_WaitForSynchro, .Lfunc_end2-RTC_WaitForSynchro
	.cfi_endproc
	.cantunwind
	.fnend
                                        @ -- End function
	.section	.text.RTC_Init,"ax",%progbits
	.hidden	RTC_Init                @ -- Begin function RTC_Init
	.globl	RTC_Init
	.p2align	1
	.type	RTC_Init,%function
	.code	16                      @ @RTC_Init
	.thumb_func
RTC_Init:
.Lfunc_begin3:
	.loc	3 458 0                 @ ../Libraries/STM32F4xx_StdPeriph_Driver/src/stm32f4xx_rtc.c:458:0
	.fnstart
	.cfi_startproc
@ %bb.0:
	.save	{r4, r5, r7, lr}
	push	{r4, r5, r7, lr}
	.cfi_def_cfa_offset 16
	.cfi_offset lr, -4
	.cfi_offset r7, -8
	.cfi_offset r5, -12
	.cfi_offset r4, -16
	@DEBUG_VALUE: RTC_Init:RTC_InitStruct <- $r0
	movw	r5, #10248
	mov	r4, r0
	movs	r0, #202
.Ltmp36:
	@DEBUG_VALUE: RTC_Init:status <- 0
	@DEBUG_VALUE: RTC_Init:RTC_InitStruct <- $r4
	movt	r5, #16384
.Ltmp37:
	.loc	3 467 12 prologue_end   @ ../Libraries/STM32F4xx_StdPeriph_Driver/src/stm32f4xx_rtc.c:467:12
	str	r0, [r5, #28]
	movs	r0, #83
	.loc	3 468 12                @ ../Libraries/STM32F4xx_StdPeriph_Driver/src/stm32f4xx_rtc.c:468:12
	str	r0, [r5, #28]
.Ltmp38:
	.loc	3 471 7                 @ ../Libraries/STM32F4xx_StdPeriph_Driver/src/stm32f4xx_rtc.c:471:7
	bl	RTC_EnterInitMode
.Ltmp39:
	.loc	3 471 7 is_stmt 0       @ ../Libraries/STM32F4xx_StdPeriph_Driver/src/stm32f4xx_rtc.c:471:7
	cbz	r0, .LBB3_2
.Ltmp40:
@ %bb.1:
	@DEBUG_VALUE: RTC_Init:RTC_InitStruct <- $r4
	.loc	3 478 13 is_stmt 1      @ ../Libraries/STM32F4xx_StdPeriph_Driver/src/stm32f4xx_rtc.c:478:13
	ldr	r0, [r5]
	bic	r0, r0, #64
	str	r0, [r5]
	.loc	3 480 45                @ ../Libraries/STM32F4xx_StdPeriph_Driver/src/stm32f4xx_rtc.c:480:45
	ldr	r0, [r4]
	.loc	3 480 13 is_stmt 0      @ ../Libraries/STM32F4xx_StdPeriph_Driver/src/stm32f4xx_rtc.c:480:13
	ldr	r1, [r5]
	orrs	r0, r1
	str	r0, [r5]
	.loc	3 483 44 is_stmt 1      @ ../Libraries/STM32F4xx_StdPeriph_Driver/src/stm32f4xx_rtc.c:483:44
	ldr	r0, [r4, #8]
	.loc	3 483 15 is_stmt 0      @ ../Libraries/STM32F4xx_StdPeriph_Driver/src/stm32f4xx_rtc.c:483:15
	str	r0, [r5, #8]
	.loc	3 484 45 is_stmt 1      @ ../Libraries/STM32F4xx_StdPeriph_Driver/src/stm32f4xx_rtc.c:484:45
	ldr	r0, [r4, #4]
	.loc	3 484 15 is_stmt 0      @ ../Libraries/STM32F4xx_StdPeriph_Driver/src/stm32f4xx_rtc.c:484:15
	ldr	r1, [r5, #8]
	orr.w	r0, r1, r0, lsl #16
	str	r0, [r5, #8]
.Ltmp41:
	.loc	3 600 12 is_stmt 1      @ ../Libraries/STM32F4xx_StdPeriph_Driver/src/stm32f4xx_rtc.c:600:12
	ldr	r0, [r5, #4]
	bic	r0, r0, #128
	str	r0, [r5, #4]
	movs	r0, #1
.Ltmp42:
	@DEBUG_VALUE: RTC_Init:status <- 1
	.loc	3 0 12 is_stmt 0        @ ../Libraries/STM32F4xx_StdPeriph_Driver/src/stm32f4xx_rtc.c:0:12
	b	.LBB3_3
.Ltmp43:
.LBB3_2:
	@DEBUG_VALUE: RTC_Init:RTC_InitStruct <- $r4
	movs	r0, #0
.Ltmp44:
.LBB3_3:
	@DEBUG_VALUE: RTC_Init:RTC_InitStruct <- $r4
	@DEBUG_VALUE: RTC_Init:status <- $r0
	movs	r1, #255
	.loc	3 492 12 is_stmt 1      @ ../Libraries/STM32F4xx_StdPeriph_Driver/src/stm32f4xx_rtc.c:492:12
	str	r1, [r5, #28]
	.loc	3 494 3                 @ ../Libraries/STM32F4xx_StdPeriph_Driver/src/stm32f4xx_rtc.c:494:3
	pop	{r4, r5, r7, pc}
.Ltmp45:
.Lfunc_end3:
	.size	RTC_Init, .Lfunc_end3-RTC_Init
	.cfi_endproc
	.cantunwind
	.fnend
                                        @ -- End function
	.section	.text.RTC_ExitInitMode,"ax",%progbits
	.hidden	RTC_ExitInitMode        @ -- Begin function RTC_ExitInitMode
	.globl	RTC_ExitInitMode
	.p2align	1
	.type	RTC_ExitInitMode,%function
	.code	16                      @ @RTC_ExitInitMode
	.thumb_func
RTC_ExitInitMode:
.Lfunc_begin4:
	.loc	3 598 0                 @ ../Libraries/STM32F4xx_StdPeriph_Driver/src/stm32f4xx_rtc.c:598:0
	.fnstart
	.cfi_startproc
@ %bb.0:
	movw	r0, #10252
	movt	r0, #16384
.Ltmp46:
	.loc	3 600 12 prologue_end   @ ../Libraries/STM32F4xx_StdPeriph_Driver/src/stm32f4xx_rtc.c:600:12
	ldr	r1, [r0]
	bic	r1, r1, #128
	str	r1, [r0]
	.loc	3 601 1                 @ ../Libraries/STM32F4xx_StdPeriph_Driver/src/stm32f4xx_rtc.c:601:1
	bx	lr
.Ltmp47:
.Lfunc_end4:
	.size	RTC_ExitInitMode, .Lfunc_end4-RTC_ExitInitMode
	.cfi_endproc
	.cantunwind
	.fnend
                                        @ -- End function
	.section	.text.RTC_StructInit,"ax",%progbits
	.hidden	RTC_StructInit          @ -- Begin function RTC_StructInit
	.globl	RTC_StructInit
	.p2align	1
	.type	RTC_StructInit,%function
	.code	16                      @ @RTC_StructInit
	.thumb_func
RTC_StructInit:
.Lfunc_begin5:
	.loc	3 504 0                 @ ../Libraries/STM32F4xx_StdPeriph_Driver/src/stm32f4xx_rtc.c:504:0
	.fnstart
	.cfi_startproc
@ %bb.0:
	@DEBUG_VALUE: RTC_StructInit:RTC_InitStruct <- $r0
	movs	r1, #255
	movs	r2, #127
	movs	r3, #0
	@DEBUG_VALUE: RTC_StructInit:RTC_InitStruct <- $r0
.Ltmp48:
	.loc	3 506 34 prologue_end   @ ../Libraries/STM32F4xx_StdPeriph_Driver/src/stm32f4xx_rtc.c:506:34
	strd	r3, r2, [r0]
	.loc	3 512 35                @ ../Libraries/STM32F4xx_StdPeriph_Driver/src/stm32f4xx_rtc.c:512:35
	str	r1, [r0, #8]
	.loc	3 513 1                 @ ../Libraries/STM32F4xx_StdPeriph_Driver/src/stm32f4xx_rtc.c:513:1
	bx	lr
.Ltmp49:
.Lfunc_end5:
	.size	RTC_StructInit, .Lfunc_end5-RTC_StructInit
	.cfi_endproc
	.cantunwind
	.fnend
                                        @ -- End function
	.section	.text.RTC_WriteProtectionCmd,"ax",%progbits
	.hidden	RTC_WriteProtectionCmd  @ -- Begin function RTC_WriteProtectionCmd
	.globl	RTC_WriteProtectionCmd
	.p2align	1
	.type	RTC_WriteProtectionCmd,%function
	.code	16                      @ @RTC_WriteProtectionCmd
	.thumb_func
RTC_WriteProtectionCmd:
.Lfunc_begin6:
	.loc	3 526 0                 @ ../Libraries/STM32F4xx_StdPeriph_Driver/src/stm32f4xx_rtc.c:526:0
	.fnstart
	.cfi_startproc
@ %bb.0:
	@DEBUG_VALUE: RTC_WriteProtectionCmd:NewState <- $r0
	movw	r1, #10276
.Ltmp50:
	.loc	3 530 7 prologue_end    @ ../Libraries/STM32F4xx_StdPeriph_Driver/src/stm32f4xx_rtc.c:530:7
	cmp	r0, #0
	movt	r1, #16384
	@DEBUG_VALUE: RTC_WriteProtectionCmd:NewState <- $r0
	beq	.LBB6_2
.Ltmp51:
@ %bb.1:
	@DEBUG_VALUE: RTC_WriteProtectionCmd:NewState <- $r0
	.loc	3 0 7 is_stmt 0         @ ../Libraries/STM32F4xx_StdPeriph_Driver/src/stm32f4xx_rtc.c:0:7
	movs	r0, #255
.Ltmp52:
	b	.LBB6_3
.LBB6_2:
.Ltmp53:
	@DEBUG_VALUE: RTC_WriteProtectionCmd:NewState <- $r0
	movs	r0, #202
.Ltmp54:
	.loc	3 538 14 is_stmt 1      @ ../Libraries/STM32F4xx_StdPeriph_Driver/src/stm32f4xx_rtc.c:538:14
	str	r0, [r1]
	movs	r0, #83
.Ltmp55:
.LBB6_3:
	.loc	3 0 0 is_stmt 0         @ ../Libraries/STM32F4xx_StdPeriph_Driver/src/stm32f4xx_rtc.c:0:0
	str	r0, [r1]
.Ltmp56:
	.loc	3 541 1 is_stmt 1       @ ../Libraries/STM32F4xx_StdPeriph_Driver/src/stm32f4xx_rtc.c:541:1
	bx	lr
.Ltmp57:
.Lfunc_end6:
	.size	RTC_WriteProtectionCmd, .Lfunc_end6-RTC_WriteProtectionCmd
	.cfi_endproc
	.cantunwind
	.fnend
                                        @ -- End function
	.section	.text.RTC_RefClockCmd,"ax",%progbits
	.hidden	RTC_RefClockCmd         @ -- Begin function RTC_RefClockCmd
	.globl	RTC_RefClockCmd
	.p2align	1
	.type	RTC_RefClockCmd,%function
	.code	16                      @ @RTC_RefClockCmd
	.thumb_func
RTC_RefClockCmd:
.Lfunc_begin7:
	.loc	3 663 0                 @ ../Libraries/STM32F4xx_StdPeriph_Driver/src/stm32f4xx_rtc.c:663:0
	.fnstart
	.cfi_startproc
@ %bb.0:
	.save	{r4, r5, r7, lr}
	push	{r4, r5, r7, lr}
	.cfi_def_cfa_offset 16
	.cfi_offset lr, -4
	.cfi_offset r7, -8
	.cfi_offset r5, -12
	.cfi_offset r4, -16
	@DEBUG_VALUE: RTC_RefClockCmd:NewState <- $r0
	movw	r5, #10248
	mov	r4, r0
	movs	r0, #202
.Ltmp58:
	@DEBUG_VALUE: RTC_RefClockCmd:status <- 0
	@DEBUG_VALUE: RTC_RefClockCmd:NewState <- $r4
	movt	r5, #16384
.Ltmp59:
	.loc	3 670 12 prologue_end   @ ../Libraries/STM32F4xx_StdPeriph_Driver/src/stm32f4xx_rtc.c:670:12
	str	r0, [r5, #28]
	movs	r0, #83
	.loc	3 671 12                @ ../Libraries/STM32F4xx_StdPeriph_Driver/src/stm32f4xx_rtc.c:671:12
	str	r0, [r5, #28]
.Ltmp60:
	.loc	3 674 7                 @ ../Libraries/STM32F4xx_StdPeriph_Driver/src/stm32f4xx_rtc.c:674:7
	bl	RTC_EnterInitMode
.Ltmp61:
	.loc	3 674 7 is_stmt 0       @ ../Libraries/STM32F4xx_StdPeriph_Driver/src/stm32f4xx_rtc.c:674:7
	cbz	r0, .LBB7_2
.Ltmp62:
@ %bb.1:
	@DEBUG_VALUE: RTC_RefClockCmd:NewState <- $r4
	.loc	3 0 0                   @ ../Libraries/STM32F4xx_StdPeriph_Driver/src/stm32f4xx_rtc.c:0:0
	ldr	r0, [r5]
.Ltmp63:
	.loc	3 680 9 is_stmt 1       @ ../Libraries/STM32F4xx_StdPeriph_Driver/src/stm32f4xx_rtc.c:680:9
	cmp	r4, #0
	orr	r1, r0, #16
	it	eq
	biceq	r1, r0, #16
.Ltmp64:
	.loc	3 0 0 is_stmt 0         @ ../Libraries/STM32F4xx_StdPeriph_Driver/src/stm32f4xx_rtc.c:0:0
	str	r1, [r5]
.Ltmp65:
	.loc	3 600 12 is_stmt 1      @ ../Libraries/STM32F4xx_StdPeriph_Driver/src/stm32f4xx_rtc.c:600:12
	ldr	r0, [r5, #4]
	bic	r0, r0, #128
	str	r0, [r5, #4]
	movs	r0, #1
.Ltmp66:
	@DEBUG_VALUE: RTC_RefClockCmd:status <- 1
	.loc	3 0 12 is_stmt 0        @ ../Libraries/STM32F4xx_StdPeriph_Driver/src/stm32f4xx_rtc.c:0:12
	b	.LBB7_3
.Ltmp67:
.LBB7_2:
	@DEBUG_VALUE: RTC_RefClockCmd:NewState <- $r4
	movs	r0, #0
.Ltmp68:
.LBB7_3:
	@DEBUG_VALUE: RTC_RefClockCmd:NewState <- $r4
	@DEBUG_VALUE: RTC_RefClockCmd:status <- $r0
	movs	r1, #255
	.loc	3 697 12 is_stmt 1      @ ../Libraries/STM32F4xx_StdPeriph_Driver/src/stm32f4xx_rtc.c:697:12
	str	r1, [r5, #28]
	.loc	3 699 3                 @ ../Libraries/STM32F4xx_StdPeriph_Driver/src/stm32f4xx_rtc.c:699:3
	pop	{r4, r5, r7, pc}
.Ltmp69:
.Lfunc_end7:
	.size	RTC_RefClockCmd, .Lfunc_end7-RTC_RefClockCmd
	.cfi_endproc
	.cantunwind
	.fnend
                                        @ -- End function
	.section	.text.RTC_BypassShadowCmd,"ax",%progbits
	.hidden	RTC_BypassShadowCmd     @ -- Begin function RTC_BypassShadowCmd
	.globl	RTC_BypassShadowCmd
	.p2align	1
	.type	RTC_BypassShadowCmd,%function
	.code	16                      @ @RTC_BypassShadowCmd
	.thumb_func
RTC_BypassShadowCmd:
.Lfunc_begin8:
	.loc	3 711 0                 @ ../Libraries/STM32F4xx_StdPeriph_Driver/src/stm32f4xx_rtc.c:711:0
	.fnstart
	.cfi_startproc
@ %bb.0:
	@DEBUG_VALUE: RTC_BypassShadowCmd:NewState <- $r0
	movw	r1, #10248
	movs	r2, #202
	@DEBUG_VALUE: RTC_BypassShadowCmd:NewState <- $r0
.Ltmp70:
	.loc	3 719 7 prologue_end    @ ../Libraries/STM32F4xx_StdPeriph_Driver/src/stm32f4xx_rtc.c:719:7
	cmp	r0, #0
	mov.w	r0, #255
.Ltmp71:
	.loc	3 0 7 is_stmt 0         @ ../Libraries/STM32F4xx_StdPeriph_Driver/src/stm32f4xx_rtc.c:0:7
	movt	r1, #16384
	.loc	3 716 12 is_stmt 1      @ ../Libraries/STM32F4xx_StdPeriph_Driver/src/stm32f4xx_rtc.c:716:12
	str	r2, [r1, #28]
	mov.w	r2, #83
	.loc	3 717 12                @ ../Libraries/STM32F4xx_StdPeriph_Driver/src/stm32f4xx_rtc.c:717:12
	str	r2, [r1, #28]
.Ltmp72:
	.loc	3 0 0 is_stmt 0         @ ../Libraries/STM32F4xx_StdPeriph_Driver/src/stm32f4xx_rtc.c:0:0
	ldr	r2, [r1]
.Ltmp73:
	.loc	3 719 7 is_stmt 1       @ ../Libraries/STM32F4xx_StdPeriph_Driver/src/stm32f4xx_rtc.c:719:7
	orr	r3, r2, #32
	it	eq
	andeq	r3, r2, #223
.Ltmp74:
	.loc	3 0 0 is_stmt 0         @ ../Libraries/STM32F4xx_StdPeriph_Driver/src/stm32f4xx_rtc.c:0:0
	str	r3, [r1]
.Ltmp75:
	.loc	3 731 12 is_stmt 1      @ ../Libraries/STM32F4xx_StdPeriph_Driver/src/stm32f4xx_rtc.c:731:12
	str	r0, [r1, #28]
	.loc	3 732 1                 @ ../Libraries/STM32F4xx_StdPeriph_Driver/src/stm32f4xx_rtc.c:732:1
	bx	lr
.Ltmp76:
.Lfunc_end8:
	.size	RTC_BypassShadowCmd, .Lfunc_end8-RTC_BypassShadowCmd
	.cfi_endproc
	.cantunwind
	.fnend
                                        @ -- End function
	.section	.text.RTC_SetTime,"ax",%progbits
	.hidden	RTC_SetTime             @ -- Begin function RTC_SetTime
	.globl	RTC_SetTime
	.p2align	1
	.type	RTC_SetTime,%function
	.code	16                      @ @RTC_SetTime
	.thumb_func
RTC_SetTime:
.Lfunc_begin9:
	.loc	3 766 0                 @ ../Libraries/STM32F4xx_StdPeriph_Driver/src/stm32f4xx_rtc.c:766:0
	.fnstart
	.cfi_startproc
@ %bb.0:
	.save	{r4, r5, r7, lr}
	push	{r4, r5, r7, lr}
	.cfi_def_cfa_offset 16
	.cfi_offset lr, -4
	.cfi_offset r7, -8
	.cfi_offset r5, -12
	.cfi_offset r4, -16
	@DEBUG_VALUE: RTC_SetTime:RTC_Format <- $r0
	@DEBUG_VALUE: RTC_SetTime:RTC_TimeStruct <- $r1
	movw	r4, #10240
.Ltmp77:
	.loc	3 773 7 prologue_end    @ ../Libraries/STM32F4xx_StdPeriph_Driver/src/stm32f4xx_rtc.c:773:7
	cmp	r0, #0
	movt	r4, #16384
.Ltmp78:
	@DEBUG_VALUE: RTC_SetTime:status <- 0
	@DEBUG_VALUE: RTC_SetTime:tmpreg <- 0
	@DEBUG_VALUE: RTC_SetTime:RTC_TimeStruct <- $r1
	@DEBUG_VALUE: RTC_SetTime:RTC_Format <- $r0
	.loc	3 0 0 is_stmt 0         @ ../Libraries/STM32F4xx_StdPeriph_Driver/src/stm32f4xx_rtc.c:0:0
	ldr	r2, [r4, #8]
	and	r2, r2, #64
.Ltmp79:
	.loc	3 773 7                 @ ../Libraries/STM32F4xx_StdPeriph_Driver/src/stm32f4xx_rtc.c:773:7
	beq	.LBB9_2
.Ltmp80:
@ %bb.1:
	@DEBUG_VALUE: RTC_SetTime:RTC_TimeStruct <- $r1
	@DEBUG_VALUE: RTC_SetTime:RTC_Format <- $r0
	.loc	3 790 9 is_stmt 1       @ ../Libraries/STM32F4xx_StdPeriph_Driver/src/stm32f4xx_rtc.c:790:9
	cmp	r2, #0
	ittee	eq
	moveq	r0, #0
.Ltmp81:
	.loc	3 798 31                @ ../Libraries/STM32F4xx_StdPeriph_Driver/src/stm32f4xx_rtc.c:798:31
	strbeq	r0, [r1, #3]
.Ltmp82:
	.loc	3 811 42                @ ../Libraries/STM32F4xx_StdPeriph_Driver/src/stm32f4xx_rtc.c:811:42
	ldrbne	r0, [r1, #3]
.Ltmp83:
	.loc	3 790 9                 @ ../Libraries/STM32F4xx_StdPeriph_Driver/src/stm32f4xx_rtc.c:790:9
	lslne	r0, r0, #16
.Ltmp84:
	.loc	3 809 42                @ ../Libraries/STM32F4xx_StdPeriph_Driver/src/stm32f4xx_rtc.c:809:42
	ldrb	r3, [r1, #1]
.Ltmp85:
	.loc	3 0 0 is_stmt 0         @ ../Libraries/STM32F4xx_StdPeriph_Driver/src/stm32f4xx_rtc.c:0:0
	ldrb	r2, [r1]
.Ltmp86:
	.loc	3 810 41 is_stmt 1      @ ../Libraries/STM32F4xx_StdPeriph_Driver/src/stm32f4xx_rtc.c:810:41
	ldrb	r1, [r1, #2]
.Ltmp87:
	.loc	3 809 55                @ ../Libraries/STM32F4xx_StdPeriph_Driver/src/stm32f4xx_rtc.c:809:55
	lsls	r3, r3, #8
	.loc	3 808 61                @ ../Libraries/STM32F4xx_StdPeriph_Driver/src/stm32f4xx_rtc.c:808:61
	orr.w	r2, r3, r2, lsl #16
	.loc	3 809 61                @ ../Libraries/STM32F4xx_StdPeriph_Driver/src/stm32f4xx_rtc.c:809:61
	add	r1, r2
	.loc	3 810 54                @ ../Libraries/STM32F4xx_StdPeriph_Driver/src/stm32f4xx_rtc.c:810:54
	orr.w	r5, r1, r0
.Ltmp88:
	@DEBUG_VALUE: RTC_SetTime:tmpreg <- $r5
	.loc	3 0 54 is_stmt 0        @ ../Libraries/STM32F4xx_StdPeriph_Driver/src/stm32f4xx_rtc.c:0:54
	b	.LBB9_14
.Ltmp89:
.LBB9_2:
	@DEBUG_VALUE: RTC_SetTime:RTC_TimeStruct <- $r1
	@DEBUG_VALUE: RTC_SetTime:RTC_Format <- $r0
	.loc	3 775 9 is_stmt 1       @ ../Libraries/STM32F4xx_StdPeriph_Driver/src/stm32f4xx_rtc.c:775:9
	cbnz	r2, .LBB9_4
.Ltmp90:
@ %bb.3:
	@DEBUG_VALUE: RTC_SetTime:RTC_TimeStruct <- $r1
	@DEBUG_VALUE: RTC_SetTime:RTC_Format <- $r0
	.loc	3 0 9 is_stmt 0         @ ../Libraries/STM32F4xx_StdPeriph_Driver/src/stm32f4xx_rtc.c:0:9
	movs	r0, #0
.Ltmp91:
	.loc	3 782 31 is_stmt 1      @ ../Libraries/STM32F4xx_StdPeriph_Driver/src/stm32f4xx_rtc.c:782:31
	strb	r0, [r1, #3]
.Ltmp92:
.LBB9_4:
	@DEBUG_VALUE: RTC_SetTime:RTC_TimeStruct <- $r1
	.loc	3 0 0 is_stmt 0         @ ../Libraries/STM32F4xx_StdPeriph_Driver/src/stm32f4xx_rtc.c:0:0
	ldrb	r0, [r1]
.Ltmp93:
	@DEBUG_VALUE: RTC_ByteToBcd2:bcdhigh <- 0
	@DEBUG_VALUE: RTC_ByteToBcd2:Value <- undef
	.loc	3 2728 3 is_stmt 1      @ ../Libraries/STM32F4xx_StdPeriph_Driver/src/stm32f4xx_rtc.c:2728:3
	cmp	r0, #10
	blo	.LBB9_6
.Ltmp94:
@ %bb.5:
	@DEBUG_VALUE: RTC_SetTime:RTC_TimeStruct <- $r1
	.loc	3 0 3 is_stmt 0         @ ../Libraries/STM32F4xx_StdPeriph_Driver/src/stm32f4xx_rtc.c:0:3
	movw	r3, #52429
.Ltmp95:
	.loc	3 2730 12 is_stmt 1     @ ../Libraries/STM32F4xx_StdPeriph_Driver/src/stm32f4xx_rtc.c:2730:12
	subs	r0, #10
	uxtb	r2, r0
	movt	r3, #52428
	umull	r2, r3, r2, r3
	lsrs	r3, r3, #3
	movs	r2, #16
.Ltmp96:
	.loc	3 2734 30               @ ../Libraries/STM32F4xx_StdPeriph_Driver/src/stm32f4xx_rtc.c:2734:30
	add.w	r2, r2, r3, lsl #4
.Ltmp97:
	@DEBUG_VALUE: RTC_ByteToBcd2:bcdhigh <- [DW_OP_plus_uconst 1, DW_OP_stack_value] undef
	@DEBUG_VALUE: RTC_ByteToBcd2:bcdhigh <- undef
	@DEBUG_VALUE: RTC_ByteToBcd2:Value <- undef
	.loc	3 2730 12               @ ../Libraries/STM32F4xx_StdPeriph_Driver/src/stm32f4xx_rtc.c:2730:12
	add.w	r3, r3, r3, lsl #2
	sub.w	r0, r0, r3, lsl #1
	b	.LBB9_7
.Ltmp98:
.LBB9_6:
	@DEBUG_VALUE: RTC_SetTime:RTC_TimeStruct <- $r1
	.loc	3 0 12 is_stmt 0        @ ../Libraries/STM32F4xx_StdPeriph_Driver/src/stm32f4xx_rtc.c:0:12
	movs	r2, #0
.Ltmp99:
.LBB9_7:
	@DEBUG_VALUE: RTC_SetTime:RTC_TimeStruct <- $r1
	@DEBUG_VALUE: RTC_ByteToBcd2:Value <- $r0
	.loc	3 2734 36 is_stmt 1     @ ../Libraries/STM32F4xx_StdPeriph_Driver/src/stm32f4xx_rtc.c:2734:36
	orrs	r0, r2
.Ltmp100:
	.loc	3 816 62                @ ../Libraries/STM32F4xx_StdPeriph_Driver/src/stm32f4xx_rtc.c:816:62
	ldrb	r2, [r1, #1]
.Ltmp101:
	@DEBUG_VALUE: RTC_ByteToBcd2:bcdhigh <- 0
	@DEBUG_VALUE: RTC_ByteToBcd2:Value <- undef
	.loc	3 815 26                @ ../Libraries/STM32F4xx_StdPeriph_Driver/src/stm32f4xx_rtc.c:815:26
	uxtb	r0, r0
	.loc	3 815 78 is_stmt 0      @ ../Libraries/STM32F4xx_StdPeriph_Driver/src/stm32f4xx_rtc.c:815:78
	lsls	r0, r0, #16
.Ltmp102:
	.loc	3 2728 3 is_stmt 1      @ ../Libraries/STM32F4xx_StdPeriph_Driver/src/stm32f4xx_rtc.c:2728:3
	cmp	r2, #10
	blo	.LBB9_9
.Ltmp103:
@ %bb.8:
	@DEBUG_VALUE: RTC_SetTime:RTC_TimeStruct <- $r1
	.loc	3 0 3 is_stmt 0         @ ../Libraries/STM32F4xx_StdPeriph_Driver/src/stm32f4xx_rtc.c:0:3
	movw	r5, #52429
.Ltmp104:
	.loc	3 2730 12 is_stmt 1     @ ../Libraries/STM32F4xx_StdPeriph_Driver/src/stm32f4xx_rtc.c:2730:12
	subs	r2, #10
	uxtb	r3, r2
	movt	r5, #52428
	umull	r3, r5, r3, r5
	lsrs	r5, r5, #3
	movs	r3, #16
.Ltmp105:
	.loc	3 2734 30               @ ../Libraries/STM32F4xx_StdPeriph_Driver/src/stm32f4xx_rtc.c:2734:30
	add.w	r3, r3, r5, lsl #4
.Ltmp106:
	@DEBUG_VALUE: RTC_ByteToBcd2:bcdhigh <- [DW_OP_plus_uconst 1, DW_OP_stack_value] undef
	@DEBUG_VALUE: RTC_ByteToBcd2:bcdhigh <- undef
	@DEBUG_VALUE: RTC_ByteToBcd2:Value <- undef
	.loc	3 2730 12               @ ../Libraries/STM32F4xx_StdPeriph_Driver/src/stm32f4xx_rtc.c:2730:12
	add.w	r5, r5, r5, lsl #2
	sub.w	r2, r2, r5, lsl #1
	b	.LBB9_10
.Ltmp107:
.LBB9_9:
	@DEBUG_VALUE: RTC_SetTime:RTC_TimeStruct <- $r1
	.loc	3 0 12 is_stmt 0        @ ../Libraries/STM32F4xx_StdPeriph_Driver/src/stm32f4xx_rtc.c:0:12
	movs	r3, #0
.Ltmp108:
.LBB9_10:
	@DEBUG_VALUE: RTC_SetTime:RTC_TimeStruct <- $r1
	@DEBUG_VALUE: RTC_ByteToBcd2:Value <- $r2
	.loc	3 2734 36 is_stmt 1     @ ../Libraries/STM32F4xx_StdPeriph_Driver/src/stm32f4xx_rtc.c:2734:36
	orrs	r2, r3
.Ltmp109:
	.loc	3 816 21                @ ../Libraries/STM32F4xx_StdPeriph_Driver/src/stm32f4xx_rtc.c:816:21
	uxtb	r2, r2
	.loc	3 815 85                @ ../Libraries/STM32F4xx_StdPeriph_Driver/src/stm32f4xx_rtc.c:815:85
	orr.w	r0, r0, r2, lsl #8
	.loc	3 817 62                @ ../Libraries/STM32F4xx_StdPeriph_Driver/src/stm32f4xx_rtc.c:817:62
	ldrb	r2, [r1, #2]
.Ltmp110:
	@DEBUG_VALUE: RTC_ByteToBcd2:bcdhigh <- 0
	@DEBUG_VALUE: RTC_ByteToBcd2:Value <- undef
	.loc	3 2728 3                @ ../Libraries/STM32F4xx_StdPeriph_Driver/src/stm32f4xx_rtc.c:2728:3
	cmp	r2, #10
	blo	.LBB9_12
.Ltmp111:
@ %bb.11:
	@DEBUG_VALUE: RTC_SetTime:RTC_TimeStruct <- $r1
	.loc	3 0 3 is_stmt 0         @ ../Libraries/STM32F4xx_StdPeriph_Driver/src/stm32f4xx_rtc.c:0:3
	movw	r5, #52429
.Ltmp112:
	.loc	3 2730 12 is_stmt 1     @ ../Libraries/STM32F4xx_StdPeriph_Driver/src/stm32f4xx_rtc.c:2730:12
	subs	r2, #10
	uxtb	r3, r2
	movt	r5, #52428
	umull	r3, r5, r3, r5
	lsrs	r5, r5, #3
	movs	r3, #16
.Ltmp113:
	.loc	3 2734 30               @ ../Libraries/STM32F4xx_StdPeriph_Driver/src/stm32f4xx_rtc.c:2734:30
	add.w	r3, r3, r5, lsl #4
.Ltmp114:
	@DEBUG_VALUE: RTC_ByteToBcd2:bcdhigh <- [DW_OP_plus_uconst 1, DW_OP_stack_value] undef
	@DEBUG_VALUE: RTC_ByteToBcd2:bcdhigh <- undef
	@DEBUG_VALUE: RTC_ByteToBcd2:Value <- undef
	.loc	3 2730 12               @ ../Libraries/STM32F4xx_StdPeriph_Driver/src/stm32f4xx_rtc.c:2730:12
	add.w	r5, r5, r5, lsl #2
	sub.w	r2, r2, r5, lsl #1
	b	.LBB9_13
.Ltmp115:
.LBB9_12:
	@DEBUG_VALUE: RTC_SetTime:RTC_TimeStruct <- $r1
	.loc	3 0 12 is_stmt 0        @ ../Libraries/STM32F4xx_StdPeriph_Driver/src/stm32f4xx_rtc.c:0:12
	movs	r3, #0
.Ltmp116:
.LBB9_13:
	@DEBUG_VALUE: RTC_SetTime:RTC_TimeStruct <- $r1
	@DEBUG_VALUE: RTC_ByteToBcd2:Value <- $r2
	.loc	3 2734 36 is_stmt 1     @ ../Libraries/STM32F4xx_StdPeriph_Driver/src/stm32f4xx_rtc.c:2734:36
	orrs	r2, r3
.Ltmp117:
	.loc	3 818 48                @ ../Libraries/STM32F4xx_StdPeriph_Driver/src/stm32f4xx_rtc.c:818:48
	ldrb	r1, [r1, #3]
.Ltmp118:
	.loc	3 817 21                @ ../Libraries/STM32F4xx_StdPeriph_Driver/src/stm32f4xx_rtc.c:817:21
	uxtb	r2, r2
	.loc	3 816 81                @ ../Libraries/STM32F4xx_StdPeriph_Driver/src/stm32f4xx_rtc.c:816:81
	orrs	r0, r2
	.loc	3 817 76                @ ../Libraries/STM32F4xx_StdPeriph_Driver/src/stm32f4xx_rtc.c:817:76
	orr.w	r5, r0, r1, lsl #16
.Ltmp119:
	@DEBUG_VALUE: RTC_SetTime:tmpreg <- $r5
.LBB9_14:
	@DEBUG_VALUE: RTC_SetTime:tmpreg <- $r5
	@DEBUG_VALUE: RTC_SetTime:tmpreg <- $r5
	.loc	3 0 76 is_stmt 0        @ ../Libraries/STM32F4xx_StdPeriph_Driver/src/stm32f4xx_rtc.c:0:76
	movs	r0, #202
	.loc	3 822 12 is_stmt 1      @ ../Libraries/STM32F4xx_StdPeriph_Driver/src/stm32f4xx_rtc.c:822:12
	str	r0, [r4, #36]
	movs	r0, #83
	.loc	3 823 12                @ ../Libraries/STM32F4xx_StdPeriph_Driver/src/stm32f4xx_rtc.c:823:12
	str	r0, [r4, #36]
.Ltmp120:
	.loc	3 826 7                 @ ../Libraries/STM32F4xx_StdPeriph_Driver/src/stm32f4xx_rtc.c:826:7
	bl	RTC_EnterInitMode
.Ltmp121:
	.loc	3 826 7 is_stmt 0       @ ../Libraries/STM32F4xx_StdPeriph_Driver/src/stm32f4xx_rtc.c:826:7
	cbz	r0, .LBB9_17
.Ltmp122:
@ %bb.15:
	@DEBUG_VALUE: RTC_SetTime:tmpreg <- $r5
	.loc	3 0 7                   @ ../Libraries/STM32F4xx_StdPeriph_Driver/src/stm32f4xx_rtc.c:0:7
	movw	r0, #32639
	movt	r0, #127
.Ltmp123:
	.loc	3 833 33 is_stmt 1      @ ../Libraries/STM32F4xx_StdPeriph_Driver/src/stm32f4xx_rtc.c:833:33
	ands	r0, r5
	.loc	3 833 13 is_stmt 0      @ ../Libraries/STM32F4xx_StdPeriph_Driver/src/stm32f4xx_rtc.c:833:13
	str	r0, [r4]
.Ltmp124:
	.loc	3 600 12 is_stmt 1      @ ../Libraries/STM32F4xx_StdPeriph_Driver/src/stm32f4xx_rtc.c:600:12
	ldr	r0, [r4, #12]
	bic	r0, r0, #128
	str	r0, [r4, #12]
.Ltmp125:
	.loc	3 839 15                @ ../Libraries/STM32F4xx_StdPeriph_Driver/src/stm32f4xx_rtc.c:839:15
	ldr	r0, [r4, #8]
.Ltmp126:
	.loc	3 839 9 is_stmt 0       @ ../Libraries/STM32F4xx_StdPeriph_Driver/src/stm32f4xx_rtc.c:839:9
	lsls	r0, r0, #26
	bmi	.LBB9_18
.Ltmp127:
@ %bb.16:
	@DEBUG_VALUE: RTC_SetTime:tmpreg <- $r5
	.loc	3 841 8 is_stmt 1       @ ../Libraries/STM32F4xx_StdPeriph_Driver/src/stm32f4xx_rtc.c:841:8
	bl	RTC_WaitForSynchro
	.loc	3 841 29 is_stmt 0      @ ../Libraries/STM32F4xx_StdPeriph_Driver/src/stm32f4xx_rtc.c:841:29
	cmp	r0, #0
	it	ne
	movne	r0, #1
	b	.LBB9_19
.Ltmp128:
.LBB9_17:
	@DEBUG_VALUE: RTC_SetTime:tmpreg <- $r5
	.loc	3 0 29                  @ ../Libraries/STM32F4xx_StdPeriph_Driver/src/stm32f4xx_rtc.c:0:29
	movs	r0, #0
	b	.LBB9_19
.Ltmp129:
.LBB9_18:
	@DEBUG_VALUE: RTC_SetTime:tmpreg <- $r5
	movs	r0, #1
.Ltmp130:
.LBB9_19:
	@DEBUG_VALUE: RTC_SetTime:tmpreg <- $r5
	@DEBUG_VALUE: RTC_SetTime:status <- $r0
	movs	r1, #255
	.loc	3 856 12 is_stmt 1      @ ../Libraries/STM32F4xx_StdPeriph_Driver/src/stm32f4xx_rtc.c:856:12
	str	r1, [r4, #36]
	.loc	3 858 3                 @ ../Libraries/STM32F4xx_StdPeriph_Driver/src/stm32f4xx_rtc.c:858:3
	pop	{r4, r5, r7, pc}
.Ltmp131:
.Lfunc_end9:
	.size	RTC_SetTime, .Lfunc_end9-RTC_SetTime
	.cfi_endproc
	.cantunwind
	.fnend
                                        @ -- End function
	.section	.text.RTC_TimeStructInit,"ax",%progbits
	.hidden	RTC_TimeStructInit      @ -- Begin function RTC_TimeStructInit
	.globl	RTC_TimeStructInit
	.p2align	1
	.type	RTC_TimeStructInit,%function
	.code	16                      @ @RTC_TimeStructInit
	.thumb_func
RTC_TimeStructInit:
.Lfunc_begin10:
	.loc	3 869 0                 @ ../Libraries/STM32F4xx_StdPeriph_Driver/src/stm32f4xx_rtc.c:869:0
	.fnstart
	.cfi_startproc
@ %bb.0:
	@DEBUG_VALUE: RTC_TimeStructInit:RTC_TimeStruct <- $r0
	movs	r1, #0
	@DEBUG_VALUE: RTC_TimeStructInit:RTC_TimeStruct <- $r0
.Ltmp132:
	.loc	3 872 29 prologue_end   @ ../Libraries/STM32F4xx_StdPeriph_Driver/src/stm32f4xx_rtc.c:872:29
	str	r1, [r0]
	.loc	3 875 1                 @ ../Libraries/STM32F4xx_StdPeriph_Driver/src/stm32f4xx_rtc.c:875:1
	bx	lr
.Ltmp133:
.Lfunc_end10:
	.size	RTC_TimeStructInit, .Lfunc_end10-RTC_TimeStructInit
	.cfi_endproc
	.cantunwind
	.fnend
                                        @ -- End function
	.section	.text.RTC_GetTime,"ax",%progbits
	.hidden	RTC_GetTime             @ -- Begin function RTC_GetTime
	.globl	RTC_GetTime
	.p2align	1
	.type	RTC_GetTime,%function
	.code	16                      @ @RTC_GetTime
	.thumb_func
RTC_GetTime:
.Lfunc_begin11:
	.loc	3 888 0                 @ ../Libraries/STM32F4xx_StdPeriph_Driver/src/stm32f4xx_rtc.c:888:0
	.fnstart
	.cfi_startproc
@ %bb.0:
	.save	{r4, lr}
	push	{r4, lr}
	.cfi_def_cfa_offset 8
	.cfi_offset lr, -4
	.cfi_offset r4, -8
	@DEBUG_VALUE: RTC_GetTime:RTC_Format <- $r0
	@DEBUG_VALUE: RTC_GetTime:RTC_TimeStruct <- $r1
	movw	r2, #10240
.Ltmp134:
	.loc	3 904 7 prologue_end    @ ../Libraries/STM32F4xx_StdPeriph_Driver/src/stm32f4xx_rtc.c:904:7
	cmp	r0, #0
	movt	r2, #16384
.Ltmp135:
	@DEBUG_VALUE: RTC_GetTime:tmpreg <- 0
	@DEBUG_VALUE: RTC_GetTime:RTC_TimeStruct <- $r1
	@DEBUG_VALUE: RTC_GetTime:RTC_Format <- $r0
	.loc	3 895 28                @ ../Libraries/STM32F4xx_StdPeriph_Driver/src/stm32f4xx_rtc.c:895:28
	ldr	r3, [r2]
.Ltmp136:
	@DEBUG_VALUE: RTC_GetTime:tmpreg <- [DW_OP_constu 8355711, DW_OP_and, DW_OP_stack_value] $r3
	.loc	3 0 28 is_stmt 0        @ ../Libraries/STM32F4xx_StdPeriph_Driver/src/stm32f4xx_rtc.c:0:28
	mov.w	r2, #64
	.loc	3 901 29 is_stmt 1      @ ../Libraries/STM32F4xx_StdPeriph_Driver/src/stm32f4xx_rtc.c:901:29
	and.w	r2, r2, r3, lsr #16
	.loc	3 901 27 is_stmt 0      @ ../Libraries/STM32F4xx_StdPeriph_Driver/src/stm32f4xx_rtc.c:901:27
	strb	r2, [r1, #3]
	.loc	3 900 33 is_stmt 1      @ ../Libraries/STM32F4xx_StdPeriph_Driver/src/stm32f4xx_rtc.c:900:33
	and	r2, r3, #127
.Ltmp137:
	@DEBUG_VALUE: RTC_Bcd2ToByte:Value <- $r2
	.loc	3 900 31 is_stmt 0      @ ../Libraries/STM32F4xx_StdPeriph_Driver/src/stm32f4xx_rtc.c:900:31
	strb	r2, [r1, #2]
	.loc	3 899 33 is_stmt 1      @ ../Libraries/STM32F4xx_StdPeriph_Driver/src/stm32f4xx_rtc.c:899:33
	ubfx	lr, r3, #8, #7
.Ltmp138:
	@DEBUG_VALUE: RTC_Bcd2ToByte:Value <- $lr
	.loc	3 899 31 is_stmt 0      @ ../Libraries/STM32F4xx_StdPeriph_Driver/src/stm32f4xx_rtc.c:899:31
	strb.w	lr, [r1, #1]
	.loc	3 898 31 is_stmt 1      @ ../Libraries/STM32F4xx_StdPeriph_Driver/src/stm32f4xx_rtc.c:898:31
	ubfx	r12, r3, #16, #6
.Ltmp139:
	@DEBUG_VALUE: RTC_Bcd2ToByte:Value <- $r12
	.loc	3 898 29 is_stmt 0      @ ../Libraries/STM32F4xx_StdPeriph_Driver/src/stm32f4xx_rtc.c:898:29
	strb.w	r12, [r1]
	.loc	3 904 7 is_stmt 1       @ ../Libraries/STM32F4xx_StdPeriph_Driver/src/stm32f4xx_rtc.c:904:7
	beq	.LBB11_2
.Ltmp140:
@ %bb.1:
	@DEBUG_VALUE: RTC_GetTime:tmpreg <- [DW_OP_constu 8355711, DW_OP_and, DW_OP_stack_value] $r3
	@DEBUG_VALUE: RTC_GetTime:RTC_TimeStruct <- $r1
	@DEBUG_VALUE: RTC_GetTime:RTC_Format <- $r0
	.loc	3 911 1                 @ ../Libraries/STM32F4xx_StdPeriph_Driver/src/stm32f4xx_rtc.c:911:1
	pop	{r4, pc}
.Ltmp141:
.LBB11_2:
	@DEBUG_VALUE: RTC_Bcd2ToByte:Value <- $r12
	@DEBUG_VALUE: RTC_Bcd2ToByte:Value <- $lr
	@DEBUG_VALUE: RTC_Bcd2ToByte:Value <- $r2
	@DEBUG_VALUE: RTC_GetTime:tmpreg <- [DW_OP_constu 8355711, DW_OP_and, DW_OP_stack_value] $r3
	@DEBUG_VALUE: RTC_GetTime:RTC_TimeStruct <- $r1
	@DEBUG_VALUE: RTC_GetTime:RTC_Format <- $r0
	.loc	3 2745 43               @ ../Libraries/STM32F4xx_StdPeriph_Driver/src/stm32f4xx_rtc.c:2745:43
	lsrs	r2, r2, #4
.Ltmp142:
	.loc	3 0 0 is_stmt 0         @ ../Libraries/STM32F4xx_StdPeriph_Driver/src/stm32f4xx_rtc.c:0:0
	lsrs	r0, r3, #8
.Ltmp143:
	lsrs	r4, r3, #16
.Ltmp144:
	@DEBUG_VALUE: RTC_Bcd2ToByte:tmp <- undef
	@DEBUG_VALUE: RTC_Bcd2ToByte:tmp <- 0
	.loc	3 2746 24 is_stmt 1     @ ../Libraries/STM32F4xx_StdPeriph_Driver/src/stm32f4xx_rtc.c:2746:24
	and	r3, r3, #15
.Ltmp145:
	@DEBUG_VALUE: RTC_Bcd2ToByte:tmp <- 0
	.loc	3 2745 60               @ ../Libraries/STM32F4xx_StdPeriph_Driver/src/stm32f4xx_rtc.c:2745:60
	add.w	r2, r2, r2, lsl #2
.Ltmp146:
	.loc	3 2746 24               @ ../Libraries/STM32F4xx_StdPeriph_Driver/src/stm32f4xx_rtc.c:2746:24
	and	r0, r0, #15
.Ltmp147:
	@DEBUG_VALUE: RTC_Bcd2ToByte:tmp <- 0
	.loc	3 2746 15 is_stmt 0     @ ../Libraries/STM32F4xx_StdPeriph_Driver/src/stm32f4xx_rtc.c:2746:15
	add.w	r2, r3, r2, lsl #1
.Ltmp148:
	.loc	3 909 33 is_stmt 1      @ ../Libraries/STM32F4xx_StdPeriph_Driver/src/stm32f4xx_rtc.c:909:33
	strb	r2, [r1, #2]
.Ltmp149:
	@DEBUG_VALUE: RTC_Bcd2ToByte:tmp <- undef
	.loc	3 2745 43               @ ../Libraries/STM32F4xx_StdPeriph_Driver/src/stm32f4xx_rtc.c:2745:43
	lsr.w	r2, lr, #4
	.loc	3 2745 60 is_stmt 0     @ ../Libraries/STM32F4xx_StdPeriph_Driver/src/stm32f4xx_rtc.c:2745:60
	add.w	r2, r2, r2, lsl #2
	.loc	3 2746 15 is_stmt 1     @ ../Libraries/STM32F4xx_StdPeriph_Driver/src/stm32f4xx_rtc.c:2746:15
	add.w	r0, r0, r2, lsl #1
.Ltmp150:
	.loc	3 2745 43               @ ../Libraries/STM32F4xx_StdPeriph_Driver/src/stm32f4xx_rtc.c:2745:43
	lsr.w	r2, r12, #4
.Ltmp151:
	.loc	3 908 33                @ ../Libraries/STM32F4xx_StdPeriph_Driver/src/stm32f4xx_rtc.c:908:33
	strb	r0, [r1, #1]
.Ltmp152:
	@DEBUG_VALUE: RTC_Bcd2ToByte:tmp <- undef
	.loc	3 2746 24               @ ../Libraries/STM32F4xx_StdPeriph_Driver/src/stm32f4xx_rtc.c:2746:24
	and	r0, r4, #15
	.loc	3 2745 60               @ ../Libraries/STM32F4xx_StdPeriph_Driver/src/stm32f4xx_rtc.c:2745:60
	orr.w	r2, r2, r2, lsl #2
	.loc	3 2746 15               @ ../Libraries/STM32F4xx_StdPeriph_Driver/src/stm32f4xx_rtc.c:2746:15
	add.w	r0, r0, r2, lsl #1
.Ltmp153:
	.loc	3 907 31                @ ../Libraries/STM32F4xx_StdPeriph_Driver/src/stm32f4xx_rtc.c:907:31
	strb	r0, [r1]
.Ltmp154:
	.loc	3 911 1                 @ ../Libraries/STM32F4xx_StdPeriph_Driver/src/stm32f4xx_rtc.c:911:1
	pop	{r4, pc}
.Ltmp155:
.Lfunc_end11:
	.size	RTC_GetTime, .Lfunc_end11-RTC_GetTime
	.cfi_endproc
	.cantunwind
	.fnend
                                        @ -- End function
	.section	.text.RTC_GetSubSecond,"ax",%progbits
	.hidden	RTC_GetSubSecond        @ -- Begin function RTC_GetSubSecond
	.globl	RTC_GetSubSecond
	.p2align	1
	.type	RTC_GetSubSecond,%function
	.code	16                      @ @RTC_GetSubSecond
	.thumb_func
RTC_GetSubSecond:
.Lfunc_begin12:
	.loc	3 921 0                 @ ../Libraries/STM32F4xx_StdPeriph_Driver/src/stm32f4xx_rtc.c:921:0
	.fnstart
	.cfi_startproc
@ %bb.0:
	movw	r1, #10244
	movt	r1, #16384
.Ltmp156:
	@DEBUG_VALUE: RTC_GetSubSecond:tmpreg <- 0
	.loc	3 925 28 prologue_end   @ ../Libraries/STM32F4xx_StdPeriph_Driver/src/stm32f4xx_rtc.c:925:28
	ldr	r0, [r1, #36]
.Ltmp157:
	@DEBUG_VALUE: RTC_GetSubSecond:tmpreg <- $r0
	.loc	3 928 16                @ ../Libraries/STM32F4xx_StdPeriph_Driver/src/stm32f4xx_rtc.c:928:16
	ldr	r1, [r1]
	.loc	3 930 3                 @ ../Libraries/STM32F4xx_StdPeriph_Driver/src/stm32f4xx_rtc.c:930:3
	bx	lr
.Ltmp158:
.Lfunc_end12:
	.size	RTC_GetSubSecond, .Lfunc_end12-RTC_GetSubSecond
	.cfi_endproc
	.cantunwind
	.fnend
                                        @ -- End function
	.section	.text.RTC_SetDate,"ax",%progbits
	.hidden	RTC_SetDate             @ -- Begin function RTC_SetDate
	.globl	RTC_SetDate
	.p2align	1
	.type	RTC_SetDate,%function
	.code	16                      @ @RTC_SetDate
	.thumb_func
RTC_SetDate:
.Lfunc_begin13:
	.loc	3 946 0                 @ ../Libraries/STM32F4xx_StdPeriph_Driver/src/stm32f4xx_rtc.c:946:0
	.fnstart
	.cfi_startproc
@ %bb.0:
	.save	{r4, r5, r6, r7, lr}
	push	{r4, r5, r6, r7, lr}
	.cfi_def_cfa_offset 20
	.cfi_offset lr, -4
	.cfi_offset r7, -8
	.cfi_offset r6, -12
	.cfi_offset r5, -16
	.cfi_offset r4, -20
	.pad	#4
	sub	sp, #4
	.cfi_def_cfa_offset 24
	@DEBUG_VALUE: RTC_SetDate:RTC_Format <- $r0
	@DEBUG_VALUE: RTC_SetDate:RTC_Format <- $r0
	@DEBUG_VALUE: RTC_SetDate:RTC_DateStruct <- $r1
	@DEBUG_VALUE: RTC_SetDate:RTC_DateStruct <- $r1
.Ltmp159:
	@DEBUG_VALUE: RTC_SetDate:tmpreg <- 0
	@DEBUG_VALUE: RTC_SetDate:status <- 0
	.loc	3 0 0 prologue_end      @ ../Libraries/STM32F4xx_StdPeriph_Driver/src/stm32f4xx_rtc.c:0:0
	ldrb	r2, [r1, #1]
.Ltmp160:
	.loc	3 953 38                @ ../Libraries/STM32F4xx_StdPeriph_Driver/src/stm32f4xx_rtc.c:953:38
	cbz	r0, .LBB13_2
.Ltmp161:
@ %bb.1:
	@DEBUG_VALUE: RTC_SetDate:RTC_DateStruct <- $r1
	@DEBUG_VALUE: RTC_SetDate:RTC_Format <- $r0
	@DEBUG_VALUE: RTC_SetDate:tmpreg <- undef
	.loc	3 0 0 is_stmt 0         @ ../Libraries/STM32F4xx_StdPeriph_Driver/src/stm32f4xx_rtc.c:0:0
	ldrb	r0, [r1, #3]
.Ltmp162:
	.loc	3 978 42 is_stmt 1      @ ../Libraries/STM32F4xx_StdPeriph_Driver/src/stm32f4xx_rtc.c:978:42
	ldrb	r6, [r1, #2]
	.loc	3 976 53                @ ../Libraries/STM32F4xx_StdPeriph_Driver/src/stm32f4xx_rtc.c:976:53
	lsls	r0, r0, #16
	.loc	3 976 60 is_stmt 0      @ ../Libraries/STM32F4xx_StdPeriph_Driver/src/stm32f4xx_rtc.c:976:60
	orr.w	r4, r0, r2, lsl #8
	b	.LBB13_12
.Ltmp163:
.LBB13_2:
	@DEBUG_VALUE: RTC_SetDate:RTC_DateStruct <- $r1
	@DEBUG_VALUE: RTC_SetDate:RTC_Format <- $r0
	.loc	3 953 7 is_stmt 1       @ ../Libraries/STM32F4xx_StdPeriph_Driver/src/stm32f4xx_rtc.c:953:7
	lsls	r0, r2, #27
.Ltmp164:
	.loc	3 955 60                @ ../Libraries/STM32F4xx_StdPeriph_Driver/src/stm32f4xx_rtc.c:955:60
	ittt	mi
	andmi	r0, r2, #239
	.loc	3 955 81 is_stmt 0      @ ../Libraries/STM32F4xx_StdPeriph_Driver/src/stm32f4xx_rtc.c:955:81
	addmi.w	r2, r0, #10
	.loc	3 955 31                @ ../Libraries/STM32F4xx_StdPeriph_Driver/src/stm32f4xx_rtc.c:955:31
	strbmi	r2, [r1, #1]
.Ltmp165:
	@DEBUG_VALUE: RTC_ByteToBcd2:Value <- $r2
	.loc	3 0 0                   @ ../Libraries/STM32F4xx_StdPeriph_Driver/src/stm32f4xx_rtc.c:0:0
	ldrb	r0, [r1, #3]
.Ltmp166:
	@DEBUG_VALUE: RTC_ByteToBcd2:bcdhigh <- 0
	@DEBUG_VALUE: RTC_ByteToBcd2:Value <- undef
	.loc	3 2728 3 is_stmt 1      @ ../Libraries/STM32F4xx_StdPeriph_Driver/src/stm32f4xx_rtc.c:2728:3
	cmp	r0, #10
	blo	.LBB13_4
.Ltmp167:
@ %bb.3:
	@DEBUG_VALUE: RTC_SetDate:RTC_DateStruct <- $r1
	.loc	3 0 3 is_stmt 0         @ ../Libraries/STM32F4xx_StdPeriph_Driver/src/stm32f4xx_rtc.c:0:3
	movw	r7, #52429
.Ltmp168:
	.loc	3 2730 12 is_stmt 1     @ ../Libraries/STM32F4xx_StdPeriph_Driver/src/stm32f4xx_rtc.c:2730:12
	subs	r0, #10
	uxtb	r3, r0
	movt	r7, #52428
	umull	r3, r7, r3, r7
	lsrs	r7, r7, #3
	movs	r3, #16
.Ltmp169:
	.loc	3 2734 30               @ ../Libraries/STM32F4xx_StdPeriph_Driver/src/stm32f4xx_rtc.c:2734:30
	add.w	r3, r3, r7, lsl #4
.Ltmp170:
	@DEBUG_VALUE: RTC_ByteToBcd2:bcdhigh <- [DW_OP_plus_uconst 1, DW_OP_stack_value] undef
	@DEBUG_VALUE: RTC_ByteToBcd2:bcdhigh <- undef
	@DEBUG_VALUE: RTC_ByteToBcd2:Value <- undef
	.loc	3 2730 12               @ ../Libraries/STM32F4xx_StdPeriph_Driver/src/stm32f4xx_rtc.c:2730:12
	add.w	r7, r7, r7, lsl #2
	sub.w	r0, r0, r7, lsl #1
	b	.LBB13_5
.Ltmp171:
.LBB13_4:
	@DEBUG_VALUE: RTC_ByteToBcd2:Value <- $r2
	@DEBUG_VALUE: RTC_SetDate:RTC_DateStruct <- $r1
	.loc	3 0 12 is_stmt 0        @ ../Libraries/STM32F4xx_StdPeriph_Driver/src/stm32f4xx_rtc.c:0:12
	movs	r3, #0
.Ltmp172:
.LBB13_5:
	@DEBUG_VALUE: RTC_SetDate:RTC_DateStruct <- $r1
	@DEBUG_VALUE: RTC_ByteToBcd2:Value <- $r0
	.loc	3 2734 36 is_stmt 1     @ ../Libraries/STM32F4xx_StdPeriph_Driver/src/stm32f4xx_rtc.c:2734:36
	orrs	r0, r3
.Ltmp173:
	.loc	3 2728 16               @ ../Libraries/STM32F4xx_StdPeriph_Driver/src/stm32f4xx_rtc.c:2728:16
	uxtb	r3, r2
.Ltmp174:
	.loc	3 983 16                @ ../Libraries/STM32F4xx_StdPeriph_Driver/src/stm32f4xx_rtc.c:983:16
	uxtb	r0, r0
.Ltmp175:
	.loc	3 2728 3                @ ../Libraries/STM32F4xx_StdPeriph_Driver/src/stm32f4xx_rtc.c:2728:3
	cmp	r3, #10
.Ltmp176:
	.loc	3 983 67                @ ../Libraries/STM32F4xx_StdPeriph_Driver/src/stm32f4xx_rtc.c:983:67
	lsl.w	r0, r0, #16
.Ltmp177:
	@DEBUG_VALUE: RTC_ByteToBcd2:bcdhigh <- 0
	.loc	3 2728 3                @ ../Libraries/STM32F4xx_StdPeriph_Driver/src/stm32f4xx_rtc.c:2728:3
	blo	.LBB13_7
.Ltmp178:
@ %bb.6:
	@DEBUG_VALUE: RTC_SetDate:RTC_DateStruct <- $r1
	.loc	3 0 3 is_stmt 0         @ ../Libraries/STM32F4xx_StdPeriph_Driver/src/stm32f4xx_rtc.c:0:3
	movw	r7, #52429
.Ltmp179:
	.loc	3 2730 12 is_stmt 1     @ ../Libraries/STM32F4xx_StdPeriph_Driver/src/stm32f4xx_rtc.c:2730:12
	subs	r2, #10
	uxtb	r3, r2
	movt	r7, #52428
	umull	r3, r7, r3, r7
	lsrs	r7, r7, #3
	movs	r3, #16
.Ltmp180:
	.loc	3 2734 30               @ ../Libraries/STM32F4xx_StdPeriph_Driver/src/stm32f4xx_rtc.c:2734:30
	add.w	r3, r3, r7, lsl #4
.Ltmp181:
	@DEBUG_VALUE: RTC_ByteToBcd2:bcdhigh <- [DW_OP_plus_uconst 1, DW_OP_stack_value] undef
	@DEBUG_VALUE: RTC_ByteToBcd2:bcdhigh <- undef
	@DEBUG_VALUE: RTC_ByteToBcd2:Value <- undef
	.loc	3 2730 12               @ ../Libraries/STM32F4xx_StdPeriph_Driver/src/stm32f4xx_rtc.c:2730:12
	add.w	r7, r7, r7, lsl #2
	sub.w	r2, r2, r7, lsl #1
	b	.LBB13_8
.Ltmp182:
.LBB13_7:
	@DEBUG_VALUE: RTC_SetDate:RTC_DateStruct <- $r1
	.loc	3 0 12 is_stmt 0        @ ../Libraries/STM32F4xx_StdPeriph_Driver/src/stm32f4xx_rtc.c:0:12
	movs	r3, #0
.Ltmp183:
.LBB13_8:
	@DEBUG_VALUE: RTC_SetDate:RTC_DateStruct <- $r1
	@DEBUG_VALUE: RTC_ByteToBcd2:Value <- $r2
	.loc	3 2734 36 is_stmt 1     @ ../Libraries/STM32F4xx_StdPeriph_Driver/src/stm32f4xx_rtc.c:2734:36
	orrs	r2, r3
.Ltmp184:
	.loc	3 984 16                @ ../Libraries/STM32F4xx_StdPeriph_Driver/src/stm32f4xx_rtc.c:984:16
	uxtb	r2, r2
	.loc	3 983 74                @ ../Libraries/STM32F4xx_StdPeriph_Driver/src/stm32f4xx_rtc.c:983:74
	orr.w	r4, r0, r2, lsl #8
	.loc	3 985 57                @ ../Libraries/STM32F4xx_StdPeriph_Driver/src/stm32f4xx_rtc.c:985:57
	ldrb	r0, [r1, #2]
.Ltmp185:
	@DEBUG_VALUE: RTC_ByteToBcd2:bcdhigh <- 0
	@DEBUG_VALUE: RTC_ByteToBcd2:Value <- undef
	.loc	3 2728 3                @ ../Libraries/STM32F4xx_StdPeriph_Driver/src/stm32f4xx_rtc.c:2728:3
	cmp	r0, #10
	blo	.LBB13_10
.Ltmp186:
@ %bb.9:
	@DEBUG_VALUE: RTC_SetDate:RTC_DateStruct <- $r1
	.loc	3 0 3 is_stmt 0         @ ../Libraries/STM32F4xx_StdPeriph_Driver/src/stm32f4xx_rtc.c:0:3
	movw	r3, #52429
.Ltmp187:
	.loc	3 2730 12 is_stmt 1     @ ../Libraries/STM32F4xx_StdPeriph_Driver/src/stm32f4xx_rtc.c:2730:12
	subs	r0, #10
	uxtb	r2, r0
	movt	r3, #52428
	umull	r2, r3, r2, r3
	lsrs	r3, r3, #3
	movs	r2, #16
.Ltmp188:
	.loc	3 2734 30               @ ../Libraries/STM32F4xx_StdPeriph_Driver/src/stm32f4xx_rtc.c:2734:30
	add.w	r2, r2, r3, lsl #4
.Ltmp189:
	@DEBUG_VALUE: RTC_ByteToBcd2:bcdhigh <- [DW_OP_plus_uconst 1, DW_OP_stack_value] undef
	@DEBUG_VALUE: RTC_ByteToBcd2:bcdhigh <- undef
	@DEBUG_VALUE: RTC_ByteToBcd2:Value <- undef
	.loc	3 2730 12               @ ../Libraries/STM32F4xx_StdPeriph_Driver/src/stm32f4xx_rtc.c:2730:12
	add.w	r3, r3, r3, lsl #2
	sub.w	r0, r0, r3, lsl #1
	b	.LBB13_11
.Ltmp190:
.LBB13_10:
	@DEBUG_VALUE: RTC_SetDate:RTC_DateStruct <- $r1
	.loc	3 0 12 is_stmt 0        @ ../Libraries/STM32F4xx_StdPeriph_Driver/src/stm32f4xx_rtc.c:0:12
	movs	r2, #0
.Ltmp191:
.LBB13_11:
	@DEBUG_VALUE: RTC_SetDate:RTC_DateStruct <- $r1
	@DEBUG_VALUE: RTC_ByteToBcd2:Value <- $r0
	.loc	3 2734 36 is_stmt 1     @ ../Libraries/STM32F4xx_StdPeriph_Driver/src/stm32f4xx_rtc.c:2734:36
	orr.w	r6, r2, r0
.Ltmp192:
.LBB13_12:
	@DEBUG_VALUE: RTC_SetDate:RTC_DateStruct <- $r1
	.loc	3 0 36 is_stmt 0        @ ../Libraries/STM32F4xx_StdPeriph_Driver/src/stm32f4xx_rtc.c:0:36
	movw	r5, #10244
	movs	r0, #202
	ldrb	r7, [r1]
	movt	r5, #16384
.Ltmp193:
	.loc	3 990 12 is_stmt 1      @ ../Libraries/STM32F4xx_StdPeriph_Driver/src/stm32f4xx_rtc.c:990:12
	str	r0, [r5, #32]
	movs	r0, #83
	.loc	3 991 12                @ ../Libraries/STM32F4xx_StdPeriph_Driver/src/stm32f4xx_rtc.c:991:12
	str	r0, [r5, #32]
.Ltmp194:
	.loc	3 994 7                 @ ../Libraries/STM32F4xx_StdPeriph_Driver/src/stm32f4xx_rtc.c:994:7
	bl	RTC_EnterInitMode
.Ltmp195:
	.loc	3 994 7 is_stmt 0       @ ../Libraries/STM32F4xx_StdPeriph_Driver/src/stm32f4xx_rtc.c:994:7
	cbz	r0, .LBB13_15
@ %bb.13:
.Ltmp196:
	.loc	3 0 0                   @ ../Libraries/STM32F4xx_StdPeriph_Driver/src/stm32f4xx_rtc.c:0:0
	uxtb	r0, r6
	orrs	r0, r4
.Ltmp197:
	.loc	3 1001 33 is_stmt 1     @ ../Libraries/STM32F4xx_StdPeriph_Driver/src/stm32f4xx_rtc.c:1001:33
	bic	r0, r0, #192
	orr.w	r0, r0, r7, lsl #13
	.loc	3 1001 13 is_stmt 0     @ ../Libraries/STM32F4xx_StdPeriph_Driver/src/stm32f4xx_rtc.c:1001:13
	str	r0, [r5]
.Ltmp198:
	.loc	3 600 12 is_stmt 1      @ ../Libraries/STM32F4xx_StdPeriph_Driver/src/stm32f4xx_rtc.c:600:12
	ldr	r0, [r5, #8]
	bic	r0, r0, #128
	str	r0, [r5, #8]
.Ltmp199:
	.loc	3 1007 15               @ ../Libraries/STM32F4xx_StdPeriph_Driver/src/stm32f4xx_rtc.c:1007:15
	ldr	r0, [r5, #4]
.Ltmp200:
	.loc	3 1007 9 is_stmt 0      @ ../Libraries/STM32F4xx_StdPeriph_Driver/src/stm32f4xx_rtc.c:1007:9
	lsls	r0, r0, #26
	bmi	.LBB13_16
@ %bb.14:
.Ltmp201:
	.loc	3 1009 8 is_stmt 1      @ ../Libraries/STM32F4xx_StdPeriph_Driver/src/stm32f4xx_rtc.c:1009:8
	bl	RTC_WaitForSynchro
	.loc	3 1009 29 is_stmt 0     @ ../Libraries/STM32F4xx_StdPeriph_Driver/src/stm32f4xx_rtc.c:1009:29
	cmp	r0, #0
	it	ne
	movne	r0, #1
	b	.LBB13_17
.Ltmp202:
.LBB13_15:
	.loc	3 0 29                  @ ../Libraries/STM32F4xx_StdPeriph_Driver/src/stm32f4xx_rtc.c:0:29
	movs	r0, #0
	b	.LBB13_17
.LBB13_16:
	movs	r0, #1
.LBB13_17:
.Ltmp203:
	@DEBUG_VALUE: RTC_SetDate:status <- $r0
	movs	r1, #255
	.loc	3 1024 12 is_stmt 1     @ ../Libraries/STM32F4xx_StdPeriph_Driver/src/stm32f4xx_rtc.c:1024:12
	str	r1, [r5, #32]
	.loc	3 1026 3                @ ../Libraries/STM32F4xx_StdPeriph_Driver/src/stm32f4xx_rtc.c:1026:3
	add	sp, #4
	pop	{r4, r5, r6, r7, pc}
.Ltmp204:
.Lfunc_end13:
	.size	RTC_SetDate, .Lfunc_end13-RTC_SetDate
	.cfi_endproc
	.cantunwind
	.fnend
                                        @ -- End function
	.section	.text.RTC_DateStructInit,"ax",%progbits
	.hidden	RTC_DateStructInit      @ -- Begin function RTC_DateStructInit
	.globl	RTC_DateStructInit
	.p2align	1
	.type	RTC_DateStructInit,%function
	.code	16                      @ @RTC_DateStructInit
	.thumb_func
RTC_DateStructInit:
.Lfunc_begin14:
	.loc	3 1037 0                @ ../Libraries/STM32F4xx_StdPeriph_Driver/src/stm32f4xx_rtc.c:1037:0
	.fnstart
	.cfi_startproc
@ %bb.0:
	@DEBUG_VALUE: RTC_DateStructInit:RTC_DateStruct <- $r0
	movw	r1, #257
	movt	r1, #1
	@DEBUG_VALUE: RTC_DateStructInit:RTC_DateStruct <- $r0
.Ltmp205:
	.loc	3 1039 31 prologue_end  @ ../Libraries/STM32F4xx_StdPeriph_Driver/src/stm32f4xx_rtc.c:1039:31
	str	r1, [r0]
	.loc	3 1043 1                @ ../Libraries/STM32F4xx_StdPeriph_Driver/src/stm32f4xx_rtc.c:1043:1
	bx	lr
.Ltmp206:
.Lfunc_end14:
	.size	RTC_DateStructInit, .Lfunc_end14-RTC_DateStructInit
	.cfi_endproc
	.cantunwind
	.fnend
                                        @ -- End function
	.section	.text.RTC_GetDate,"ax",%progbits
	.hidden	RTC_GetDate             @ -- Begin function RTC_GetDate
	.globl	RTC_GetDate
	.p2align	1
	.type	RTC_GetDate,%function
	.code	16                      @ @RTC_GetDate
	.thumb_func
RTC_GetDate:
.Lfunc_begin15:
	.loc	3 1056 0                @ ../Libraries/STM32F4xx_StdPeriph_Driver/src/stm32f4xx_rtc.c:1056:0
	.fnstart
	.cfi_startproc
@ %bb.0:
	.save	{r4, lr}
	push	{r4, lr}
	.cfi_def_cfa_offset 8
	.cfi_offset lr, -4
	.cfi_offset r4, -8
	@DEBUG_VALUE: RTC_GetDate:RTC_Format <- $r0
	@DEBUG_VALUE: RTC_GetDate:RTC_DateStruct <- $r1
	movw	r2, #10244
.Ltmp207:
	.loc	3 1072 7 prologue_end   @ ../Libraries/STM32F4xx_StdPeriph_Driver/src/stm32f4xx_rtc.c:1072:7
	cmp	r0, #0
	movt	r2, #16384
.Ltmp208:
	@DEBUG_VALUE: RTC_GetDate:tmpreg <- 0
	@DEBUG_VALUE: RTC_GetDate:RTC_DateStruct <- $r1
	@DEBUG_VALUE: RTC_GetDate:RTC_Format <- $r0
	.loc	3 1063 28               @ ../Libraries/STM32F4xx_StdPeriph_Driver/src/stm32f4xx_rtc.c:1063:28
	ldr	r2, [r2]
.Ltmp209:
	@DEBUG_VALUE: RTC_GetDate:tmpreg <- [DW_OP_constu 16777023, DW_OP_and, DW_OP_stack_value] $r2
	.loc	3 1068 30               @ ../Libraries/STM32F4xx_StdPeriph_Driver/src/stm32f4xx_rtc.c:1068:30
	and	r3, r2, #63
.Ltmp210:
	@DEBUG_VALUE: RTC_Bcd2ToByte:Value <- $r3
	.loc	3 1066 75               @ ../Libraries/STM32F4xx_StdPeriph_Driver/src/stm32f4xx_rtc.c:1066:75
	lsr.w	r12, r2, #16
.Ltmp211:
	@DEBUG_VALUE: RTC_Bcd2ToByte:Value <- undef
	.loc	3 1068 28               @ ../Libraries/STM32F4xx_StdPeriph_Driver/src/stm32f4xx_rtc.c:1068:28
	strb	r3, [r1, #2]
	.loc	3 1067 31               @ ../Libraries/STM32F4xx_StdPeriph_Driver/src/stm32f4xx_rtc.c:1067:31
	ubfx	lr, r2, #8, #5
.Ltmp212:
	@DEBUG_VALUE: RTC_Bcd2ToByte:Value <- $lr
	.loc	3 1067 29 is_stmt 0     @ ../Libraries/STM32F4xx_StdPeriph_Driver/src/stm32f4xx_rtc.c:1067:29
	strb.w	lr, [r1, #1]
	.loc	3 1066 28 is_stmt 1     @ ../Libraries/STM32F4xx_StdPeriph_Driver/src/stm32f4xx_rtc.c:1066:28
	strb.w	r12, [r1, #3]
	.loc	3 1069 33               @ ../Libraries/STM32F4xx_StdPeriph_Driver/src/stm32f4xx_rtc.c:1069:33
	ubfx	r4, r2, #13, #3
	.loc	3 1069 31 is_stmt 0     @ ../Libraries/STM32F4xx_StdPeriph_Driver/src/stm32f4xx_rtc.c:1069:31
	strb	r4, [r1]
	.loc	3 1072 7 is_stmt 1      @ ../Libraries/STM32F4xx_StdPeriph_Driver/src/stm32f4xx_rtc.c:1072:7
	beq	.LBB15_2
.Ltmp213:
@ %bb.1:
	@DEBUG_VALUE: RTC_GetDate:tmpreg <- [DW_OP_constu 16777023, DW_OP_and, DW_OP_stack_value] $r2
	@DEBUG_VALUE: RTC_GetDate:RTC_DateStruct <- $r1
	@DEBUG_VALUE: RTC_GetDate:RTC_Format <- $r0
	.loc	3 1079 1                @ ../Libraries/STM32F4xx_StdPeriph_Driver/src/stm32f4xx_rtc.c:1079:1
	pop	{r4, pc}
.Ltmp214:
.LBB15_2:
	@DEBUG_VALUE: RTC_Bcd2ToByte:Value <- $lr
	@DEBUG_VALUE: RTC_Bcd2ToByte:Value <- $r3
	@DEBUG_VALUE: RTC_GetDate:tmpreg <- [DW_OP_constu 16777023, DW_OP_and, DW_OP_stack_value] $r2
	@DEBUG_VALUE: RTC_GetDate:RTC_DateStruct <- $r1
	@DEBUG_VALUE: RTC_GetDate:RTC_Format <- $r0
	.loc	3 2745 43               @ ../Libraries/STM32F4xx_StdPeriph_Driver/src/stm32f4xx_rtc.c:2745:43
	lsrs	r3, r3, #4
.Ltmp215:
	.loc	3 2746 24               @ ../Libraries/STM32F4xx_StdPeriph_Driver/src/stm32f4xx_rtc.c:2746:24
	and	r4, r2, #15
.Ltmp216:
	@DEBUG_VALUE: RTC_Bcd2ToByte:tmp <- 0
	.loc	3 0 0 is_stmt 0         @ ../Libraries/STM32F4xx_StdPeriph_Driver/src/stm32f4xx_rtc.c:0:0
	lsrs	r0, r2, #8
.Ltmp217:
	@DEBUG_VALUE: RTC_Bcd2ToByte:tmp <- undef
	@DEBUG_VALUE: RTC_Bcd2ToByte:tmp <- 0
	.loc	3 2745 60 is_stmt 1     @ ../Libraries/STM32F4xx_StdPeriph_Driver/src/stm32f4xx_rtc.c:2745:60
	orr.w	r3, r3, r3, lsl #2
.Ltmp218:
	.loc	3 2746 24               @ ../Libraries/STM32F4xx_StdPeriph_Driver/src/stm32f4xx_rtc.c:2746:24
	and	r0, r0, #15
.Ltmp219:
	@DEBUG_VALUE: RTC_Bcd2ToByte:tmp <- 0
	.loc	3 2746 15 is_stmt 0     @ ../Libraries/STM32F4xx_StdPeriph_Driver/src/stm32f4xx_rtc.c:2746:15
	add.w	r3, r4, r3, lsl #1
.Ltmp220:
	.loc	3 1077 30 is_stmt 1     @ ../Libraries/STM32F4xx_StdPeriph_Driver/src/stm32f4xx_rtc.c:1077:30
	strb	r3, [r1, #2]
.Ltmp221:
	@DEBUG_VALUE: RTC_Bcd2ToByte:tmp <- undef
	.loc	3 2745 43               @ ../Libraries/STM32F4xx_StdPeriph_Driver/src/stm32f4xx_rtc.c:2745:43
	lsr.w	r3, lr, #4
	.loc	3 2745 60 is_stmt 0     @ ../Libraries/STM32F4xx_StdPeriph_Driver/src/stm32f4xx_rtc.c:2745:60
	orr.w	r3, r3, r3, lsl #2
	.loc	3 2746 15 is_stmt 1     @ ../Libraries/STM32F4xx_StdPeriph_Driver/src/stm32f4xx_rtc.c:2746:15
	add.w	r0, r0, r3, lsl #1
.Ltmp222:
	.loc	3 1076 31               @ ../Libraries/STM32F4xx_StdPeriph_Driver/src/stm32f4xx_rtc.c:1076:31
	strb	r0, [r1, #1]
.Ltmp223:
	@DEBUG_VALUE: RTC_Bcd2ToByte:tmp <- undef
	.loc	3 2745 43               @ ../Libraries/STM32F4xx_StdPeriph_Driver/src/stm32f4xx_rtc.c:2745:43
	ubfx	r2, r2, #20, #4
.Ltmp224:
	.loc	3 2746 24               @ ../Libraries/STM32F4xx_StdPeriph_Driver/src/stm32f4xx_rtc.c:2746:24
	and	r0, r12, #15
	.loc	3 2745 60               @ ../Libraries/STM32F4xx_StdPeriph_Driver/src/stm32f4xx_rtc.c:2745:60
	add.w	r2, r2, r2, lsl #2
	.loc	3 2746 15               @ ../Libraries/STM32F4xx_StdPeriph_Driver/src/stm32f4xx_rtc.c:2746:15
	add.w	r0, r0, r2, lsl #1
.Ltmp225:
	.loc	3 1075 30               @ ../Libraries/STM32F4xx_StdPeriph_Driver/src/stm32f4xx_rtc.c:1075:30
	strb	r0, [r1, #3]
.Ltmp226:
	.loc	3 1079 1                @ ../Libraries/STM32F4xx_StdPeriph_Driver/src/stm32f4xx_rtc.c:1079:1
	pop	{r4, pc}
.Ltmp227:
.Lfunc_end15:
	.size	RTC_GetDate, .Lfunc_end15-RTC_GetDate
	.cfi_endproc
	.cantunwind
	.fnend
                                        @ -- End function
	.section	.text.RTC_SetAlarm,"ax",%progbits
	.hidden	RTC_SetAlarm            @ -- Begin function RTC_SetAlarm
	.globl	RTC_SetAlarm
	.p2align	1
	.type	RTC_SetAlarm,%function
	.code	16                      @ @RTC_SetAlarm
	.thumb_func
RTC_SetAlarm:
.Lfunc_begin16:
	.loc	3 1116 0                @ ../Libraries/STM32F4xx_StdPeriph_Driver/src/stm32f4xx_rtc.c:1116:0
	.fnstart
	.cfi_startproc
@ %bb.0:
	.save	{r4, lr}
	push	{r4, lr}
	.cfi_def_cfa_offset 8
	.cfi_offset lr, -4
	.cfi_offset r4, -8
	@DEBUG_VALUE: RTC_SetAlarm:RTC_Format <- $r0
	@DEBUG_VALUE: RTC_SetAlarm:RTC_Alarm <- $r1
	@DEBUG_VALUE: RTC_SetAlarm:RTC_AlarmStruct <- $r2
	movw	r12, #10248
.Ltmp228:
	.loc	3 1125 7 prologue_end   @ ../Libraries/STM32F4xx_StdPeriph_Driver/src/stm32f4xx_rtc.c:1125:7
	cmp	r0, #0
	movt	r12, #16384
.Ltmp229:
	@DEBUG_VALUE: RTC_SetAlarm:tmpreg <- 0
	@DEBUG_VALUE: RTC_SetAlarm:RTC_AlarmStruct <- $r2
	@DEBUG_VALUE: RTC_SetAlarm:RTC_Alarm <- $r1
	@DEBUG_VALUE: RTC_SetAlarm:RTC_Format <- $r0
	.loc	3 0 0 is_stmt 0         @ ../Libraries/STM32F4xx_StdPeriph_Driver/src/stm32f4xx_rtc.c:0:0
	ldr.w	r3, [r12]
	and	r3, r3, #64
.Ltmp230:
	.loc	3 1125 7                @ ../Libraries/STM32F4xx_StdPeriph_Driver/src/stm32f4xx_rtc.c:1125:7
	beq	.LBB16_2
.Ltmp231:
@ %bb.1:
	@DEBUG_VALUE: RTC_SetAlarm:RTC_AlarmStruct <- $r2
	@DEBUG_VALUE: RTC_SetAlarm:RTC_Alarm <- $r1
	@DEBUG_VALUE: RTC_SetAlarm:RTC_Format <- $r0
	.loc	3 1151 9 is_stmt 1      @ ../Libraries/STM32F4xx_StdPeriph_Driver/src/stm32f4xx_rtc.c:1151:9
	cmp	r3, #0
	ittee	eq
	moveq.w	lr, #0
.Ltmp232:
	.loc	3 1159 46               @ ../Libraries/STM32F4xx_StdPeriph_Driver/src/stm32f4xx_rtc.c:1159:46
	strbeq.w	lr, [r2, #3]
.Ltmp233:
	.loc	3 1184 58               @ ../Libraries/STM32F4xx_StdPeriph_Driver/src/stm32f4xx_rtc.c:1184:58
	ldrbne	r0, [r2, #3]
.Ltmp234:
	.loc	3 1151 9                @ ../Libraries/STM32F4xx_StdPeriph_Driver/src/stm32f4xx_rtc.c:1151:9
	lslne.w	lr, r0, #16
.Ltmp235:
	@DEBUG_VALUE: RTC_SetAlarm:tmpreg <- undef
	.loc	3 1182 58               @ ../Libraries/STM32F4xx_StdPeriph_Driver/src/stm32f4xx_rtc.c:1182:58
	ldrb	r0, [r2, #1]
.Ltmp236:
	.loc	3 0 0 is_stmt 0         @ ../Libraries/STM32F4xx_StdPeriph_Driver/src/stm32f4xx_rtc.c:0:0
	ldrb	r3, [r2]
.Ltmp237:
	.loc	3 1183 57 is_stmt 1     @ ../Libraries/STM32F4xx_StdPeriph_Driver/src/stm32f4xx_rtc.c:1183:57
	ldrb	r4, [r2, #2]
	.loc	3 1182 71               @ ../Libraries/STM32F4xx_StdPeriph_Driver/src/stm32f4xx_rtc.c:1182:71
	lsls	r0, r0, #8
	.loc	3 1181 76               @ ../Libraries/STM32F4xx_StdPeriph_Driver/src/stm32f4xx_rtc.c:1181:76
	orr.w	r0, r0, r3, lsl #16
	.loc	3 1187 43               @ ../Libraries/STM32F4xx_StdPeriph_Driver/src/stm32f4xx_rtc.c:1187:43
	ldr	r3, [r2, #4]
	.loc	3 1182 77               @ ../Libraries/STM32F4xx_StdPeriph_Driver/src/stm32f4xx_rtc.c:1182:77
	add	r0, r4
	.loc	3 1183 70               @ ../Libraries/STM32F4xx_StdPeriph_Driver/src/stm32f4xx_rtc.c:1183:70
	orr.w	lr, lr, r0
	.loc	3 1185 16               @ ../Libraries/STM32F4xx_StdPeriph_Driver/src/stm32f4xx_rtc.c:1185:16
	ldrb	r0, [r2, #12]
	.loc	3 1185 66 is_stmt 0     @ ../Libraries/STM32F4xx_StdPeriph_Driver/src/stm32f4xx_rtc.c:1185:66
	lsls	r0, r0, #24
	b	.LBB16_17
.Ltmp238:
.LBB16_2:
	@DEBUG_VALUE: RTC_SetAlarm:RTC_AlarmStruct <- $r2
	@DEBUG_VALUE: RTC_SetAlarm:RTC_Alarm <- $r1
	@DEBUG_VALUE: RTC_SetAlarm:RTC_Format <- $r0
	.loc	3 1127 9 is_stmt 1      @ ../Libraries/STM32F4xx_StdPeriph_Driver/src/stm32f4xx_rtc.c:1127:9
	cbnz	r3, .LBB16_4
.Ltmp239:
@ %bb.3:
	@DEBUG_VALUE: RTC_SetAlarm:RTC_AlarmStruct <- $r2
	@DEBUG_VALUE: RTC_SetAlarm:RTC_Alarm <- $r1
	@DEBUG_VALUE: RTC_SetAlarm:RTC_Format <- $r0
	.loc	3 0 9 is_stmt 0         @ ../Libraries/STM32F4xx_StdPeriph_Driver/src/stm32f4xx_rtc.c:0:9
	movs	r0, #0
.Ltmp240:
	.loc	3 1134 46 is_stmt 1     @ ../Libraries/STM32F4xx_StdPeriph_Driver/src/stm32f4xx_rtc.c:1134:46
	strb	r0, [r2, #3]
.Ltmp241:
.LBB16_4:
	@DEBUG_VALUE: RTC_SetAlarm:RTC_AlarmStruct <- $r2
	@DEBUG_VALUE: RTC_SetAlarm:RTC_Alarm <- $r1
	.loc	3 0 0 is_stmt 0         @ ../Libraries/STM32F4xx_StdPeriph_Driver/src/stm32f4xx_rtc.c:0:0
	ldrb	r0, [r2]
.Ltmp242:
	@DEBUG_VALUE: RTC_ByteToBcd2:bcdhigh <- 0
	@DEBUG_VALUE: RTC_ByteToBcd2:Value <- undef
	.loc	3 2728 3 is_stmt 1      @ ../Libraries/STM32F4xx_StdPeriph_Driver/src/stm32f4xx_rtc.c:2728:3
	cmp	r0, #10
	blo	.LBB16_6
.Ltmp243:
@ %bb.5:
	@DEBUG_VALUE: RTC_SetAlarm:RTC_AlarmStruct <- $r2
	@DEBUG_VALUE: RTC_SetAlarm:RTC_Alarm <- $r1
	.loc	3 0 3 is_stmt 0         @ ../Libraries/STM32F4xx_StdPeriph_Driver/src/stm32f4xx_rtc.c:0:3
	movw	r4, #52429
.Ltmp244:
	.loc	3 2730 12 is_stmt 1     @ ../Libraries/STM32F4xx_StdPeriph_Driver/src/stm32f4xx_rtc.c:2730:12
	subs	r0, #10
	uxtb	r3, r0
	movt	r4, #52428
	umull	r3, r4, r3, r4
	lsrs	r4, r4, #3
	movs	r3, #16
.Ltmp245:
	.loc	3 2734 30               @ ../Libraries/STM32F4xx_StdPeriph_Driver/src/stm32f4xx_rtc.c:2734:30
	add.w	r3, r3, r4, lsl #4
.Ltmp246:
	@DEBUG_VALUE: RTC_ByteToBcd2:bcdhigh <- [DW_OP_plus_uconst 1, DW_OP_stack_value] undef
	@DEBUG_VALUE: RTC_ByteToBcd2:bcdhigh <- undef
	@DEBUG_VALUE: RTC_ByteToBcd2:Value <- undef
	.loc	3 2730 12               @ ../Libraries/STM32F4xx_StdPeriph_Driver/src/stm32f4xx_rtc.c:2730:12
	add.w	r4, r4, r4, lsl #2
	sub.w	r0, r0, r4, lsl #1
	b	.LBB16_7
.Ltmp247:
.LBB16_6:
	@DEBUG_VALUE: RTC_SetAlarm:RTC_AlarmStruct <- $r2
	@DEBUG_VALUE: RTC_SetAlarm:RTC_Alarm <- $r1
	.loc	3 0 12 is_stmt 0        @ ../Libraries/STM32F4xx_StdPeriph_Driver/src/stm32f4xx_rtc.c:0:12
	movs	r3, #0
.Ltmp248:
.LBB16_7:
	@DEBUG_VALUE: RTC_SetAlarm:RTC_AlarmStruct <- $r2
	@DEBUG_VALUE: RTC_SetAlarm:RTC_Alarm <- $r1
	@DEBUG_VALUE: RTC_ByteToBcd2:Value <- $r0
	.loc	3 2734 36 is_stmt 1     @ ../Libraries/STM32F4xx_StdPeriph_Driver/src/stm32f4xx_rtc.c:2734:36
	orrs	r0, r3
.Ltmp249:
	.loc	3 1192 72               @ ../Libraries/STM32F4xx_StdPeriph_Driver/src/stm32f4xx_rtc.c:1192:72
	ldrb	r3, [r2, #1]
.Ltmp250:
	@DEBUG_VALUE: RTC_ByteToBcd2:bcdhigh <- 0
	@DEBUG_VALUE: RTC_ByteToBcd2:Value <- undef
	.loc	3 1191 16               @ ../Libraries/STM32F4xx_StdPeriph_Driver/src/stm32f4xx_rtc.c:1191:16
	uxtb	r0, r0
	.loc	3 1191 83 is_stmt 0     @ ../Libraries/STM32F4xx_StdPeriph_Driver/src/stm32f4xx_rtc.c:1191:83
	lsl.w	lr, r0, #16
.Ltmp251:
	.loc	3 2728 3 is_stmt 1      @ ../Libraries/STM32F4xx_StdPeriph_Driver/src/stm32f4xx_rtc.c:2728:3
	cmp	r3, #10
	blo	.LBB16_9
.Ltmp252:
@ %bb.8:
	@DEBUG_VALUE: RTC_SetAlarm:RTC_AlarmStruct <- $r2
	@DEBUG_VALUE: RTC_SetAlarm:RTC_Alarm <- $r1
	.loc	3 0 3 is_stmt 0         @ ../Libraries/STM32F4xx_StdPeriph_Driver/src/stm32f4xx_rtc.c:0:3
	movw	r4, #52429
.Ltmp253:
	.loc	3 2730 12 is_stmt 1     @ ../Libraries/STM32F4xx_StdPeriph_Driver/src/stm32f4xx_rtc.c:2730:12
	subs	r3, #10
	uxtb	r0, r3
	movt	r4, #52428
	umull	r0, r4, r0, r4
	lsrs	r4, r4, #3
	movs	r0, #16
.Ltmp254:
	.loc	3 2734 30               @ ../Libraries/STM32F4xx_StdPeriph_Driver/src/stm32f4xx_rtc.c:2734:30
	add.w	r0, r0, r4, lsl #4
.Ltmp255:
	@DEBUG_VALUE: RTC_ByteToBcd2:bcdhigh <- [DW_OP_plus_uconst 1, DW_OP_stack_value] undef
	@DEBUG_VALUE: RTC_ByteToBcd2:bcdhigh <- undef
	@DEBUG_VALUE: RTC_ByteToBcd2:Value <- undef
	.loc	3 2730 12               @ ../Libraries/STM32F4xx_StdPeriph_Driver/src/stm32f4xx_rtc.c:2730:12
	add.w	r4, r4, r4, lsl #2
	sub.w	r3, r3, r4, lsl #1
	b	.LBB16_10
.Ltmp256:
.LBB16_9:
	@DEBUG_VALUE: RTC_SetAlarm:RTC_AlarmStruct <- $r2
	@DEBUG_VALUE: RTC_SetAlarm:RTC_Alarm <- $r1
	.loc	3 0 12 is_stmt 0        @ ../Libraries/STM32F4xx_StdPeriph_Driver/src/stm32f4xx_rtc.c:0:12
	movs	r0, #0
.Ltmp257:
.LBB16_10:
	@DEBUG_VALUE: RTC_SetAlarm:RTC_AlarmStruct <- $r2
	@DEBUG_VALUE: RTC_SetAlarm:RTC_Alarm <- $r1
	@DEBUG_VALUE: RTC_ByteToBcd2:Value <- $r3
	.loc	3 2734 36 is_stmt 1     @ ../Libraries/STM32F4xx_StdPeriph_Driver/src/stm32f4xx_rtc.c:2734:36
	orrs	r0, r3
.Ltmp258:
	.loc	3 1193 72               @ ../Libraries/STM32F4xx_StdPeriph_Driver/src/stm32f4xx_rtc.c:1193:72
	ldrb	r3, [r2, #2]
.Ltmp259:
	@DEBUG_VALUE: RTC_ByteToBcd2:bcdhigh <- 0
	@DEBUG_VALUE: RTC_ByteToBcd2:Value <- undef
	.loc	3 1192 16               @ ../Libraries/STM32F4xx_StdPeriph_Driver/src/stm32f4xx_rtc.c:1192:16
	uxtb	r0, r0
	.loc	3 1191 90               @ ../Libraries/STM32F4xx_StdPeriph_Driver/src/stm32f4xx_rtc.c:1191:90
	orr.w	lr, lr, r0, lsl #8
.Ltmp260:
	.loc	3 2728 3                @ ../Libraries/STM32F4xx_StdPeriph_Driver/src/stm32f4xx_rtc.c:2728:3
	cmp	r3, #10
	blo	.LBB16_12
.Ltmp261:
@ %bb.11:
	@DEBUG_VALUE: RTC_SetAlarm:RTC_AlarmStruct <- $r2
	@DEBUG_VALUE: RTC_SetAlarm:RTC_Alarm <- $r1
	.loc	3 0 3 is_stmt 0         @ ../Libraries/STM32F4xx_StdPeriph_Driver/src/stm32f4xx_rtc.c:0:3
	movw	r4, #52429
.Ltmp262:
	.loc	3 2730 12 is_stmt 1     @ ../Libraries/STM32F4xx_StdPeriph_Driver/src/stm32f4xx_rtc.c:2730:12
	subs	r3, #10
	uxtb	r0, r3
	movt	r4, #52428
	umull	r0, r4, r0, r4
	lsrs	r4, r4, #3
	movs	r0, #16
.Ltmp263:
	.loc	3 2734 30               @ ../Libraries/STM32F4xx_StdPeriph_Driver/src/stm32f4xx_rtc.c:2734:30
	add.w	r0, r0, r4, lsl #4
.Ltmp264:
	@DEBUG_VALUE: RTC_ByteToBcd2:bcdhigh <- [DW_OP_plus_uconst 1, DW_OP_stack_value] undef
	@DEBUG_VALUE: RTC_ByteToBcd2:bcdhigh <- undef
	@DEBUG_VALUE: RTC_ByteToBcd2:Value <- undef
	.loc	3 2730 12               @ ../Libraries/STM32F4xx_StdPeriph_Driver/src/stm32f4xx_rtc.c:2730:12
	add.w	r4, r4, r4, lsl #2
	sub.w	r3, r3, r4, lsl #1
	b	.LBB16_13
.Ltmp265:
.LBB16_12:
	@DEBUG_VALUE: RTC_SetAlarm:RTC_AlarmStruct <- $r2
	@DEBUG_VALUE: RTC_SetAlarm:RTC_Alarm <- $r1
	.loc	3 0 12 is_stmt 0        @ ../Libraries/STM32F4xx_StdPeriph_Driver/src/stm32f4xx_rtc.c:0:12
	movs	r0, #0
.Ltmp266:
.LBB16_13:
	@DEBUG_VALUE: RTC_SetAlarm:RTC_AlarmStruct <- $r2
	@DEBUG_VALUE: RTC_SetAlarm:RTC_Alarm <- $r1
	@DEBUG_VALUE: RTC_ByteToBcd2:Value <- $r3
	.loc	3 2734 36 is_stmt 1     @ ../Libraries/STM32F4xx_StdPeriph_Driver/src/stm32f4xx_rtc.c:2734:36
	orrs	r0, r3
.Ltmp267:
	.loc	3 1194 58               @ ../Libraries/STM32F4xx_StdPeriph_Driver/src/stm32f4xx_rtc.c:1194:58
	ldrb	r4, [r2, #3]
	.loc	3 1193 16               @ ../Libraries/STM32F4xx_StdPeriph_Driver/src/stm32f4xx_rtc.c:1193:16
	uxtb	r0, r0
	.loc	3 1192 91               @ ../Libraries/STM32F4xx_StdPeriph_Driver/src/stm32f4xx_rtc.c:1192:91
	orr.w	r3, lr, r0
.Ltmp268:
	.loc	3 1195 58               @ ../Libraries/STM32F4xx_StdPeriph_Driver/src/stm32f4xx_rtc.c:1195:58
	ldrb	r0, [r2, #12]
	.loc	3 1193 86               @ ../Libraries/STM32F4xx_StdPeriph_Driver/src/stm32f4xx_rtc.c:1193:86
	orr.w	lr, r3, r4, lsl #16
.Ltmp269:
	@DEBUG_VALUE: RTC_ByteToBcd2:bcdhigh <- 0
	@DEBUG_VALUE: RTC_ByteToBcd2:Value <- undef
	.loc	3 2728 3                @ ../Libraries/STM32F4xx_StdPeriph_Driver/src/stm32f4xx_rtc.c:2728:3
	cmp	r0, #10
	blo	.LBB16_15
.Ltmp270:
@ %bb.14:
	@DEBUG_VALUE: RTC_SetAlarm:RTC_AlarmStruct <- $r2
	@DEBUG_VALUE: RTC_SetAlarm:RTC_Alarm <- $r1
	.loc	3 0 3 is_stmt 0         @ ../Libraries/STM32F4xx_StdPeriph_Driver/src/stm32f4xx_rtc.c:0:3
	movw	r4, #52429
.Ltmp271:
	.loc	3 2730 12 is_stmt 1     @ ../Libraries/STM32F4xx_StdPeriph_Driver/src/stm32f4xx_rtc.c:2730:12
	subs	r0, #10
	uxtb	r3, r0
	movt	r4, #52428
	umull	r3, r4, r3, r4
	lsrs	r4, r4, #3
	movs	r3, #16
.Ltmp272:
	.loc	3 2734 30               @ ../Libraries/STM32F4xx_StdPeriph_Driver/src/stm32f4xx_rtc.c:2734:30
	add.w	r3, r3, r4, lsl #4
.Ltmp273:
	@DEBUG_VALUE: RTC_ByteToBcd2:bcdhigh <- [DW_OP_plus_uconst 1, DW_OP_stack_value] undef
	@DEBUG_VALUE: RTC_ByteToBcd2:bcdhigh <- undef
	@DEBUG_VALUE: RTC_ByteToBcd2:Value <- undef
	.loc	3 2730 12               @ ../Libraries/STM32F4xx_StdPeriph_Driver/src/stm32f4xx_rtc.c:2730:12
	add.w	r4, r4, r4, lsl #2
	sub.w	r0, r0, r4, lsl #1
	b	.LBB16_16
.Ltmp274:
.LBB16_15:
	@DEBUG_VALUE: RTC_SetAlarm:RTC_AlarmStruct <- $r2
	@DEBUG_VALUE: RTC_SetAlarm:RTC_Alarm <- $r1
	.loc	3 0 12 is_stmt 0        @ ../Libraries/STM32F4xx_StdPeriph_Driver/src/stm32f4xx_rtc.c:0:12
	movs	r3, #0
.Ltmp275:
.LBB16_16:
	@DEBUG_VALUE: RTC_SetAlarm:RTC_AlarmStruct <- $r2
	@DEBUG_VALUE: RTC_SetAlarm:RTC_Alarm <- $r1
	@DEBUG_VALUE: RTC_ByteToBcd2:Value <- $r0
	.loc	3 2734 36 is_stmt 1     @ ../Libraries/STM32F4xx_StdPeriph_Driver/src/stm32f4xx_rtc.c:2734:36
	orrs	r0, r3
.Ltmp276:
	.loc	3 1195 80               @ ../Libraries/STM32F4xx_StdPeriph_Driver/src/stm32f4xx_rtc.c:1195:80
	lsls	r3, r0, #24
	.loc	3 1197 43               @ ../Libraries/STM32F4xx_StdPeriph_Driver/src/stm32f4xx_rtc.c:1197:43
	ldr	r0, [r2, #4]
.Ltmp277:
.LBB16_17:
	@DEBUG_VALUE: RTC_SetAlarm:RTC_AlarmStruct <- $r2
	@DEBUG_VALUE: RTC_SetAlarm:RTC_Alarm <- $r1
	.loc	3 0 0 is_stmt 0         @ ../Libraries/STM32F4xx_StdPeriph_Driver/src/stm32f4xx_rtc.c:0:0
	ldr	r2, [r2, #8]
.Ltmp278:
	movs	r4, #202
.Ltmp279:
	.loc	3 1205 7 is_stmt 1      @ ../Libraries/STM32F4xx_StdPeriph_Driver/src/stm32f4xx_rtc.c:1205:7
	cmp.w	r1, #256
	.loc	3 1201 12               @ ../Libraries/STM32F4xx_StdPeriph_Driver/src/stm32f4xx_rtc.c:1201:12
	str.w	r4, [r12, #28]
	mov.w	r4, #83
.Ltmp280:
	.loc	3 0 0 is_stmt 0         @ ../Libraries/STM32F4xx_StdPeriph_Driver/src/stm32f4xx_rtc.c:0:0
	orr.w	r2, r2, lr
.Ltmp281:
	.loc	3 1202 12 is_stmt 1     @ ../Libraries/STM32F4xx_StdPeriph_Driver/src/stm32f4xx_rtc.c:1202:12
	str.w	r4, [r12, #28]
.Ltmp282:
	.loc	3 0 0 is_stmt 0         @ ../Libraries/STM32F4xx_StdPeriph_Driver/src/stm32f4xx_rtc.c:0:0
	orr.w	r0, r0, r2
	orr.w	r0, r0, r3
.Ltmp283:
	@DEBUG_VALUE: RTC_SetAlarm:tmpreg <- $r0
	.loc	3 1211 17 is_stmt 1     @ ../Libraries/STM32F4xx_StdPeriph_Driver/src/stm32f4xx_rtc.c:1211:17
	ite	ne
	strne.w	r0, [r12, #24]
.Ltmp284:
	.loc	3 1207 17               @ ../Libraries/STM32F4xx_StdPeriph_Driver/src/stm32f4xx_rtc.c:1207:17
	streq.w	r0, [r12, #20]
	movs	r0, #255
.Ltmp285:
	.loc	3 1215 12               @ ../Libraries/STM32F4xx_StdPeriph_Driver/src/stm32f4xx_rtc.c:1215:12
	str.w	r0, [r12, #28]
	.loc	3 1216 1                @ ../Libraries/STM32F4xx_StdPeriph_Driver/src/stm32f4xx_rtc.c:1216:1
	pop	{r4, pc}
.Ltmp286:
.Lfunc_end16:
	.size	RTC_SetAlarm, .Lfunc_end16-RTC_SetAlarm
	.cfi_endproc
	.cantunwind
	.fnend
                                        @ -- End function
	.section	.text.RTC_AlarmStructInit,"ax",%progbits
	.hidden	RTC_AlarmStructInit     @ -- Begin function RTC_AlarmStructInit
	.globl	RTC_AlarmStructInit
	.p2align	1
	.type	RTC_AlarmStructInit,%function
	.code	16                      @ @RTC_AlarmStructInit
	.thumb_func
RTC_AlarmStructInit:
.Lfunc_begin17:
	.loc	3 1227 0                @ ../Libraries/STM32F4xx_StdPeriph_Driver/src/stm32f4xx_rtc.c:1227:0
	.fnstart
	.cfi_startproc
@ %bb.0:
	@DEBUG_VALUE: RTC_AlarmStructInit:RTC_AlarmStruct <- $r0
	movs	r1, #1
	@DEBUG_VALUE: RTC_AlarmStructInit:RTC_AlarmStruct <- $r0
.Ltmp287:
	.loc	3 1236 41 prologue_end  @ ../Libraries/STM32F4xx_StdPeriph_Driver/src/stm32f4xx_rtc.c:1236:41
	strb	r1, [r0, #12]
	movs	r1, #0
	.loc	3 1230 44               @ ../Libraries/STM32F4xx_StdPeriph_Driver/src/stm32f4xx_rtc.c:1230:44
	strd	r1, r1, [r0]
	.loc	3 1235 44               @ ../Libraries/STM32F4xx_StdPeriph_Driver/src/stm32f4xx_rtc.c:1235:44
	str	r1, [r0, #8]
	.loc	3 1240 1                @ ../Libraries/STM32F4xx_StdPeriph_Driver/src/stm32f4xx_rtc.c:1240:1
	bx	lr
.Ltmp288:
.Lfunc_end17:
	.size	RTC_AlarmStructInit, .Lfunc_end17-RTC_AlarmStructInit
	.cfi_endproc
	.cantunwind
	.fnend
                                        @ -- End function
	.section	.text.RTC_GetAlarm,"ax",%progbits
	.hidden	RTC_GetAlarm            @ -- Begin function RTC_GetAlarm
	.globl	RTC_GetAlarm
	.p2align	1
	.type	RTC_GetAlarm,%function
	.code	16                      @ @RTC_GetAlarm
	.thumb_func
RTC_GetAlarm:
.Lfunc_begin18:
	.loc	3 1257 0                @ ../Libraries/STM32F4xx_StdPeriph_Driver/src/stm32f4xx_rtc.c:1257:0
	.fnstart
	.cfi_startproc
@ %bb.0:
	.save	{r4, r5, r6, lr}
	push	{r4, r5, r6, lr}
	.cfi_def_cfa_offset 16
	.cfi_offset lr, -4
	.cfi_offset r6, -8
	.cfi_offset r5, -12
	.cfi_offset r4, -16
	@DEBUG_VALUE: RTC_GetAlarm:RTC_Format <- $r0
	@DEBUG_VALUE: RTC_GetAlarm:RTC_Alarm <- $r1
	@DEBUG_VALUE: RTC_GetAlarm:RTC_AlarmStruct <- $r2
	movw	r3, #10268
.Ltmp289:
	.loc	3 0 0 prologue_end      @ ../Libraries/STM32F4xx_StdPeriph_Driver/src/stm32f4xx_rtc.c:0:0
	cmp.w	r1, #256
	mov.w	r4, #64
	movt	r3, #16384
.Ltmp290:
	@DEBUG_VALUE: RTC_GetAlarm:tmpreg <- 0
	@DEBUG_VALUE: RTC_GetAlarm:RTC_AlarmStruct <- $r2
	@DEBUG_VALUE: RTC_GetAlarm:RTC_Alarm <- $r1
	@DEBUG_VALUE: RTC_GetAlarm:RTC_Format <- $r0
	add.w	r3, r3, #4
	itt	eq
	movweq	r3, #10268
	movteq	r3, #16384
.Ltmp291:
	.loc	3 1286 7                @ ../Libraries/STM32F4xx_StdPeriph_Driver/src/stm32f4xx_rtc.c:1286:7
	cmp	r0, #0
.Ltmp292:
	.loc	3 0 0 is_stmt 0         @ ../Libraries/STM32F4xx_StdPeriph_Driver/src/stm32f4xx_rtc.c:0:0
	ldr	r3, [r3]
.Ltmp293:
	@DEBUG_VALUE: RTC_GetAlarm:tmpreg <- $r3
	.loc	3 1282 43 is_stmt 1     @ ../Libraries/STM32F4xx_StdPeriph_Driver/src/stm32f4xx_rtc.c:1282:43
	ubfx	r1, r3, #24, #6
.Ltmp294:
	@DEBUG_VALUE: RTC_Bcd2ToByte:Value <- $r1
	.loc	3 1281 44               @ ../Libraries/STM32F4xx_StdPeriph_Driver/src/stm32f4xx_rtc.c:1281:44
	and.w	r4, r4, r3, lsr #16
	.loc	3 1283 64               @ ../Libraries/STM32F4xx_StdPeriph_Driver/src/stm32f4xx_rtc.c:1283:64
	and	r5, r3, #1073741824
	.loc	3 1284 54               @ ../Libraries/STM32F4xx_StdPeriph_Driver/src/stm32f4xx_rtc.c:1284:54
	bic	r6, r3, #2139062143
	.loc	3 1282 41               @ ../Libraries/STM32F4xx_StdPeriph_Driver/src/stm32f4xx_rtc.c:1282:41
	strb	r1, [r2, #12]
	.loc	3 1281 42               @ ../Libraries/STM32F4xx_StdPeriph_Driver/src/stm32f4xx_rtc.c:1281:42
	strb	r4, [r2, #3]
	.loc	3 1279 48               @ ../Libraries/STM32F4xx_StdPeriph_Driver/src/stm32f4xx_rtc.c:1279:48
	and	r4, r3, #127
.Ltmp295:
	@DEBUG_VALUE: RTC_Bcd2ToByte:Value <- $r4
	.loc	3 1279 46 is_stmt 0     @ ../Libraries/STM32F4xx_StdPeriph_Driver/src/stm32f4xx_rtc.c:1279:46
	strb	r4, [r2, #2]
	.loc	3 1277 48 is_stmt 1     @ ../Libraries/STM32F4xx_StdPeriph_Driver/src/stm32f4xx_rtc.c:1277:48
	ubfx	lr, r3, #8, #7
.Ltmp296:
	@DEBUG_VALUE: RTC_Bcd2ToByte:Value <- $lr
	.loc	3 1277 46 is_stmt 0     @ ../Libraries/STM32F4xx_StdPeriph_Driver/src/stm32f4xx_rtc.c:1277:46
	strb.w	lr, [r2, #1]
	.loc	3 1275 46 is_stmt 1     @ ../Libraries/STM32F4xx_StdPeriph_Driver/src/stm32f4xx_rtc.c:1275:46
	ubfx	r12, r3, #16, #6
.Ltmp297:
	@DEBUG_VALUE: RTC_Bcd2ToByte:Value <- $r12
	.loc	3 1275 44 is_stmt 0     @ ../Libraries/STM32F4xx_StdPeriph_Driver/src/stm32f4xx_rtc.c:1275:44
	strb.w	r12, [r2]
	.loc	3 1284 34 is_stmt 1     @ ../Libraries/STM32F4xx_StdPeriph_Driver/src/stm32f4xx_rtc.c:1284:34
	strd	r6, r5, [r2, #4]
	.loc	3 1286 7                @ ../Libraries/STM32F4xx_StdPeriph_Driver/src/stm32f4xx_rtc.c:1286:7
	beq	.LBB18_2
.Ltmp298:
@ %bb.1:
	@DEBUG_VALUE: RTC_GetAlarm:tmpreg <- $r3
	@DEBUG_VALUE: RTC_GetAlarm:RTC_AlarmStruct <- $r2
	@DEBUG_VALUE: RTC_GetAlarm:RTC_Format <- $r0
	.loc	3 1296 1                @ ../Libraries/STM32F4xx_StdPeriph_Driver/src/stm32f4xx_rtc.c:1296:1
	pop	{r4, r5, r6, pc}
.Ltmp299:
.LBB18_2:
	@DEBUG_VALUE: RTC_Bcd2ToByte:Value <- $r12
	@DEBUG_VALUE: RTC_Bcd2ToByte:Value <- $lr
	@DEBUG_VALUE: RTC_Bcd2ToByte:Value <- $r4
	@DEBUG_VALUE: RTC_Bcd2ToByte:Value <- $r1
	@DEBUG_VALUE: RTC_GetAlarm:tmpreg <- $r3
	@DEBUG_VALUE: RTC_GetAlarm:RTC_AlarmStruct <- $r2
	@DEBUG_VALUE: RTC_GetAlarm:RTC_Format <- $r0
	.loc	3 0 0 is_stmt 0         @ ../Libraries/STM32F4xx_StdPeriph_Driver/src/stm32f4xx_rtc.c:0:0
	lsrs	r0, r3, #24
.Ltmp300:
	.loc	3 2745 43 is_stmt 1     @ ../Libraries/STM32F4xx_StdPeriph_Driver/src/stm32f4xx_rtc.c:2745:43
	lsrs	r1, r1, #4
.Ltmp301:
	.loc	3 0 0 is_stmt 0         @ ../Libraries/STM32F4xx_StdPeriph_Driver/src/stm32f4xx_rtc.c:0:0
	lsrs	r5, r3, #8
	lsrs	r6, r3, #16
.Ltmp302:
	@DEBUG_VALUE: RTC_Bcd2ToByte:tmp <- undef
	@DEBUG_VALUE: RTC_Bcd2ToByte:tmp <- 0
	.loc	3 2746 24 is_stmt 1     @ ../Libraries/STM32F4xx_StdPeriph_Driver/src/stm32f4xx_rtc.c:2746:24
	and	r0, r0, #15
.Ltmp303:
	@DEBUG_VALUE: RTC_Bcd2ToByte:tmp <- 0
	.loc	3 2745 60               @ ../Libraries/STM32F4xx_StdPeriph_Driver/src/stm32f4xx_rtc.c:2745:60
	orr.w	r1, r1, r1, lsl #2
	.loc	3 2746 15               @ ../Libraries/STM32F4xx_StdPeriph_Driver/src/stm32f4xx_rtc.c:2746:15
	add.w	r0, r0, r1, lsl #1
.Ltmp304:
	.loc	3 2745 43               @ ../Libraries/STM32F4xx_StdPeriph_Driver/src/stm32f4xx_rtc.c:2745:43
	lsrs	r1, r4, #4
.Ltmp305:
	.loc	3 1294 43               @ ../Libraries/STM32F4xx_StdPeriph_Driver/src/stm32f4xx_rtc.c:1294:43
	strb	r0, [r2, #12]
.Ltmp306:
	@DEBUG_VALUE: RTC_Bcd2ToByte:tmp <- undef
	.loc	3 2746 24               @ ../Libraries/STM32F4xx_StdPeriph_Driver/src/stm32f4xx_rtc.c:2746:24
	and	r0, r3, #15
.Ltmp307:
	@DEBUG_VALUE: RTC_Bcd2ToByte:tmp <- 0
	.loc	3 2745 60               @ ../Libraries/STM32F4xx_StdPeriph_Driver/src/stm32f4xx_rtc.c:2745:60
	add.w	r1, r1, r1, lsl #2
	.loc	3 2746 15               @ ../Libraries/STM32F4xx_StdPeriph_Driver/src/stm32f4xx_rtc.c:2746:15
	add.w	r0, r0, r1, lsl #1
.Ltmp308:
	.loc	3 2745 43               @ ../Libraries/STM32F4xx_StdPeriph_Driver/src/stm32f4xx_rtc.c:2745:43
	lsr.w	r1, lr, #4
.Ltmp309:
	.loc	3 1292 48               @ ../Libraries/STM32F4xx_StdPeriph_Driver/src/stm32f4xx_rtc.c:1292:48
	strb	r0, [r2, #2]
.Ltmp310:
	@DEBUG_VALUE: RTC_Bcd2ToByte:tmp <- undef
	.loc	3 2746 24               @ ../Libraries/STM32F4xx_StdPeriph_Driver/src/stm32f4xx_rtc.c:2746:24
	and	r0, r5, #15
.Ltmp311:
	@DEBUG_VALUE: RTC_Bcd2ToByte:tmp <- 0
	.loc	3 2745 60               @ ../Libraries/STM32F4xx_StdPeriph_Driver/src/stm32f4xx_rtc.c:2745:60
	add.w	r1, r1, r1, lsl #2
	.loc	3 2746 15               @ ../Libraries/STM32F4xx_StdPeriph_Driver/src/stm32f4xx_rtc.c:2746:15
	add.w	r0, r0, r1, lsl #1
.Ltmp312:
	.loc	3 2745 43               @ ../Libraries/STM32F4xx_StdPeriph_Driver/src/stm32f4xx_rtc.c:2745:43
	lsr.w	r1, r12, #4
.Ltmp313:
	.loc	3 1290 48               @ ../Libraries/STM32F4xx_StdPeriph_Driver/src/stm32f4xx_rtc.c:1290:48
	strb	r0, [r2, #1]
.Ltmp314:
	@DEBUG_VALUE: RTC_Bcd2ToByte:tmp <- undef
	.loc	3 2746 24               @ ../Libraries/STM32F4xx_StdPeriph_Driver/src/stm32f4xx_rtc.c:2746:24
	and	r0, r6, #15
	.loc	3 2745 60               @ ../Libraries/STM32F4xx_StdPeriph_Driver/src/stm32f4xx_rtc.c:2745:60
	orr.w	r1, r1, r1, lsl #2
	.loc	3 2746 15               @ ../Libraries/STM32F4xx_StdPeriph_Driver/src/stm32f4xx_rtc.c:2746:15
	add.w	r0, r0, r1, lsl #1
.Ltmp315:
	.loc	3 1288 46               @ ../Libraries/STM32F4xx_StdPeriph_Driver/src/stm32f4xx_rtc.c:1288:46
	strb	r0, [r2]
.Ltmp316:
	.loc	3 1296 1                @ ../Libraries/STM32F4xx_StdPeriph_Driver/src/stm32f4xx_rtc.c:1296:1
	pop	{r4, r5, r6, pc}
.Ltmp317:
.Lfunc_end18:
	.size	RTC_GetAlarm, .Lfunc_end18-RTC_GetAlarm
	.cfi_endproc
	.cantunwind
	.fnend
                                        @ -- End function
	.section	.text.RTC_AlarmCmd,"ax",%progbits
	.hidden	RTC_AlarmCmd            @ -- Begin function RTC_AlarmCmd
	.globl	RTC_AlarmCmd
	.p2align	1
	.type	RTC_AlarmCmd,%function
	.code	16                      @ @RTC_AlarmCmd
	.thumb_func
RTC_AlarmCmd:
.Lfunc_begin19:
	.loc	3 1311 0                @ ../Libraries/STM32F4xx_StdPeriph_Driver/src/stm32f4xx_rtc.c:1311:0
	.fnstart
	.cfi_startproc
@ %bb.0:
	.pad	#4
	sub	sp, #4
	.cfi_def_cfa_offset 4
	@DEBUG_VALUE: RTC_AlarmCmd:RTC_Alarm <- $r0
	@DEBUG_VALUE: RTC_AlarmCmd:NewState <- $r1
	movs	r2, #0
	@DEBUG_VALUE: RTC_AlarmCmd:NewState <- $r1
	@DEBUG_VALUE: RTC_AlarmCmd:RTC_Alarm <- $r0
	movs	r3, #202
.Ltmp318:
	@DEBUG_VALUE: RTC_AlarmCmd:status <- 0
	@DEBUG_VALUE: RTC_AlarmCmd:alarmstatus <- 0
	.loc	3 1325 7 prologue_end   @ ../Libraries/STM32F4xx_StdPeriph_Driver/src/stm32f4xx_rtc.c:1325:7
	cmp	r1, #0
	.loc	3 1312 17               @ ../Libraries/STM32F4xx_StdPeriph_Driver/src/stm32f4xx_rtc.c:1312:17
	str	r2, [sp]
	movw	r2, #10248
	movt	r2, #16384
	.loc	3 1321 12               @ ../Libraries/STM32F4xx_StdPeriph_Driver/src/stm32f4xx_rtc.c:1321:12
	str	r3, [r2, #28]
	mov.w	r3, #83
	.loc	3 1322 12               @ ../Libraries/STM32F4xx_StdPeriph_Driver/src/stm32f4xx_rtc.c:1322:12
	str	r3, [r2, #28]
	.loc	3 1325 7                @ ../Libraries/STM32F4xx_StdPeriph_Driver/src/stm32f4xx_rtc.c:1325:7
	beq	.LBB19_2
.Ltmp319:
@ %bb.1:
	@DEBUG_VALUE: RTC_AlarmCmd:NewState <- $r1
	@DEBUG_VALUE: RTC_AlarmCmd:RTC_Alarm <- $r0
	.loc	3 1327 13               @ ../Libraries/STM32F4xx_StdPeriph_Driver/src/stm32f4xx_rtc.c:1327:13
	ldr	r1, [r2]
.Ltmp320:
	orrs	r0, r1
.Ltmp321:
	str	r0, [r2]
	movs	r0, #1
.Ltmp322:
	@DEBUG_VALUE: RTC_AlarmCmd:status <- 1
	.loc	3 0 13 is_stmt 0        @ ../Libraries/STM32F4xx_StdPeriph_Driver/src/stm32f4xx_rtc.c:0:13
	b	.LBB19_6
.Ltmp323:
.LBB19_2:
	@DEBUG_VALUE: RTC_AlarmCmd:NewState <- $r1
	@DEBUG_VALUE: RTC_AlarmCmd:RTC_Alarm <- $r0
	.loc	3 1334 13 is_stmt 1     @ ../Libraries/STM32F4xx_StdPeriph_Driver/src/stm32f4xx_rtc.c:1334:13
	ldr	r1, [r2]
.Ltmp324:
	bics	r1, r0
	lsrs	r0, r0, #8
.Ltmp325:
	str	r1, [r2]
	.p2align	2
.LBB19_3:                               @ =>This Inner Loop Header: Depth=1
.Ltmp326:
	.loc	3 1339 26               @ ../Libraries/STM32F4xx_StdPeriph_Driver/src/stm32f4xx_rtc.c:1339:26
	ldr	r3, [r2, #4]
.Ltmp327:
	@DEBUG_VALUE: RTC_AlarmCmd:alarmstatus <- undef
	.loc	3 1340 19               @ ../Libraries/STM32F4xx_StdPeriph_Driver/src/stm32f4xx_rtc.c:1340:19
	ldr	r1, [sp]
	adds	r1, #1
	.loc	3 1341 5                @ ../Libraries/STM32F4xx_StdPeriph_Driver/src/stm32f4xx_rtc.c:1341:5
	tst	r3, r0
	.loc	3 1340 19               @ ../Libraries/STM32F4xx_StdPeriph_Driver/src/stm32f4xx_rtc.c:1340:19
	str	r1, [sp]
.Ltmp328:
	.loc	3 1341 14               @ ../Libraries/STM32F4xx_StdPeriph_Driver/src/stm32f4xx_rtc.c:1341:14
	ldr	r1, [sp]
.Ltmp329:
	.loc	3 1341 5 is_stmt 0      @ ../Libraries/STM32F4xx_StdPeriph_Driver/src/stm32f4xx_rtc.c:1341:5
	bne	.LBB19_5
@ %bb.4:                                @   in Loop: Header=BB19_3 Depth=1
	cmp.w	r1, #65536
	bne	.LBB19_3
.Ltmp330:
.LBB19_5:
	.loc	3 1343 15 is_stmt 1     @ ../Libraries/STM32F4xx_StdPeriph_Driver/src/stm32f4xx_rtc.c:1343:15
	ldr	r1, [r2, #4]
	.loc	3 1343 19 is_stmt 0     @ ../Libraries/STM32F4xx_StdPeriph_Driver/src/stm32f4xx_rtc.c:1343:19
	ands	r0, r1
	.loc	3 1343 39               @ ../Libraries/STM32F4xx_StdPeriph_Driver/src/stm32f4xx_rtc.c:1343:39
	it	ne
	movne	r0, #1
.Ltmp331:
.LBB19_6:
	@DEBUG_VALUE: RTC_AlarmCmd:status <- $r0
	.loc	3 0 39                  @ ../Libraries/STM32F4xx_StdPeriph_Driver/src/stm32f4xx_rtc.c:0:39
	movs	r1, #255
	.loc	3 1354 12 is_stmt 1     @ ../Libraries/STM32F4xx_StdPeriph_Driver/src/stm32f4xx_rtc.c:1354:12
	str	r1, [r2, #28]
	.loc	3 1356 3                @ ../Libraries/STM32F4xx_StdPeriph_Driver/src/stm32f4xx_rtc.c:1356:3
	add	sp, #4
	bx	lr
.Ltmp332:
.Lfunc_end19:
	.size	RTC_AlarmCmd, .Lfunc_end19-RTC_AlarmCmd
	.cfi_endproc
	.cantunwind
	.fnend
                                        @ -- End function
	.section	.text.RTC_AlarmSubSecondConfig,"ax",%progbits
	.hidden	RTC_AlarmSubSecondConfig @ -- Begin function RTC_AlarmSubSecondConfig
	.globl	RTC_AlarmSubSecondConfig
	.p2align	1
	.type	RTC_AlarmSubSecondConfig,%function
	.code	16                      @ @RTC_AlarmSubSecondConfig
	.thumb_func
RTC_AlarmSubSecondConfig:
.Lfunc_begin20:
	.loc	3 1405 0                @ ../Libraries/STM32F4xx_StdPeriph_Driver/src/stm32f4xx_rtc.c:1405:0
	.fnstart
	.cfi_startproc
@ %bb.0:
	@DEBUG_VALUE: RTC_AlarmSubSecondConfig:RTC_Alarm <- $r0
	@DEBUG_VALUE: RTC_AlarmSubSecondConfig:RTC_AlarmSubSecondValue <- $r1
	@DEBUG_VALUE: RTC_AlarmSubSecondConfig:RTC_AlarmSubSecondMask <- $r2
	movw	r12, #10276
	movs	r3, #202
.Ltmp333:
	@DEBUG_VALUE: RTC_AlarmSubSecondConfig:tmpreg <- 0
	@DEBUG_VALUE: RTC_AlarmSubSecondConfig:RTC_AlarmSubSecondMask <- $r2
	@DEBUG_VALUE: RTC_AlarmSubSecondConfig:RTC_AlarmSubSecondValue <- $r1
	@DEBUG_VALUE: RTC_AlarmSubSecondConfig:RTC_Alarm <- $r0
	.loc	3 1420 7 prologue_end   @ ../Libraries/STM32F4xx_StdPeriph_Driver/src/stm32f4xx_rtc.c:1420:7
	cmp.w	r0, #256
	mov.w	r0, #255
.Ltmp334:
	.loc	3 1418 59               @ ../Libraries/STM32F4xx_StdPeriph_Driver/src/stm32f4xx_rtc.c:1418:59
	orr.w	r1, r1, r2
.Ltmp335:
	@DEBUG_VALUE: RTC_AlarmSubSecondConfig:tmpreg <- $r1
	.loc	3 0 59 is_stmt 0        @ ../Libraries/STM32F4xx_StdPeriph_Driver/src/stm32f4xx_rtc.c:0:59
	movt	r12, #16384
	.loc	3 1414 12 is_stmt 1     @ ../Libraries/STM32F4xx_StdPeriph_Driver/src/stm32f4xx_rtc.c:1414:12
	str.w	r3, [r12]
	mov.w	r3, #83
	.loc	3 1415 12               @ ../Libraries/STM32F4xx_StdPeriph_Driver/src/stm32f4xx_rtc.c:1415:12
	str.w	r3, [r12]
.Ltmp336:
	.loc	3 1428 19               @ ../Libraries/STM32F4xx_StdPeriph_Driver/src/stm32f4xx_rtc.c:1428:19
	ite	ne
	strne.w	r1, [r12, #36]
.Ltmp337:
	.loc	3 1423 19               @ ../Libraries/STM32F4xx_StdPeriph_Driver/src/stm32f4xx_rtc.c:1423:19
	streq.w	r1, [r12, #32]
.Ltmp338:
	.loc	3 1432 12               @ ../Libraries/STM32F4xx_StdPeriph_Driver/src/stm32f4xx_rtc.c:1432:12
	str.w	r0, [r12]
	.loc	3 1434 1                @ ../Libraries/STM32F4xx_StdPeriph_Driver/src/stm32f4xx_rtc.c:1434:1
	bx	lr
.Ltmp339:
.Lfunc_end20:
	.size	RTC_AlarmSubSecondConfig, .Lfunc_end20-RTC_AlarmSubSecondConfig
	.cfi_endproc
	.cantunwind
	.fnend
                                        @ -- End function
	.section	.text.RTC_GetAlarmSubSecond,"ax",%progbits
	.hidden	RTC_GetAlarmSubSecond   @ -- Begin function RTC_GetAlarmSubSecond
	.globl	RTC_GetAlarmSubSecond
	.p2align	1
	.type	RTC_GetAlarmSubSecond,%function
	.code	16                      @ @RTC_GetAlarmSubSecond
	.thumb_func
RTC_GetAlarmSubSecond:
.Lfunc_begin21:
	.loc	3 1446 0                @ ../Libraries/STM32F4xx_StdPeriph_Driver/src/stm32f4xx_rtc.c:1446:0
	.fnstart
	.cfi_startproc
@ %bb.0:
	@DEBUG_VALUE: RTC_GetAlarmSubSecond:RTC_Alarm <- $r0
	movw	r1, #10308
.Ltmp340:
	.loc	3 0 0 prologue_end      @ ../Libraries/STM32F4xx_StdPeriph_Driver/src/stm32f4xx_rtc.c:0:0
	cmp.w	r0, #256
	movt	r1, #16384
.Ltmp341:
	@DEBUG_VALUE: RTC_GetAlarmSubSecond:tmpreg <- 0
	@DEBUG_VALUE: RTC_GetAlarmSubSecond:RTC_Alarm <- $r0
	add.w	r1, r1, #4
	itt	eq
	movweq	r1, #10308
	movteq	r1, #16384
	ldr	r0, [r1]
.Ltmp342:
	bfc	r0, #15, #17
.Ltmp343:
	@DEBUG_VALUE: RTC_GetAlarmSubSecond:tmpreg <- $r0
	.loc	3 1459 3                @ ../Libraries/STM32F4xx_StdPeriph_Driver/src/stm32f4xx_rtc.c:1459:3
	bx	lr
.Ltmp344:
.Lfunc_end21:
	.size	RTC_GetAlarmSubSecond, .Lfunc_end21-RTC_GetAlarmSubSecond
	.cfi_endproc
	.cantunwind
	.fnend
                                        @ -- End function
	.section	.text.RTC_WakeUpClockConfig,"ax",%progbits
	.hidden	RTC_WakeUpClockConfig   @ -- Begin function RTC_WakeUpClockConfig
	.globl	RTC_WakeUpClockConfig
	.p2align	1
	.type	RTC_WakeUpClockConfig,%function
	.code	16                      @ @RTC_WakeUpClockConfig
	.thumb_func
RTC_WakeUpClockConfig:
.Lfunc_begin22:
	.loc	3 1495 0                @ ../Libraries/STM32F4xx_StdPeriph_Driver/src/stm32f4xx_rtc.c:1495:0
	.fnstart
	.cfi_startproc
@ %bb.0:
	@DEBUG_VALUE: RTC_WakeUpClockConfig:RTC_WakeUpClock <- $r0
	movw	r1, #10248
	movs	r2, #202
	@DEBUG_VALUE: RTC_WakeUpClockConfig:RTC_WakeUpClock <- $r0
	movt	r1, #16384
.Ltmp345:
	.loc	3 1500 12 prologue_end  @ ../Libraries/STM32F4xx_StdPeriph_Driver/src/stm32f4xx_rtc.c:1500:12
	str	r2, [r1, #28]
	movs	r2, #83
	.loc	3 1501 12               @ ../Libraries/STM32F4xx_StdPeriph_Driver/src/stm32f4xx_rtc.c:1501:12
	str	r2, [r1, #28]
	.loc	3 1504 11               @ ../Libraries/STM32F4xx_StdPeriph_Driver/src/stm32f4xx_rtc.c:1504:11
	ldr	r2, [r1]
	bic	r2, r2, #7
	str	r2, [r1]
	.loc	3 1507 11               @ ../Libraries/STM32F4xx_StdPeriph_Driver/src/stm32f4xx_rtc.c:1507:11
	ldr	r2, [r1]
	orrs	r0, r2
.Ltmp346:
	str	r0, [r1]
	movs	r0, #255
	.loc	3 1510 12               @ ../Libraries/STM32F4xx_StdPeriph_Driver/src/stm32f4xx_rtc.c:1510:12
	str	r0, [r1, #28]
	.loc	3 1511 1                @ ../Libraries/STM32F4xx_StdPeriph_Driver/src/stm32f4xx_rtc.c:1511:1
	bx	lr
.Ltmp347:
.Lfunc_end22:
	.size	RTC_WakeUpClockConfig, .Lfunc_end22-RTC_WakeUpClockConfig
	.cfi_endproc
	.cantunwind
	.fnend
                                        @ -- End function
	.section	.text.RTC_SetWakeUpCounter,"ax",%progbits
	.hidden	RTC_SetWakeUpCounter    @ -- Begin function RTC_SetWakeUpCounter
	.globl	RTC_SetWakeUpCounter
	.p2align	1
	.type	RTC_SetWakeUpCounter,%function
	.code	16                      @ @RTC_SetWakeUpCounter
	.thumb_func
RTC_SetWakeUpCounter:
.Lfunc_begin23:
	.loc	3 1522 0                @ ../Libraries/STM32F4xx_StdPeriph_Driver/src/stm32f4xx_rtc.c:1522:0
	.fnstart
	.cfi_startproc
@ %bb.0:
	@DEBUG_VALUE: RTC_SetWakeUpCounter:RTC_WakeUpCounter <- $r0
	movw	r1, #10276
	movs	r2, #202
	@DEBUG_VALUE: RTC_SetWakeUpCounter:RTC_WakeUpCounter <- $r0
	movt	r1, #16384
.Ltmp348:
	.loc	3 1527 12 prologue_end  @ ../Libraries/STM32F4xx_StdPeriph_Driver/src/stm32f4xx_rtc.c:1527:12
	str	r2, [r1]
	movs	r2, #83
	.loc	3 1528 12               @ ../Libraries/STM32F4xx_StdPeriph_Driver/src/stm32f4xx_rtc.c:1528:12
	str	r2, [r1]
	.loc	3 1531 13               @ ../Libraries/STM32F4xx_StdPeriph_Driver/src/stm32f4xx_rtc.c:1531:13
	str	r0, [r1, #-16]
	movs	r0, #255
.Ltmp349:
	.loc	3 1534 12               @ ../Libraries/STM32F4xx_StdPeriph_Driver/src/stm32f4xx_rtc.c:1534:12
	str	r0, [r1]
	.loc	3 1535 1                @ ../Libraries/STM32F4xx_StdPeriph_Driver/src/stm32f4xx_rtc.c:1535:1
	bx	lr
.Ltmp350:
.Lfunc_end23:
	.size	RTC_SetWakeUpCounter, .Lfunc_end23-RTC_SetWakeUpCounter
	.cfi_endproc
	.cantunwind
	.fnend
                                        @ -- End function
	.section	.text.RTC_GetWakeUpCounter,"ax",%progbits
	.hidden	RTC_GetWakeUpCounter    @ -- Begin function RTC_GetWakeUpCounter
	.globl	RTC_GetWakeUpCounter
	.p2align	1
	.type	RTC_GetWakeUpCounter,%function
	.code	16                      @ @RTC_GetWakeUpCounter
	.thumb_func
RTC_GetWakeUpCounter:
.Lfunc_begin24:
	.loc	3 1543 0                @ ../Libraries/STM32F4xx_StdPeriph_Driver/src/stm32f4xx_rtc.c:1543:0
	.fnstart
	.cfi_startproc
@ %bb.0:
	movw	r0, #10260
	movt	r0, #16384
.Ltmp351:
	.loc	3 1545 27 prologue_end  @ ../Libraries/STM32F4xx_StdPeriph_Driver/src/stm32f4xx_rtc.c:1545:27
	ldr	r0, [r0]
	.loc	3 1545 32 is_stmt 0     @ ../Libraries/STM32F4xx_StdPeriph_Driver/src/stm32f4xx_rtc.c:1545:32
	uxth	r0, r0
	.loc	3 1545 3                @ ../Libraries/STM32F4xx_StdPeriph_Driver/src/stm32f4xx_rtc.c:1545:3
	bx	lr
.Ltmp352:
.Lfunc_end24:
	.size	RTC_GetWakeUpCounter, .Lfunc_end24-RTC_GetWakeUpCounter
	.cfi_endproc
	.cantunwind
	.fnend
                                        @ -- End function
	.section	.text.RTC_WakeUpCmd,"ax",%progbits
	.hidden	RTC_WakeUpCmd           @ -- Begin function RTC_WakeUpCmd
	.globl	RTC_WakeUpCmd
	.p2align	1
	.type	RTC_WakeUpCmd,%function
	.code	16                      @ @RTC_WakeUpCmd
	.thumb_func
RTC_WakeUpCmd:
.Lfunc_begin25:
	.loc	3 1555 0 is_stmt 1      @ ../Libraries/STM32F4xx_StdPeriph_Driver/src/stm32f4xx_rtc.c:1555:0
	.fnstart
	.cfi_startproc
@ %bb.0:
	.pad	#4
	sub	sp, #4
	.cfi_def_cfa_offset 4
	@DEBUG_VALUE: RTC_WakeUpCmd:NewState <- $r0
	movs	r1, #0
	@DEBUG_VALUE: RTC_WakeUpCmd:NewState <- $r0
	movs	r2, #202
.Ltmp353:
	@DEBUG_VALUE: RTC_WakeUpCmd:status <- 0
	@DEBUG_VALUE: RTC_WakeUpCmd:wutwfstatus <- 0
	.loc	3 1567 7 prologue_end   @ ../Libraries/STM32F4xx_StdPeriph_Driver/src/stm32f4xx_rtc.c:1567:7
	cmp	r0, #0
	.loc	3 1556 17               @ ../Libraries/STM32F4xx_StdPeriph_Driver/src/stm32f4xx_rtc.c:1556:17
	str	r1, [sp]
	movw	r1, #10248
	movt	r1, #16384
	.loc	3 1564 12               @ ../Libraries/STM32F4xx_StdPeriph_Driver/src/stm32f4xx_rtc.c:1564:12
	str	r2, [r1, #28]
	mov.w	r2, #83
	.loc	3 1565 12               @ ../Libraries/STM32F4xx_StdPeriph_Driver/src/stm32f4xx_rtc.c:1565:12
	str	r2, [r1, #28]
.Ltmp354:
	.loc	3 0 0 is_stmt 0         @ ../Libraries/STM32F4xx_StdPeriph_Driver/src/stm32f4xx_rtc.c:0:0
	ldr	r2, [r1]
.Ltmp355:
	.loc	3 1567 7 is_stmt 1      @ ../Libraries/STM32F4xx_StdPeriph_Driver/src/stm32f4xx_rtc.c:1567:7
	beq	.LBB25_2
.Ltmp356:
@ %bb.1:
	@DEBUG_VALUE: RTC_WakeUpCmd:NewState <- $r0
	.loc	3 1570 13               @ ../Libraries/STM32F4xx_StdPeriph_Driver/src/stm32f4xx_rtc.c:1570:13
	orr	r0, r2, #1024
.Ltmp357:
	str	r0, [r1]
	movs	r0, #1
.Ltmp358:
	@DEBUG_VALUE: RTC_WakeUpCmd:status <- 1
	.loc	3 0 13 is_stmt 0        @ ../Libraries/STM32F4xx_StdPeriph_Driver/src/stm32f4xx_rtc.c:0:13
	b	.LBB25_6
.Ltmp359:
.LBB25_2:
	@DEBUG_VALUE: RTC_WakeUpCmd:NewState <- $r0
	.loc	3 1576 13 is_stmt 1     @ ../Libraries/STM32F4xx_StdPeriph_Driver/src/stm32f4xx_rtc.c:1576:13
	bic	r0, r2, #1024
.Ltmp360:
	str	r0, [r1]
	.p2align	2
.LBB25_3:                               @ =>This Inner Loop Header: Depth=1
.Ltmp361:
	.loc	3 1580 26               @ ../Libraries/STM32F4xx_StdPeriph_Driver/src/stm32f4xx_rtc.c:1580:26
	ldr	r0, [r1, #4]
.Ltmp362:
	@DEBUG_VALUE: RTC_WakeUpCmd:wutwfstatus <- undef
	.loc	3 1581 17               @ ../Libraries/STM32F4xx_StdPeriph_Driver/src/stm32f4xx_rtc.c:1581:17
	ldr	r2, [sp]
	adds	r2, #1
	.loc	3 1582 5                @ ../Libraries/STM32F4xx_StdPeriph_Driver/src/stm32f4xx_rtc.c:1582:5
	lsls	r0, r0, #29
	.loc	3 1581 17               @ ../Libraries/STM32F4xx_StdPeriph_Driver/src/stm32f4xx_rtc.c:1581:17
	str	r2, [sp]
.Ltmp363:
	.loc	3 1582 14               @ ../Libraries/STM32F4xx_StdPeriph_Driver/src/stm32f4xx_rtc.c:1582:14
	ldr	r0, [sp]
.Ltmp364:
	.loc	3 1582 5 is_stmt 0      @ ../Libraries/STM32F4xx_StdPeriph_Driver/src/stm32f4xx_rtc.c:1582:5
	bmi	.LBB25_5
@ %bb.4:                                @   in Loop: Header=BB25_3 Depth=1
	cmp.w	r0, #65536
	bne	.LBB25_3
.Ltmp365:
.LBB25_5:
	.loc	3 1584 15 is_stmt 1     @ ../Libraries/STM32F4xx_StdPeriph_Driver/src/stm32f4xx_rtc.c:1584:15
	ldr	r0, [r1, #4]
.Ltmp366:
	.loc	3 1584 9 is_stmt 0      @ ../Libraries/STM32F4xx_StdPeriph_Driver/src/stm32f4xx_rtc.c:1584:9
	ubfx	r0, r0, #2, #1
.Ltmp367:
.LBB25_6:
	@DEBUG_VALUE: RTC_WakeUpCmd:status <- $r0
	.loc	3 0 9                   @ ../Libraries/STM32F4xx_StdPeriph_Driver/src/stm32f4xx_rtc.c:0:9
	movs	r2, #255
	.loc	3 1595 12 is_stmt 1     @ ../Libraries/STM32F4xx_StdPeriph_Driver/src/stm32f4xx_rtc.c:1595:12
	str	r2, [r1, #28]
	.loc	3 1597 3                @ ../Libraries/STM32F4xx_StdPeriph_Driver/src/stm32f4xx_rtc.c:1597:3
	add	sp, #4
	bx	lr
.Ltmp368:
.Lfunc_end25:
	.size	RTC_WakeUpCmd, .Lfunc_end25-RTC_WakeUpCmd
	.cfi_endproc
	.cantunwind
	.fnend
                                        @ -- End function
	.section	.text.RTC_DayLightSavingConfig,"ax",%progbits
	.hidden	RTC_DayLightSavingConfig @ -- Begin function RTC_DayLightSavingConfig
	.globl	RTC_DayLightSavingConfig
	.p2align	1
	.type	RTC_DayLightSavingConfig,%function
	.code	16                      @ @RTC_DayLightSavingConfig
	.thumb_func
RTC_DayLightSavingConfig:
.Lfunc_begin26:
	.loc	3 1632 0                @ ../Libraries/STM32F4xx_StdPeriph_Driver/src/stm32f4xx_rtc.c:1632:0
	.fnstart
	.cfi_startproc
@ %bb.0:
	@DEBUG_VALUE: RTC_DayLightSavingConfig:RTC_DayLightSaving <- $r0
	@DEBUG_VALUE: RTC_DayLightSavingConfig:RTC_StoreOperation <- $r1
	movw	r2, #10248
	movs	r3, #202
	@DEBUG_VALUE: RTC_DayLightSavingConfig:RTC_StoreOperation <- $r1
	@DEBUG_VALUE: RTC_DayLightSavingConfig:RTC_DayLightSaving <- $r0
.Ltmp369:
	.loc	3 1645 44 prologue_end  @ ../Libraries/STM32F4xx_StdPeriph_Driver/src/stm32f4xx_rtc.c:1645:44
	orrs	r0, r1
.Ltmp370:
	.loc	3 0 44 is_stmt 0        @ ../Libraries/STM32F4xx_StdPeriph_Driver/src/stm32f4xx_rtc.c:0:44
	movt	r2, #16384
	.loc	3 1638 12 is_stmt 1     @ ../Libraries/STM32F4xx_StdPeriph_Driver/src/stm32f4xx_rtc.c:1638:12
	str	r3, [r2, #28]
	movs	r3, #83
	.loc	3 1639 12               @ ../Libraries/STM32F4xx_StdPeriph_Driver/src/stm32f4xx_rtc.c:1639:12
	str	r3, [r2, #28]
	.loc	3 1642 11               @ ../Libraries/STM32F4xx_StdPeriph_Driver/src/stm32f4xx_rtc.c:1642:11
	ldr	r3, [r2]
	bic	r3, r3, #262144
	str	r3, [r2]
	.loc	3 1645 11               @ ../Libraries/STM32F4xx_StdPeriph_Driver/src/stm32f4xx_rtc.c:1645:11
	ldr	r1, [r2]
.Ltmp371:
	orrs	r0, r1
	str	r0, [r2]
	movs	r0, #255
	.loc	3 1648 12               @ ../Libraries/STM32F4xx_StdPeriph_Driver/src/stm32f4xx_rtc.c:1648:12
	str	r0, [r2, #28]
	.loc	3 1649 1                @ ../Libraries/STM32F4xx_StdPeriph_Driver/src/stm32f4xx_rtc.c:1649:1
	bx	lr
.Ltmp372:
.Lfunc_end26:
	.size	RTC_DayLightSavingConfig, .Lfunc_end26-RTC_DayLightSavingConfig
	.cfi_endproc
	.cantunwind
	.fnend
                                        @ -- End function
	.section	.text.RTC_GetStoreOperation,"ax",%progbits
	.hidden	RTC_GetStoreOperation   @ -- Begin function RTC_GetStoreOperation
	.globl	RTC_GetStoreOperation
	.p2align	1
	.type	RTC_GetStoreOperation,%function
	.code	16                      @ @RTC_GetStoreOperation
	.thumb_func
RTC_GetStoreOperation:
.Lfunc_begin27:
	.loc	3 1659 0                @ ../Libraries/STM32F4xx_StdPeriph_Driver/src/stm32f4xx_rtc.c:1659:0
	.fnstart
	.cfi_startproc
@ %bb.0:
	movw	r0, #10248
	movt	r0, #16384
.Ltmp373:
	.loc	3 1660 16 prologue_end  @ ../Libraries/STM32F4xx_StdPeriph_Driver/src/stm32f4xx_rtc.c:1660:16
	ldr	r0, [r0]
	.loc	3 1660 19 is_stmt 0     @ ../Libraries/STM32F4xx_StdPeriph_Driver/src/stm32f4xx_rtc.c:1660:19
	and	r0, r0, #262144
	.loc	3 1660 3                @ ../Libraries/STM32F4xx_StdPeriph_Driver/src/stm32f4xx_rtc.c:1660:3
	bx	lr
.Ltmp374:
.Lfunc_end27:
	.size	RTC_GetStoreOperation, .Lfunc_end27-RTC_GetStoreOperation
	.cfi_endproc
	.cantunwind
	.fnend
                                        @ -- End function
	.section	.text.RTC_OutputConfig,"ax",%progbits
	.hidden	RTC_OutputConfig        @ -- Begin function RTC_OutputConfig
	.globl	RTC_OutputConfig
	.p2align	1
	.type	RTC_OutputConfig,%function
	.code	16                      @ @RTC_OutputConfig
	.thumb_func
RTC_OutputConfig:
.Lfunc_begin28:
	.loc	3 1698 0 is_stmt 1      @ ../Libraries/STM32F4xx_StdPeriph_Driver/src/stm32f4xx_rtc.c:1698:0
	.fnstart
	.cfi_startproc
@ %bb.0:
	@DEBUG_VALUE: RTC_OutputConfig:RTC_Output <- $r0
	@DEBUG_VALUE: RTC_OutputConfig:RTC_OutputPolarity <- $r1
	movw	r2, #10248
	movs	r3, #202
	@DEBUG_VALUE: RTC_OutputConfig:RTC_OutputPolarity <- $r1
	@DEBUG_VALUE: RTC_OutputConfig:RTC_Output <- $r0
.Ltmp375:
	.loc	3 1711 36 prologue_end  @ ../Libraries/STM32F4xx_StdPeriph_Driver/src/stm32f4xx_rtc.c:1711:36
	orrs	r0, r1
.Ltmp376:
	.loc	3 0 36 is_stmt 0        @ ../Libraries/STM32F4xx_StdPeriph_Driver/src/stm32f4xx_rtc.c:0:36
	movt	r2, #16384
	.loc	3 1704 12 is_stmt 1     @ ../Libraries/STM32F4xx_StdPeriph_Driver/src/stm32f4xx_rtc.c:1704:12
	str	r3, [r2, #28]
	movs	r3, #83
	.loc	3 1705 12               @ ../Libraries/STM32F4xx_StdPeriph_Driver/src/stm32f4xx_rtc.c:1705:12
	str	r3, [r2, #28]
	.loc	3 1708 11               @ ../Libraries/STM32F4xx_StdPeriph_Driver/src/stm32f4xx_rtc.c:1708:11
	ldr	r3, [r2]
	bic	r3, r3, #7340032
	str	r3, [r2]
	.loc	3 1711 11               @ ../Libraries/STM32F4xx_StdPeriph_Driver/src/stm32f4xx_rtc.c:1711:11
	ldr	r1, [r2]
.Ltmp377:
	orrs	r0, r1
	str	r0, [r2]
	movs	r0, #255
	.loc	3 1714 12               @ ../Libraries/STM32F4xx_StdPeriph_Driver/src/stm32f4xx_rtc.c:1714:12
	str	r0, [r2, #28]
	.loc	3 1715 1                @ ../Libraries/STM32F4xx_StdPeriph_Driver/src/stm32f4xx_rtc.c:1715:1
	bx	lr
.Ltmp378:
.Lfunc_end28:
	.size	RTC_OutputConfig, .Lfunc_end28-RTC_OutputConfig
	.cfi_endproc
	.cantunwind
	.fnend
                                        @ -- End function
	.section	.text.RTC_CoarseCalibConfig,"ax",%progbits
	.hidden	RTC_CoarseCalibConfig   @ -- Begin function RTC_CoarseCalibConfig
	.globl	RTC_CoarseCalibConfig
	.p2align	1
	.type	RTC_CoarseCalibConfig,%function
	.code	16                      @ @RTC_CoarseCalibConfig
	.thumb_func
RTC_CoarseCalibConfig:
.Lfunc_begin29:
	.loc	3 1752 0                @ ../Libraries/STM32F4xx_StdPeriph_Driver/src/stm32f4xx_rtc.c:1752:0
	.fnstart
	.cfi_startproc
@ %bb.0:
	.save	{r4, r5, r6, lr}
	push	{r4, r5, r6, lr}
	.cfi_def_cfa_offset 16
	.cfi_offset lr, -4
	.cfi_offset r6, -8
	.cfi_offset r5, -12
	.cfi_offset r4, -16
	@DEBUG_VALUE: RTC_CoarseCalibConfig:RTC_CalibSign <- $r0
	@DEBUG_VALUE: RTC_CoarseCalibConfig:Value <- $r1
	movw	r6, #10252
	mov	r5, r0
	movs	r0, #202
.Ltmp379:
	@DEBUG_VALUE: RTC_CoarseCalibConfig:status <- 0
	@DEBUG_VALUE: RTC_CoarseCalibConfig:Value <- $r4
	@DEBUG_VALUE: RTC_CoarseCalibConfig:RTC_CalibSign <- $r5
	mov	r4, r1
.Ltmp380:
	movt	r6, #16384
.Ltmp381:
	.loc	3 1760 12 prologue_end  @ ../Libraries/STM32F4xx_StdPeriph_Driver/src/stm32f4xx_rtc.c:1760:12
	str	r0, [r6, #24]
	movs	r0, #83
	.loc	3 1761 12               @ ../Libraries/STM32F4xx_StdPeriph_Driver/src/stm32f4xx_rtc.c:1761:12
	str	r0, [r6, #24]
.Ltmp382:
	.loc	3 1764 7                @ ../Libraries/STM32F4xx_StdPeriph_Driver/src/stm32f4xx_rtc.c:1764:7
	bl	RTC_EnterInitMode
.Ltmp383:
	.loc	3 1764 7 is_stmt 0      @ ../Libraries/STM32F4xx_StdPeriph_Driver/src/stm32f4xx_rtc.c:1764:7
	cbz	r0, .LBB29_2
.Ltmp384:
@ %bb.1:
	@DEBUG_VALUE: RTC_CoarseCalibConfig:RTC_CalibSign <- $r5
	.loc	3 1771 44 is_stmt 1     @ ../Libraries/STM32F4xx_StdPeriph_Driver/src/stm32f4xx_rtc.c:1771:44
	orr.w	r0, r4, r5
	.loc	3 1771 17 is_stmt 0     @ ../Libraries/STM32F4xx_StdPeriph_Driver/src/stm32f4xx_rtc.c:1771:17
	str	r0, [r6, #12]
.Ltmp385:
	.loc	3 600 12 is_stmt 1      @ ../Libraries/STM32F4xx_StdPeriph_Driver/src/stm32f4xx_rtc.c:600:12
	ldr	r0, [r6]
	bic	r0, r0, #128
	str	r0, [r6]
	movs	r0, #1
.Ltmp386:
	@DEBUG_VALUE: RTC_CoarseCalibConfig:status <- 1
	.loc	3 0 12 is_stmt 0        @ ../Libraries/STM32F4xx_StdPeriph_Driver/src/stm32f4xx_rtc.c:0:12
	b	.LBB29_3
.Ltmp387:
.LBB29_2:
	@DEBUG_VALUE: RTC_CoarseCalibConfig:RTC_CalibSign <- $r5
	movs	r0, #0
.Ltmp388:
.LBB29_3:
	@DEBUG_VALUE: RTC_CoarseCalibConfig:RTC_CalibSign <- $r5
	@DEBUG_VALUE: RTC_CoarseCalibConfig:status <- $r0
	movs	r1, #255
	.loc	3 1779 12 is_stmt 1     @ ../Libraries/STM32F4xx_StdPeriph_Driver/src/stm32f4xx_rtc.c:1779:12
	str	r1, [r6, #24]
	.loc	3 1781 3                @ ../Libraries/STM32F4xx_StdPeriph_Driver/src/stm32f4xx_rtc.c:1781:3
	pop	{r4, r5, r6, pc}
.Ltmp389:
.Lfunc_end29:
	.size	RTC_CoarseCalibConfig, .Lfunc_end29-RTC_CoarseCalibConfig
	.cfi_endproc
	.cantunwind
	.fnend
                                        @ -- End function
	.section	.text.RTC_CoarseCalibCmd,"ax",%progbits
	.hidden	RTC_CoarseCalibCmd      @ -- Begin function RTC_CoarseCalibCmd
	.globl	RTC_CoarseCalibCmd
	.p2align	1
	.type	RTC_CoarseCalibCmd,%function
	.code	16                      @ @RTC_CoarseCalibCmd
	.thumb_func
RTC_CoarseCalibCmd:
.Lfunc_begin30:
	.loc	3 1793 0                @ ../Libraries/STM32F4xx_StdPeriph_Driver/src/stm32f4xx_rtc.c:1793:0
	.fnstart
	.cfi_startproc
@ %bb.0:
	.save	{r4, r5, r7, lr}
	push	{r4, r5, r7, lr}
	.cfi_def_cfa_offset 16
	.cfi_offset lr, -4
	.cfi_offset r7, -8
	.cfi_offset r5, -12
	.cfi_offset r4, -16
	@DEBUG_VALUE: RTC_CoarseCalibCmd:NewState <- $r0
	movw	r5, #10248
	mov	r4, r0
	movs	r0, #202
.Ltmp390:
	@DEBUG_VALUE: RTC_CoarseCalibCmd:status <- 0
	@DEBUG_VALUE: RTC_CoarseCalibCmd:NewState <- $r4
	movt	r5, #16384
.Ltmp391:
	.loc	3 1800 12 prologue_end  @ ../Libraries/STM32F4xx_StdPeriph_Driver/src/stm32f4xx_rtc.c:1800:12
	str	r0, [r5, #28]
	movs	r0, #83
	.loc	3 1801 12               @ ../Libraries/STM32F4xx_StdPeriph_Driver/src/stm32f4xx_rtc.c:1801:12
	str	r0, [r5, #28]
.Ltmp392:
	.loc	3 1804 7                @ ../Libraries/STM32F4xx_StdPeriph_Driver/src/stm32f4xx_rtc.c:1804:7
	bl	RTC_EnterInitMode
.Ltmp393:
	.loc	3 1804 7 is_stmt 0      @ ../Libraries/STM32F4xx_StdPeriph_Driver/src/stm32f4xx_rtc.c:1804:7
	cbz	r0, .LBB30_2
.Ltmp394:
@ %bb.1:
	@DEBUG_VALUE: RTC_CoarseCalibCmd:NewState <- $r4
	.loc	3 0 0                   @ ../Libraries/STM32F4xx_StdPeriph_Driver/src/stm32f4xx_rtc.c:0:0
	ldr	r0, [r5]
.Ltmp395:
	.loc	3 1810 9 is_stmt 1      @ ../Libraries/STM32F4xx_StdPeriph_Driver/src/stm32f4xx_rtc.c:1810:9
	cmp	r4, #0
	orr	r1, r0, #128
	it	eq
	biceq	r1, r0, #128
.Ltmp396:
	.loc	3 0 0 is_stmt 0         @ ../Libraries/STM32F4xx_StdPeriph_Driver/src/stm32f4xx_rtc.c:0:0
	str	r1, [r5]
.Ltmp397:
	.loc	3 600 12 is_stmt 1      @ ../Libraries/STM32F4xx_StdPeriph_Driver/src/stm32f4xx_rtc.c:600:12
	ldr	r0, [r5, #4]
	bic	r0, r0, #128
	str	r0, [r5, #4]
	movs	r0, #1
.Ltmp398:
	@DEBUG_VALUE: RTC_CoarseCalibCmd:status <- 1
	.loc	3 0 12 is_stmt 0        @ ../Libraries/STM32F4xx_StdPeriph_Driver/src/stm32f4xx_rtc.c:0:12
	b	.LBB30_3
.Ltmp399:
.LBB30_2:
	@DEBUG_VALUE: RTC_CoarseCalibCmd:NewState <- $r4
	movs	r0, #0
.Ltmp400:
.LBB30_3:
	@DEBUG_VALUE: RTC_CoarseCalibCmd:NewState <- $r4
	@DEBUG_VALUE: RTC_CoarseCalibCmd:status <- $r0
	movs	r1, #255
	.loc	3 1827 12 is_stmt 1     @ ../Libraries/STM32F4xx_StdPeriph_Driver/src/stm32f4xx_rtc.c:1827:12
	str	r1, [r5, #28]
	.loc	3 1829 3                @ ../Libraries/STM32F4xx_StdPeriph_Driver/src/stm32f4xx_rtc.c:1829:3
	pop	{r4, r5, r7, pc}
.Ltmp401:
.Lfunc_end30:
	.size	RTC_CoarseCalibCmd, .Lfunc_end30-RTC_CoarseCalibCmd
	.cfi_endproc
	.cantunwind
	.fnend
                                        @ -- End function
	.section	.text.RTC_CalibOutputCmd,"ax",%progbits
	.hidden	RTC_CalibOutputCmd      @ -- Begin function RTC_CalibOutputCmd
	.globl	RTC_CalibOutputCmd
	.p2align	1
	.type	RTC_CalibOutputCmd,%function
	.code	16                      @ @RTC_CalibOutputCmd
	.thumb_func
RTC_CalibOutputCmd:
.Lfunc_begin31:
	.loc	3 1839 0                @ ../Libraries/STM32F4xx_StdPeriph_Driver/src/stm32f4xx_rtc.c:1839:0
	.fnstart
	.cfi_startproc
@ %bb.0:
	@DEBUG_VALUE: RTC_CalibOutputCmd:NewState <- $r0
	movw	r1, #10248
	movs	r2, #202
	@DEBUG_VALUE: RTC_CalibOutputCmd:NewState <- $r0
.Ltmp402:
	.loc	3 1847 7 prologue_end   @ ../Libraries/STM32F4xx_StdPeriph_Driver/src/stm32f4xx_rtc.c:1847:7
	cmp	r0, #0
	mov.w	r0, #255
.Ltmp403:
	.loc	3 0 7 is_stmt 0         @ ../Libraries/STM32F4xx_StdPeriph_Driver/src/stm32f4xx_rtc.c:0:7
	movt	r1, #16384
	.loc	3 1844 12 is_stmt 1     @ ../Libraries/STM32F4xx_StdPeriph_Driver/src/stm32f4xx_rtc.c:1844:12
	str	r2, [r1, #28]
	mov.w	r2, #83
	.loc	3 1845 12               @ ../Libraries/STM32F4xx_StdPeriph_Driver/src/stm32f4xx_rtc.c:1845:12
	str	r2, [r1, #28]
.Ltmp404:
	.loc	3 0 0 is_stmt 0         @ ../Libraries/STM32F4xx_StdPeriph_Driver/src/stm32f4xx_rtc.c:0:0
	ldr	r2, [r1]
.Ltmp405:
	.loc	3 1847 7 is_stmt 1      @ ../Libraries/STM32F4xx_StdPeriph_Driver/src/stm32f4xx_rtc.c:1847:7
	orr	r3, r2, #8388608
	it	eq
	biceq	r3, r2, #8388608
.Ltmp406:
	.loc	3 0 0 is_stmt 0         @ ../Libraries/STM32F4xx_StdPeriph_Driver/src/stm32f4xx_rtc.c:0:0
	str	r3, [r1]
.Ltmp407:
	.loc	3 1859 12 is_stmt 1     @ ../Libraries/STM32F4xx_StdPeriph_Driver/src/stm32f4xx_rtc.c:1859:12
	str	r0, [r1, #28]
	.loc	3 1860 1                @ ../Libraries/STM32F4xx_StdPeriph_Driver/src/stm32f4xx_rtc.c:1860:1
	bx	lr
.Ltmp408:
.Lfunc_end31:
	.size	RTC_CalibOutputCmd, .Lfunc_end31-RTC_CalibOutputCmd
	.cfi_endproc
	.cantunwind
	.fnend
                                        @ -- End function
	.section	.text.RTC_CalibOutputConfig,"ax",%progbits
	.hidden	RTC_CalibOutputConfig   @ -- Begin function RTC_CalibOutputConfig
	.globl	RTC_CalibOutputConfig
	.p2align	1
	.type	RTC_CalibOutputConfig,%function
	.code	16                      @ @RTC_CalibOutputConfig
	.thumb_func
RTC_CalibOutputConfig:
.Lfunc_begin32:
	.loc	3 1871 0                @ ../Libraries/STM32F4xx_StdPeriph_Driver/src/stm32f4xx_rtc.c:1871:0
	.fnstart
	.cfi_startproc
@ %bb.0:
	@DEBUG_VALUE: RTC_CalibOutputConfig:RTC_CalibOutput <- $r0
	movw	r1, #10248
	movs	r2, #202
	@DEBUG_VALUE: RTC_CalibOutputConfig:RTC_CalibOutput <- $r0
	movt	r1, #16384
.Ltmp409:
	.loc	3 1876 12 prologue_end  @ ../Libraries/STM32F4xx_StdPeriph_Driver/src/stm32f4xx_rtc.c:1876:12
	str	r2, [r1, #28]
	movs	r2, #83
	.loc	3 1877 12               @ ../Libraries/STM32F4xx_StdPeriph_Driver/src/stm32f4xx_rtc.c:1877:12
	str	r2, [r1, #28]
	.loc	3 1880 11               @ ../Libraries/STM32F4xx_StdPeriph_Driver/src/stm32f4xx_rtc.c:1880:11
	ldr	r2, [r1]
	bic	r2, r2, #524288
	str	r2, [r1]
	.loc	3 1883 11               @ ../Libraries/STM32F4xx_StdPeriph_Driver/src/stm32f4xx_rtc.c:1883:11
	ldr	r2, [r1]
	orrs	r0, r2
.Ltmp410:
	str	r0, [r1]
	movs	r0, #255
	.loc	3 1886 12               @ ../Libraries/STM32F4xx_StdPeriph_Driver/src/stm32f4xx_rtc.c:1886:12
	str	r0, [r1, #28]
	.loc	3 1887 1                @ ../Libraries/STM32F4xx_StdPeriph_Driver/src/stm32f4xx_rtc.c:1887:1
	bx	lr
.Ltmp411:
.Lfunc_end32:
	.size	RTC_CalibOutputConfig, .Lfunc_end32-RTC_CalibOutputConfig
	.cfi_endproc
	.cantunwind
	.fnend
                                        @ -- End function
	.section	.text.RTC_SmoothCalibConfig,"ax",%progbits
	.hidden	RTC_SmoothCalibConfig   @ -- Begin function RTC_SmoothCalibConfig
	.globl	RTC_SmoothCalibConfig
	.p2align	1
	.type	RTC_SmoothCalibConfig,%function
	.code	16                      @ @RTC_SmoothCalibConfig
	.thumb_func
RTC_SmoothCalibConfig:
.Lfunc_begin33:
	.loc	3 1909 0                @ ../Libraries/STM32F4xx_StdPeriph_Driver/src/stm32f4xx_rtc.c:1909:0
	.fnstart
	.cfi_startproc
@ %bb.0:
	.save	{r4, lr}
	push	{r4, lr}
	.cfi_def_cfa_offset 8
	.cfi_offset lr, -4
	.cfi_offset r4, -8
	@DEBUG_VALUE: RTC_SmoothCalibConfig:RTC_SmoothCalibPeriod <- $r0
	@DEBUG_VALUE: RTC_SmoothCalibConfig:RTC_SmoothCalibPlusPulses <- $r1
	@DEBUG_VALUE: RTC_SmoothCalibConfig:RTC_SmouthCalibMinusPulsesValue <- $r2
	movw	r12, #10252
	movs	r3, #202
.Ltmp412:
	@DEBUG_VALUE: RTC_SmoothCalibConfig:recalpfcount <- 0
	@DEBUG_VALUE: RTC_SmoothCalibConfig:status <- 0
	@DEBUG_VALUE: RTC_SmoothCalibConfig:RTC_SmouthCalibMinusPulsesValue <- $r2
	@DEBUG_VALUE: RTC_SmoothCalibConfig:RTC_SmoothCalibPlusPulses <- $r1
	@DEBUG_VALUE: RTC_SmoothCalibConfig:RTC_SmoothCalibPeriod <- $r0
	movt	r12, #16384
.Ltmp413:
	.loc	3 1919 12 prologue_end  @ ../Libraries/STM32F4xx_StdPeriph_Driver/src/stm32f4xx_rtc.c:1919:12
	str.w	r3, [r12, #24]
	movs	r3, #83
	.loc	3 1920 12               @ ../Libraries/STM32F4xx_StdPeriph_Driver/src/stm32f4xx_rtc.c:1920:12
	str.w	r3, [r12, #24]
.Ltmp414:
	.loc	3 1923 13               @ ../Libraries/STM32F4xx_StdPeriph_Driver/src/stm32f4xx_rtc.c:1923:13
	ldr.w	r3, [r12]
.Ltmp415:
	.loc	3 1923 7 is_stmt 0      @ ../Libraries/STM32F4xx_StdPeriph_Driver/src/stm32f4xx_rtc.c:1923:7
	lsls	r3, r3, #15
	bpl	.LBB33_4
.Ltmp416:
@ %bb.1:
	@DEBUG_VALUE: RTC_SmoothCalibConfig:RTC_SmouthCalibMinusPulsesValue <- $r2
	@DEBUG_VALUE: RTC_SmoothCalibConfig:RTC_SmoothCalibPlusPulses <- $r1
	@DEBUG_VALUE: RTC_SmoothCalibConfig:RTC_SmoothCalibPeriod <- $r0
	.loc	3 0 7                   @ ../Libraries/STM32F4xx_StdPeriph_Driver/src/stm32f4xx_rtc.c:0:7
	mov.w	r4, #131072
.Ltmp417:
	.p2align	2
.LBB33_2:                               @ =>This Inner Loop Header: Depth=1
	@DEBUG_VALUE: RTC_SmoothCalibConfig:RTC_SmouthCalibMinusPulsesValue <- $r2
	@DEBUG_VALUE: RTC_SmoothCalibConfig:RTC_SmoothCalibPlusPulses <- $r1
	@DEBUG_VALUE: RTC_SmoothCalibConfig:RTC_SmoothCalibPeriod <- $r0
	@DEBUG_VALUE: RTC_SmoothCalibConfig:recalpfcount <- undef
	@DEBUG_VALUE: RTC_SmoothCalibConfig:recalpfcount <- [DW_OP_plus_uconst 1, DW_OP_stack_value] undef
	.loc	3 1926 19 is_stmt 1     @ ../Libraries/STM32F4xx_StdPeriph_Driver/src/stm32f4xx_rtc.c:1926:19
	ldr.w	lr, [r12]
	.loc	3 1926 5 is_stmt 0      @ ../Libraries/STM32F4xx_StdPeriph_Driver/src/stm32f4xx_rtc.c:1926:5
	cbz	r4, .LBB33_4
.Ltmp418:
@ %bb.3:                                @   in Loop: Header=BB33_2 Depth=1
	@DEBUG_VALUE: RTC_SmoothCalibConfig:RTC_SmouthCalibMinusPulsesValue <- $r2
	@DEBUG_VALUE: RTC_SmoothCalibConfig:RTC_SmoothCalibPlusPulses <- $r1
	@DEBUG_VALUE: RTC_SmoothCalibConfig:RTC_SmoothCalibPeriod <- $r0
	.loc	3 0 0                   @ ../Libraries/STM32F4xx_StdPeriph_Driver/src/stm32f4xx_rtc.c:0:0
	subs	r4, #1
	ands	r3, lr, #65536
	.loc	3 1926 5                @ ../Libraries/STM32F4xx_StdPeriph_Driver/src/stm32f4xx_rtc.c:1926:5
	bne	.LBB33_2
.Ltmp419:
.LBB33_4:
	@DEBUG_VALUE: RTC_SmoothCalibConfig:RTC_SmouthCalibMinusPulsesValue <- $r2
	@DEBUG_VALUE: RTC_SmoothCalibConfig:RTC_SmoothCalibPlusPulses <- $r1
	@DEBUG_VALUE: RTC_SmoothCalibConfig:RTC_SmoothCalibPeriod <- $r0
	.loc	3 1933 13 is_stmt 1     @ ../Libraries/STM32F4xx_StdPeriph_Driver/src/stm32f4xx_rtc.c:1933:13
	ldr.w	r3, [r12]
.Ltmp420:
	.loc	3 1933 7 is_stmt 0      @ ../Libraries/STM32F4xx_StdPeriph_Driver/src/stm32f4xx_rtc.c:1933:7
	lsls	r3, r3, #15
	bmi	.LBB33_6
.Ltmp421:
@ %bb.5:
	@DEBUG_VALUE: RTC_SmoothCalibConfig:RTC_SmouthCalibMinusPulsesValue <- $r2
	@DEBUG_VALUE: RTC_SmoothCalibConfig:RTC_SmoothCalibPlusPulses <- $r1
	@DEBUG_VALUE: RTC_SmoothCalibConfig:RTC_SmoothCalibPeriod <- $r0
	.loc	3 1936 60 is_stmt 1     @ ../Libraries/STM32F4xx_StdPeriph_Driver/src/stm32f4xx_rtc.c:1936:60
	orrs	r0, r1
.Ltmp422:
	.loc	3 1936 98 is_stmt 0     @ ../Libraries/STM32F4xx_StdPeriph_Driver/src/stm32f4xx_rtc.c:1936:98
	orrs	r0, r2
	.loc	3 1936 15               @ ../Libraries/STM32F4xx_StdPeriph_Driver/src/stm32f4xx_rtc.c:1936:15
	str.w	r0, [r12, #48]
	movs	r0, #1
.Ltmp423:
	@DEBUG_VALUE: RTC_SmoothCalibConfig:status <- 1
	.loc	3 0 15                  @ ../Libraries/STM32F4xx_StdPeriph_Driver/src/stm32f4xx_rtc.c:0:15
	b	.LBB33_7
.Ltmp424:
.LBB33_6:
	@DEBUG_VALUE: RTC_SmoothCalibConfig:RTC_SmouthCalibMinusPulsesValue <- $r2
	@DEBUG_VALUE: RTC_SmoothCalibConfig:RTC_SmoothCalibPlusPulses <- $r1
	@DEBUG_VALUE: RTC_SmoothCalibConfig:RTC_SmoothCalibPeriod <- $r0
	movs	r0, #0
.Ltmp425:
.LBB33_7:
	@DEBUG_VALUE: RTC_SmoothCalibConfig:RTC_SmouthCalibMinusPulsesValue <- $r2
	@DEBUG_VALUE: RTC_SmoothCalibConfig:RTC_SmoothCalibPlusPulses <- $r1
	@DEBUG_VALUE: RTC_SmoothCalibConfig:status <- $r0
	movs	r1, #255
.Ltmp426:
	.loc	3 1946 12 is_stmt 1     @ ../Libraries/STM32F4xx_StdPeriph_Driver/src/stm32f4xx_rtc.c:1946:12
	str.w	r1, [r12, #24]
	.loc	3 1948 3                @ ../Libraries/STM32F4xx_StdPeriph_Driver/src/stm32f4xx_rtc.c:1948:3
	pop	{r4, pc}
.Ltmp427:
.Lfunc_end33:
	.size	RTC_SmoothCalibConfig, .Lfunc_end33-RTC_SmoothCalibConfig
	.cfi_endproc
	.cantunwind
	.fnend
                                        @ -- End function
	.section	.text.RTC_TimeStampCmd,"ax",%progbits
	.hidden	RTC_TimeStampCmd        @ -- Begin function RTC_TimeStampCmd
	.globl	RTC_TimeStampCmd
	.p2align	1
	.type	RTC_TimeStampCmd,%function
	.code	16                      @ @RTC_TimeStampCmd
	.thumb_func
RTC_TimeStampCmd:
.Lfunc_begin34:
	.loc	3 1983 0                @ ../Libraries/STM32F4xx_StdPeriph_Driver/src/stm32f4xx_rtc.c:1983:0
	.fnstart
	.cfi_startproc
@ %bb.0:
	@DEBUG_VALUE: RTC_TimeStampCmd:RTC_TimeStampEdge <- $r0
	@DEBUG_VALUE: RTC_TimeStampCmd:NewState <- $r1
	movw	r2, #10248
	movs	r3, #202
.Ltmp428:
	.loc	3 1994 7 prologue_end   @ ../Libraries/STM32F4xx_StdPeriph_Driver/src/stm32f4xx_rtc.c:1994:7
	cmp	r1, #0
	movw	r1, #2056
.Ltmp429:
	.loc	3 0 7 is_stmt 0         @ ../Libraries/STM32F4xx_StdPeriph_Driver/src/stm32f4xx_rtc.c:0:7
	movt	r2, #16384
.Ltmp430:
	@DEBUG_VALUE: RTC_TimeStampCmd:tmpreg <- 0
	@DEBUG_VALUE: RTC_TimeStampCmd:NewState <- $r1
	@DEBUG_VALUE: RTC_TimeStampCmd:RTC_TimeStampEdge <- $r0
	.loc	3 1991 28 is_stmt 1     @ ../Libraries/STM32F4xx_StdPeriph_Driver/src/stm32f4xx_rtc.c:1991:28
	ldr.w	r12, [r2]
	.loc	3 2004 12               @ ../Libraries/STM32F4xx_StdPeriph_Driver/src/stm32f4xx_rtc.c:2004:12
	str	r3, [r2, #28]
	mov.w	r3, #83
	.loc	3 2005 12               @ ../Libraries/STM32F4xx_StdPeriph_Driver/src/stm32f4xx_rtc.c:2005:12
	str	r3, [r2, #28]
	.loc	3 1994 7                @ ../Libraries/STM32F4xx_StdPeriph_Driver/src/stm32f4xx_rtc.c:1994:7
	it	ne
	orrne	r0, r0, #2048
.Ltmp431:
	.loc	3 1991 31               @ ../Libraries/STM32F4xx_StdPeriph_Driver/src/stm32f4xx_rtc.c:1991:31
	bic.w	r1, r12, r1
.Ltmp432:
	@DEBUG_VALUE: RTC_TimeStampCmd:tmpreg <- $r1
	.loc	3 0 0 is_stmt 0         @ ../Libraries/STM32F4xx_StdPeriph_Driver/src/stm32f4xx_rtc.c:0:0
	orrs	r0, r1
.Ltmp433:
	@DEBUG_VALUE: RTC_TimeStampCmd:tmpreg <- $r0
	.loc	3 2008 11 is_stmt 1     @ ../Libraries/STM32F4xx_StdPeriph_Driver/src/stm32f4xx_rtc.c:2008:11
	str	r0, [r2]
	movs	r0, #255
.Ltmp434:
	.loc	3 2011 12               @ ../Libraries/STM32F4xx_StdPeriph_Driver/src/stm32f4xx_rtc.c:2011:12
	str	r0, [r2, #28]
	.loc	3 2012 1                @ ../Libraries/STM32F4xx_StdPeriph_Driver/src/stm32f4xx_rtc.c:2012:1
	bx	lr
.Ltmp435:
.Lfunc_end34:
	.size	RTC_TimeStampCmd, .Lfunc_end34-RTC_TimeStampCmd
	.cfi_endproc
	.cantunwind
	.fnend
                                        @ -- End function
	.section	.text.RTC_GetTimeStamp,"ax",%progbits
	.hidden	RTC_GetTimeStamp        @ -- Begin function RTC_GetTimeStamp
	.globl	RTC_GetTimeStamp
	.p2align	1
	.type	RTC_GetTimeStamp,%function
	.code	16                      @ @RTC_GetTimeStamp
	.thumb_func
RTC_GetTimeStamp:
.Lfunc_begin35:
	.loc	3 2028 0                @ ../Libraries/STM32F4xx_StdPeriph_Driver/src/stm32f4xx_rtc.c:2028:0
	.fnstart
	.cfi_startproc
@ %bb.0:
	.save	{r4, lr}
	push	{r4, lr}
	.cfi_def_cfa_offset 8
	.cfi_offset lr, -4
	.cfi_offset r4, -8
	@DEBUG_VALUE: RTC_GetTimeStamp:RTC_Format <- $r0
	@DEBUG_VALUE: RTC_GetTimeStamp:RTC_StampTimeStruct <- $r1
	@DEBUG_VALUE: RTC_GetTimeStamp:RTC_StampDateStruct <- $r2
	movw	r12, #10288
	movs	r3, #64
.Ltmp436:
	.loc	3 2051 7 prologue_end   @ ../Libraries/STM32F4xx_StdPeriph_Driver/src/stm32f4xx_rtc.c:2051:7
	cmp	r0, #0
	movt	r12, #16384
.Ltmp437:
	@DEBUG_VALUE: RTC_GetTimeStamp:tmpdate <- 0
	@DEBUG_VALUE: RTC_GetTimeStamp:tmptime <- 0
	@DEBUG_VALUE: RTC_GetTimeStamp:RTC_StampDateStruct <- $r2
	@DEBUG_VALUE: RTC_GetTimeStamp:RTC_StampTimeStruct <- $r1
	@DEBUG_VALUE: RTC_GetTimeStamp:RTC_Format <- $r0
	.loc	3 2035 29               @ ../Libraries/STM32F4xx_StdPeriph_Driver/src/stm32f4xx_rtc.c:2035:29
	ldr.w	lr, [r12]
.Ltmp438:
	@DEBUG_VALUE: RTC_GetTimeStamp:tmptime <- [DW_OP_constu 8355711, DW_OP_and, DW_OP_stack_value] $lr
	.loc	3 2042 34               @ ../Libraries/STM32F4xx_StdPeriph_Driver/src/stm32f4xx_rtc.c:2042:34
	and.w	r4, r3, lr, lsr #16
	.loc	3 2036 29               @ ../Libraries/STM32F4xx_StdPeriph_Driver/src/stm32f4xx_rtc.c:2036:29
	ldr.w	r3, [r12, #4]
.Ltmp439:
	@DEBUG_VALUE: RTC_GetTimeStamp:tmpdate <- [DW_OP_constu 16777023, DW_OP_and, DW_OP_stack_value] $r3
	.loc	3 2042 32               @ ../Libraries/STM32F4xx_StdPeriph_Driver/src/stm32f4xx_rtc.c:2042:32
	strb	r4, [r1, #3]
	.loc	3 2041 38               @ ../Libraries/STM32F4xx_StdPeriph_Driver/src/stm32f4xx_rtc.c:2041:38
	and	r4, lr, #127
	.loc	3 2041 36 is_stmt 0     @ ../Libraries/STM32F4xx_StdPeriph_Driver/src/stm32f4xx_rtc.c:2041:36
	strb	r4, [r1, #2]
	.loc	3 2040 38 is_stmt 1     @ ../Libraries/STM32F4xx_StdPeriph_Driver/src/stm32f4xx_rtc.c:2040:38
	ubfx	r4, lr, #8, #7
	.loc	3 2040 36 is_stmt 0     @ ../Libraries/STM32F4xx_StdPeriph_Driver/src/stm32f4xx_rtc.c:2040:36
	strb	r4, [r1, #1]
	.loc	3 2039 36 is_stmt 1     @ ../Libraries/STM32F4xx_StdPeriph_Driver/src/stm32f4xx_rtc.c:2039:36
	ubfx	r4, lr, #16, #6
	.loc	3 2039 34 is_stmt 0     @ ../Libraries/STM32F4xx_StdPeriph_Driver/src/stm32f4xx_rtc.c:2039:34
	strb	r4, [r1]
	.loc	3 2047 35 is_stmt 1     @ ../Libraries/STM32F4xx_StdPeriph_Driver/src/stm32f4xx_rtc.c:2047:35
	and	r4, r3, #63
	.loc	3 2047 33 is_stmt 0     @ ../Libraries/STM32F4xx_StdPeriph_Driver/src/stm32f4xx_rtc.c:2047:33
	strb	r4, [r2, #2]
	.loc	3 2046 36 is_stmt 1     @ ../Libraries/STM32F4xx_StdPeriph_Driver/src/stm32f4xx_rtc.c:2046:36
	ubfx	r4, r3, #8, #5
	.loc	3 2046 34 is_stmt 0     @ ../Libraries/STM32F4xx_StdPeriph_Driver/src/stm32f4xx_rtc.c:2046:34
	strb	r4, [r2, #1]
	mov.w	r4, #0
	.loc	3 2045 33 is_stmt 1     @ ../Libraries/STM32F4xx_StdPeriph_Driver/src/stm32f4xx_rtc.c:2045:33
	strb	r4, [r2, #3]
	.loc	3 2048 38               @ ../Libraries/STM32F4xx_StdPeriph_Driver/src/stm32f4xx_rtc.c:2048:38
	ubfx	r3, r3, #13, #3
.Ltmp440:
	.loc	3 2048 36 is_stmt 0     @ ../Libraries/STM32F4xx_StdPeriph_Driver/src/stm32f4xx_rtc.c:2048:36
	strb	r3, [r2]
	.loc	3 2051 7 is_stmt 1      @ ../Libraries/STM32F4xx_StdPeriph_Driver/src/stm32f4xx_rtc.c:2051:7
	beq	.LBB35_2
.Ltmp441:
@ %bb.1:
	@DEBUG_VALUE: RTC_GetTimeStamp:tmptime <- [DW_OP_constu 8355711, DW_OP_and, DW_OP_stack_value] $lr
	@DEBUG_VALUE: RTC_GetTimeStamp:RTC_StampDateStruct <- $r2
	@DEBUG_VALUE: RTC_GetTimeStamp:RTC_StampTimeStruct <- $r1
	@DEBUG_VALUE: RTC_GetTimeStamp:RTC_Format <- $r0
	.loc	3 2063 1                @ ../Libraries/STM32F4xx_StdPeriph_Driver/src/stm32f4xx_rtc.c:2063:1
	pop	{r4, pc}
.Ltmp442:
.LBB35_2:
	@DEBUG_VALUE: RTC_GetTimeStamp:tmptime <- [DW_OP_constu 8355711, DW_OP_and, DW_OP_stack_value] $lr
	@DEBUG_VALUE: RTC_GetTimeStamp:RTC_StampDateStruct <- $r2
	@DEBUG_VALUE: RTC_GetTimeStamp:RTC_StampTimeStruct <- $r1
	@DEBUG_VALUE: RTC_GetTimeStamp:RTC_Format <- $r0
	.loc	3 2054 83               @ ../Libraries/STM32F4xx_StdPeriph_Driver/src/stm32f4xx_rtc.c:2054:83
	ldrb	r0, [r1]
.Ltmp443:
	.loc	3 2055 85               @ ../Libraries/STM32F4xx_StdPeriph_Driver/src/stm32f4xx_rtc.c:2055:85
	ldrb	r3, [r1, #1]
	.loc	3 2056 85               @ ../Libraries/STM32F4xx_StdPeriph_Driver/src/stm32f4xx_rtc.c:2056:85
	ldrb	r4, [r1, #2]
.Ltmp444:
	@DEBUG_VALUE: RTC_Bcd2ToByte:tmp <- undef
	@DEBUG_VALUE: RTC_Bcd2ToByte:Value <- $r0
	.loc	3 2746 24               @ ../Libraries/STM32F4xx_StdPeriph_Driver/src/stm32f4xx_rtc.c:2746:24
	and	r12, r0, #15
.Ltmp445:
	@DEBUG_VALUE: RTC_Bcd2ToByte:tmp <- 0
	.loc	3 2745 43               @ ../Libraries/STM32F4xx_StdPeriph_Driver/src/stm32f4xx_rtc.c:2745:43
	lsrs	r0, r0, #4
.Ltmp446:
	.loc	3 2745 60 is_stmt 0     @ ../Libraries/STM32F4xx_StdPeriph_Driver/src/stm32f4xx_rtc.c:2745:60
	add.w	r0, r0, r0, lsl #2
	.loc	3 2746 15 is_stmt 1     @ ../Libraries/STM32F4xx_StdPeriph_Driver/src/stm32f4xx_rtc.c:2746:15
	add.w	r0, r12, r0, lsl #1
.Ltmp447:
	.loc	3 2054 36               @ ../Libraries/STM32F4xx_StdPeriph_Driver/src/stm32f4xx_rtc.c:2054:36
	strb	r0, [r1]
.Ltmp448:
	@DEBUG_VALUE: RTC_Bcd2ToByte:tmp <- undef
	@DEBUG_VALUE: RTC_Bcd2ToByte:Value <- $r3
	.loc	3 2746 24               @ ../Libraries/STM32F4xx_StdPeriph_Driver/src/stm32f4xx_rtc.c:2746:24
	and	r0, r3, #15
.Ltmp449:
	@DEBUG_VALUE: RTC_Bcd2ToByte:tmp <- 0
	.loc	3 2745 43               @ ../Libraries/STM32F4xx_StdPeriph_Driver/src/stm32f4xx_rtc.c:2745:43
	lsrs	r3, r3, #4
.Ltmp450:
	.loc	3 2745 60 is_stmt 0     @ ../Libraries/STM32F4xx_StdPeriph_Driver/src/stm32f4xx_rtc.c:2745:60
	add.w	r3, r3, r3, lsl #2
	.loc	3 2746 15 is_stmt 1     @ ../Libraries/STM32F4xx_StdPeriph_Driver/src/stm32f4xx_rtc.c:2746:15
	add.w	r0, r0, r3, lsl #1
.Ltmp451:
	.loc	3 2745 43               @ ../Libraries/STM32F4xx_StdPeriph_Driver/src/stm32f4xx_rtc.c:2745:43
	lsrs	r3, r4, #4
.Ltmp452:
	.loc	3 2055 38               @ ../Libraries/STM32F4xx_StdPeriph_Driver/src/stm32f4xx_rtc.c:2055:38
	strb	r0, [r1, #1]
.Ltmp453:
	@DEBUG_VALUE: RTC_Bcd2ToByte:tmp <- undef
	@DEBUG_VALUE: RTC_Bcd2ToByte:Value <- $r4
	.loc	3 2746 24               @ ../Libraries/STM32F4xx_StdPeriph_Driver/src/stm32f4xx_rtc.c:2746:24
	and	r0, r4, #15
.Ltmp454:
	@DEBUG_VALUE: RTC_Bcd2ToByte:tmp <- 0
	.loc	3 2745 60               @ ../Libraries/STM32F4xx_StdPeriph_Driver/src/stm32f4xx_rtc.c:2745:60
	add.w	r3, r3, r3, lsl #2
	.loc	3 2746 15               @ ../Libraries/STM32F4xx_StdPeriph_Driver/src/stm32f4xx_rtc.c:2746:15
	add.w	r0, r0, r3, lsl #1
.Ltmp455:
	.loc	3 2056 38               @ ../Libraries/STM32F4xx_StdPeriph_Driver/src/stm32f4xx_rtc.c:2056:38
	strb	r0, [r1, #2]
	.loc	3 2059 83               @ ../Libraries/STM32F4xx_StdPeriph_Driver/src/stm32f4xx_rtc.c:2059:83
	ldrb	r1, [r2, #1]
.Ltmp456:
	.loc	3 2060 82               @ ../Libraries/STM32F4xx_StdPeriph_Driver/src/stm32f4xx_rtc.c:2060:82
	ldrb	r3, [r2, #2]
.Ltmp457:
	@DEBUG_VALUE: RTC_Bcd2ToByte:tmp <- undef
	@DEBUG_VALUE: RTC_Bcd2ToByte:Value <- $r1
	.loc	3 2061 85               @ ../Libraries/STM32F4xx_StdPeriph_Driver/src/stm32f4xx_rtc.c:2061:85
	ldrb	r0, [r2]
.Ltmp458:
	.loc	3 2746 24               @ ../Libraries/STM32F4xx_StdPeriph_Driver/src/stm32f4xx_rtc.c:2746:24
	and	r4, r1, #15
.Ltmp459:
	@DEBUG_VALUE: RTC_Bcd2ToByte:tmp <- 0
	.loc	3 2745 43               @ ../Libraries/STM32F4xx_StdPeriph_Driver/src/stm32f4xx_rtc.c:2745:43
	lsrs	r1, r1, #4
.Ltmp460:
	.loc	3 2745 60 is_stmt 0     @ ../Libraries/STM32F4xx_StdPeriph_Driver/src/stm32f4xx_rtc.c:2745:60
	add.w	r1, r1, r1, lsl #2
	.loc	3 2746 15 is_stmt 1     @ ../Libraries/STM32F4xx_StdPeriph_Driver/src/stm32f4xx_rtc.c:2746:15
	add.w	r1, r4, r1, lsl #1
.Ltmp461:
	.loc	3 2059 36               @ ../Libraries/STM32F4xx_StdPeriph_Driver/src/stm32f4xx_rtc.c:2059:36
	strb	r1, [r2, #1]
.Ltmp462:
	@DEBUG_VALUE: RTC_Bcd2ToByte:tmp <- undef
	@DEBUG_VALUE: RTC_Bcd2ToByte:Value <- $r3
	.loc	3 2746 24               @ ../Libraries/STM32F4xx_StdPeriph_Driver/src/stm32f4xx_rtc.c:2746:24
	and	r1, r3, #15
.Ltmp463:
	@DEBUG_VALUE: RTC_Bcd2ToByte:tmp <- 0
	.loc	3 2745 43               @ ../Libraries/STM32F4xx_StdPeriph_Driver/src/stm32f4xx_rtc.c:2745:43
	lsrs	r3, r3, #4
.Ltmp464:
	.loc	3 2745 60 is_stmt 0     @ ../Libraries/STM32F4xx_StdPeriph_Driver/src/stm32f4xx_rtc.c:2745:60
	add.w	r3, r3, r3, lsl #2
	.loc	3 2746 15 is_stmt 1     @ ../Libraries/STM32F4xx_StdPeriph_Driver/src/stm32f4xx_rtc.c:2746:15
	add.w	r1, r1, r3, lsl #1
.Ltmp465:
	.loc	3 2060 35               @ ../Libraries/STM32F4xx_StdPeriph_Driver/src/stm32f4xx_rtc.c:2060:35
	strb	r1, [r2, #2]
.Ltmp466:
	@DEBUG_VALUE: RTC_Bcd2ToByte:tmp <- undef
	@DEBUG_VALUE: RTC_Bcd2ToByte:Value <- $r0
	.loc	3 2746 24               @ ../Libraries/STM32F4xx_StdPeriph_Driver/src/stm32f4xx_rtc.c:2746:24
	and	r1, r0, #15
.Ltmp467:
	@DEBUG_VALUE: RTC_Bcd2ToByte:tmp <- 0
	.loc	3 2745 43               @ ../Libraries/STM32F4xx_StdPeriph_Driver/src/stm32f4xx_rtc.c:2745:43
	lsrs	r0, r0, #4
.Ltmp468:
	.loc	3 2745 60 is_stmt 0     @ ../Libraries/STM32F4xx_StdPeriph_Driver/src/stm32f4xx_rtc.c:2745:60
	add.w	r0, r0, r0, lsl #2
	.loc	3 2746 15 is_stmt 1     @ ../Libraries/STM32F4xx_StdPeriph_Driver/src/stm32f4xx_rtc.c:2746:15
	add.w	r0, r1, r0, lsl #1
.Ltmp469:
	.loc	3 2061 38               @ ../Libraries/STM32F4xx_StdPeriph_Driver/src/stm32f4xx_rtc.c:2061:38
	strb	r0, [r2]
.Ltmp470:
	.loc	3 2063 1                @ ../Libraries/STM32F4xx_StdPeriph_Driver/src/stm32f4xx_rtc.c:2063:1
	pop	{r4, pc}
.Ltmp471:
.Lfunc_end35:
	.size	RTC_GetTimeStamp, .Lfunc_end35-RTC_GetTimeStamp
	.cfi_endproc
	.cantunwind
	.fnend
                                        @ -- End function
	.section	.text.RTC_GetTimeStampSubSecond,"ax",%progbits
	.hidden	RTC_GetTimeStampSubSecond @ -- Begin function RTC_GetTimeStampSubSecond
	.globl	RTC_GetTimeStampSubSecond
	.p2align	1
	.type	RTC_GetTimeStampSubSecond,%function
	.code	16                      @ @RTC_GetTimeStampSubSecond
	.thumb_func
RTC_GetTimeStampSubSecond:
.Lfunc_begin36:
	.loc	3 2071 0                @ ../Libraries/STM32F4xx_StdPeriph_Driver/src/stm32f4xx_rtc.c:2071:0
	.fnstart
	.cfi_startproc
@ %bb.0:
	movw	r0, #10296
	movt	r0, #16384
.Ltmp472:
	.loc	3 2073 26 prologue_end  @ ../Libraries/STM32F4xx_StdPeriph_Driver/src/stm32f4xx_rtc.c:2073:26
	ldr	r0, [r0]
	.loc	3 2073 3 is_stmt 0      @ ../Libraries/STM32F4xx_StdPeriph_Driver/src/stm32f4xx_rtc.c:2073:3
	bx	lr
.Ltmp473:
.Lfunc_end36:
	.size	RTC_GetTimeStampSubSecond, .Lfunc_end36-RTC_GetTimeStampSubSecond
	.cfi_endproc
	.cantunwind
	.fnend
                                        @ -- End function
	.section	.text.RTC_TamperTriggerConfig,"ax",%progbits
	.hidden	RTC_TamperTriggerConfig @ -- Begin function RTC_TamperTriggerConfig
	.globl	RTC_TamperTriggerConfig
	.p2align	1
	.type	RTC_TamperTriggerConfig,%function
	.code	16                      @ @RTC_TamperTriggerConfig
	.thumb_func
RTC_TamperTriggerConfig:
.Lfunc_begin37:
	.loc	3 2106 0 is_stmt 1      @ ../Libraries/STM32F4xx_StdPeriph_Driver/src/stm32f4xx_rtc.c:2106:0
	.fnstart
	.cfi_startproc
@ %bb.0:
	@DEBUG_VALUE: RTC_TamperTriggerConfig:RTC_Tamper <- $r0
	@DEBUG_VALUE: RTC_TamperTriggerConfig:RTC_Tamper <- $r0
	@DEBUG_VALUE: RTC_TamperTriggerConfig:RTC_TamperTrigger <- $r1
	@DEBUG_VALUE: RTC_TamperTriggerConfig:RTC_TamperTrigger <- $r1
	.loc	3 0 0 prologue_end      @ ../Libraries/STM32F4xx_StdPeriph_Driver/src/stm32f4xx_rtc.c:0:0
	lsls	r2, r0, #1
	movw	r0, #10304
.Ltmp474:
	.loc	3 2111 7                @ ../Libraries/STM32F4xx_StdPeriph_Driver/src/stm32f4xx_rtc.c:2111:7
	cmp	r1, #0
	movt	r0, #16384
.Ltmp475:
	.loc	3 2119 16               @ ../Libraries/STM32F4xx_StdPeriph_Driver/src/stm32f4xx_rtc.c:2119:16
	ldr	r1, [r0]
.Ltmp476:
	ite	ne
	orrne	r1, r2
.Ltmp477:
	.loc	3 2114 16               @ ../Libraries/STM32F4xx_StdPeriph_Driver/src/stm32f4xx_rtc.c:2114:16
	biceq	r1, r2
.Ltmp478:
	.loc	3 0 0 is_stmt 0         @ ../Libraries/STM32F4xx_StdPeriph_Driver/src/stm32f4xx_rtc.c:0:0
	str	r1, [r0]
.Ltmp479:
	.loc	3 2121 1 is_stmt 1      @ ../Libraries/STM32F4xx_StdPeriph_Driver/src/stm32f4xx_rtc.c:2121:1
	bx	lr
.Ltmp480:
.Lfunc_end37:
	.size	RTC_TamperTriggerConfig, .Lfunc_end37-RTC_TamperTriggerConfig
	.cfi_endproc
	.cantunwind
	.fnend
                                        @ -- End function
	.section	.text.RTC_TamperCmd,"ax",%progbits
	.hidden	RTC_TamperCmd           @ -- Begin function RTC_TamperCmd
	.globl	RTC_TamperCmd
	.p2align	1
	.type	RTC_TamperCmd,%function
	.code	16                      @ @RTC_TamperCmd
	.thumb_func
RTC_TamperCmd:
.Lfunc_begin38:
	.loc	3 2132 0                @ ../Libraries/STM32F4xx_StdPeriph_Driver/src/stm32f4xx_rtc.c:2132:0
	.fnstart
	.cfi_startproc
@ %bb.0:
	@DEBUG_VALUE: RTC_TamperCmd:RTC_Tamper <- $r0
	@DEBUG_VALUE: RTC_TamperCmd:NewState <- $r1
	movw	r2, #10304
.Ltmp481:
	.loc	3 2137 7 prologue_end   @ ../Libraries/STM32F4xx_StdPeriph_Driver/src/stm32f4xx_rtc.c:2137:7
	cmp	r1, #0
	movt	r2, #16384
	@DEBUG_VALUE: RTC_TamperCmd:NewState <- $r1
	@DEBUG_VALUE: RTC_TamperCmd:RTC_Tamper <- $r0
.Ltmp482:
	.loc	3 2145 16               @ ../Libraries/STM32F4xx_StdPeriph_Driver/src/stm32f4xx_rtc.c:2145:16
	ldr	r1, [r2]
.Ltmp483:
	ite	eq
	biceq.w	r0, r1, r0
.Ltmp484:
	.loc	3 2140 16               @ ../Libraries/STM32F4xx_StdPeriph_Driver/src/stm32f4xx_rtc.c:2140:16
	orrne	r0, r1
.Ltmp485:
	.loc	3 0 0 is_stmt 0         @ ../Libraries/STM32F4xx_StdPeriph_Driver/src/stm32f4xx_rtc.c:0:0
	str	r0, [r2]
.Ltmp486:
	.loc	3 2147 1 is_stmt 1      @ ../Libraries/STM32F4xx_StdPeriph_Driver/src/stm32f4xx_rtc.c:2147:1
	bx	lr
.Ltmp487:
.Lfunc_end38:
	.size	RTC_TamperCmd, .Lfunc_end38-RTC_TamperCmd
	.cfi_endproc
	.cantunwind
	.fnend
                                        @ -- End function
	.section	.text.RTC_TamperFilterConfig,"ax",%progbits
	.hidden	RTC_TamperFilterConfig  @ -- Begin function RTC_TamperFilterConfig
	.globl	RTC_TamperFilterConfig
	.p2align	1
	.type	RTC_TamperFilterConfig,%function
	.code	16                      @ @RTC_TamperFilterConfig
	.thumb_func
RTC_TamperFilterConfig:
.Lfunc_begin39:
	.loc	3 2163 0                @ ../Libraries/STM32F4xx_StdPeriph_Driver/src/stm32f4xx_rtc.c:2163:0
	.fnstart
	.cfi_startproc
@ %bb.0:
	@DEBUG_VALUE: RTC_TamperFilterConfig:RTC_TamperFilter <- $r0
	movw	r1, #10304
	movt	r1, #16384
	@DEBUG_VALUE: RTC_TamperFilterConfig:RTC_TamperFilter <- $r0
.Ltmp488:
	.loc	3 2168 14 prologue_end  @ ../Libraries/STM32F4xx_StdPeriph_Driver/src/stm32f4xx_rtc.c:2168:14
	ldr	r2, [r1]
	bic	r2, r2, #6144
	str	r2, [r1]
	.loc	3 2171 14               @ ../Libraries/STM32F4xx_StdPeriph_Driver/src/stm32f4xx_rtc.c:2171:14
	ldr	r2, [r1]
	orrs	r0, r2
.Ltmp489:
	str	r0, [r1]
	.loc	3 2172 1                @ ../Libraries/STM32F4xx_StdPeriph_Driver/src/stm32f4xx_rtc.c:2172:1
	bx	lr
.Ltmp490:
.Lfunc_end39:
	.size	RTC_TamperFilterConfig, .Lfunc_end39-RTC_TamperFilterConfig
	.cfi_endproc
	.cantunwind
	.fnend
                                        @ -- End function
	.section	.text.RTC_TamperSamplingFreqConfig,"ax",%progbits
	.hidden	RTC_TamperSamplingFreqConfig @ -- Begin function RTC_TamperSamplingFreqConfig
	.globl	RTC_TamperSamplingFreqConfig
	.p2align	1
	.type	RTC_TamperSamplingFreqConfig,%function
	.code	16                      @ @RTC_TamperSamplingFreqConfig
	.thumb_func
RTC_TamperSamplingFreqConfig:
.Lfunc_begin40:
	.loc	3 2197 0                @ ../Libraries/STM32F4xx_StdPeriph_Driver/src/stm32f4xx_rtc.c:2197:0
	.fnstart
	.cfi_startproc
@ %bb.0:
	@DEBUG_VALUE: RTC_TamperSamplingFreqConfig:RTC_TamperSamplingFreq <- $r0
	movw	r1, #10304
	movt	r1, #16384
	@DEBUG_VALUE: RTC_TamperSamplingFreqConfig:RTC_TamperSamplingFreq <- $r0
.Ltmp491:
	.loc	3 2202 14 prologue_end  @ ../Libraries/STM32F4xx_StdPeriph_Driver/src/stm32f4xx_rtc.c:2202:14
	ldr	r2, [r1]
	bic	r2, r2, #1792
	str	r2, [r1]
	.loc	3 2205 14               @ ../Libraries/STM32F4xx_StdPeriph_Driver/src/stm32f4xx_rtc.c:2205:14
	ldr	r2, [r1]
	orrs	r0, r2
.Ltmp492:
	str	r0, [r1]
	.loc	3 2206 1                @ ../Libraries/STM32F4xx_StdPeriph_Driver/src/stm32f4xx_rtc.c:2206:1
	bx	lr
.Ltmp493:
.Lfunc_end40:
	.size	RTC_TamperSamplingFreqConfig, .Lfunc_end40-RTC_TamperSamplingFreqConfig
	.cfi_endproc
	.cantunwind
	.fnend
                                        @ -- End function
	.section	.text.RTC_TamperPinsPrechargeDuration,"ax",%progbits
	.hidden	RTC_TamperPinsPrechargeDuration @ -- Begin function RTC_TamperPinsPrechargeDuration
	.globl	RTC_TamperPinsPrechargeDuration
	.p2align	1
	.type	RTC_TamperPinsPrechargeDuration,%function
	.code	16                      @ @RTC_TamperPinsPrechargeDuration
	.thumb_func
RTC_TamperPinsPrechargeDuration:
.Lfunc_begin41:
	.loc	3 2220 0                @ ../Libraries/STM32F4xx_StdPeriph_Driver/src/stm32f4xx_rtc.c:2220:0
	.fnstart
	.cfi_startproc
@ %bb.0:
	@DEBUG_VALUE: RTC_TamperPinsPrechargeDuration:RTC_TamperPrechargeDuration <- $r0
	movw	r1, #10304
	movt	r1, #16384
	@DEBUG_VALUE: RTC_TamperPinsPrechargeDuration:RTC_TamperPrechargeDuration <- $r0
.Ltmp494:
	.loc	3 2225 14 prologue_end  @ ../Libraries/STM32F4xx_StdPeriph_Driver/src/stm32f4xx_rtc.c:2225:14
	ldr	r2, [r1]
	bic	r2, r2, #24576
	str	r2, [r1]
	.loc	3 2228 14               @ ../Libraries/STM32F4xx_StdPeriph_Driver/src/stm32f4xx_rtc.c:2228:14
	ldr	r2, [r1]
	orrs	r0, r2
.Ltmp495:
	str	r0, [r1]
	.loc	3 2229 1                @ ../Libraries/STM32F4xx_StdPeriph_Driver/src/stm32f4xx_rtc.c:2229:1
	bx	lr
.Ltmp496:
.Lfunc_end41:
	.size	RTC_TamperPinsPrechargeDuration, .Lfunc_end41-RTC_TamperPinsPrechargeDuration
	.cfi_endproc
	.cantunwind
	.fnend
                                        @ -- End function
	.section	.text.RTC_TimeStampOnTamperDetectionCmd,"ax",%progbits
	.hidden	RTC_TimeStampOnTamperDetectionCmd @ -- Begin function RTC_TimeStampOnTamperDetectionCmd
	.globl	RTC_TimeStampOnTamperDetectionCmd
	.p2align	1
	.type	RTC_TimeStampOnTamperDetectionCmd,%function
	.code	16                      @ @RTC_TimeStampOnTamperDetectionCmd
	.thumb_func
RTC_TimeStampOnTamperDetectionCmd:
.Lfunc_begin42:
	.loc	3 2240 0                @ ../Libraries/STM32F4xx_StdPeriph_Driver/src/stm32f4xx_rtc.c:2240:0
	.fnstart
	.cfi_startproc
@ %bb.0:
	@DEBUG_VALUE: RTC_TimeStampOnTamperDetectionCmd:NewState <- $r0
	movw	r1, #10304
.Ltmp497:
	.loc	3 2244 7 prologue_end   @ ../Libraries/STM32F4xx_StdPeriph_Driver/src/stm32f4xx_rtc.c:2244:7
	cmp	r0, #0
	movt	r1, #16384
	@DEBUG_VALUE: RTC_TimeStampOnTamperDetectionCmd:NewState <- $r0
.Ltmp498:
	.loc	3 0 0 is_stmt 0         @ ../Libraries/STM32F4xx_StdPeriph_Driver/src/stm32f4xx_rtc.c:0:0
	ldr	r2, [r1]
.Ltmp499:
	.loc	3 2244 7                @ ../Libraries/STM32F4xx_StdPeriph_Driver/src/stm32f4xx_rtc.c:2244:7
	orr	r3, r2, #128
	it	eq
	biceq	r3, r2, #128
.Ltmp500:
	.loc	3 0 0                   @ ../Libraries/STM32F4xx_StdPeriph_Driver/src/stm32f4xx_rtc.c:0:0
	str	r3, [r1]
.Ltmp501:
	.loc	3 2254 1 is_stmt 1      @ ../Libraries/STM32F4xx_StdPeriph_Driver/src/stm32f4xx_rtc.c:2254:1
	bx	lr
.Ltmp502:
.Lfunc_end42:
	.size	RTC_TimeStampOnTamperDetectionCmd, .Lfunc_end42-RTC_TimeStampOnTamperDetectionCmd
	.cfi_endproc
	.cantunwind
	.fnend
                                        @ -- End function
	.section	.text.RTC_TamperPullUpCmd,"ax",%progbits
	.hidden	RTC_TamperPullUpCmd     @ -- Begin function RTC_TamperPullUpCmd
	.globl	RTC_TamperPullUpCmd
	.p2align	1
	.type	RTC_TamperPullUpCmd,%function
	.code	16                      @ @RTC_TamperPullUpCmd
	.thumb_func
RTC_TamperPullUpCmd:
.Lfunc_begin43:
	.loc	3 2263 0                @ ../Libraries/STM32F4xx_StdPeriph_Driver/src/stm32f4xx_rtc.c:2263:0
	.fnstart
	.cfi_startproc
@ %bb.0:
	@DEBUG_VALUE: RTC_TamperPullUpCmd:NewState <- $r0
	movw	r1, #10304
.Ltmp503:
	.loc	3 2267 6 prologue_end   @ ../Libraries/STM32F4xx_StdPeriph_Driver/src/stm32f4xx_rtc.c:2267:6
	cmp	r0, #0
	movt	r1, #16384
	@DEBUG_VALUE: RTC_TamperPullUpCmd:NewState <- $r0
.Ltmp504:
	.loc	3 0 0 is_stmt 0         @ ../Libraries/STM32F4xx_StdPeriph_Driver/src/stm32f4xx_rtc.c:0:0
	ldr	r2, [r1]
.Ltmp505:
	.loc	3 2267 6                @ ../Libraries/STM32F4xx_StdPeriph_Driver/src/stm32f4xx_rtc.c:2267:6
	bic	r3, r2, #32768
	it	eq
	orreq	r3, r2, #32768
.Ltmp506:
	.loc	3 0 0                   @ ../Libraries/STM32F4xx_StdPeriph_Driver/src/stm32f4xx_rtc.c:0:0
	str	r3, [r1]
.Ltmp507:
	.loc	3 2277 1 is_stmt 1      @ ../Libraries/STM32F4xx_StdPeriph_Driver/src/stm32f4xx_rtc.c:2277:1
	bx	lr
.Ltmp508:
.Lfunc_end43:
	.size	RTC_TamperPullUpCmd, .Lfunc_end43-RTC_TamperPullUpCmd
	.cfi_endproc
	.cantunwind
	.fnend
                                        @ -- End function
	.section	.text.RTC_WriteBackupRegister,"ax",%progbits
	.hidden	RTC_WriteBackupRegister @ -- Begin function RTC_WriteBackupRegister
	.globl	RTC_WriteBackupRegister
	.p2align	1
	.type	RTC_WriteBackupRegister,%function
	.code	16                      @ @RTC_WriteBackupRegister
	.thumb_func
RTC_WriteBackupRegister:
.Lfunc_begin44:
	.loc	3 2304 0                @ ../Libraries/STM32F4xx_StdPeriph_Driver/src/stm32f4xx_rtc.c:2304:0
	.fnstart
	.cfi_startproc
@ %bb.0:
	.pad	#4
	sub	sp, #4
	.cfi_def_cfa_offset 4
	@DEBUG_VALUE: RTC_WriteBackupRegister:RTC_BKP_DR <- $r0
	@DEBUG_VALUE: RTC_WriteBackupRegister:Data <- $r1
	movs	r2, #0
	@DEBUG_VALUE: RTC_WriteBackupRegister:Data <- $r1
	@DEBUG_VALUE: RTC_WriteBackupRegister:RTC_BKP_DR <- $r0
.Ltmp509:
	.loc	3 2305 17 prologue_end  @ ../Libraries/STM32F4xx_StdPeriph_Driver/src/stm32f4xx_rtc.c:2305:17
	str	r2, [sp]
	movw	r2, #10320
	movt	r2, #16384
	.loc	3 2310 7                @ ../Libraries/STM32F4xx_StdPeriph_Driver/src/stm32f4xx_rtc.c:2310:7
	str	r2, [sp]
	.loc	3 2311 7                @ ../Libraries/STM32F4xx_StdPeriph_Driver/src/stm32f4xx_rtc.c:2311:7
	ldr	r2, [sp]
	add.w	r0, r2, r0, lsl #2
.Ltmp510:
	str	r0, [sp]
	.loc	3 2314 21               @ ../Libraries/STM32F4xx_StdPeriph_Driver/src/stm32f4xx_rtc.c:2314:21
	ldr	r0, [sp]
	.loc	3 2314 25 is_stmt 0     @ ../Libraries/STM32F4xx_StdPeriph_Driver/src/stm32f4xx_rtc.c:2314:25
	str	r1, [r0]
	.loc	3 2315 1 is_stmt 1      @ ../Libraries/STM32F4xx_StdPeriph_Driver/src/stm32f4xx_rtc.c:2315:1
	add	sp, #4
	bx	lr
.Ltmp511:
.Lfunc_end44:
	.size	RTC_WriteBackupRegister, .Lfunc_end44-RTC_WriteBackupRegister
	.cfi_endproc
	.cantunwind
	.fnend
                                        @ -- End function
	.section	.text.RTC_ReadBackupRegister,"ax",%progbits
	.hidden	RTC_ReadBackupRegister  @ -- Begin function RTC_ReadBackupRegister
	.globl	RTC_ReadBackupRegister
	.p2align	1
	.type	RTC_ReadBackupRegister,%function
	.code	16                      @ @RTC_ReadBackupRegister
	.thumb_func
RTC_ReadBackupRegister:
.Lfunc_begin45:
	.loc	3 2325 0                @ ../Libraries/STM32F4xx_StdPeriph_Driver/src/stm32f4xx_rtc.c:2325:0
	.fnstart
	.cfi_startproc
@ %bb.0:
	.pad	#4
	sub	sp, #4
	.cfi_def_cfa_offset 4
	@DEBUG_VALUE: RTC_ReadBackupRegister:RTC_BKP_DR <- $r0
	movs	r1, #0
	@DEBUG_VALUE: RTC_ReadBackupRegister:RTC_BKP_DR <- $r0
.Ltmp512:
	.loc	3 2326 17 prologue_end  @ ../Libraries/STM32F4xx_StdPeriph_Driver/src/stm32f4xx_rtc.c:2326:17
	str	r1, [sp]
	movw	r1, #10320
	movt	r1, #16384
	.loc	3 2331 7                @ ../Libraries/STM32F4xx_StdPeriph_Driver/src/stm32f4xx_rtc.c:2331:7
	str	r1, [sp]
	.loc	3 2332 7                @ ../Libraries/STM32F4xx_StdPeriph_Driver/src/stm32f4xx_rtc.c:2332:7
	ldr	r1, [sp]
	add.w	r0, r1, r0, lsl #2
.Ltmp513:
	str	r0, [sp]
	.loc	3 2335 29               @ ../Libraries/STM32F4xx_StdPeriph_Driver/src/stm32f4xx_rtc.c:2335:29
	ldr	r0, [sp]
	.loc	3 2335 11 is_stmt 0     @ ../Libraries/STM32F4xx_StdPeriph_Driver/src/stm32f4xx_rtc.c:2335:11
	ldr	r0, [r0]
	.loc	3 2335 3                @ ../Libraries/STM32F4xx_StdPeriph_Driver/src/stm32f4xx_rtc.c:2335:3
	add	sp, #4
	bx	lr
.Ltmp514:
.Lfunc_end45:
	.size	RTC_ReadBackupRegister, .Lfunc_end45-RTC_ReadBackupRegister
	.cfi_endproc
	.cantunwind
	.fnend
                                        @ -- End function
	.section	.text.RTC_TamperPinSelection,"ax",%progbits
	.hidden	RTC_TamperPinSelection  @ -- Begin function RTC_TamperPinSelection
	.globl	RTC_TamperPinSelection
	.p2align	1
	.type	RTC_TamperPinSelection,%function
	.code	16                      @ @RTC_TamperPinSelection
	.thumb_func
RTC_TamperPinSelection:
.Lfunc_begin46:
	.loc	3 2364 0 is_stmt 1      @ ../Libraries/STM32F4xx_StdPeriph_Driver/src/stm32f4xx_rtc.c:2364:0
	.fnstart
	.cfi_startproc
@ %bb.0:
	@DEBUG_VALUE: RTC_TamperPinSelection:RTC_TamperPin <- $r0
	movw	r1, #10304
	movt	r1, #16384
	@DEBUG_VALUE: RTC_TamperPinSelection:RTC_TamperPin <- $r0
.Ltmp515:
	.loc	3 2368 14 prologue_end  @ ../Libraries/STM32F4xx_StdPeriph_Driver/src/stm32f4xx_rtc.c:2368:14
	ldr	r2, [r1]
	bic	r2, r2, #65536
	str	r2, [r1]
	.loc	3 2369 14               @ ../Libraries/STM32F4xx_StdPeriph_Driver/src/stm32f4xx_rtc.c:2369:14
	ldr	r2, [r1]
	orrs	r0, r2
.Ltmp516:
	str	r0, [r1]
	.loc	3 2370 1                @ ../Libraries/STM32F4xx_StdPeriph_Driver/src/stm32f4xx_rtc.c:2370:1
	bx	lr
.Ltmp517:
.Lfunc_end46:
	.size	RTC_TamperPinSelection, .Lfunc_end46-RTC_TamperPinSelection
	.cfi_endproc
	.cantunwind
	.fnend
                                        @ -- End function
	.section	.text.RTC_TimeStampPinSelection,"ax",%progbits
	.hidden	RTC_TimeStampPinSelection @ -- Begin function RTC_TimeStampPinSelection
	.globl	RTC_TimeStampPinSelection
	.p2align	1
	.type	RTC_TimeStampPinSelection,%function
	.code	16                      @ @RTC_TimeStampPinSelection
	.thumb_func
RTC_TimeStampPinSelection:
.Lfunc_begin47:
	.loc	3 2381 0                @ ../Libraries/STM32F4xx_StdPeriph_Driver/src/stm32f4xx_rtc.c:2381:0
	.fnstart
	.cfi_startproc
@ %bb.0:
	@DEBUG_VALUE: RTC_TimeStampPinSelection:RTC_TimeStampPin <- $r0
	movw	r1, #10304
	movt	r1, #16384
	@DEBUG_VALUE: RTC_TimeStampPinSelection:RTC_TimeStampPin <- $r0
.Ltmp518:
	.loc	3 2385 14 prologue_end  @ ../Libraries/STM32F4xx_StdPeriph_Driver/src/stm32f4xx_rtc.c:2385:14
	ldr	r2, [r1]
	bic	r2, r2, #131072
	str	r2, [r1]
	.loc	3 2386 14               @ ../Libraries/STM32F4xx_StdPeriph_Driver/src/stm32f4xx_rtc.c:2386:14
	ldr	r2, [r1]
	orrs	r0, r2
.Ltmp519:
	str	r0, [r1]
	.loc	3 2387 1                @ ../Libraries/STM32F4xx_StdPeriph_Driver/src/stm32f4xx_rtc.c:2387:1
	bx	lr
.Ltmp520:
.Lfunc_end47:
	.size	RTC_TimeStampPinSelection, .Lfunc_end47-RTC_TimeStampPinSelection
	.cfi_endproc
	.cantunwind
	.fnend
                                        @ -- End function
	.section	.text.RTC_OutputTypeConfig,"ax",%progbits
	.hidden	RTC_OutputTypeConfig    @ -- Begin function RTC_OutputTypeConfig
	.globl	RTC_OutputTypeConfig
	.p2align	1
	.type	RTC_OutputTypeConfig,%function
	.code	16                      @ @RTC_OutputTypeConfig
	.thumb_func
RTC_OutputTypeConfig:
.Lfunc_begin48:
	.loc	3 2400 0                @ ../Libraries/STM32F4xx_StdPeriph_Driver/src/stm32f4xx_rtc.c:2400:0
	.fnstart
	.cfi_startproc
@ %bb.0:
	@DEBUG_VALUE: RTC_OutputTypeConfig:RTC_OutputType <- $r0
	movw	r1, #10304
	movt	r1, #16384
	@DEBUG_VALUE: RTC_OutputTypeConfig:RTC_OutputType <- $r0
.Ltmp521:
	.loc	3 2404 14 prologue_end  @ ../Libraries/STM32F4xx_StdPeriph_Driver/src/stm32f4xx_rtc.c:2404:14
	ldr	r2, [r1]
	bic	r2, r2, #262144
	str	r2, [r1]
	.loc	3 2405 14               @ ../Libraries/STM32F4xx_StdPeriph_Driver/src/stm32f4xx_rtc.c:2405:14
	ldr	r2, [r1]
	orrs	r0, r2
.Ltmp522:
	str	r0, [r1]
	.loc	3 2406 1                @ ../Libraries/STM32F4xx_StdPeriph_Driver/src/stm32f4xx_rtc.c:2406:1
	bx	lr
.Ltmp523:
.Lfunc_end48:
	.size	RTC_OutputTypeConfig, .Lfunc_end48-RTC_OutputTypeConfig
	.cfi_endproc
	.cantunwind
	.fnend
                                        @ -- End function
	.section	.text.RTC_SynchroShiftConfig,"ax",%progbits
	.hidden	RTC_SynchroShiftConfig  @ -- Begin function RTC_SynchroShiftConfig
	.globl	RTC_SynchroShiftConfig
	.p2align	1
	.type	RTC_SynchroShiftConfig,%function
	.code	16                      @ @RTC_SynchroShiftConfig
	.thumb_func
RTC_SynchroShiftConfig:
.Lfunc_begin49:
	.loc	3 2438 0                @ ../Libraries/STM32F4xx_StdPeriph_Driver/src/stm32f4xx_rtc.c:2438:0
	.fnstart
	.cfi_startproc
@ %bb.0:
	.save	{r4, lr}
	push	{r4, lr}
	.cfi_def_cfa_offset 8
	.cfi_offset lr, -4
	.cfi_offset r4, -8
	@DEBUG_VALUE: RTC_SynchroShiftConfig:RTC_ShiftAdd1S <- $r0
	@DEBUG_VALUE: RTC_SynchroShiftConfig:RTC_ShiftSubFS <- $r1
	movw	r4, #10252
	movs	r2, #202
.Ltmp524:
	@DEBUG_VALUE: RTC_SynchroShiftConfig:shpfcount <- 0
	@DEBUG_VALUE: RTC_SynchroShiftConfig:status <- 0
	@DEBUG_VALUE: RTC_SynchroShiftConfig:RTC_ShiftSubFS <- $r1
	@DEBUG_VALUE: RTC_SynchroShiftConfig:RTC_ShiftAdd1S <- $r0
	movt	r4, #16384
.Ltmp525:
	.loc	3 2447 12 prologue_end  @ ../Libraries/STM32F4xx_StdPeriph_Driver/src/stm32f4xx_rtc.c:2447:12
	str	r2, [r4, #24]
	movs	r2, #83
	.loc	3 2448 12               @ ../Libraries/STM32F4xx_StdPeriph_Driver/src/stm32f4xx_rtc.c:2448:12
	str	r2, [r4, #24]
.Ltmp526:
	.loc	3 2451 13               @ ../Libraries/STM32F4xx_StdPeriph_Driver/src/stm32f4xx_rtc.c:2451:13
	ldr	r2, [r4]
.Ltmp527:
	.loc	3 2451 7 is_stmt 0      @ ../Libraries/STM32F4xx_StdPeriph_Driver/src/stm32f4xx_rtc.c:2451:7
	lsls	r2, r2, #28
	bpl	.LBB49_4
.Ltmp528:
@ %bb.1:
	@DEBUG_VALUE: RTC_SynchroShiftConfig:RTC_ShiftSubFS <- $r1
	@DEBUG_VALUE: RTC_SynchroShiftConfig:RTC_ShiftAdd1S <- $r0
	.loc	3 0 7                   @ ../Libraries/STM32F4xx_StdPeriph_Driver/src/stm32f4xx_rtc.c:0:7
	mov.w	r2, #4096
.Ltmp529:
	.p2align	2
.LBB49_2:                               @ =>This Inner Loop Header: Depth=1
	@DEBUG_VALUE: RTC_SynchroShiftConfig:RTC_ShiftSubFS <- $r1
	@DEBUG_VALUE: RTC_SynchroShiftConfig:RTC_ShiftAdd1S <- $r0
	@DEBUG_VALUE: RTC_SynchroShiftConfig:shpfcount <- undef
	@DEBUG_VALUE: RTC_SynchroShiftConfig:shpfcount <- [DW_OP_plus_uconst 1, DW_OP_stack_value] undef
	.loc	3 2454 19 is_stmt 1     @ ../Libraries/STM32F4xx_StdPeriph_Driver/src/stm32f4xx_rtc.c:2454:19
	ldr	r3, [r4]
	.loc	3 2454 5 is_stmt 0      @ ../Libraries/STM32F4xx_StdPeriph_Driver/src/stm32f4xx_rtc.c:2454:5
	cbz	r2, .LBB49_4
.Ltmp530:
@ %bb.3:                                @   in Loop: Header=BB49_2 Depth=1
	@DEBUG_VALUE: RTC_SynchroShiftConfig:RTC_ShiftSubFS <- $r1
	@DEBUG_VALUE: RTC_SynchroShiftConfig:RTC_ShiftAdd1S <- $r0
	.loc	3 0 0                   @ ../Libraries/STM32F4xx_StdPeriph_Driver/src/stm32f4xx_rtc.c:0:0
	subs	r2, #1
	ands	r3, r3, #8
	.loc	3 2454 5                @ ../Libraries/STM32F4xx_StdPeriph_Driver/src/stm32f4xx_rtc.c:2454:5
	bne	.LBB49_2
.Ltmp531:
.LBB49_4:
	@DEBUG_VALUE: RTC_SynchroShiftConfig:RTC_ShiftSubFS <- $r1
	@DEBUG_VALUE: RTC_SynchroShiftConfig:RTC_ShiftAdd1S <- $r0
	.loc	3 2461 13 is_stmt 1     @ ../Libraries/STM32F4xx_StdPeriph_Driver/src/stm32f4xx_rtc.c:2461:13
	ldr	r2, [r4]
.Ltmp532:
	.loc	3 2461 7 is_stmt 0      @ ../Libraries/STM32F4xx_StdPeriph_Driver/src/stm32f4xx_rtc.c:2461:7
	lsls	r2, r2, #28
.Ltmp533:
	.loc	3 2464 14 is_stmt 1     @ ../Libraries/STM32F4xx_StdPeriph_Driver/src/stm32f4xx_rtc.c:2464:14
	itt	pl
	ldrpl	r2, [r4, #-4]
.Ltmp534:
	.loc	3 2464 8 is_stmt 0      @ ../Libraries/STM32F4xx_StdPeriph_Driver/src/stm32f4xx_rtc.c:2464:8
	lslspl.w	r2, r2, #27
	bpl	.LBB49_6
.Ltmp535:
@ %bb.5:
	@DEBUG_VALUE: RTC_SynchroShiftConfig:RTC_ShiftSubFS <- $r1
	@DEBUG_VALUE: RTC_SynchroShiftConfig:RTC_ShiftAdd1S <- $r0
	.loc	3 0 8                   @ ../Libraries/STM32F4xx_StdPeriph_Driver/src/stm32f4xx_rtc.c:0:8
	movs	r0, #0
.Ltmp536:
	b	.LBB49_7
.Ltmp537:
.LBB49_6:
	@DEBUG_VALUE: RTC_SynchroShiftConfig:RTC_ShiftSubFS <- $r1
	@DEBUG_VALUE: RTC_SynchroShiftConfig:RTC_ShiftAdd1S <- $r0
	.loc	3 2467 58 is_stmt 1     @ ../Libraries/STM32F4xx_StdPeriph_Driver/src/stm32f4xx_rtc.c:2467:58
	orrs	r0, r1
.Ltmp538:
	.loc	3 2467 19 is_stmt 0     @ ../Libraries/STM32F4xx_StdPeriph_Driver/src/stm32f4xx_rtc.c:2467:19
	str	r0, [r4, #32]
.Ltmp539:
	.loc	3 2469 10 is_stmt 1     @ ../Libraries/STM32F4xx_StdPeriph_Driver/src/stm32f4xx_rtc.c:2469:10
	bl	RTC_WaitForSynchro
.Ltmp540:
	.loc	3 2469 31 is_stmt 0     @ ../Libraries/STM32F4xx_StdPeriph_Driver/src/stm32f4xx_rtc.c:2469:31
	cmp	r0, #0
	it	ne
	movne	r0, #1
.Ltmp541:
.LBB49_7:
	@DEBUG_VALUE: RTC_SynchroShiftConfig:status <- $r0
	.loc	3 0 31                  @ ../Libraries/STM32F4xx_StdPeriph_Driver/src/stm32f4xx_rtc.c:0:31
	movs	r1, #255
	.loc	3 2489 12 is_stmt 1     @ ../Libraries/STM32F4xx_StdPeriph_Driver/src/stm32f4xx_rtc.c:2489:12
	str	r1, [r4, #24]
	.loc	3 2491 3                @ ../Libraries/STM32F4xx_StdPeriph_Driver/src/stm32f4xx_rtc.c:2491:3
	pop	{r4, pc}
.Ltmp542:
.Lfunc_end49:
	.size	RTC_SynchroShiftConfig, .Lfunc_end49-RTC_SynchroShiftConfig
	.cfi_endproc
	.cantunwind
	.fnend
                                        @ -- End function
	.section	.text.RTC_ITConfig,"ax",%progbits
	.hidden	RTC_ITConfig            @ -- Begin function RTC_ITConfig
	.globl	RTC_ITConfig
	.p2align	1
	.type	RTC_ITConfig,%function
	.code	16                      @ @RTC_ITConfig
	.thumb_func
RTC_ITConfig:
.Lfunc_begin50:
	.loc	3 2558 0                @ ../Libraries/STM32F4xx_StdPeriph_Driver/src/stm32f4xx_rtc.c:2558:0
	.fnstart
	.cfi_startproc
@ %bb.0:
	@DEBUG_VALUE: RTC_ITConfig:RTC_IT <- $r0
	@DEBUG_VALUE: RTC_ITConfig:NewState <- $r1
	movw	r2, #10248
	movs	r3, #202
	@DEBUG_VALUE: RTC_ITConfig:NewState <- $r1
	@DEBUG_VALUE: RTC_ITConfig:RTC_IT <- $r0
.Ltmp543:
	.loc	3 2567 7 prologue_end   @ ../Libraries/STM32F4xx_StdPeriph_Driver/src/stm32f4xx_rtc.c:2567:7
	cmp	r1, #0
	movt	r2, #16384
	.loc	3 2564 12               @ ../Libraries/STM32F4xx_StdPeriph_Driver/src/stm32f4xx_rtc.c:2564:12
	str	r3, [r2, #28]
	mov.w	r3, #83
	.loc	3 2565 12               @ ../Libraries/STM32F4xx_StdPeriph_Driver/src/stm32f4xx_rtc.c:2565:12
	str	r3, [r2, #28]
.Ltmp544:
	.loc	3 0 0 is_stmt 0         @ ../Libraries/STM32F4xx_StdPeriph_Driver/src/stm32f4xx_rtc.c:0:0
	bic	r3, r0, #4
.Ltmp545:
	.loc	3 2567 7 is_stmt 1      @ ../Libraries/STM32F4xx_StdPeriph_Driver/src/stm32f4xx_rtc.c:2567:7
	beq	.LBB50_2
.Ltmp546:
@ %bb.1:
	@DEBUG_VALUE: RTC_ITConfig:NewState <- $r1
	@DEBUG_VALUE: RTC_ITConfig:RTC_IT <- $r0
	.loc	3 2570 13               @ ../Libraries/STM32F4xx_StdPeriph_Driver/src/stm32f4xx_rtc.c:2570:13
	ldr	r1, [r2]
.Ltmp547:
	.loc	3 2572 37               @ ../Libraries/STM32F4xx_StdPeriph_Driver/src/stm32f4xx_rtc.c:2572:37
	and	r0, r0, #4
.Ltmp548:
	.loc	3 2570 13               @ ../Libraries/STM32F4xx_StdPeriph_Driver/src/stm32f4xx_rtc.c:2570:13
	orrs	r1, r3
	str	r1, [r2]
	.loc	3 2572 16               @ ../Libraries/STM32F4xx_StdPeriph_Driver/src/stm32f4xx_rtc.c:2572:16
	ldr	r1, [r2, #56]
	orrs	r0, r1
	b	.LBB50_3
.Ltmp549:
.LBB50_2:
	@DEBUG_VALUE: RTC_ITConfig:NewState <- $r1
	@DEBUG_VALUE: RTC_ITConfig:RTC_IT <- $r0
	.loc	3 2577 13               @ ../Libraries/STM32F4xx_StdPeriph_Driver/src/stm32f4xx_rtc.c:2577:13
	ldr	r1, [r2]
.Ltmp550:
	bics	r1, r3
	str	r1, [r2]
	mvn	r1, #4
	.loc	3 2579 29               @ ../Libraries/STM32F4xx_StdPeriph_Driver/src/stm32f4xx_rtc.c:2579:29
	orn	r0, r1, r0
.Ltmp551:
	.loc	3 2579 16 is_stmt 0     @ ../Libraries/STM32F4xx_StdPeriph_Driver/src/stm32f4xx_rtc.c:2579:16
	ldr	r1, [r2, #56]
	ands	r0, r1
.Ltmp552:
.LBB50_3:
	.loc	3 0 0                   @ ../Libraries/STM32F4xx_StdPeriph_Driver/src/stm32f4xx_rtc.c:0:0
	str	r0, [r2, #56]
	movs	r0, #255
.Ltmp553:
	.loc	3 2582 12 is_stmt 1     @ ../Libraries/STM32F4xx_StdPeriph_Driver/src/stm32f4xx_rtc.c:2582:12
	str	r0, [r2, #28]
	.loc	3 2583 1                @ ../Libraries/STM32F4xx_StdPeriph_Driver/src/stm32f4xx_rtc.c:2583:1
	bx	lr
.Ltmp554:
.Lfunc_end50:
	.size	RTC_ITConfig, .Lfunc_end50-RTC_ITConfig
	.cfi_endproc
	.cantunwind
	.fnend
                                        @ -- End function
	.section	.text.RTC_GetFlagStatus,"ax",%progbits
	.hidden	RTC_GetFlagStatus       @ -- Begin function RTC_GetFlagStatus
	.globl	RTC_GetFlagStatus
	.p2align	1
	.type	RTC_GetFlagStatus,%function
	.code	16                      @ @RTC_GetFlagStatus
	.thumb_func
RTC_GetFlagStatus:
.Lfunc_begin51:
	.loc	3 2606 0                @ ../Libraries/STM32F4xx_StdPeriph_Driver/src/stm32f4xx_rtc.c:2606:0
	.fnstart
	.cfi_startproc
@ %bb.0:
	@DEBUG_VALUE: RTC_GetFlagStatus:RTC_FLAG <- $r0
	movw	r1, #10252
	movt	r1, #16384
.Ltmp555:
	@DEBUG_VALUE: RTC_GetFlagStatus:tmpreg <- 0
	@DEBUG_VALUE: RTC_GetFlagStatus:bitstatus <- 0
	@DEBUG_VALUE: RTC_GetFlagStatus:RTC_FLAG <- $r0
	.loc	3 2614 28 prologue_end  @ ../Libraries/STM32F4xx_StdPeriph_Driver/src/stm32f4xx_rtc.c:2614:28
	ldr	r1, [r1]
.Ltmp556:
	@DEBUG_VALUE: RTC_GetFlagStatus:tmpreg <- undef
	.loc	3 2614 32 is_stmt 0     @ ../Libraries/STM32F4xx_StdPeriph_Driver/src/stm32f4xx_rtc.c:2614:32
	ands	r0, r1
.Ltmp557:
	.loc	3 0 32                  @ ../Libraries/STM32F4xx_StdPeriph_Driver/src/stm32f4xx_rtc.c:0:32
	movw	r1, #16255
	movt	r1, #1
.Ltmp558:
	.loc	3 2617 15 is_stmt 1     @ ../Libraries/STM32F4xx_StdPeriph_Driver/src/stm32f4xx_rtc.c:2617:15
	ands	r0, r1
	.loc	3 2617 27 is_stmt 0     @ ../Libraries/STM32F4xx_StdPeriph_Driver/src/stm32f4xx_rtc.c:2617:27
	it	ne
	movne	r0, #1
.Ltmp559:
	@DEBUG_VALUE: RTC_GetFlagStatus:bitstatus <- undef
	.loc	3 2625 3 is_stmt 1      @ ../Libraries/STM32F4xx_StdPeriph_Driver/src/stm32f4xx_rtc.c:2625:3
	bx	lr
.Ltmp560:
.Lfunc_end51:
	.size	RTC_GetFlagStatus, .Lfunc_end51-RTC_GetFlagStatus
	.cfi_endproc
	.cantunwind
	.fnend
                                        @ -- End function
	.section	.text.RTC_ClearFlag,"ax",%progbits
	.hidden	RTC_ClearFlag           @ -- Begin function RTC_ClearFlag
	.globl	RTC_ClearFlag
	.p2align	1
	.type	RTC_ClearFlag,%function
	.code	16                      @ @RTC_ClearFlag
	.thumb_func
RTC_ClearFlag:
.Lfunc_begin52:
	.loc	3 2642 0                @ ../Libraries/STM32F4xx_StdPeriph_Driver/src/stm32f4xx_rtc.c:2642:0
	.fnstart
	.cfi_startproc
@ %bb.0:
	@DEBUG_VALUE: RTC_ClearFlag:RTC_FLAG <- $r0
	movw	r1, #65407
	@DEBUG_VALUE: RTC_ClearFlag:RTC_FLAG <- $r0
.Ltmp561:
	.loc	3 2647 63 prologue_end  @ ../Libraries/STM32F4xx_StdPeriph_Driver/src/stm32f4xx_rtc.c:2647:63
	ands	r0, r1
.Ltmp562:
	.loc	3 0 63 is_stmt 0        @ ../Libraries/STM32F4xx_StdPeriph_Driver/src/stm32f4xx_rtc.c:0:63
	movw	r1, #10252
	movt	r1, #16384
	.loc	3 2647 95               @ ../Libraries/STM32F4xx_StdPeriph_Driver/src/stm32f4xx_rtc.c:2647:95
	ldr	r2, [r1]
	.loc	3 2647 99               @ ../Libraries/STM32F4xx_StdPeriph_Driver/src/stm32f4xx_rtc.c:2647:99
	and	r2, r2, #128
	.loc	3 2647 77               @ ../Libraries/STM32F4xx_StdPeriph_Driver/src/stm32f4xx_rtc.c:2647:77
	add	r0, r2
	mvn	r2, #128
	eors	r0, r2
	.loc	3 2647 12               @ ../Libraries/STM32F4xx_StdPeriph_Driver/src/stm32f4xx_rtc.c:2647:12
	str	r0, [r1]
	.loc	3 2648 1 is_stmt 1      @ ../Libraries/STM32F4xx_StdPeriph_Driver/src/stm32f4xx_rtc.c:2648:1
	bx	lr
.Ltmp563:
.Lfunc_end52:
	.size	RTC_ClearFlag, .Lfunc_end52-RTC_ClearFlag
	.cfi_endproc
	.cantunwind
	.fnend
                                        @ -- End function
	.section	.text.RTC_GetITStatus,"ax",%progbits
	.hidden	RTC_GetITStatus         @ -- Begin function RTC_GetITStatus
	.globl	RTC_GetITStatus
	.p2align	1
	.type	RTC_GetITStatus,%function
	.code	16                      @ @RTC_GetITStatus
	.thumb_func
RTC_GetITStatus:
.Lfunc_begin53:
	.loc	3 2662 0                @ ../Libraries/STM32F4xx_StdPeriph_Driver/src/stm32f4xx_rtc.c:2662:0
	.fnstart
	.cfi_startproc
@ %bb.0:
	@DEBUG_VALUE: RTC_GetITStatus:RTC_IT <- $r0
	movw	r1, #10248
	movt	r1, #16384
.Ltmp564:
	@DEBUG_VALUE: RTC_GetITStatus:enablestatus <- 0
	@DEBUG_VALUE: RTC_GetITStatus:tmpreg <- 0
	@DEBUG_VALUE: RTC_GetITStatus:bitstatus <- 0
	@DEBUG_VALUE: RTC_GetITStatus:RTC_IT <- $r0
	.loc	3 2670 28 prologue_end  @ ../Libraries/STM32F4xx_StdPeriph_Driver/src/stm32f4xx_rtc.c:2670:28
	ldr	r2, [r1, #56]
.Ltmp565:
	@DEBUG_VALUE: RTC_GetITStatus:tmpreg <- undef
	.loc	3 2673 35               @ ../Libraries/STM32F4xx_StdPeriph_Driver/src/stm32f4xx_rtc.c:2673:35
	ldr	r3, [r1]
	.loc	3 2676 29               @ ../Libraries/STM32F4xx_StdPeriph_Driver/src/stm32f4xx_rtc.c:2676:29
	ldr	r1, [r1, #4]
	@DEBUG_VALUE: RTC_GetITStatus:tmpreg <- undef
	.loc	3 2670 34               @ ../Libraries/STM32F4xx_StdPeriph_Driver/src/stm32f4xx_rtc.c:2670:34
	and.w	r2, r2, r0, lsr #15
	.loc	3 2673 38               @ ../Libraries/STM32F4xx_StdPeriph_Driver/src/stm32f4xx_rtc.c:2673:38
	ands	r3, r0
	.loc	3 2673 58 is_stmt 0     @ ../Libraries/STM32F4xx_StdPeriph_Driver/src/stm32f4xx_rtc.c:2673:58
	and	r2, r2, #4
	.loc	3 2673 48               @ ../Libraries/STM32F4xx_StdPeriph_Driver/src/stm32f4xx_rtc.c:2673:48
	orrs	r2, r3
.Ltmp566:
	@DEBUG_VALUE: RTC_GetITStatus:enablestatus <- $r2
	.loc	3 2676 33 is_stmt 1     @ ../Libraries/STM32F4xx_StdPeriph_Driver/src/stm32f4xx_rtc.c:2676:33
	itt	ne
	andne.w	r0, r1, r0, lsr #4
.Ltmp567:
	.loc	3 2679 7                @ ../Libraries/STM32F4xx_StdPeriph_Driver/src/stm32f4xx_rtc.c:2679:7
	lslsne.w	r0, r0, #16
	bne	.LBB53_2
.Ltmp568:
@ %bb.1:
	@DEBUG_VALUE: RTC_GetITStatus:enablestatus <- $r2
	.loc	3 0 7 is_stmt 0         @ ../Libraries/STM32F4xx_StdPeriph_Driver/src/stm32f4xx_rtc.c:0:7
	movs	r0, #0
	@DEBUG_VALUE: RTC_GetITStatus:bitstatus <- 0
.Ltmp569:
	@DEBUG_VALUE: RTC_GetITStatus:bitstatus <- $r0
	.loc	3 2687 3 is_stmt 1      @ ../Libraries/STM32F4xx_StdPeriph_Driver/src/stm32f4xx_rtc.c:2687:3
	bx	lr
.Ltmp570:
.LBB53_2:
	@DEBUG_VALUE: RTC_GetITStatus:enablestatus <- $r2
	.loc	3 0 3 is_stmt 0         @ ../Libraries/STM32F4xx_StdPeriph_Driver/src/stm32f4xx_rtc.c:0:3
	movs	r0, #1
.Ltmp571:
	@DEBUG_VALUE: RTC_GetITStatus:bitstatus <- $r0
	.loc	3 2687 3                @ ../Libraries/STM32F4xx_StdPeriph_Driver/src/stm32f4xx_rtc.c:2687:3
	bx	lr
.Ltmp572:
.Lfunc_end53:
	.size	RTC_GetITStatus, .Lfunc_end53-RTC_GetITStatus
	.cfi_endproc
	.cantunwind
	.fnend
                                        @ -- End function
	.section	.text.RTC_ClearITPendingBit,"ax",%progbits
	.hidden	RTC_ClearITPendingBit   @ -- Begin function RTC_ClearITPendingBit
	.globl	RTC_ClearITPendingBit
	.p2align	1
	.type	RTC_ClearITPendingBit,%function
	.code	16                      @ @RTC_ClearITPendingBit
	.thumb_func
RTC_ClearITPendingBit:
.Lfunc_begin54:
	.loc	3 2702 0 is_stmt 1      @ ../Libraries/STM32F4xx_StdPeriph_Driver/src/stm32f4xx_rtc.c:2702:0
	.fnstart
	.cfi_startproc
@ %bb.0:
	@DEBUG_VALUE: RTC_ClearITPendingBit:RTC_IT <- $r0
	@DEBUG_VALUE: RTC_ClearITPendingBit:tmpreg <- undef
	movw	r1, #65407
	@DEBUG_VALUE: RTC_ClearITPendingBit:RTC_IT <- $r0
.Ltmp573:
	.loc	3 2712 61 prologue_end  @ ../Libraries/STM32F4xx_StdPeriph_Driver/src/stm32f4xx_rtc.c:2712:61
	and.w	r0, r1, r0, lsr #4
.Ltmp574:
	.loc	3 0 61 is_stmt 0        @ ../Libraries/STM32F4xx_StdPeriph_Driver/src/stm32f4xx_rtc.c:0:61
	movw	r1, #10252
	movt	r1, #16384
	.loc	3 2712 93               @ ../Libraries/STM32F4xx_StdPeriph_Driver/src/stm32f4xx_rtc.c:2712:93
	ldr	r2, [r1]
	.loc	3 2712 97               @ ../Libraries/STM32F4xx_StdPeriph_Driver/src/stm32f4xx_rtc.c:2712:97
	and	r2, r2, #128
	.loc	3 2712 75               @ ../Libraries/STM32F4xx_StdPeriph_Driver/src/stm32f4xx_rtc.c:2712:75
	add	r0, r2
	mvn	r2, #128
	eors	r0, r2
	.loc	3 2712 12               @ ../Libraries/STM32F4xx_StdPeriph_Driver/src/stm32f4xx_rtc.c:2712:12
	str	r0, [r1]
	.loc	3 2713 1 is_stmt 1      @ ../Libraries/STM32F4xx_StdPeriph_Driver/src/stm32f4xx_rtc.c:2713:1
	bx	lr
.Ltmp575:
.Lfunc_end54:
	.size	RTC_ClearITPendingBit, .Lfunc_end54-RTC_ClearITPendingBit
	.cfi_endproc
	.cantunwind
	.fnend
                                        @ -- End function
	.file	4 "F:\\SkyDrive\\OtvoreniProjekti\\HotelSaplast\\fw\\KontrolerHotela\\HC070318\\Project" "../Libraries/STM32F4xx_StdPeriph_Driver/inc\\stm32f4xx_rtc.h"
	.section	".note.GNU-stack","",%progbits
	.eabi_attribute	30, 3	@ Tag_ABI_optimization_goals
	.ARM_attribute	16, 1	@ Tag_AV_eba