	.text
	.syntax unified
	.eabi_attribute	67, "2.09"	@ Tag_conformance
	.cpu	cortex-m4
	.eabi_attribute	6, 13	@ Tag_CPU_arch
	.eabi_attribute	7, 77	@ Tag_CPU_arch_profile
	.eabi_attribute	8, 0	@ Tag_ARM_ISA_use
	.eabi_attribute	9, 2	@ Tag_THUMB_ISA_use
	.fpu	fpv4-sp-d16
	.eabi_attribute	27, 1	@ Tag_ABI_HardFP_use
	.eabi_attribute	36, 1	@ Tag_FP_HP_extension
	.eabi_attribute	34, 1	@ Tag_CPU_unaligned_access
	.eabi_attribute	17, 1	@ Tag_ABI_PCS_GOT_use
	.eabi_attribute	20, 2	@ Tag_ABI_FP_denormal
	.eabi_attribute	21, 0	@ Tag_ABI_FP_exceptions
	.eabi_attribute	23, 1	@ Tag_ABI_FP_number_model
	.eabi_attribute	24, 1	@ Tag_ABI_align_needed
	.eabi_attribute	25, 1	@ Tag_ABI_align_preserved
	.eabi_attribute	28, 1	@ Tag_ABI_VFP_args
	.eabi_attribute	38, 1	@ Tag_ABI_FP_16bit_format
	.eabi_attribute	18, 2	@ Tag_ABI_PCS_wchar_t
	.eabi_attribute	26, 1	@ Tag_ABI_enum_size
	.eabi_attribute	14, 0	@ Tag_ABI_PCS_R9_use
	.file	"stm32f4xx_dma2d.c"
	.file	1 "F:\\SkyDrive\\OtvoreniProjekti\\HotelSaplast\\fw\\KontrolerHotela\\HC070318\\Project" "../Libraries/CMSIS/Device/ST/STM32F4xx/Include\\stm32f4xx.h"
	.file	2 "C:\\Keil\\ARM\\ARMCLANG\\Bin\\..\\include" "stdint.h"
	.section	.text.DMA2D_DeInit,"ax",%progbits
	.hidden	DMA2D_DeInit            @ -- Begin function DMA2D_DeInit
	.globl	DMA2D_DeInit
	.p2align	1
	.type	DMA2D_DeInit,%function
	.code	16                      @ @DMA2D_DeInit
	.thumb_func
DMA2D_DeInit:
.Lfunc_begin0:
	.file	3 "F:\\SkyDrive\\OtvoreniProjekti\\HotelSaplast\\fw\\KontrolerHotela\\HC070318\\Project" "../Libraries/STM32F4xx_StdPeriph_Driver/src/stm32f4xx_dma2d.c"
	.loc	3 112 0                 @ ../Libraries/STM32F4xx_StdPeriph_Driver/src/stm32f4xx_dma2d.c:112:0
	.fnstart
	.cfi_sections .debug_frame
	.cfi_startproc
@ %bb.0:
	.save	{r7, lr}
	push	{r7, lr}
	.cfi_def_cfa_offset 8
	.cfi_offset lr, -4
	.cfi_offset r7, -8
.Ltmp0:
	.loc	3 114 3 prologue_end    @ ../Libraries/STM32F4xx_StdPeriph_Driver/src/stm32f4xx_dma2d.c:114:3
	mov.w	r0, #8388608
	movs	r1, #1
	bl	RCC_AHB1PeriphResetCmd
	.loc	3 116 3                 @ ../Libraries/STM32F4xx_StdPeriph_Driver/src/stm32f4xx_dma2d.c:116:3
	mov.w	r0, #8388608
	movs	r1, #0
	pop.w	{r7, lr}
	b	RCC_AHB1PeriphResetCmd
.Ltmp1:
.Lfunc_end0:
	.size	DMA2D_DeInit, .Lfunc_end0-DMA2D_DeInit
	.cfi_endproc
	.cantunwind
	.fnend
                                        @ -- End function
	.section	.text.DMA2D_Init,"ax",%progbits
	.hidden	DMA2D_Init              @ -- Begin function DMA2D_Init
	.globl	DMA2D_Init
	.p2align	1
	.type	DMA2D_Init,%function
	.code	16                      @ @DMA2D_Init
	.thumb_func
DMA2D_Init:
.Lfunc_begin1:
	.loc	3 129 0                 @ ../Libraries/STM32F4xx_StdPeriph_Driver/src/stm32f4xx_dma2d.c:129:0
	.fnstart
	.cfi_startproc
@ %bb.0:
	@DEBUG_VALUE: DMA2D_Init:DMA2D_InitStruct <- $r0
	movw	r1, #45056
	movw	r3, #57596
	movt	r1, #16386
.Ltmp2:
	@DEBUG_VALUE: DMA2D_Init:pixline <- 0
	@DEBUG_VALUE: DMA2D_Init:outalpha <- 0
	@DEBUG_VALUE: DMA2D_Init:outred <- 0
	@DEBUG_VALUE: DMA2D_Init:outgreen <- 0
	@DEBUG_VALUE: DMA2D_Init:DMA2D_InitStruct <- $r0
	movt	r3, #65532
.Ltmp3:
	.loc	3 148 13 prologue_end   @ ../Libraries/STM32F4xx_StdPeriph_Driver/src/stm32f4xx_dma2d.c:148:13
	ldr	r2, [r1]
	ands	r2, r3
	str	r2, [r1]
	.loc	3 149 35                @ ../Libraries/STM32F4xx_StdPeriph_Driver/src/stm32f4xx_dma2d.c:149:35
	ldr	r2, [r0]
	.loc	3 149 13 is_stmt 0      @ ../Libraries/STM32F4xx_StdPeriph_Driver/src/stm32f4xx_dma2d.c:149:13
	ldr	r3, [r1]
	orrs	r2, r3
	str	r2, [r1]
	.loc	3 152 17 is_stmt 1      @ ../Libraries/STM32F4xx_StdPeriph_Driver/src/stm32f4xx_dma2d.c:152:17
	ldr	r2, [r1, #52]
	bic	r2, r2, #7
	str	r2, [r1, #52]
	.loc	3 153 39                @ ../Libraries/STM32F4xx_StdPeriph_Driver/src/stm32f4xx_dma2d.c:153:39
	ldr	r2, [r0, #4]
	.loc	3 153 17 is_stmt 0      @ ../Libraries/STM32F4xx_StdPeriph_Driver/src/stm32f4xx_dma2d.c:153:17
	ldr	r3, [r1, #52]
	orrs	r3, r2
	.loc	3 157 7 is_stmt 1       @ ../Libraries/STM32F4xx_StdPeriph_Driver/src/stm32f4xx_dma2d.c:157:7
	cmp	r2, #2
	.loc	3 153 17                @ ../Libraries/STM32F4xx_StdPeriph_Driver/src/stm32f4xx_dma2d.c:153:17
	str	r3, [r1, #52]
	.loc	3 157 7                 @ ../Libraries/STM32F4xx_StdPeriph_Driver/src/stm32f4xx_dma2d.c:157:7
	beq	.LBB1_4
.Ltmp4:
@ %bb.1:
	@DEBUG_VALUE: DMA2D_Init:DMA2D_InitStruct <- $r0
	cmp	r2, #1
	beq	.LBB1_5
.Ltmp5:
@ %bb.2:
	@DEBUG_VALUE: DMA2D_Init:DMA2D_InitStruct <- $r0
	cbnz	r2, .LBB1_7
.Ltmp6:
@ %bb.3:
	@DEBUG_VALUE: DMA2D_Init:DMA2D_InitStruct <- $r0
	.loc	3 159 34                @ ../Libraries/STM32F4xx_StdPeriph_Driver/src/stm32f4xx_dma2d.c:159:34
	ldrd	r12, r3, [r0, #12]
	.loc	3 161 34                @ ../Libraries/STM32F4xx_StdPeriph_Driver/src/stm32f4xx_dma2d.c:161:34
	ldr	r2, [r0, #20]
	.loc	3 161 52 is_stmt 0      @ ../Libraries/STM32F4xx_StdPeriph_Driver/src/stm32f4xx_dma2d.c:161:52
	lsls	r2, r2, #24
.Ltmp7:
	@DEBUG_VALUE: DMA2D_Init:outalpha <- $r2
	.loc	3 160 48 is_stmt 1      @ ../Libraries/STM32F4xx_StdPeriph_Driver/src/stm32f4xx_dma2d.c:160:48
	lsls	r3, r3, #16
.Ltmp8:
	@DEBUG_VALUE: DMA2D_Init:outred <- $r3
	.loc	3 159 52                @ ../Libraries/STM32F4xx_StdPeriph_Driver/src/stm32f4xx_dma2d.c:159:52
	lsl.w	r12, r12, #8
.Ltmp9:
	@DEBUG_VALUE: DMA2D_Init:outgreen <- $r12
	.loc	3 0 52 is_stmt 0        @ ../Libraries/STM32F4xx_StdPeriph_Driver/src/stm32f4xx_dma2d.c:0:52
	b	.LBB1_10
.Ltmp10:
.LBB1_4:
	@DEBUG_VALUE: DMA2D_Init:DMA2D_InitStruct <- $r0
	.loc	3 176 36 is_stmt 1      @ ../Libraries/STM32F4xx_StdPeriph_Driver/src/stm32f4xx_dma2d.c:176:36
	ldrd	r2, r3, [r0, #12]
	.loc	3 176 54 is_stmt 0      @ ../Libraries/STM32F4xx_StdPeriph_Driver/src/stm32f4xx_dma2d.c:176:54
	lsl.w	r12, r2, #5
.Ltmp11:
	@DEBUG_VALUE: DMA2D_Init:outgreen <- $r12
	.loc	3 177 50 is_stmt 1      @ ../Libraries/STM32F4xx_StdPeriph_Driver/src/stm32f4xx_dma2d.c:177:50
	lsls	r3, r3, #11
	b	.LBB1_6
.Ltmp12:
.LBB1_5:
	@DEBUG_VALUE: DMA2D_Init:DMA2D_InitStruct <- $r0
	.loc	3 167 36                @ ../Libraries/STM32F4xx_StdPeriph_Driver/src/stm32f4xx_dma2d.c:167:36
	ldrd	r2, r3, [r0, #12]
	.loc	3 167 54 is_stmt 0      @ ../Libraries/STM32F4xx_StdPeriph_Driver/src/stm32f4xx_dma2d.c:167:54
	lsl.w	r12, r2, #8
.Ltmp13:
	@DEBUG_VALUE: DMA2D_Init:outgreen <- $r12
	.loc	3 168 50 is_stmt 1      @ ../Libraries/STM32F4xx_StdPeriph_Driver/src/stm32f4xx_dma2d.c:168:50
	lsls	r3, r3, #16
.Ltmp14:
.LBB1_6:
	@DEBUG_VALUE: DMA2D_Init:outgreen <- $r12
	@DEBUG_VALUE: DMA2D_Init:DMA2D_InitStruct <- $r0
	@DEBUG_VALUE: DMA2D_Init:outred <- $r3
	.loc	3 0 50 is_stmt 0        @ ../Libraries/STM32F4xx_StdPeriph_Driver/src/stm32f4xx_dma2d.c:0:50
	movs	r2, #0
.Ltmp15:
	@DEBUG_VALUE: DMA2D_Init:outalpha <- 0
	b	.LBB1_10
.Ltmp16:
.LBB1_7:
	@DEBUG_VALUE: DMA2D_Init:DMA2D_InitStruct <- $r0
	ldr	r3, [r0, #12]
.Ltmp17:
	.loc	3 183 9 is_stmt 1       @ ../Libraries/STM32F4xx_StdPeriph_Driver/src/stm32f4xx_dma2d.c:183:9
	cmp	r2, #3
	bne	.LBB1_9
.Ltmp18:
@ %bb.8:
	@DEBUG_VALUE: DMA2D_Init:DMA2D_InitStruct <- $r0
	.loc	3 185 54                @ ../Libraries/STM32F4xx_StdPeriph_Driver/src/stm32f4xx_dma2d.c:185:54
	lsl.w	r12, r3, #5
.Ltmp19:
	@DEBUG_VALUE: DMA2D_Init:outgreen <- $r12
	.loc	3 186 34                @ ../Libraries/STM32F4xx_StdPeriph_Driver/src/stm32f4xx_dma2d.c:186:34
	ldrd	r3, r2, [r0, #16]
	.loc	3 187 54                @ ../Libraries/STM32F4xx_StdPeriph_Driver/src/stm32f4xx_dma2d.c:187:54
	lsls	r2, r2, #15
.Ltmp20:
	@DEBUG_VALUE: DMA2D_Init:outalpha <- $r2
	.loc	3 186 50                @ ../Libraries/STM32F4xx_StdPeriph_Driver/src/stm32f4xx_dma2d.c:186:50
	lsls	r3, r3, #10
.Ltmp21:
	@DEBUG_VALUE: DMA2D_Init:outred <- $r3
	.loc	3 0 50 is_stmt 0        @ ../Libraries/STM32F4xx_StdPeriph_Driver/src/stm32f4xx_dma2d.c:0:50
	b	.LBB1_10
.Ltmp22:
.LBB1_9:
	@DEBUG_VALUE: DMA2D_Init:DMA2D_InitStruct <- $r0
	.loc	3 192 52 is_stmt 1      @ ../Libraries/STM32F4xx_StdPeriph_Driver/src/stm32f4xx_dma2d.c:192:52
	lsl.w	r12, r3, #4
.Ltmp23:
	@DEBUG_VALUE: DMA2D_Init:outgreen <- $r12
	.loc	3 193 32                @ ../Libraries/STM32F4xx_StdPeriph_Driver/src/stm32f4xx_dma2d.c:193:32
	ldrd	r3, r2, [r0, #16]
	.loc	3 194 52                @ ../Libraries/STM32F4xx_StdPeriph_Driver/src/stm32f4xx_dma2d.c:194:52
	lsls	r2, r2, #12
.Ltmp24:
	@DEBUG_VALUE: DMA2D_Init:outalpha <- $r2
	.loc	3 193 48                @ ../Libraries/STM32F4xx_StdPeriph_Driver/src/stm32f4xx_dma2d.c:193:48
	lsls	r3, r3, #8
.Ltmp25:
	@DEBUG_VALUE: DMA2D_Init:outred <- $r3
.LBB1_10:
	@DEBUG_VALUE: DMA2D_Init:outgreen <- $r12
	@DEBUG_VALUE: DMA2D_Init:outred <- $r3
	@DEBUG_VALUE: DMA2D_Init:DMA2D_InitStruct <- $r0
	@DEBUG_VALUE: DMA2D_Init:outgreen <- $r12
	@DEBUG_VALUE: DMA2D_Init:outred <- $r3
	@DEBUG_VALUE: DMA2D_Init:outalpha <- $r2
	.loc	3 196 31                @ ../Libraries/STM32F4xx_StdPeriph_Driver/src/stm32f4xx_dma2d.c:196:31
	orr.w	r3, r3, r12
.Ltmp26:
	.loc	3 196 42 is_stmt 0      @ ../Libraries/STM32F4xx_StdPeriph_Driver/src/stm32f4xx_dma2d.c:196:42
	orrs	r2, r3
.Ltmp27:
	.loc	3 196 63                @ ../Libraries/STM32F4xx_StdPeriph_Driver/src/stm32f4xx_dma2d.c:196:63
	ldr	r3, [r0, #8]
	.loc	3 196 81                @ ../Libraries/STM32F4xx_StdPeriph_Driver/src/stm32f4xx_dma2d.c:196:81
	orrs	r2, r3
	.loc	3 196 16                @ ../Libraries/STM32F4xx_StdPeriph_Driver/src/stm32f4xx_dma2d.c:196:16
	ldr	r3, [r1, #56]
	orrs	r2, r3
	movw	r3, #16383
	str	r2, [r1, #56]
	.loc	3 199 36 is_stmt 1      @ ../Libraries/STM32F4xx_StdPeriph_Driver/src/stm32f4xx_dma2d.c:199:36
	ldr	r2, [r0, #24]
	.loc	3 199 15 is_stmt 0      @ ../Libraries/STM32F4xx_StdPeriph_Driver/src/stm32f4xx_dma2d.c:199:15
	str	r2, [r1, #60]
	.loc	3 202 14 is_stmt 1      @ ../Libraries/STM32F4xx_StdPeriph_Driver/src/stm32f4xx_dma2d.c:202:14
	ldr	r2, [r1, #64]
	bics	r2, r3
	str	r2, [r1, #64]
	.loc	3 203 36                @ ../Libraries/STM32F4xx_StdPeriph_Driver/src/stm32f4xx_dma2d.c:203:36
	ldr	r2, [r0, #28]
	.loc	3 203 14 is_stmt 0      @ ../Libraries/STM32F4xx_StdPeriph_Driver/src/stm32f4xx_dma2d.c:203:14
	ldr	r3, [r1, #64]
	orrs	r2, r3
	str	r2, [r1, #64]
	.loc	3 206 31 is_stmt 1      @ ../Libraries/STM32F4xx_StdPeriph_Driver/src/stm32f4xx_dma2d.c:206:31
	ldr	r2, [r0, #36]
.Ltmp28:
	@DEBUG_VALUE: DMA2D_Init:pixline <- undef
	.loc	3 207 14                @ ../Libraries/STM32F4xx_StdPeriph_Driver/src/stm32f4xx_dma2d.c:207:14
	ldr	r3, [r1, #68]
	and	r3, r3, #-1073741824
	str	r3, [r1, #68]
	.loc	3 208 37                @ ../Libraries/STM32F4xx_StdPeriph_Driver/src/stm32f4xx_dma2d.c:208:37
	ldr	r0, [r0, #32]
.Ltmp29:
	.loc	3 208 57 is_stmt 0      @ ../Libraries/STM32F4xx_StdPeriph_Driver/src/stm32f4xx_dma2d.c:208:57
	orr.w	r0, r0, r2, lsl #16
	.loc	3 208 14                @ ../Libraries/STM32F4xx_StdPeriph_Driver/src/stm32f4xx_dma2d.c:208:14
	ldr	r2, [r1, #68]
	orrs	r0, r2
	str	r0, [r1, #68]
	.loc	3 216 1 is_stmt 1       @ ../Libraries/STM32F4xx_StdPeriph_Driver/src/stm32f4xx_dma2d.c:216:1
	bx	lr
.Ltmp30:
.Lfunc_end1:
	.size	DMA2D_Init, .Lfunc_end1-DMA2D_Init
	.cfi_endproc
	.cantunwind
	.fnend
                                        @ -- End function
	.section	.text.DMA2D_StructInit,"ax",%progbits
	.hidden	DMA2D_StructInit        @ -- Begin function DMA2D_StructInit
	.globl	DMA2D_StructInit
	.p2align	1
	.type	DMA2D_StructInit,%function
	.code	16                      @ @DMA2D_StructInit
	.thumb_func
DMA2D_StructInit:
.Lfunc_begin2:
	.loc	3 218 0                 @ ../Libraries/STM32F4xx_StdPeriph_Driver/src/stm32f4xx_dma2d.c:218:0
	.fnstart
	.cfi_startproc
@ %bb.0:
	.save	{r7, lr}
	push	{r7, lr}
	.cfi_def_cfa_offset 8
	.cfi_offset lr, -4
	.cfi_offset r7, -8
	@DEBUG_VALUE: DMA2D_StructInit:DMA2D_InitStruct <- $r0
	@DEBUG_VALUE: DMA2D_StructInit:DMA2D_InitStruct <- $r0
	@DEBUG_VALUE: DMA2D_StructInit:DMA2D_InitStruct <- $r0
.Ltmp31:
	.loc	3 223 33 prologue_end   @ ../Libraries/STM32F4xx_StdPeriph_Driver/src/stm32f4xx_dma2d.c:223:33
	movs	r1, #40
	bl	__aeabi_memclr4
.Ltmp32:
	.loc	3 240 1                 @ ../Libraries/STM32F4xx_StdPeriph_Driver/src/stm32f4xx_dma2d.c:240:1
	pop	{r7, pc}
.Ltmp33:
.Lfunc_end2:
	.size	DMA2D_StructInit, .Lfunc_end2-DMA2D_StructInit
	.cfi_endproc
	.cantunwind
	.fnend
                                        @ -- End function
	.section	.text.DMA2D_StartTransfer,"ax",%progbits
	.hidden	DMA2D_StartTransfer     @ -- Begin function DMA2D_StartTransfer
	.globl	DMA2D_StartTransfer
	.p2align	1
	.type	DMA2D_StartTransfer,%function
	.code	16                      @ @DMA2D_StartTransfer
	.thumb_func
DMA2D_StartTransfer:
.Lfunc_begin3:
	.loc	3 249 0                 @ ../Libraries/STM32F4xx_StdPeriph_Driver/src/stm32f4xx_dma2d.c:249:0
	.fnstart
	.cfi_startproc
@ %bb.0:
	movw	r0, #45056
	movt	r0, #16386
.Ltmp34:
	.loc	3 251 15 prologue_end   @ ../Libraries/STM32F4xx_StdPeriph_Driver/src/stm32f4xx_dma2d.c:251:15
	ldr	r1, [r0]
	orr	r1, r1, #1
	str	r1, [r0]
	.loc	3 252 1                 @ ../Libraries/STM32F4xx_StdPeriph_Driver/src/stm32f4xx_dma2d.c:252:1
	bx	lr
.Ltmp35:
.Lfunc_end3:
	.size	DMA2D_StartTransfer, .Lfunc_end3-DMA2D_StartTransfer
	.cfi_endproc
	.cantunwind
	.fnend
                                        @ -- End function
	.section	.text.DMA2D_AbortTransfer,"ax",%progbits
	.hidden	DMA2D_AbortTransfer     @ -- Begin function DMA2D_AbortTransfer
	.globl	DMA2D_AbortTransfer
	.p2align	1
	.type	DMA2D_AbortTransfer,%function
	.code	16                      @ @DMA2D_AbortTransfer
	.thumb_func
DMA2D_AbortTransfer:
.Lfunc_begin4:
	.loc	3 261 0                 @ ../Libraries/STM32F4xx_StdPeriph_Driver/src/stm32f4xx_dma2d.c:261:0
	.fnstart
	.cfi_startproc
@ %bb.0:
	movw	r0, #45056
	movt	r0, #16386
.Ltmp36:
	.loc	3 263 15 prologue_end   @ ../Libraries/STM32F4xx_StdPeriph_Driver/src/stm32f4xx_dma2d.c:263:15
	ldr	r1, [r0]
	orr	r1, r1, #4
	str	r1, [r0]
	.loc	3 265 1                 @ ../Libraries/STM32F4xx_StdPeriph_Driver/src/stm32f4xx_dma2d.c:265:1
	bx	lr
.Ltmp37:
.Lfunc_end4:
	.size	DMA2D_AbortTransfer, .Lfunc_end4-DMA2D_AbortTransfer
	.cfi_endproc
	.cantunwind
	.fnend
                                        @ -- End function
	.section	.text.DMA2D_Suspend,"ax",%progbits
	.hidden	DMA2D_Suspend           @ -- Begin function DMA2D_Suspend
	.globl	DMA2D_Suspend
	.p2align	1
	.type	DMA2D_Suspend,%function
	.code	16                      @ @DMA2D_Suspend
	.thumb_func
DMA2D_Suspend:
.Lfunc_begin5:
	.loc	3 274 0                 @ ../Libraries/STM32F4xx_StdPeriph_Driver/src/stm32f4xx_dma2d.c:274:0
	.fnstart
	.cfi_startproc
@ %bb.0:
	@DEBUG_VALUE: DMA2D_Suspend:NewState <- $r0
	movw	r1, #45056
.Ltmp38:
	.loc	3 278 7 prologue_end    @ ../Libraries/STM32F4xx_StdPeriph_Driver/src/stm32f4xx_dma2d.c:278:7
	cmp	r0, #0
	movt	r1, #16386
	@DEBUG_VALUE: DMA2D_Suspend:NewState <- $r0
.Ltmp39:
	.loc	3 0 0 is_stmt 0         @ ../Libraries/STM32F4xx_StdPeriph_Driver/src/stm32f4xx_dma2d.c:0:0
	ldr	r2, [r1]
.Ltmp40:
	.loc	3 278 7                 @ ../Libraries/STM32F4xx_StdPeriph_Driver/src/stm32f4xx_dma2d.c:278:7
	orr	r3, r2, #2
	it	eq
	biceq	r3, r2, #2
.Ltmp41:
	.loc	3 0 0                   @ ../Libraries/STM32F4xx_StdPeriph_Driver/src/stm32f4xx_dma2d.c:0:0
	str	r3, [r1]
.Ltmp42:
	.loc	3 288 1 is_stmt 1       @ ../Libraries/STM32F4xx_StdPeriph_Driver/src/stm32f4xx_dma2d.c:288:1
	bx	lr
.Ltmp43:
.Lfunc_end5:
	.size	DMA2D_Suspend, .Lfunc_end5-DMA2D_Suspend
	.cfi_endproc
	.cantunwind
	.fnend
                                        @ -- End function
	.section	.text.DMA2D_FGConfig,"ax",%progbits
	.hidden	DMA2D_FGConfig          @ -- Begin function DMA2D_FGConfig
	.globl	DMA2D_FGConfig
	.p2align	1
	.type	DMA2D_FGConfig,%function
	.code	16                      @ @DMA2D_FGConfig
	.thumb_func
DMA2D_FGConfig:
.Lfunc_begin6:
	.loc	3 299 0                 @ ../Libraries/STM32F4xx_StdPeriph_Driver/src/stm32f4xx_dma2d.c:299:0
	.fnstart
	.cfi_startproc
@ %bb.0:
	.save	{r7, lr}
	push	{r7, lr}
	.cfi_def_cfa_offset 8
	.cfi_offset lr, -4
	.cfi_offset r7, -8
	@DEBUG_VALUE: DMA2D_FGConfig:DMA2D_FG_InitStruct <- $r0
	@DEBUG_VALUE: DMA2D_FGConfig:DMA2D_FG_InitStruct <- $r0
.Ltmp44:
	@DEBUG_VALUE: DMA2D_FGConfig:fg_clutcolormode <- 0
	@DEBUG_VALUE: DMA2D_FGConfig:fg_clutsize <- 0
	@DEBUG_VALUE: DMA2D_FGConfig:fg_alpha_mode <- 0
	@DEBUG_VALUE: DMA2D_FGConfig:fg_alphavalue <- 0
	@DEBUG_VALUE: DMA2D_FGConfig:fg_colorgreen <- 0
	@DEBUG_VALUE: DMA2D_FGConfig:fg_colorred <- 0
	movw	r1, #45072
.Ltmp45:
	.loc	3 319 40 prologue_end   @ ../Libraries/STM32F4xx_StdPeriph_Driver/src/stm32f4xx_dma2d.c:319:40
	ldr	r2, [r0]
	movw	r3, #16383
	movt	r1, #16386
	.loc	3 319 16 is_stmt 0      @ ../Libraries/STM32F4xx_StdPeriph_Driver/src/stm32f4xx_dma2d.c:319:16
	str	r2, [r1, #-4]
	.loc	3 322 15 is_stmt 1      @ ../Libraries/STM32F4xx_StdPeriph_Driver/src/stm32f4xx_dma2d.c:322:15
	ldr	r2, [r1]
	bics	r2, r3
	str	r2, [r1]
	.loc	3 323 40                @ ../Libraries/STM32F4xx_StdPeriph_Driver/src/stm32f4xx_dma2d.c:323:40
	ldr	r2, [r0, #4]
	.loc	3 323 15 is_stmt 0      @ ../Libraries/STM32F4xx_StdPeriph_Driver/src/stm32f4xx_dma2d.c:323:15
	ldr	r3, [r1]
	orrs	r2, r3
	movs	r3, #192
	str	r2, [r1]
	movt	r3, #252
	.loc	3 326 18 is_stmt 1      @ ../Libraries/STM32F4xx_StdPeriph_Driver/src/stm32f4xx_dma2d.c:326:18
	ldr	r2, [r1, #12]
	ands	r2, r3
	str	r2, [r1, #12]
.Ltmp46:
	@DEBUG_VALUE: DMA2D_FGConfig:fg_alphavalue <- undef
	.loc	3 331 43                @ ../Libraries/STM32F4xx_StdPeriph_Driver/src/stm32f4xx_dma2d.c:331:43
	ldrd	r12, lr, [r0, #8]
.Ltmp47:
	@DEBUG_VALUE: DMA2D_FGConfig:fg_clutcolormode <- undef
	.loc	3 328 38                @ ../Libraries/STM32F4xx_StdPeriph_Driver/src/stm32f4xx_dma2d.c:328:38
	ldrd	r2, r3, [r0, #16]
	.loc	3 328 57 is_stmt 0      @ ../Libraries/STM32F4xx_StdPeriph_Driver/src/stm32f4xx_dma2d.c:328:57
	lsls	r2, r2, #8
.Ltmp48:
	@DEBUG_VALUE: DMA2D_FGConfig:fg_clutsize <- $r2
	.loc	3 331 54 is_stmt 1      @ ../Libraries/STM32F4xx_StdPeriph_Driver/src/stm32f4xx_dma2d.c:331:54
	orr.w	r2, r2, lr, lsl #4
.Ltmp49:
	.loc	3 331 73 is_stmt 0      @ ../Libraries/STM32F4xx_StdPeriph_Driver/src/stm32f4xx_dma2d.c:331:73
	orr.w	r2, r2, r3, lsl #16
	.loc	3 330 40 is_stmt 1      @ ../Libraries/STM32F4xx_StdPeriph_Driver/src/stm32f4xx_dma2d.c:330:40
	ldr	r3, [r0, #24]
	.loc	3 331 87                @ ../Libraries/STM32F4xx_StdPeriph_Driver/src/stm32f4xx_dma2d.c:331:87
	orr.w	r2, r2, r12
.Ltmp50:
	@DEBUG_VALUE: DMA2D_FGConfig:fg_alpha_mode <- undef
	.loc	3 332 35                @ ../Libraries/STM32F4xx_StdPeriph_Driver/src/stm32f4xx_dma2d.c:332:35
	orr.w	r2, r2, r3, lsl #24
	.loc	3 331 18                @ ../Libraries/STM32F4xx_StdPeriph_Driver/src/stm32f4xx_dma2d.c:331:18
	ldr	r3, [r1, #12]
	orrs	r2, r3
	str	r2, [r1, #12]
	.loc	3 335 17                @ ../Libraries/STM32F4xx_StdPeriph_Driver/src/stm32f4xx_dma2d.c:335:17
	ldr	r2, [r1, #16]
	and	r2, r2, #-16777216
	str	r2, [r1, #16]
.Ltmp51:
	@DEBUG_VALUE: DMA2D_FGConfig:fg_colorred <- undef
	.loc	3 338 42                @ ../Libraries/STM32F4xx_StdPeriph_Driver/src/stm32f4xx_dma2d.c:338:42
	ldrd	r12, r3, [r0, #28]
.Ltmp52:
	@DEBUG_VALUE: DMA2D_FGConfig:fg_colorgreen <- undef
	.loc	3 337 38                @ ../Libraries/STM32F4xx_StdPeriph_Driver/src/stm32f4xx_dma2d.c:337:38
	ldr	r2, [r0, #36]
	.loc	3 338 57                @ ../Libraries/STM32F4xx_StdPeriph_Driver/src/stm32f4xx_dma2d.c:338:57
	orr.w	r3, r12, r3, lsl #8
	.loc	3 338 73 is_stmt 0      @ ../Libraries/STM32F4xx_StdPeriph_Driver/src/stm32f4xx_dma2d.c:338:73
	orr.w	r2, r3, r2, lsl #16
	.loc	3 338 17                @ ../Libraries/STM32F4xx_StdPeriph_Driver/src/stm32f4xx_dma2d.c:338:17
	ldr	r3, [r1, #16]
	orrs	r2, r3
	str	r2, [r1, #16]
	.loc	3 341 40 is_stmt 1      @ ../Libraries/STM32F4xx_StdPeriph_Driver/src/stm32f4xx_dma2d.c:341:40
	ldr	r0, [r0, #40]
.Ltmp53:
	.loc	3 341 17 is_stmt 0      @ ../Libraries/STM32F4xx_StdPeriph_Driver/src/stm32f4xx_dma2d.c:341:17
	str	r0, [r1, #28]
	.loc	3 342 1 is_stmt 1       @ ../Libraries/STM32F4xx_StdPeriph_Driver/src/stm32f4xx_dma2d.c:342:1
	pop	{r7, pc}
.Ltmp54:
.Lfunc_end6:
	.size	DMA2D_FGConfig, .Lfunc_end6-DMA2D_FGConfig
	.cfi_endproc
	.cantunwind
	.fnend
                                        @ -- End function
	.section	.text.DMA2D_FG_StructInit,"ax",%progbits
	.hidden	DMA2D_FG_StructInit     @ -- Begin function DMA2D_FG_StructInit
	.globl	DMA2D_FG_StructInit
	.p2align	1
	.type	DMA2D_FG_StructInit,%function
	.code	16                      @ @DMA2D_FG_StructInit
	.thumb_func
DMA2D_FG_StructInit:
.Lfunc_begin7:
	.loc	3 351 0                 @ ../Libraries/STM32F4xx_StdPeriph_Driver/src/stm32f4xx_dma2d.c:351:0
	.fnstart
	.cfi_startproc
@ %bb.0:
	.save	{r7, lr}
	push	{r7, lr}
	.cfi_def_cfa_offset 8
	.cfi_offset lr, -4
	.cfi_offset r7, -8
	@DEBUG_VALUE: DMA2D_FG_StructInit:DMA2D_FG_InitStruct <- $r0
	@DEBUG_VALUE: DMA2D_FG_StructInit:DMA2D_FG_InitStruct <- $r0
	@DEBUG_VALUE: DMA2D_FG_StructInit:DMA2D_FG_InitStruct <- $r0
.Ltmp55:
	.loc	3 356 34 prologue_end   @ ../Libraries/STM32F4xx_StdPeriph_Driver/src/stm32f4xx_dma2d.c:356:34
	movs	r1, #44
	bl	__aeabi_memclr4
.Ltmp56:
	.loc	3 384 1                 @ ../Libraries/STM32F4xx_StdPeriph_Driver/src/stm32f4xx_dma2d.c:384:1
	pop	{r7, pc}
.Ltmp57:
.Lfunc_end7:
	.size	DMA2D_FG_StructInit, .Lfunc_end7-DMA2D_FG_StructInit
	.cfi_endproc
	.cantunwind
	.fnend
                                        @ -- End function
	.section	.text.DMA2D_BGConfig,"ax",%progbits
	.hidden	DMA2D_BGConfig          @ -- Begin function DMA2D_BGConfig
	.globl	DMA2D_BGConfig
	.p2align	1
	.type	DMA2D_BGConfig,%function
	.code	16                      @ @DMA2D_BGConfig
	.thumb_func
DMA2D_BGConfig:
.Lfunc_begin8:
	.loc	3 396 0                 @ ../Libraries/STM32F4xx_StdPeriph_Driver/src/stm32f4xx_dma2d.c:396:0
	.fnstart
	.cfi_startproc
@ %bb.0:
	.save	{r7, lr}
	push	{r7, lr}
	.cfi_def_cfa_offset 8
	.cfi_offset lr, -4
	.cfi_offset r7, -8
	@DEBUG_VALUE: DMA2D_BGConfig:DMA2D_BG_InitStruct <- $r0
	@DEBUG_VALUE: DMA2D_BGConfig:DMA2D_BG_InitStruct <- $r0
.Ltmp58:
	@DEBUG_VALUE: DMA2D_BGConfig:bg_clutcolormode <- 0
	@DEBUG_VALUE: DMA2D_BGConfig:bg_clutsize <- 0
	@DEBUG_VALUE: DMA2D_BGConfig:bg_alpha_mode <- 0
	@DEBUG_VALUE: DMA2D_BGConfig:bg_alphavalue <- 0
	@DEBUG_VALUE: DMA2D_BGConfig:bg_colorgreen <- 0
	@DEBUG_VALUE: DMA2D_BGConfig:bg_colorred <- 0
	movw	r1, #45080
.Ltmp59:
	.loc	3 416 40 prologue_end   @ ../Libraries/STM32F4xx_StdPeriph_Driver/src/stm32f4xx_dma2d.c:416:40
	ldr	r2, [r0]
	movw	r3, #16383
	movt	r1, #16386
	.loc	3 416 16 is_stmt 0      @ ../Libraries/STM32F4xx_StdPeriph_Driver/src/stm32f4xx_dma2d.c:416:16
	str	r2, [r1, #-4]
	.loc	3 419 15 is_stmt 1      @ ../Libraries/STM32F4xx_StdPeriph_Driver/src/stm32f4xx_dma2d.c:419:15
	ldr	r2, [r1]
	bics	r2, r3
	str	r2, [r1]
	.loc	3 420 40                @ ../Libraries/STM32F4xx_StdPeriph_Driver/src/stm32f4xx_dma2d.c:420:40
	ldr	r2, [r0, #4]
	.loc	3 420 15 is_stmt 0      @ ../Libraries/STM32F4xx_StdPeriph_Driver/src/stm32f4xx_dma2d.c:420:15
	ldr	r3, [r1]
	orrs	r2, r3
	movs	r3, #192
	str	r2, [r1]
	movt	r3, #252
	.loc	3 423 18 is_stmt 1      @ ../Libraries/STM32F4xx_StdPeriph_Driver/src/stm32f4xx_dma2d.c:423:18
	ldr	r2, [r1, #12]
	ands	r2, r3
	str	r2, [r1, #12]
.Ltmp60:
	@DEBUG_VALUE: DMA2D_BGConfig:bg_alphavalue <- undef
	.loc	3 428 43                @ ../Libraries/STM32F4xx_StdPeriph_Driver/src/stm32f4xx_dma2d.c:428:43
	ldrd	r12, lr, [r0, #8]
.Ltmp61:
	@DEBUG_VALUE: DMA2D_BGConfig:bg_clutcolormode <- undef
	.loc	3 425 38                @ ../Libraries/STM32F4xx_StdPeriph_Driver/src/stm32f4xx_dma2d.c:425:38
	ldrd	r2, r3, [r0, #16]
	.loc	3 425 57 is_stmt 0      @ ../Libraries/STM32F4xx_StdPeriph_Driver/src/stm32f4xx_dma2d.c:425:57
	lsls	r2, r2, #8
.Ltmp62:
	@DEBUG_VALUE: DMA2D_BGConfig:bg_clutsize <- $r2
	.loc	3 428 54 is_stmt 1      @ ../Libraries/STM32F4xx_StdPeriph_Driver/src/stm32f4xx_dma2d.c:428:54
	orr.w	r2, r2, lr, lsl #4
.Ltmp63:
	.loc	3 428 73 is_stmt 0      @ ../Libraries/STM32F4xx_StdPeriph_Driver/src/stm32f4xx_dma2d.c:428:73
	orr.w	r2, r2, r3, lsl #16
	.loc	3 427 40 is_stmt 1      @ ../Libraries/STM32F4xx_StdPeriph_Driver/src/stm32f4xx_dma2d.c:427:40
	ldr	r3, [r0, #24]
	.loc	3 428 87                @ ../Libraries/STM32F4xx_StdPeriph_Driver/src/stm32f4xx_dma2d.c:428:87
	orr.w	r2, r2, r12
.Ltmp64:
	@DEBUG_VALUE: DMA2D_BGConfig:bg_alpha_mode <- undef
	.loc	3 429 35                @ ../Libraries/STM32F4xx_StdPeriph_Driver/src/stm32f4xx_dma2d.c:429:35
	orr.w	r2, r2, r3, lsl #24
	.loc	3 428 18                @ ../Libraries/STM32F4xx_StdPeriph_Driver/src/stm32f4xx_dma2d.c:428:18
	ldr	r3, [r1, #12]
	orrs	r2, r3
	str	r2, [r1, #12]
	.loc	3 432 17                @ ../Libraries/STM32F4xx_StdPeriph_Driver/src/stm32f4xx_dma2d.c:432:17
	ldr	r2, [r1, #16]
	and	r2, r2, #-16777216
	str	r2, [r1, #16]
.Ltmp65:
	@DEBUG_VALUE: DMA2D_BGConfig:bg_colorred <- undef
	.loc	3 435 42                @ ../Libraries/STM32F4xx_StdPeriph_Driver/src/stm32f4xx_dma2d.c:435:42
	ldrd	r12, r3, [r0, #28]
.Ltmp66:
	@DEBUG_VALUE: DMA2D_BGConfig:bg_colorgreen <- undef
	.loc	3 434 38                @ ../Libraries/STM32F4xx_StdPeriph_Driver/src/stm32f4xx_dma2d.c:434:38
	ldr	r2, [r0, #36]
	.loc	3 435 57                @ ../Libraries/STM32F4xx_StdPeriph_Driver/src/stm32f4xx_dma2d.c:435:57
	orr.w	r3, r12, r3, lsl #8
	.loc	3 435 73 is_stmt 0      @ ../Libraries/STM32F4xx_StdPeriph_Driver/src/stm32f4xx_dma2d.c:435:73
	orr.w	r2, r3, r2, lsl #16
	.loc	3 435 17                @ ../Libraries/STM32F4xx_StdPeriph_Driver/src/stm32f4xx_dma2d.c:435:17
	ldr	r3, [r1, #16]
	orrs	r2, r3
	str	r2, [r1, #16]
	.loc	3 438 40 is_stmt 1      @ ../Libraries/STM32F4xx_StdPeriph_Driver/src/stm32f4xx_dma2d.c:438:40
	ldr	r0, [r0, #40]
.Ltmp67:
	.loc	3 438 17 is_stmt 0      @ ../Libraries/STM32F4xx_StdPeriph_Driver/src/stm32f4xx_dma2d.c:438:17
	str	r0, [r1, #24]
	.loc	3 440 1 is_stmt 1       @ ../Libraries/STM32F4xx_StdPeriph_Driver/src/stm32f4xx_dma2d.c:440:1
	pop	{r7, pc}
.Ltmp68:
.Lfunc_end8:
	.size	DMA2D_BGConfig, .Lfunc_end8-DMA2D_BGConfig
	.cfi_endproc
	.cantunwind
	.fnend
                                        @ -- End function
	.section	.text.DMA2D_BG_StructInit,"ax",%progbits
	.hidden	DMA2D_BG_StructInit     @ -- Begin function DMA2D_BG_StructInit
	.globl	DMA2D_BG_StructInit
	.p2align	1
	.type	DMA2D_BG_StructInit,%function
	.code	16                      @ @DMA2D_BG_StructInit
	.thumb_func
DMA2D_BG_StructInit:
.Lfunc_begin9:
	.loc	3 449 0                 @ ../Libraries/STM32F4xx_StdPeriph_Driver/src/stm32f4xx_dma2d.c:449:0
	.fnstart
	.cfi_startproc
@ %bb.0:
	.save	{r7, lr}
	push	{r7, lr}
	.cfi_def_cfa_offset 8
	.cfi_offset lr, -4
	.cfi_offset r7, -8
	@DEBUG_VALUE: DMA2D_BG_StructInit:DMA2D_BG_InitStruct <- $r0
	@DEBUG_VALUE: DMA2D_BG_StructInit:DMA2D_BG_InitStruct <- $r0
	@DEBUG_VALUE: DMA2D_BG_StructInit:DMA2D_BG_InitStruct <- $r0
.Ltmp69:
	.loc	3 454 34 prologue_end   @ ../Libraries/STM32F4xx_StdPeriph_Driver/src/stm32f4xx_dma2d.c:454:34
	movs	r1, #44
	bl	__aeabi_memclr4
.Ltmp70:
	.loc	3 482 1                 @ ../Libraries/STM32F4xx_StdPeriph_Driver/src/stm32f4xx_dma2d.c:482:1
	pop	{r7, pc}
.Ltmp71:
.Lfunc_end9:
	.size	DMA2D_BG_StructInit, .Lfunc_end9-DMA2D_BG_StructInit
	.cfi_endproc
	.cantunwind
	.fnend
                                        @ -- End function
	.section	.text.DMA2D_FGStart,"ax",%progbits
	.hidden	DMA2D_FGStart           @ -- Begin function DMA2D_FGStart
	.globl	DMA2D_FGStart
	.p2align	1
	.type	DMA2D_FGStart,%function
	.code	16                      @ @DMA2D_FGStart
	.thumb_func
DMA2D_FGStart:
.Lfunc_begin10:
	.loc	3 492 0                 @ ../Libraries/STM32F4xx_StdPeriph_Driver/src/stm32f4xx_dma2d.c:492:0
	.fnstart
	.cfi_startproc
@ %bb.0:
	@DEBUG_VALUE: DMA2D_FGStart:NewState <- $r0
	movw	r1, #45084
.Ltmp72:
	.loc	3 496 7 prologue_end    @ ../Libraries/STM32F4xx_StdPeriph_Driver/src/stm32f4xx_dma2d.c:496:7
	cmp	r0, #0
	movt	r1, #16386
	@DEBUG_VALUE: DMA2D_FGStart:NewState <- $r0
.Ltmp73:
	.loc	3 0 0 is_stmt 0         @ ../Libraries/STM32F4xx_StdPeriph_Driver/src/stm32f4xx_dma2d.c:0:0
	ldr	r2, [r1]
.Ltmp74:
	.loc	3 496 7                 @ ../Libraries/STM32F4xx_StdPeriph_Driver/src/stm32f4xx_dma2d.c:496:7
	orr	r3, r2, #32
	it	eq
	biceq	r3, r2, #32
.Ltmp75:
	.loc	3 0 0                   @ ../Libraries/STM32F4xx_StdPeriph_Driver/src/stm32f4xx_dma2d.c:0:0
	str	r3, [r1]
.Ltmp76:
	.loc	3 506 1 is_stmt 1       @ ../Libraries/STM32F4xx_StdPeriph_Driver/src/stm32f4xx_dma2d.c:506:1
	bx	lr
.Ltmp77:
.Lfunc_end10:
	.size	DMA2D_FGStart, .Lfunc_end10-DMA2D_FGStart
	.cfi_endproc
	.cantunwind
	.fnend
                                        @ -- End function
	.section	.text.DMA2D_BGStart,"ax",%progbits
	.hidden	DMA2D_BGStart           @ -- Begin function DMA2D_BGStart
	.globl	DMA2D_BGStart
	.p2align	1
	.type	DMA2D_BGStart,%function
	.code	16                      @ @DMA2D_BGStart
	.thumb_func
DMA2D_BGStart:
.Lfunc_begin11:
	.loc	3 516 0                 @ ../Libraries/STM32F4xx_StdPeriph_Driver/src/stm32f4xx_dma2d.c:516:0
	.fnstart
	.cfi_startproc
@ %bb.0:
	@DEBUG_VALUE: DMA2D_BGStart:NewState <- $r0
	movw	r1, #45092
.Ltmp78:
	.loc	3 520 7 prologue_end    @ ../Libraries/STM32F4xx_StdPeriph_Driver/src/stm32f4xx_dma2d.c:520:7
	cmp	r0, #0
	movt	r1, #16386
	@DEBUG_VALUE: DMA2D_BGStart:NewState <- $r0
.Ltmp79:
	.loc	3 0 0 is_stmt 0         @ ../Libraries/STM32F4xx_StdPeriph_Driver/src/stm32f4xx_dma2d.c:0:0
	ldr	r2, [r1]
.Ltmp80:
	.loc	3 520 7                 @ ../Libraries/STM32F4xx_StdPeriph_Driver/src/stm32f4xx_dma2d.c:520:7
	orr	r3, r2, #32
	it	eq
	biceq	r3, r2, #32
.Ltmp81:
	.loc	3 0 0                   @ ../Libraries/STM32F4xx_StdPeriph_Driver/src/stm32f4xx_dma2d.c:0:0
	str	r3, [r1]
.Ltmp82:
	.loc	3 530 1 is_stmt 1       @ ../Libraries/STM32F4xx_StdPeriph_Driver/src/stm32f4xx_dma2d.c:530:1
	bx	lr
.Ltmp83:
.Lfunc_end11:
	.size	DMA2D_BGStart, .Lfunc_end11-DMA2D_BGStart
	.cfi_endproc
	.cantunwind
	.fnend
                                        @ -- End function
	.section	.text.DMA2D_DeadTimeConfig,"ax",%progbits
	.hidden	DMA2D_DeadTimeConfig    @ -- Begin function DMA2D_DeadTimeConfig
	.globl	DMA2D_DeadTimeConfig
	.p2align	1
	.type	DMA2D_DeadTimeConfig,%function
	.code	16                      @ @DMA2D_DeadTimeConfig
	.thumb_func
DMA2D_DeadTimeConfig:
.Lfunc_begin12:
	.loc	3 539 0                 @ ../Libraries/STM32F4xx_StdPeriph_Driver/src/stm32f4xx_dma2d.c:539:0
	.fnstart
	.cfi_startproc
@ %bb.0:
	@DEBUG_VALUE: DMA2D_DeadTimeConfig:DMA2D_DeadTime <- $r0
	@DEBUG_VALUE: DMA2D_DeadTimeConfig:NewState <- $r1
	movw	r2, #45132
.Ltmp84:
	.loc	3 546 7 prologue_end    @ ../Libraries/STM32F4xx_StdPeriph_Driver/src/stm32f4xx_dma2d.c:546:7
	cmp	r1, #0
	movt	r2, #16386
	@DEBUG_VALUE: DMA2D_DeadTimeConfig:NewState <- $r1
	@DEBUG_VALUE: DMA2D_DeadTimeConfig:DMA2D_DeadTime <- $r0
.Ltmp85:
	.loc	3 0 0 is_stmt 0         @ ../Libraries/STM32F4xx_StdPeriph_Driver/src/stm32f4xx_dma2d.c:0:0
	ldr	r3, [r2]
.Ltmp86:
	.loc	3 546 7                 @ ../Libraries/STM32F4xx_StdPeriph_Driver/src/stm32f4xx_dma2d.c:546:7
	beq	.LBB12_2
.Ltmp87:
@ %bb.1:
	@DEBUG_VALUE: DMA2D_DeadTimeConfig:NewState <- $r1
	@DEBUG_VALUE: DMA2D_DeadTimeConfig:DMA2D_DeadTime <- $r0
	.loc	3 0 7                   @ ../Libraries/STM32F4xx_StdPeriph_Driver/src/stm32f4xx_dma2d.c:0:7
	movw	r1, #65281
.Ltmp88:
	.loc	3 549 18 is_stmt 1      @ ../Libraries/STM32F4xx_StdPeriph_Driver/src/stm32f4xx_dma2d.c:549:18
	bic.w	r1, r3, r1
	str	r1, [r2]
.Ltmp89:
	@DEBUG_VALUE: DMA2D_DeadTimeConfig:DeadTime <- undef
	.loc	3 551 18                @ ../Libraries/STM32F4xx_StdPeriph_Driver/src/stm32f4xx_dma2d.c:551:18
	ldr	r1, [r2]
	orr.w	r0, r1, r0, lsl #8
.Ltmp90:
	orr	r0, r0, #1
	b	.LBB12_3
.Ltmp91:
.LBB12_2:
	@DEBUG_VALUE: DMA2D_DeadTimeConfig:NewState <- $r1
	@DEBUG_VALUE: DMA2D_DeadTimeConfig:DMA2D_DeadTime <- $r0
	.loc	3 555 19                @ ../Libraries/STM32F4xx_StdPeriph_Driver/src/stm32f4xx_dma2d.c:555:19
	bic	r0, r3, #1
.Ltmp92:
.LBB12_3:
	.loc	3 0 0 is_stmt 0         @ ../Libraries/STM32F4xx_StdPeriph_Driver/src/stm32f4xx_dma2d.c:0:0
	str	r0, [r2]
.Ltmp93:
	.loc	3 557 1 is_stmt 1       @ ../Libraries/STM32F4xx_StdPeriph_Driver/src/stm32f4xx_dma2d.c:557:1
	bx	lr
.Ltmp94:
.Lfunc_end12:
	.size	DMA2D_DeadTimeConfig, .Lfunc_end12-DMA2D_DeadTimeConfig
	.cfi_endproc
	.cantunwind
	.fnend
                                        @ -- End function
	.section	.text.DMA2D_LineWatermarkConfig,"ax",%progbits
	.hidden	DMA2D_LineWatermarkConfig @ -- Begin function DMA2D_LineWatermarkConfig
	.globl	DMA2D_LineWatermarkConfig
	.p2align	1
	.type	DMA2D_LineWatermarkConfig,%function
	.code	16                      @ @DMA2D_LineWatermarkConfig
	.thumb_func
DMA2D_LineWatermarkConfig:
.Lfunc_begin13:
	.loc	3 566 0                 @ ../Libraries/STM32F4xx_StdPeriph_Driver/src/stm32f4xx_dma2d.c:566:0
	.fnstart
	.cfi_startproc
@ %bb.0:
	@DEBUG_VALUE: DMA2D_LineWatermarkConfig:DMA2D_LWatermarkConfig <- $r0
	movw	r1, #45128
	movt	r1, #16386
	@DEBUG_VALUE: DMA2D_LineWatermarkConfig:DMA2D_LWatermarkConfig <- $r0
.Ltmp95:
	.loc	3 571 14 prologue_end   @ ../Libraries/STM32F4xx_StdPeriph_Driver/src/stm32f4xx_dma2d.c:571:14
	str	r0, [r1]
	.loc	3 572 1                 @ ../Libraries/STM32F4xx_StdPeriph_Driver/src/stm32f4xx_dma2d.c:572:1
	bx	lr
.Ltmp96:
.Lfunc_end13:
	.size	DMA2D_LineWatermarkConfig, .Lfunc_end13-DMA2D_LineWatermarkConfig
	.cfi_endproc
	.cantunwind
	.fnend
                                        @ -- End function
	.section	.text.DMA2D_ITConfig,"ax",%progbits
	.hidden	DMA2D_ITConfig          @ -- Begin function DMA2D_ITConfig
	.globl	DMA2D_ITConfig
	.p2align	1
	.type	DMA2D_ITConfig,%function
	.code	16                      @ @DMA2D_ITConfig
	.thumb_func
DMA2D_ITConfig:
.Lfunc_begin14:
	.loc	3 633 0                 @ ../Libraries/STM32F4xx_StdPeriph_Driver/src/stm32f4xx_dma2d.c:633:0
	.fnstart
	.cfi_startproc
@ %bb.0:
	@DEBUG_VALUE: DMA2D_ITConfig:DMA2D_IT <- $r0
	@DEBUG_VALUE: DMA2D_ITConfig:NewState <- $r1
	movw	r2, #45056
.Ltmp97:
	.loc	3 638 7 prologue_end    @ ../Libraries/STM32F4xx_StdPeriph_Driver/src/stm32f4xx_dma2d.c:638:7
	cmp	r1, #0
	movt	r2, #16386
	@DEBUG_VALUE: DMA2D_ITConfig:NewState <- $r1
	@DEBUG_VALUE: DMA2D_ITConfig:DMA2D_IT <- $r0
.Ltmp98:
	.loc	3 646 15                @ ../Libraries/STM32F4xx_StdPeriph_Driver/src/stm32f4xx_dma2d.c:646:15
	ldr	r1, [r2]
.Ltmp99:
	ite	eq
	biceq.w	r0, r1, r0
.Ltmp100:
	.loc	3 641 15                @ ../Libraries/STM32F4xx_StdPeriph_Driver/src/stm32f4xx_dma2d.c:641:15
	orrne	r0, r1
.Ltmp101:
	.loc	3 0 0 is_stmt 0         @ ../Libraries/STM32F4xx_StdPeriph_Driver/src/stm32f4xx_dma2d.c:0:0
	str	r0, [r2]
.Ltmp102:
	.loc	3 648 1 is_stmt 1       @ ../Libraries/STM32F4xx_StdPeriph_Driver/src/stm32f4xx_dma2d.c:648:1
	bx	lr
.Ltmp103:
.Lfunc_end14:
	.size	DMA2D_ITConfig, .Lfunc_end14-DMA2D_ITConfig
	.cfi_endproc
	.cantunwind
	.fnend
                                        @ -- End function
	.section	.text.DMA2D_GetFlagStatus,"ax",%progbits
	.hidden	DMA2D_GetFlagStatus     @ -- Begin function DMA2D_GetFlagStatus
	.globl	DMA2D_GetFlagStatus
	.p2align	1
	.type	DMA2D_GetFlagStatus,%function
	.code	16                      @ @DMA2D_GetFlagStatus
	.thumb_func
DMA2D_GetFlagStatus:
.Lfunc_begin15:
	.loc	3 664 0                 @ ../Libraries/STM32F4xx_StdPeriph_Driver/src/stm32f4xx_dma2d.c:664:0
	.fnstart
	.cfi_startproc
@ %bb.0:
	@DEBUG_VALUE: DMA2D_GetFlagStatus:DMA2D_FLAG <- $r0
	movw	r1, #45060
	movt	r1, #16386
.Ltmp104:
	@DEBUG_VALUE: DMA2D_GetFlagStatus:bitstatus <- 0
	@DEBUG_VALUE: DMA2D_GetFlagStatus:DMA2D_FLAG <- $r0
	.loc	3 671 16 prologue_end   @ ../Libraries/STM32F4xx_StdPeriph_Driver/src/stm32f4xx_dma2d.c:671:16
	ldr	r1, [r1]
	.loc	3 671 21 is_stmt 0      @ ../Libraries/STM32F4xx_StdPeriph_Driver/src/stm32f4xx_dma2d.c:671:21
	ands	r0, r1
.Ltmp105:
	.loc	3 671 35                @ ../Libraries/STM32F4xx_StdPeriph_Driver/src/stm32f4xx_dma2d.c:671:35
	it	ne
	movne	r0, #1
.Ltmp106:
	@DEBUG_VALUE: DMA2D_GetFlagStatus:bitstatus <- undef
	.loc	3 682 3 is_stmt 1       @ ../Libraries/STM32F4xx_StdPeriph_Driver/src/stm32f4xx_dma2d.c:682:3
	bx	lr
.Ltmp107:
.Lfunc_end15:
	.size	DMA2D_GetFlagStatus, .Lfunc_end15-DMA2D_GetFlagStatus
	.cfi_endproc
	.cantunwind
	.fnend
                                        @ -- End function
	.section	.text.DMA2D_ClearFlag,"ax",%progbits
	.hidden	DMA2D_ClearFlag         @ -- Begin function DMA2D_ClearFlag
	.globl	DMA2D_ClearFlag
	.p2align	1
	.type	DMA2D_ClearFlag,%function
	.code	16                      @ @DMA2D_ClearFlag
	.thumb_func
DMA2D_ClearFlag:
.Lfunc_begin16:
	.loc	3 698 0                 @ ../Libraries/STM32F4xx_StdPeriph_Driver/src/stm32f4xx_dma2d.c:698:0
	.fnstart
	.cfi_startproc
@ %bb.0:
	@DEBUG_VALUE: DMA2D_ClearFlag:DMA2D_FLAG <- $r0
	movw	r1, #45064
	movt	r1, #16386
	@DEBUG_VALUE: DMA2D_ClearFlag:DMA2D_FLAG <- $r0
.Ltmp108:
	.loc	3 703 15 prologue_end   @ ../Libraries/STM32F4xx_StdPeriph_Driver/src/stm32f4xx_dma2d.c:703:15
	str	r0, [r1]
	.loc	3 704 1                 @ ../Libraries/STM32F4xx_StdPeriph_Driver/src/stm32f4xx_dma2d.c:704:1
	bx	lr
.Ltmp109:
.Lfunc_end16:
	.size	DMA2D_ClearFlag, .Lfunc_end16-DMA2D_ClearFlag
	.cfi_endproc
	.cantunwind
	.fnend
                                        @ -- End function
	.section	.text.DMA2D_GetITStatus,"ax",%progbits
	.hidden	DMA2D_GetITStatus       @ -- Begin function DMA2D_GetITStatus
	.globl	DMA2D_GetITStatus
	.p2align	1
	.type	DMA2D_GetITStatus,%function
	.code	16                      @ @DMA2D_GetITStatus
	.thumb_func
DMA2D_GetITStatus:
.Lfunc_begin17:
	.loc	3 719 0                 @ ../Libraries/STM32F4xx_StdPeriph_Driver/src/stm32f4xx_dma2d.c:719:0
	.fnstart
	.cfi_startproc
@ %bb.0:
	@DEBUG_VALUE: DMA2D_GetITStatus:DMA2D_IT <- $r0
	@DEBUG_VALUE: DMA2D_GetITStatus:DMA2D_IT_FLAG <- undef
	movw	r1, #45056
	movt	r1, #16386
.Ltmp110:
	@DEBUG_VALUE: DMA2D_GetITStatus:bitstatus <- 0
	@DEBUG_VALUE: DMA2D_GetITStatus:DMA2D_IT <- $r0
	.loc	3 726 15 prologue_end   @ ../Libraries/STM32F4xx_StdPeriph_Driver/src/stm32f4xx_dma2d.c:726:15
	ldr	r2, [r1, #4]
	.loc	3 726 19 is_stmt 0      @ ../Libraries/STM32F4xx_StdPeriph_Driver/src/stm32f4xx_dma2d.c:726:19
	and.w	r2, r2, r0, lsr #8
	.loc	3 726 36                @ ../Libraries/STM32F4xx_StdPeriph_Driver/src/stm32f4xx_dma2d.c:726:36
	cmp	r2, #0
	it	ne
	movne	r2, #1
.Ltmp111:
	.loc	3 735 16 is_stmt 1      @ ../Libraries/STM32F4xx_StdPeriph_Driver/src/stm32f4xx_dma2d.c:735:16
	ldr	r1, [r1]
	.loc	3 735 19 is_stmt 0      @ ../Libraries/STM32F4xx_StdPeriph_Driver/src/stm32f4xx_dma2d.c:735:19
	ands	r0, r1
.Ltmp112:
	.loc	3 735 31                @ ../Libraries/STM32F4xx_StdPeriph_Driver/src/stm32f4xx_dma2d.c:735:31
	it	ne
	movne	r0, #1
	.loc	3 735 51                @ ../Libraries/STM32F4xx_StdPeriph_Driver/src/stm32f4xx_dma2d.c:735:51
	ands	r0, r2
.Ltmp113:
	@DEBUG_VALUE: DMA2D_GetITStatus:bitstatus <- undef
	.loc	3 743 3 is_stmt 1       @ ../Libraries/STM32F4xx_StdPeriph_Driver/src/stm32f4xx_dma2d.c:743:3
	bx	lr
.Ltmp114:
.Lfunc_end17:
	.size	DMA2D_GetITStatus, .Lfunc_end17-DMA2D_GetITStatus
	.cfi_endproc
	.cantunwind
	.fnend
                                        @ -- End function
	.section	.text.DMA2D_ClearITPendingBit,"ax",%progbits
	.hidden	DMA2D_ClearITPendingBit @ -- Begin function DMA2D_ClearITPendingBit
	.globl	DMA2D_ClearITPendingBit
	.p2align	1
	.type	DMA2D_ClearITPendingBit,%function
	.code	16                      @ @DMA2D_ClearITPendingBit
	.thumb_func
DMA2D_ClearITPendingBit:
.Lfunc_begin18:
	.loc	3 759 0                 @ ../Libraries/STM32F4xx_StdPeriph_Driver/src/stm32f4xx_dma2d.c:759:0
	.fnstart
	.cfi_startproc
@ %bb.0:
	@DEBUG_VALUE: DMA2D_ClearITPendingBit:DMA2D_IT <- $r0
	@DEBUG_VALUE: DMA2D_ClearITPendingBit:DMA2D_IT <- $r0
	movw	r1, #45064
.Ltmp115:
	.loc	3 762 23 prologue_end   @ ../Libraries/STM32F4xx_StdPeriph_Driver/src/stm32f4xx_dma2d.c:762:23
	lsrs	r0, r0, #8
.Ltmp116:
	@DEBUG_VALUE: DMA2D_ClearITPendingBit:DMA2D_IT <- $r0
	.loc	3 0 23 is_stmt 0        @ ../Libraries/STM32F4xx_StdPeriph_Driver/src/stm32f4xx_dma2d.c:0:23
	movt	r1, #16386
	.loc	3 765 15 is_stmt 1      @ ../Libraries/STM32F4xx_StdPeriph_Driver/src/stm32f4xx_dma2d.c:765:15
	str	r0, [r1]
	.loc	3 766 1                 @ ../Libraries/STM32F4xx_StdPeriph_Driver/src/stm32f4xx_dma2d.c:766:1
	bx	lr
.Ltmp117:
.Lfunc_end18:
	.size	DMA2D_ClearITPendingBit, .Lfunc_end18-DMA2D_ClearITPendingBit
	.cfi_endproc
	.cantunwind
	.fnend
                                        @ -- End function
	.file	4 "F:\\SkyDrive\\OtvoreniProjekti\\HotelSaplast\\fw\\KontrolerHotela\\HC070318\\Project" "../Libraries/STM32F4xx_StdPeriph_Driver/inc\\stm32f4xx_dma2d.h"
	.section	".note.GNU-stack","",%progbits
	.eabi_attribute	30, 3	@ Tag_ABI_optimization_goals
	.ARM_attribute	16, 1	@ Tag_AV_eba