	.text
	.syntax unified
	.eabi_attribute	67, "2.09"	@ Tag_conformance
	.cpu	cortex-m4
	.eabi_attribute	6, 13	@ Tag_CPU_arch
	.eabi_attribute	7, 77	@ Tag_CPU_arch_profile
	.eabi_attribute	8, 0	@ Tag_ARM_ISA_use
	.eabi_attribute	9, 2	@ Tag_THUMB_ISA_use
	.fpu	fpv4-sp-d16
	.eabi_attribute	27, 1	@ Tag_ABI_HardFP_use
	.eabi_attribute	36, 1	@ Tag_FP_HP_extension
	.eabi_attribute	34, 1	@ Tag_CPU_unaligned_access
	.eabi_attribute	17, 1	@ Tag_ABI_PCS_GOT_use
	.eabi_attribute	20, 2	@ Tag_ABI_FP_denormal
	.eabi_attribute	21, 0	@ Tag_ABI_FP_exceptions
	.eabi_attribute	23, 1	@ Tag_ABI_FP_number_model
	.eabi_attribute	24, 1	@ Tag_ABI_align_needed
	.eabi_attribute	25, 1	@ Tag_ABI_align_preserved
	.eabi_attribute	28, 1	@ Tag_ABI_VFP_args
	.eabi_attribute	38, 1	@ Tag_ABI_FP_16bit_format
	.eabi_attribute	18, 2	@ Tag_ABI_PCS_wchar_t
	.eabi_attribute	26, 1	@ Tag_ABI_enum_size
	.eabi_attribute	14, 0	@ Tag_ABI_PCS_R9_use
	.file	"stm32f4xx_i2c.c"
	.file	1 "F:\\SkyDrive\\OtvoreniProjekti\\HotelSaplast\\fw\\KontrolerHotela\\HC070318\\Project" "../Libraries/CMSIS/Device/ST/STM32F4xx/Include\\stm32f4xx.h"
	.file	2 "C:\\Keil\\ARM\\ARMCLANG\\Bin\\..\\include" "stdint.h"
	.section	.text.I2C_DeInit,"ax",%progbits
	.hidden	I2C_DeInit              @ -- Begin function I2C_DeInit
	.globl	I2C_DeInit
	.p2align	1
	.type	I2C_DeInit,%function
	.code	16                      @ @I2C_DeInit
	.thumb_func
I2C_DeInit:
.Lfunc_begin0:
	.file	3 "F:\\SkyDrive\\OtvoreniProjekti\\HotelSaplast\\fw\\KontrolerHotela\\HC070318\\Project" "../Libraries/STM32F4xx_StdPeriph_Driver/src/stm32f4xx_i2c.c"
	.loc	3 138 0                 @ ../Libraries/STM32F4xx_StdPeriph_Driver/src/stm32f4xx_i2c.c:138:0
	.fnstart
	.cfi_sections .debug_frame
	.cfi_startproc
@ %bb.0:
	.save	{r7, lr}
	push	{r7, lr}
	.cfi_def_cfa_offset 8
	.cfi_offset lr, -4
	.cfi_offset r7, -8
	@DEBUG_VALUE: I2C_DeInit:I2Cx <- $r0
	movw	r1, #23552
	movt	r1, #16384
	@DEBUG_VALUE: I2C_DeInit:I2Cx <- $r0
.Ltmp0:
	.loc	3 142 7 prologue_end    @ ../Libraries/STM32F4xx_StdPeriph_Driver/src/stm32f4xx_i2c.c:142:7
	cmp	r0, r1
	beq	.LBB0_3
.Ltmp1:
@ %bb.1:
	@DEBUG_VALUE: I2C_DeInit:I2Cx <- $r0
	.loc	3 0 7 is_stmt 0         @ ../Libraries/STM32F4xx_StdPeriph_Driver/src/stm32f4xx_i2c.c:0:7
	movw	r1, #22528
	movt	r1, #16384
	.loc	3 142 7                 @ ../Libraries/STM32F4xx_StdPeriph_Driver/src/stm32f4xx_i2c.c:142:7
	cmp	r0, r1
	beq	.LBB0_4
.Ltmp2:
@ %bb.2:
	@DEBUG_VALUE: I2C_DeInit:I2Cx <- $r0
	.loc	3 0 7                   @ ../Libraries/STM32F4xx_StdPeriph_Driver/src/stm32f4xx_i2c.c:0:7
	movw	r1, #21504
	movt	r1, #16384
	.loc	3 142 7                 @ ../Libraries/STM32F4xx_StdPeriph_Driver/src/stm32f4xx_i2c.c:142:7
	cmp	r0, r1
	.loc	3 166 1 is_stmt 1       @ ../Libraries/STM32F4xx_StdPeriph_Driver/src/stm32f4xx_i2c.c:166:1
	it	ne
	popne	{r7, pc}
.Ltmp3:
	.loc	3 145 5                 @ ../Libraries/STM32F4xx_StdPeriph_Driver/src/stm32f4xx_i2c.c:145:5
	mov.w	r0, #2097152
.Ltmp4:
	movs	r1, #1
	bl	RCC_APB1PeriphResetCmd
	.loc	3 147 5                 @ ../Libraries/STM32F4xx_StdPeriph_Driver/src/stm32f4xx_i2c.c:147:5
	mov.w	r0, #2097152
	b	.LBB0_5
.Ltmp5:
.LBB0_3:
	@DEBUG_VALUE: I2C_DeInit:I2Cx <- $r0
	.loc	3 161 7                 @ ../Libraries/STM32F4xx_StdPeriph_Driver/src/stm32f4xx_i2c.c:161:7
	mov.w	r0, #8388608
.Ltmp6:
	movs	r1, #1
	bl	RCC_APB1PeriphResetCmd
	.loc	3 163 7                 @ ../Libraries/STM32F4xx_StdPeriph_Driver/src/stm32f4xx_i2c.c:163:7
	mov.w	r0, #8388608
	b	.LBB0_5
.Ltmp7:
.LBB0_4:
	@DEBUG_VALUE: I2C_DeInit:I2Cx <- $r0
	.loc	3 152 5                 @ ../Libraries/STM32F4xx_StdPeriph_Driver/src/stm32f4xx_i2c.c:152:5
	mov.w	r0, #4194304
.Ltmp8:
	movs	r1, #1
	bl	RCC_APB1PeriphResetCmd
	.loc	3 154 5                 @ ../Libraries/STM32F4xx_StdPeriph_Driver/src/stm32f4xx_i2c.c:154:5
	mov.w	r0, #4194304
.Ltmp9:
.LBB0_5:
	.loc	3 0 0 is_stmt 0         @ ../Libraries/STM32F4xx_StdPeriph_Driver/src/stm32f4xx_i2c.c:0:0
	movs	r1, #0
	pop.w	{r7, lr}
	b	RCC_APB1PeriphResetCmd
.Ltmp10:
.Lfunc_end0:
	.size	I2C_DeInit, .Lfunc_end0-I2C_DeInit
	.cfi_endproc
	.cantunwind
	.fnend
                                        @ -- End function
	.section	.text.I2C_Init,"ax",%progbits
	.hidden	I2C_Init                @ -- Begin function I2C_Init
	.globl	I2C_Init
	.p2align	1
	.type	I2C_Init,%function
	.code	16                      @ @I2C_Init
	.thumb_func
I2C_Init:
.Lfunc_begin1:
	.loc	3 181 0 is_stmt 1       @ ../Libraries/STM32F4xx_StdPeriph_Driver/src/stm32f4xx_i2c.c:181:0
	.fnstart
	.cfi_startproc
@ %bb.0:
	.save	{r4, r5, r6, lr}
	push	{r4, r5, r6, lr}
	.cfi_def_cfa_offset 16
	.cfi_offset lr, -4
	.cfi_offset r6, -8
	.cfi_offset r5, -12
	.cfi_offset r4, -16
	.pad	#16
	sub	sp, #16
	.cfi_def_cfa_offset 32
	@DEBUG_VALUE: I2C_Init:I2Cx <- $r0
	@DEBUG_VALUE: I2C_Init:I2C_InitStruct <- $r1
	mov	r4, r0
.Ltmp11:
	@DEBUG_VALUE: I2C_Init:pclk1 <- 8000000
	@DEBUG_VALUE: I2C_Init:result <- 4
	@DEBUG_VALUE: I2C_Init:freqrange <- 0
	@DEBUG_VALUE: I2C_Init:tmpreg <- 0
	@DEBUG_VALUE: I2C_Init:I2C_InitStruct <- $r5
	@DEBUG_VALUE: I2C_Init:I2Cx <- $r4
	.loc	3 197 18 prologue_end   @ ../Libraries/STM32F4xx_StdPeriph_Driver/src/stm32f4xx_i2c.c:197:18
	ldrh	r6, [r0, #4]
.Ltmp12:
	@DEBUG_VALUE: I2C_Init:rcc_clocks <- [DW_OP_deref] $sp
	@DEBUG_VALUE: I2C_Init:tmpreg <- $r6
	.loc	3 0 18 is_stmt 0        @ ../Libraries/STM32F4xx_StdPeriph_Driver/src/stm32f4xx_i2c.c:0:18
	mov	r0, sp
	mov	r5, r1
.Ltmp13:
	.loc	3 201 3 is_stmt 1       @ ../Libraries/STM32F4xx_StdPeriph_Driver/src/stm32f4xx_i2c.c:201:3
	bl	RCC_GetClocksFreq
	movw	r0, #56963
	.loc	3 202 22                @ ../Libraries/STM32F4xx_StdPeriph_Driver/src/stm32f4xx_i2c.c:202:22
	ldr	r1, [sp, #8]
.Ltmp14:
	@DEBUG_VALUE: I2C_Init:pclk1 <- $r1
	.loc	3 0 22 is_stmt 0        @ ../Libraries/STM32F4xx_StdPeriph_Driver/src/stm32f4xx_i2c.c:0:22
	movw	r3, #34464
	movt	r0, #17179
	movt	r3, #1
	.loc	3 204 32 is_stmt 1      @ ../Libraries/STM32F4xx_StdPeriph_Driver/src/stm32f4xx_i2c.c:204:32
	umull	r0, r2, r1, r0
	.loc	3 199 10                @ ../Libraries/STM32F4xx_StdPeriph_Driver/src/stm32f4xx_i2c.c:199:10
	bic	r0, r6, #63
.Ltmp15:
	@DEBUG_VALUE: I2C_Init:tmpreg <- $r0
	.loc	3 205 10                @ ../Libraries/STM32F4xx_StdPeriph_Driver/src/stm32f4xx_i2c.c:205:10
	orr.w	r0, r0, r2, lsr #18
.Ltmp16:
	@DEBUG_VALUE: I2C_Init:tmpreg <- $r0
	.loc	3 207 13                @ ../Libraries/STM32F4xx_StdPeriph_Driver/src/stm32f4xx_i2c.c:207:13
	strh	r0, [r4, #4]
	.loc	3 211 13                @ ../Libraries/STM32F4xx_StdPeriph_Driver/src/stm32f4xx_i2c.c:211:13
	ldrh	r0, [r4]
.Ltmp17:
	bic	r0, r0, #1
	strh	r0, [r4]
	.loc	3 204 32                @ ../Libraries/STM32F4xx_StdPeriph_Driver/src/stm32f4xx_i2c.c:204:32
	lsrs	r0, r2, #18
.Ltmp18:
	@DEBUG_VALUE: I2C_Init:freqrange <- $r0
	@DEBUG_VALUE: I2C_Init:tmpreg <- 0
	.loc	3 217 23                @ ../Libraries/STM32F4xx_StdPeriph_Driver/src/stm32f4xx_i2c.c:217:23
	ldr	r2, [r5]
.Ltmp19:
	.loc	3 217 7 is_stmt 0       @ ../Libraries/STM32F4xx_StdPeriph_Driver/src/stm32f4xx_i2c.c:217:7
	cmp	r2, r3
	bhi	.LBB1_2
.Ltmp20:
@ %bb.1:
	@DEBUG_VALUE: I2C_Init:freqrange <- $r0
	@DEBUG_VALUE: I2C_Init:pclk1 <- $r1
	@DEBUG_VALUE: I2C_Init:rcc_clocks <- [DW_OP_deref] $sp
	@DEBUG_VALUE: I2C_Init:I2Cx <- $r4
	.loc	3 220 65 is_stmt 1      @ ../Libraries/STM32F4xx_StdPeriph_Driver/src/stm32f4xx_i2c.c:220:65
	lsls	r2, r2, #1
	.loc	3 220 31 is_stmt 0      @ ../Libraries/STM32F4xx_StdPeriph_Driver/src/stm32f4xx_i2c.c:220:31
	udiv	r1, r1, r2
.Ltmp21:
	.loc	3 0 31                  @ ../Libraries/STM32F4xx_StdPeriph_Driver/src/stm32f4xx_i2c.c:0:31
	movw	r2, #65532
.Ltmp22:
	@DEBUG_VALUE: I2C_Init:result <- $r1
	.loc	3 222 9 is_stmt 1       @ ../Libraries/STM32F4xx_StdPeriph_Driver/src/stm32f4xx_i2c.c:222:9
	tst	r1, r2
	it	eq
	moveq	r1, #4
.Ltmp23:
	@DEBUG_VALUE: I2C_Init:result <- $r1
	@DEBUG_VALUE: I2C_Init:tmpreg <- $r1
	.loc	3 0 9 is_stmt 0         @ ../Libraries/STM32F4xx_StdPeriph_Driver/src/stm32f4xx_i2c.c:0:9
	b	.LBB1_6
.Ltmp24:
.LBB1_2:
	@DEBUG_VALUE: I2C_Init:freqrange <- $r0
	@DEBUG_VALUE: I2C_Init:pclk1 <- $r1
	@DEBUG_VALUE: I2C_Init:rcc_clocks <- [DW_OP_deref] $sp
	@DEBUG_VALUE: I2C_Init:I2Cx <- $r4
	.loc	3 237 25 is_stmt 1      @ ../Libraries/STM32F4xx_StdPeriph_Driver/src/stm32f4xx_i2c.c:237:25
	ldrh	r3, [r5, #6]
	movw	r6, #49151
.Ltmp25:
	.loc	3 237 9 is_stmt 0       @ ../Libraries/STM32F4xx_StdPeriph_Driver/src/stm32f4xx_i2c.c:237:9
	cmp	r3, r6
	bne	.LBB1_4
.Ltmp26:
@ %bb.3:
	@DEBUG_VALUE: I2C_Init:freqrange <- $r0
	@DEBUG_VALUE: I2C_Init:pclk1 <- $r1
	@DEBUG_VALUE: I2C_Init:rcc_clocks <- [DW_OP_deref] $sp
	@DEBUG_VALUE: I2C_Init:I2Cx <- $r4
	.loc	3 240 67 is_stmt 1      @ ../Libraries/STM32F4xx_StdPeriph_Driver/src/stm32f4xx_i2c.c:240:67
	add.w	r2, r2, r2, lsl #1
	.loc	3 240 33 is_stmt 0      @ ../Libraries/STM32F4xx_StdPeriph_Driver/src/stm32f4xx_i2c.c:240:33
	udiv	r1, r1, r2
.Ltmp27:
	@DEBUG_VALUE: I2C_Init:result <- undef
	.loc	3 0 33                  @ ../Libraries/STM32F4xx_StdPeriph_Driver/src/stm32f4xx_i2c.c:0:33
	b	.LBB1_5
.Ltmp28:
.LBB1_4:
	@DEBUG_VALUE: I2C_Init:freqrange <- $r0
	@DEBUG_VALUE: I2C_Init:pclk1 <- $r1
	@DEBUG_VALUE: I2C_Init:rcc_clocks <- [DW_OP_deref] $sp
	@DEBUG_VALUE: I2C_Init:I2Cx <- $r4
	movs	r3, #25
.Ltmp29:
	.loc	3 245 67 is_stmt 1      @ ../Libraries/STM32F4xx_StdPeriph_Driver/src/stm32f4xx_i2c.c:245:67
	muls	r2, r3, r2
	.loc	3 245 33 is_stmt 0      @ ../Libraries/STM32F4xx_StdPeriph_Driver/src/stm32f4xx_i2c.c:245:33
	udiv	r1, r1, r2
.Ltmp30:
	@DEBUG_VALUE: I2C_Init:result <- $r1
	.loc	3 247 14 is_stmt 1      @ ../Libraries/STM32F4xx_StdPeriph_Driver/src/stm32f4xx_i2c.c:247:14
	orr	r1, r1, #16384
.Ltmp31:
	@DEBUG_VALUE: I2C_Init:result <- $r1
.LBB1_5:
	@DEBUG_VALUE: I2C_Init:freqrange <- $r0
	@DEBUG_VALUE: I2C_Init:rcc_clocks <- [DW_OP_deref] $sp
	@DEBUG_VALUE: I2C_Init:I2Cx <- $r4
	@DEBUG_VALUE: I2C_Init:result <- $r1
	.loc	3 251 17                @ ../Libraries/STM32F4xx_StdPeriph_Driver/src/stm32f4xx_i2c.c:251:17
	mov	r2, r1
	bfc	r2, #12, #20
	.loc	3 251 32 is_stmt 0      @ ../Libraries/STM32F4xx_StdPeriph_Driver/src/stm32f4xx_i2c.c:251:32
	clz	r2, r2
	lsrs	r2, r2, #5
.Ltmp32:
	@DEBUG_VALUE: I2C_Init:result <- undef
	.loc	3 257 33 is_stmt 1      @ ../Libraries/STM32F4xx_StdPeriph_Driver/src/stm32f4xx_i2c.c:257:33
	orrs	r1, r2
	movw	r2, #32768
	movt	r2, #65535
	orrs	r1, r2
.Ltmp33:
	@DEBUG_VALUE: I2C_Init:tmpreg <- $r1
	.loc	3 0 33 is_stmt 0        @ ../Libraries/STM32F4xx_StdPeriph_Driver/src/stm32f4xx_i2c.c:0:33
	mov.w	r2, #300
	.loc	3 259 42 is_stmt 1      @ ../Libraries/STM32F4xx_StdPeriph_Driver/src/stm32f4xx_i2c.c:259:42
	muls	r0, r2, r0
.Ltmp34:
	.loc	3 0 42 is_stmt 0        @ ../Libraries/STM32F4xx_StdPeriph_Driver/src/stm32f4xx_i2c.c:0:42
	movw	r2, #19923
	movt	r2, #4194
	.loc	3 259 59                @ ../Libraries/STM32F4xx_StdPeriph_Driver/src/stm32f4xx_i2c.c:259:59
	umull	r0, r2, r0, r2
	lsrs	r0, r2, #6
.Ltmp35:
.LBB1_6:
	@DEBUG_VALUE: I2C_Init:tmpreg <- $r1
	@DEBUG_VALUE: I2C_Init:rcc_clocks <- [DW_OP_deref] $sp
	@DEBUG_VALUE: I2C_Init:I2Cx <- $r4
	@DEBUG_VALUE: I2C_Init:tmpreg <- $r1
	.loc	3 0 0                   @ ../Libraries/STM32F4xx_StdPeriph_Driver/src/stm32f4xx_i2c.c:0:0
	adds	r0, #1
	strh	r0, [r4, #32]
.Ltmp36:
	.loc	3 263 13 is_stmt 1      @ ../Libraries/STM32F4xx_StdPeriph_Driver/src/stm32f4xx_i2c.c:263:13
	strh	r1, [r4, #28]
	movw	r1, #64501
.Ltmp37:
	.loc	3 265 13                @ ../Libraries/STM32F4xx_StdPeriph_Driver/src/stm32f4xx_i2c.c:265:13
	ldrh	r0, [r4]
	orr	r0, r0, #1
	strh	r0, [r4]
	.loc	3 269 18                @ ../Libraries/STM32F4xx_StdPeriph_Driver/src/stm32f4xx_i2c.c:269:18
	ldrh	r0, [r4]
.Ltmp38:
	@DEBUG_VALUE: I2C_Init:tmpreg <- $r0
	.loc	3 271 10                @ ../Libraries/STM32F4xx_StdPeriph_Driver/src/stm32f4xx_i2c.c:271:10
	ands	r0, r1
.Ltmp39:
	@DEBUG_VALUE: I2C_Init:tmpreg <- $r0
	.loc	3 275 50                @ ../Libraries/STM32F4xx_StdPeriph_Driver/src/stm32f4xx_i2c.c:275:50
	ldrh	r1, [r5, #4]
	.loc	3 275 59 is_stmt 0      @ ../Libraries/STM32F4xx_StdPeriph_Driver/src/stm32f4xx_i2c.c:275:59
	orrs	r0, r1
.Ltmp40:
	.loc	3 275 77                @ ../Libraries/STM32F4xx_StdPeriph_Driver/src/stm32f4xx_i2c.c:275:77
	ldrh	r1, [r5, #10]
	.loc	3 275 10                @ ../Libraries/STM32F4xx_StdPeriph_Driver/src/stm32f4xx_i2c.c:275:10
	orrs	r0, r1
.Ltmp41:
	@DEBUG_VALUE: I2C_Init:tmpreg <- $r0
	.loc	3 277 13 is_stmt 1      @ ../Libraries/STM32F4xx_StdPeriph_Driver/src/stm32f4xx_i2c.c:277:13
	strh	r0, [r4]
	.loc	3 281 33                @ ../Libraries/STM32F4xx_StdPeriph_Driver/src/stm32f4xx_i2c.c:281:33
	ldrh	r0, [r5, #12]
.Ltmp42:
	.loc	3 281 75 is_stmt 0      @ ../Libraries/STM32F4xx_StdPeriph_Driver/src/stm32f4xx_i2c.c:281:75
	ldrh	r1, [r5, #8]
	.loc	3 281 57                @ ../Libraries/STM32F4xx_StdPeriph_Driver/src/stm32f4xx_i2c.c:281:57
	orrs	r0, r1
	.loc	3 281 14                @ ../Libraries/STM32F4xx_StdPeriph_Driver/src/stm32f4xx_i2c.c:281:14
	strh	r0, [r4, #8]
	.loc	3 282 1 is_stmt 1       @ ../Libraries/STM32F4xx_StdPeriph_Driver/src/stm32f4xx_i2c.c:282:1
	add	sp, #16
.Ltmp43:
	pop	{r4, r5, r6, pc}
.Ltmp44:
.Lfunc_end1:
	.size	I2C_Init, .Lfunc_end1-I2C_Init
	.cfi_endproc
	.cantunwind
	.fnend
                                        @ -- End function
	.section	.text.I2C_StructInit,"ax",%progbits
	.hidden	I2C_StructInit          @ -- Begin function I2C_StructInit
	.globl	I2C_StructInit
	.p2align	1
	.type	I2C_StructInit,%function
	.code	16                      @ @I2C_StructInit
	.thumb_func
I2C_StructInit:
.Lfunc_begin2:
	.loc	3 290 0                 @ ../Libraries/STM32F4xx_StdPeriph_Driver/src/stm32f4xx_i2c.c:290:0
	.fnstart
	.cfi_startproc
@ %bb.0:
	@DEBUG_VALUE: I2C_StructInit:I2C_InitStruct <- $r0
	movs	r2, #0
	mov.w	r1, #16384
	@DEBUG_VALUE: I2C_StructInit:I2C_InitStruct <- $r0
	movw	r3, #5000
.Ltmp45:
	.loc	3 303 43 prologue_end   @ ../Libraries/STM32F4xx_StdPeriph_Driver/src/stm32f4xx_i2c.c:303:43
	strh	r1, [r0, #12]
	movt	r2, #49151
	movs	r1, #0
	.loc	3 293 34                @ ../Libraries/STM32F4xx_StdPeriph_Driver/src/stm32f4xx_i2c.c:293:34
	strd	r3, r2, [r0]
	.loc	3 299 35                @ ../Libraries/STM32F4xx_StdPeriph_Driver/src/stm32f4xx_i2c.c:299:35
	str	r1, [r0, #8]
	.loc	3 304 1                 @ ../Libraries/STM32F4xx_StdPeriph_Driver/src/stm32f4xx_i2c.c:304:1
	bx	lr
.Ltmp46:
.Lfunc_end2:
	.size	I2C_StructInit, .Lfunc_end2-I2C_StructInit
	.cfi_endproc
	.cantunwind
	.fnend
                                        @ -- End function
	.section	.text.I2C_Cmd,"ax",%progbits
	.hidden	I2C_Cmd                 @ -- Begin function I2C_Cmd
	.globl	I2C_Cmd
	.p2align	1
	.type	I2C_Cmd,%function
	.code	16                      @ @I2C_Cmd
	.thumb_func
I2C_Cmd:
.Lfunc_begin3:
	.loc	3 314 0                 @ ../Libraries/STM32F4xx_StdPeriph_Driver/src/stm32f4xx_i2c.c:314:0
	.fnstart
	.cfi_startproc
@ %bb.0:
	@DEBUG_VALUE: I2C_Cmd:I2Cx <- $r0
	@DEBUG_VALUE: I2C_Cmd:I2Cx <- $r0
	@DEBUG_VALUE: I2C_Cmd:NewState <- $r1
	@DEBUG_VALUE: I2C_Cmd:NewState <- $r1
	.loc	3 0 0 prologue_end      @ ../Libraries/STM32F4xx_StdPeriph_Driver/src/stm32f4xx_i2c.c:0:0
	ldrh	r2, [r0]
.Ltmp47:
	.loc	3 318 7                 @ ../Libraries/STM32F4xx_StdPeriph_Driver/src/stm32f4xx_i2c.c:318:7
	cmp	r1, #0
	orr	r3, r2, #1
	it	eq
	biceq	r3, r2, #1
.Ltmp48:
	.loc	3 0 0 is_stmt 0         @ ../Libraries/STM32F4xx_StdPeriph_Driver/src/stm32f4xx_i2c.c:0:0
	strh	r3, [r0]
.Ltmp49:
	.loc	3 328 1 is_stmt 1       @ ../Libraries/STM32F4xx_StdPeriph_Driver/src/stm32f4xx_i2c.c:328:1
	bx	lr
.Ltmp50:
.Lfunc_end3:
	.size	I2C_Cmd, .Lfunc_end3-I2C_Cmd
	.cfi_endproc
	.cantunwind
	.fnend
                                        @ -- End function
	.section	.text.I2C_AnalogFilterCmd,"ax",%progbits
	.hidden	I2C_AnalogFilterCmd     @ -- Begin function I2C_AnalogFilterCmd
	.globl	I2C_AnalogFilterCmd
	.p2align	1
	.type	I2C_AnalogFilterCmd,%function
	.code	16                      @ @I2C_AnalogFilterCmd
	.thumb_func
I2C_AnalogFilterCmd:
.Lfunc_begin4:
	.loc	3 343 0                 @ ../Libraries/STM32F4xx_StdPeriph_Driver/src/stm32f4xx_i2c.c:343:0
	.fnstart
	.cfi_startproc
@ %bb.0:
	@DEBUG_VALUE: I2C_AnalogFilterCmd:I2Cx <- $r0
	@DEBUG_VALUE: I2C_AnalogFilterCmd:I2Cx <- $r0
	@DEBUG_VALUE: I2C_AnalogFilterCmd:NewState <- $r1
	@DEBUG_VALUE: I2C_AnalogFilterCmd:NewState <- $r1
	.loc	3 0 0 prologue_end      @ ../Libraries/STM32F4xx_StdPeriph_Driver/src/stm32f4xx_i2c.c:0:0
	ldrh	r2, [r0, #36]
.Ltmp51:
	.loc	3 347 7                 @ ../Libraries/STM32F4xx_StdPeriph_Driver/src/stm32f4xx_i2c.c:347:7
	cmp	r1, #0
	bic	r3, r2, #16
	it	eq
	orreq	r3, r2, #16
.Ltmp52:
	.loc	3 0 0 is_stmt 0         @ ../Libraries/STM32F4xx_StdPeriph_Driver/src/stm32f4xx_i2c.c:0:0
	strh	r3, [r0, #36]
.Ltmp53:
	.loc	3 357 1 is_stmt 1       @ ../Libraries/STM32F4xx_StdPeriph_Driver/src/stm32f4xx_i2c.c:357:1
	bx	lr
.Ltmp54:
.Lfunc_end4:
	.size	I2C_AnalogFilterCmd, .Lfunc_end4-I2C_AnalogFilterCmd
	.cfi_endproc
	.cantunwind
	.fnend
                                        @ -- End function
	.section	.text.I2C_DigitalFilterConfig,"ax",%progbits
	.hidden	I2C_DigitalFilterConfig @ -- Begin function I2C_DigitalFilterConfig
	.globl	I2C_DigitalFilterConfig
	.p2align	1
	.type	I2C_DigitalFilterConfig,%function
	.code	16                      @ @I2C_DigitalFilterConfig
	.thumb_func
I2C_DigitalFilterConfig:
.Lfunc_begin5:
	.loc	3 372 0                 @ ../Libraries/STM32F4xx_StdPeriph_Driver/src/stm32f4xx_i2c.c:372:0
	.fnstart
	.cfi_startproc
@ %bb.0:
	@DEBUG_VALUE: I2C_DigitalFilterConfig:I2Cx <- $r0
	@DEBUG_VALUE: I2C_DigitalFilterConfig:I2Cx <- $r0
	@DEBUG_VALUE: I2C_DigitalFilterConfig:I2C_DigitalFilter <- $r1
	@DEBUG_VALUE: I2C_DigitalFilterConfig:I2C_DigitalFilter <- $r1
	@DEBUG_VALUE: I2C_DigitalFilterConfig:tmpreg <- 0
	.loc	3 380 18 prologue_end   @ ../Libraries/STM32F4xx_StdPeriph_Driver/src/stm32f4xx_i2c.c:380:18
	ldrh	r2, [r0, #36]
.Ltmp55:
	@DEBUG_VALUE: I2C_DigitalFilterConfig:tmpreg <- undef
	.loc	3 386 10                @ ../Libraries/STM32F4xx_StdPeriph_Driver/src/stm32f4xx_i2c.c:386:10
	bfi	r2, r1, #0, #4
.Ltmp56:
	@DEBUG_VALUE: I2C_DigitalFilterConfig:tmpreg <- $r2
	.loc	3 389 14                @ ../Libraries/STM32F4xx_StdPeriph_Driver/src/stm32f4xx_i2c.c:389:14
	strh	r2, [r0, #36]
	.loc	3 390 1                 @ ../Libraries/STM32F4xx_StdPeriph_Driver/src/stm32f4xx_i2c.c:390:1
	bx	lr
.Ltmp57:
.Lfunc_end5:
	.size	I2C_DigitalFilterConfig, .Lfunc_end5-I2C_DigitalFilterConfig
	.cfi_endproc
	.cantunwind
	.fnend
                                        @ -- End function
	.section	.text.I2C_GenerateSTART,"ax",%progbits
	.hidden	I2C_GenerateSTART       @ -- Begin function I2C_GenerateSTART
	.globl	I2C_GenerateSTART
	.p2align	1
	.type	I2C_GenerateSTART,%function
	.code	16                      @ @I2C_GenerateSTART
	.thumb_func
I2C_GenerateSTART:
.Lfunc_begin6:
	.loc	3 400 0                 @ ../Libraries/STM32F4xx_StdPeriph_Driver/src/stm32f4xx_i2c.c:400:0
	.fnstart
	.cfi_startproc
@ %bb.0:
	@DEBUG_VALUE: I2C_GenerateSTART:I2Cx <- $r0
	@DEBUG_VALUE: I2C_GenerateSTART:I2Cx <- $r0
	@DEBUG_VALUE: I2C_GenerateSTART:NewState <- $r1
	@DEBUG_VALUE: I2C_GenerateSTART:NewState <- $r1
	.loc	3 0 0 prologue_end      @ ../Libraries/STM32F4xx_StdPeriph_Driver/src/stm32f4xx_i2c.c:0:0
	ldrh	r2, [r0]
.Ltmp58:
	.loc	3 404 7                 @ ../Libraries/STM32F4xx_StdPeriph_Driver/src/stm32f4xx_i2c.c:404:7
	cmp	r1, #0
	orr	r3, r2, #256
	it	eq
	biceq	r3, r2, #256
.Ltmp59:
	.loc	3 0 0 is_stmt 0         @ ../Libraries/STM32F4xx_StdPeriph_Driver/src/stm32f4xx_i2c.c:0:0
	strh	r3, [r0]
.Ltmp60:
	.loc	3 414 1 is_stmt 1       @ ../Libraries/STM32F4xx_StdPeriph_Driver/src/stm32f4xx_i2c.c:414:1
	bx	lr
.Ltmp61:
.Lfunc_end6:
	.size	I2C_GenerateSTART, .Lfunc_end6-I2C_GenerateSTART
	.cfi_endproc
	.cantunwind
	.fnend
                                        @ -- End function
	.section	.text.I2C_GenerateSTOP,"ax",%progbits
	.hidden	I2C_GenerateSTOP        @ -- Begin function I2C_GenerateSTOP
	.globl	I2C_GenerateSTOP
	.p2align	1
	.type	I2C_GenerateSTOP,%function
	.code	16                      @ @I2C_GenerateSTOP
	.thumb_func
I2C_GenerateSTOP:
.Lfunc_begin7:
	.loc	3 424 0                 @ ../Libraries/STM32F4xx_StdPeriph_Driver/src/stm32f4xx_i2c.c:424:0
	.fnstart
	.cfi_startproc
@ %bb.0:
	@DEBUG_VALUE: I2C_GenerateSTOP:I2Cx <- $r0
	@DEBUG_VALUE: I2C_GenerateSTOP:I2Cx <- $r0
	@DEBUG_VALUE: I2C_GenerateSTOP:NewState <- $r1
	@DEBUG_VALUE: I2C_GenerateSTOP:NewState <- $r1
	.loc	3 0 0 prologue_end      @ ../Libraries/STM32F4xx_StdPeriph_Driver/src/stm32f4xx_i2c.c:0:0
	ldrh	r2, [r0]
.Ltmp62:
	.loc	3 428 7                 @ ../Libraries/STM32F4xx_StdPeriph_Driver/src/stm32f4xx_i2c.c:428:7
	cmp	r1, #0
	orr	r3, r2, #512
	it	eq
	biceq	r3, r2, #512
.Ltmp63:
	.loc	3 0 0 is_stmt 0         @ ../Libraries/STM32F4xx_StdPeriph_Driver/src/stm32f4xx_i2c.c:0:0
	strh	r3, [r0]
.Ltmp64:
	.loc	3 438 1 is_stmt 1       @ ../Libraries/STM32F4xx_StdPeriph_Driver/src/stm32f4xx_i2c.c:438:1
	bx	lr
.Ltmp65:
.Lfunc_end7:
	.size	I2C_GenerateSTOP, .Lfunc_end7-I2C_GenerateSTOP
	.cfi_endproc
	.cantunwind
	.fnend
                                        @ -- End function
	.section	.text.I2C_Send7bitAddress,"ax",%progbits
	.hidden	I2C_Send7bitAddress     @ -- Begin function I2C_Send7bitAddress
	.globl	I2C_Send7bitAddress
	.p2align	1
	.type	I2C_Send7bitAddress,%function
	.code	16                      @ @I2C_Send7bitAddress
	.thumb_func
I2C_Send7bitAddress:
.Lfunc_begin8:
	.loc	3 452 0                 @ ../Libraries/STM32F4xx_StdPeriph_Driver/src/stm32f4xx_i2c.c:452:0
	.fnstart
	.cfi_startproc
@ %bb.0:
	@DEBUG_VALUE: I2C_Send7bitAddress:I2Cx <- $r0
	@DEBUG_VALUE: I2C_Send7bitAddress:I2Cx <- $r0
	@DEBUG_VALUE: I2C_Send7bitAddress:Address <- $r1
	@DEBUG_VALUE: I2C_Send7bitAddress:Address <- $r1
	@DEBUG_VALUE: I2C_Send7bitAddress:I2C_Direction <- $r2
	@DEBUG_VALUE: I2C_Send7bitAddress:I2C_Direction <- $r2
	.loc	3 457 7 prologue_end    @ ../Libraries/STM32F4xx_StdPeriph_Driver/src/stm32f4xx_i2c.c:457:7
	orr	r3, r1, #1
	cmp	r2, #0
	it	eq
	andeq	r3, r1, #254
.Ltmp66:
	@DEBUG_VALUE: I2C_Send7bitAddress:Address <- $r3
	.loc	3 468 12                @ ../Libraries/STM32F4xx_StdPeriph_Driver/src/stm32f4xx_i2c.c:468:12
	strh	r3, [r0, #16]
	.loc	3 469 1                 @ ../Libraries/STM32F4xx_StdPeriph_Driver/src/stm32f4xx_i2c.c:469:1
	bx	lr
.Ltmp67:
.Lfunc_end8:
	.size	I2C_Send7bitAddress, .Lfunc_end8-I2C_Send7bitAddress
	.cfi_endproc
	.cantunwind
	.fnend
                                        @ -- End function
	.section	.text.I2C_AcknowledgeConfig,"ax",%progbits
	.hidden	I2C_AcknowledgeConfig   @ -- Begin function I2C_AcknowledgeConfig
	.globl	I2C_AcknowledgeConfig
	.p2align	1
	.type	I2C_AcknowledgeConfig,%function
	.code	16                      @ @I2C_AcknowledgeConfig
	.thumb_func
I2C_AcknowledgeConfig:
.Lfunc_begin9:
	.loc	3 479 0                 @ ../Libraries/STM32F4xx_StdPeriph_Driver/src/stm32f4xx_i2c.c:479:0
	.fnstart
	.cfi_startproc
@ %bb.0:
	@DEBUG_VALUE: I2C_AcknowledgeConfig:I2Cx <- $r0
	@DEBUG_VALUE: I2C_AcknowledgeConfig:I2Cx <- $r0
	@DEBUG_VALUE: I2C_AcknowledgeConfig:NewState <- $r1
	@DEBUG_VALUE: I2C_AcknowledgeConfig:NewState <- $r1
	.loc	3 0 0 prologue_end      @ ../Libraries/STM32F4xx_StdPeriph_Driver/src/stm32f4xx_i2c.c:0:0
	ldrh	r2, [r0]
.Ltmp68:
	.loc	3 483 7                 @ ../Libraries/STM32F4xx_StdPeriph_Driver/src/stm32f4xx_i2c.c:483:7
	cmp	r1, #0
	orr	r3, r2, #1024
	it	eq
	biceq	r3, r2, #1024
.Ltmp69:
	.loc	3 0 0 is_stmt 0         @ ../Libraries/STM32F4xx_StdPeriph_Driver/src/stm32f4xx_i2c.c:0:0
	strh	r3, [r0]
.Ltmp70:
	.loc	3 493 1 is_stmt 1       @ ../Libraries/STM32F4xx_StdPeriph_Driver/src/stm32f4xx_i2c.c:493:1
	bx	lr
.Ltmp71:
.Lfunc_end9:
	.size	I2C_AcknowledgeConfig, .Lfunc_end9-I2C_AcknowledgeConfig
	.cfi_endproc
	.cantunwind
	.fnend
                                        @ -- End function
	.section	.text.I2C_OwnAddress2Config,"ax",%progbits
	.hidden	I2C_OwnAddress2Config   @ -- Begin function I2C_OwnAddress2Config
	.globl	I2C_OwnAddress2Config
	.p2align	1
	.type	I2C_OwnAddress2Config,%function
	.code	16                      @ @I2C_OwnAddress2Config
	.thumb_func
I2C_OwnAddress2Config:
.Lfunc_begin10:
	.loc	3 502 0                 @ ../Libraries/STM32F4xx_StdPeriph_Driver/src/stm32f4xx_i2c.c:502:0
	.fnstart
	.cfi_startproc
@ %bb.0:
	@DEBUG_VALUE: I2C_OwnAddress2Config:I2Cx <- $r0
	@DEBUG_VALUE: I2C_OwnAddress2Config:I2Cx <- $r0
	@DEBUG_VALUE: I2C_OwnAddress2Config:Address <- $r1
	@DEBUG_VALUE: I2C_OwnAddress2Config:Address <- $r1
	@DEBUG_VALUE: I2C_OwnAddress2Config:tmpreg <- 0
	.loc	3 509 18 prologue_end   @ ../Libraries/STM32F4xx_StdPeriph_Driver/src/stm32f4xx_i2c.c:509:18
	ldrh	r2, [r0, #12]
.Ltmp72:
	@DEBUG_VALUE: I2C_OwnAddress2Config:tmpreg <- undef
	.loc	3 515 10                @ ../Libraries/STM32F4xx_StdPeriph_Driver/src/stm32f4xx_i2c.c:515:10
	lsrs	r1, r1, #1
.Ltmp73:
	bfi	r2, r1, #1, #7
.Ltmp74:
	@DEBUG_VALUE: I2C_OwnAddress2Config:tmpreg <- $r2
	.loc	3 518 14                @ ../Libraries/STM32F4xx_StdPeriph_Driver/src/stm32f4xx_i2c.c:518:14
	strh	r2, [r0, #12]
	.loc	3 519 1                 @ ../Libraries/STM32F4xx_StdPeriph_Driver/src/stm32f4xx_i2c.c:519:1
	bx	lr
.Ltmp75:
.Lfunc_end10:
	.size	I2C_OwnAddress2Config, .Lfunc_end10-I2C_OwnAddress2Config
	.cfi_endproc
	.cantunwind
	.fnend
                                        @ -- End function
	.section	.text.I2C_DualAddressCmd,"ax",%progbits
	.hidden	I2C_DualAddressCmd      @ -- Begin function I2C_DualAddressCmd
	.globl	I2C_DualAddressCmd
	.p2align	1
	.type	I2C_DualAddressCmd,%function
	.code	16                      @ @I2C_DualAddressCmd
	.thumb_func
I2C_DualAddressCmd:
.Lfunc_begin11:
	.loc	3 529 0                 @ ../Libraries/STM32F4xx_StdPeriph_Driver/src/stm32f4xx_i2c.c:529:0
	.fnstart
	.cfi_startproc
@ %bb.0:
	@DEBUG_VALUE: I2C_DualAddressCmd:I2Cx <- $r0
	@DEBUG_VALUE: I2C_DualAddressCmd:I2Cx <- $r0
	@DEBUG_VALUE: I2C_DualAddressCmd:NewState <- $r1
	@DEBUG_VALUE: I2C_DualAddressCmd:NewState <- $r1
	.loc	3 0 0 prologue_end      @ ../Libraries/STM32F4xx_StdPeriph_Driver/src/stm32f4xx_i2c.c:0:0
	ldrh	r2, [r0, #12]
.Ltmp76:
	.loc	3 533 7                 @ ../Libraries/STM32F4xx_StdPeriph_Driver/src/stm32f4xx_i2c.c:533:7
	cmp	r1, #0
	orr	r3, r2, #1
	it	eq
	biceq	r3, r2, #1
.Ltmp77:
	.loc	3 0 0 is_stmt 0         @ ../Libraries/STM32F4xx_StdPeriph_Driver/src/stm32f4xx_i2c.c:0:0
	strh	r3, [r0, #12]
.Ltmp78:
	.loc	3 543 1 is_stmt 1       @ ../Libraries/STM32F4xx_StdPeriph_Driver/src/stm32f4xx_i2c.c:543:1
	bx	lr
.Ltmp79:
.Lfunc_end11:
	.size	I2C_DualAddressCmd, .Lfunc_end11-I2C_DualAddressCmd
	.cfi_endproc
	.cantunwind
	.fnend
                                        @ -- End function
	.section	.text.I2C_GeneralCallCmd,"ax",%progbits
	.hidden	I2C_GeneralCallCmd      @ -- Begin function I2C_GeneralCallCmd
	.globl	I2C_GeneralCallCmd
	.p2align	1
	.type	I2C_GeneralCallCmd,%function
	.code	16                      @ @I2C_GeneralCallCmd
	.thumb_func
I2C_GeneralCallCmd:
.Lfunc_begin12:
	.loc	3 553 0                 @ ../Libraries/STM32F4xx_StdPeriph_Driver/src/stm32f4xx_i2c.c:553:0
	.fnstart
	.cfi_startproc
@ %bb.0:
	@DEBUG_VALUE: I2C_GeneralCallCmd:I2Cx <- $r0
	@DEBUG_VALUE: I2C_GeneralCallCmd:I2Cx <- $r0
	@DEBUG_VALUE: I2C_GeneralCallCmd:NewState <- $r1
	@DEBUG_VALUE: I2C_GeneralCallCmd:NewState <- $r1
	.loc	3 0 0 prologue_end      @ ../Libraries/STM32F4xx_StdPeriph_Driver/src/stm32f4xx_i2c.c:0:0
	ldrh	r2, [r0]
.Ltmp80:
	.loc	3 557 7                 @ ../Libraries/STM32F4xx_StdPeriph_Driver/src/stm32f4xx_i2c.c:557:7
	cmp	r1, #0
	orr	r3, r2, #64
	it	eq
	biceq	r3, r2, #64
.Ltmp81:
	.loc	3 0 0 is_stmt 0         @ ../Libraries/STM32F4xx_StdPeriph_Driver/src/stm32f4xx_i2c.c:0:0
	strh	r3, [r0]
.Ltmp82:
	.loc	3 567 1 is_stmt 1       @ ../Libraries/STM32F4xx_StdPeriph_Driver/src/stm32f4xx_i2c.c:567:1
	bx	lr
.Ltmp83:
.Lfunc_end12:
	.size	I2C_GeneralCallCmd, .Lfunc_end12-I2C_GeneralCallCmd
	.cfi_endproc
	.cantunwind
	.fnend
                                        @ -- End function
	.section	.text.I2C_SoftwareResetCmd,"ax",%progbits
	.hidden	I2C_SoftwareResetCmd    @ -- Begin function I2C_SoftwareResetCmd
	.globl	I2C_SoftwareResetCmd
	.p2align	1
	.type	I2C_SoftwareResetCmd,%function
	.code	16                      @ @I2C_SoftwareResetCmd
	.thumb_func
I2C_SoftwareResetCmd:
.Lfunc_begin13:
	.loc	3 579 0                 @ ../Libraries/STM32F4xx_StdPeriph_Driver/src/stm32f4xx_i2c.c:579:0
	.fnstart
	.cfi_startproc
@ %bb.0:
	@DEBUG_VALUE: I2C_SoftwareResetCmd:I2Cx <- $r0
	@DEBUG_VALUE: I2C_SoftwareResetCmd:I2Cx <- $r0
	@DEBUG_VALUE: I2C_SoftwareResetCmd:NewState <- $r1
	@DEBUG_VALUE: I2C_SoftwareResetCmd:NewState <- $r1
	.loc	3 0 0 prologue_end      @ ../Libraries/STM32F4xx_StdPeriph_Driver/src/stm32f4xx_i2c.c:0:0
	ldrh	r2, [r0]
.Ltmp84:
	.loc	3 583 7                 @ ../Libraries/STM32F4xx_StdPeriph_Driver/src/stm32f4xx_i2c.c:583:7
	cmp	r1, #0
	mov	r3, r2
	bfc	r3, #15, #17
	it	ne
	orrne	r3, r2, #32768
.Ltmp85:
	.loc	3 0 0 is_stmt 0         @ ../Libraries/STM32F4xx_StdPeriph_Driver/src/stm32f4xx_i2c.c:0:0
	strh	r3, [r0]
.Ltmp86:
	.loc	3 593 1 is_stmt 1       @ ../Libraries/STM32F4xx_StdPeriph_Driver/src/stm32f4xx_i2c.c:593:1
	bx	lr
.Ltmp87:
.Lfunc_end13:
	.size	I2C_SoftwareResetCmd, .Lfunc_end13-I2C_SoftwareResetCmd
	.cfi_endproc
	.cantunwind
	.fnend
                                        @ -- End function
	.section	.text.I2C_StretchClockCmd,"ax",%progbits
	.hidden	I2C_StretchClockCmd     @ -- Begin function I2C_StretchClockCmd
	.globl	I2C_StretchClockCmd
	.p2align	1
	.type	I2C_StretchClockCmd,%function
	.code	16                      @ @I2C_StretchClockCmd
	.thumb_func
I2C_StretchClockCmd:
.Lfunc_begin14:
	.loc	3 603 0                 @ ../Libraries/STM32F4xx_StdPeriph_Driver/src/stm32f4xx_i2c.c:603:0
	.fnstart
	.cfi_startproc
@ %bb.0:
	@DEBUG_VALUE: I2C_StretchClockCmd:I2Cx <- $r0
	@DEBUG_VALUE: I2C_StretchClockCmd:I2Cx <- $r0
	@DEBUG_VALUE: I2C_StretchClockCmd:NewState <- $r1
	@DEBUG_VALUE: I2C_StretchClockCmd:NewState <- $r1
	.loc	3 0 0 prologue_end      @ ../Libraries/STM32F4xx_StdPeriph_Driver/src/stm32f4xx_i2c.c:0:0
	ldrh	r2, [r0]
.Ltmp88:
	.loc	3 607 7                 @ ../Libraries/STM32F4xx_StdPeriph_Driver/src/stm32f4xx_i2c.c:607:7
	cmp	r1, #0
	bic	r3, r2, #128
	it	eq
	orreq	r3, r2, #128
.Ltmp89:
	.loc	3 0 0 is_stmt 0         @ ../Libraries/STM32F4xx_StdPeriph_Driver/src/stm32f4xx_i2c.c:0:0
	strh	r3, [r0]
.Ltmp90:
	.loc	3 617 1 is_stmt 1       @ ../Libraries/STM32F4xx_StdPeriph_Driver/src/stm32f4xx_i2c.c:617:1
	bx	lr
.Ltmp91:
.Lfunc_end14:
	.size	I2C_StretchClockCmd, .Lfunc_end14-I2C_StretchClockCmd
	.cfi_endproc
	.cantunwind
	.fnend
                                        @ -- End function
	.section	.text.I2C_FastModeDutyCycleConfig,"ax",%progbits
	.hidden	I2C_FastModeDutyCycleConfig @ -- Begin function I2C_FastModeDutyCycleConfig
	.globl	I2C_FastModeDutyCycleConfig
	.p2align	1
	.type	I2C_FastModeDutyCycleConfig,%function
	.code	16                      @ @I2C_FastModeDutyCycleConfig
	.thumb_func
I2C_FastModeDutyCycleConfig:
.Lfunc_begin15:
	.loc	3 629 0                 @ ../Libraries/STM32F4xx_StdPeriph_Driver/src/stm32f4xx_i2c.c:629:0
	.fnstart
	.cfi_startproc
@ %bb.0:
	@DEBUG_VALUE: I2C_FastModeDutyCycleConfig:I2Cx <- $r0
	@DEBUG_VALUE: I2C_FastModeDutyCycleConfig:I2Cx <- $r0
	@DEBUG_VALUE: I2C_FastModeDutyCycleConfig:I2C_DutyCycle <- $r1
	@DEBUG_VALUE: I2C_FastModeDutyCycleConfig:I2C_DutyCycle <- $r1
	.loc	3 0 0 prologue_end      @ ../Libraries/STM32F4xx_StdPeriph_Driver/src/stm32f4xx_i2c.c:0:0
	ldrh	r2, [r0, #28]
.Ltmp92:
	.loc	3 633 7                 @ ../Libraries/STM32F4xx_StdPeriph_Driver/src/stm32f4xx_i2c.c:633:7
	cmp.w	r1, #16384
	bic	r3, r2, #16384
	it	eq
	orreq	r3, r2, #16384
.Ltmp93:
	.loc	3 0 0 is_stmt 0         @ ../Libraries/STM32F4xx_StdPeriph_Driver/src/stm32f4xx_i2c.c:0:0
	strh	r3, [r0, #28]
.Ltmp94:
	.loc	3 643 1 is_stmt 1       @ ../Libraries/STM32F4xx_StdPeriph_Driver/src/stm32f4xx_i2c.c:643:1
	bx	lr
.Ltmp95:
.Lfunc_end15:
	.size	I2C_FastModeDutyCycleConfig, .Lfunc_end15-I2C_FastModeDutyCycleConfig
	.cfi_endproc
	.cantunwind
	.fnend
                                        @ -- End function
	.section	.text.I2C_NACKPositionConfig,"ax",%progbits
	.hidden	I2C_NACKPositionConfig  @ -- Begin function I2C_NACKPositionConfig
	.globl	I2C_NACKPositionConfig
	.p2align	1
	.type	I2C_NACKPositionConfig,%function
	.code	16                      @ @I2C_NACKPositionConfig
	.thumb_func
I2C_NACKPositionConfig:
.Lfunc_begin16:
	.loc	3 667 0                 @ ../Libraries/STM32F4xx_StdPeriph_Driver/src/stm32f4xx_i2c.c:667:0
	.fnstart
	.cfi_startproc
@ %bb.0:
	@DEBUG_VALUE: I2C_NACKPositionConfig:I2Cx <- $r0
	@DEBUG_VALUE: I2C_NACKPositionConfig:I2Cx <- $r0
	@DEBUG_VALUE: I2C_NACKPositionConfig:I2C_NACKPosition <- $r1
	@DEBUG_VALUE: I2C_NACKPositionConfig:I2C_NACKPosition <- $r1
	.loc	3 0 0 prologue_end      @ ../Libraries/STM32F4xx_StdPeriph_Driver/src/stm32f4xx_i2c.c:0:0
	ldrh	r2, [r0]
.Ltmp96:
	.loc	3 673 7                 @ ../Libraries/STM32F4xx_StdPeriph_Driver/src/stm32f4xx_i2c.c:673:7
	cmp.w	r1, #2048
	bic	r3, r2, #2048
	it	eq
	orreq	r3, r2, #2048
.Ltmp97:
	.loc	3 0 0 is_stmt 0         @ ../Libraries/STM32F4xx_StdPeriph_Driver/src/stm32f4xx_i2c.c:0:0
	strh	r3, [r0]
.Ltmp98:
	.loc	3 683 1 is_stmt 1       @ ../Libraries/STM32F4xx_StdPeriph_Driver/src/stm32f4xx_i2c.c:683:1
	bx	lr
.Ltmp99:
.Lfunc_end16:
	.size	I2C_NACKPositionConfig, .Lfunc_end16-I2C_NACKPositionConfig
	.cfi_endproc
	.cantunwind
	.fnend
                                        @ -- End function
	.section	.text.I2C_SMBusAlertConfig,"ax",%progbits
	.hidden	I2C_SMBusAlertConfig    @ -- Begin function I2C_SMBusAlertConfig
	.globl	I2C_SMBusAlertConfig
	.p2align	1
	.type	I2C_SMBusAlertConfig,%function
	.code	16                      @ @I2C_SMBusAlertConfig
	.thumb_func
I2C_SMBusAlertConfig:
.Lfunc_begin17:
	.loc	3 695 0                 @ ../Libraries/STM32F4xx_StdPeriph_Driver/src/stm32f4xx_i2c.c:695:0
	.fnstart
	.cfi_startproc
@ %bb.0:
	@DEBUG_VALUE: I2C_SMBusAlertConfig:I2Cx <- $r0
	@DEBUG_VALUE: I2C_SMBusAlertConfig:I2Cx <- $r0
	@DEBUG_VALUE: I2C_SMBusAlertConfig:I2C_SMBusAlert <- $r1
	@DEBUG_VALUE: I2C_SMBusAlertConfig:I2C_SMBusAlert <- $r1
	.loc	3 0 0 prologue_end      @ ../Libraries/STM32F4xx_StdPeriph_Driver/src/stm32f4xx_i2c.c:0:0
	ldrh	r2, [r0]
.Ltmp100:
	.loc	3 699 7                 @ ../Libraries/STM32F4xx_StdPeriph_Driver/src/stm32f4xx_i2c.c:699:7
	cmp.w	r1, #8192
	bic	r3, r2, #8192
	it	eq
	orreq	r3, r2, #8192
.Ltmp101:
	.loc	3 0 0 is_stmt 0         @ ../Libraries/STM32F4xx_StdPeriph_Driver/src/stm32f4xx_i2c.c:0:0
	strh	r3, [r0]
.Ltmp102:
	.loc	3 709 1 is_stmt 1       @ ../Libraries/STM32F4xx_StdPeriph_Driver/src/stm32f4xx_i2c.c:709:1
	bx	lr
.Ltmp103:
.Lfunc_end17:
	.size	I2C_SMBusAlertConfig, .Lfunc_end17-I2C_SMBusAlertConfig
	.cfi_endproc
	.cantunwind
	.fnend
                                        @ -- End function
	.section	.text.I2C_ARPCmd,"ax",%progbits
	.hidden	I2C_ARPCmd              @ -- Begin function I2C_ARPCmd
	.globl	I2C_ARPCmd
	.p2align	1
	.type	I2C_ARPCmd,%function
	.code	16                      @ @I2C_ARPCmd
	.thumb_func
I2C_ARPCmd:
.Lfunc_begin18:
	.loc	3 719 0                 @ ../Libraries/STM32F4xx_StdPeriph_Driver/src/stm32f4xx_i2c.c:719:0
	.fnstart
	.cfi_startproc
@ %bb.0:
	@DEBUG_VALUE: I2C_ARPCmd:I2Cx <- $r0
	@DEBUG_VALUE: I2C_ARPCmd:I2Cx <- $r0
	@DEBUG_VALUE: I2C_ARPCmd:NewState <- $r1
	@DEBUG_VALUE: I2C_ARPCmd:NewState <- $r1
	.loc	3 0 0 prologue_end      @ ../Libraries/STM32F4xx_StdPeriph_Driver/src/stm32f4xx_i2c.c:0:0
	ldrh	r2, [r0]
.Ltmp104:
	.loc	3 723 7                 @ ../Libraries/STM32F4xx_StdPeriph_Driver/src/stm32f4xx_i2c.c:723:7
	cmp	r1, #0
	orr	r3, r2, #16
	it	eq
	biceq	r3, r2, #16
.Ltmp105:
	.loc	3 0 0 is_stmt 0         @ ../Libraries/STM32F4xx_StdPeriph_Driver/src/stm32f4xx_i2c.c:0:0
	strh	r3, [r0]
.Ltmp106:
	.loc	3 733 1 is_stmt 1       @ ../Libraries/STM32F4xx_StdPeriph_Driver/src/stm32f4xx_i2c.c:733:1
	bx	lr
.Ltmp107:
.Lfunc_end18:
	.size	I2C_ARPCmd, .Lfunc_end18-I2C_ARPCmd
	.cfi_endproc
	.cantunwind
	.fnend
                                        @ -- End function
	.section	.text.I2C_SendData,"ax",%progbits
	.hidden	I2C_SendData            @ -- Begin function I2C_SendData
	.globl	I2C_SendData
	.p2align	1
	.type	I2C_SendData,%function
	.code	16                      @ @I2C_SendData
	.thumb_func
I2C_SendData:
.Lfunc_begin19:
	.loc	3 757 0                 @ ../Libraries/STM32F4xx_StdPeriph_Driver/src/stm32f4xx_i2c.c:757:0
	.fnstart
	.cfi_startproc
@ %bb.0:
	@DEBUG_VALUE: I2C_SendData:I2Cx <- $r0
	@DEBUG_VALUE: I2C_SendData:I2Cx <- $r0
	@DEBUG_VALUE: I2C_SendData:Data <- $r1
	@DEBUG_VALUE: I2C_SendData:Data <- $r1
	.loc	3 761 12 prologue_end   @ ../Libraries/STM32F4xx_StdPeriph_Driver/src/stm32f4xx_i2c.c:761:12
	strh	r1, [r0, #16]
	.loc	3 762 1                 @ ../Libraries/STM32F4xx_StdPeriph_Driver/src/stm32f4xx_i2c.c:762:1
	bx	lr
.Ltmp108:
.Lfunc_end19:
	.size	I2C_SendData, .Lfunc_end19-I2C_SendData
	.cfi_endproc
	.cantunwind
	.fnend
                                        @ -- End function
	.section	.text.I2C_ReceiveData,"ax",%progbits
	.hidden	I2C_ReceiveData         @ -- Begin function I2C_ReceiveData
	.globl	I2C_ReceiveData
	.p2align	1
	.type	I2C_ReceiveData,%function
	.code	16                      @ @I2C_ReceiveData
	.thumb_func
I2C_ReceiveData:
.Lfunc_begin20:
	.loc	3 770 0                 @ ../Libraries/STM32F4xx_StdPeriph_Driver/src/stm32f4xx_i2c.c:770:0
	.fnstart
	.cfi_startproc
@ %bb.0:
	@DEBUG_VALUE: I2C_ReceiveData:I2Cx <- $r0
	@DEBUG_VALUE: I2C_ReceiveData:I2Cx <- $r0
	.loc	3 774 3 prologue_end    @ ../Libraries/STM32F4xx_StdPeriph_Driver/src/stm32f4xx_i2c.c:774:3
	ldrh	r0, [r0, #16]
	uxtb	r0, r0
	bx	lr
.Ltmp109:
.Lfunc_end20:
	.size	I2C_ReceiveData, .Lfunc_end20-I2C_ReceiveData
	.cfi_endproc
	.cantunwind
	.fnend
                                        @ -- End function
	.section	.text.I2C_TransmitPEC,"ax",%progbits
	.hidden	I2C_TransmitPEC         @ -- Begin function I2C_TransmitPEC
	.globl	I2C_TransmitPEC
	.p2align	1
	.type	I2C_TransmitPEC,%function
	.code	16                      @ @I2C_TransmitPEC
	.thumb_func
I2C_TransmitPEC:
.Lfunc_begin21:
	.loc	3 801 0                 @ ../Libraries/STM32F4xx_StdPeriph_Driver/src/stm32f4xx_i2c.c:801:0
	.fnstart
	.cfi_startproc
@ %bb.0:
	@DEBUG_VALUE: I2C_TransmitPEC:I2Cx <- $r0
	@DEBUG_VALUE: I2C_TransmitPEC:I2Cx <- $r0
	@DEBUG_VALUE: I2C_TransmitPEC:NewState <- $r1
	@DEBUG_VALUE: I2C_TransmitPEC:NewState <- $r1
	.loc	3 0 0 prologue_end      @ ../Libraries/STM32F4xx_StdPeriph_Driver/src/stm32f4xx_i2c.c:0:0
	ldrh	r2, [r0]
.Ltmp110:
	.loc	3 805 7                 @ ../Libraries/STM32F4xx_StdPeriph_Driver/src/stm32f4xx_i2c.c:805:7
	cmp	r1, #0
	orr	r3, r2, #4096
	it	eq
	biceq	r3, r2, #4096
.Ltmp111:
	.loc	3 0 0 is_stmt 0         @ ../Libraries/STM32F4xx_StdPeriph_Driver/src/stm32f4xx_i2c.c:0:0
	strh	r3, [r0]
.Ltmp112:
	.loc	3 815 1 is_stmt 1       @ ../Libraries/STM32F4xx_StdPeriph_Driver/src/stm32f4xx_i2c.c:815:1
	bx	lr
.Ltmp113:
.Lfunc_end21:
	.size	I2C_TransmitPEC, .Lfunc_end21-I2C_TransmitPEC
	.cfi_endproc
	.cantunwind
	.fnend
                                        @ -- End function
	.section	.text.I2C_PECPositionConfig,"ax",%progbits
	.hidden	I2C_PECPositionConfig   @ -- Begin function I2C_PECPositionConfig
	.globl	I2C_PECPositionConfig
	.p2align	1
	.type	I2C_PECPositionConfig,%function
	.code	16                      @ @I2C_PECPositionConfig
	.thumb_func
I2C_PECPositionConfig:
.Lfunc_begin22:
	.loc	3 832 0                 @ ../Libraries/STM32F4xx_StdPeriph_Driver/src/stm32f4xx_i2c.c:832:0
	.fnstart
	.cfi_startproc
@ %bb.0:
	@DEBUG_VALUE: I2C_PECPositionConfig:I2Cx <- $r0
	@DEBUG_VALUE: I2C_PECPositionConfig:I2Cx <- $r0
	@DEBUG_VALUE: I2C_PECPositionConfig:I2C_PECPosition <- $r1
	@DEBUG_VALUE: I2C_PECPositionConfig:I2C_PECPosition <- $r1
	.loc	3 0 0 prologue_end      @ ../Libraries/STM32F4xx_StdPeriph_Driver/src/stm32f4xx_i2c.c:0:0
	ldrh	r2, [r0]
.Ltmp114:
	.loc	3 836 7                 @ ../Libraries/STM32F4xx_StdPeriph_Driver/src/stm32f4xx_i2c.c:836:7
	cmp.w	r1, #2048
	bic	r3, r2, #2048
	it	eq
	orreq	r3, r2, #2048
.Ltmp115:
	.loc	3 0 0 is_stmt 0         @ ../Libraries/STM32F4xx_StdPeriph_Driver/src/stm32f4xx_i2c.c:0:0
	strh	r3, [r0]
.Ltmp116:
	.loc	3 846 1 is_stmt 1       @ ../Libraries/STM32F4xx_StdPeriph_Driver/src/stm32f4xx_i2c.c:846:1
	bx	lr
.Ltmp117:
.Lfunc_end22:
	.size	I2C_PECPositionConfig, .Lfunc_end22-I2C_PECPositionConfig
	.cfi_endproc
	.cantunwind
	.fnend
                                        @ -- End function
	.section	.text.I2C_CalculatePEC,"ax",%progbits
	.hidden	I2C_CalculatePEC        @ -- Begin function I2C_CalculatePEC
	.globl	I2C_CalculatePEC
	.p2align	1
	.type	I2C_CalculatePEC,%function
	.code	16                      @ @I2C_CalculatePEC
	.thumb_func
I2C_CalculatePEC:
.Lfunc_begin23:
	.loc	3 856 0                 @ ../Libraries/STM32F4xx_StdPeriph_Driver/src/stm32f4xx_i2c.c:856:0
	.fnstart
	.cfi_startproc
@ %bb.0:
	@DEBUG_VALUE: I2C_CalculatePEC:I2Cx <- $r0
	@DEBUG_VALUE: I2C_CalculatePEC:I2Cx <- $r0
	@DEBUG_VALUE: I2C_CalculatePEC:NewState <- $r1
	@DEBUG_VALUE: I2C_CalculatePEC:NewState <- $r1
	.loc	3 0 0 prologue_end      @ ../Libraries/STM32F4xx_StdPeriph_Driver/src/stm32f4xx_i2c.c:0:0
	ldrh	r2, [r0]
.Ltmp118:
	.loc	3 860 7                 @ ../Libraries/STM32F4xx_StdPeriph_Driver/src/stm32f4xx_i2c.c:860:7
	cmp	r1, #0
	orr	r3, r2, #32
	it	eq
	biceq	r3, r2, #32
.Ltmp119:
	.loc	3 0 0 is_stmt 0         @ ../Libraries/STM32F4xx_StdPeriph_Driver/src/stm32f4xx_i2c.c:0:0
	strh	r3, [r0]
.Ltmp120:
	.loc	3 870 1 is_stmt 1       @ ../Libraries/STM32F4xx_StdPeriph_Driver/src/stm32f4xx_i2c.c:870:1
	bx	lr
.Ltmp121:
.Lfunc_end23:
	.size	I2C_CalculatePEC, .Lfunc_end23-I2C_CalculatePEC
	.cfi_endproc
	.cantunwind
	.fnend
                                        @ -- End function
	.section	.text.I2C_GetPEC,"ax",%progbits
	.hidden	I2C_GetPEC              @ -- Begin function I2C_GetPEC
	.globl	I2C_GetPEC
	.p2align	1
	.type	I2C_GetPEC,%function
	.code	16                      @ @I2C_GetPEC
	.thumb_func
I2C_GetPEC:
.Lfunc_begin24:
	.loc	3 878 0                 @ ../Libraries/STM32F4xx_StdPeriph_Driver/src/stm32f4xx_i2c.c:878:0
	.fnstart
	.cfi_startproc
@ %bb.0:
	@DEBUG_VALUE: I2C_GetPEC:I2Cx <- $r0
	@DEBUG_VALUE: I2C_GetPEC:I2Cx <- $r0
	.loc	3 882 18 prologue_end   @ ../Libraries/STM32F4xx_StdPeriph_Driver/src/stm32f4xx_i2c.c:882:18
	ldrh	r0, [r0, #24]
.Ltmp122:
	.loc	3 882 23 is_stmt 0      @ ../Libraries/STM32F4xx_StdPeriph_Driver/src/stm32f4xx_i2c.c:882:23
	lsrs	r0, r0, #8
	.loc	3 882 3                 @ ../Libraries/STM32F4xx_StdPeriph_Driver/src/stm32f4xx_i2c.c:882:3
	bx	lr
.Ltmp123:
.Lfunc_end24:
	.size	I2C_GetPEC, .Lfunc_end24-I2C_GetPEC
	.cfi_endproc
	.cantunwind
	.fnend
                                        @ -- End function
	.section	.text.I2C_DMACmd,"ax",%progbits
	.hidden	I2C_DMACmd              @ -- Begin function I2C_DMACmd
	.globl	I2C_DMACmd
	.p2align	1
	.type	I2C_DMACmd,%function
	.code	16                      @ @I2C_DMACmd
	.thumb_func
I2C_DMACmd:
.Lfunc_begin25:
	.loc	3 911 0 is_stmt 1       @ ../Libraries/STM32F4xx_StdPeriph_Driver/src/stm32f4xx_i2c.c:911:0
	.fnstart
	.cfi_startproc
@ %bb.0:
	@DEBUG_VALUE: I2C_DMACmd:I2Cx <- $r0
	@DEBUG_VALUE: I2C_DMACmd:I2Cx <- $r0
	@DEBUG_VALUE: I2C_DMACmd:NewState <- $r1
	@DEBUG_VALUE: I2C_DMACmd:NewState <- $r1
	.loc	3 0 0 prologue_end      @ ../Libraries/STM32F4xx_StdPeriph_Driver/src/stm32f4xx_i2c.c:0:0
	ldrh	r2, [r0, #4]
.Ltmp124:
	.loc	3 915 7                 @ ../Libraries/STM32F4xx_StdPeriph_Driver/src/stm32f4xx_i2c.c:915:7
	cmp	r1, #0
	orr	r3, r2, #2048
	it	eq
	biceq	r3, r2, #2048
.Ltmp125:
	.loc	3 0 0 is_stmt 0         @ ../Libraries/STM32F4xx_StdPeriph_Driver/src/stm32f4xx_i2c.c:0:0
	strh	r3, [r0, #4]
.Ltmp126:
	.loc	3 925 1 is_stmt 1       @ ../Libraries/STM32F4xx_StdPeriph_Driver/src/stm32f4xx_i2c.c:925:1
	bx	lr
.Ltmp127:
.Lfunc_end25:
	.size	I2C_DMACmd, .Lfunc_end25-I2C_DMACmd
	.cfi_endproc
	.cantunwind
	.fnend
                                        @ -- End function
	.section	.text.I2C_DMALastTransferCmd,"ax",%progbits
	.hidden	I2C_DMALastTransferCmd  @ -- Begin function I2C_DMALastTransferCmd
	.globl	I2C_DMALastTransferCmd
	.p2align	1
	.type	I2C_DMALastTransferCmd,%function
	.code	16                      @ @I2C_DMALastTransferCmd
	.thumb_func
I2C_DMALastTransferCmd:
.Lfunc_begin26:
	.loc	3 935 0                 @ ../Libraries/STM32F4xx_StdPeriph_Driver/src/stm32f4xx_i2c.c:935:0
	.fnstart
	.cfi_startproc
@ %bb.0:
	@DEBUG_VALUE: I2C_DMALastTransferCmd:I2Cx <- $r0
	@DEBUG_VALUE: I2C_DMALastTransferCmd:I2Cx <- $r0
	@DEBUG_VALUE: I2C_DMALastTransferCmd:NewState <- $r1
	@DEBUG_VALUE: I2C_DMALastTransferCmd:NewState <- $r1
	.loc	3 0 0 prologue_end      @ ../Libraries/STM32F4xx_StdPeriph_Driver/src/stm32f4xx_i2c.c:0:0
	ldrh	r2, [r0, #4]
.Ltmp128:
	.loc	3 939 7                 @ ../Libraries/STM32F4xx_StdPeriph_Driver/src/stm32f4xx_i2c.c:939:7
	cmp	r1, #0
	orr	r3, r2, #4096
	it	eq
	biceq	r3, r2, #4096
.Ltmp129:
	.loc	3 0 0 is_stmt 0         @ ../Libraries/STM32F4xx_StdPeriph_Driver/src/stm32f4xx_i2c.c:0:0
	strh	r3, [r0, #4]
.Ltmp130:
	.loc	3 949 1 is_stmt 1       @ ../Libraries/STM32F4xx_StdPeriph_Driver/src/stm32f4xx_i2c.c:949:1
	bx	lr
.Ltmp131:
.Lfunc_end26:
	.size	I2C_DMALastTransferCmd, .Lfunc_end26-I2C_DMALastTransferCmd
	.cfi_endproc
	.cantunwind
	.fnend
                                        @ -- End function
	.section	.text.I2C_ReadRegister,"ax",%progbits
	.hidden	I2C_ReadRegister        @ -- Begin function I2C_ReadRegister
	.globl	I2C_ReadRegister
	.p2align	1
	.type	I2C_ReadRegister,%function
	.code	16                      @ @I2C_ReadRegister
	.thumb_func
I2C_ReadRegister:
.Lfunc_begin27:
	.loc	3 1073 0                @ ../Libraries/STM32F4xx_StdPeriph_Driver/src/stm32f4xx_i2c.c:1073:0
	.fnstart
	.cfi_startproc
@ %bb.0:
	.pad	#4
	sub	sp, #4
	.cfi_def_cfa_offset 4
	@DEBUG_VALUE: I2C_ReadRegister:I2Cx <- $r0
	@DEBUG_VALUE: I2C_ReadRegister:I2C_Register <- $r1
	movs	r2, #0
	@DEBUG_VALUE: I2C_ReadRegister:I2C_Register <- $r1
	@DEBUG_VALUE: I2C_ReadRegister:I2Cx <- $r0
.Ltmp132:
	.loc	3 1074 17 prologue_end  @ ../Libraries/STM32F4xx_StdPeriph_Driver/src/stm32f4xx_i2c.c:1074:17
	str	r2, [sp]
	.loc	3 1080 7                @ ../Libraries/STM32F4xx_StdPeriph_Driver/src/stm32f4xx_i2c.c:1080:7
	str	r0, [sp]
	.loc	3 1081 7                @ ../Libraries/STM32F4xx_StdPeriph_Driver/src/stm32f4xx_i2c.c:1081:7
	ldr	r0, [sp]
.Ltmp133:
	add	r0, r1
	str	r0, [sp]
	.loc	3 1084 30               @ ../Libraries/STM32F4xx_StdPeriph_Driver/src/stm32f4xx_i2c.c:1084:30
	ldr	r0, [sp]
	.loc	3 1084 11 is_stmt 0     @ ../Libraries/STM32F4xx_StdPeriph_Driver/src/stm32f4xx_i2c.c:1084:11
	ldrh	r0, [r0]
	.loc	3 1084 3                @ ../Libraries/STM32F4xx_StdPeriph_Driver/src/stm32f4xx_i2c.c:1084:3
	add	sp, #4
	bx	lr
.Ltmp134:
.Lfunc_end27:
	.size	I2C_ReadRegister, .Lfunc_end27-I2C_ReadRegister
	.cfi_endproc
	.cantunwind
	.fnend
                                        @ -- End function
	.section	.text.I2C_ITConfig,"ax",%progbits
	.hidden	I2C_ITConfig            @ -- Begin function I2C_ITConfig
	.globl	I2C_ITConfig
	.p2align	1
	.type	I2C_ITConfig,%function
	.code	16                      @ @I2C_ITConfig
	.thumb_func
I2C_ITConfig:
.Lfunc_begin28:
	.loc	3 1100 0 is_stmt 1      @ ../Libraries/STM32F4xx_StdPeriph_Driver/src/stm32f4xx_i2c.c:1100:0
	.fnstart
	.cfi_startproc
@ %bb.0:
	@DEBUG_VALUE: I2C_ITConfig:I2Cx <- $r0
	@DEBUG_VALUE: I2C_ITConfig:I2Cx <- $r0
	@DEBUG_VALUE: I2C_ITConfig:I2C_IT <- $r1
	@DEBUG_VALUE: I2C_ITConfig:I2C_IT <- $r1
	@DEBUG_VALUE: I2C_ITConfig:NewState <- $r2
	@DEBUG_VALUE: I2C_ITConfig:NewState <- $r2
	.loc	3 1106 7 prologue_end   @ ../Libraries/STM32F4xx_StdPeriph_Driver/src/stm32f4xx_i2c.c:1106:7
	cmp	r2, #0
.Ltmp135:
	.loc	3 1114 15               @ ../Libraries/STM32F4xx_StdPeriph_Driver/src/stm32f4xx_i2c.c:1114:15
	ldrh	r2, [r0, #4]
.Ltmp136:
	ite	eq
	biceq.w	r1, r2, r1
.Ltmp137:
	.loc	3 1109 15               @ ../Libraries/STM32F4xx_StdPeriph_Driver/src/stm32f4xx_i2c.c:1109:15
	orrne	r1, r2
.Ltmp138:
	.loc	3 0 0 is_stmt 0         @ ../Libraries/STM32F4xx_StdPeriph_Driver/src/stm32f4xx_i2c.c:0:0
	strh	r1, [r0, #4]
.Ltmp139:
	.loc	3 1116 1 is_stmt 1      @ ../Libraries/STM32F4xx_StdPeriph_Driver/src/stm32f4xx_i2c.c:1116:1
	bx	lr
.Ltmp140:
.Lfunc_end28:
	.size	I2C_ITConfig, .Lfunc_end28-I2C_ITConfig
	.cfi_endproc
	.cantunwind
	.fnend
                                        @ -- End function
	.section	.text.I2C_CheckEvent,"ax",%progbits
	.hidden	I2C_CheckEvent          @ -- Begin function I2C_CheckEvent
	.globl	I2C_CheckEvent
	.p2align	1
	.type	I2C_CheckEvent,%function
	.code	16                      @ @I2C_CheckEvent
	.thumb_func
I2C_CheckEvent:
.Lfunc_begin29:
	.loc	3 1159 0                @ ../Libraries/STM32F4xx_StdPeriph_Driver/src/stm32f4xx_i2c.c:1159:0
	.fnstart
	.cfi_startproc
@ %bb.0:
	@DEBUG_VALUE: I2C_CheckEvent:I2Cx <- $r0
	@DEBUG_VALUE: I2C_CheckEvent:I2Cx <- $r0
	@DEBUG_VALUE: I2C_CheckEvent:I2C_EVENT <- $r1
	@DEBUG_VALUE: I2C_CheckEvent:I2C_EVENT <- $r1
	@DEBUG_VALUE: I2C_CheckEvent:lastevent <- 0
	@DEBUG_VALUE: I2C_CheckEvent:flag1 <- 0
	@DEBUG_VALUE: I2C_CheckEvent:flag2 <- 0
	@DEBUG_VALUE: I2C_CheckEvent:status <- 0
	.loc	3 1169 17 prologue_end  @ ../Libraries/STM32F4xx_StdPeriph_Driver/src/stm32f4xx_i2c.c:1169:17
	ldrh	r2, [r0, #20]
.Ltmp141:
	@DEBUG_VALUE: I2C_CheckEvent:flag1 <- $r2
	.loc	3 1170 11               @ ../Libraries/STM32F4xx_StdPeriph_Driver/src/stm32f4xx_i2c.c:1170:11
	ldrh	r0, [r0, #24]
.Ltmp142:
	@DEBUG_VALUE: I2C_CheckEvent:flag2 <- undef
	.loc	3 1174 31               @ ../Libraries/STM32F4xx_StdPeriph_Driver/src/stm32f4xx_i2c.c:1174:31
	bfi	r2, r0, #16, #8
.Ltmp143:
	@DEBUG_VALUE: I2C_CheckEvent:lastevent <- $r2
	.loc	3 1177 18               @ ../Libraries/STM32F4xx_StdPeriph_Driver/src/stm32f4xx_i2c.c:1177:18
	and.w	r0, r2, r1
	.loc	3 1177 31 is_stmt 0     @ ../Libraries/STM32F4xx_StdPeriph_Driver/src/stm32f4xx_i2c.c:1177:31
	subs	r0, r0, r1
	clz	r0, r0
	lsrs	r0, r0, #5
.Ltmp144:
	@DEBUG_VALUE: I2C_CheckEvent:status <- undef
	.loc	3 1188 3 is_stmt 1      @ ../Libraries/STM32F4xx_StdPeriph_Driver/src/stm32f4xx_i2c.c:1188:3
	bx	lr
.Ltmp145:
.Lfunc_end29:
	.size	I2C_CheckEvent, .Lfunc_end29-I2C_CheckEvent
	.cfi_endproc
	.cantunwind
	.fnend
                                        @ -- End function
	.section	.text.I2C_GetLastEvent,"ax",%progbits
	.hidden	I2C_GetLastEvent        @ -- Begin function I2C_GetLastEvent
	.globl	I2C_GetLastEvent
	.p2align	1
	.type	I2C_GetLastEvent,%function
	.code	16                      @ @I2C_GetLastEvent
	.thumb_func
I2C_GetLastEvent:
.Lfunc_begin30:
	.loc	3 1207 0                @ ../Libraries/STM32F4xx_StdPeriph_Driver/src/stm32f4xx_i2c.c:1207:0
	.fnstart
	.cfi_startproc
@ %bb.0:
	@DEBUG_VALUE: I2C_GetLastEvent:I2Cx <- $r0
	@DEBUG_VALUE: I2C_GetLastEvent:I2Cx <- $r0
	@DEBUG_VALUE: I2C_GetLastEvent:lastevent <- 0
	@DEBUG_VALUE: I2C_GetLastEvent:flag1 <- 0
	@DEBUG_VALUE: I2C_GetLastEvent:flag2 <- 0
	.loc	3 1215 17 prologue_end  @ ../Libraries/STM32F4xx_StdPeriph_Driver/src/stm32f4xx_i2c.c:1215:17
	ldrh	r1, [r0, #20]
.Ltmp146:
	@DEBUG_VALUE: I2C_GetLastEvent:flag1 <- $r1
	.loc	3 1216 11               @ ../Libraries/STM32F4xx_StdPeriph_Driver/src/stm32f4xx_i2c.c:1216:11
	ldrh	r0, [r0, #24]
.Ltmp147:
	@DEBUG_VALUE: I2C_GetLastEvent:flag2 <- undef
	.loc	3 1220 31               @ ../Libraries/STM32F4xx_StdPeriph_Driver/src/stm32f4xx_i2c.c:1220:31
	bfi	r1, r0, #16, #8
.Ltmp148:
	@DEBUG_VALUE: I2C_GetLastEvent:lastevent <- $r1
	.loc	3 1223 3                @ ../Libraries/STM32F4xx_StdPeriph_Driver/src/stm32f4xx_i2c.c:1223:3
	mov	r0, r1
	bx	lr
.Ltmp149:
.Lfunc_end30:
	.size	I2C_GetLastEvent, .Lfunc_end30-I2C_GetLastEvent
	.cfi_endproc
	.cantunwind
	.fnend
                                        @ -- End function
	.section	.text.I2C_GetFlagStatus,"ax",%progbits
	.hidden	I2C_GetFlagStatus       @ -- Begin function I2C_GetFlagStatus
	.globl	I2C_GetFlagStatus
	.p2align	1
	.type	I2C_GetFlagStatus,%function
	.code	16                      @ @I2C_GetFlagStatus
	.thumb_func
I2C_GetFlagStatus:
.Lfunc_begin31:
	.loc	3 1262 0                @ ../Libraries/STM32F4xx_StdPeriph_Driver/src/stm32f4xx_i2c.c:1262:0
	.fnstart
	.cfi_startproc
@ %bb.0:
	.pad	#8
	sub	sp, #8
	.cfi_def_cfa_offset 8
	@DEBUG_VALUE: I2C_GetFlagStatus:I2Cx <- $r0
	@DEBUG_VALUE: I2C_GetFlagStatus:I2C_FLAG <- $r1
	movs	r2, #0
.Ltmp150:
	@DEBUG_VALUE: I2C_GetFlagStatus:bitstatus <- 0
	@DEBUG_VALUE: I2C_GetFlagStatus:I2C_FLAG <- $r1
	@DEBUG_VALUE: I2C_GetFlagStatus:I2Cx <- $r0
	.loc	3 1264 17 prologue_end  @ ../Libraries/STM32F4xx_StdPeriph_Driver/src/stm32f4xx_i2c.c:1264:17
	str	r2, [sp, #4]
	.loc	3 1264 29 is_stmt 0     @ ../Libraries/STM32F4xx_StdPeriph_Driver/src/stm32f4xx_i2c.c:1264:29
	str	r2, [sp]
	.loc	3 1271 12 is_stmt 1     @ ../Libraries/STM32F4xx_StdPeriph_Driver/src/stm32f4xx_i2c.c:1271:12
	str	r0, [sp]
	.loc	3 1274 21               @ ../Libraries/STM32F4xx_StdPeriph_Driver/src/stm32f4xx_i2c.c:1274:21
	lsrs	r0, r1, #28
.Ltmp151:
	.loc	3 1274 10 is_stmt 0     @ ../Libraries/STM32F4xx_StdPeriph_Driver/src/stm32f4xx_i2c.c:1274:10
	str	r0, [sp, #4]
	.loc	3 1277 12 is_stmt 1     @ ../Libraries/STM32F4xx_StdPeriph_Driver/src/stm32f4xx_i2c.c:1277:12
	bic	r0, r1, #-16777216
.Ltmp152:
	@DEBUG_VALUE: I2C_GetFlagStatus:I2C_FLAG <- $r0
	.loc	3 1279 6                @ ../Libraries/STM32F4xx_StdPeriph_Driver/src/stm32f4xx_i2c.c:1279:6
	ldr	r1, [sp, #4]
.Ltmp153:
	.loc	3 1279 6 is_stmt 0      @ ../Libraries/STM32F4xx_StdPeriph_Driver/src/stm32f4xx_i2c.c:1279:6
	cbz	r1, .LBB31_2
.Ltmp154:
@ %bb.1:
	@DEBUG_VALUE: I2C_GetFlagStatus:I2C_FLAG <- $r0
	.loc	3 1282 14 is_stmt 1     @ ../Libraries/STM32F4xx_StdPeriph_Driver/src/stm32f4xx_i2c.c:1282:14
	ldr	r1, [sp]
	adds	r1, #20
	b	.LBB31_3
.Ltmp155:
.LBB31_2:
	@DEBUG_VALUE: I2C_GetFlagStatus:I2C_FLAG <- $r0
	.loc	3 1289 14               @ ../Libraries/STM32F4xx_StdPeriph_Driver/src/stm32f4xx_i2c.c:1289:14
	ldr	r1, [sp]
	.loc	3 1287 36               @ ../Libraries/STM32F4xx_StdPeriph_Driver/src/stm32f4xx_i2c.c:1287:36
	lsrs	r0, r0, #16
.Ltmp156:
	@DEBUG_VALUE: I2C_GetFlagStatus:I2C_FLAG <- $r0
	.loc	3 1289 14               @ ../Libraries/STM32F4xx_StdPeriph_Driver/src/stm32f4xx_i2c.c:1289:14
	adds	r1, #24
.Ltmp157:
.LBB31_3:
	@DEBUG_VALUE: I2C_GetFlagStatus:I2C_FLAG <- $r0
	.loc	3 0 0 is_stmt 0         @ ../Libraries/STM32F4xx_StdPeriph_Driver/src/stm32f4xx_i2c.c:0:0
	str	r1, [sp]
.Ltmp158:
	@DEBUG_VALUE: I2C_GetFlagStatus:I2C_FLAG <- $r0
	.loc	3 1292 26 is_stmt 1     @ ../Libraries/STM32F4xx_StdPeriph_Driver/src/stm32f4xx_i2c.c:1292:26
	ldr	r1, [sp]
	.loc	3 1292 8 is_stmt 0      @ ../Libraries/STM32F4xx_StdPeriph_Driver/src/stm32f4xx_i2c.c:1292:8
	ldr	r1, [r1]
	.loc	3 1292 36               @ ../Libraries/STM32F4xx_StdPeriph_Driver/src/stm32f4xx_i2c.c:1292:36
	ands	r0, r1
.Ltmp159:
	.loc	3 1292 48               @ ../Libraries/STM32F4xx_StdPeriph_Driver/src/stm32f4xx_i2c.c:1292:48
	it	ne
	movne	r0, #1
.Ltmp160:
	@DEBUG_VALUE: I2C_GetFlagStatus:bitstatus <- undef
	.loc	3 1304 3 is_stmt 1      @ ../Libraries/STM32F4xx_StdPeriph_Driver/src/stm32f4xx_i2c.c:1304:3
	add	sp, #8
	bx	lr
.Ltmp161:
.Lfunc_end31:
	.size	I2C_GetFlagStatus, .Lfunc_end31-I2C_GetFlagStatus
	.cfi_endproc
	.cantunwind
	.fnend
                                        @ -- End function
	.section	.text.I2C_ClearFlag,"ax",%progbits
	.hidden	I2C_ClearFlag           @ -- Begin function I2C_ClearFlag
	.globl	I2C_ClearFlag
	.p2align	1
	.type	I2C_ClearFlag,%function
	.code	16                      @ @I2C_ClearFlag
	.thumb_func
I2C_ClearFlag:
.Lfunc_begin32:
	.loc	3 1339 0                @ ../Libraries/STM32F4xx_StdPeriph_Driver/src/stm32f4xx_i2c.c:1339:0
	.fnstart
	.cfi_startproc
@ %bb.0:
	@DEBUG_VALUE: I2C_ClearFlag:I2Cx <- $r0
	@DEBUG_VALUE: I2C_ClearFlag:I2Cx <- $r0
	@DEBUG_VALUE: I2C_ClearFlag:I2C_FLAG <- $r1
	@DEBUG_VALUE: I2C_ClearFlag:I2C_FLAG <- $r1
	@DEBUG_VALUE: I2C_ClearFlag:flagpos <- [DW_OP_constu 16777215, DW_OP_and, DW_OP_stack_value] $r1
	@DEBUG_VALUE: I2C_ClearFlag:flagpos <- [DW_OP_constu 16777215, DW_OP_and, DW_OP_stack_value] $r1
	@DEBUG_VALUE: I2C_ClearFlag:flagpos <- 0
	.loc	3 1347 15 prologue_end  @ ../Libraries/STM32F4xx_StdPeriph_Driver/src/stm32f4xx_i2c.c:1347:15
	mvns	r1, r1
.Ltmp162:
	.loc	3 1347 13 is_stmt 0     @ ../Libraries/STM32F4xx_StdPeriph_Driver/src/stm32f4xx_i2c.c:1347:13
	strh	r1, [r0, #20]
	.loc	3 1348 1 is_stmt 1      @ ../Libraries/STM32F4xx_StdPeriph_Driver/src/stm32f4xx_i2c.c:1348:1
	bx	lr
.Ltmp163:
.Lfunc_end32:
	.size	I2C_ClearFlag, .Lfunc_end32-I2C_ClearFlag
	.cfi_endproc
	.cantunwind
	.fnend
                                        @ -- End function
	.section	.text.I2C_GetITStatus,"ax",%progbits
	.hidden	I2C_GetITStatus         @ -- Begin function I2C_GetITStatus
	.globl	I2C_GetITStatus
	.p2align	1
	.type	I2C_GetITStatus,%function
	.code	16                      @ @I2C_GetITStatus
	.thumb_func
I2C_GetITStatus:
.Lfunc_begin33:
	.loc	3 1373 0                @ ../Libraries/STM32F4xx_StdPeriph_Driver/src/stm32f4xx_i2c.c:1373:0
	.fnstart
	.cfi_startproc
@ %bb.0:
	@DEBUG_VALUE: I2C_GetITStatus:I2Cx <- $r0
	@DEBUG_VALUE: I2C_GetITStatus:I2Cx <- $r0
	@DEBUG_VALUE: I2C_GetITStatus:I2C_IT <- $r1
	@DEBUG_VALUE: I2C_GetITStatus:I2C_IT <- $r1
	@DEBUG_VALUE: I2C_GetITStatus:I2C_IT <- [DW_OP_constu 16777215, DW_OP_and, DW_OP_stack_value] $r1
	@DEBUG_VALUE: I2C_GetITStatus:I2C_IT <- [DW_OP_constu 16777215, DW_OP_and, DW_OP_stack_value] $r1
	@DEBUG_VALUE: I2C_GetITStatus:bitstatus <- 0
	@DEBUG_VALUE: I2C_GetITStatus:enablestatus <- 0
	.loc	3 1382 60 prologue_end  @ ../Libraries/STM32F4xx_StdPeriph_Driver/src/stm32f4xx_i2c.c:1382:60
	ldrh	r2, [r0, #4]
.Ltmp164:
	.loc	3 1388 15               @ ../Libraries/STM32F4xx_StdPeriph_Driver/src/stm32f4xx_i2c.c:1388:15
	ldrh	r0, [r0, #20]
.Ltmp165:
	.loc	3 1388 19 is_stmt 0     @ ../Libraries/STM32F4xx_StdPeriph_Driver/src/stm32f4xx_i2c.c:1388:19
	ands	r0, r1
.Ltmp166:
	.loc	3 1382 51 is_stmt 1     @ ../Libraries/STM32F4xx_StdPeriph_Driver/src/stm32f4xx_i2c.c:1382:51
	and.w	r1, r2, r1, lsr #16
.Ltmp167:
	.loc	3 1388 29               @ ../Libraries/STM32F4xx_StdPeriph_Driver/src/stm32f4xx_i2c.c:1388:29
	it	ne
	movne	r0, #1
.Ltmp168:
	.loc	3 1382 58               @ ../Libraries/STM32F4xx_StdPeriph_Driver/src/stm32f4xx_i2c.c:1382:58
	ands	r1, r1, #1792
.Ltmp169:
	@DEBUG_VALUE: I2C_GetITStatus:enablestatus <- $r1
	.loc	3 1388 52               @ ../Libraries/STM32F4xx_StdPeriph_Driver/src/stm32f4xx_i2c.c:1388:52
	it	ne
	movne	r1, #1
.Ltmp170:
	.loc	3 1388 49 is_stmt 0     @ ../Libraries/STM32F4xx_StdPeriph_Driver/src/stm32f4xx_i2c.c:1388:49
	ands	r0, r1
.Ltmp171:
	@DEBUG_VALUE: I2C_GetITStatus:bitstatus <- undef
	.loc	3 1399 3 is_stmt 1      @ ../Libraries/STM32F4xx_StdPeriph_Driver/src/stm32f4xx_i2c.c:1399:3
	bx	lr
.Ltmp172:
.Lfunc_end33:
	.size	I2C_GetITStatus, .Lfunc_end33-I2C_GetITStatus
	.cfi_endproc
	.cantunwind
	.fnend
                                        @ -- End function
	.section	.text.I2C_ClearITPendingBit,"ax",%progbits
	.hidden	I2C_ClearITPendingBit   @ -- Begin function I2C_ClearITPendingBit
	.globl	I2C_ClearITPendingBit
	.p2align	1
	.type	I2C_ClearITPendingBit,%function
	.code	16                      @ @I2C_ClearITPendingBit
	.thumb_func
I2C_ClearITPendingBit:
.Lfunc_begin34:
	.loc	3 1433 0                @ ../Libraries/STM32F4xx_StdPeriph_Driver/src/stm32f4xx_i2c.c:1433:0
	.fnstart
	.cfi_startproc
@ %bb.0:
	@DEBUG_VALUE: I2C_ClearITPendingBit:I2Cx <- $r0
	@DEBUG_VALUE: I2C_ClearITPendingBit:I2Cx <- $r0
	@DEBUG_VALUE: I2C_ClearITPendingBit:I2C_IT <- $r1
	@DEBUG_VALUE: I2C_ClearITPendingBit:I2C_IT <- $r1
	@DEBUG_VALUE: I2C_ClearITPendingBit:flagpos <- [DW_OP_constu 16777215, DW_OP_and, DW_OP_stack_value] $r1
	@DEBUG_VALUE: I2C_ClearITPendingBit:flagpos <- [DW_OP_constu 16777215, DW_OP_and, DW_OP_stack_value] $r1
	@DEBUG_VALUE: I2C_ClearITPendingBit:flagpos <- 0
	.loc	3 1443 15 prologue_end  @ ../Libraries/STM32F4xx_StdPeriph_Driver/src/stm32f4xx_i2c.c:1443:15
	mvns	r1, r1
.Ltmp173:
	.loc	3 1443 13 is_stmt 0     @ ../Libraries/STM32F4xx_StdPeriph_Driver/src/stm32f4xx_i2c.c:1443:13
	strh	r1, [r0, #20]
	.loc	3 1444 1 is_stmt 1      @ ../Libraries/STM32F4xx_StdPeriph_Driver/src/stm32f4xx_i2c.c:1444:1
	bx	lr
.Ltmp174:
.Lfunc_end34:
	.size	I2C_ClearITPendingBit, .Lfunc_end34-I2C_ClearITPendingBit
	.cfi_endproc
	.cantunwind
	.fnend
                                        @ -- End function
	.file	4 "F:\\SkyDrive\\OtvoreniProjekti\\HotelSaplast\\fw\\KontrolerHotela\\HC070318\\Project" "../Libraries/STM32F4xx_StdPeriph_Driver/inc\\stm32f4xx_i2c.h"
	.file	5 "F:\\SkyDrive\\OtvoreniProjekti\\HotelSaplast\\fw\\KontrolerHotela\\HC070318\\Project" "../Libraries/STM32F4xx_StdPeriph_Driver/inc\\stm32f4xx_rcc.h"
	.section	".note.GNU-stack","",%progbits
	.eabi_attribute	30, 3	@ Tag_ABI_optimization_goals
	.ARM_attribute	16, 1	@ Tag_AV_eba