	.text
	.syntax unified
	.eabi_attribute	67, "2.09"	@ Tag_conformance
	.cpu	cortex-m4
	.eabi_attribute	6, 13	@ Tag_CPU_arch
	.eabi_attribute	7, 77	@ Tag_CPU_arch_profile
	.eabi_attribute	8, 0	@ Tag_ARM_ISA_use
	.eabi_attribute	9, 2	@ Tag_THUMB_ISA_use
	.fpu	fpv4-sp-d16
	.eabi_attribute	27, 1	@ Tag_ABI_HardFP_use
	.eabi_attribute	36, 1	@ Tag_FP_HP_extension
	.eabi_attribute	34, 1	@ Tag_CPU_unaligned_access
	.eabi_attribute	17, 1	@ Tag_ABI_PCS_GOT_use
	.eabi_attribute	20, 2	@ Tag_ABI_FP_denormal
	.eabi_attribute	21, 0	@ Tag_ABI_FP_exceptions
	.eabi_attribute	23, 1	@ Tag_ABI_FP_number_model
	.eabi_attribute	24, 1	@ Tag_ABI_align_needed
	.eabi_attribute	25, 1	@ Tag_ABI_align_preserved
	.eabi_attribute	28, 1	@ Tag_ABI_VFP_args
	.eabi_attribute	38, 1	@ Tag_ABI_FP_16bit_format
	.eabi_attribute	18, 2	@ Tag_ABI_PCS_wchar_t
	.eabi_attribute	26, 1	@ Tag_ABI_enum_size
	.eabi_attribute	14, 0	@ Tag_ABI_PCS_R9_use
	.file	"stm32f4xx_cryp.c"
	.file	1 "F:\\SkyDrive\\OtvoreniProjekti\\HotelSaplast\\fw\\KontrolerHotela\\HC070318\\Project" "../Libraries/CMSIS/Device/ST/STM32F4xx/Include\\stm32f4xx.h"
	.file	2 "C:\\Keil\\ARM\\ARMCLANG\\Bin\\..\\include" "stdint.h"
	.section	.text.CRYP_DeInit,"ax",%progbits
	.hidden	CRYP_DeInit             @ -- Begin function CRYP_DeInit
	.globl	CRYP_DeInit
	.p2align	1
	.type	CRYP_DeInit,%function
	.code	16                      @ @CRYP_DeInit
	.thumb_func
CRYP_DeInit:
.Lfunc_begin0:
	.file	3 "F:\\SkyDrive\\OtvoreniProjekti\\HotelSaplast\\fw\\KontrolerHotela\\HC070318\\Project" "../Libraries/STM32F4xx_StdPeriph_Driver/src/stm32f4xx_cryp.c"
	.loc	3 220 0                 @ ../Libraries/STM32F4xx_StdPeriph_Driver/src/stm32f4xx_cryp.c:220:0
	.fnstart
	.cfi_sections .debug_frame
	.cfi_startproc
@ %bb.0:
	.save	{r7, lr}
	push	{r7, lr}
	.cfi_def_cfa_offset 8
	.cfi_offset lr, -4
	.cfi_offset r7, -8
.Ltmp0:
	.loc	3 222 3 prologue_end    @ ../Libraries/STM32F4xx_StdPeriph_Driver/src/stm32f4xx_cryp.c:222:3
	movs	r0, #16
	movs	r1, #1
	bl	RCC_AHB2PeriphResetCmd
	.loc	3 225 3                 @ ../Libraries/STM32F4xx_StdPeriph_Driver/src/stm32f4xx_cryp.c:225:3
	movs	r0, #16
	movs	r1, #0
	pop.w	{r7, lr}
	b	RCC_AHB2PeriphResetCmd
.Ltmp1:
.Lfunc_end0:
	.size	CRYP_DeInit, .Lfunc_end0-CRYP_DeInit
	.cfi_endproc
	.cantunwind
	.fnend
                                        @ -- End function
	.section	.text.CRYP_Init,"ax",%progbits
	.hidden	CRYP_Init               @ -- Begin function CRYP_Init
	.globl	CRYP_Init
	.p2align	1
	.type	CRYP_Init,%function
	.code	16                      @ @CRYP_Init
	.thumb_func
CRYP_Init:
.Lfunc_begin1:
	.loc	3 236 0                 @ ../Libraries/STM32F4xx_StdPeriph_Driver/src/stm32f4xx_cryp.c:236:0
	.fnstart
	.cfi_startproc
@ %bb.0:
	@DEBUG_VALUE: CRYP_Init:CRYP_InitStruct <- $r0
	movs	r1, #0
	movw	r3, #65479
	movt	r1, #20486
	@DEBUG_VALUE: CRYP_Init:CRYP_InitStruct <- $r0
	movt	r3, #65527
.Ltmp2:
	.loc	3 243 12 prologue_end   @ ../Libraries/STM32F4xx_StdPeriph_Driver/src/stm32f4xx_cryp.c:243:12
	ldr	r2, [r1]
	ands	r2, r3
	str	r2, [r1]
	.loc	3 244 32                @ ../Libraries/STM32F4xx_StdPeriph_Driver/src/stm32f4xx_cryp.c:244:32
	ldr	r2, [r0, #4]
	.loc	3 244 12 is_stmt 0      @ ../Libraries/STM32F4xx_StdPeriph_Driver/src/stm32f4xx_cryp.c:244:12
	ldr	r3, [r1]
	orrs	r3, r2
.Ltmp3:
	.loc	3 251 66 is_stmt 1      @ ../Libraries/STM32F4xx_StdPeriph_Driver/src/stm32f4xx_cryp.c:251:66
	ror.w	r2, r2, #3
.Ltmp4:
	.loc	3 244 12                @ ../Libraries/STM32F4xx_StdPeriph_Driver/src/stm32f4xx_cryp.c:244:12
	str	r3, [r1]
.Ltmp5:
	.loc	3 251 66                @ ../Libraries/STM32F4xx_StdPeriph_Driver/src/stm32f4xx_cryp.c:251:66
	cmp	r2, #4
.Ltmp6:
	.loc	3 247 12                @ ../Libraries/STM32F4xx_StdPeriph_Driver/src/stm32f4xx_cryp.c:247:12
	ldr	r3, [r1]
	bic	r3, r3, #192
	str	r3, [r1]
	.loc	3 248 32                @ ../Libraries/STM32F4xx_StdPeriph_Driver/src/stm32f4xx_cryp.c:248:32
	ldr.w	r12, [r0, #8]
	.loc	3 248 12 is_stmt 0      @ ../Libraries/STM32F4xx_StdPeriph_Driver/src/stm32f4xx_cryp.c:248:12
	ldr	r3, [r1]
	orr.w	r3, r3, r12
	str	r3, [r1]
.Ltmp7:
	.loc	3 251 66 is_stmt 1      @ ../Libraries/STM32F4xx_StdPeriph_Driver/src/stm32f4xx_cryp.c:251:66
	blo	.LBB1_2
.Ltmp8:
@ %bb.1:
	@DEBUG_VALUE: CRYP_Init:CRYP_InitStruct <- $r0
	.loc	3 257 14                @ ../Libraries/STM32F4xx_StdPeriph_Driver/src/stm32f4xx_cryp.c:257:14
	ldr	r2, [r1]
	bic	r2, r2, #768
	str	r2, [r1]
	.loc	3 258 34                @ ../Libraries/STM32F4xx_StdPeriph_Driver/src/stm32f4xx_cryp.c:258:34
	ldr	r2, [r0, #12]
	.loc	3 258 14 is_stmt 0      @ ../Libraries/STM32F4xx_StdPeriph_Driver/src/stm32f4xx_cryp.c:258:14
	ldr	r3, [r1]
	orrs	r2, r3
	str	r2, [r1]
.Ltmp9:
.LBB1_2:
	@DEBUG_VALUE: CRYP_Init:CRYP_InitStruct <- $r0
	.loc	3 264 12 is_stmt 1      @ ../Libraries/STM32F4xx_StdPeriph_Driver/src/stm32f4xx_cryp.c:264:12
	ldr	r2, [r1]
	bic	r2, r2, #4
	str	r2, [r1]
	.loc	3 265 32                @ ../Libraries/STM32F4xx_StdPeriph_Driver/src/stm32f4xx_cryp.c:265:32
	ldr	r0, [r0]
.Ltmp10:
	.loc	3 265 12 is_stmt 0      @ ../Libraries/STM32F4xx_StdPeriph_Driver/src/stm32f4xx_cryp.c:265:12
	ldr	r2, [r1]
	orrs	r0, r2
	str	r0, [r1]
	.loc	3 266 1 is_stmt 1       @ ../Libraries/STM32F4xx_StdPeriph_Driver/src/stm32f4xx_cryp.c:266:1
	bx	lr
.Ltmp11:
.Lfunc_end1:
	.size	CRYP_Init, .Lfunc_end1-CRYP_Init
	.cfi_endproc
	.cantunwind
	.fnend
                                        @ -- End function
	.section	.text.CRYP_StructInit,"ax",%progbits
	.hidden	CRYP_StructInit         @ -- Begin function CRYP_StructInit
	.globl	CRYP_StructInit
	.p2align	1
	.type	CRYP_StructInit,%function
	.code	16                      @ @CRYP_StructInit
	.thumb_func
CRYP_StructInit:
.Lfunc_begin2:
	.loc	3 275 0                 @ ../Libraries/STM32F4xx_StdPeriph_Driver/src/stm32f4xx_cryp.c:275:0
	.fnstart
	.cfi_startproc
@ %bb.0:
	@DEBUG_VALUE: CRYP_StructInit:CRYP_InitStruct <- $r0
	movs	r1, #0
	@DEBUG_VALUE: CRYP_StructInit:CRYP_InitStruct <- $r0
.Ltmp12:
	.loc	3 280 34 prologue_end   @ ../Libraries/STM32F4xx_StdPeriph_Driver/src/stm32f4xx_cryp.c:280:34
	strd	r1, r1, [r0]
	strd	r1, r1, [r0, #8]
	.loc	3 287 1                 @ ../Libraries/STM32F4xx_StdPeriph_Driver/src/stm32f4xx_cryp.c:287:1
	bx	lr
.Ltmp13:
.Lfunc_end2:
	.size	CRYP_StructInit, .Lfunc_end2-CRYP_StructInit
	.cfi_endproc
	.cantunwind
	.fnend
                                        @ -- End function
	.section	.text.CRYP_KeyInit,"ax",%progbits
	.hidden	CRYP_KeyInit            @ -- Begin function CRYP_KeyInit
	.globl	CRYP_KeyInit
	.p2align	1
	.type	CRYP_KeyInit,%function
	.code	16                      @ @CRYP_KeyInit
	.thumb_func
CRYP_KeyInit:
.Lfunc_begin3:
	.loc	3 297 0                 @ ../Libraries/STM32F4xx_StdPeriph_Driver/src/stm32f4xx_cryp.c:297:0
	.fnstart
	.cfi_startproc
@ %bb.0:
	@DEBUG_VALUE: CRYP_KeyInit:CRYP_KeyInitStruct <- $r0
	@DEBUG_VALUE: CRYP_KeyInit:CRYP_KeyInitStruct <- $r0
	movs	r2, #32
.Ltmp14:
	.loc	3 299 36 prologue_end   @ ../Libraries/STM32F4xx_StdPeriph_Driver/src/stm32f4xx_cryp.c:299:36
	ldr	r1, [r0]
	movt	r2, #20486
	.loc	3 299 14 is_stmt 0      @ ../Libraries/STM32F4xx_StdPeriph_Driver/src/stm32f4xx_cryp.c:299:14
	str	r1, [r2]
	.loc	3 300 36 is_stmt 1      @ ../Libraries/STM32F4xx_StdPeriph_Driver/src/stm32f4xx_cryp.c:300:36
	ldr	r1, [r0, #4]
	.loc	3 300 14 is_stmt 0      @ ../Libraries/STM32F4xx_StdPeriph_Driver/src/stm32f4xx_cryp.c:300:14
	str	r1, [r2, #4]
	.loc	3 301 36 is_stmt 1      @ ../Libraries/STM32F4xx_StdPeriph_Driver/src/stm32f4xx_cryp.c:301:36
	ldr	r1, [r0, #8]
	.loc	3 301 14 is_stmt 0      @ ../Libraries/STM32F4xx_StdPeriph_Driver/src/stm32f4xx_cryp.c:301:14
	str	r1, [r2, #8]
	.loc	3 302 36 is_stmt 1      @ ../Libraries/STM32F4xx_StdPeriph_Driver/src/stm32f4xx_cryp.c:302:36
	ldr	r1, [r0, #12]
	.loc	3 302 14 is_stmt 0      @ ../Libraries/STM32F4xx_StdPeriph_Driver/src/stm32f4xx_cryp.c:302:14
	str	r1, [r2, #12]
	.loc	3 303 36 is_stmt 1      @ ../Libraries/STM32F4xx_StdPeriph_Driver/src/stm32f4xx_cryp.c:303:36
	ldr	r1, [r0, #16]
	.loc	3 303 14 is_stmt 0      @ ../Libraries/STM32F4xx_StdPeriph_Driver/src/stm32f4xx_cryp.c:303:14
	str	r1, [r2, #16]
	.loc	3 304 36 is_stmt 1      @ ../Libraries/STM32F4xx_StdPeriph_Driver/src/stm32f4xx_cryp.c:304:36
	ldr	r1, [r0, #20]
	.loc	3 304 14 is_stmt 0      @ ../Libraries/STM32F4xx_StdPeriph_Driver/src/stm32f4xx_cryp.c:304:14
	str	r1, [r2, #20]
	.loc	3 305 36 is_stmt 1      @ ../Libraries/STM32F4xx_StdPeriph_Driver/src/stm32f4xx_cryp.c:305:36
	ldr	r1, [r0, #24]
	.loc	3 305 14 is_stmt 0      @ ../Libraries/STM32F4xx_StdPeriph_Driver/src/stm32f4xx_cryp.c:305:14
	str	r1, [r2, #24]
	.loc	3 306 36 is_stmt 1      @ ../Libraries/STM32F4xx_StdPeriph_Driver/src/stm32f4xx_cryp.c:306:36
	ldr	r0, [r0, #28]
.Ltmp15:
	.loc	3 306 14 is_stmt 0      @ ../Libraries/STM32F4xx_StdPeriph_Driver/src/stm32f4xx_cryp.c:306:14
	str	r0, [r2, #28]
	.loc	3 307 1 is_stmt 1       @ ../Libraries/STM32F4xx_StdPeriph_Driver/src/stm32f4xx_cryp.c:307:1
	bx	lr
.Ltmp16:
.Lfunc_end3:
	.size	CRYP_KeyInit, .Lfunc_end3-CRYP_KeyInit
	.cfi_endproc
	.cantunwind
	.fnend
                                        @ -- End function
	.section	.text.CRYP_KeyStructInit,"ax",%progbits
	.hidden	CRYP_KeyStructInit      @ -- Begin function CRYP_KeyStructInit
	.globl	CRYP_KeyStructInit
	.p2align	1
	.type	CRYP_KeyStructInit,%function
	.code	16                      @ @CRYP_KeyStructInit
	.thumb_func
CRYP_KeyStructInit:
.Lfunc_begin4:
	.loc	3 316 0                 @ ../Libraries/STM32F4xx_StdPeriph_Driver/src/stm32f4xx_cryp.c:316:0
	.fnstart
	.cfi_startproc
@ %bb.0:
	.save	{r7, lr}
	push	{r7, lr}
	.cfi_def_cfa_offset 8
	.cfi_offset lr, -4
	.cfi_offset r7, -8
	@DEBUG_VALUE: CRYP_KeyStructInit:CRYP_KeyInitStruct <- $r0
	@DEBUG_VALUE: CRYP_KeyStructInit:CRYP_KeyInitStruct <- $r0
	@DEBUG_VALUE: CRYP_KeyStructInit:CRYP_KeyInitStruct <- $r0
.Ltmp17:
	.loc	3 318 38 prologue_end   @ ../Libraries/STM32F4xx_StdPeriph_Driver/src/stm32f4xx_cryp.c:318:38
	movs	r1, #32
	bl	__aeabi_memclr4
.Ltmp18:
	.loc	3 325 1                 @ ../Libraries/STM32F4xx_StdPeriph_Driver/src/stm32f4xx_cryp.c:325:1
	pop	{r7, pc}
.Ltmp19:
.Lfunc_end4:
	.size	CRYP_KeyStructInit, .Lfunc_end4-CRYP_KeyStructInit
	.cfi_endproc
	.cantunwind
	.fnend
                                        @ -- End function
	.section	.text.CRYP_IVInit,"ax",%progbits
	.hidden	CRYP_IVInit             @ -- Begin function CRYP_IVInit
	.globl	CRYP_IVInit
	.p2align	1
	.type	CRYP_IVInit,%function
	.code	16                      @ @CRYP_IVInit
	.thumb_func
CRYP_IVInit:
.Lfunc_begin5:
	.loc	3 334 0                 @ ../Libraries/STM32F4xx_StdPeriph_Driver/src/stm32f4xx_cryp.c:334:0
	.fnstart
	.cfi_startproc
@ %bb.0:
	@DEBUG_VALUE: CRYP_IVInit:CRYP_IVInitStruct <- $r0
	@DEBUG_VALUE: CRYP_IVInit:CRYP_IVInitStruct <- $r0
	movs	r2, #64
.Ltmp20:
	.loc	3 335 36 prologue_end   @ ../Libraries/STM32F4xx_StdPeriph_Driver/src/stm32f4xx_cryp.c:335:36
	ldr	r1, [r0]
	movt	r2, #20486
	.loc	3 335 15 is_stmt 0      @ ../Libraries/STM32F4xx_StdPeriph_Driver/src/stm32f4xx_cryp.c:335:15
	str	r1, [r2]
	.loc	3 336 36 is_stmt 1      @ ../Libraries/STM32F4xx_StdPeriph_Driver/src/stm32f4xx_cryp.c:336:36
	ldr	r1, [r0, #4]
	.loc	3 336 15 is_stmt 0      @ ../Libraries/STM32F4xx_StdPeriph_Driver/src/stm32f4xx_cryp.c:336:15
	str	r1, [r2, #4]
	.loc	3 337 36 is_stmt 1      @ ../Libraries/STM32F4xx_StdPeriph_Driver/src/stm32f4xx_cryp.c:337:36
	ldr	r1, [r0, #8]
	.loc	3 337 15 is_stmt 0      @ ../Libraries/STM32F4xx_StdPeriph_Driver/src/stm32f4xx_cryp.c:337:15
	str	r1, [r2, #8]
	.loc	3 338 36 is_stmt 1      @ ../Libraries/STM32F4xx_StdPeriph_Driver/src/stm32f4xx_cryp.c:338:36
	ldr	r0, [r0, #12]
.Ltmp21:
	.loc	3 338 15 is_stmt 0      @ ../Libraries/STM32F4xx_StdPeriph_Driver/src/stm32f4xx_cryp.c:338:15
	str	r0, [r2, #12]
	.loc	3 339 1 is_stmt 1       @ ../Libraries/STM32F4xx_StdPeriph_Driver/src/stm32f4xx_cryp.c:339:1
	bx	lr
.Ltmp22:
.Lfunc_end5:
	.size	CRYP_IVInit, .Lfunc_end5-CRYP_IVInit
	.cfi_endproc
	.cantunwind
	.fnend
                                        @ -- End function
	.section	.text.CRYP_IVStructInit,"ax",%progbits
	.hidden	CRYP_IVStructInit       @ -- Begin function CRYP_IVStructInit
	.globl	CRYP_IVStructInit
	.p2align	1
	.type	CRYP_IVStructInit,%function
	.code	16                      @ @CRYP_IVStructInit
	.thumb_func
CRYP_IVStructInit:
.Lfunc_begin6:
	.loc	3 348 0                 @ ../Libraries/STM32F4xx_StdPeriph_Driver/src/stm32f4xx_cryp.c:348:0
	.fnstart
	.cfi_startproc
@ %bb.0:
	@DEBUG_VALUE: CRYP_IVStructInit:CRYP_IVInitStruct <- $r0
	movs	r1, #0
	@DEBUG_VALUE: CRYP_IVStructInit:CRYP_IVInitStruct <- $r0
.Ltmp23:
	.loc	3 350 36 prologue_end   @ ../Libraries/STM32F4xx_StdPeriph_Driver/src/stm32f4xx_cryp.c:350:36
	strd	r1, r1, [r0]
	strd	r1, r1, [r0, #8]
	.loc	3 353 1                 @ ../Libraries/STM32F4xx_StdPeriph_Driver/src/stm32f4xx_cryp.c:353:1
	bx	lr
.Ltmp24:
.Lfunc_end6:
	.size	CRYP_IVStructInit, .Lfunc_end6-CRYP_IVStructInit
	.cfi_endproc
	.cantunwind
	.fnend
                                        @ -- End function
	.section	.text.CRYP_PhaseConfig,"ax",%progbits
	.hidden	CRYP_PhaseConfig        @ -- Begin function CRYP_PhaseConfig
	.globl	CRYP_PhaseConfig
	.p2align	1
	.type	CRYP_PhaseConfig,%function
	.code	16                      @ @CRYP_PhaseConfig
	.thumb_func
CRYP_PhaseConfig:
.Lfunc_begin7:
	.loc	3 367 0                 @ ../Libraries/STM32F4xx_StdPeriph_Driver/src/stm32f4xx_cryp.c:367:0
	.fnstart
	.cfi_startproc
@ %bb.0:
	@DEBUG_VALUE: CRYP_PhaseConfig:CRYP_Phase <- $r0
	movs	r1, #0
	movt	r1, #20486
.Ltmp25:
	@DEBUG_VALUE: CRYP_PhaseConfig:tempcr <- 0
	@DEBUG_VALUE: CRYP_PhaseConfig:CRYP_Phase <- $r0
	.loc	3 373 18 prologue_end   @ ../Libraries/STM32F4xx_StdPeriph_Driver/src/stm32f4xx_cryp.c:373:18
	ldr	r2, [r1]
.Ltmp26:
	@DEBUG_VALUE: CRYP_PhaseConfig:tempcr <- $r2
	.loc	3 376 10                @ ../Libraries/STM32F4xx_StdPeriph_Driver/src/stm32f4xx_cryp.c:376:10
	bic	r2, r2, #196608
.Ltmp27:
	@DEBUG_VALUE: CRYP_PhaseConfig:tempcr <- $r2
	.loc	3 378 10                @ ../Libraries/STM32F4xx_StdPeriph_Driver/src/stm32f4xx_cryp.c:378:10
	orrs	r0, r2
.Ltmp28:
	@DEBUG_VALUE: CRYP_PhaseConfig:tempcr <- $r0
	.loc	3 381 12                @ ../Libraries/STM32F4xx_StdPeriph_Driver/src/stm32f4xx_cryp.c:381:12
	str	r0, [r1]
	.loc	3 382 1                 @ ../Libraries/STM32F4xx_StdPeriph_Driver/src/stm32f4xx_cryp.c:382:1
	bx	lr
.Ltmp29:
.Lfunc_end7:
	.size	CRYP_PhaseConfig, .Lfunc_end7-CRYP_PhaseConfig
	.cfi_endproc
	.cantunwind
	.fnend
                                        @ -- End function
	.section	.text.CRYP_FIFOFlush,"ax",%progbits
	.hidden	CRYP_FIFOFlush          @ -- Begin function CRYP_FIFOFlush
	.globl	CRYP_FIFOFlush
	.p2align	1
	.type	CRYP_FIFOFlush,%function
	.code	16                      @ @CRYP_FIFOFlush
	.thumb_func
CRYP_FIFOFlush:
.Lfunc_begin8:
	.loc	3 392 0                 @ ../Libraries/STM32F4xx_StdPeriph_Driver/src/stm32f4xx_cryp.c:392:0
	.fnstart
	.cfi_startproc
@ %bb.0:
	movs	r0, #0
	movt	r0, #20486
.Ltmp30:
	.loc	3 394 12 prologue_end   @ ../Libraries/STM32F4xx_StdPeriph_Driver/src/stm32f4xx_cryp.c:394:12
	ldr	r1, [r0]
	orr	r1, r1, #16384
	str	r1, [r0]
	.loc	3 395 1                 @ ../Libraries/STM32F4xx_StdPeriph_Driver/src/stm32f4xx_cryp.c:395:1
	bx	lr
.Ltmp31:
.Lfunc_end8:
	.size	CRYP_FIFOFlush, .Lfunc_end8-CRYP_FIFOFlush
	.cfi_endproc
	.cantunwind
	.fnend
                                        @ -- End function
	.section	.text.CRYP_Cmd,"ax",%progbits
	.hidden	CRYP_Cmd                @ -- Begin function CRYP_Cmd
	.globl	CRYP_Cmd
	.p2align	1
	.type	CRYP_Cmd,%function
	.code	16                      @ @CRYP_Cmd
	.thumb_func
CRYP_Cmd:
.Lfunc_begin9:
	.loc	3 404 0                 @ ../Libraries/STM32F4xx_StdPeriph_Driver/src/stm32f4xx_cryp.c:404:0
	.fnstart
	.cfi_startproc
@ %bb.0:
	@DEBUG_VALUE: CRYP_Cmd:NewState <- $r0
	movs	r1, #0
.Ltmp32:
	.loc	3 408 7 prologue_end    @ ../Libraries/STM32F4xx_StdPeriph_Driver/src/stm32f4xx_cryp.c:408:7
	cmp	r0, #0
	movt	r1, #20486
	@DEBUG_VALUE: CRYP_Cmd:NewState <- $r0
.Ltmp33:
	.loc	3 0 0 is_stmt 0         @ ../Libraries/STM32F4xx_StdPeriph_Driver/src/stm32f4xx_cryp.c:0:0
	ldr	r2, [r1]
.Ltmp34:
	.loc	3 408 7                 @ ../Libraries/STM32F4xx_StdPeriph_Driver/src/stm32f4xx_cryp.c:408:7
	orr	r3, r2, #32768
	it	eq
	biceq	r3, r2, #32768
.Ltmp35:
	.loc	3 0 0                   @ ../Libraries/STM32F4xx_StdPeriph_Driver/src/stm32f4xx_cryp.c:0:0
	str	r3, [r1]
.Ltmp36:
	.loc	3 418 1 is_stmt 1       @ ../Libraries/STM32F4xx_StdPeriph_Driver/src/stm32f4xx_cryp.c:418:1
	bx	lr
.Ltmp37:
.Lfunc_end9:
	.size	CRYP_Cmd, .Lfunc_end9-CRYP_Cmd
	.cfi_endproc
	.cantunwind
	.fnend
                                        @ -- End function
	.section	.text.CRYP_DataIn,"ax",%progbits
	.hidden	CRYP_DataIn             @ -- Begin function CRYP_DataIn
	.globl	CRYP_DataIn
	.p2align	1
	.type	CRYP_DataIn,%function
	.code	16                      @ @CRYP_DataIn
	.thumb_func
CRYP_DataIn:
.Lfunc_begin10:
	.loc	3 447 0                 @ ../Libraries/STM32F4xx_StdPeriph_Driver/src/stm32f4xx_cryp.c:447:0
	.fnstart
	.cfi_startproc
@ %bb.0:
	@DEBUG_VALUE: CRYP_DataIn:Data <- $r0
	movs	r1, #8
	movt	r1, #20486
	@DEBUG_VALUE: CRYP_DataIn:Data <- $r0
.Ltmp38:
	.loc	3 448 12 prologue_end   @ ../Libraries/STM32F4xx_StdPeriph_Driver/src/stm32f4xx_cryp.c:448:12
	str	r0, [r1]
	.loc	3 449 1                 @ ../Libraries/STM32F4xx_StdPeriph_Driver/src/stm32f4xx_cryp.c:449:1
	bx	lr
.Ltmp39:
.Lfunc_end10:
	.size	CRYP_DataIn, .Lfunc_end10-CRYP_DataIn
	.cfi_endproc
	.cantunwind
	.fnend
                                        @ -- End function
	.section	.text.CRYP_DataOut,"ax",%progbits
	.hidden	CRYP_DataOut            @ -- Begin function CRYP_DataOut
	.globl	CRYP_DataOut
	.p2align	1
	.type	CRYP_DataOut,%function
	.code	16                      @ @CRYP_DataOut
	.thumb_func
CRYP_DataOut:
.Lfunc_begin11:
	.loc	3 457 0                 @ ../Libraries/STM32F4xx_StdPeriph_Driver/src/stm32f4xx_cryp.c:457:0
	.fnstart
	.cfi_startproc
@ %bb.0:
	movs	r0, #12
	movt	r0, #20486
.Ltmp40:
	.loc	3 458 16 prologue_end   @ ../Libraries/STM32F4xx_StdPeriph_Driver/src/stm32f4xx_cryp.c:458:16
	ldr	r0, [r0]
	.loc	3 458 3 is_stmt 0       @ ../Libraries/STM32F4xx_StdPeriph_Driver/src/stm32f4xx_cryp.c:458:3
	bx	lr
.Ltmp41:
.Lfunc_end11:
	.size	CRYP_DataOut, .Lfunc_end11-CRYP_DataOut
	.cfi_endproc
	.cantunwind
	.fnend
                                        @ -- End function
	.section	.text.CRYP_SaveContext,"ax",%progbits
	.hidden	CRYP_SaveContext        @ -- Begin function CRYP_SaveContext
	.globl	CRYP_SaveContext
	.p2align	1
	.type	CRYP_SaveContext,%function
	.code	16                      @ @CRYP_SaveContext
	.thumb_func
CRYP_SaveContext:
.Lfunc_begin12:
	.loc	3 499 0 is_stmt 1       @ ../Libraries/STM32F4xx_StdPeriph_Driver/src/stm32f4xx_cryp.c:499:0
	.fnstart
	.cfi_startproc
@ %bb.0:
	.save	{r4, lr}
	push	{r4, lr}
	.cfi_def_cfa_offset 8
	.cfi_offset lr, -4
	.cfi_offset r4, -8
	.pad	#4
	sub	sp, #4
	.cfi_def_cfa_offset 12
	@DEBUG_VALUE: CRYP_SaveContext:CRYP_ContextSave <- $r0
	@DEBUG_VALUE: CRYP_SaveContext:CRYP_KeyInitStruct <- $r1
	movw	r12, #0
	movs	r2, #0
	@DEBUG_VALUE: CRYP_SaveContext:CRYP_KeyInitStruct <- $r1
	@DEBUG_VALUE: CRYP_SaveContext:CRYP_ContextSave <- $r0
	movs	r3, #17
	movw	lr, #65535
.Ltmp42:
	.loc	3 500 17 prologue_end   @ ../Libraries/STM32F4xx_StdPeriph_Driver/src/stm32f4xx_cryp.c:500:17
	str	r2, [sp]
	movt	r12, #20486
.Ltmp43:
	@DEBUG_VALUE: CRYP_SaveContext:status <- 0
	@DEBUG_VALUE: CRYP_SaveContext:ckeckmask <- 0
	.loc	3 505 15                @ ../Libraries/STM32F4xx_StdPeriph_Driver/src/stm32f4xx_cryp.c:505:15
	ldr.w	r2, [r12, #16]
	bic	r2, r2, #1
	str.w	r2, [r12, #16]
.Ltmp44:
	.loc	3 511 14                @ ../Libraries/STM32F4xx_StdPeriph_Driver/src/stm32f4xx_cryp.c:511:14
	ldr.w	r2, [r12]
.Ltmp45:
	.loc	3 511 7 is_stmt 0       @ ../Libraries/STM32F4xx_StdPeriph_Driver/src/stm32f4xx_cryp.c:511:7
	lsls	r2, r2, #28
	it	pl
	movpl	r3, #21
.Ltmp46:
	@DEBUG_VALUE: CRYP_SaveContext:ckeckmask <- $r3
	.p2align	2
.LBB12_1:                               @ =>This Inner Loop Header: Depth=1
	@DEBUG_VALUE: CRYP_SaveContext:ckeckmask <- $r3
	@DEBUG_VALUE: CRYP_SaveContext:CRYP_KeyInitStruct <- $r1
	@DEBUG_VALUE: CRYP_SaveContext:CRYP_ContextSave <- $r0
	.loc	3 522 23 is_stmt 1      @ ../Libraries/STM32F4xx_StdPeriph_Driver/src/stm32f4xx_cryp.c:522:23
	ldr.w	r2, [r12, #4]
	.loc	3 523 12                @ ../Libraries/STM32F4xx_StdPeriph_Driver/src/stm32f4xx_cryp.c:523:12
	ldr	r4, [sp]
	adds	r4, #1
	str	r4, [sp]
	.loc	3 522 26                @ ../Libraries/STM32F4xx_StdPeriph_Driver/src/stm32f4xx_cryp.c:522:26
	and.w	r4, r2, r3
.Ltmp47:
	@DEBUG_VALUE: CRYP_SaveContext:bitstatus <- $r4
	.loc	3 524 3                 @ ../Libraries/STM32F4xx_StdPeriph_Driver/src/stm32f4xx_cryp.c:524:3
	cmp	r4, #1
.Ltmp48:
	.loc	3 525 11                @ ../Libraries/STM32F4xx_StdPeriph_Driver/src/stm32f4xx_cryp.c:525:11
	ldr	r2, [sp]
.Ltmp49:
	.loc	3 524 3                 @ ../Libraries/STM32F4xx_StdPeriph_Driver/src/stm32f4xx_cryp.c:524:3
	it	ne
	cmpne	r2, lr
	bne	.LBB12_1
.Ltmp50:
@ %bb.2:
	@DEBUG_VALUE: CRYP_SaveContext:bitstatus <- $r4
	@DEBUG_VALUE: CRYP_SaveContext:ckeckmask <- $r3
	@DEBUG_VALUE: CRYP_SaveContext:CRYP_KeyInitStruct <- $r1
	@DEBUG_VALUE: CRYP_SaveContext:CRYP_ContextSave <- $r0
	.loc	3 527 14                @ ../Libraries/STM32F4xx_StdPeriph_Driver/src/stm32f4xx_cryp.c:527:14
	ldr.w	r2, [r12, #4]
	.loc	3 527 17 is_stmt 0      @ ../Libraries/STM32F4xx_StdPeriph_Driver/src/stm32f4xx_cryp.c:527:17
	ands	r2, r3
.Ltmp51:
	.loc	3 527 7                 @ ../Libraries/STM32F4xx_StdPeriph_Driver/src/stm32f4xx_cryp.c:527:7
	cmp	r2, #1
	bne	.LBB12_4
.Ltmp52:
@ %bb.3:
	@DEBUG_VALUE: CRYP_SaveContext:bitstatus <- $r4
	@DEBUG_VALUE: CRYP_SaveContext:ckeckmask <- $r3
	@DEBUG_VALUE: CRYP_SaveContext:CRYP_KeyInitStruct <- $r1
	@DEBUG_VALUE: CRYP_SaveContext:CRYP_ContextSave <- $r0
	.loc	3 537 17 is_stmt 1      @ ../Libraries/STM32F4xx_StdPeriph_Driver/src/stm32f4xx_cryp.c:537:17
	ldr.w	r2, [r12, #16]
	movw	r3, #1020
.Ltmp53:
	.loc	3 0 17 is_stmt 0        @ ../Libraries/STM32F4xx_StdPeriph_Driver/src/stm32f4xx_cryp.c:0:17
	movt	r3, #11
	.loc	3 537 17                @ ../Libraries/STM32F4xx_StdPeriph_Driver/src/stm32f4xx_cryp.c:537:17
	bic	r2, r2, #2
	str.w	r2, [r12, #16]
	.loc	3 538 14 is_stmt 1      @ ../Libraries/STM32F4xx_StdPeriph_Driver/src/stm32f4xx_cryp.c:538:14
	ldr.w	r2, [r12]
	bic	r2, r2, #32768
	str.w	r2, [r12]
	.loc	3 541 49                @ ../Libraries/STM32F4xx_StdPeriph_Driver/src/stm32f4xx_cryp.c:541:49
	ldr.w	r2, [r12]
	.loc	3 541 52 is_stmt 0      @ ../Libraries/STM32F4xx_StdPeriph_Driver/src/stm32f4xx_cryp.c:541:52
	ands	r2, r3
	.loc	3 541 41                @ ../Libraries/STM32F4xx_StdPeriph_Driver/src/stm32f4xx_cryp.c:541:41
	str	r2, [r0]
	.loc	3 548 42 is_stmt 1      @ ../Libraries/STM32F4xx_StdPeriph_Driver/src/stm32f4xx_cryp.c:548:42
	ldr.w	r2, [r12, #64]
	.loc	3 548 34 is_stmt 0      @ ../Libraries/STM32F4xx_StdPeriph_Driver/src/stm32f4xx_cryp.c:548:34
	str	r2, [r0, #4]
	.loc	3 549 42 is_stmt 1      @ ../Libraries/STM32F4xx_StdPeriph_Driver/src/stm32f4xx_cryp.c:549:42
	ldr.w	r2, [r12, #68]
	.loc	3 549 34 is_stmt 0      @ ../Libraries/STM32F4xx_StdPeriph_Driver/src/stm32f4xx_cryp.c:549:34
	str	r2, [r0, #8]
	.loc	3 550 42 is_stmt 1      @ ../Libraries/STM32F4xx_StdPeriph_Driver/src/stm32f4xx_cryp.c:550:42
	ldr.w	r2, [r12, #72]
	.loc	3 550 34 is_stmt 0      @ ../Libraries/STM32F4xx_StdPeriph_Driver/src/stm32f4xx_cryp.c:550:34
	str	r2, [r0, #12]
	.loc	3 551 42 is_stmt 1      @ ../Libraries/STM32F4xx_StdPeriph_Driver/src/stm32f4xx_cryp.c:551:42
	ldr.w	r2, [r12, #76]
	.loc	3 551 34 is_stmt 0      @ ../Libraries/STM32F4xx_StdPeriph_Driver/src/stm32f4xx_cryp.c:551:34
	str	r2, [r0, #16]
	.loc	3 554 55 is_stmt 1      @ ../Libraries/STM32F4xx_StdPeriph_Driver/src/stm32f4xx_cryp.c:554:55
	ldr	r2, [r1]
	.loc	3 554 33 is_stmt 0      @ ../Libraries/STM32F4xx_StdPeriph_Driver/src/stm32f4xx_cryp.c:554:33
	str	r2, [r0, #20]
	.loc	3 555 55 is_stmt 1      @ ../Libraries/STM32F4xx_StdPeriph_Driver/src/stm32f4xx_cryp.c:555:55
	ldr	r2, [r1, #4]
	.loc	3 555 33 is_stmt 0      @ ../Libraries/STM32F4xx_StdPeriph_Driver/src/stm32f4xx_cryp.c:555:33
	str	r2, [r0, #24]
	.loc	3 556 55 is_stmt 1      @ ../Libraries/STM32F4xx_StdPeriph_Driver/src/stm32f4xx_cryp.c:556:55
	ldr	r2, [r1, #8]
	.loc	3 556 33 is_stmt 0      @ ../Libraries/STM32F4xx_StdPeriph_Driver/src/stm32f4xx_cryp.c:556:33
	str	r2, [r0, #28]
	.loc	3 557 55 is_stmt 1      @ ../Libraries/STM32F4xx_StdPeriph_Driver/src/stm32f4xx_cryp.c:557:55
	ldr	r2, [r1, #12]
	.loc	3 557 33 is_stmt 0      @ ../Libraries/STM32F4xx_StdPeriph_Driver/src/stm32f4xx_cryp.c:557:33
	str	r2, [r0, #32]
	.loc	3 558 55 is_stmt 1      @ ../Libraries/STM32F4xx_StdPeriph_Driver/src/stm32f4xx_cryp.c:558:55
	ldr	r2, [r1, #16]
	.loc	3 558 33 is_stmt 0      @ ../Libraries/STM32F4xx_StdPeriph_Driver/src/stm32f4xx_cryp.c:558:33
	str	r2, [r0, #36]
	.loc	3 559 55 is_stmt 1      @ ../Libraries/STM32F4xx_StdPeriph_Driver/src/stm32f4xx_cryp.c:559:55
	ldr	r2, [r1, #20]
	.loc	3 559 33 is_stmt 0      @ ../Libraries/STM32F4xx_StdPeriph_Driver/src/stm32f4xx_cryp.c:559:33
	str	r2, [r0, #40]
	.loc	3 560 55 is_stmt 1      @ ../Libraries/STM32F4xx_StdPeriph_Driver/src/stm32f4xx_cryp.c:560:55
	ldr	r2, [r1, #24]
	.loc	3 560 33 is_stmt 0      @ ../Libraries/STM32F4xx_StdPeriph_Driver/src/stm32f4xx_cryp.c:560:33
	str	r2, [r0, #44]
	.loc	3 561 55 is_stmt 1      @ ../Libraries/STM32F4xx_StdPeriph_Driver/src/stm32f4xx_cryp.c:561:55
	ldr	r1, [r1, #28]
.Ltmp54:
	.loc	3 561 33 is_stmt 0      @ ../Libraries/STM32F4xx_StdPeriph_Driver/src/stm32f4xx_cryp.c:561:33
	str	r1, [r0, #48]
	.loc	3 564 49 is_stmt 1      @ ../Libraries/STM32F4xx_StdPeriph_Driver/src/stm32f4xx_cryp.c:564:49
	ldr.w	r1, [r12, #80]
	.loc	3 564 41 is_stmt 0      @ ../Libraries/STM32F4xx_StdPeriph_Driver/src/stm32f4xx_cryp.c:564:41
	str	r1, [r0, #52]
	.loc	3 565 49 is_stmt 1      @ ../Libraries/STM32F4xx_StdPeriph_Driver/src/stm32f4xx_cryp.c:565:49
	ldr.w	r1, [r12, #84]
	.loc	3 565 41 is_stmt 0      @ ../Libraries/STM32F4xx_StdPeriph_Driver/src/stm32f4xx_cryp.c:565:41
	str	r1, [r0, #56]
	.loc	3 566 49 is_stmt 1      @ ../Libraries/STM32F4xx_StdPeriph_Driver/src/stm32f4xx_cryp.c:566:49
	ldr.w	r1, [r12, #88]
	.loc	3 566 41 is_stmt 0      @ ../Libraries/STM32F4xx_StdPeriph_Driver/src/stm32f4xx_cryp.c:566:41
	str	r1, [r0, #60]
	.loc	3 567 49 is_stmt 1      @ ../Libraries/STM32F4xx_StdPeriph_Driver/src/stm32f4xx_cryp.c:567:49
	ldr.w	r1, [r12, #92]
	.loc	3 567 41 is_stmt 0      @ ../Libraries/STM32F4xx_StdPeriph_Driver/src/stm32f4xx_cryp.c:567:41
	str	r1, [r0, #64]
	.loc	3 568 49 is_stmt 1      @ ../Libraries/STM32F4xx_StdPeriph_Driver/src/stm32f4xx_cryp.c:568:49
	ldr.w	r1, [r12, #96]
	.loc	3 568 41 is_stmt 0      @ ../Libraries/STM32F4xx_StdPeriph_Driver/src/stm32f4xx_cryp.c:568:41
	str	r1, [r0, #68]
	.loc	3 569 49 is_stmt 1      @ ../Libraries/STM32F4xx_StdPeriph_Driver/src/stm32f4xx_cryp.c:569:49
	ldr.w	r1, [r12, #100]
	.loc	3 569 41 is_stmt 0      @ ../Libraries/STM32F4xx_StdPeriph_Driver/src/stm32f4xx_cryp.c:569:41
	str	r1, [r0, #72]
	.loc	3 570 49 is_stmt 1      @ ../Libraries/STM32F4xx_StdPeriph_Driver/src/stm32f4xx_cryp.c:570:49
	ldr.w	r1, [r12, #104]
	.loc	3 570 41 is_stmt 0      @ ../Libraries/STM32F4xx_StdPeriph_Driver/src/stm32f4xx_cryp.c:570:41
	str	r1, [r0, #76]
	.loc	3 571 49 is_stmt 1      @ ../Libraries/STM32F4xx_StdPeriph_Driver/src/stm32f4xx_cryp.c:571:49
	ldr.w	r1, [r12, #108]
	.loc	3 571 41 is_stmt 0      @ ../Libraries/STM32F4xx_StdPeriph_Driver/src/stm32f4xx_cryp.c:571:41
	str	r1, [r0, #80]
	.loc	3 573 46 is_stmt 1      @ ../Libraries/STM32F4xx_StdPeriph_Driver/src/stm32f4xx_cryp.c:573:46
	ldr.w	r1, [r12, #112]
	.loc	3 573 38 is_stmt 0      @ ../Libraries/STM32F4xx_StdPeriph_Driver/src/stm32f4xx_cryp.c:573:38
	str	r1, [r0, #84]
	.loc	3 574 46 is_stmt 1      @ ../Libraries/STM32F4xx_StdPeriph_Driver/src/stm32f4xx_cryp.c:574:46
	ldr.w	r1, [r12, #116]
	.loc	3 574 38 is_stmt 0      @ ../Libraries/STM32F4xx_StdPeriph_Driver/src/stm32f4xx_cryp.c:574:38
	str	r1, [r0, #88]
	.loc	3 575 46 is_stmt 1      @ ../Libraries/STM32F4xx_StdPeriph_Driver/src/stm32f4xx_cryp.c:575:46
	ldr.w	r1, [r12, #120]
	.loc	3 575 38 is_stmt 0      @ ../Libraries/STM32F4xx_StdPeriph_Driver/src/stm32f4xx_cryp.c:575:38
	str	r1, [r0, #92]
	.loc	3 576 46 is_stmt 1      @ ../Libraries/STM32F4xx_StdPeriph_Driver/src/stm32f4xx_cryp.c:576:46
	ldr.w	r1, [r12, #124]
	.loc	3 576 38 is_stmt 0      @ ../Libraries/STM32F4xx_StdPeriph_Driver/src/stm32f4xx_cryp.c:576:38
	str	r1, [r0, #96]
	.loc	3 577 46 is_stmt 1      @ ../Libraries/STM32F4xx_StdPeriph_Driver/src/stm32f4xx_cryp.c:577:46
	ldr.w	r1, [r12, #128]
	.loc	3 577 38 is_stmt 0      @ ../Libraries/STM32F4xx_StdPeriph_Driver/src/stm32f4xx_cryp.c:577:38
	str	r1, [r0, #100]
	.loc	3 578 46 is_stmt 1      @ ../Libraries/STM32F4xx_StdPeriph_Driver/src/stm32f4xx_cryp.c:578:46
	ldr.w	r1, [r12, #132]
	.loc	3 578 38 is_stmt 0      @ ../Libraries/STM32F4xx_StdPeriph_Driver/src/stm32f4xx_cryp.c:578:38
	str	r1, [r0, #104]
	.loc	3 579 46 is_stmt 1      @ ../Libraries/STM32F4xx_StdPeriph_Driver/src/stm32f4xx_cryp.c:579:46
	ldr.w	r1, [r12, #136]
	.loc	3 579 38 is_stmt 0      @ ../Libraries/STM32F4xx_StdPeriph_Driver/src/stm32f4xx_cryp.c:579:38
	str	r1, [r0, #108]
	.loc	3 580 46 is_stmt 1      @ ../Libraries/STM32F4xx_StdPeriph_Driver/src/stm32f4xx_cryp.c:580:46
	ldr.w	r1, [r12, #140]
	.loc	3 580 38 is_stmt 0      @ ../Libraries/STM32F4xx_StdPeriph_Driver/src/stm32f4xx_cryp.c:580:38
	str	r1, [r0, #112]
	movs	r0, #1
.Ltmp55:
	@DEBUG_VALUE: CRYP_SaveContext:status <- 1
	.loc	3 0 38                  @ ../Libraries/STM32F4xx_StdPeriph_Driver/src/stm32f4xx_cryp.c:0:38
	b	.LBB12_5
.Ltmp56:
.LBB12_4:
	@DEBUG_VALUE: CRYP_SaveContext:bitstatus <- $r4
	@DEBUG_VALUE: CRYP_SaveContext:ckeckmask <- $r3
	@DEBUG_VALUE: CRYP_SaveContext:CRYP_KeyInitStruct <- $r1
	@DEBUG_VALUE: CRYP_SaveContext:CRYP_ContextSave <- $r0
	movs	r0, #0
.Ltmp57:
.LBB12_5:
	@DEBUG_VALUE: CRYP_SaveContext:bitstatus <- $r4
	@DEBUG_VALUE: CRYP_SaveContext:status <- $r0
	.loc	3 588 4 is_stmt 1       @ ../Libraries/STM32F4xx_StdPeriph_Driver/src/stm32f4xx_cryp.c:588:4
	add	sp, #4
	pop	{r4, pc}
.Ltmp58:
.Lfunc_end12:
	.size	CRYP_SaveContext, .Lfunc_end12-CRYP_SaveContext
	.cfi_endproc
	.cantunwind
	.fnend
                                        @ -- End function
	.section	.text.CRYP_RestoreContext,"ax",%progbits
	.hidden	CRYP_RestoreContext     @ -- Begin function CRYP_RestoreContext
	.globl	CRYP_RestoreContext
	.p2align	1
	.type	CRYP_RestoreContext,%function
	.code	16                      @ @CRYP_RestoreContext
	.thumb_func
CRYP_RestoreContext:
.Lfunc_begin13:
	.loc	3 603 0                 @ ../Libraries/STM32F4xx_StdPeriph_Driver/src/stm32f4xx_cryp.c:603:0
	.fnstart
	.cfi_startproc
@ %bb.0:
	@DEBUG_VALUE: CRYP_RestoreContext:CRYP_ContextRestore <- $r0
	@DEBUG_VALUE: CRYP_RestoreContext:CRYP_ContextRestore <- $r0
	movs	r1, #0
.Ltmp59:
	.loc	3 606 35 prologue_end   @ ../Libraries/STM32F4xx_StdPeriph_Driver/src/stm32f4xx_cryp.c:606:35
	ldr	r2, [r0]
	movt	r1, #20486
	.loc	3 606 12 is_stmt 0      @ ../Libraries/STM32F4xx_StdPeriph_Driver/src/stm32f4xx_cryp.c:606:12
	str	r2, [r1]
	.loc	3 609 37 is_stmt 1      @ ../Libraries/STM32F4xx_StdPeriph_Driver/src/stm32f4xx_cryp.c:609:37
	ldr	r2, [r0, #20]
	.loc	3 609 14 is_stmt 0      @ ../Libraries/STM32F4xx_StdPeriph_Driver/src/stm32f4xx_cryp.c:609:14
	str	r2, [r1, #32]
	.loc	3 610 37 is_stmt 1      @ ../Libraries/STM32F4xx_StdPeriph_Driver/src/stm32f4xx_cryp.c:610:37
	ldr	r2, [r0, #24]
	.loc	3 610 14 is_stmt 0      @ ../Libraries/STM32F4xx_StdPeriph_Driver/src/stm32f4xx_cryp.c:610:14
	str	r2, [r1, #36]
	.loc	3 611 37 is_stmt 1      @ ../Libraries/STM32F4xx_StdPeriph_Driver/src/stm32f4xx_cryp.c:611:37
	ldr	r2, [r0, #28]
	.loc	3 611 14 is_stmt 0      @ ../Libraries/STM32F4xx_StdPeriph_Driver/src/stm32f4xx_cryp.c:611:14
	str	r2, [r1, #40]
	.loc	3 612 37 is_stmt 1      @ ../Libraries/STM32F4xx_StdPeriph_Driver/src/stm32f4xx_cryp.c:612:37
	ldr	r2, [r0, #32]
	.loc	3 612 14 is_stmt 0      @ ../Libraries/STM32F4xx_StdPeriph_Driver/src/stm32f4xx_cryp.c:612:14
	str	r2, [r1, #44]
	.loc	3 613 37 is_stmt 1      @ ../Libraries/STM32F4xx_StdPeriph_Driver/src/stm32f4xx_cryp.c:613:37
	ldr	r2, [r0, #36]
	.loc	3 613 14 is_stmt 0      @ ../Libraries/STM32F4xx_StdPeriph_Driver/src/stm32f4xx_cryp.c:613:14
	str	r2, [r1, #48]
	.loc	3 614 37 is_stmt 1      @ ../Libraries/STM32F4xx_StdPeriph_Driver/src/stm32f4xx_cryp.c:614:37
	ldr	r2, [r0, #40]
	.loc	3 614 14 is_stmt 0      @ ../Libraries/STM32F4xx_StdPeriph_Driver/src/stm32f4xx_cryp.c:614:14
	str	r2, [r1, #52]
	.loc	3 615 37 is_stmt 1      @ ../Libraries/STM32F4xx_StdPeriph_Driver/src/stm32f4xx_cryp.c:615:37
	ldr	r2, [r0, #44]
	.loc	3 615 14 is_stmt 0      @ ../Libraries/STM32F4xx_StdPeriph_Driver/src/stm32f4xx_cryp.c:615:14
	str	r2, [r1, #56]
	.loc	3 616 37 is_stmt 1      @ ../Libraries/STM32F4xx_StdPeriph_Driver/src/stm32f4xx_cryp.c:616:37
	ldr	r2, [r0, #48]
	.loc	3 616 14 is_stmt 0      @ ../Libraries/STM32F4xx_StdPeriph_Driver/src/stm32f4xx_cryp.c:616:14
	str	r2, [r1, #60]
	.loc	3 619 38 is_stmt 1      @ ../Libraries/STM32F4xx_StdPeriph_Driver/src/stm32f4xx_cryp.c:619:38
	ldr	r2, [r0, #4]
	.loc	3 619 15 is_stmt 0      @ ../Libraries/STM32F4xx_StdPeriph_Driver/src/stm32f4xx_cryp.c:619:15
	str	r2, [r1, #64]
	.loc	3 620 38 is_stmt 1      @ ../Libraries/STM32F4xx_StdPeriph_Driver/src/stm32f4xx_cryp.c:620:38
	ldr	r2, [r0, #8]
	.loc	3 620 15 is_stmt 0      @ ../Libraries/STM32F4xx_StdPeriph_Driver/src/stm32f4xx_cryp.c:620:15
	str	r2, [r1, #68]
	.loc	3 621 38 is_stmt 1      @ ../Libraries/STM32F4xx_StdPeriph_Driver/src/stm32f4xx_cryp.c:621:38
	ldr	r2, [r0, #12]
	.loc	3 621 15 is_stmt 0      @ ../Libraries/STM32F4xx_StdPeriph_Driver/src/stm32f4xx_cryp.c:621:15
	str	r2, [r1, #72]
	.loc	3 622 38 is_stmt 1      @ ../Libraries/STM32F4xx_StdPeriph_Driver/src/stm32f4xx_cryp.c:622:38
	ldr	r2, [r0, #16]
	.loc	3 622 15 is_stmt 0      @ ../Libraries/STM32F4xx_StdPeriph_Driver/src/stm32f4xx_cryp.c:622:15
	str	r2, [r1, #76]
	.loc	3 625 22 is_stmt 1      @ ../Libraries/STM32F4xx_StdPeriph_Driver/src/stm32f4xx_cryp.c:625:22
	ldr	r2, [r0, #52]
	.loc	3 625 20 is_stmt 0      @ ../Libraries/STM32F4xx_StdPeriph_Driver/src/stm32f4xx_cryp.c:625:20
	str	r2, [r1, #80]
	.loc	3 626 22 is_stmt 1      @ ../Libraries/STM32F4xx_StdPeriph_Driver/src/stm32f4xx_cryp.c:626:22
	ldr	r2, [r0, #56]
	.loc	3 626 20 is_stmt 0      @ ../Libraries/STM32F4xx_StdPeriph_Driver/src/stm32f4xx_cryp.c:626:20
	str	r2, [r1, #84]
	.loc	3 627 22 is_stmt 1      @ ../Libraries/STM32F4xx_StdPeriph_Driver/src/stm32f4xx_cryp.c:627:22
	ldr	r2, [r0, #60]
	.loc	3 627 20 is_stmt 0      @ ../Libraries/STM32F4xx_StdPeriph_Driver/src/stm32f4xx_cryp.c:627:20
	str	r2, [r1, #88]
	.loc	3 628 22 is_stmt 1      @ ../Libraries/STM32F4xx_StdPeriph_Driver/src/stm32f4xx_cryp.c:628:22
	ldr	r2, [r0, #64]
	.loc	3 628 20 is_stmt 0      @ ../Libraries/STM32F4xx_StdPeriph_Driver/src/stm32f4xx_cryp.c:628:20
	str	r2, [r1, #92]
	.loc	3 629 22 is_stmt 1      @ ../Libraries/STM32F4xx_StdPeriph_Driver/src/stm32f4xx_cryp.c:629:22
	ldr	r2, [r0, #68]
	.loc	3 629 20 is_stmt 0      @ ../Libraries/STM32F4xx_StdPeriph_Driver/src/stm32f4xx_cryp.c:629:20
	str	r2, [r1, #96]
	.loc	3 630 22 is_stmt 1      @ ../Libraries/STM32F4xx_StdPeriph_Driver/src/stm32f4xx_cryp.c:630:22
	ldr	r2, [r0, #72]
	.loc	3 630 20 is_stmt 0      @ ../Libraries/STM32F4xx_StdPeriph_Driver/src/stm32f4xx_cryp.c:630:20
	str	r2, [r1, #100]
	.loc	3 631 22 is_stmt 1      @ ../Libraries/STM32F4xx_StdPeriph_Driver/src/stm32f4xx_cryp.c:631:22
	ldr	r2, [r0, #76]
	.loc	3 631 20 is_stmt 0      @ ../Libraries/STM32F4xx_StdPeriph_Driver/src/stm32f4xx_cryp.c:631:20
	str	r2, [r1, #104]
	.loc	3 632 22 is_stmt 1      @ ../Libraries/STM32F4xx_StdPeriph_Driver/src/stm32f4xx_cryp.c:632:22
	ldr	r2, [r0, #80]
	.loc	3 632 20 is_stmt 0      @ ../Libraries/STM32F4xx_StdPeriph_Driver/src/stm32f4xx_cryp.c:632:20
	str	r2, [r1, #108]
	.loc	3 634 19 is_stmt 1      @ ../Libraries/STM32F4xx_StdPeriph_Driver/src/stm32f4xx_cryp.c:634:19
	ldr	r2, [r0, #84]
	.loc	3 634 17 is_stmt 0      @ ../Libraries/STM32F4xx_StdPeriph_Driver/src/stm32f4xx_cryp.c:634:17
	str	r2, [r1, #112]
	.loc	3 635 19 is_stmt 1      @ ../Libraries/STM32F4xx_StdPeriph_Driver/src/stm32f4xx_cryp.c:635:19
	ldr	r2, [r0, #88]
	.loc	3 635 17 is_stmt 0      @ ../Libraries/STM32F4xx_StdPeriph_Driver/src/stm32f4xx_cryp.c:635:17
	str	r2, [r1, #116]
	.loc	3 636 19 is_stmt 1      @ ../Libraries/STM32F4xx_StdPeriph_Driver/src/stm32f4xx_cryp.c:636:19
	ldr	r2, [r0, #92]
	.loc	3 636 17 is_stmt 0      @ ../Libraries/STM32F4xx_StdPeriph_Driver/src/stm32f4xx_cryp.c:636:17
	str	r2, [r1, #120]
	.loc	3 637 19 is_stmt 1      @ ../Libraries/STM32F4xx_StdPeriph_Driver/src/stm32f4xx_cryp.c:637:19
	ldr	r2, [r0, #96]
	.loc	3 637 17 is_stmt 0      @ ../Libraries/STM32F4xx_StdPeriph_Driver/src/stm32f4xx_cryp.c:637:17
	str	r2, [r1, #124]
	.loc	3 638 19 is_stmt 1      @ ../Libraries/STM32F4xx_StdPeriph_Driver/src/stm32f4xx_cryp.c:638:19
	ldr	r2, [r0, #100]
	.loc	3 638 17 is_stmt 0      @ ../Libraries/STM32F4xx_StdPeriph_Driver/src/stm32f4xx_cryp.c:638:17
	str.w	r2, [r1, #128]
	.loc	3 639 19 is_stmt 1      @ ../Libraries/STM32F4xx_StdPeriph_Driver/src/stm32f4xx_cryp.c:639:19
	ldr	r2, [r0, #104]
	.loc	3 639 17 is_stmt 0      @ ../Libraries/STM32F4xx_StdPeriph_Driver/src/stm32f4xx_cryp.c:639:17
	str.w	r2, [r1, #132]
	.loc	3 640 19 is_stmt 1      @ ../Libraries/STM32F4xx_StdPeriph_Driver/src/stm32f4xx_cryp.c:640:19
	ldr	r2, [r0, #108]
	.loc	3 640 17 is_stmt 0      @ ../Libraries/STM32F4xx_StdPeriph_Driver/src/stm32f4xx_cryp.c:640:17
	str.w	r2, [r1, #136]
	.loc	3 641 19 is_stmt 1      @ ../Libraries/STM32F4xx_StdPeriph_Driver/src/stm32f4xx_cryp.c:641:19
	ldr	r0, [r0, #112]
.Ltmp60:
	.loc	3 641 17 is_stmt 0      @ ../Libraries/STM32F4xx_StdPeriph_Driver/src/stm32f4xx_cryp.c:641:17
	str.w	r0, [r1, #140]
	.loc	3 644 12 is_stmt 1      @ ../Libraries/STM32F4xx_StdPeriph_Driver/src/stm32f4xx_cryp.c:644:12
	ldr	r0, [r1]
	orr	r0, r0, #32768
	str	r0, [r1]
	.loc	3 645 1                 @ ../Libraries/STM32F4xx_StdPeriph_Driver/src/stm32f4xx_cryp.c:645:1
	bx	lr
.Ltmp61:
.Lfunc_end13:
	.size	CRYP_RestoreContext, .Lfunc_end13-CRYP_RestoreContext
	.cfi_endproc
	.cantunwind
	.fnend
                                        @ -- End function
	.section	.text.CRYP_DMACmd,"ax",%progbits
	.hidden	CRYP_DMACmd             @ -- Begin function CRYP_DMACmd
	.globl	CRYP_DMACmd
	.p2align	1
	.type	CRYP_DMACmd,%function
	.code	16                      @ @CRYP_DMACmd
	.thumb_func
CRYP_DMACmd:
.Lfunc_begin14:
	.loc	3 682 0                 @ ../Libraries/STM32F4xx_StdPeriph_Driver/src/stm32f4xx_cryp.c:682:0
	.fnstart
	.cfi_startproc
@ %bb.0:
	@DEBUG_VALUE: CRYP_DMACmd:CRYP_DMAReq <- $r0
	@DEBUG_VALUE: CRYP_DMACmd:NewState <- $r1
	movs	r2, #16
.Ltmp62:
	.loc	3 687 7 prologue_end    @ ../Libraries/STM32F4xx_StdPeriph_Driver/src/stm32f4xx_cryp.c:687:7
	cmp	r1, #0
	movt	r2, #20486
	@DEBUG_VALUE: CRYP_DMACmd:NewState <- $r1
	@DEBUG_VALUE: CRYP_DMACmd:CRYP_DMAReq <- $r0
.Ltmp63:
	.loc	3 695 17                @ ../Libraries/STM32F4xx_StdPeriph_Driver/src/stm32f4xx_cryp.c:695:17
	ldr	r1, [r2]
.Ltmp64:
	.loc	3 695 20 is_stmt 0      @ ../Libraries/STM32F4xx_StdPeriph_Driver/src/stm32f4xx_cryp.c:695:20
	itte	eq
	eoreq	r0, r0, #255
.Ltmp65:
	.loc	3 695 17                @ ../Libraries/STM32F4xx_StdPeriph_Driver/src/stm32f4xx_cryp.c:695:17
	andeq	r0, r1
.Ltmp66:
	.loc	3 690 17 is_stmt 1      @ ../Libraries/STM32F4xx_StdPeriph_Driver/src/stm32f4xx_cryp.c:690:17
	orrne	r0, r1
.Ltmp67:
	.loc	3 0 0 is_stmt 0         @ ../Libraries/STM32F4xx_StdPeriph_Driver/src/stm32f4xx_cryp.c:0:0
	str	r0, [r2]
.Ltmp68:
	.loc	3 697 1 is_stmt 1       @ ../Libraries/STM32F4xx_StdPeriph_Driver/src/stm32f4xx_cryp.c:697:1
	bx	lr
.Ltmp69:
.Lfunc_end14:
	.size	CRYP_DMACmd, .Lfunc_end14-CRYP_DMACmd
	.cfi_endproc
	.cantunwind
	.fnend
                                        @ -- End function
	.section	.text.CRYP_ITConfig,"ax",%progbits
	.hidden	CRYP_ITConfig           @ -- Begin function CRYP_ITConfig
	.globl	CRYP_ITConfig
	.p2align	1
	.type	CRYP_ITConfig,%function
	.code	16                      @ @CRYP_ITConfig
	.thumb_func
CRYP_ITConfig:
.Lfunc_begin15:
	.loc	3 800 0                 @ ../Libraries/STM32F4xx_StdPeriph_Driver/src/stm32f4xx_cryp.c:800:0
	.fnstart
	.cfi_startproc
@ %bb.0:
	@DEBUG_VALUE: CRYP_ITConfig:CRYP_IT <- $r0
	@DEBUG_VALUE: CRYP_ITConfig:NewState <- $r1
	movs	r2, #20
.Ltmp70:
	.loc	3 805 7 prologue_end    @ ../Libraries/STM32F4xx_StdPeriph_Driver/src/stm32f4xx_cryp.c:805:7
	cmp	r1, #0
	movt	r2, #20486
	@DEBUG_VALUE: CRYP_ITConfig:NewState <- $r1
	@DEBUG_VALUE: CRYP_ITConfig:CRYP_IT <- $r0
.Ltmp71:
	.loc	3 813 17                @ ../Libraries/STM32F4xx_StdPeriph_Driver/src/stm32f4xx_cryp.c:813:17
	ldr	r1, [r2]
.Ltmp72:
	.loc	3 813 20 is_stmt 0      @ ../Libraries/STM32F4xx_StdPeriph_Driver/src/stm32f4xx_cryp.c:813:20
	itte	eq
	eoreq	r0, r0, #255
.Ltmp73:
	.loc	3 813 17                @ ../Libraries/STM32F4xx_StdPeriph_Driver/src/stm32f4xx_cryp.c:813:17
	andeq	r0, r1
.Ltmp74:
	.loc	3 808 17 is_stmt 1      @ ../Libraries/STM32F4xx_StdPeriph_Driver/src/stm32f4xx_cryp.c:808:17
	orrne	r0, r1
.Ltmp75:
	.loc	3 0 0 is_stmt 0         @ ../Libraries/STM32F4xx_StdPeriph_Driver/src/stm32f4xx_cryp.c:0:0
	str	r0, [r2]
.Ltmp76:
	.loc	3 815 1 is_stmt 1       @ ../Libraries/STM32F4xx_StdPeriph_Driver/src/stm32f4xx_cryp.c:815:1
	bx	lr
.Ltmp77:
.Lfunc_end15:
	.size	CRYP_ITConfig, .Lfunc_end15-CRYP_ITConfig
	.cfi_endproc
	.cantunwind
	.fnend
                                        @ -- End function
	.section	.text.CRYP_GetITStatus,"ax",%progbits
	.hidden	CRYP_GetITStatus        @ -- Begin function CRYP_GetITStatus
	.globl	CRYP_GetITStatus
	.p2align	1
	.type	CRYP_GetITStatus,%function
	.code	16                      @ @CRYP_GetITStatus
	.thumb_func
CRYP_GetITStatus:
.Lfunc_begin16:
	.loc	3 828 0                 @ ../Libraries/STM32F4xx_StdPeriph_Driver/src/stm32f4xx_cryp.c:828:0
	.fnstart
	.cfi_startproc
@ %bb.0:
	@DEBUG_VALUE: CRYP_GetITStatus:CRYP_IT <- $r0
	movs	r1, #28
	movt	r1, #20486
.Ltmp78:
	@DEBUG_VALUE: CRYP_GetITStatus:bitstatus <- 0
	@DEBUG_VALUE: CRYP_GetITStatus:CRYP_IT <- $r0
	.loc	3 834 14 prologue_end   @ ../Libraries/STM32F4xx_StdPeriph_Driver/src/stm32f4xx_cryp.c:834:14
	ldr	r1, [r1]
	.loc	3 834 19 is_stmt 0      @ ../Libraries/STM32F4xx_StdPeriph_Driver/src/stm32f4xx_cryp.c:834:19
	ands	r0, r1
.Ltmp79:
	.loc	3 834 31                @ ../Libraries/STM32F4xx_StdPeriph_Driver/src/stm32f4xx_cryp.c:834:31
	it	ne
	movne	r0, #1
.Ltmp80:
	@DEBUG_VALUE: CRYP_GetITStatus:bitstatus <- undef
	.loc	3 845 3 is_stmt 1       @ ../Libraries/STM32F4xx_StdPeriph_Driver/src/stm32f4xx_cryp.c:845:3
	bx	lr
.Ltmp81:
.Lfunc_end16:
	.size	CRYP_GetITStatus, .Lfunc_end16-CRYP_GetITStatus
	.cfi_endproc
	.cantunwind
	.fnend
                                        @ -- End function
	.section	.text.CRYP_GetCmdStatus,"ax",%progbits
	.hidden	CRYP_GetCmdStatus       @ -- Begin function CRYP_GetCmdStatus
	.globl	CRYP_GetCmdStatus
	.p2align	1
	.type	CRYP_GetCmdStatus,%function
	.code	16                      @ @CRYP_GetCmdStatus
	.thumb_func
CRYP_GetCmdStatus:
.Lfunc_begin17:
	.loc	3 854 0                 @ ../Libraries/STM32F4xx_StdPeriph_Driver/src/stm32f4xx_cryp.c:854:0
	.fnstart
	.cfi_startproc
@ %bb.0:
	movs	r0, #0
	movt	r0, #20486
.Ltmp82:
	@DEBUG_VALUE: CRYP_GetCmdStatus:state <- 0
	.loc	3 857 14 prologue_end   @ ../Libraries/STM32F4xx_StdPeriph_Driver/src/stm32f4xx_cryp.c:857:14
	ldr	r0, [r0]
.Ltmp83:
	@DEBUG_VALUE: CRYP_GetCmdStatus:state <- undef
	.loc	3 867 3                 @ ../Libraries/STM32F4xx_StdPeriph_Driver/src/stm32f4xx_cryp.c:867:3
	ubfx	r0, r0, #15, #1
	bx	lr
.Ltmp84:
.Lfunc_end17:
	.size	CRYP_GetCmdStatus, .Lfunc_end17-CRYP_GetCmdStatus
	.cfi_endproc
	.cantunwind
	.fnend
                                        @ -- End function
	.section	.text.CRYP_GetFlagStatus,"ax",%progbits
	.hidden	CRYP_GetFlagStatus      @ -- Begin function CRYP_GetFlagStatus
	.globl	CRYP_GetFlagStatus
	.p2align	1
	.type	CRYP_GetFlagStatus,%function
	.code	16                      @ @CRYP_GetFlagStatus
	.thumb_func
CRYP_GetFlagStatus:
.Lfunc_begin18:
	.loc	3 884 0                 @ ../Libraries/STM32F4xx_StdPeriph_Driver/src/stm32f4xx_cryp.c:884:0
	.fnstart
	.cfi_startproc
@ %bb.0:
	@DEBUG_VALUE: CRYP_GetFlagStatus:CRYP_FLAG <- $r0
	@DEBUG_VALUE: CRYP_GetFlagStatus:CRYP_FLAG <- $r0
	@DEBUG_VALUE: CRYP_GetFlagStatus:bitstatus <- 0
	@DEBUG_VALUE: CRYP_GetFlagStatus:tempreg <- 0
	.loc	3 0 0 prologue_end      @ ../Libraries/STM32F4xx_StdPeriph_Driver/src/stm32f4xx_cryp.c:0:0
	lsls	r1, r0, #26
	movw	r1, #4
	movt	r1, #20486
	add.w	r1, r1, #20
	itt	pl
	movpl	r1, #4
	movtpl	r1, #20486
	ldr	r1, [r1]
.Ltmp85:
	@DEBUG_VALUE: CRYP_GetFlagStatus:tempreg <- $r1
	.loc	3 903 16                @ ../Libraries/STM32F4xx_StdPeriph_Driver/src/stm32f4xx_cryp.c:903:16
	ands	r0, r1
.Ltmp86:
	.loc	3 903 30 is_stmt 0      @ ../Libraries/STM32F4xx_StdPeriph_Driver/src/stm32f4xx_cryp.c:903:30
	it	ne
	movne	r0, #1
.Ltmp87:
	@DEBUG_VALUE: CRYP_GetFlagStatus:bitstatus <- undef
	.loc	3 915 3 is_stmt 1       @ ../Libraries/STM32F4xx_StdPeriph_Driver/src/stm32f4xx_cryp.c:915:3
	bx	lr
.Ltmp88:
.Lfunc_end18:
	.size	CRYP_GetFlagStatus, .Lfunc_end18-CRYP_GetFlagStatus
	.cfi_endproc
	.cantunwind
	.fnend
                                        @ -- End function
	.file	4 "F:\\SkyDrive\\OtvoreniProjekti\\HotelSaplast\\fw\\KontrolerHotela\\HC070318\\Project" "../Libraries/STM32F4xx_StdPeriph_Driver/inc\\stm32f4xx_cryp.h"
	.section	".note.GNU-stack","",%progbits
	.eabi_attribute	30, 3	@ Tag_ABI_optimization_goals
	.ARM_attribute	16, 1	@ Tag_AV_eba