	.text
	.syntax unified
	.eabi_attribute	67, "2.09"	@ Tag_conformance
	.cpu	cortex-m4
	.eabi_attribute	6, 13	@ Tag_CPU_arch
	.eabi_attribute	7, 77	@ Tag_CPU_arch_profile
	.eabi_attribute	8, 0	@ Tag_ARM_ISA_use
	.eabi_attribute	9, 2	@ Tag_THUMB_ISA_use
	.fpu	fpv4-sp-d16
	.eabi_attribute	27, 1	@ Tag_ABI_HardFP_use
	.eabi_attribute	36, 1	@ Tag_FP_HP_extension
	.eabi_attribute	34, 1	@ Tag_CPU_unaligned_access
	.eabi_attribute	17, 1	@ Tag_ABI_PCS_GOT_use
	.eabi_attribute	20, 2	@ Tag_ABI_FP_denormal
	.eabi_attribute	21, 0	@ Tag_ABI_FP_exceptions
	.eabi_attribute	23, 1	@ Tag_ABI_FP_number_model
	.eabi_attribute	24, 1	@ Tag_ABI_align_needed
	.eabi_attribute	25, 1	@ Tag_ABI_align_preserved
	.eabi_attribute	28, 1	@ Tag_ABI_VFP_args
	.eabi_attribute	38, 1	@ Tag_ABI_FP_16bit_format
	.eabi_attribute	18, 2	@ Tag_ABI_PCS_wchar_t
	.eabi_attribute	26, 1	@ Tag_ABI_enum_size
	.eabi_attribute	14, 0	@ Tag_ABI_PCS_R9_use
	.file	"stm32f4xx_usart.c"
	.file	1 "F:\\SkyDrive\\OtvoreniProjekti\\HotelSaplast\\fw\\KontrolerHotela\\HC070318\\Project" "../Libraries/CMSIS/Device/ST/STM32F4xx/Include\\stm32f4xx.h"
	.file	2 "C:\\Keil\\ARM\\ARMCLANG\\Bin\\..\\include" "stdint.h"
	.section	.text.USART_DeInit,"ax",%progbits
	.hidden	USART_DeInit            @ -- Begin function USART_DeInit
	.globl	USART_DeInit
	.p2align	1
	.type	USART_DeInit,%function
	.code	16                      @ @USART_DeInit
	.thumb_func
USART_DeInit:
.Lfunc_begin0:
	.file	3 "F:\\SkyDrive\\OtvoreniProjekti\\HotelSaplast\\fw\\KontrolerHotela\\HC070318\\Project" "../Libraries/STM32F4xx_StdPeriph_Driver/src/stm32f4xx_usart.c"
	.loc	3 188 0                 @ ../Libraries/STM32F4xx_StdPeriph_Driver/src/stm32f4xx_usart.c:188:0
	.fnstart
	.cfi_sections .debug_frame
	.cfi_startproc
@ %bb.0:
	.save	{r7, lr}
	push	{r7, lr}
	.cfi_def_cfa_offset 8
	.cfi_offset lr, -4
	.cfi_offset r7, -8
	@DEBUG_VALUE: USART_DeInit:USARTx <- $r0
	movw	r1, #30719
	movt	r1, #16384
	@DEBUG_VALUE: USART_DeInit:USARTx <- $r0
.Ltmp0:
	.loc	3 192 7 prologue_end    @ ../Libraries/STM32F4xx_StdPeriph_Driver/src/stm32f4xx_usart.c:192:7
	cmp	r0, r1
	bgt	.LBB0_5
.Ltmp1:
@ %bb.1:
	@DEBUG_VALUE: USART_DeInit:USARTx <- $r0
	.loc	3 0 7 is_stmt 0         @ ../Libraries/STM32F4xx_StdPeriph_Driver/src/stm32f4xx_usart.c:0:7
	movw	r1, #19455
	movt	r1, #16384
	.loc	3 192 7                 @ ../Libraries/STM32F4xx_StdPeriph_Driver/src/stm32f4xx_usart.c:192:7
	cmp	r0, r1
	bgt	.LBB0_9
.Ltmp2:
@ %bb.2:
	@DEBUG_VALUE: USART_DeInit:USARTx <- $r0
	.loc	3 0 7                   @ ../Libraries/STM32F4xx_StdPeriph_Driver/src/stm32f4xx_usart.c:0:7
	movw	r1, #17408
	movt	r1, #16384
	.loc	3 192 7                 @ ../Libraries/STM32F4xx_StdPeriph_Driver/src/stm32f4xx_usart.c:192:7
	cmp	r0, r1
	beq	.LBB0_14
.Ltmp3:
@ %bb.3:
	@DEBUG_VALUE: USART_DeInit:USARTx <- $r0
	.loc	3 0 7                   @ ../Libraries/STM32F4xx_StdPeriph_Driver/src/stm32f4xx_usart.c:0:7
	movw	r1, #18432
	movt	r1, #16384
	.loc	3 192 7                 @ ../Libraries/STM32F4xx_StdPeriph_Driver/src/stm32f4xx_usart.c:192:7
	cmp	r0, r1
	bne	.LBB0_20
.Ltmp4:
@ %bb.4:
	@DEBUG_VALUE: USART_DeInit:USARTx <- $r0
	.loc	3 204 5 is_stmt 1       @ ../Libraries/STM32F4xx_StdPeriph_Driver/src/stm32f4xx_usart.c:204:5
	mov.w	r0, #262144
.Ltmp5:
	movs	r1, #1
	bl	RCC_APB1PeriphResetCmd
	.loc	3 205 5                 @ ../Libraries/STM32F4xx_StdPeriph_Driver/src/stm32f4xx_usart.c:205:5
	mov.w	r0, #262144
	b	.LBB0_17
.Ltmp6:
.LBB0_5:
	@DEBUG_VALUE: USART_DeInit:USARTx <- $r0
	.loc	3 0 5 is_stmt 0         @ ../Libraries/STM32F4xx_StdPeriph_Driver/src/stm32f4xx_usart.c:0:5
	movw	r1, #4095
	movt	r1, #16385
	.loc	3 192 7 is_stmt 1       @ ../Libraries/STM32F4xx_StdPeriph_Driver/src/stm32f4xx_usart.c:192:7
	cmp	r0, r1
	bgt	.LBB0_12
.Ltmp7:
@ %bb.6:
	@DEBUG_VALUE: USART_DeInit:USARTx <- $r0
	.loc	3 0 7 is_stmt 0         @ ../Libraries/STM32F4xx_StdPeriph_Driver/src/stm32f4xx_usart.c:0:7
	movw	r1, #30720
	movt	r1, #16384
	.loc	3 192 7                 @ ../Libraries/STM32F4xx_StdPeriph_Driver/src/stm32f4xx_usart.c:192:7
	cmp	r0, r1
	beq	.LBB0_15
.Ltmp8:
@ %bb.7:
	@DEBUG_VALUE: USART_DeInit:USARTx <- $r0
	.loc	3 0 7                   @ ../Libraries/STM32F4xx_StdPeriph_Driver/src/stm32f4xx_usart.c:0:7
	movw	r1, #31744
	movt	r1, #16384
	.loc	3 192 7                 @ ../Libraries/STM32F4xx_StdPeriph_Driver/src/stm32f4xx_usart.c:192:7
	cmp	r0, r1
	bne	.LBB0_20
.Ltmp9:
@ %bb.8:
	@DEBUG_VALUE: USART_DeInit:USARTx <- $r0
	.loc	3 231 7 is_stmt 1       @ ../Libraries/STM32F4xx_StdPeriph_Driver/src/stm32f4xx_usart.c:231:7
	mov.w	r0, #-2147483648
.Ltmp10:
	movs	r1, #1
	bl	RCC_APB1PeriphResetCmd
	.loc	3 232 7                 @ ../Libraries/STM32F4xx_StdPeriph_Driver/src/stm32f4xx_usart.c:232:7
	mov.w	r0, #-2147483648
	b	.LBB0_17
.Ltmp11:
.LBB0_9:
	@DEBUG_VALUE: USART_DeInit:USARTx <- $r0
	.loc	3 0 7 is_stmt 0         @ ../Libraries/STM32F4xx_StdPeriph_Driver/src/stm32f4xx_usart.c:0:7
	movw	r1, #19456
	movt	r1, #16384
	.loc	3 192 7 is_stmt 1       @ ../Libraries/STM32F4xx_StdPeriph_Driver/src/stm32f4xx_usart.c:192:7
	cmp	r0, r1
	beq	.LBB0_16
.Ltmp12:
@ %bb.10:
	@DEBUG_VALUE: USART_DeInit:USARTx <- $r0
	.loc	3 0 7 is_stmt 0         @ ../Libraries/STM32F4xx_StdPeriph_Driver/src/stm32f4xx_usart.c:0:7
	movw	r1, #20480
	movt	r1, #16384
	.loc	3 192 7                 @ ../Libraries/STM32F4xx_StdPeriph_Driver/src/stm32f4xx_usart.c:192:7
	cmp	r0, r1
	bne	.LBB0_20
.Ltmp13:
@ %bb.11:
	@DEBUG_VALUE: USART_DeInit:USARTx <- $r0
	.loc	3 214 5 is_stmt 1       @ ../Libraries/STM32F4xx_StdPeriph_Driver/src/stm32f4xx_usart.c:214:5
	mov.w	r0, #1048576
.Ltmp14:
	movs	r1, #1
	bl	RCC_APB1PeriphResetCmd
	.loc	3 215 5                 @ ../Libraries/STM32F4xx_StdPeriph_Driver/src/stm32f4xx_usart.c:215:5
	mov.w	r0, #1048576
	b	.LBB0_17
.Ltmp15:
.LBB0_12:
	@DEBUG_VALUE: USART_DeInit:USARTx <- $r0
	.loc	3 0 5 is_stmt 0         @ ../Libraries/STM32F4xx_StdPeriph_Driver/src/stm32f4xx_usart.c:0:5
	movw	r1, #5120
	movt	r1, #16385
	.loc	3 192 7 is_stmt 1       @ ../Libraries/STM32F4xx_StdPeriph_Driver/src/stm32f4xx_usart.c:192:7
	cmp	r0, r1
	beq	.LBB0_18
.Ltmp16:
@ %bb.13:
	@DEBUG_VALUE: USART_DeInit:USARTx <- $r0
	.loc	3 0 7 is_stmt 0         @ ../Libraries/STM32F4xx_StdPeriph_Driver/src/stm32f4xx_usart.c:0:7
	movw	r1, #4096
	movt	r1, #16385
	.loc	3 192 7                 @ ../Libraries/STM32F4xx_StdPeriph_Driver/src/stm32f4xx_usart.c:192:7
	cmp	r0, r1
	.loc	3 235 1 is_stmt 1       @ ../Libraries/STM32F4xx_StdPeriph_Driver/src/stm32f4xx_usart.c:235:1
	it	ne
	popne	{r7, pc}
.Ltmp17:
	.loc	3 194 5                 @ ../Libraries/STM32F4xx_StdPeriph_Driver/src/stm32f4xx_usart.c:194:5
	movs	r0, #16
.Ltmp18:
	movs	r1, #1
	bl	RCC_APB2PeriphResetCmd
	.loc	3 195 5                 @ ../Libraries/STM32F4xx_StdPeriph_Driver/src/stm32f4xx_usart.c:195:5
	movs	r0, #16
	b	.LBB0_19
.Ltmp19:
.LBB0_14:
	@DEBUG_VALUE: USART_DeInit:USARTx <- $r0
	.loc	3 199 5                 @ ../Libraries/STM32F4xx_StdPeriph_Driver/src/stm32f4xx_usart.c:199:5
	mov.w	r0, #131072
.Ltmp20:
	movs	r1, #1
	bl	RCC_APB1PeriphResetCmd
	.loc	3 200 5                 @ ../Libraries/STM32F4xx_StdPeriph_Driver/src/stm32f4xx_usart.c:200:5
	mov.w	r0, #131072
	b	.LBB0_17
.Ltmp21:
.LBB0_15:
	@DEBUG_VALUE: USART_DeInit:USARTx <- $r0
	.loc	3 224 5                 @ ../Libraries/STM32F4xx_StdPeriph_Driver/src/stm32f4xx_usart.c:224:5
	mov.w	r0, #1073741824
.Ltmp22:
	movs	r1, #1
	bl	RCC_APB1PeriphResetCmd
	.loc	3 225 5                 @ ../Libraries/STM32F4xx_StdPeriph_Driver/src/stm32f4xx_usart.c:225:5
	mov.w	r0, #1073741824
	b	.LBB0_17
.Ltmp23:
.LBB0_16:
	@DEBUG_VALUE: USART_DeInit:USARTx <- $r0
	.loc	3 209 5                 @ ../Libraries/STM32F4xx_StdPeriph_Driver/src/stm32f4xx_usart.c:209:5
	mov.w	r0, #524288
.Ltmp24:
	movs	r1, #1
	bl	RCC_APB1PeriphResetCmd
	.loc	3 210 5                 @ ../Libraries/STM32F4xx_StdPeriph_Driver/src/stm32f4xx_usart.c:210:5
	mov.w	r0, #524288
.Ltmp25:
.LBB0_17:
	.loc	3 0 0 is_stmt 0         @ ../Libraries/STM32F4xx_StdPeriph_Driver/src/stm32f4xx_usart.c:0:0
	movs	r1, #0
	pop.w	{r7, lr}
	b	RCC_APB1PeriphResetCmd
.LBB0_18:
.Ltmp26:
	@DEBUG_VALUE: USART_DeInit:USARTx <- $r0
	.loc	3 219 5 is_stmt 1       @ ../Libraries/STM32F4xx_StdPeriph_Driver/src/stm32f4xx_usart.c:219:5
	movs	r0, #32
.Ltmp27:
	movs	r1, #1
	bl	RCC_APB2PeriphResetCmd
	.loc	3 220 5                 @ ../Libraries/STM32F4xx_StdPeriph_Driver/src/stm32f4xx_usart.c:220:5
	movs	r0, #32
.Ltmp28:
.LBB0_19:
	.loc	3 0 0 is_stmt 0         @ ../Libraries/STM32F4xx_StdPeriph_Driver/src/stm32f4xx_usart.c:0:0
	movs	r1, #0
	pop.w	{r7, lr}
	b	RCC_APB2PeriphResetCmd
.Ltmp29:
.LBB0_20:
	@DEBUG_VALUE: USART_DeInit:USARTx <- $r0
	.loc	3 235 1 is_stmt 1       @ ../Libraries/STM32F4xx_StdPeriph_Driver/src/stm32f4xx_usart.c:235:1
	pop	{r7, pc}
.Ltmp30:
.Lfunc_end0:
	.size	USART_DeInit, .Lfunc_end0-USART_DeInit
	.cfi_endproc
	.cantunwind
	.fnend
                                        @ -- End function
	.section	.text.USART_Init,"ax",%progbits
	.hidden	USART_Init              @ -- Begin function USART_Init
	.globl	USART_Init
	.p2align	1
	.type	USART_Init,%function
	.code	16                      @ @USART_Init
	.thumb_func
USART_Init:
.Lfunc_begin1:
	.loc	3 247 0                 @ ../Libraries/STM32F4xx_StdPeriph_Driver/src/stm32f4xx_usart.c:247:0
	.fnstart
	.cfi_startproc
@ %bb.0:
	.save	{r4, r5, r6, lr}
	push	{r4, r5, r6, lr}
	.cfi_def_cfa_offset 16
	.cfi_offset lr, -4
	.cfi_offset r6, -8
	.cfi_offset r5, -12
	.cfi_offset r4, -16
	.pad	#16
	sub	sp, #16
	.cfi_def_cfa_offset 32
	@DEBUG_VALUE: USART_Init:USARTx <- $r0
	@DEBUG_VALUE: USART_Init:USART_InitStruct <- $r1
	mov	r4, r0
.Ltmp31:
	@DEBUG_VALUE: USART_Init:fractionaldivider <- 0
	@DEBUG_VALUE: USART_Init:integerdivider <- 0
	@DEBUG_VALUE: USART_Init:apbclock <- 0
	@DEBUG_VALUE: USART_Init:tmpreg <- 0
	@DEBUG_VALUE: USART_Init:USART_InitStruct <- $r5
	@DEBUG_VALUE: USART_Init:USARTx <- $r4
	.loc	3 269 20 prologue_end   @ ../Libraries/STM32F4xx_StdPeriph_Driver/src/stm32f4xx_usart.c:269:20
	ldrh	r0, [r0, #16]
	mov	r5, r1
.Ltmp32:
	.loc	3 276 41                @ ../Libraries/STM32F4xx_StdPeriph_Driver/src/stm32f4xx_usart.c:276:41
	ldrh	r1, [r1, #6]
	mov	r6, sp
	.loc	3 272 10                @ ../Libraries/STM32F4xx_StdPeriph_Driver/src/stm32f4xx_usart.c:272:10
	bic	r0, r0, #12288
	.loc	3 276 10                @ ../Libraries/STM32F4xx_StdPeriph_Driver/src/stm32f4xx_usart.c:276:10
	orrs	r0, r1
	movw	r1, #59891
	.loc	3 279 15                @ ../Libraries/STM32F4xx_StdPeriph_Driver/src/stm32f4xx_usart.c:279:15
	strh	r0, [r4, #16]
	.loc	3 282 20                @ ../Libraries/STM32F4xx_StdPeriph_Driver/src/stm32f4xx_usart.c:282:20
	ldrh	r0, [r4, #12]
	.loc	3 285 10                @ ../Libraries/STM32F4xx_StdPeriph_Driver/src/stm32f4xx_usart.c:285:10
	ands	r0, r1
	.loc	3 291 41                @ ../Libraries/STM32F4xx_StdPeriph_Driver/src/stm32f4xx_usart.c:291:41
	ldrh	r1, [r5, #4]
	.loc	3 291 58 is_stmt 0      @ ../Libraries/STM32F4xx_StdPeriph_Driver/src/stm32f4xx_usart.c:291:58
	orrs	r0, r1
	.loc	3 291 78                @ ../Libraries/STM32F4xx_StdPeriph_Driver/src/stm32f4xx_usart.c:291:78
	ldrh	r1, [r5, #8]
	.loc	3 291 91                @ ../Libraries/STM32F4xx_StdPeriph_Driver/src/stm32f4xx_usart.c:291:91
	orrs	r0, r1
	.loc	3 292 31 is_stmt 1      @ ../Libraries/STM32F4xx_StdPeriph_Driver/src/stm32f4xx_usart.c:292:31
	ldrh	r1, [r5, #10]
	.loc	3 291 10                @ ../Libraries/STM32F4xx_StdPeriph_Driver/src/stm32f4xx_usart.c:291:10
	orrs	r0, r1
	.loc	3 295 15                @ ../Libraries/STM32F4xx_StdPeriph_Driver/src/stm32f4xx_usart.c:295:15
	strh	r0, [r4, #12]
	.loc	3 298 20                @ ../Libraries/STM32F4xx_StdPeriph_Driver/src/stm32f4xx_usart.c:298:20
	ldrh	r0, [r4, #20]
	.loc	3 305 31                @ ../Libraries/STM32F4xx_StdPeriph_Driver/src/stm32f4xx_usart.c:305:31
	ldrh	r1, [r5, #12]
	.loc	3 301 10                @ ../Libraries/STM32F4xx_StdPeriph_Driver/src/stm32f4xx_usart.c:301:10
	bic	r0, r0, #768
	.loc	3 305 10                @ ../Libraries/STM32F4xx_StdPeriph_Driver/src/stm32f4xx_usart.c:305:10
	orrs	r0, r1
	.loc	3 308 15                @ ../Libraries/STM32F4xx_StdPeriph_Driver/src/stm32f4xx_usart.c:308:15
	strh	r0, [r4, #20]
.Ltmp33:
	@DEBUG_VALUE: USART_Init:RCC_ClocksStatus <- [DW_OP_deref] $sp
	.loc	3 312 3                 @ ../Libraries/STM32F4xx_StdPeriph_Driver/src/stm32f4xx_usart.c:312:3
	mov	r0, r6
	bl	RCC_GetClocksFreq
	movw	r1, #5120
.Ltmp34:
	.loc	3 314 26                @ ../Libraries/STM32F4xx_StdPeriph_Driver/src/stm32f4xx_usart.c:314:26
	orr	r0, r4, #1024
	movs	r2, #2
	movt	r1, #16385
	cmp	r0, r1
.Ltmp35:
	.loc	3 320 33                @ ../Libraries/STM32F4xx_StdPeriph_Driver/src/stm32f4xx_usart.c:320:33
	ite	ne
	addne.w	r0, r6, #8
.Ltmp36:
	.loc	3 316 33                @ ../Libraries/STM32F4xx_StdPeriph_Driver/src/stm32f4xx_usart.c:316:33
	addeq.w	r0, r6, #12
	movs	r1, #25
	movs	r6, #4
.Ltmp37:
	.loc	3 0 0 is_stmt 0         @ ../Libraries/STM32F4xx_StdPeriph_Driver/src/stm32f4xx_usart.c:0:0
	ldr	r0, [r0]
.Ltmp38:
	@DEBUG_VALUE: USART_Init:apbclock <- $r0
	muls	r0, r1, r0
.Ltmp39:
	.loc	3 324 16 is_stmt 1      @ ../Libraries/STM32F4xx_StdPeriph_Driver/src/stm32f4xx_usart.c:324:16
	ldrsh.w	r1, [r4, #12]
.Ltmp40:
	.loc	3 324 7 is_stmt 0       @ ../Libraries/STM32F4xx_StdPeriph_Driver/src/stm32f4xx_usart.c:324:7
	cmp	r1, #0
	it	lt
	movlt	r2, #1
.Ltmp41:
	.loc	3 0 0                   @ ../Libraries/STM32F4xx_StdPeriph_Driver/src/stm32f4xx_usart.c:0:0
	ldr	r1, [r5]
.Ltmp42:
	.loc	3 324 7                 @ ../Libraries/STM32F4xx_StdPeriph_Driver/src/stm32f4xx_usart.c:324:7
	lsls	r1, r2
.Ltmp43:
	.loc	3 0 0                   @ ../Libraries/STM32F4xx_StdPeriph_Driver/src/stm32f4xx_usart.c:0:0
	udiv	r0, r0, r1
.Ltmp44:
	@DEBUG_VALUE: USART_Init:integerdivider <- $r0
	movw	r1, #34079
	movt	r1, #20971
.Ltmp45:
	.loc	3 334 28 is_stmt 1      @ ../Libraries/STM32F4xx_StdPeriph_Driver/src/stm32f4xx_usart.c:334:28
	umull	r2, r3, r0, r1
	lsrs	r2, r3, #5
	mvn	r3, #99
.Ltmp46:
	@DEBUG_VALUE: USART_Init:tmpreg <- undef
	.loc	3 337 38                @ ../Libraries/STM32F4xx_StdPeriph_Driver/src/stm32f4xx_usart.c:337:38
	mla	r0, r2, r3, r0
.Ltmp47:
	@DEBUG_VALUE: USART_Init:fractionaldivider <- $r0
	.loc	3 340 16                @ ../Libraries/STM32F4xx_StdPeriph_Driver/src/stm32f4xx_usart.c:340:16
	ldrsh.w	r3, [r4, #12]
.Ltmp48:
	.loc	3 340 7 is_stmt 0       @ ../Libraries/STM32F4xx_StdPeriph_Driver/src/stm32f4xx_usart.c:340:7
	cmp	r3, #0
	it	lt
	movlt	r6, #3
.Ltmp49:
	.loc	3 0 0                   @ ../Libraries/STM32F4xx_StdPeriph_Driver/src/stm32f4xx_usart.c:0:0
	lsls	r0, r6
.Ltmp50:
	adds	r0, #50
.Ltmp51:
	.loc	3 340 7                 @ ../Libraries/STM32F4xx_StdPeriph_Driver/src/stm32f4xx_usart.c:340:7
	cmp	r3, #0
.Ltmp52:
	.loc	3 0 0                   @ ../Libraries/STM32F4xx_StdPeriph_Driver/src/stm32f4xx_usart.c:0:0
	umull	r0, r1, r0, r1
	mov.w	r0, #15
.Ltmp53:
	.loc	3 340 7                 @ ../Libraries/STM32F4xx_StdPeriph_Driver/src/stm32f4xx_usart.c:340:7
	it	lt
	movlt	r0, #7
.Ltmp54:
	.loc	3 0 0                   @ ../Libraries/STM32F4xx_StdPeriph_Driver/src/stm32f4xx_usart.c:0:0
	and.w	r0, r0, r1, lsr #5
	orr.w	r0, r0, r2, lsl #4
.Ltmp55:
	@DEBUG_VALUE: USART_Init:tmpreg <- $r0
	.loc	3 350 15 is_stmt 1      @ ../Libraries/STM32F4xx_StdPeriph_Driver/src/stm32f4xx_usart.c:350:15
	strh	r0, [r4, #8]
	.loc	3 351 1                 @ ../Libraries/STM32F4xx_StdPeriph_Driver/src/stm32f4xx_usart.c:351:1
	add	sp, #16
.Ltmp56:
	pop	{r4, r5, r6, pc}
.Ltmp57:
.Lfunc_end1:
	.size	USART_Init, .Lfunc_end1-USART_Init
	.cfi_endproc
	.cantunwind
	.fnend
                                        @ -- End function
	.section	.text.USART_StructInit,"ax",%progbits
	.hidden	USART_StructInit        @ -- Begin function USART_StructInit
	.globl	USART_StructInit
	.p2align	1
	.type	USART_StructInit,%function
	.code	16                      @ @USART_StructInit
	.thumb_func
USART_StructInit:
.Lfunc_begin2:
	.loc	3 360 0                 @ ../Libraries/STM32F4xx_StdPeriph_Driver/src/stm32f4xx_usart.c:360:0
	.fnstart
	.cfi_startproc
@ %bb.0:
	@DEBUG_VALUE: USART_StructInit:USART_InitStruct <- $r0
	movs	r1, #0
	@DEBUG_VALUE: USART_StructInit:USART_InitStruct <- $r0
	mov.w	r2, #786432
	mov.w	r3, #9600
.Ltmp58:
	.loc	3 367 47 prologue_end   @ ../Libraries/STM32F4xx_StdPeriph_Driver/src/stm32f4xx_usart.c:367:47
	strh	r1, [r0, #12]
	.loc	3 362 36                @ ../Libraries/STM32F4xx_StdPeriph_Driver/src/stm32f4xx_usart.c:362:36
	strd	r3, r1, [r0]
	.loc	3 365 34                @ ../Libraries/STM32F4xx_StdPeriph_Driver/src/stm32f4xx_usart.c:365:34
	str	r2, [r0, #8]
	.loc	3 368 1                 @ ../Libraries/STM32F4xx_StdPeriph_Driver/src/stm32f4xx_usart.c:368:1
	bx	lr
.Ltmp59:
.Lfunc_end2:
	.size	USART_StructInit, .Lfunc_end2-USART_StructInit
	.cfi_endproc
	.cantunwind
	.fnend
                                        @ -- End function
	.section	.text.USART_ClockInit,"ax",%progbits
	.hidden	USART_ClockInit         @ -- Begin function USART_ClockInit
	.globl	USART_ClockInit
	.p2align	1
	.type	USART_ClockInit,%function
	.code	16                      @ @USART_ClockInit
	.thumb_func
USART_ClockInit:
.Lfunc_begin3:
	.loc	3 380 0                 @ ../Libraries/STM32F4xx_StdPeriph_Driver/src/stm32f4xx_usart.c:380:0
	.fnstart
	.cfi_startproc
@ %bb.0:
	@DEBUG_VALUE: USART_ClockInit:USARTx <- $r0
	@DEBUG_VALUE: USART_ClockInit:USARTx <- $r0
	@DEBUG_VALUE: USART_ClockInit:USART_ClockInitStruct <- $r1
	@DEBUG_VALUE: USART_ClockInit:USART_ClockInitStruct <- $r1
	@DEBUG_VALUE: USART_ClockInit:tmpreg <- 0
	.loc	3 390 20 prologue_end   @ ../Libraries/STM32F4xx_StdPeriph_Driver/src/stm32f4xx_usart.c:390:20
	ldrh	r2, [r0, #16]
	.loc	3 398 46                @ ../Libraries/STM32F4xx_StdPeriph_Driver/src/stm32f4xx_usart.c:398:46
	ldrh	r3, [r1]
	.loc	3 392 10                @ ../Libraries/STM32F4xx_StdPeriph_Driver/src/stm32f4xx_usart.c:392:10
	bic	r2, r2, #3840
	.loc	3 398 58                @ ../Libraries/STM32F4xx_StdPeriph_Driver/src/stm32f4xx_usart.c:398:58
	orrs	r2, r3
	.loc	3 398 83 is_stmt 0      @ ../Libraries/STM32F4xx_StdPeriph_Driver/src/stm32f4xx_usart.c:398:83
	ldrh	r3, [r1, #2]
	.loc	3 398 94                @ ../Libraries/STM32F4xx_StdPeriph_Driver/src/stm32f4xx_usart.c:398:94
	orrs	r2, r3
	.loc	3 399 41 is_stmt 1      @ ../Libraries/STM32F4xx_StdPeriph_Driver/src/stm32f4xx_usart.c:399:41
	ldrh	r3, [r1, #4]
	.loc	3 399 77 is_stmt 0      @ ../Libraries/STM32F4xx_StdPeriph_Driver/src/stm32f4xx_usart.c:399:77
	ldrh	r1, [r1, #6]
.Ltmp60:
	.loc	3 399 52                @ ../Libraries/STM32F4xx_StdPeriph_Driver/src/stm32f4xx_usart.c:399:52
	orrs	r2, r3
	.loc	3 398 10 is_stmt 1      @ ../Libraries/STM32F4xx_StdPeriph_Driver/src/stm32f4xx_usart.c:398:10
	orrs	r1, r2
	.loc	3 401 15                @ ../Libraries/STM32F4xx_StdPeriph_Driver/src/stm32f4xx_usart.c:401:15
	strh	r1, [r0, #16]
	.loc	3 402 1                 @ ../Libraries/STM32F4xx_StdPeriph_Driver/src/stm32f4xx_usart.c:402:1
	bx	lr
.Ltmp61:
.Lfunc_end3:
	.size	USART_ClockInit, .Lfunc_end3-USART_ClockInit
	.cfi_endproc
	.cantunwind
	.fnend
                                        @ -- End function
	.section	.text.USART_ClockStructInit,"ax",%progbits
	.hidden	USART_ClockStructInit   @ -- Begin function USART_ClockStructInit
	.globl	USART_ClockStructInit
	.p2align	1
	.type	USART_ClockStructInit,%function
	.code	16                      @ @USART_ClockStructInit
	.thumb_func
USART_ClockStructInit:
.Lfunc_begin4:
	.loc	3 411 0                 @ ../Libraries/STM32F4xx_StdPeriph_Driver/src/stm32f4xx_usart.c:411:0
	.fnstart
	.cfi_startproc
@ %bb.0:
	@DEBUG_VALUE: USART_ClockStructInit:USART_ClockInitStruct <- $r0
	movs	r1, #0
	@DEBUG_VALUE: USART_ClockStructInit:USART_ClockInitStruct <- $r0
.Ltmp62:
	.loc	3 414 37 prologue_end   @ ../Libraries/STM32F4xx_StdPeriph_Driver/src/stm32f4xx_usart.c:414:37
	str	r1, [r0, #4]
	str	r1, [r0]
	.loc	3 417 1                 @ ../Libraries/STM32F4xx_StdPeriph_Driver/src/stm32f4xx_usart.c:417:1
	bx	lr
.Ltmp63:
.Lfunc_end4:
	.size	USART_ClockStructInit, .Lfunc_end4-USART_ClockStructInit
	.cfi_endproc
	.cantunwind
	.fnend
                                        @ -- End function
	.section	.text.USART_Cmd,"ax",%progbits
	.hidden	USART_Cmd               @ -- Begin function USART_Cmd
	.globl	USART_Cmd
	.p2align	1
	.type	USART_Cmd,%function
	.code	16                      @ @USART_Cmd
	.thumb_func
USART_Cmd:
.Lfunc_begin5:
	.loc	3 428 0                 @ ../Libraries/STM32F4xx_StdPeriph_Driver/src/stm32f4xx_usart.c:428:0
	.fnstart
	.cfi_startproc
@ %bb.0:
	@DEBUG_VALUE: USART_Cmd:USARTx <- $r0
	@DEBUG_VALUE: USART_Cmd:USARTx <- $r0
	@DEBUG_VALUE: USART_Cmd:NewState <- $r1
	@DEBUG_VALUE: USART_Cmd:NewState <- $r1
	.loc	3 0 0 prologue_end      @ ../Libraries/STM32F4xx_StdPeriph_Driver/src/stm32f4xx_usart.c:0:0
	ldrh	r2, [r0, #12]
.Ltmp64:
	.loc	3 433 7                 @ ../Libraries/STM32F4xx_StdPeriph_Driver/src/stm32f4xx_usart.c:433:7
	cmp	r1, #0
	orr	r3, r2, #8192
	it	eq
	biceq	r3, r2, #8192
.Ltmp65:
	.loc	3 0 0 is_stmt 0         @ ../Libraries/STM32F4xx_StdPeriph_Driver/src/stm32f4xx_usart.c:0:0
	strh	r3, [r0, #12]
.Ltmp66:
	.loc	3 443 1 is_stmt 1       @ ../Libraries/STM32F4xx_StdPeriph_Driver/src/stm32f4xx_usart.c:443:1
	bx	lr
.Ltmp67:
.Lfunc_end5:
	.size	USART_Cmd, .Lfunc_end5-USART_Cmd
	.cfi_endproc
	.cantunwind
	.fnend
                                        @ -- End function
	.section	.text.USART_SetPrescaler,"ax",%progbits
	.hidden	USART_SetPrescaler      @ -- Begin function USART_SetPrescaler
	.globl	USART_SetPrescaler
	.p2align	1
	.type	USART_SetPrescaler,%function
	.code	16                      @ @USART_SetPrescaler
	.thumb_func
USART_SetPrescaler:
.Lfunc_begin6:
	.loc	3 454 0                 @ ../Libraries/STM32F4xx_StdPeriph_Driver/src/stm32f4xx_usart.c:454:0
	.fnstart
	.cfi_startproc
@ %bb.0:
	@DEBUG_VALUE: USART_SetPrescaler:USARTx <- $r0
	@DEBUG_VALUE: USART_SetPrescaler:USARTx <- $r0
	@DEBUG_VALUE: USART_SetPrescaler:USART_Prescaler <- $r1
	@DEBUG_VALUE: USART_SetPrescaler:USART_Prescaler <- $r1
	.loc	3 459 16 prologue_end   @ ../Libraries/STM32F4xx_StdPeriph_Driver/src/stm32f4xx_usart.c:459:16
	ldrh	r2, [r0, #24]
	bic	r2, r2, #255
	strh	r2, [r0, #24]
	.loc	3 461 16                @ ../Libraries/STM32F4xx_StdPeriph_Driver/src/stm32f4xx_usart.c:461:16
	ldrh	r2, [r0, #24]
	orrs	r1, r2
.Ltmp68:
	strh	r1, [r0, #24]
	.loc	3 462 1                 @ ../Libraries/STM32F4xx_StdPeriph_Driver/src/stm32f4xx_usart.c:462:1
	bx	lr
.Ltmp69:
.Lfunc_end6:
	.size	USART_SetPrescaler, .Lfunc_end6-USART_SetPrescaler
	.cfi_endproc
	.cantunwind
	.fnend
                                        @ -- End function
	.section	.text.USART_OverSampling8Cmd,"ax",%progbits
	.hidden	USART_OverSampling8Cmd  @ -- Begin function USART_OverSampling8Cmd
	.globl	USART_OverSampling8Cmd
	.p2align	1
	.type	USART_OverSampling8Cmd,%function
	.code	16                      @ @USART_OverSampling8Cmd
	.thumb_func
USART_OverSampling8Cmd:
.Lfunc_begin7:
	.loc	3 475 0                 @ ../Libraries/STM32F4xx_StdPeriph_Driver/src/stm32f4xx_usart.c:475:0
	.fnstart
	.cfi_startproc
@ %bb.0:
	@DEBUG_VALUE: USART_OverSampling8Cmd:USARTx <- $r0
	@DEBUG_VALUE: USART_OverSampling8Cmd:USARTx <- $r0
	@DEBUG_VALUE: USART_OverSampling8Cmd:NewState <- $r1
	@DEBUG_VALUE: USART_OverSampling8Cmd:NewState <- $r1
	.loc	3 0 0 prologue_end      @ ../Libraries/STM32F4xx_StdPeriph_Driver/src/stm32f4xx_usart.c:0:0
	ldrh	r2, [r0, #12]
.Ltmp70:
	.loc	3 480 7                 @ ../Libraries/STM32F4xx_StdPeriph_Driver/src/stm32f4xx_usart.c:480:7
	cmp	r1, #0
	mov	r3, r2
	bfc	r3, #15, #17
	it	ne
	orrne	r3, r2, #32768
.Ltmp71:
	.loc	3 0 0 is_stmt 0         @ ../Libraries/STM32F4xx_StdPeriph_Driver/src/stm32f4xx_usart.c:0:0
	strh	r3, [r0, #12]
.Ltmp72:
	.loc	3 490 1 is_stmt 1       @ ../Libraries/STM32F4xx_StdPeriph_Driver/src/stm32f4xx_usart.c:490:1
	bx	lr
.Ltmp73:
.Lfunc_end7:
	.size	USART_OverSampling8Cmd, .Lfunc_end7-USART_OverSampling8Cmd
	.cfi_endproc
	.cantunwind
	.fnend
                                        @ -- End function
	.section	.text.USART_OneBitMethodCmd,"ax",%progbits
	.hidden	USART_OneBitMethodCmd   @ -- Begin function USART_OneBitMethodCmd
	.globl	USART_OneBitMethodCmd
	.p2align	1
	.type	USART_OneBitMethodCmd,%function
	.code	16                      @ @USART_OneBitMethodCmd
	.thumb_func
USART_OneBitMethodCmd:
.Lfunc_begin8:
	.loc	3 501 0                 @ ../Libraries/STM32F4xx_StdPeriph_Driver/src/stm32f4xx_usart.c:501:0
	.fnstart
	.cfi_startproc
@ %bb.0:
	@DEBUG_VALUE: USART_OneBitMethodCmd:USARTx <- $r0
	@DEBUG_VALUE: USART_OneBitMethodCmd:USARTx <- $r0
	@DEBUG_VALUE: USART_OneBitMethodCmd:NewState <- $r1
	@DEBUG_VALUE: USART_OneBitMethodCmd:NewState <- $r1
	.loc	3 0 0 prologue_end      @ ../Libraries/STM32F4xx_StdPeriph_Driver/src/stm32f4xx_usart.c:0:0
	ldrh	r2, [r0, #20]
.Ltmp74:
	.loc	3 506 7                 @ ../Libraries/STM32F4xx_StdPeriph_Driver/src/stm32f4xx_usart.c:506:7
	cmp	r1, #0
	orr	r3, r2, #2048
	it	eq
	biceq	r3, r2, #2048
.Ltmp75:
	.loc	3 0 0 is_stmt 0         @ ../Libraries/STM32F4xx_StdPeriph_Driver/src/stm32f4xx_usart.c:0:0
	strh	r3, [r0, #20]
.Ltmp76:
	.loc	3 516 1 is_stmt 1       @ ../Libraries/STM32F4xx_StdPeriph_Driver/src/stm32f4xx_usart.c:516:1
	bx	lr
.Ltmp77:
.Lfunc_end8:
	.size	USART_OneBitMethodCmd, .Lfunc_end8-USART_OneBitMethodCmd
	.cfi_endproc
	.cantunwind
	.fnend
                                        @ -- End function
	.section	.text.USART_SendData,"ax",%progbits
	.hidden	USART_SendData          @ -- Begin function USART_SendData
	.globl	USART_SendData
	.p2align	1
	.type	USART_SendData,%function
	.code	16                      @ @USART_SendData
	.thumb_func
USART_SendData:
.Lfunc_begin9:
	.loc	3 558 0                 @ ../Libraries/STM32F4xx_StdPeriph_Driver/src/stm32f4xx_usart.c:558:0
	.fnstart
	.cfi_startproc
@ %bb.0:
	@DEBUG_VALUE: USART_SendData:USARTx <- $r0
	@DEBUG_VALUE: USART_SendData:USARTx <- $r0
	@DEBUG_VALUE: USART_SendData:Data <- $r1
	@DEBUG_VALUE: USART_SendData:Data <- $r1
	.loc	3 564 22 prologue_end   @ ../Libraries/STM32F4xx_StdPeriph_Driver/src/stm32f4xx_usart.c:564:22
	bfc	r1, #9, #23
.Ltmp78:
	.loc	3 564 14 is_stmt 0      @ ../Libraries/STM32F4xx_StdPeriph_Driver/src/stm32f4xx_usart.c:564:14
	strh	r1, [r0, #4]
	.loc	3 565 1 is_stmt 1       @ ../Libraries/STM32F4xx_StdPeriph_Driver/src/stm32f4xx_usart.c:565:1
	bx	lr
.Ltmp79:
.Lfunc_end9:
	.size	USART_SendData, .Lfunc_end9-USART_SendData
	.cfi_endproc
	.cantunwind
	.fnend
                                        @ -- End function
	.section	.text.USART_ReceiveData,"ax",%progbits
	.hidden	USART_ReceiveData       @ -- Begin function USART_ReceiveData
	.globl	USART_ReceiveData
	.p2align	1
	.type	USART_ReceiveData,%function
	.code	16                      @ @USART_ReceiveData
	.thumb_func
USART_ReceiveData:
.Lfunc_begin10:
	.loc	3 574 0                 @ ../Libraries/STM32F4xx_StdPeriph_Driver/src/stm32f4xx_usart.c:574:0
	.fnstart
	.cfi_startproc
@ %bb.0:
	@DEBUG_VALUE: USART_ReceiveData:USARTx <- $r0
	@DEBUG_VALUE: USART_ReceiveData:USARTx <- $r0
	.loc	3 579 29 prologue_end   @ ../Libraries/STM32F4xx_StdPeriph_Driver/src/stm32f4xx_usart.c:579:29
	ldrh	r0, [r0, #4]
.Ltmp80:
	.loc	3 579 3 is_stmt 0       @ ../Libraries/STM32F4xx_StdPeriph_Driver/src/stm32f4xx_usart.c:579:3
	bfc	r0, #9, #23
	bx	lr
.Ltmp81:
.Lfunc_end10:
	.size	USART_ReceiveData, .Lfunc_end10-USART_ReceiveData
	.cfi_endproc
	.cantunwind
	.fnend
                                        @ -- End function
	.section	.text.USART_SetAddress,"ax",%progbits
	.hidden	USART_SetAddress        @ -- Begin function USART_SetAddress
	.globl	USART_SetAddress
	.p2align	1
	.type	USART_SetAddress,%function
	.code	16                      @ @USART_SetAddress
	.thumb_func
USART_SetAddress:
.Lfunc_begin11:
	.loc	3 626 0 is_stmt 1       @ ../Libraries/STM32F4xx_StdPeriph_Driver/src/stm32f4xx_usart.c:626:0
	.fnstart
	.cfi_startproc
@ %bb.0:
	@DEBUG_VALUE: USART_SetAddress:USARTx <- $r0
	@DEBUG_VALUE: USART_SetAddress:USARTx <- $r0
	@DEBUG_VALUE: USART_SetAddress:USART_Address <- $r1
	@DEBUG_VALUE: USART_SetAddress:USART_Address <- $r1
	.loc	3 632 15 prologue_end   @ ../Libraries/STM32F4xx_StdPeriph_Driver/src/stm32f4xx_usart.c:632:15
	ldrh	r2, [r0, #16]
	bic	r2, r2, #15
	strh	r2, [r0, #16]
	.loc	3 634 15                @ ../Libraries/STM32F4xx_StdPeriph_Driver/src/stm32f4xx_usart.c:634:15
	ldrh	r2, [r0, #16]
	orrs	r1, r2
.Ltmp82:
	strh	r1, [r0, #16]
	.loc	3 635 1                 @ ../Libraries/STM32F4xx_StdPeriph_Driver/src/stm32f4xx_usart.c:635:1
	bx	lr
.Ltmp83:
.Lfunc_end11:
	.size	USART_SetAddress, .Lfunc_end11-USART_SetAddress
	.cfi_endproc
	.cantunwind
	.fnend
                                        @ -- End function
	.section	.text.USART_ReceiverWakeUpCmd,"ax",%progbits
	.hidden	USART_ReceiverWakeUpCmd @ -- Begin function USART_ReceiverWakeUpCmd
	.globl	USART_ReceiverWakeUpCmd
	.p2align	1
	.type	USART_ReceiverWakeUpCmd,%function
	.code	16                      @ @USART_ReceiverWakeUpCmd
	.thumb_func
USART_ReceiverWakeUpCmd:
.Lfunc_begin12:
	.loc	3 646 0                 @ ../Libraries/STM32F4xx_StdPeriph_Driver/src/stm32f4xx_usart.c:646:0
	.fnstart
	.cfi_startproc
@ %bb.0:
	@DEBUG_VALUE: USART_ReceiverWakeUpCmd:USARTx <- $r0
	@DEBUG_VALUE: USART_ReceiverWakeUpCmd:USARTx <- $r0
	@DEBUG_VALUE: USART_ReceiverWakeUpCmd:NewState <- $r1
	@DEBUG_VALUE: USART_ReceiverWakeUpCmd:NewState <- $r1
	.loc	3 0 0 prologue_end      @ ../Libraries/STM32F4xx_StdPeriph_Driver/src/stm32f4xx_usart.c:0:0
	ldrh	r2, [r0, #12]
.Ltmp84:
	.loc	3 651 7                 @ ../Libraries/STM32F4xx_StdPeriph_Driver/src/stm32f4xx_usart.c:651:7
	cmp	r1, #0
	orr	r3, r2, #2
	it	eq
	biceq	r3, r2, #2
.Ltmp85:
	.loc	3 0 0 is_stmt 0         @ ../Libraries/STM32F4xx_StdPeriph_Driver/src/stm32f4xx_usart.c:0:0
	strh	r3, [r0, #12]
.Ltmp86:
	.loc	3 661 1 is_stmt 1       @ ../Libraries/STM32F4xx_StdPeriph_Driver/src/stm32f4xx_usart.c:661:1
	bx	lr
.Ltmp87:
.Lfunc_end12:
	.size	USART_ReceiverWakeUpCmd, .Lfunc_end12-USART_ReceiverWakeUpCmd
	.cfi_endproc
	.cantunwind
	.fnend
                                        @ -- End function
	.section	.text.USART_WakeUpConfig,"ax",%progbits
	.hidden	USART_WakeUpConfig      @ -- Begin function USART_WakeUpConfig
	.globl	USART_WakeUpConfig
	.p2align	1
	.type	USART_WakeUpConfig,%function
	.code	16                      @ @USART_WakeUpConfig
	.thumb_func
USART_WakeUpConfig:
.Lfunc_begin13:
	.loc	3 673 0                 @ ../Libraries/STM32F4xx_StdPeriph_Driver/src/stm32f4xx_usart.c:673:0
	.fnstart
	.cfi_startproc
@ %bb.0:
	@DEBUG_VALUE: USART_WakeUpConfig:USARTx <- $r0
	@DEBUG_VALUE: USART_WakeUpConfig:USARTx <- $r0
	@DEBUG_VALUE: USART_WakeUpConfig:USART_WakeUp <- $r1
	@DEBUG_VALUE: USART_WakeUpConfig:USART_WakeUp <- $r1
	.loc	3 678 15 prologue_end   @ ../Libraries/STM32F4xx_StdPeriph_Driver/src/stm32f4xx_usart.c:678:15
	ldrh	r2, [r0, #12]
	bic	r2, r2, #2048
	strh	r2, [r0, #12]
	.loc	3 679 15                @ ../Libraries/STM32F4xx_StdPeriph_Driver/src/stm32f4xx_usart.c:679:15
	ldrh	r2, [r0, #12]
	orrs	r1, r2
.Ltmp88:
	strh	r1, [r0, #12]
	.loc	3 680 1                 @ ../Libraries/STM32F4xx_StdPeriph_Driver/src/stm32f4xx_usart.c:680:1
	bx	lr
.Ltmp89:
.Lfunc_end13:
	.size	USART_WakeUpConfig, .Lfunc_end13-USART_WakeUpConfig
	.cfi_endproc
	.cantunwind
	.fnend
                                        @ -- End function
	.section	.text.USART_LINBreakDetectLengthConfig,"ax",%progbits
	.hidden	USART_LINBreakDetectLengthConfig @ -- Begin function USART_LINBreakDetectLengthConfig
	.globl	USART_LINBreakDetectLengthConfig
	.p2align	1
	.type	USART_LINBreakDetectLengthConfig,%function
	.code	16                      @ @USART_LINBreakDetectLengthConfig
	.thumb_func
USART_LINBreakDetectLengthConfig:
.Lfunc_begin14:
	.loc	3 742 0                 @ ../Libraries/STM32F4xx_StdPeriph_Driver/src/stm32f4xx_usart.c:742:0
	.fnstart
	.cfi_startproc
@ %bb.0:
	@DEBUG_VALUE: USART_LINBreakDetectLengthConfig:USARTx <- $r0
	@DEBUG_VALUE: USART_LINBreakDetectLengthConfig:USARTx <- $r0
	@DEBUG_VALUE: USART_LINBreakDetectLengthConfig:USART_LINBreakDetectLength <- $r1
	@DEBUG_VALUE: USART_LINBreakDetectLengthConfig:USART_LINBreakDetectLength <- $r1
	.loc	3 747 15 prologue_end   @ ../Libraries/STM32F4xx_StdPeriph_Driver/src/stm32f4xx_usart.c:747:15
	ldrh	r2, [r0, #16]
	bic	r2, r2, #32
	strh	r2, [r0, #16]
	.loc	3 748 15                @ ../Libraries/STM32F4xx_StdPeriph_Driver/src/stm32f4xx_usart.c:748:15
	ldrh	r2, [r0, #16]
	orrs	r1, r2
.Ltmp90:
	strh	r1, [r0, #16]
	.loc	3 749 1                 @ ../Libraries/STM32F4xx_StdPeriph_Driver/src/stm32f4xx_usart.c:749:1
	bx	lr
.Ltmp91:
.Lfunc_end14:
	.size	USART_LINBreakDetectLengthConfig, .Lfunc_end14-USART_LINBreakDetectLengthConfig
	.cfi_endproc
	.cantunwind
	.fnend
                                        @ -- End function
	.section	.text.USART_LINCmd,"ax",%progbits
	.hidden	USART_LINCmd            @ -- Begin function USART_LINCmd
	.globl	USART_LINCmd
	.p2align	1
	.type	USART_LINCmd,%function
	.code	16                      @ @USART_LINCmd
	.thumb_func
USART_LINCmd:
.Lfunc_begin15:
	.loc	3 760 0                 @ ../Libraries/STM32F4xx_StdPeriph_Driver/src/stm32f4xx_usart.c:760:0
	.fnstart
	.cfi_startproc
@ %bb.0:
	@DEBUG_VALUE: USART_LINCmd:USARTx <- $r0
	@DEBUG_VALUE: USART_LINCmd:USARTx <- $r0
	@DEBUG_VALUE: USART_LINCmd:NewState <- $r1
	@DEBUG_VALUE: USART_LINCmd:NewState <- $r1
	.loc	3 0 0 prologue_end      @ ../Libraries/STM32F4xx_StdPeriph_Driver/src/stm32f4xx_usart.c:0:0
	ldrh	r2, [r0, #16]
.Ltmp92:
	.loc	3 765 7                 @ ../Libraries/STM32F4xx_StdPeriph_Driver/src/stm32f4xx_usart.c:765:7
	cmp	r1, #0
	orr	r3, r2, #16384
	it	eq
	biceq	r3, r2, #16384
.Ltmp93:
	.loc	3 0 0 is_stmt 0         @ ../Libraries/STM32F4xx_StdPeriph_Driver/src/stm32f4xx_usart.c:0:0
	strh	r3, [r0, #16]
.Ltmp94:
	.loc	3 775 1 is_stmt 1       @ ../Libraries/STM32F4xx_StdPeriph_Driver/src/stm32f4xx_usart.c:775:1
	bx	lr
.Ltmp95:
.Lfunc_end15:
	.size	USART_LINCmd, .Lfunc_end15-USART_LINCmd
	.cfi_endproc
	.cantunwind
	.fnend
                                        @ -- End function
	.section	.text.USART_SendBreak,"ax",%progbits
	.hidden	USART_SendBreak         @ -- Begin function USART_SendBreak
	.globl	USART_SendBreak
	.p2align	1
	.type	USART_SendBreak,%function
	.code	16                      @ @USART_SendBreak
	.thumb_func
USART_SendBreak:
.Lfunc_begin16:
	.loc	3 784 0                 @ ../Libraries/STM32F4xx_StdPeriph_Driver/src/stm32f4xx_usart.c:784:0
	.fnstart
	.cfi_startproc
@ %bb.0:
	@DEBUG_VALUE: USART_SendBreak:USARTx <- $r0
	@DEBUG_VALUE: USART_SendBreak:USARTx <- $r0
	.loc	3 789 15 prologue_end   @ ../Libraries/STM32F4xx_StdPeriph_Driver/src/stm32f4xx_usart.c:789:15
	ldrh	r1, [r0, #12]
	orr	r1, r1, #1
	strh	r1, [r0, #12]
	.loc	3 790 1                 @ ../Libraries/STM32F4xx_StdPeriph_Driver/src/stm32f4xx_usart.c:790:1
	bx	lr
.Ltmp96:
.Lfunc_end16:
	.size	USART_SendBreak, .Lfunc_end16-USART_SendBreak
	.cfi_endproc
	.cantunwind
	.fnend
                                        @ -- End function
	.section	.text.USART_HalfDuplexCmd,"ax",%progbits
	.hidden	USART_HalfDuplexCmd     @ -- Begin function USART_HalfDuplexCmd
	.globl	USART_HalfDuplexCmd
	.p2align	1
	.type	USART_HalfDuplexCmd,%function
	.code	16                      @ @USART_HalfDuplexCmd
	.thumb_func
USART_HalfDuplexCmd:
.Lfunc_begin17:
	.loc	3 837 0                 @ ../Libraries/STM32F4xx_StdPeriph_Driver/src/stm32f4xx_usart.c:837:0
	.fnstart
	.cfi_startproc
@ %bb.0:
	@DEBUG_VALUE: USART_HalfDuplexCmd:USARTx <- $r0
	@DEBUG_VALUE: USART_HalfDuplexCmd:USARTx <- $r0
	@DEBUG_VALUE: USART_HalfDuplexCmd:NewState <- $r1
	@DEBUG_VALUE: USART_HalfDuplexCmd:NewState <- $r1
	.loc	3 0 0 prologue_end      @ ../Libraries/STM32F4xx_StdPeriph_Driver/src/stm32f4xx_usart.c:0:0
	ldrh	r2, [r0, #20]
.Ltmp97:
	.loc	3 842 7                 @ ../Libraries/STM32F4xx_StdPeriph_Driver/src/stm32f4xx_usart.c:842:7
	cmp	r1, #0
	orr	r3, r2, #8
	it	eq
	biceq	r3, r2, #8
.Ltmp98:
	.loc	3 0 0 is_stmt 0         @ ../Libraries/STM32F4xx_StdPeriph_Driver/src/stm32f4xx_usart.c:0:0
	strh	r3, [r0, #20]
.Ltmp99:
	.loc	3 852 1 is_stmt 1       @ ../Libraries/STM32F4xx_StdPeriph_Driver/src/stm32f4xx_usart.c:852:1
	bx	lr
.Ltmp100:
.Lfunc_end17:
	.size	USART_HalfDuplexCmd, .Lfunc_end17-USART_HalfDuplexCmd
	.cfi_endproc
	.cantunwind
	.fnend
                                        @ -- End function
	.section	.text.USART_SetGuardTime,"ax",%progbits
	.hidden	USART_SetGuardTime      @ -- Begin function USART_SetGuardTime
	.globl	USART_SetGuardTime
	.p2align	1
	.type	USART_SetGuardTime,%function
	.code	16                      @ @USART_SetGuardTime
	.thumb_func
USART_SetGuardTime:
.Lfunc_begin18:
	.loc	3 921 0                 @ ../Libraries/STM32F4xx_StdPeriph_Driver/src/stm32f4xx_usart.c:921:0
	.fnstart
	.cfi_startproc
@ %bb.0:
	@DEBUG_VALUE: USART_SetGuardTime:USARTx <- $r0
	@DEBUG_VALUE: USART_SetGuardTime:USARTx <- $r0
	@DEBUG_VALUE: USART_SetGuardTime:USART_GuardTime <- $r1
	@DEBUG_VALUE: USART_SetGuardTime:USART_GuardTime <- $r1
	.loc	3 926 16 prologue_end   @ ../Libraries/STM32F4xx_StdPeriph_Driver/src/stm32f4xx_usart.c:926:16
	ldrh	r2, [r0, #24]
	uxtb	r2, r2
	strh	r2, [r0, #24]
	.loc	3 928 16                @ ../Libraries/STM32F4xx_StdPeriph_Driver/src/stm32f4xx_usart.c:928:16
	ldrh	r2, [r0, #24]
	orr.w	r1, r2, r1, lsl #8
.Ltmp101:
	strh	r1, [r0, #24]
	.loc	3 929 1                 @ ../Libraries/STM32F4xx_StdPeriph_Driver/src/stm32f4xx_usart.c:929:1
	bx	lr
.Ltmp102:
.Lfunc_end18:
	.size	USART_SetGuardTime, .Lfunc_end18-USART_SetGuardTime
	.cfi_endproc
	.cantunwind
	.fnend
                                        @ -- End function
	.section	.text.USART_SmartCardCmd,"ax",%progbits
	.hidden	USART_SmartCardCmd      @ -- Begin function USART_SmartCardCmd
	.globl	USART_SmartCardCmd
	.p2align	1
	.type	USART_SmartCardCmd,%function
	.code	16                      @ @USART_SmartCardCmd
	.thumb_func
USART_SmartCardCmd:
.Lfunc_begin19:
	.loc	3 940 0                 @ ../Libraries/STM32F4xx_StdPeriph_Driver/src/stm32f4xx_usart.c:940:0
	.fnstart
	.cfi_startproc
@ %bb.0:
	@DEBUG_VALUE: USART_SmartCardCmd:USARTx <- $r0
	@DEBUG_VALUE: USART_SmartCardCmd:USARTx <- $r0
	@DEBUG_VALUE: USART_SmartCardCmd:NewState <- $r1
	@DEBUG_VALUE: USART_SmartCardCmd:NewState <- $r1
	.loc	3 0 0 prologue_end      @ ../Libraries/STM32F4xx_StdPeriph_Driver/src/stm32f4xx_usart.c:0:0
	ldrh	r2, [r0, #20]
.Ltmp103:
	.loc	3 944 7                 @ ../Libraries/STM32F4xx_StdPeriph_Driver/src/stm32f4xx_usart.c:944:7
	cmp	r1, #0
	orr	r3, r2, #32
	it	eq
	biceq	r3, r2, #32
.Ltmp104:
	.loc	3 0 0 is_stmt 0         @ ../Libraries/STM32F4xx_StdPeriph_Driver/src/stm32f4xx_usart.c:0:0
	strh	r3, [r0, #20]
.Ltmp105:
	.loc	3 954 1 is_stmt 1       @ ../Libraries/STM32F4xx_StdPeriph_Driver/src/stm32f4xx_usart.c:954:1
	bx	lr
.Ltmp106:
.Lfunc_end19:
	.size	USART_SmartCardCmd, .Lfunc_end19-USART_SmartCardCmd
	.cfi_endproc
	.cantunwind
	.fnend
                                        @ -- End function
	.section	.text.USART_SmartCardNACKCmd,"ax",%progbits
	.hidden	USART_SmartCardNACKCmd  @ -- Begin function USART_SmartCardNACKCmd
	.globl	USART_SmartCardNACKCmd
	.p2align	1
	.type	USART_SmartCardNACKCmd,%function
	.code	16                      @ @USART_SmartCardNACKCmd
	.thumb_func
USART_SmartCardNACKCmd:
.Lfunc_begin20:
	.loc	3 965 0                 @ ../Libraries/STM32F4xx_StdPeriph_Driver/src/stm32f4xx_usart.c:965:0
	.fnstart
	.cfi_startproc
@ %bb.0:
	@DEBUG_VALUE: USART_SmartCardNACKCmd:USARTx <- $r0
	@DEBUG_VALUE: USART_SmartCardNACKCmd:USARTx <- $r0
	@DEBUG_VALUE: USART_SmartCardNACKCmd:NewState <- $r1
	@DEBUG_VALUE: USART_SmartCardNACKCmd:NewState <- $r1
	.loc	3 0 0 prologue_end      @ ../Libraries/STM32F4xx_StdPeriph_Driver/src/stm32f4xx_usart.c:0:0
	ldrh	r2, [r0, #20]
.Ltmp107:
	.loc	3 969 7                 @ ../Libraries/STM32F4xx_StdPeriph_Driver/src/stm32f4xx_usart.c:969:7
	cmp	r1, #0
	orr	r3, r2, #16
	it	eq
	biceq	r3, r2, #16
.Ltmp108:
	.loc	3 0 0 is_stmt 0         @ ../Libraries/STM32F4xx_StdPeriph_Driver/src/stm32f4xx_usart.c:0:0
	strh	r3, [r0, #20]
.Ltmp109:
	.loc	3 979 1 is_stmt 1       @ ../Libraries/STM32F4xx_StdPeriph_Driver/src/stm32f4xx_usart.c:979:1
	bx	lr
.Ltmp110:
.Lfunc_end20:
	.size	USART_SmartCardNACKCmd, .Lfunc_end20-USART_SmartCardNACKCmd
	.cfi_endproc
	.cantunwind
	.fnend
                                        @ -- End function
	.section	.text.USART_IrDAConfig,"ax",%progbits
	.hidden	USART_IrDAConfig        @ -- Begin function USART_IrDAConfig
	.globl	USART_IrDAConfig
	.p2align	1
	.type	USART_IrDAConfig,%function
	.code	16                      @ @USART_IrDAConfig
	.thumb_func
USART_IrDAConfig:
.Lfunc_begin21:
	.loc	3 1036 0                @ ../Libraries/STM32F4xx_StdPeriph_Driver/src/stm32f4xx_usart.c:1036:0
	.fnstart
	.cfi_startproc
@ %bb.0:
	@DEBUG_VALUE: USART_IrDAConfig:USARTx <- $r0
	@DEBUG_VALUE: USART_IrDAConfig:USARTx <- $r0
	@DEBUG_VALUE: USART_IrDAConfig:USART_IrDAMode <- $r1
	@DEBUG_VALUE: USART_IrDAConfig:USART_IrDAMode <- $r1
	.loc	3 1041 15 prologue_end  @ ../Libraries/STM32F4xx_StdPeriph_Driver/src/stm32f4xx_usart.c:1041:15
	ldrh	r2, [r0, #20]
	bic	r2, r2, #4
	strh	r2, [r0, #20]
	.loc	3 1042 15               @ ../Libraries/STM32F4xx_StdPeriph_Driver/src/stm32f4xx_usart.c:1042:15
	ldrh	r2, [r0, #20]
	orrs	r1, r2
.Ltmp111:
	strh	r1, [r0, #20]
	.loc	3 1043 1                @ ../Libraries/STM32F4xx_StdPeriph_Driver/src/stm32f4xx_usart.c:1043:1
	bx	lr
.Ltmp112:
.Lfunc_end21:
	.size	USART_IrDAConfig, .Lfunc_end21-USART_IrDAConfig
	.cfi_endproc
	.cantunwind
	.fnend
                                        @ -- End function
	.section	.text.USART_IrDACmd,"ax",%progbits
	.hidden	USART_IrDACmd           @ -- Begin function USART_IrDACmd
	.globl	USART_IrDACmd
	.p2align	1
	.type	USART_IrDACmd,%function
	.code	16                      @ @USART_IrDACmd
	.thumb_func
USART_IrDACmd:
.Lfunc_begin22:
	.loc	3 1054 0                @ ../Libraries/STM32F4xx_StdPeriph_Driver/src/stm32f4xx_usart.c:1054:0
	.fnstart
	.cfi_startproc
@ %bb.0:
	@DEBUG_VALUE: USART_IrDACmd:USARTx <- $r0
	@DEBUG_VALUE: USART_IrDACmd:USARTx <- $r0
	@DEBUG_VALUE: USART_IrDACmd:NewState <- $r1
	@DEBUG_VALUE: USART_IrDACmd:NewState <- $r1
	.loc	3 0 0 prologue_end      @ ../Libraries/STM32F4xx_StdPeriph_Driver/src/stm32f4xx_usart.c:0:0
	ldrh	r2, [r0, #20]
.Ltmp113:
	.loc	3 1059 7                @ ../Libraries/STM32F4xx_StdPeriph_Driver/src/stm32f4xx_usart.c:1059:7
	cmp	r1, #0
	orr	r3, r2, #2
	it	eq
	biceq	r3, r2, #2
.Ltmp114:
	.loc	3 0 0 is_stmt 0         @ ../Libraries/STM32F4xx_StdPeriph_Driver/src/stm32f4xx_usart.c:0:0
	strh	r3, [r0, #20]
.Ltmp115:
	.loc	3 1069 1 is_stmt 1      @ ../Libraries/STM32F4xx_StdPeriph_Driver/src/stm32f4xx_usart.c:1069:1
	bx	lr
.Ltmp116:
.Lfunc_end22:
	.size	USART_IrDACmd, .Lfunc_end22-USART_IrDACmd
	.cfi_endproc
	.cantunwind
	.fnend
                                        @ -- End function
	.section	.text.USART_DMACmd,"ax",%progbits
	.hidden	USART_DMACmd            @ -- Begin function USART_DMACmd
	.globl	USART_DMACmd
	.p2align	1
	.type	USART_DMACmd,%function
	.code	16                      @ @USART_DMACmd
	.thumb_func
USART_DMACmd:
.Lfunc_begin23:
	.loc	3 1100 0                @ ../Libraries/STM32F4xx_StdPeriph_Driver/src/stm32f4xx_usart.c:1100:0
	.fnstart
	.cfi_startproc
@ %bb.0:
	@DEBUG_VALUE: USART_DMACmd:USARTx <- $r0
	@DEBUG_VALUE: USART_DMACmd:USARTx <- $r0
	@DEBUG_VALUE: USART_DMACmd:USART_DMAReq <- $r1
	@DEBUG_VALUE: USART_DMACmd:USART_DMAReq <- $r1
	@DEBUG_VALUE: USART_DMACmd:NewState <- $r2
	@DEBUG_VALUE: USART_DMACmd:NewState <- $r2
	.loc	3 1106 7 prologue_end   @ ../Libraries/STM32F4xx_StdPeriph_Driver/src/stm32f4xx_usart.c:1106:7
	cmp	r2, #0
.Ltmp117:
	.loc	3 1116 17               @ ../Libraries/STM32F4xx_StdPeriph_Driver/src/stm32f4xx_usart.c:1116:17
	ldrh	r2, [r0, #20]
.Ltmp118:
	ite	eq
	biceq.w	r1, r2, r1
.Ltmp119:
	.loc	3 1110 17               @ ../Libraries/STM32F4xx_StdPeriph_Driver/src/stm32f4xx_usart.c:1110:17
	orrne	r1, r2
.Ltmp120:
	.loc	3 0 0 is_stmt 0         @ ../Libraries/STM32F4xx_StdPeriph_Driver/src/stm32f4xx_usart.c:0:0
	strh	r1, [r0, #20]
.Ltmp121:
	.loc	3 1118 1 is_stmt 1      @ ../Libraries/STM32F4xx_StdPeriph_Driver/src/stm32f4xx_usart.c:1118:1
	bx	lr
.Ltmp122:
.Lfunc_end23:
	.size	USART_DMACmd, .Lfunc_end23-USART_DMACmd
	.cfi_endproc
	.cantunwind
	.fnend
                                        @ -- End function
	.section	.text.USART_ITConfig,"ax",%progbits
	.hidden	USART_ITConfig          @ -- Begin function USART_ITConfig
	.globl	USART_ITConfig
	.p2align	1
	.type	USART_ITConfig,%function
	.code	16                      @ @USART_ITConfig
	.thumb_func
USART_ITConfig:
.Lfunc_begin24:
	.loc	3 1232 0                @ ../Libraries/STM32F4xx_StdPeriph_Driver/src/stm32f4xx_usart.c:1232:0
	.fnstart
	.cfi_startproc
@ %bb.0:
	@DEBUG_VALUE: USART_ITConfig:USARTx <- $r0
	@DEBUG_VALUE: USART_ITConfig:USARTx <- $r0
	@DEBUG_VALUE: USART_ITConfig:USART_IT <- $r1
	@DEBUG_VALUE: USART_ITConfig:USART_IT <- $r1
	@DEBUG_VALUE: USART_ITConfig:NewState <- $r2
	@DEBUG_VALUE: USART_ITConfig:NewState <- $r2
	@DEBUG_VALUE: USART_ITConfig:usartxbase <- $r0
	@DEBUG_VALUE: USART_ITConfig:usartxbase <- 0
	@DEBUG_VALUE: USART_ITConfig:usartreg <- 0
	@DEBUG_VALUE: USART_ITConfig:itpos <- 0
	@DEBUG_VALUE: USART_ITConfig:itmask <- 0
	.loc	3 1252 20 prologue_end  @ ../Libraries/STM32F4xx_StdPeriph_Driver/src/stm32f4xx_usart.c:1252:20
	and	r12, r1, #31
.Ltmp123:
	@DEBUG_VALUE: USART_ITConfig:itpos <- $r12
	.loc	3 0 20 is_stmt 0        @ ../Libraries/STM32F4xx_StdPeriph_Driver/src/stm32f4xx_usart.c:0:20
	movs	r3, #1
	.loc	3 1253 30 is_stmt 1     @ ../Libraries/STM32F4xx_StdPeriph_Driver/src/stm32f4xx_usart.c:1253:30
	lsl.w	r12, r3, r12
.Ltmp124:
	@DEBUG_VALUE: USART_ITConfig:itmask <- $r12
	.loc	3 1255 7                @ ../Libraries/STM32F4xx_StdPeriph_Driver/src/stm32f4xx_usart.c:1255:7
	ubfx	r3, r1, #5, #3
	movs	r1, #20
.Ltmp125:
	cmp	r3, #2
	it	eq
	moveq	r1, #16
	cmp	r3, #1
	it	eq
	moveq	r1, #12
	.loc	3 1267 7                @ ../Libraries/STM32F4xx_StdPeriph_Driver/src/stm32f4xx_usart.c:1267:7
	cmp	r2, #0
.Ltmp126:
	.loc	3 1273 33               @ ../Libraries/STM32F4xx_StdPeriph_Driver/src/stm32f4xx_usart.c:1273:33
	ldr	r2, [r0, r1]
.Ltmp127:
	ite	eq
	biceq.w	r2, r2, r12
.Ltmp128:
	.loc	3 1269 34               @ ../Libraries/STM32F4xx_StdPeriph_Driver/src/stm32f4xx_usart.c:1269:34
	orrne.w	r2, r2, r12
.Ltmp129:
	.loc	3 0 0 is_stmt 0         @ ../Libraries/STM32F4xx_StdPeriph_Driver/src/stm32f4xx_usart.c:0:0
	str	r2, [r0, r1]
.Ltmp130:
	.loc	3 1275 1 is_stmt 1      @ ../Libraries/STM32F4xx_StdPeriph_Driver/src/stm32f4xx_usart.c:1275:1
	bx	lr
.Ltmp131:
.Lfunc_end24:
	.size	USART_ITConfig, .Lfunc_end24-USART_ITConfig
	.cfi_endproc
	.cantunwind
	.fnend
                                        @ -- End function
	.section	.text.USART_GetFlagStatus,"ax",%progbits
	.hidden	USART_GetFlagStatus     @ -- Begin function USART_GetFlagStatus
	.globl	USART_GetFlagStatus
	.p2align	1
	.type	USART_GetFlagStatus,%function
	.code	16                      @ @USART_GetFlagStatus
	.thumb_func
USART_GetFlagStatus:
.Lfunc_begin25:
	.loc	3 1296 0                @ ../Libraries/STM32F4xx_StdPeriph_Driver/src/stm32f4xx_usart.c:1296:0
	.fnstart
	.cfi_startproc
@ %bb.0:
	@DEBUG_VALUE: USART_GetFlagStatus:USARTx <- $r0
	@DEBUG_VALUE: USART_GetFlagStatus:USARTx <- $r0
	@DEBUG_VALUE: USART_GetFlagStatus:USART_FLAG <- $r1
	@DEBUG_VALUE: USART_GetFlagStatus:USART_FLAG <- $r1
	@DEBUG_VALUE: USART_GetFlagStatus:bitstatus <- 0
	.loc	3 1308 16 prologue_end  @ ../Libraries/STM32F4xx_StdPeriph_Driver/src/stm32f4xx_usart.c:1308:16
	ldrh	r0, [r0]
.Ltmp132:
	.loc	3 1308 19 is_stmt 0     @ ../Libraries/STM32F4xx_StdPeriph_Driver/src/stm32f4xx_usart.c:1308:19
	ands	r0, r1
	.loc	3 1308 33               @ ../Libraries/STM32F4xx_StdPeriph_Driver/src/stm32f4xx_usart.c:1308:33
	it	ne
	movne	r0, #1
.Ltmp133:
	@DEBUG_VALUE: USART_GetFlagStatus:bitstatus <- undef
	.loc	3 1316 3 is_stmt 1      @ ../Libraries/STM32F4xx_StdPeriph_Driver/src/stm32f4xx_usart.c:1316:3
	bx	lr
.Ltmp134:
.Lfunc_end25:
	.size	USART_GetFlagStatus, .Lfunc_end25-USART_GetFlagStatus
	.cfi_endproc
	.cantunwind
	.fnend
                                        @ -- End function
	.section	.text.USART_ClearFlag,"ax",%progbits
	.hidden	USART_ClearFlag         @ -- Begin function USART_ClearFlag
	.globl	USART_ClearFlag
	.p2align	1
	.type	USART_ClearFlag,%function
	.code	16                      @ @USART_ClearFlag
	.thumb_func
USART_ClearFlag:
.Lfunc_begin26:
	.loc	3 1345 0                @ ../Libraries/STM32F4xx_StdPeriph_Driver/src/stm32f4xx_usart.c:1345:0
	.fnstart
	.cfi_startproc
@ %bb.0:
	@DEBUG_VALUE: USART_ClearFlag:USARTx <- $r0
	@DEBUG_VALUE: USART_ClearFlag:USARTx <- $r0
	@DEBUG_VALUE: USART_ClearFlag:USART_FLAG <- $r1
	@DEBUG_VALUE: USART_ClearFlag:USART_FLAG <- $r1
	.loc	3 1356 26 prologue_end  @ ../Libraries/STM32F4xx_StdPeriph_Driver/src/stm32f4xx_usart.c:1356:26
	mvns	r1, r1
.Ltmp135:
	.loc	3 1356 14 is_stmt 0     @ ../Libraries/STM32F4xx_StdPeriph_Driver/src/stm32f4xx_usart.c:1356:14
	strh	r1, [r0]
	.loc	3 1357 1 is_stmt 1      @ ../Libraries/STM32F4xx_StdPeriph_Driver/src/stm32f4xx_usart.c:1357:1
	bx	lr
.Ltmp136:
.Lfunc_end26:
	.size	USART_ClearFlag, .Lfunc_end26-USART_ClearFlag
	.cfi_endproc
	.cantunwind
	.fnend
                                        @ -- End function
	.section	.text.USART_GetITStatus,"ax",%progbits
	.hidden	USART_GetITStatus       @ -- Begin function USART_GetITStatus
	.globl	USART_GetITStatus
	.p2align	1
	.type	USART_GetITStatus,%function
	.code	16                      @ @USART_GetITStatus
	.thumb_func
USART_GetITStatus:
.Lfunc_begin27:
	.loc	3 1379 0                @ ../Libraries/STM32F4xx_StdPeriph_Driver/src/stm32f4xx_usart.c:1379:0
	.fnstart
	.cfi_startproc
@ %bb.0:
	@DEBUG_VALUE: USART_GetITStatus:USARTx <- $r0
	@DEBUG_VALUE: USART_GetITStatus:USARTx <- $r0
	@DEBUG_VALUE: USART_GetITStatus:USART_IT <- $r1
	@DEBUG_VALUE: USART_GetITStatus:USART_IT <- $r1
	@DEBUG_VALUE: USART_GetITStatus:bitpos <- 0
	@DEBUG_VALUE: USART_GetITStatus:itmask <- 0
	@DEBUG_VALUE: USART_GetITStatus:usartreg <- 0
	@DEBUG_VALUE: USART_GetITStatus:bitstatus <- 0
	.loc	3 1395 21 prologue_end  @ ../Libraries/STM32F4xx_StdPeriph_Driver/src/stm32f4xx_usart.c:1395:21
	and	r2, r1, #31
.Ltmp137:
	@DEBUG_VALUE: USART_GetITStatus:itmask <- $r2
	.loc	3 0 21 is_stmt 0        @ ../Libraries/STM32F4xx_StdPeriph_Driver/src/stm32f4xx_usart.c:0:21
	movs	r3, #1
	.loc	3 1396 27 is_stmt 1     @ ../Libraries/STM32F4xx_StdPeriph_Driver/src/stm32f4xx_usart.c:1396:27
	lsl.w	r2, r3, r2
.Ltmp138:
	@DEBUG_VALUE: USART_GetITStatus:itmask <- $r2
	.loc	3 1398 7                @ ../Libraries/STM32F4xx_StdPeriph_Driver/src/stm32f4xx_usart.c:1398:7
	ubfx	r3, r1, #5, #3
	cmp	r3, #2
	beq	.LBB27_2
.Ltmp139:
@ %bb.1:
	@DEBUG_VALUE: USART_GetITStatus:itmask <- $r2
	@DEBUG_VALUE: USART_GetITStatus:USART_IT <- $r1
	@DEBUG_VALUE: USART_GetITStatus:USARTx <- $r0
	cmp	r3, #1
.Ltmp140:
	.loc	3 1408 23               @ ../Libraries/STM32F4xx_StdPeriph_Driver/src/stm32f4xx_usart.c:1408:23
	ite	ne
	addne.w	r3, r0, #20
.Ltmp141:
	.loc	3 1400 23               @ ../Libraries/STM32F4xx_StdPeriph_Driver/src/stm32f4xx_usart.c:1400:23
	addeq.w	r3, r0, #12
	b	.LBB27_3
.Ltmp142:
.LBB27_2:
	@DEBUG_VALUE: USART_GetITStatus:itmask <- $r2
	@DEBUG_VALUE: USART_GetITStatus:USART_IT <- $r1
	@DEBUG_VALUE: USART_GetITStatus:USARTx <- $r0
	.loc	3 1404 23               @ ../Libraries/STM32F4xx_StdPeriph_Driver/src/stm32f4xx_usart.c:1404:23
	add.w	r3, r0, #16
.Ltmp143:
.LBB27_3:
	@DEBUG_VALUE: USART_GetITStatus:itmask <- $r2
	@DEBUG_VALUE: USART_GetITStatus:USART_IT <- $r1
	@DEBUG_VALUE: USART_GetITStatus:USARTx <- $r0
	.loc	3 0 0 is_stmt 0         @ ../Libraries/STM32F4xx_StdPeriph_Driver/src/stm32f4xx_usart.c:0:0
	ldrh	r3, [r3]
.Ltmp144:
	.loc	3 1411 21 is_stmt 1     @ ../Libraries/STM32F4xx_StdPeriph_Driver/src/stm32f4xx_usart.c:1411:21
	lsrs	r1, r1, #8
.Ltmp145:
	@DEBUG_VALUE: USART_GetITStatus:bitpos <- $r1
	.loc	3 0 0 is_stmt 0         @ ../Libraries/STM32F4xx_StdPeriph_Driver/src/stm32f4xx_usart.c:0:0
	ands	r2, r3
.Ltmp146:
	@DEBUG_VALUE: USART_GetITStatus:itmask <- $r2
	mov.w	r3, #1
.Ltmp147:
	.loc	3 1414 15 is_stmt 1     @ ../Libraries/STM32F4xx_StdPeriph_Driver/src/stm32f4xx_usart.c:1414:15
	it	ne
	movne	r2, #1
.Ltmp148:
	.loc	3 1413 21               @ ../Libraries/STM32F4xx_StdPeriph_Driver/src/stm32f4xx_usart.c:1413:21
	ldrh	r0, [r0]
.Ltmp149:
	.loc	3 1412 27               @ ../Libraries/STM32F4xx_StdPeriph_Driver/src/stm32f4xx_usart.c:1412:27
	lsl.w	r1, r3, r1
.Ltmp150:
	@DEBUG_VALUE: USART_GetITStatus:bitpos <- $r1
	.loc	3 1413 10               @ ../Libraries/STM32F4xx_StdPeriph_Driver/src/stm32f4xx_usart.c:1413:10
	ands	r0, r1
.Ltmp151:
	@DEBUG_VALUE: USART_GetITStatus:bitpos <- $r0
	.loc	3 1414 44               @ ../Libraries/STM32F4xx_StdPeriph_Driver/src/stm32f4xx_usart.c:1414:44
	it	ne
	movne	r0, #1
.Ltmp152:
	.loc	3 1414 34 is_stmt 0     @ ../Libraries/STM32F4xx_StdPeriph_Driver/src/stm32f4xx_usart.c:1414:34
	ands	r0, r2
.Ltmp153:
	@DEBUG_VALUE: USART_GetITStatus:bitstatus <- undef
	.loc	3 1423 3 is_stmt 1      @ ../Libraries/STM32F4xx_StdPeriph_Driver/src/stm32f4xx_usart.c:1423:3
	bx	lr
.Ltmp154:
.Lfunc_end27:
	.size	USART_GetITStatus, .Lfunc_end27-USART_GetITStatus
	.cfi_endproc
	.cantunwind
	.fnend
                                        @ -- End function
	.section	.text.USART_ClearITPendingBit,"ax",%progbits
	.hidden	USART_ClearITPendingBit @ -- Begin function USART_ClearITPendingBit
	.globl	USART_ClearITPendingBit
	.p2align	1
	.type	USART_ClearITPendingBit,%function
	.code	16                      @ @USART_ClearITPendingBit
	.thumb_func
USART_ClearITPendingBit:
.Lfunc_begin28:
	.loc	3 1453 0                @ ../Libraries/STM32F4xx_StdPeriph_Driver/src/stm32f4xx_usart.c:1453:0
	.fnstart
	.cfi_startproc
@ %bb.0:
	@DEBUG_VALUE: USART_ClearITPendingBit:USARTx <- $r0
	@DEBUG_VALUE: USART_ClearITPendingBit:USARTx <- $r0
	@DEBUG_VALUE: USART_ClearITPendingBit:USART_IT <- $r1
	@DEBUG_VALUE: USART_ClearITPendingBit:USART_IT <- $r1
	@DEBUG_VALUE: USART_ClearITPendingBit:bitpos <- 0
	@DEBUG_VALUE: USART_ClearITPendingBit:itmask <- 0
	.loc	3 1465 21 prologue_end  @ ../Libraries/STM32F4xx_StdPeriph_Driver/src/stm32f4xx_usart.c:1465:21
	lsrs	r1, r1, #8
.Ltmp155:
	@DEBUG_VALUE: USART_ClearITPendingBit:bitpos <- $r1
	.loc	3 0 21 is_stmt 0        @ ../Libraries/STM32F4xx_StdPeriph_Driver/src/stm32f4xx_usart.c:0:21
	movs	r2, #1
	.loc	3 1466 28 is_stmt 1     @ ../Libraries/STM32F4xx_StdPeriph_Driver/src/stm32f4xx_usart.c:1466:28
	lsl.w	r1, r2, r1
.Ltmp156:
	@DEBUG_VALUE: USART_ClearITPendingBit:itmask <- $r1
	.loc	3 1467 16               @ ../Libraries/STM32F4xx_StdPeriph_Driver/src/stm32f4xx_usart.c:1467:16
	mvns	r1, r1
.Ltmp157:
	.loc	3 1467 14 is_stmt 0     @ ../Libraries/STM32F4xx_StdPeriph_Driver/src/stm32f4xx_usart.c:1467:14
	strh	r1, [r0]
	.loc	3 1468 1 is_stmt 1      @ ../Libraries/STM32F4xx_StdPeriph_Driver/src/stm32f4xx_usart.c:1468:1
	bx	lr
.Ltmp158:
.Lfunc_end28:
	.size	USART_ClearITPendingBit, .Lfunc_end28-USART_ClearITPendingBit
	.cfi_endproc
	.cantunwind
	.fnend
                                        @ -- End function
	.file	4 "F:\\SkyDrive\\OtvoreniProjekti\\HotelSaplast\\fw\\KontrolerHotela\\HC070318\\Project" "../Libraries/STM32F4xx_StdPeriph_Driver/inc\\stm32f4xx_usart.h"
	.file	5 "F:\\SkyDrive\\OtvoreniProjekti\\HotelSaplast\\fw\\KontrolerHotela\\HC070318\\Project" "../Libraries/STM32F4xx_StdPeriph_Driver/inc\\stm32f4xx_rcc.h"
	.section	".note.GNU-stack","",%progbits
	.eabi_attribute	30, 3	@ Tag_ABI_optimization_goals
	.ARM_attribute	16, 1	@ Tag_AV_eba