	.text
	.syntax unified
	.eabi_attribute	67, "2.09"	@ Tag_conformance
	.cpu	cortex-m4
	.eabi_attribute	6, 13	@ Tag_CPU_arch
	.eabi_attribute	7, 77	@ Tag_CPU_arch_profile
	.eabi_attribute	8, 0	@ Tag_ARM_ISA_use
	.eabi_attribute	9, 2	@ Tag_THUMB_ISA_use
	.fpu	fpv4-sp-d16
	.eabi_attribute	27, 1	@ Tag_ABI_HardFP_use
	.eabi_attribute	36, 1	@ Tag_FP_HP_extension
	.eabi_attribute	34, 1	@ Tag_CPU_unaligned_access
	.eabi_attribute	17, 1	@ Tag_ABI_PCS_GOT_use
	.eabi_attribute	20, 2	@ Tag_ABI_FP_denormal
	.eabi_attribute	21, 0	@ Tag_ABI_FP_exceptions
	.eabi_attribute	23, 1	@ Tag_ABI_FP_number_model
	.eabi_attribute	24, 1	@ Tag_ABI_align_needed
	.eabi_attribute	25, 1	@ Tag_ABI_align_preserved
	.eabi_attribute	28, 1	@ Tag_ABI_VFP_args
	.eabi_attribute	38, 1	@ Tag_ABI_FP_16bit_format
	.eabi_attribute	18, 2	@ Tag_ABI_PCS_wchar_t
	.eabi_attribute	26, 1	@ Tag_ABI_enum_size
	.eabi_attribute	14, 0	@ Tag_ABI_PCS_R9_use
	.file	"stm32f4xx_rcc.c"
	.file	1 "C:\\Keil\\ARM\\ARMCLANG\\Bin\\..\\include" "stdint.h"
	.file	2 "F:\\SkyDrive\\OtvoreniProjekti\\HotelSaplast\\fw\\KontrolerHotela\\HC070318\\Project" "../Libraries/STM32F4xx_StdPeriph_Driver/src/stm32f4xx_rcc.c"
	.file	3 "F:\\SkyDrive\\OtvoreniProjekti\\HotelSaplast\\fw\\KontrolerHotela\\HC070318\\Project" "../Libraries/CMSIS/Device/ST/STM32F4xx/Include\\stm32f4xx.h"
	.section	.text.RCC_DeInit,"ax",%progbits
	.hidden	RCC_DeInit              @ -- Begin function RCC_DeInit
	.globl	RCC_DeInit
	.p2align	1
	.type	RCC_DeInit,%function
	.code	16                      @ @RCC_DeInit
	.thumb_func
RCC_DeInit:
.Lfunc_begin0:
	.loc	2 214 0                 @ ../Libraries/STM32F4xx_StdPeriph_Driver/src/stm32f4xx_rcc.c:214:0
	.fnstart
	.cfi_sections .debug_frame
	.cfi_startproc
@ %bb.0:
	movw	r0, #14336
	movw	r3, #65535
	movt	r0, #16386
	movt	r3, #60150
.Ltmp0:
	.loc	2 216 11 prologue_end   @ ../Libraries/STM32F4xx_StdPeriph_Driver/src/stm32f4xx_rcc.c:216:11
	ldr	r1, [r0]
	orr	r1, r1, #1
	str	r1, [r0]
	movs	r1, #0
	.loc	2 219 13                @ ../Libraries/STM32F4xx_StdPeriph_Driver/src/stm32f4xx_rcc.c:219:13
	str	r1, [r0, #8]
	.loc	2 222 11                @ ../Libraries/STM32F4xx_StdPeriph_Driver/src/stm32f4xx_rcc.c:222:11
	ldr	r2, [r0]
	ands	r2, r3
	str	r2, [r0]
	movw	r2, #12304
	movt	r2, #9216
	.loc	2 225 16                @ ../Libraries/STM32F4xx_StdPeriph_Driver/src/stm32f4xx_rcc.c:225:16
	str	r2, [r0, #4]
	movw	r2, #12288
	movt	r2, #8192
	.loc	2 228 19                @ ../Libraries/STM32F4xx_StdPeriph_Driver/src/stm32f4xx_rcc.c:228:19
	str.w	r2, [r0, #132]
	.loc	2 231 19                @ ../Libraries/STM32F4xx_StdPeriph_Driver/src/stm32f4xx_rcc.c:231:19
	add.w	r2, r2, #67108864
	str.w	r2, [r0, #136]
	.loc	2 234 11                @ ../Libraries/STM32F4xx_StdPeriph_Driver/src/stm32f4xx_rcc.c:234:11
	ldr	r2, [r0]
	bic	r2, r2, #262144
	str	r2, [r0]
	.loc	2 237 12                @ ../Libraries/STM32F4xx_StdPeriph_Driver/src/stm32f4xx_rcc.c:237:12
	str	r1, [r0, #12]
	.loc	2 240 16                @ ../Libraries/STM32F4xx_StdPeriph_Driver/src/stm32f4xx_rcc.c:240:16
	str.w	r1, [r0, #140]
	.loc	2 241 1                 @ ../Libraries/STM32F4xx_StdPeriph_Driver/src/stm32f4xx_rcc.c:241:1
	bx	lr
.Ltmp1:
.Lfunc_end0:
	.size	RCC_DeInit, .Lfunc_end0-RCC_DeInit
	.cfi_endproc
	.cantunwind
	.fnend
                                        @ -- End function
	.section	.text.RCC_HSEConfig,"ax",%progbits
	.hidden	RCC_HSEConfig           @ -- Begin function RCC_HSEConfig
	.globl	RCC_HSEConfig
	.p2align	1
	.type	RCC_HSEConfig,%function
	.code	16                      @ @RCC_HSEConfig
	.thumb_func
RCC_HSEConfig:
.Lfunc_begin1:
	.loc	2 264 0                 @ ../Libraries/STM32F4xx_StdPeriph_Driver/src/stm32f4xx_rcc.c:264:0
	.fnstart
	.cfi_startproc
@ %bb.0:
	@DEBUG_VALUE: RCC_HSEConfig:RCC_HSE <- $r0
	movw	r1, #14338
	movs	r2, #0
	@DEBUG_VALUE: RCC_HSEConfig:RCC_HSE <- $r0
	movt	r1, #16386
.Ltmp2:
	.loc	2 269 38 prologue_end   @ ../Libraries/STM32F4xx_StdPeriph_Driver/src/stm32f4xx_rcc.c:269:38
	strb	r2, [r1]
	.loc	2 272 38                @ ../Libraries/STM32F4xx_StdPeriph_Driver/src/stm32f4xx_rcc.c:272:38
	strb	r0, [r1]
	.loc	2 273 1                 @ ../Libraries/STM32F4xx_StdPeriph_Driver/src/stm32f4xx_rcc.c:273:1
	bx	lr
.Ltmp3:
.Lfunc_end1:
	.size	RCC_HSEConfig, .Lfunc_end1-RCC_HSEConfig
	.cfi_endproc
	.cantunwind
	.fnend
                                        @ -- End function
	.section	.text.RCC_WaitForHSEStartUp,"ax",%progbits
	.hidden	RCC_WaitForHSEStartUp   @ -- Begin function RCC_WaitForHSEStartUp
	.globl	RCC_WaitForHSEStartUp
	.p2align	1
	.type	RCC_WaitForHSEStartUp,%function
	.code	16                      @ @RCC_WaitForHSEStartUp
	.thumb_func
RCC_WaitForHSEStartUp:
.Lfunc_begin2:
	.loc	2 288 0                 @ ../Libraries/STM32F4xx_StdPeriph_Driver/src/stm32f4xx_rcc.c:288:0
	.fnstart
	.cfi_startproc
@ %bb.0:
	.pad	#4
	sub	sp, #4
	.cfi_def_cfa_offset 4
	movs	r0, #0
.Ltmp4:
	.loc	2 289 17 prologue_end   @ ../Libraries/STM32F4xx_StdPeriph_Driver/src/stm32f4xx_rcc.c:289:17
	str	r0, [sp]
	movw	r0, #14336
	movt	r0, #16386
.Ltmp5:
	@DEBUG_VALUE: RCC_WaitForHSEStartUp:hsestatus <- 0
	@DEBUG_VALUE: RCC_WaitForHSEStartUp:status <- 0
	.p2align	2
.LBB2_1:                                @ =>This Inner Loop Header: Depth=1
	@DEBUG_VALUE: RCC_GetFlagStatus:RCC_FLAG <- 49
	@DEBUG_VALUE: RCC_GetFlagStatus:tmp <- 1
	@DEBUG_VALUE: RCC_GetFlagStatus:statusreg <- 0
	@DEBUG_VALUE: RCC_GetFlagStatus:bitstatus <- 0
	.loc	2 0 0 is_stmt 0         @ ../Libraries/STM32F4xx_StdPeriph_Driver/src/stm32f4xx_rcc.c:0:0
	ldr	r1, [r0]
.Ltmp6:
	@DEBUG_VALUE: RCC_GetFlagStatus:statusreg <- $r1
	@DEBUG_VALUE: RCC_GetFlagStatus:tmp <- 17
	.loc	2 296 19 is_stmt 1      @ ../Libraries/STM32F4xx_StdPeriph_Driver/src/stm32f4xx_rcc.c:296:19
	ldr	r2, [sp]
	adds	r2, #1
	.loc	2 297 3                 @ ../Libraries/STM32F4xx_StdPeriph_Driver/src/stm32f4xx_rcc.c:297:3
	lsls	r1, r1, #14
.Ltmp7:
	.loc	2 296 19                @ ../Libraries/STM32F4xx_StdPeriph_Driver/src/stm32f4xx_rcc.c:296:19
	str	r2, [sp]
.Ltmp8:
	.loc	2 297 12                @ ../Libraries/STM32F4xx_StdPeriph_Driver/src/stm32f4xx_rcc.c:297:12
	ldr	r1, [sp]
.Ltmp9:
	.loc	2 297 3 is_stmt 0       @ ../Libraries/STM32F4xx_StdPeriph_Driver/src/stm32f4xx_rcc.c:297:3
	bmi	.LBB2_3
@ %bb.2:                                @   in Loop: Header=BB2_1 Depth=1
	cmp.w	r1, #20480
	bne	.LBB2_1
.Ltmp10:
.LBB2_3:
	@DEBUG_VALUE: RCC_GetFlagStatus:RCC_FLAG <- 49
	@DEBUG_VALUE: RCC_GetFlagStatus:tmp <- 1
	@DEBUG_VALUE: RCC_GetFlagStatus:statusreg <- 0
	@DEBUG_VALUE: RCC_GetFlagStatus:bitstatus <- 0
	.loc	2 0 0                   @ ../Libraries/STM32F4xx_StdPeriph_Driver/src/stm32f4xx_rcc.c:0:0
	ldr	r0, [r0]
.Ltmp11:
	@DEBUG_VALUE: RCC_GetFlagStatus:statusreg <- $r0
	.loc	2 307 3 is_stmt 1       @ ../Libraries/STM32F4xx_StdPeriph_Driver/src/stm32f4xx_rcc.c:307:3
	ubfx	r0, r0, #17, #1
.Ltmp12:
	@DEBUG_VALUE: RCC_GetFlagStatus:tmp <- 17
	@DEBUG_VALUE: RCC_WaitForHSEStartUp:status <- undef
	add	sp, #4
	bx	lr
.Ltmp13:
.Lfunc_end2:
	.size	RCC_WaitForHSEStartUp, .Lfunc_end2-RCC_WaitForHSEStartUp
	.cfi_endproc
	.cantunwind
	.fnend
                                        @ -- End function
	.section	.text.RCC_GetFlagStatus,"ax",%progbits
	.hidden	RCC_GetFlagStatus       @ -- Begin function RCC_GetFlagStatus
	.globl	RCC_GetFlagStatus
	.p2align	1
	.type	RCC_GetFlagStatus,%function
	.code	16                      @ @RCC_GetFlagStatus
	.thumb_func
RCC_GetFlagStatus:
.Lfunc_begin3:
	.loc	2 2620 0                @ ../Libraries/STM32F4xx_StdPeriph_Driver/src/stm32f4xx_rcc.c:2620:0
	.fnstart
	.cfi_startproc
@ %bb.0:
	@DEBUG_VALUE: RCC_GetFlagStatus:RCC_FLAG <- $r0
	movw	r1, #14336
	movs	r2, #1
.Ltmp14:
	@DEBUG_VALUE: RCC_GetFlagStatus:bitstatus <- 0
	@DEBUG_VALUE: RCC_GetFlagStatus:statusreg <- 0
	@DEBUG_VALUE: RCC_GetFlagStatus:tmp <- 0
	@DEBUG_VALUE: RCC_GetFlagStatus:RCC_FLAG <- $r0
	movt	r1, #16386
.Ltmp15:
	.loc	2 2630 7 prologue_end   @ ../Libraries/STM32F4xx_StdPeriph_Driver/src/stm32f4xx_rcc.c:2630:7
	cmp.w	r2, r0, lsr #5
	beq	.LBB3_2
.Ltmp16:
@ %bb.1:
	@DEBUG_VALUE: RCC_GetFlagStatus:RCC_FLAG <- $r0
	.loc	2 0 0 is_stmt 0         @ ../Libraries/STM32F4xx_StdPeriph_Driver/src/stm32f4xx_rcc.c:0:0
	lsrs	r3, r0, #5
.Ltmp17:
	@DEBUG_VALUE: RCC_GetFlagStatus:tmp <- $r3
	.loc	2 2630 7                @ ../Libraries/STM32F4xx_StdPeriph_Driver/src/stm32f4xx_rcc.c:2630:7
	cmp	r3, #2
	ite	eq
	addeq	r1, #112
	addne	r1, #116
.Ltmp18:
.LBB3_2:
	@DEBUG_VALUE: RCC_GetFlagStatus:RCC_FLAG <- $r0
	.loc	2 2644 18 is_stmt 1     @ ../Libraries/STM32F4xx_StdPeriph_Driver/src/stm32f4xx_rcc.c:2644:18
	and	r0, r0, #31
.Ltmp19:
	@DEBUG_VALUE: RCC_GetFlagStatus:tmp <- $r0
	.loc	2 0 0 is_stmt 0         @ ../Libraries/STM32F4xx_StdPeriph_Driver/src/stm32f4xx_rcc.c:0:0
	ldr	r1, [r1]
.Ltmp20:
	@DEBUG_VALUE: RCC_GetFlagStatus:statusreg <- $r1
	.loc	2 2645 33 is_stmt 1     @ ../Libraries/STM32F4xx_StdPeriph_Driver/src/stm32f4xx_rcc.c:2645:33
	lsl.w	r0, r2, r0
.Ltmp21:
	.loc	2 2645 18 is_stmt 0     @ ../Libraries/STM32F4xx_StdPeriph_Driver/src/stm32f4xx_rcc.c:2645:18
	ands	r0, r1
	.loc	2 2645 42               @ ../Libraries/STM32F4xx_StdPeriph_Driver/src/stm32f4xx_rcc.c:2645:42
	it	ne
	movne	r0, #1
.Ltmp22:
	@DEBUG_VALUE: RCC_GetFlagStatus:bitstatus <- undef
	.loc	2 2654 3 is_stmt 1      @ ../Libraries/STM32F4xx_StdPeriph_Driver/src/stm32f4xx_rcc.c:2654:3
	bx	lr
.Ltmp23:
.Lfunc_end3:
	.size	RCC_GetFlagStatus, .Lfunc_end3-RCC_GetFlagStatus
	.cfi_endproc
	.cantunwind
	.fnend
                                        @ -- End function
	.section	.text.RCC_AdjustHSICalibrationValue,"ax",%progbits
	.hidden	RCC_AdjustHSICalibrationValue @ -- Begin function RCC_AdjustHSICalibrationValue
	.globl	RCC_AdjustHSICalibrationValue
	.p2align	1
	.type	RCC_AdjustHSICalibrationValue,%function
	.code	16                      @ @RCC_AdjustHSICalibrationValue
	.thumb_func
RCC_AdjustHSICalibrationValue:
.Lfunc_begin4:
	.loc	2 319 0                 @ ../Libraries/STM32F4xx_StdPeriph_Driver/src/stm32f4xx_rcc.c:319:0
	.fnstart
	.cfi_startproc
@ %bb.0:
	@DEBUG_VALUE: RCC_AdjustHSICalibrationValue:HSICalibrationValue <- $r0
	movw	r1, #14336
	movt	r1, #16386
.Ltmp24:
	@DEBUG_VALUE: RCC_AdjustHSICalibrationValue:tmpreg <- 0
	@DEBUG_VALUE: RCC_AdjustHSICalibrationValue:HSICalibrationValue <- $r0
	.loc	2 324 17 prologue_end   @ ../Libraries/STM32F4xx_StdPeriph_Driver/src/stm32f4xx_rcc.c:324:17
	ldr	r2, [r1]
.Ltmp25:
	@DEBUG_VALUE: RCC_AdjustHSICalibrationValue:tmpreg <- $r2
	.loc	2 327 10                @ ../Libraries/STM32F4xx_StdPeriph_Driver/src/stm32f4xx_rcc.c:327:10
	bic	r2, r2, #248
.Ltmp26:
	@DEBUG_VALUE: RCC_AdjustHSICalibrationValue:tmpreg <- $r2
	.loc	2 330 10                @ ../Libraries/STM32F4xx_StdPeriph_Driver/src/stm32f4xx_rcc.c:330:10
	orr.w	r0, r2, r0, lsl #3
.Ltmp27:
	@DEBUG_VALUE: RCC_AdjustHSICalibrationValue:tmpreg <- $r0
	.loc	2 333 11                @ ../Libraries/STM32F4xx_StdPeriph_Driver/src/stm32f4xx_rcc.c:333:11
	str	r0, [r1]
	.loc	2 334 1                 @ ../Libraries/STM32F4xx_StdPeriph_Driver/src/stm32f4xx_rcc.c:334:1
	bx	lr
.Ltmp28:
.Lfunc_end4:
	.size	RCC_AdjustHSICalibrationValue, .Lfunc_end4-RCC_AdjustHSICalibrationValue
	.cfi_endproc
	.cantunwind
	.fnend
                                        @ -- End function
	.section	.text.RCC_HSICmd,"ax",%progbits
	.hidden	RCC_HSICmd              @ -- Begin function RCC_HSICmd
	.globl	RCC_HSICmd
	.p2align	1
	.type	RCC_HSICmd,%function
	.code	16                      @ @RCC_HSICmd
	.thumb_func
RCC_HSICmd:
.Lfunc_begin5:
	.loc	2 355 0                 @ ../Libraries/STM32F4xx_StdPeriph_Driver/src/stm32f4xx_rcc.c:355:0
	.fnstart
	.cfi_startproc
@ %bb.0:
	@DEBUG_VALUE: RCC_HSICmd:NewState <- $r0
	movs	r1, #0
	movt	r1, #16967
	@DEBUG_VALUE: RCC_HSICmd:NewState <- $r0
.Ltmp29:
	.loc	2 359 34 prologue_end   @ ../Libraries/STM32F4xx_StdPeriph_Driver/src/stm32f4xx_rcc.c:359:34
	str	r0, [r1]
	.loc	2 360 1                 @ ../Libraries/STM32F4xx_StdPeriph_Driver/src/stm32f4xx_rcc.c:360:1
	bx	lr
.Ltmp30:
.Lfunc_end5:
	.size	RCC_HSICmd, .Lfunc_end5-RCC_HSICmd
	.cfi_endproc
	.cantunwind
	.fnend
                                        @ -- End function
	.section	.text.RCC_LSEConfig,"ax",%progbits
	.hidden	RCC_LSEConfig           @ -- Begin function RCC_LSEConfig
	.globl	RCC_LSEConfig
	.p2align	1
	.type	RCC_LSEConfig,%function
	.code	16                      @ @RCC_LSEConfig
	.thumb_func
RCC_LSEConfig:
.Lfunc_begin6:
	.loc	2 380 0                 @ ../Libraries/STM32F4xx_StdPeriph_Driver/src/stm32f4xx_rcc.c:380:0
	.fnstart
	.cfi_startproc
@ %bb.0:
	@DEBUG_VALUE: RCC_LSEConfig:RCC_LSE <- $r0
	movw	r1, #14448
	movs	r2, #0
	@DEBUG_VALUE: RCC_LSEConfig:RCC_LSE <- $r0
.Ltmp31:
	.loc	2 392 3 prologue_end    @ ../Libraries/STM32F4xx_StdPeriph_Driver/src/stm32f4xx_rcc.c:392:3
	cmp	r0, #1
	movt	r1, #16386
	.loc	2 386 34                @ ../Libraries/STM32F4xx_StdPeriph_Driver/src/stm32f4xx_rcc.c:386:34
	strb	r2, [r1]
	.loc	2 389 34                @ ../Libraries/STM32F4xx_StdPeriph_Driver/src/stm32f4xx_rcc.c:389:34
	strb	r2, [r1]
	.loc	2 392 3                 @ ../Libraries/STM32F4xx_StdPeriph_Driver/src/stm32f4xx_rcc.c:392:3
	beq	.LBB6_2
.Ltmp32:
@ %bb.1:
	@DEBUG_VALUE: RCC_LSEConfig:RCC_LSE <- $r0
	cmp	r0, #4
	.loc	2 405 1                 @ ../Libraries/STM32F4xx_StdPeriph_Driver/src/stm32f4xx_rcc.c:405:1
	it	ne
	bxne	lr
	movs	r0, #5
.Ltmp33:
.LBB6_2:
	@DEBUG_VALUE: RCC_LSEConfig:RCC_LSE <- $r0
	.loc	2 0 0 is_stmt 0         @ ../Libraries/STM32F4xx_StdPeriph_Driver/src/stm32f4xx_rcc.c:0:0
	strb	r0, [r1]
.Ltmp34:
	.loc	2 405 1                 @ ../Libraries/STM32F4xx_StdPeriph_Driver/src/stm32f4xx_rcc.c:405:1
	bx	lr
.Ltmp35:
.Lfunc_end6:
	.size	RCC_LSEConfig, .Lfunc_end6-RCC_LSEConfig
	.cfi_endproc
	.cantunwind
	.fnend
                                        @ -- End function
	.section	.text.RCC_LSICmd,"ax",%progbits
	.hidden	RCC_LSICmd              @ -- Begin function RCC_LSICmd
	.globl	RCC_LSICmd
	.p2align	1
	.type	RCC_LSICmd,%function
	.code	16                      @ @RCC_LSICmd
	.thumb_func
RCC_LSICmd:
.Lfunc_begin7:
	.loc	2 420 0 is_stmt 1       @ ../Libraries/STM32F4xx_StdPeriph_Driver/src/stm32f4xx_rcc.c:420:0
	.fnstart
	.cfi_startproc
@ %bb.0:
	@DEBUG_VALUE: RCC_LSICmd:NewState <- $r0
	movw	r1, #3712
	movt	r1, #16967
	@DEBUG_VALUE: RCC_LSICmd:NewState <- $r0
.Ltmp36:
	.loc	2 424 35 prologue_end   @ ../Libraries/STM32F4xx_StdPeriph_Driver/src/stm32f4xx_rcc.c:424:35
	str	r0, [r1]
	.loc	2 425 1                 @ ../Libraries/STM32F4xx_StdPeriph_Driver/src/stm32f4xx_rcc.c:425:1
	bx	lr
.Ltmp37:
.Lfunc_end7:
	.size	RCC_LSICmd, .Lfunc_end7-RCC_LSICmd
	.cfi_endproc
	.cantunwind
	.fnend
                                        @ -- End function
	.section	.text.RCC_PLLConfig,"ax",%progbits
	.hidden	RCC_PLLConfig           @ -- Begin function RCC_PLLConfig
	.globl	RCC_PLLConfig
	.p2align	1
	.type	RCC_PLLConfig,%function
	.code	16                      @ @RCC_PLLConfig
	.thumb_func
RCC_PLLConfig:
.Lfunc_begin8:
	.loc	2 519 0                 @ ../Libraries/STM32F4xx_StdPeriph_Driver/src/stm32f4xx_rcc.c:519:0
	.fnstart
	.cfi_startproc
@ %bb.0:
	@DEBUG_VALUE: RCC_PLLConfig:RCC_PLLSource <- $r0
	@DEBUG_VALUE: RCC_PLLConfig:RCC_PLLSource <- $r0
	@DEBUG_VALUE: RCC_PLLConfig:PLLM <- $r1
	@DEBUG_VALUE: RCC_PLLConfig:PLLM <- $r1
	@DEBUG_VALUE: RCC_PLLConfig:PLLN <- $r2
	@DEBUG_VALUE: RCC_PLLConfig:PLLN <- $r2
	@DEBUG_VALUE: RCC_PLLConfig:PLLP <- $r3
	@DEBUG_VALUE: RCC_PLLConfig:PLLP <- $r3
	@DEBUG_VALUE: RCC_PLLConfig:PLLQ <- [$sp+0]
	.loc	2 527 23 prologue_end   @ ../Libraries/STM32F4xx_StdPeriph_Driver/src/stm32f4xx_rcc.c:527:23
	orrs	r0, r1
.Ltmp38:
	.loc	2 0 23 is_stmt 0        @ ../Libraries/STM32F4xx_StdPeriph_Driver/src/stm32f4xx_rcc.c:0:23
	ldr	r1, [sp]
.Ltmp39:
	.loc	2 527 37                @ ../Libraries/STM32F4xx_StdPeriph_Driver/src/stm32f4xx_rcc.c:527:37
	orr.w	r0, r0, r2, lsl #6
	movw	r2, #65535
.Ltmp40:
	.loc	2 527 64                @ ../Libraries/STM32F4xx_StdPeriph_Driver/src/stm32f4xx_rcc.c:527:64
	orr.w	r0, r0, r1, lsl #24
	.loc	2 527 57                @ ../Libraries/STM32F4xx_StdPeriph_Driver/src/stm32f4xx_rcc.c:527:57
	lsls	r1, r3, #15
	.loc	2 527 47                @ ../Libraries/STM32F4xx_StdPeriph_Driver/src/stm32f4xx_rcc.c:527:47
	bics	r1, r2
	.loc	2 527 57                @ ../Libraries/STM32F4xx_StdPeriph_Driver/src/stm32f4xx_rcc.c:527:57
	sub.w	r1, r1, #65536
	.loc	2 527 82                @ ../Libraries/STM32F4xx_StdPeriph_Driver/src/stm32f4xx_rcc.c:527:82
	orrs	r0, r1
	movw	r1, #14340
	movt	r1, #16386
	.loc	2 527 16                @ ../Libraries/STM32F4xx_StdPeriph_Driver/src/stm32f4xx_rcc.c:527:16
	str	r0, [r1]
	.loc	2 529 1 is_stmt 1       @ ../Libraries/STM32F4xx_StdPeriph_Driver/src/stm32f4xx_rcc.c:529:1
	bx	lr
.Ltmp41:
.Lfunc_end8:
	.size	RCC_PLLConfig, .Lfunc_end8-RCC_PLLConfig
	.cfi_endproc
	.cantunwind
	.fnend
                                        @ -- End function
	.section	.text.RCC_PLLCmd,"ax",%progbits
	.hidden	RCC_PLLCmd              @ -- Begin function RCC_PLLCmd
	.globl	RCC_PLLCmd
	.p2align	1
	.type	RCC_PLLCmd,%function
	.code	16                      @ @RCC_PLLCmd
	.thumb_func
RCC_PLLCmd:
.Lfunc_begin9:
	.loc	2 543 0                 @ ../Libraries/STM32F4xx_StdPeriph_Driver/src/stm32f4xx_rcc.c:543:0
	.fnstart
	.cfi_startproc
@ %bb.0:
	@DEBUG_VALUE: RCC_PLLCmd:NewState <- $r0
	movs	r1, #96
	movt	r1, #16967
	@DEBUG_VALUE: RCC_PLLCmd:NewState <- $r0
.Ltmp42:
	.loc	2 546 34 prologue_end   @ ../Libraries/STM32F4xx_StdPeriph_Driver/src/stm32f4xx_rcc.c:546:34
	str	r0, [r1]
	.loc	2 547 1                 @ ../Libraries/STM32F4xx_StdPeriph_Driver/src/stm32f4xx_rcc.c:547:1
	bx	lr
.Ltmp43:
.Lfunc_end9:
	.size	RCC_PLLCmd, .Lfunc_end9-RCC_PLLCmd
	.cfi_endproc
	.cantunwind
	.fnend
                                        @ -- End function
	.section	.text.RCC_PLLI2SConfig,"ax",%progbits
	.hidden	RCC_PLLI2SConfig        @ -- Begin function RCC_PLLI2SConfig
	.globl	RCC_PLLI2SConfig
	.p2align	1
	.type	RCC_PLLI2SConfig,%function
	.code	16                      @ @RCC_PLLI2SConfig
	.thumb_func
RCC_PLLI2SConfig:
.Lfunc_begin10:
	.loc	2 647 0                 @ ../Libraries/STM32F4xx_StdPeriph_Driver/src/stm32f4xx_rcc.c:647:0
	.fnstart
	.cfi_startproc
@ %bb.0:
	@DEBUG_VALUE: RCC_PLLI2SConfig:PLLI2SN <- $r0
	@DEBUG_VALUE: RCC_PLLI2SConfig:PLLI2SN <- $r0
	@DEBUG_VALUE: RCC_PLLI2SConfig:PLLI2SQ <- $r1
	@DEBUG_VALUE: RCC_PLLI2SConfig:PLLI2SQ <- $r1
	@DEBUG_VALUE: RCC_PLLI2SConfig:PLLI2SR <- $r2
	@DEBUG_VALUE: RCC_PLLI2SConfig:PLLI2SR <- $r2
	.loc	2 653 47 prologue_end   @ ../Libraries/STM32F4xx_StdPeriph_Driver/src/stm32f4xx_rcc.c:653:47
	lsls	r1, r1, #24
.Ltmp44:
	.loc	2 653 36 is_stmt 0      @ ../Libraries/STM32F4xx_StdPeriph_Driver/src/stm32f4xx_rcc.c:653:36
	orr.w	r0, r1, r0, lsl #6
.Ltmp45:
	.loc	2 0 36                  @ ../Libraries/STM32F4xx_StdPeriph_Driver/src/stm32f4xx_rcc.c:0:36
	movw	r1, #14468
	.loc	2 653 54                @ ../Libraries/STM32F4xx_StdPeriph_Driver/src/stm32f4xx_rcc.c:653:54
	orr.w	r0, r0, r2, lsl #28
	movt	r1, #16386
	.loc	2 653 19                @ ../Libraries/STM32F4xx_StdPeriph_Driver/src/stm32f4xx_rcc.c:653:19
	str	r0, [r1]
	.loc	2 654 1 is_stmt 1       @ ../Libraries/STM32F4xx_StdPeriph_Driver/src/stm32f4xx_rcc.c:654:1
	bx	lr
.Ltmp46:
.Lfunc_end10:
	.size	RCC_PLLI2SConfig, .Lfunc_end10-RCC_PLLI2SConfig
	.cfi_endproc
	.cantunwind
	.fnend
                                        @ -- End function
	.section	.text.RCC_PLLI2SCmd,"ax",%progbits
	.hidden	RCC_PLLI2SCmd           @ -- Begin function RCC_PLLI2SCmd
	.globl	RCC_PLLI2SCmd
	.p2align	1
	.type	RCC_PLLI2SCmd,%function
	.code	16                      @ @RCC_PLLI2SCmd
	.thumb_func
RCC_PLLI2SCmd:
.Lfunc_begin11:
	.loc	2 712 0                 @ ../Libraries/STM32F4xx_StdPeriph_Driver/src/stm32f4xx_rcc.c:712:0
	.fnstart
	.cfi_startproc
@ %bb.0:
	@DEBUG_VALUE: RCC_PLLI2SCmd:NewState <- $r0
	movs	r1, #104
	movt	r1, #16967
	@DEBUG_VALUE: RCC_PLLI2SCmd:NewState <- $r0
.Ltmp47:
	.loc	2 715 37 prologue_end   @ ../Libraries/STM32F4xx_StdPeriph_Driver/src/stm32f4xx_rcc.c:715:37
	str	r0, [r1]
	.loc	2 716 1                 @ ../Libraries/STM32F4xx_StdPeriph_Driver/src/stm32f4xx_rcc.c:716:1
	bx	lr
.Ltmp48:
.Lfunc_end11:
	.size	RCC_PLLI2SCmd, .Lfunc_end11-RCC_PLLI2SCmd
	.cfi_endproc
	.cantunwind
	.fnend
                                        @ -- End function
	.section	.text.RCC_PLLSAIConfig,"ax",%progbits
	.hidden	RCC_PLLSAIConfig        @ -- Begin function RCC_PLLSAIConfig
	.globl	RCC_PLLSAIConfig
	.p2align	1
	.type	RCC_PLLSAIConfig,%function
	.code	16                      @ @RCC_PLLSAIConfig
	.thumb_func
RCC_PLLSAIConfig:
.Lfunc_begin12:
	.loc	2 783 0                 @ ../Libraries/STM32F4xx_StdPeriph_Driver/src/stm32f4xx_rcc.c:783:0
	.fnstart
	.cfi_startproc
@ %bb.0:
	@DEBUG_VALUE: RCC_PLLSAIConfig:PLLSAIN <- $r0
	@DEBUG_VALUE: RCC_PLLSAIConfig:PLLSAIN <- $r0
	@DEBUG_VALUE: RCC_PLLSAIConfig:PLLSAIQ <- $r1
	@DEBUG_VALUE: RCC_PLLSAIConfig:PLLSAIQ <- $r1
	@DEBUG_VALUE: RCC_PLLSAIConfig:PLLSAIR <- $r2
	@DEBUG_VALUE: RCC_PLLSAIConfig:PLLSAIR <- $r2
	.loc	2 789 47 prologue_end   @ ../Libraries/STM32F4xx_StdPeriph_Driver/src/stm32f4xx_rcc.c:789:47
	lsls	r1, r1, #24
.Ltmp49:
	.loc	2 789 36 is_stmt 0      @ ../Libraries/STM32F4xx_StdPeriph_Driver/src/stm32f4xx_rcc.c:789:36
	orr.w	r0, r1, r0, lsl #6
.Ltmp50:
	.loc	2 0 36                  @ ../Libraries/STM32F4xx_StdPeriph_Driver/src/stm32f4xx_rcc.c:0:36
	movw	r1, #14472
	.loc	2 789 54                @ ../Libraries/STM32F4xx_StdPeriph_Driver/src/stm32f4xx_rcc.c:789:54
	orr.w	r0, r0, r2, lsl #28
	movt	r1, #16386
	.loc	2 789 19                @ ../Libraries/STM32F4xx_StdPeriph_Driver/src/stm32f4xx_rcc.c:789:19
	str	r0, [r1]
	.loc	2 790 1 is_stmt 1       @ ../Libraries/STM32F4xx_StdPeriph_Driver/src/stm32f4xx_rcc.c:790:1
	bx	lr
.Ltmp51:
.Lfunc_end12:
	.size	RCC_PLLSAIConfig, .Lfunc_end12-RCC_PLLSAIConfig
	.cfi_endproc
	.cantunwind
	.fnend
                                        @ -- End function
	.section	.text.RCC_PLLSAICmd,"ax",%progbits
	.hidden	RCC_PLLSAICmd           @ -- Begin function RCC_PLLSAICmd
	.globl	RCC_PLLSAICmd
	.p2align	1
	.type	RCC_PLLSAICmd,%function
	.code	16                      @ @RCC_PLLSAICmd
	.thumb_func
RCC_PLLSAICmd:
.Lfunc_begin13:
	.loc	2 803 0                 @ ../Libraries/STM32F4xx_StdPeriph_Driver/src/stm32f4xx_rcc.c:803:0
	.fnstart
	.cfi_startproc
@ %bb.0:
	@DEBUG_VALUE: RCC_PLLSAICmd:NewState <- $r0
	movs	r1, #112
	movt	r1, #16967
	@DEBUG_VALUE: RCC_PLLSAICmd:NewState <- $r0
.Ltmp52:
	.loc	2 806 37 prologue_end   @ ../Libraries/STM32F4xx_StdPeriph_Driver/src/stm32f4xx_rcc.c:806:37
	str	r0, [r1]
	.loc	2 807 1                 @ ../Libraries/STM32F4xx_StdPeriph_Driver/src/stm32f4xx_rcc.c:807:1
	bx	lr
.Ltmp53:
.Lfunc_end13:
	.size	RCC_PLLSAICmd, .Lfunc_end13-RCC_PLLSAICmd
	.cfi_endproc
	.cantunwind
	.fnend
                                        @ -- End function
	.section	.text.RCC_ClockSecuritySystemCmd,"ax",%progbits
	.hidden	RCC_ClockSecuritySystemCmd @ -- Begin function RCC_ClockSecuritySystemCmd
	.globl	RCC_ClockSecuritySystemCmd
	.p2align	1
	.type	RCC_ClockSecuritySystemCmd,%function
	.code	16                      @ @RCC_ClockSecuritySystemCmd
	.thumb_func
RCC_ClockSecuritySystemCmd:
.Lfunc_begin14:
	.loc	2 821 0                 @ ../Libraries/STM32F4xx_StdPeriph_Driver/src/stm32f4xx_rcc.c:821:0
	.fnstart
	.cfi_startproc
@ %bb.0:
	@DEBUG_VALUE: RCC_ClockSecuritySystemCmd:NewState <- $r0
	movs	r1, #76
	movt	r1, #16967
	@DEBUG_VALUE: RCC_ClockSecuritySystemCmd:NewState <- $r0
.Ltmp54:
	.loc	2 824 34 prologue_end   @ ../Libraries/STM32F4xx_StdPeriph_Driver/src/stm32f4xx_rcc.c:824:34
	str	r0, [r1]
	.loc	2 825 1                 @ ../Libraries/STM32F4xx_StdPeriph_Driver/src/stm32f4xx_rcc.c:825:1
	bx	lr
.Ltmp55:
.Lfunc_end14:
	.size	RCC_ClockSecuritySystemCmd, .Lfunc_end14-RCC_ClockSecuritySystemCmd
	.cfi_endproc
	.cantunwind
	.fnend
                                        @ -- End function
	.section	.text.RCC_MCO1Config,"ax",%progbits
	.hidden	RCC_MCO1Config          @ -- Begin function RCC_MCO1Config
	.globl	RCC_MCO1Config
	.p2align	1
	.type	RCC_MCO1Config,%function
	.code	16                      @ @RCC_MCO1Config
	.thumb_func
RCC_MCO1Config:
.Lfunc_begin15:
	.loc	2 846 0                 @ ../Libraries/STM32F4xx_StdPeriph_Driver/src/stm32f4xx_rcc.c:846:0
	.fnstart
	.cfi_startproc
@ %bb.0:
	@DEBUG_VALUE: RCC_MCO1Config:RCC_MCO1Source <- $r0
	@DEBUG_VALUE: RCC_MCO1Config:RCC_MCO1Source <- $r0
	@DEBUG_VALUE: RCC_MCO1Config:RCC_MCO1Div <- $r1
	@DEBUG_VALUE: RCC_MCO1Config:RCC_MCO1Div <- $r1
	@DEBUG_VALUE: RCC_MCO1Config:tmpreg <- 0
	.loc	2 859 28 prologue_end   @ ../Libraries/STM32F4xx_StdPeriph_Driver/src/stm32f4xx_rcc.c:859:28
	orrs	r0, r1
.Ltmp56:
	.loc	2 0 28 is_stmt 0        @ ../Libraries/STM32F4xx_StdPeriph_Driver/src/stm32f4xx_rcc.c:0:28
	movw	r1, #14344
.Ltmp57:
	movt	r1, #16386
	.loc	2 853 17 is_stmt 1      @ ../Libraries/STM32F4xx_StdPeriph_Driver/src/stm32f4xx_rcc.c:853:17
	ldr	r2, [r1]
.Ltmp58:
	@DEBUG_VALUE: RCC_MCO1Config:tmpreg <- $r2
	.loc	2 856 10                @ ../Libraries/STM32F4xx_StdPeriph_Driver/src/stm32f4xx_rcc.c:856:10
	bic	r2, r2, #123731968
.Ltmp59:
	@DEBUG_VALUE: RCC_MCO1Config:tmpreg <- $r2
	.loc	2 859 10                @ ../Libraries/STM32F4xx_StdPeriph_Driver/src/stm32f4xx_rcc.c:859:10
	orrs	r0, r2
.Ltmp60:
	@DEBUG_VALUE: RCC_MCO1Config:tmpreg <- $r0
	.loc	2 862 13                @ ../Libraries/STM32F4xx_StdPeriph_Driver/src/stm32f4xx_rcc.c:862:13
	str	r0, [r1]
	.loc	2 863 1                 @ ../Libraries/STM32F4xx_StdPeriph_Driver/src/stm32f4xx_rcc.c:863:1
	bx	lr
.Ltmp61:
.Lfunc_end15:
	.size	RCC_MCO1Config, .Lfunc_end15-RCC_MCO1Config
	.cfi_endproc
	.cantunwind
	.fnend
                                        @ -- End function
	.section	.text.RCC_MCO2Config,"ax",%progbits
	.hidden	RCC_MCO2Config          @ -- Begin function RCC_MCO2Config
	.globl	RCC_MCO2Config
	.p2align	1
	.type	RCC_MCO2Config,%function
	.code	16                      @ @RCC_MCO2Config
	.thumb_func
RCC_MCO2Config:
.Lfunc_begin16:
	.loc	2 884 0                 @ ../Libraries/STM32F4xx_StdPeriph_Driver/src/stm32f4xx_rcc.c:884:0
	.fnstart
	.cfi_startproc
@ %bb.0:
	@DEBUG_VALUE: RCC_MCO2Config:RCC_MCO2Source <- $r0
	@DEBUG_VALUE: RCC_MCO2Config:RCC_MCO2Source <- $r0
	@DEBUG_VALUE: RCC_MCO2Config:RCC_MCO2Div <- $r1
	@DEBUG_VALUE: RCC_MCO2Config:RCC_MCO2Div <- $r1
	@DEBUG_VALUE: RCC_MCO2Config:tmpreg <- 0
	.loc	2 897 28 prologue_end   @ ../Libraries/STM32F4xx_StdPeriph_Driver/src/stm32f4xx_rcc.c:897:28
	orrs	r0, r1
.Ltmp62:
	.loc	2 0 28 is_stmt 0        @ ../Libraries/STM32F4xx_StdPeriph_Driver/src/stm32f4xx_rcc.c:0:28
	movw	r1, #14344
.Ltmp63:
	movt	r1, #16386
	.loc	2 891 17 is_stmt 1      @ ../Libraries/STM32F4xx_StdPeriph_Driver/src/stm32f4xx_rcc.c:891:17
	ldr	r2, [r1]
.Ltmp64:
	@DEBUG_VALUE: RCC_MCO2Config:tmpreg <- $r2
	.loc	2 894 10                @ ../Libraries/STM32F4xx_StdPeriph_Driver/src/stm32f4xx_rcc.c:894:10
	bic	r2, r2, #-134217728
.Ltmp65:
	@DEBUG_VALUE: RCC_MCO2Config:tmpreg <- $r2
	.loc	2 897 10                @ ../Libraries/STM32F4xx_StdPeriph_Driver/src/stm32f4xx_rcc.c:897:10
	orrs	r0, r2
.Ltmp66:
	@DEBUG_VALUE: RCC_MCO2Config:tmpreg <- $r0
	.loc	2 900 13                @ ../Libraries/STM32F4xx_StdPeriph_Driver/src/stm32f4xx_rcc.c:900:13
	str	r0, [r1]
	.loc	2 901 1                 @ ../Libraries/STM32F4xx_StdPeriph_Driver/src/stm32f4xx_rcc.c:901:1
	bx	lr
.Ltmp67:
.Lfunc_end16:
	.size	RCC_MCO2Config, .Lfunc_end16-RCC_MCO2Config
	.cfi_endproc
	.cantunwind
	.fnend
                                        @ -- End function
	.section	.text.RCC_SYSCLKConfig,"ax",%progbits
	.hidden	RCC_SYSCLKConfig        @ -- Begin function RCC_SYSCLKConfig
	.globl	RCC_SYSCLKConfig
	.p2align	1
	.type	RCC_SYSCLKConfig,%function
	.code	16                      @ @RCC_SYSCLKConfig
	.thumb_func
RCC_SYSCLKConfig:
.Lfunc_begin17:
	.loc	2 1080 0                @ ../Libraries/STM32F4xx_StdPeriph_Driver/src/stm32f4xx_rcc.c:1080:0
	.fnstart
	.cfi_startproc
@ %bb.0:
	@DEBUG_VALUE: RCC_SYSCLKConfig:RCC_SYSCLKSource <- $r0
	movw	r1, #14344
	movt	r1, #16386
.Ltmp68:
	@DEBUG_VALUE: RCC_SYSCLKConfig:tmpreg <- 0
	@DEBUG_VALUE: RCC_SYSCLKConfig:RCC_SYSCLKSource <- $r0
	.loc	2 1086 17 prologue_end  @ ../Libraries/STM32F4xx_StdPeriph_Driver/src/stm32f4xx_rcc.c:1086:17
	ldr	r2, [r1]
.Ltmp69:
	@DEBUG_VALUE: RCC_SYSCLKConfig:tmpreg <- $r2
	.loc	2 1089 10               @ ../Libraries/STM32F4xx_StdPeriph_Driver/src/stm32f4xx_rcc.c:1089:10
	bic	r2, r2, #3
.Ltmp70:
	@DEBUG_VALUE: RCC_SYSCLKConfig:tmpreg <- $r2
	.loc	2 1092 10               @ ../Libraries/STM32F4xx_StdPeriph_Driver/src/stm32f4xx_rcc.c:1092:10
	orrs	r0, r2
.Ltmp71:
	@DEBUG_VALUE: RCC_SYSCLKConfig:tmpreg <- $r0
	.loc	2 1095 13               @ ../Libraries/STM32F4xx_StdPeriph_Driver/src/stm32f4xx_rcc.c:1095:13
	str	r0, [r1]
	.loc	2 1096 1                @ ../Libraries/STM32F4xx_StdPeriph_Driver/src/stm32f4xx_rcc.c:1096:1
	bx	lr
.Ltmp72:
.Lfunc_end17:
	.size	RCC_SYSCLKConfig, .Lfunc_end17-RCC_SYSCLKConfig
	.cfi_endproc
	.cantunwind
	.fnend
                                        @ -- End function
	.section	.text.RCC_GetSYSCLKSource,"ax",%progbits
	.hidden	RCC_GetSYSCLKSource     @ -- Begin function RCC_GetSYSCLKSource
	.globl	RCC_GetSYSCLKSource
	.p2align	1
	.type	RCC_GetSYSCLKSource,%function
	.code	16                      @ @RCC_GetSYSCLKSource
	.thumb_func
RCC_GetSYSCLKSource:
.Lfunc_begin18:
	.loc	2 1109 0                @ ../Libraries/STM32F4xx_StdPeriph_Driver/src/stm32f4xx_rcc.c:1109:0
	.fnstart
	.cfi_startproc
@ %bb.0:
	movw	r0, #14344
	movt	r0, #16386
.Ltmp73:
	.loc	2 1110 26 prologue_end  @ ../Libraries/STM32F4xx_StdPeriph_Driver/src/stm32f4xx_rcc.c:1110:26
	ldr	r0, [r0]
	.loc	2 1110 3 is_stmt 0      @ ../Libraries/STM32F4xx_StdPeriph_Driver/src/stm32f4xx_rcc.c:1110:3
	and	r0, r0, #12
	bx	lr
.Ltmp74:
.Lfunc_end18:
	.size	RCC_GetSYSCLKSource, .Lfunc_end18-RCC_GetSYSCLKSource
	.cfi_endproc
	.cantunwind
	.fnend
                                        @ -- End function
	.section	.text.RCC_HCLKConfig,"ax",%progbits
	.hidden	RCC_HCLKConfig          @ -- Begin function RCC_HCLKConfig
	.globl	RCC_HCLKConfig
	.p2align	1
	.type	RCC_HCLKConfig,%function
	.code	16                      @ @RCC_HCLKConfig
	.thumb_func
RCC_HCLKConfig:
.Lfunc_begin19:
	.loc	2 1134 0 is_stmt 1      @ ../Libraries/STM32F4xx_StdPeriph_Driver/src/stm32f4xx_rcc.c:1134:0
	.fnstart
	.cfi_startproc
@ %bb.0:
	@DEBUG_VALUE: RCC_HCLKConfig:RCC_SYSCLK <- $r0
	movw	r1, #14344
	movt	r1, #16386
.Ltmp75:
	@DEBUG_VALUE: RCC_HCLKConfig:tmpreg <- 0
	@DEBUG_VALUE: RCC_HCLKConfig:RCC_SYSCLK <- $r0
	.loc	2 1140 17 prologue_end  @ ../Libraries/STM32F4xx_StdPeriph_Driver/src/stm32f4xx_rcc.c:1140:17
	ldr	r2, [r1]
.Ltmp76:
	@DEBUG_VALUE: RCC_HCLKConfig:tmpreg <- $r2
	.loc	2 1143 10               @ ../Libraries/STM32F4xx_StdPeriph_Driver/src/stm32f4xx_rcc.c:1143:10
	bic	r2, r2, #240
.Ltmp77:
	@DEBUG_VALUE: RCC_HCLKConfig:tmpreg <- $r2
	.loc	2 1146 10               @ ../Libraries/STM32F4xx_StdPeriph_Driver/src/stm32f4xx_rcc.c:1146:10
	orrs	r0, r2
.Ltmp78:
	@DEBUG_VALUE: RCC_HCLKConfig:tmpreg <- $r0
	.loc	2 1149 13               @ ../Libraries/STM32F4xx_StdPeriph_Driver/src/stm32f4xx_rcc.c:1149:13
	str	r0, [r1]
	.loc	2 1150 1                @ ../Libraries/STM32F4xx_StdPeriph_Driver/src/stm32f4xx_rcc.c:1150:1
	bx	lr
.Ltmp79:
.Lfunc_end19:
	.size	RCC_HCLKConfig, .Lfunc_end19-RCC_HCLKConfig
	.cfi_endproc
	.cantunwind
	.fnend
                                        @ -- End function
	.section	.text.RCC_PCLK1Config,"ax",%progbits
	.hidden	RCC_PCLK1Config         @ -- Begin function RCC_PCLK1Config
	.globl	RCC_PCLK1Config
	.p2align	1
	.type	RCC_PCLK1Config,%function
	.code	16                      @ @RCC_PCLK1Config
	.thumb_func
RCC_PCLK1Config:
.Lfunc_begin20:
	.loc	2 1166 0                @ ../Libraries/STM32F4xx_StdPeriph_Driver/src/stm32f4xx_rcc.c:1166:0
	.fnstart
	.cfi_startproc
@ %bb.0:
	@DEBUG_VALUE: RCC_PCLK1Config:RCC_HCLK <- $r0
	movw	r1, #14344
	movt	r1, #16386
.Ltmp80:
	@DEBUG_VALUE: RCC_PCLK1Config:tmpreg <- 0
	@DEBUG_VALUE: RCC_PCLK1Config:RCC_HCLK <- $r0
	.loc	2 1172 17 prologue_end  @ ../Libraries/STM32F4xx_StdPeriph_Driver/src/stm32f4xx_rcc.c:1172:17
	ldr	r2, [r1]
.Ltmp81:
	@DEBUG_VALUE: RCC_PCLK1Config:tmpreg <- $r2
	.loc	2 1175 10               @ ../Libraries/STM32F4xx_StdPeriph_Driver/src/stm32f4xx_rcc.c:1175:10
	bic	r2, r2, #7168
.Ltmp82:
	@DEBUG_VALUE: RCC_PCLK1Config:tmpreg <- $r2
	.loc	2 1178 10               @ ../Libraries/STM32F4xx_StdPeriph_Driver/src/stm32f4xx_rcc.c:1178:10
	orrs	r0, r2
.Ltmp83:
	@DEBUG_VALUE: RCC_PCLK1Config:tmpreg <- $r0
	.loc	2 1181 13               @ ../Libraries/STM32F4xx_StdPeriph_Driver/src/stm32f4xx_rcc.c:1181:13
	str	r0, [r1]
	.loc	2 1182 1                @ ../Libraries/STM32F4xx_StdPeriph_Driver/src/stm32f4xx_rcc.c:1182:1
	bx	lr
.Ltmp84:
.Lfunc_end20:
	.size	RCC_PCLK1Config, .Lfunc_end20-RCC_PCLK1Config
	.cfi_endproc
	.cantunwind
	.fnend
                                        @ -- End function
	.section	.text.RCC_PCLK2Config,"ax",%progbits
	.hidden	RCC_PCLK2Config         @ -- Begin function RCC_PCLK2Config
	.globl	RCC_PCLK2Config
	.p2align	1
	.type	RCC_PCLK2Config,%function
	.code	16                      @ @RCC_PCLK2Config
	.thumb_func
RCC_PCLK2Config:
.Lfunc_begin21:
	.loc	2 1197 0                @ ../Libraries/STM32F4xx_StdPeriph_Driver/src/stm32f4xx_rcc.c:1197:0
	.fnstart
	.cfi_startproc
@ %bb.0:
	@DEBUG_VALUE: RCC_PCLK2Config:RCC_HCLK <- $r0
	movw	r1, #14344
	movt	r1, #16386
.Ltmp85:
	@DEBUG_VALUE: RCC_PCLK2Config:tmpreg <- 0
	@DEBUG_VALUE: RCC_PCLK2Config:RCC_HCLK <- $r0
	.loc	2 1203 17 prologue_end  @ ../Libraries/STM32F4xx_StdPeriph_Driver/src/stm32f4xx_rcc.c:1203:17
	ldr	r2, [r1]
.Ltmp86:
	@DEBUG_VALUE: RCC_PCLK2Config:tmpreg <- $r2
	.loc	2 1206 10               @ ../Libraries/STM32F4xx_StdPeriph_Driver/src/stm32f4xx_rcc.c:1206:10
	bic	r2, r2, #57344
.Ltmp87:
	@DEBUG_VALUE: RCC_PCLK2Config:tmpreg <- $r2
	.loc	2 1209 10               @ ../Libraries/STM32F4xx_StdPeriph_Driver/src/stm32f4xx_rcc.c:1209:10
	orr.w	r0, r2, r0, lsl #3
.Ltmp88:
	@DEBUG_VALUE: RCC_PCLK2Config:tmpreg <- $r0
	.loc	2 1212 13               @ ../Libraries/STM32F4xx_StdPeriph_Driver/src/stm32f4xx_rcc.c:1212:13
	str	r0, [r1]
	.loc	2 1213 1                @ ../Libraries/STM32F4xx_StdPeriph_Driver/src/stm32f4xx_rcc.c:1213:1
	bx	lr
.Ltmp89:
.Lfunc_end21:
	.size	RCC_PCLK2Config, .Lfunc_end21-RCC_PCLK2Config
	.cfi_endproc
	.cantunwind
	.fnend
                                        @ -- End function
	.section	.text.RCC_GetClocksFreq,"ax",%progbits
	.hidden	RCC_GetClocksFreq       @ -- Begin function RCC_GetClocksFreq
	.globl	RCC_GetClocksFreq
	.p2align	1
	.type	RCC_GetClocksFreq,%function
	.code	16                      @ @RCC_GetClocksFreq
	.thumb_func
RCC_GetClocksFreq:
.Lfunc_begin22:
	.loc	2 1249 0                @ ../Libraries/STM32F4xx_StdPeriph_Driver/src/stm32f4xx_rcc.c:1249:0
	.fnstart
	.cfi_startproc
@ %bb.0:
	.save	{r7, lr}
	push	{r7, lr}
	.cfi_def_cfa_offset 8
	.cfi_offset lr, -4
	.cfi_offset r7, -8
	@DEBUG_VALUE: RCC_GetClocksFreq:RCC_Clocks <- $r0
	movw	lr, #14340
	movt	lr, #16386
.Ltmp90:
	@DEBUG_VALUE: RCC_GetClocksFreq:pllm <- 2
	@DEBUG_VALUE: RCC_GetClocksFreq:pllsource <- 0
	@DEBUG_VALUE: RCC_GetClocksFreq:pllp <- 2
	@DEBUG_VALUE: RCC_GetClocksFreq:pllvco <- 0
	@DEBUG_VALUE: RCC_GetClocksFreq:presc <- 0
	@DEBUG_VALUE: RCC_GetClocksFreq:tmp <- 0
	@DEBUG_VALUE: RCC_GetClocksFreq:RCC_Clocks <- $r0
	.loc	2 1256 14 prologue_end  @ ../Libraries/STM32F4xx_StdPeriph_Driver/src/stm32f4xx_rcc.c:1256:14
	ldr.w	r2, [lr, #4]
	.loc	2 1256 19 is_stmt 0     @ ../Libraries/STM32F4xx_StdPeriph_Driver/src/stm32f4xx_rcc.c:1256:19
	and	r3, r2, #12
.Ltmp91:
	@DEBUG_VALUE: RCC_GetClocksFreq:tmp <- $r3
	.loc	2 0 19                  @ ../Libraries/STM32F4xx_StdPeriph_Driver/src/stm32f4xx_rcc.c:0:19
	movw	r2, #9216
	movt	r2, #244
	.loc	2 1258 3 is_stmt 1      @ ../Libraries/STM32F4xx_StdPeriph_Driver/src/stm32f4xx_rcc.c:1258:3
	cmp	r3, #8
	beq	.LBB22_3
.Ltmp92:
@ %bb.1:
	@DEBUG_VALUE: RCC_GetClocksFreq:tmp <- $r3
	@DEBUG_VALUE: RCC_GetClocksFreq:RCC_Clocks <- $r0
	cmp	r3, #4
	bne	.LBB22_4
.Ltmp93:
@ %bb.2:
	@DEBUG_VALUE: RCC_GetClocksFreq:tmp <- $r3
	@DEBUG_VALUE: RCC_GetClocksFreq:RCC_Clocks <- $r0
	.loc	2 0 3 is_stmt 0         @ ../Libraries/STM32F4xx_StdPeriph_Driver/src/stm32f4xx_rcc.c:0:3
	movw	r2, #13824
	movt	r2, #366
	b	.LBB22_4
.Ltmp94:
.LBB22_3:
	@DEBUG_VALUE: RCC_GetClocksFreq:tmp <- $r3
	@DEBUG_VALUE: RCC_GetClocksFreq:RCC_Clocks <- $r0
	.loc	2 1271 23 is_stmt 1     @ ../Libraries/STM32F4xx_StdPeriph_Driver/src/stm32f4xx_rcc.c:1271:23
	ldr.w	r3, [lr]
.Ltmp95:
	.loc	2 1274 9                @ ../Libraries/STM32F4xx_StdPeriph_Driver/src/stm32f4xx_rcc.c:1274:9
	lsls	r3, r3, #9
	movw	r3, #13824
	movt	r3, #366
	it	pl
	movpl	r3, r2
.Ltmp96:
	@DEBUG_VALUE: RCC_GetClocksFreq:pllsource <- undef
	.loc	2 1272 17               @ ../Libraries/STM32F4xx_StdPeriph_Driver/src/stm32f4xx_rcc.c:1272:17
	ldr.w	r2, [lr]
	.loc	2 1272 25 is_stmt 0     @ ../Libraries/STM32F4xx_StdPeriph_Driver/src/stm32f4xx_rcc.c:1272:25
	and	r2, r2, #63
.Ltmp97:
	@DEBUG_VALUE: RCC_GetClocksFreq:pllm <- $r2
	.loc	2 0 0                   @ ../Libraries/STM32F4xx_StdPeriph_Driver/src/stm32f4xx_rcc.c:0:0
	udiv	r2, r3, r2
.Ltmp98:
	ldr.w	r3, [lr]
	ubfx	r3, r3, #6, #9
	mul	r12, r3, r2
.Ltmp99:
	@DEBUG_VALUE: RCC_GetClocksFreq:pllvco <- $r12
	.loc	2 1285 20 is_stmt 1     @ ../Libraries/STM32F4xx_StdPeriph_Driver/src/stm32f4xx_rcc.c:1285:20
	ldr.w	r3, [lr]
	movs	r2, #2
	.loc	2 1285 60 is_stmt 0     @ ../Libraries/STM32F4xx_StdPeriph_Driver/src/stm32f4xx_rcc.c:1285:60
	ubfx	r3, r3, #16, #2
	add.w	r2, r2, r3, lsl #1
.Ltmp100:
	@DEBUG_VALUE: RCC_GetClocksFreq:pllp <- $r2
	.loc	2 1286 42 is_stmt 1     @ ../Libraries/STM32F4xx_StdPeriph_Driver/src/stm32f4xx_rcc.c:1286:42
	udiv	r2, r12, r2
.Ltmp101:
.LBB22_4:
	@DEBUG_VALUE: RCC_GetClocksFreq:RCC_Clocks <- $r0
	.loc	2 0 0 is_stmt 0         @ ../Libraries/STM32F4xx_StdPeriph_Driver/src/stm32f4xx_rcc.c:0:0
	str	r2, [r0]
.Ltmp102:
	.loc	2 1322 11 is_stmt 1     @ ../Libraries/STM32F4xx_StdPeriph_Driver/src/stm32f4xx_rcc.c:1322:11
	movw	r1, :lower16:APBAHBPrescTable
	.loc	2 1320 14               @ ../Libraries/STM32F4xx_StdPeriph_Driver/src/stm32f4xx_rcc.c:1320:14
	ldr.w	r3, [lr, #4]
.Ltmp103:
	@DEBUG_VALUE: RCC_GetClocksFreq:tmp <- [DW_OP_constu 240, DW_OP_and, DW_OP_stack_value] $r3
	.loc	2 1322 11               @ ../Libraries/STM32F4xx_StdPeriph_Driver/src/stm32f4xx_rcc.c:1322:11
	movt	r1, :upper16:APBAHBPrescTable
	.loc	2 1321 13               @ ../Libraries/STM32F4xx_StdPeriph_Driver/src/stm32f4xx_rcc.c:1321:13
	ubfx	r3, r3, #4, #4
.Ltmp104:
	@DEBUG_VALUE: RCC_GetClocksFreq:tmp <- $r3
	.loc	2 1322 11               @ ../Libraries/STM32F4xx_StdPeriph_Driver/src/stm32f4xx_rcc.c:1322:11
	ldrb	r3, [r1, r3]
.Ltmp105:
	@DEBUG_VALUE: RCC_GetClocksFreq:presc <- $r3
	.loc	2 1324 61               @ ../Libraries/STM32F4xx_StdPeriph_Driver/src/stm32f4xx_rcc.c:1324:61
	lsrs	r2, r3
	.loc	2 1324 30 is_stmt 0     @ ../Libraries/STM32F4xx_StdPeriph_Driver/src/stm32f4xx_rcc.c:1324:30
	str	r2, [r0, #4]
	.loc	2 1327 14 is_stmt 1     @ ../Libraries/STM32F4xx_StdPeriph_Driver/src/stm32f4xx_rcc.c:1327:14
	ldr.w	r3, [lr, #4]
.Ltmp106:
	@DEBUG_VALUE: RCC_GetClocksFreq:tmp <- [DW_OP_constu 7168, DW_OP_and, DW_OP_stack_value] $r3
	.loc	2 1328 13               @ ../Libraries/STM32F4xx_StdPeriph_Driver/src/stm32f4xx_rcc.c:1328:13
	ubfx	r3, r3, #10, #3
.Ltmp107:
	@DEBUG_VALUE: RCC_GetClocksFreq:tmp <- $r3
	.loc	2 1329 11               @ ../Libraries/STM32F4xx_StdPeriph_Driver/src/stm32f4xx_rcc.c:1329:11
	ldrb	r3, [r1, r3]
.Ltmp108:
	@DEBUG_VALUE: RCC_GetClocksFreq:presc <- $r3
	.loc	2 1331 60               @ ../Libraries/STM32F4xx_StdPeriph_Driver/src/stm32f4xx_rcc.c:1331:60
	lsr.w	r3, r2, r3
.Ltmp109:
	.loc	2 1331 31 is_stmt 0     @ ../Libraries/STM32F4xx_StdPeriph_Driver/src/stm32f4xx_rcc.c:1331:31
	str	r3, [r0, #8]
	.loc	2 1334 14 is_stmt 1     @ ../Libraries/STM32F4xx_StdPeriph_Driver/src/stm32f4xx_rcc.c:1334:14
	ldr.w	r3, [lr, #4]
.Ltmp110:
	@DEBUG_VALUE: RCC_GetClocksFreq:tmp <- [DW_OP_constu 57344, DW_OP_and, DW_OP_stack_value] $r3
	.loc	2 1335 13               @ ../Libraries/STM32F4xx_StdPeriph_Driver/src/stm32f4xx_rcc.c:1335:13
	ubfx	r3, r3, #13, #3
.Ltmp111:
	@DEBUG_VALUE: RCC_GetClocksFreq:tmp <- $r3
	.loc	2 1336 11               @ ../Libraries/STM32F4xx_StdPeriph_Driver/src/stm32f4xx_rcc.c:1336:11
	ldrb	r1, [r1, r3]
.Ltmp112:
	@DEBUG_VALUE: RCC_GetClocksFreq:presc <- $r1
	.loc	2 1338 60               @ ../Libraries/STM32F4xx_StdPeriph_Driver/src/stm32f4xx_rcc.c:1338:60
	lsr.w	r1, r2, r1
.Ltmp113:
	.loc	2 1338 31 is_stmt 0     @ ../Libraries/STM32F4xx_StdPeriph_Driver/src/stm32f4xx_rcc.c:1338:31
	str	r1, [r0, #12]
	.loc	2 1339 1 is_stmt 1      @ ../Libraries/STM32F4xx_StdPeriph_Driver/src/stm32f4xx_rcc.c:1339:1
	pop	{r7, pc}
.Ltmp114:
.Lfunc_end22:
	.size	RCC_GetClocksFreq, .Lfunc_end22-RCC_GetClocksFreq
	.cfi_endproc
	.cantunwind
	.fnend
                                        @ -- End function
	.section	.text.RCC_RTCCLKConfig,"ax",%progbits
	.hidden	RCC_RTCCLKConfig        @ -- Begin function RCC_RTCCLKConfig
	.globl	RCC_RTCCLKConfig
	.p2align	1
	.type	RCC_RTCCLKConfig,%function
	.code	16                      @ @RCC_RTCCLKConfig
	.thumb_func
RCC_RTCCLKConfig:
.Lfunc_begin23:
	.loc	2 1402 0                @ ../Libraries/STM32F4xx_StdPeriph_Driver/src/stm32f4xx_rcc.c:1402:0
	.fnstart
	.cfi_startproc
@ %bb.0:
	@DEBUG_VALUE: RCC_RTCCLKConfig:RCC_RTCCLKSource <- $r0
	@DEBUG_VALUE: RCC_RTCCLKConfig:RCC_RTCCLKSource <- $r0
	@DEBUG_VALUE: RCC_RTCCLKConfig:tmpreg <- 0
	movw	r1, #14344
.Ltmp115:
	.loc	2 1408 25 prologue_end  @ ../Libraries/STM32F4xx_StdPeriph_Driver/src/stm32f4xx_rcc.c:1408:25
	and	r2, r0, #768
	movt	r1, #16386
.Ltmp116:
	.loc	2 1408 7 is_stmt 0      @ ../Libraries/STM32F4xx_StdPeriph_Driver/src/stm32f4xx_rcc.c:1408:7
	cmp.w	r2, #768
	bne	.LBB23_2
.Ltmp117:
@ %bb.1:
	@DEBUG_VALUE: RCC_RTCCLKConfig:RCC_RTCCLKSource <- $r0
	.loc	2 0 7                   @ ../Libraries/STM32F4xx_StdPeriph_Driver/src/stm32f4xx_rcc.c:0:7
	movw	r2, #64767
.Ltmp118:
	.loc	2 1410 19 is_stmt 1     @ ../Libraries/STM32F4xx_StdPeriph_Driver/src/stm32f4xx_rcc.c:1410:19
	ldr	r3, [r1]
.Ltmp119:
	@DEBUG_VALUE: RCC_RTCCLKConfig:tmpreg <- $r3
	.loc	2 0 19 is_stmt 0        @ ../Libraries/STM32F4xx_StdPeriph_Driver/src/stm32f4xx_rcc.c:0:19
	movt	r2, #4095
	.loc	2 1416 33 is_stmt 1     @ ../Libraries/STM32F4xx_StdPeriph_Driver/src/stm32f4xx_rcc.c:1416:33
	ands	r2, r0
	.loc	2 1413 12               @ ../Libraries/STM32F4xx_StdPeriph_Driver/src/stm32f4xx_rcc.c:1413:12
	bic	r3, r3, #2031616
.Ltmp120:
	@DEBUG_VALUE: RCC_RTCCLKConfig:tmpreg <- $r3
	.loc	2 1416 12               @ ../Libraries/STM32F4xx_StdPeriph_Driver/src/stm32f4xx_rcc.c:1416:12
	orrs	r2, r3
.Ltmp121:
	@DEBUG_VALUE: RCC_RTCCLKConfig:tmpreg <- $r2
	.loc	2 1419 15               @ ../Libraries/STM32F4xx_StdPeriph_Driver/src/stm32f4xx_rcc.c:1419:15
	str	r2, [r1]
.Ltmp122:
.LBB23_2:
	@DEBUG_VALUE: RCC_RTCCLKConfig:RCC_RTCCLKSource <- $r0
	.loc	2 1423 13               @ ../Libraries/STM32F4xx_StdPeriph_Driver/src/stm32f4xx_rcc.c:1423:13
	ldr	r2, [r1, #104]
	.loc	2 1423 34 is_stmt 0     @ ../Libraries/STM32F4xx_StdPeriph_Driver/src/stm32f4xx_rcc.c:1423:34
	bfc	r0, #12, #20
.Ltmp123:
	.loc	2 1423 13               @ ../Libraries/STM32F4xx_StdPeriph_Driver/src/stm32f4xx_rcc.c:1423:13
	orrs	r0, r2
	str	r0, [r1, #104]
	.loc	2 1424 1 is_stmt 1      @ ../Libraries/STM32F4xx_StdPeriph_Driver/src/stm32f4xx_rcc.c:1424:1
	bx	lr
.Ltmp124:
.Lfunc_end23:
	.size	RCC_RTCCLKConfig, .Lfunc_end23-RCC_RTCCLKConfig
	.cfi_endproc
	.cantunwind
	.fnend
                                        @ -- End function
	.section	.text.RCC_RTCCLKCmd,"ax",%progbits
	.hidden	RCC_RTCCLKCmd           @ -- Begin function RCC_RTCCLKCmd
	.globl	RCC_RTCCLKCmd
	.p2align	1
	.type	RCC_RTCCLKCmd,%function
	.code	16                      @ @RCC_RTCCLKCmd
	.thumb_func
RCC_RTCCLKCmd:
.Lfunc_begin24:
	.loc	2 1434 0                @ ../Libraries/STM32F4xx_StdPeriph_Driver/src/stm32f4xx_rcc.c:1434:0
	.fnstart
	.cfi_startproc
@ %bb.0:
	@DEBUG_VALUE: RCC_RTCCLKCmd:NewState <- $r0
	movw	r1, #3644
	movt	r1, #16967
	@DEBUG_VALUE: RCC_RTCCLKCmd:NewState <- $r0
.Ltmp125:
	.loc	2 1438 36 prologue_end  @ ../Libraries/STM32F4xx_StdPeriph_Driver/src/stm32f4xx_rcc.c:1438:36
	str	r0, [r1]
	.loc	2 1439 1                @ ../Libraries/STM32F4xx_StdPeriph_Driver/src/stm32f4xx_rcc.c:1439:1
	bx	lr
.Ltmp126:
.Lfunc_end24:
	.size	RCC_RTCCLKCmd, .Lfunc_end24-RCC_RTCCLKCmd
	.cfi_endproc
	.cantunwind
	.fnend
                                        @ -- End function
	.section	.text.RCC_BackupResetCmd,"ax",%progbits
	.hidden	RCC_BackupResetCmd      @ -- Begin function RCC_BackupResetCmd
	.globl	RCC_BackupResetCmd
	.p2align	1
	.type	RCC_BackupResetCmd,%function
	.code	16                      @ @RCC_BackupResetCmd
	.thumb_func
RCC_BackupResetCmd:
.Lfunc_begin25:
	.loc	2 1451 0                @ ../Libraries/STM32F4xx_StdPeriph_Driver/src/stm32f4xx_rcc.c:1451:0
	.fnstart
	.cfi_startproc
@ %bb.0:
	@DEBUG_VALUE: RCC_BackupResetCmd:NewState <- $r0
	movw	r1, #3648
	movt	r1, #16967
	@DEBUG_VALUE: RCC_BackupResetCmd:NewState <- $r0
.Ltmp127:
	.loc	2 1454 36 prologue_end  @ ../Libraries/STM32F4xx_StdPeriph_Driver/src/stm32f4xx_rcc.c:1454:36
	str	r0, [r1]
	.loc	2 1455 1                @ ../Libraries/STM32F4xx_StdPeriph_Driver/src/stm32f4xx_rcc.c:1455:1
	bx	lr
.Ltmp128:
.Lfunc_end25:
	.size	RCC_BackupResetCmd, .Lfunc_end25-RCC_BackupResetCmd
	.cfi_endproc
	.cantunwind
	.fnend
                                        @ -- End function
	.section	.text.RCC_I2SCLKConfig,"ax",%progbits
	.hidden	RCC_I2SCLKConfig        @ -- Begin function RCC_I2SCLKConfig
	.globl	RCC_I2SCLKConfig
	.p2align	1
	.type	RCC_I2SCLKConfig,%function
	.code	16                      @ @RCC_I2SCLKConfig
	.thumb_func
RCC_I2SCLKConfig:
.Lfunc_begin26:
	.loc	2 1550 0                @ ../Libraries/STM32F4xx_StdPeriph_Driver/src/stm32f4xx_rcc.c:1550:0
	.fnstart
	.cfi_startproc
@ %bb.0:
	@DEBUG_VALUE: RCC_I2SCLKConfig:RCC_I2SCLKSource <- $r0
	movw	r1, #348
	movt	r1, #16967
	@DEBUG_VALUE: RCC_I2SCLKConfig:RCC_I2SCLKSource <- $r0
.Ltmp129:
	.loc	2 1554 37 prologue_end  @ ../Libraries/STM32F4xx_StdPeriph_Driver/src/stm32f4xx_rcc.c:1554:37
	str	r0, [r1]
	.loc	2 1555 1                @ ../Libraries/STM32F4xx_StdPeriph_Driver/src/stm32f4xx_rcc.c:1555:1
	bx	lr
.Ltmp130:
.Lfunc_end26:
	.size	RCC_I2SCLKConfig, .Lfunc_end26-RCC_I2SCLKConfig
	.cfi_endproc
	.cantunwind
	.fnend
                                        @ -- End function
	.section	.text.RCC_SAIBlockACLKConfig,"ax",%progbits
	.hidden	RCC_SAIBlockACLKConfig  @ -- Begin function RCC_SAIBlockACLKConfig
	.globl	RCC_SAIBlockACLKConfig
	.p2align	1
	.type	RCC_SAIBlockACLKConfig,%function
	.code	16                      @ @RCC_SAIBlockACLKConfig
	.thumb_func
RCC_SAIBlockACLKConfig:
.Lfunc_begin27:
	.loc	2 1575 0                @ ../Libraries/STM32F4xx_StdPeriph_Driver/src/stm32f4xx_rcc.c:1575:0
	.fnstart
	.cfi_startproc
@ %bb.0:
	@DEBUG_VALUE: RCC_SAIBlockACLKConfig:RCC_SAIBlockACLKSource <- $r0
	movw	r1, #14476
	movt	r1, #16386
.Ltmp131:
	@DEBUG_VALUE: RCC_SAIBlockACLKConfig:tmpreg <- 0
	@DEBUG_VALUE: RCC_SAIBlockACLKConfig:RCC_SAIBlockACLKSource <- $r0
	.loc	2 1581 17 prologue_end  @ ../Libraries/STM32F4xx_StdPeriph_Driver/src/stm32f4xx_rcc.c:1581:17
	ldr	r2, [r1]
.Ltmp132:
	@DEBUG_VALUE: RCC_SAIBlockACLKConfig:tmpreg <- $r2
	.loc	2 1584 10               @ ../Libraries/STM32F4xx_StdPeriph_Driver/src/stm32f4xx_rcc.c:1584:10
	bic	r2, r2, #3145728
.Ltmp133:
	@DEBUG_VALUE: RCC_SAIBlockACLKConfig:tmpreg <- $r2
	.loc	2 1587 10               @ ../Libraries/STM32F4xx_StdPeriph_Driver/src/stm32f4xx_rcc.c:1587:10
	orrs	r0, r2
.Ltmp134:
	@DEBUG_VALUE: RCC_SAIBlockACLKConfig:tmpreg <- $r0
	.loc	2 1590 16               @ ../Libraries/STM32F4xx_StdPeriph_Driver/src/stm32f4xx_rcc.c:1590:16
	str	r0, [r1]
	.loc	2 1591 1                @ ../Libraries/STM32F4xx_StdPeriph_Driver/src/stm32f4xx_rcc.c:1591:1
	bx	lr
.Ltmp135:
.Lfunc_end27:
	.size	RCC_SAIBlockACLKConfig, .Lfunc_end27-RCC_SAIBlockACLKConfig
	.cfi_endproc
	.cantunwind
	.fnend
                                        @ -- End function
	.section	.text.RCC_SAIBlockBCLKConfig,"ax",%progbits
	.hidden	RCC_SAIBlockBCLKConfig  @ -- Begin function RCC_SAIBlockBCLKConfig
	.globl	RCC_SAIBlockBCLKConfig
	.p2align	1
	.type	RCC_SAIBlockBCLKConfig,%function
	.code	16                      @ @RCC_SAIBlockBCLKConfig
	.thumb_func
RCC_SAIBlockBCLKConfig:
.Lfunc_begin28:
	.loc	2 1611 0                @ ../Libraries/STM32F4xx_StdPeriph_Driver/src/stm32f4xx_rcc.c:1611:0
	.fnstart
	.cfi_startproc
@ %bb.0:
	@DEBUG_VALUE: RCC_SAIBlockBCLKConfig:RCC_SAIBlockBCLKSource <- $r0
	movw	r1, #14476
	movt	r1, #16386
.Ltmp136:
	@DEBUG_VALUE: RCC_SAIBlockBCLKConfig:tmpreg <- 0
	@DEBUG_VALUE: RCC_SAIBlockBCLKConfig:RCC_SAIBlockBCLKSource <- $r0
	.loc	2 1617 17 prologue_end  @ ../Libraries/STM32F4xx_StdPeriph_Driver/src/stm32f4xx_rcc.c:1617:17
	ldr	r2, [r1]
.Ltmp137:
	@DEBUG_VALUE: RCC_SAIBlockBCLKConfig:tmpreg <- $r2
	.loc	2 1620 10               @ ../Libraries/STM32F4xx_StdPeriph_Driver/src/stm32f4xx_rcc.c:1620:10
	bic	r2, r2, #12582912
.Ltmp138:
	@DEBUG_VALUE: RCC_SAIBlockBCLKConfig:tmpreg <- $r2
	.loc	2 1623 10               @ ../Libraries/STM32F4xx_StdPeriph_Driver/src/stm32f4xx_rcc.c:1623:10
	orrs	r0, r2
.Ltmp139:
	@DEBUG_VALUE: RCC_SAIBlockBCLKConfig:tmpreg <- $r0
	.loc	2 1626 16               @ ../Libraries/STM32F4xx_StdPeriph_Driver/src/stm32f4xx_rcc.c:1626:16
	str	r0, [r1]
	.loc	2 1627 1                @ ../Libraries/STM32F4xx_StdPeriph_Driver/src/stm32f4xx_rcc.c:1627:1
	bx	lr
.Ltmp140:
.Lfunc_end28:
	.size	RCC_SAIBlockBCLKConfig, .Lfunc_end28-RCC_SAIBlockBCLKConfig
	.cfi_endproc
	.cantunwind
	.fnend
                                        @ -- End function
	.section	.text.RCC_SAIPLLI2SClkDivConfig,"ax",%progbits
	.hidden	RCC_SAIPLLI2SClkDivConfig @ -- Begin function RCC_SAIPLLI2SClkDivConfig
	.globl	RCC_SAIPLLI2SClkDivConfig
	.p2align	1
	.type	RCC_SAIPLLI2SClkDivConfig,%function
	.code	16                      @ @RCC_SAIPLLI2SClkDivConfig
	.thumb_func
RCC_SAIPLLI2SClkDivConfig:
.Lfunc_begin29:
	.loc	2 1644 0                @ ../Libraries/STM32F4xx_StdPeriph_Driver/src/stm32f4xx_rcc.c:1644:0
	.fnstart
	.cfi_startproc
@ %bb.0:
	@DEBUG_VALUE: RCC_SAIPLLI2SClkDivConfig:RCC_PLLI2SDivQ <- $r0
	@DEBUG_VALUE: RCC_SAIPLLI2SClkDivConfig:RCC_PLLI2SDivQ <- $r0
	@DEBUG_VALUE: RCC_SAIPLLI2SClkDivConfig:tmpreg <- 0
	movw	r1, #14476
.Ltmp141:
	.loc	2 1656 29 prologue_end  @ ../Libraries/STM32F4xx_StdPeriph_Driver/src/stm32f4xx_rcc.c:1656:29
	subs	r0, #1
.Ltmp142:
	.loc	2 0 29 is_stmt 0        @ ../Libraries/STM32F4xx_StdPeriph_Driver/src/stm32f4xx_rcc.c:0:29
	movt	r1, #16386
	.loc	2 1650 17 is_stmt 1     @ ../Libraries/STM32F4xx_StdPeriph_Driver/src/stm32f4xx_rcc.c:1650:17
	ldr	r2, [r1]
.Ltmp143:
	@DEBUG_VALUE: RCC_SAIPLLI2SClkDivConfig:tmpreg <- $r2
	.loc	2 1653 10               @ ../Libraries/STM32F4xx_StdPeriph_Driver/src/stm32f4xx_rcc.c:1653:10
	bic	r2, r2, #31
.Ltmp144:
	@DEBUG_VALUE: RCC_SAIPLLI2SClkDivConfig:tmpreg <- $r2
	.loc	2 1656 10               @ ../Libraries/STM32F4xx_StdPeriph_Driver/src/stm32f4xx_rcc.c:1656:10
	orrs	r0, r2
.Ltmp145:
	@DEBUG_VALUE: RCC_SAIPLLI2SClkDivConfig:tmpreg <- $r0
	.loc	2 1659 16               @ ../Libraries/STM32F4xx_StdPeriph_Driver/src/stm32f4xx_rcc.c:1659:16
	str	r0, [r1]
	.loc	2 1660 1                @ ../Libraries/STM32F4xx_StdPeriph_Driver/src/stm32f4xx_rcc.c:1660:1
	bx	lr
.Ltmp146:
.Lfunc_end29:
	.size	RCC_SAIPLLI2SClkDivConfig, .Lfunc_end29-RCC_SAIPLLI2SClkDivConfig
	.cfi_endproc
	.cantunwind
	.fnend
                                        @ -- End function
	.section	.text.RCC_SAIPLLSAIClkDivConfig,"ax",%progbits
	.hidden	RCC_SAIPLLSAIClkDivConfig @ -- Begin function RCC_SAIPLLSAIClkDivConfig
	.globl	RCC_SAIPLLSAIClkDivConfig
	.p2align	1
	.type	RCC_SAIPLLSAIClkDivConfig,%function
	.code	16                      @ @RCC_SAIPLLSAIClkDivConfig
	.thumb_func
RCC_SAIPLLSAIClkDivConfig:
.Lfunc_begin30:
	.loc	2 1676 0                @ ../Libraries/STM32F4xx_StdPeriph_Driver/src/stm32f4xx_rcc.c:1676:0
	.fnstart
	.cfi_startproc
@ %bb.0:
	@DEBUG_VALUE: RCC_SAIPLLSAIClkDivConfig:RCC_PLLSAIDivQ <- $r0
	mvn	r1, #255
.Ltmp147:
	@DEBUG_VALUE: RCC_SAIPLLSAIClkDivConfig:tmpreg <- 0
	@DEBUG_VALUE: RCC_SAIPLLSAIClkDivConfig:RCC_PLLSAIDivQ <- $r0
	.loc	2 1688 35 prologue_end  @ ../Libraries/STM32F4xx_StdPeriph_Driver/src/stm32f4xx_rcc.c:1688:35
	add.w	r0, r1, r0, lsl #8
.Ltmp148:
	.loc	2 0 35 is_stmt 0        @ ../Libraries/STM32F4xx_StdPeriph_Driver/src/stm32f4xx_rcc.c:0:35
	movw	r1, #14476
	movt	r1, #16386
	.loc	2 1682 17 is_stmt 1     @ ../Libraries/STM32F4xx_StdPeriph_Driver/src/stm32f4xx_rcc.c:1682:17
	ldr	r2, [r1]
.Ltmp149:
	@DEBUG_VALUE: RCC_SAIPLLSAIClkDivConfig:tmpreg <- $r2
	.loc	2 1685 10               @ ../Libraries/STM32F4xx_StdPeriph_Driver/src/stm32f4xx_rcc.c:1685:10
	bic	r2, r2, #7936
.Ltmp150:
	@DEBUG_VALUE: RCC_SAIPLLSAIClkDivConfig:tmpreg <- $r2
	.loc	2 1688 10               @ ../Libraries/STM32F4xx_StdPeriph_Driver/src/stm32f4xx_rcc.c:1688:10
	orrs	r0, r2
.Ltmp151:
	@DEBUG_VALUE: RCC_SAIPLLSAIClkDivConfig:tmpreg <- $r0
	.loc	2 1691 16               @ ../Libraries/STM32F4xx_StdPeriph_Driver/src/stm32f4xx_rcc.c:1691:16
	str	r0, [r1]
	.loc	2 1692 1                @ ../Libraries/STM32F4xx_StdPeriph_Driver/src/stm32f4xx_rcc.c:1692:1
	bx	lr
.Ltmp152:
.Lfunc_end30:
	.size	RCC_SAIPLLSAIClkDivConfig, .Lfunc_end30-RCC_SAIPLLSAIClkDivConfig
	.cfi_endproc
	.cantunwind
	.fnend
                                        @ -- End function
	.section	.text.RCC_LTDCCLKDivConfig,"ax",%progbits
	.hidden	RCC_LTDCCLKDivConfig    @ -- Begin function RCC_LTDCCLKDivConfig
	.globl	RCC_LTDCCLKDivConfig
	.p2align	1
	.type	RCC_LTDCCLKDivConfig,%function
	.code	16                      @ @RCC_LTDCCLKDivConfig
	.thumb_func
RCC_LTDCCLKDivConfig:
.Lfunc_begin31:
	.loc	2 1712 0                @ ../Libraries/STM32F4xx_StdPeriph_Driver/src/stm32f4xx_rcc.c:1712:0
	.fnstart
	.cfi_startproc
@ %bb.0:
	@DEBUG_VALUE: RCC_LTDCCLKDivConfig:RCC_PLLSAIDivR <- $r0
	movw	r1, #14476
	movt	r1, #16386
.Ltmp153:
	@DEBUG_VALUE: RCC_LTDCCLKDivConfig:tmpreg <- 0
	@DEBUG_VALUE: RCC_LTDCCLKDivConfig:RCC_PLLSAIDivR <- $r0
	.loc	2 1718 17 prologue_end  @ ../Libraries/STM32F4xx_StdPeriph_Driver/src/stm32f4xx_rcc.c:1718:17
	ldr	r2, [r1]
.Ltmp154:
	@DEBUG_VALUE: RCC_LTDCCLKDivConfig:tmpreg <- $r2
	.loc	2 1721 10               @ ../Libraries/STM32F4xx_StdPeriph_Driver/src/stm32f4xx_rcc.c:1721:10
	bic	r2, r2, #196608
.Ltmp155:
	@DEBUG_VALUE: RCC_LTDCCLKDivConfig:tmpreg <- $r2
	.loc	2 1724 10               @ ../Libraries/STM32F4xx_StdPeriph_Driver/src/stm32f4xx_rcc.c:1724:10
	orrs	r0, r2
.Ltmp156:
	@DEBUG_VALUE: RCC_LTDCCLKDivConfig:tmpreg <- $r0
	.loc	2 1727 16               @ ../Libraries/STM32F4xx_StdPeriph_Driver/src/stm32f4xx_rcc.c:1727:16
	str	r0, [r1]
	.loc	2 1728 1                @ ../Libraries/STM32F4xx_StdPeriph_Driver/src/stm32f4xx_rcc.c:1728:1
	bx	lr
.Ltmp157:
.Lfunc_end31:
	.size	RCC_LTDCCLKDivConfig, .Lfunc_end31-RCC_LTDCCLKDivConfig
	.cfi_endproc
	.cantunwind
	.fnend
                                        @ -- End function
	.section	.text.RCC_TIMCLKPresConfig,"ax",%progbits
	.hidden	RCC_TIMCLKPresConfig    @ -- Begin function RCC_TIMCLKPresConfig
	.globl	RCC_TIMCLKPresConfig
	.p2align	1
	.type	RCC_TIMCLKPresConfig,%function
	.code	16                      @ @RCC_TIMCLKPresConfig
	.thumb_func
RCC_TIMCLKPresConfig:
.Lfunc_begin32:
	.loc	2 1749 0                @ ../Libraries/STM32F4xx_StdPeriph_Driver/src/stm32f4xx_rcc.c:1749:0
	.fnstart
	.cfi_startproc
@ %bb.0:
	@DEBUG_VALUE: RCC_TIMCLKPresConfig:RCC_TIMCLKPrescaler <- $r0
	movw	r1, #4576
	movt	r1, #16967
	@DEBUG_VALUE: RCC_TIMCLKPresConfig:RCC_TIMCLKPrescaler <- $r0
.Ltmp158:
	.loc	2 1753 40 prologue_end  @ ../Libraries/STM32F4xx_StdPeriph_Driver/src/stm32f4xx_rcc.c:1753:40
	str	r0, [r1]
	.loc	2 1754 1                @ ../Libraries/STM32F4xx_StdPeriph_Driver/src/stm32f4xx_rcc.c:1754:1
	bx	lr
.Ltmp159:
.Lfunc_end32:
	.size	RCC_TIMCLKPresConfig, .Lfunc_end32-RCC_TIMCLKPresConfig
	.cfi_endproc
	.cantunwind
	.fnend
                                        @ -- End function
	.section	.text.RCC_AHB1PeriphClockCmd,"ax",%progbits
	.hidden	RCC_AHB1PeriphClockCmd  @ -- Begin function RCC_AHB1PeriphClockCmd
	.globl	RCC_AHB1PeriphClockCmd
	.p2align	1
	.type	RCC_AHB1PeriphClockCmd,%function
	.code	16                      @ @RCC_AHB1PeriphClockCmd
	.thumb_func
RCC_AHB1PeriphClockCmd:
.Lfunc_begin33:
	.loc	2 1791 0                @ ../Libraries/STM32F4xx_StdPeriph_Driver/src/stm32f4xx_rcc.c:1791:0
	.fnstart
	.cfi_startproc
@ %bb.0:
	@DEBUG_VALUE: RCC_AHB1PeriphClockCmd:RCC_AHB1Periph <- $r0
	@DEBUG_VALUE: RCC_AHB1PeriphClockCmd:NewState <- $r1
	movw	r2, #14384
.Ltmp160:
	.loc	2 1796 7 prologue_end   @ ../Libraries/STM32F4xx_StdPeriph_Driver/src/stm32f4xx_rcc.c:1796:7
	cmp	r1, #0
	movt	r2, #16386
	@DEBUG_VALUE: RCC_AHB1PeriphClockCmd:NewState <- $r1
	@DEBUG_VALUE: RCC_AHB1PeriphClockCmd:RCC_AHB1Periph <- $r0
.Ltmp161:
	.loc	2 1802 18               @ ../Libraries/STM32F4xx_StdPeriph_Driver/src/stm32f4xx_rcc.c:1802:18
	ldr	r1, [r2]
.Ltmp162:
	ite	eq
	biceq.w	r0, r1, r0
.Ltmp163:
	.loc	2 1798 18               @ ../Libraries/STM32F4xx_StdPeriph_Driver/src/stm32f4xx_rcc.c:1798:18
	orrne	r0, r1
.Ltmp164:
	.loc	2 0 0 is_stmt 0         @ ../Libraries/STM32F4xx_StdPeriph_Driver/src/stm32f4xx_rcc.c:0:0
	str	r0, [r2]
.Ltmp165:
	.loc	2 1804 1 is_stmt 1      @ ../Libraries/STM32F4xx_StdPeriph_Driver/src/stm32f4xx_rcc.c:1804:1
	bx	lr
.Ltmp166:
.Lfunc_end33:
	.size	RCC_AHB1PeriphClockCmd, .Lfunc_end33-RCC_AHB1PeriphClockCmd
	.cfi_endproc
	.cantunwind
	.fnend
                                        @ -- End function
	.section	.text.RCC_AHB2PeriphClockCmd,"ax",%progbits
	.hidden	RCC_AHB2PeriphClockCmd  @ -- Begin function RCC_AHB2PeriphClockCmd
	.globl	RCC_AHB2PeriphClockCmd
	.p2align	1
	.type	RCC_AHB2PeriphClockCmd,%function
	.code	16                      @ @RCC_AHB2PeriphClockCmd
	.thumb_func
RCC_AHB2PeriphClockCmd:
.Lfunc_begin34:
	.loc	2 1823 0                @ ../Libraries/STM32F4xx_StdPeriph_Driver/src/stm32f4xx_rcc.c:1823:0
	.fnstart
	.cfi_startproc
@ %bb.0:
	@DEBUG_VALUE: RCC_AHB2PeriphClockCmd:RCC_AHB2Periph <- $r0
	@DEBUG_VALUE: RCC_AHB2PeriphClockCmd:NewState <- $r1
	movw	r2, #14388
.Ltmp167:
	.loc	2 1828 7 prologue_end   @ ../Libraries/STM32F4xx_StdPeriph_Driver/src/stm32f4xx_rcc.c:1828:7
	cmp	r1, #0
	movt	r2, #16386
	@DEBUG_VALUE: RCC_AHB2PeriphClockCmd:NewState <- $r1
	@DEBUG_VALUE: RCC_AHB2PeriphClockCmd:RCC_AHB2Periph <- $r0
.Ltmp168:
	.loc	2 1834 18               @ ../Libraries/STM32F4xx_StdPeriph_Driver/src/stm32f4xx_rcc.c:1834:18
	ldr	r1, [r2]
.Ltmp169:
	ite	eq
	biceq.w	r0, r1, r0
.Ltmp170:
	.loc	2 1830 18               @ ../Libraries/STM32F4xx_StdPeriph_Driver/src/stm32f4xx_rcc.c:1830:18
	orrne	r0, r1
.Ltmp171:
	.loc	2 0 0 is_stmt 0         @ ../Libraries/STM32F4xx_StdPeriph_Driver/src/stm32f4xx_rcc.c:0:0
	str	r0, [r2]
.Ltmp172:
	.loc	2 1836 1 is_stmt 1      @ ../Libraries/STM32F4xx_StdPeriph_Driver/src/stm32f4xx_rcc.c:1836:1
	bx	lr
.Ltmp173:
.Lfunc_end34:
	.size	RCC_AHB2PeriphClockCmd, .Lfunc_end34-RCC_AHB2PeriphClockCmd
	.cfi_endproc
	.cantunwind
	.fnend
                                        @ -- End function
	.section	.text.RCC_AHB3PeriphClockCmd,"ax",%progbits
	.hidden	RCC_AHB3PeriphClockCmd  @ -- Begin function RCC_AHB3PeriphClockCmd
	.globl	RCC_AHB3PeriphClockCmd
	.p2align	1
	.type	RCC_AHB3PeriphClockCmd,%function
	.code	16                      @ @RCC_AHB3PeriphClockCmd
	.thumb_func
RCC_AHB3PeriphClockCmd:
.Lfunc_begin35:
	.loc	2 1853 0                @ ../Libraries/STM32F4xx_StdPeriph_Driver/src/stm32f4xx_rcc.c:1853:0
	.fnstart
	.cfi_startproc
@ %bb.0:
	@DEBUG_VALUE: RCC_AHB3PeriphClockCmd:RCC_AHB3Periph <- $r0
	@DEBUG_VALUE: RCC_AHB3PeriphClockCmd:NewState <- $r1
	movw	r2, #14392
.Ltmp174:
	.loc	2 1858 7 prologue_end   @ ../Libraries/STM32F4xx_StdPeriph_Driver/src/stm32f4xx_rcc.c:1858:7
	cmp	r1, #0
	movt	r2, #16386
	@DEBUG_VALUE: RCC_AHB3PeriphClockCmd:NewState <- $r1
	@DEBUG_VALUE: RCC_AHB3PeriphClockCmd:RCC_AHB3Periph <- $r0
.Ltmp175:
	.loc	2 1864 18               @ ../Libraries/STM32F4xx_StdPeriph_Driver/src/stm32f4xx_rcc.c:1864:18
	ldr	r1, [r2]
.Ltmp176:
	ite	eq
	biceq.w	r0, r1, r0
.Ltmp177:
	.loc	2 1860 18               @ ../Libraries/STM32F4xx_StdPeriph_Driver/src/stm32f4xx_rcc.c:1860:18
	orrne	r0, r1
.Ltmp178:
	.loc	2 0 0 is_stmt 0         @ ../Libraries/STM32F4xx_StdPeriph_Driver/src/stm32f4xx_rcc.c:0:0
	str	r0, [r2]
.Ltmp179:
	.loc	2 1866 1 is_stmt 1      @ ../Libraries/STM32F4xx_StdPeriph_Driver/src/stm32f4xx_rcc.c:1866:1
	bx	lr
.Ltmp180:
.Lfunc_end35:
	.size	RCC_AHB3PeriphClockCmd, .Lfunc_end35-RCC_AHB3PeriphClockCmd
	.cfi_endproc
	.cantunwind
	.fnend
                                        @ -- End function
	.section	.text.RCC_APB1PeriphClockCmd,"ax",%progbits
	.hidden	RCC_APB1PeriphClockCmd  @ -- Begin function RCC_APB1PeriphClockCmd
	.globl	RCC_APB1PeriphClockCmd
	.p2align	1
	.type	RCC_APB1PeriphClockCmd,%function
	.code	16                      @ @RCC_APB1PeriphClockCmd
	.thumb_func
RCC_APB1PeriphClockCmd:
.Lfunc_begin36:
	.loc	2 1909 0                @ ../Libraries/STM32F4xx_StdPeriph_Driver/src/stm32f4xx_rcc.c:1909:0
	.fnstart
	.cfi_startproc
@ %bb.0:
	@DEBUG_VALUE: RCC_APB1PeriphClockCmd:RCC_APB1Periph <- $r0
	@DEBUG_VALUE: RCC_APB1PeriphClockCmd:NewState <- $r1
	movw	r2, #14400
.Ltmp181:
	.loc	2 1914 7 prologue_end   @ ../Libraries/STM32F4xx_StdPeriph_Driver/src/stm32f4xx_rcc.c:1914:7
	cmp	r1, #0
	movt	r2, #16386
	@DEBUG_VALUE: RCC_APB1PeriphClockCmd:NewState <- $r1
	@DEBUG_VALUE: RCC_APB1PeriphClockCmd:RCC_APB1Periph <- $r0
.Ltmp182:
	.loc	2 1920 18               @ ../Libraries/STM32F4xx_StdPeriph_Driver/src/stm32f4xx_rcc.c:1920:18
	ldr	r1, [r2]
.Ltmp183:
	ite	eq
	biceq.w	r0, r1, r0
.Ltmp184:
	.loc	2 1916 18               @ ../Libraries/STM32F4xx_StdPeriph_Driver/src/stm32f4xx_rcc.c:1916:18
	orrne	r0, r1
.Ltmp185:
	.loc	2 0 0 is_stmt 0         @ ../Libraries/STM32F4xx_StdPeriph_Driver/src/stm32f4xx_rcc.c:0:0
	str	r0, [r2]
.Ltmp186:
	.loc	2 1922 1 is_stmt 1      @ ../Libraries/STM32F4xx_StdPeriph_Driver/src/stm32f4xx_rcc.c:1922:1
	bx	lr
.Ltmp187:
.Lfunc_end36:
	.size	RCC_APB1PeriphClockCmd, .Lfunc_end36-RCC_APB1PeriphClockCmd
	.cfi_endproc
	.cantunwind
	.fnend
                                        @ -- End function
	.section	.text.RCC_APB2PeriphClockCmd,"ax",%progbits
	.hidden	RCC_APB2PeriphClockCmd  @ -- Begin function RCC_APB2PeriphClockCmd
	.globl	RCC_APB2PeriphClockCmd
	.p2align	1
	.type	RCC_APB2PeriphClockCmd,%function
	.code	16                      @ @RCC_APB2PeriphClockCmd
	.thumb_func
RCC_APB2PeriphClockCmd:
.Lfunc_begin37:
	.loc	2 1955 0                @ ../Libraries/STM32F4xx_StdPeriph_Driver/src/stm32f4xx_rcc.c:1955:0
	.fnstart
	.cfi_startproc
@ %bb.0:
	@DEBUG_VALUE: RCC_APB2PeriphClockCmd:RCC_APB2Periph <- $r0
	@DEBUG_VALUE: RCC_APB2PeriphClockCmd:NewState <- $r1
	movw	r2, #14404
.Ltmp188:
	.loc	2 1960 7 prologue_end   @ ../Libraries/STM32F4xx_StdPeriph_Driver/src/stm32f4xx_rcc.c:1960:7
	cmp	r1, #0
	movt	r2, #16386
	@DEBUG_VALUE: RCC_APB2PeriphClockCmd:NewState <- $r1
	@DEBUG_VALUE: RCC_APB2PeriphClockCmd:RCC_APB2Periph <- $r0
.Ltmp189:
	.loc	2 1966 18               @ ../Libraries/STM32F4xx_StdPeriph_Driver/src/stm32f4xx_rcc.c:1966:18
	ldr	r1, [r2]
.Ltmp190:
	ite	eq
	biceq.w	r0, r1, r0
.Ltmp191:
	.loc	2 1962 18               @ ../Libraries/STM32F4xx_StdPeriph_Driver/src/stm32f4xx_rcc.c:1962:18
	orrne	r0, r1
.Ltmp192:
	.loc	2 0 0 is_stmt 0         @ ../Libraries/STM32F4xx_StdPeriph_Driver/src/stm32f4xx_rcc.c:0:0
	str	r0, [r2]
.Ltmp193:
	.loc	2 1968 1 is_stmt 1      @ ../Libraries/STM32F4xx_StdPeriph_Driver/src/stm32f4xx_rcc.c:1968:1
	bx	lr
.Ltmp194:
.Lfunc_end37:
	.size	RCC_APB2PeriphClockCmd, .Lfunc_end37-RCC_APB2PeriphClockCmd
	.cfi_endproc
	.cantunwind
	.fnend
                                        @ -- End function
	.section	.text.RCC_AHB1PeriphResetCmd,"ax",%progbits
	.hidden	RCC_AHB1PeriphResetCmd  @ -- Begin function RCC_AHB1PeriphResetCmd
	.globl	RCC_AHB1PeriphResetCmd
	.p2align	1
	.type	RCC_AHB1PeriphResetCmd,%function
	.code	16                      @ @RCC_AHB1PeriphResetCmd
	.thumb_func
RCC_AHB1PeriphResetCmd:
.Lfunc_begin38:
	.loc	2 1997 0                @ ../Libraries/STM32F4xx_StdPeriph_Driver/src/stm32f4xx_rcc.c:1997:0
	.fnstart
	.cfi_startproc
@ %bb.0:
	@DEBUG_VALUE: RCC_AHB1PeriphResetCmd:RCC_AHB1Periph <- $r0
	@DEBUG_VALUE: RCC_AHB1PeriphResetCmd:NewState <- $r1
	movw	r2, #14352
.Ltmp195:
	.loc	2 2002 7 prologue_end   @ ../Libraries/STM32F4xx_StdPeriph_Driver/src/stm32f4xx_rcc.c:2002:7
	cmp	r1, #0
	movt	r2, #16386
	@DEBUG_VALUE: RCC_AHB1PeriphResetCmd:NewState <- $r1
	@DEBUG_VALUE: RCC_AHB1PeriphResetCmd:RCC_AHB1Periph <- $r0
.Ltmp196:
	.loc	2 2008 19               @ ../Libraries/STM32F4xx_StdPeriph_Driver/src/stm32f4xx_rcc.c:2008:19
	ldr	r1, [r2]
.Ltmp197:
	ite	eq
	biceq.w	r0, r1, r0
.Ltmp198:
	.loc	2 2004 19               @ ../Libraries/STM32F4xx_StdPeriph_Driver/src/stm32f4xx_rcc.c:2004:19
	orrne	r0, r1
.Ltmp199:
	.loc	2 0 0 is_stmt 0         @ ../Libraries/STM32F4xx_StdPeriph_Driver/src/stm32f4xx_rcc.c:0:0
	str	r0, [r2]
.Ltmp200:
	.loc	2 2010 1 is_stmt 1      @ ../Libraries/STM32F4xx_StdPeriph_Driver/src/stm32f4xx_rcc.c:2010:1
	bx	lr
.Ltmp201:
.Lfunc_end38:
	.size	RCC_AHB1PeriphResetCmd, .Lfunc_end38-RCC_AHB1PeriphResetCmd
	.cfi_endproc
	.cantunwind
	.fnend
                                        @ -- End function
	.section	.text.RCC_AHB2PeriphResetCmd,"ax",%progbits
	.hidden	RCC_AHB2PeriphResetCmd  @ -- Begin function RCC_AHB2PeriphResetCmd
	.globl	RCC_AHB2PeriphResetCmd
	.p2align	1
	.type	RCC_AHB2PeriphResetCmd,%function
	.code	16                      @ @RCC_AHB2PeriphResetCmd
	.thumb_func
RCC_AHB2PeriphResetCmd:
.Lfunc_begin39:
	.loc	2 2026 0                @ ../Libraries/STM32F4xx_StdPeriph_Driver/src/stm32f4xx_rcc.c:2026:0
	.fnstart
	.cfi_startproc
@ %bb.0:
	@DEBUG_VALUE: RCC_AHB2PeriphResetCmd:RCC_AHB2Periph <- $r0
	@DEBUG_VALUE: RCC_AHB2PeriphResetCmd:NewState <- $r1
	movw	r2, #14356
.Ltmp202:
	.loc	2 2031 7 prologue_end   @ ../Libraries/STM32F4xx_StdPeriph_Driver/src/stm32f4xx_rcc.c:2031:7
	cmp	r1, #0
	movt	r2, #16386
	@DEBUG_VALUE: RCC_AHB2PeriphResetCmd:NewState <- $r1
	@DEBUG_VALUE: RCC_AHB2PeriphResetCmd:RCC_AHB2Periph <- $r0
.Ltmp203:
	.loc	2 2037 19               @ ../Libraries/STM32F4xx_StdPeriph_Driver/src/stm32f4xx_rcc.c:2037:19
	ldr	r1, [r2]
.Ltmp204:
	ite	eq
	biceq.w	r0, r1, r0
.Ltmp205:
	.loc	2 2033 19               @ ../Libraries/STM32F4xx_StdPeriph_Driver/src/stm32f4xx_rcc.c:2033:19
	orrne	r0, r1
.Ltmp206:
	.loc	2 0 0 is_stmt 0         @ ../Libraries/STM32F4xx_StdPeriph_Driver/src/stm32f4xx_rcc.c:0:0
	str	r0, [r2]
.Ltmp207:
	.loc	2 2039 1 is_stmt 1      @ ../Libraries/STM32F4xx_StdPeriph_Driver/src/stm32f4xx_rcc.c:2039:1
	bx	lr
.Ltmp208:
.Lfunc_end39:
	.size	RCC_AHB2PeriphResetCmd, .Lfunc_end39-RCC_AHB2PeriphResetCmd
	.cfi_endproc
	.cantunwind
	.fnend
                                        @ -- End function
	.section	.text.RCC_AHB3PeriphResetCmd,"ax",%progbits
	.hidden	RCC_AHB3PeriphResetCmd  @ -- Begin function RCC_AHB3PeriphResetCmd
	.globl	RCC_AHB3PeriphResetCmd
	.p2align	1
	.type	RCC_AHB3PeriphResetCmd,%function
	.code	16                      @ @RCC_AHB3PeriphResetCmd
	.thumb_func
RCC_AHB3PeriphResetCmd:
.Lfunc_begin40:
	.loc	2 2053 0                @ ../Libraries/STM32F4xx_StdPeriph_Driver/src/stm32f4xx_rcc.c:2053:0
	.fnstart
	.cfi_startproc
@ %bb.0:
	@DEBUG_VALUE: RCC_AHB3PeriphResetCmd:RCC_AHB3Periph <- $r0
	@DEBUG_VALUE: RCC_AHB3PeriphResetCmd:NewState <- $r1
	movw	r2, #14360
.Ltmp209:
	.loc	2 2058 7 prologue_end   @ ../Libraries/STM32F4xx_StdPeriph_Driver/src/stm32f4xx_rcc.c:2058:7
	cmp	r1, #0
	movt	r2, #16386
	@DEBUG_VALUE: RCC_AHB3PeriphResetCmd:NewState <- $r1
	@DEBUG_VALUE: RCC_AHB3PeriphResetCmd:RCC_AHB3Periph <- $r0
.Ltmp210:
	.loc	2 2064 19               @ ../Libraries/STM32F4xx_StdPeriph_Driver/src/stm32f4xx_rcc.c:2064:19
	ldr	r1, [r2]
.Ltmp211:
	ite	eq
	biceq.w	r0, r1, r0
.Ltmp212:
	.loc	2 2060 19               @ ../Libraries/STM32F4xx_StdPeriph_Driver/src/stm32f4xx_rcc.c:2060:19
	orrne	r0, r1
.Ltmp213:
	.loc	2 0 0 is_stmt 0         @ ../Libraries/STM32F4xx_StdPeriph_Driver/src/stm32f4xx_rcc.c:0:0
	str	r0, [r2]
.Ltmp214:
	.loc	2 2066 1 is_stmt 1      @ ../Libraries/STM32F4xx_StdPeriph_Driver/src/stm32f4xx_rcc.c:2066:1
	bx	lr
.Ltmp215:
.Lfunc_end40:
	.size	RCC_AHB3PeriphResetCmd, .Lfunc_end40-RCC_AHB3PeriphResetCmd
	.cfi_endproc
	.cantunwind
	.fnend
                                        @ -- End function
	.section	.text.RCC_APB1PeriphResetCmd,"ax",%progbits
	.hidden	RCC_APB1PeriphResetCmd  @ -- Begin function RCC_APB1PeriphResetCmd
	.globl	RCC_APB1PeriphResetCmd
	.p2align	1
	.type	RCC_APB1PeriphResetCmd,%function
	.code	16                      @ @RCC_APB1PeriphResetCmd
	.thumb_func
RCC_APB1PeriphResetCmd:
.Lfunc_begin41:
	.loc	2 2106 0                @ ../Libraries/STM32F4xx_StdPeriph_Driver/src/stm32f4xx_rcc.c:2106:0
	.fnstart
	.cfi_startproc
@ %bb.0:
	@DEBUG_VALUE: RCC_APB1PeriphResetCmd:RCC_APB1Periph <- $r0
	@DEBUG_VALUE: RCC_APB1PeriphResetCmd:NewState <- $r1
	movw	r2, #14368
.Ltmp216:
	.loc	2 2110 7 prologue_end   @ ../Libraries/STM32F4xx_StdPeriph_Driver/src/stm32f4xx_rcc.c:2110:7
	cmp	r1, #0
	movt	r2, #16386
	@DEBUG_VALUE: RCC_APB1PeriphResetCmd:NewState <- $r1
	@DEBUG_VALUE: RCC_APB1PeriphResetCmd:RCC_APB1Periph <- $r0
.Ltmp217:
	.loc	2 2116 19               @ ../Libraries/STM32F4xx_StdPeriph_Driver/src/stm32f4xx_rcc.c:2116:19
	ldr	r1, [r2]
.Ltmp218:
	ite	eq
	biceq.w	r0, r1, r0
.Ltmp219:
	.loc	2 2112 19               @ ../Libraries/STM32F4xx_StdPeriph_Driver/src/stm32f4xx_rcc.c:2112:19
	orrne	r0, r1
.Ltmp220:
	.loc	2 0 0 is_stmt 0         @ ../Libraries/STM32F4xx_StdPeriph_Driver/src/stm32f4xx_rcc.c:0:0
	str	r0, [r2]
.Ltmp221:
	.loc	2 2118 1 is_stmt 1      @ ../Libraries/STM32F4xx_StdPeriph_Driver/src/stm32f4xx_rcc.c:2118:1
	bx	lr
.Ltmp222:
.Lfunc_end41:
	.size	RCC_APB1PeriphResetCmd, .Lfunc_end41-RCC_APB1PeriphResetCmd
	.cfi_endproc
	.cantunwind
	.fnend
                                        @ -- End function
	.section	.text.RCC_APB2PeriphResetCmd,"ax",%progbits
	.hidden	RCC_APB2PeriphResetCmd  @ -- Begin function RCC_APB2PeriphResetCmd
	.globl	RCC_APB2PeriphResetCmd
	.p2align	1
	.type	RCC_APB2PeriphResetCmd,%function
	.code	16                      @ @RCC_APB2PeriphResetCmd
	.thumb_func
RCC_APB2PeriphResetCmd:
.Lfunc_begin42:
	.loc	2 2148 0                @ ../Libraries/STM32F4xx_StdPeriph_Driver/src/stm32f4xx_rcc.c:2148:0
	.fnstart
	.cfi_startproc
@ %bb.0:
	@DEBUG_VALUE: RCC_APB2PeriphResetCmd:RCC_APB2Periph <- $r0
	@DEBUG_VALUE: RCC_APB2PeriphResetCmd:NewState <- $r1
	movw	r2, #14372
.Ltmp223:
	.loc	2 2152 7 prologue_end   @ ../Libraries/STM32F4xx_StdPeriph_Driver/src/stm32f4xx_rcc.c:2152:7
	cmp	r1, #0
	movt	r2, #16386
	@DEBUG_VALUE: RCC_APB2PeriphResetCmd:NewState <- $r1
	@DEBUG_VALUE: RCC_APB2PeriphResetCmd:RCC_APB2Periph <- $r0
.Ltmp224:
	.loc	2 2158 19               @ ../Libraries/STM32F4xx_StdPeriph_Driver/src/stm32f4xx_rcc.c:2158:19
	ldr	r1, [r2]
.Ltmp225:
	ite	eq
	biceq.w	r0, r1, r0
.Ltmp226:
	.loc	2 2154 19               @ ../Libraries/STM32F4xx_StdPeriph_Driver/src/stm32f4xx_rcc.c:2154:19
	orrne	r0, r1
.Ltmp227:
	.loc	2 0 0 is_stmt 0         @ ../Libraries/STM32F4xx_StdPeriph_Driver/src/stm32f4xx_rcc.c:0:0
	str	r0, [r2]
.Ltmp228:
	.loc	2 2160 1 is_stmt 1      @ ../Libraries/STM32F4xx_StdPeriph_Driver/src/stm32f4xx_rcc.c:2160:1
	bx	lr
.Ltmp229:
.Lfunc_end42:
	.size	RCC_APB2PeriphResetCmd, .Lfunc_end42-RCC_APB2PeriphResetCmd
	.cfi_endproc
	.cantunwind
	.fnend
                                        @ -- End function
	.section	.text.RCC_AHB1PeriphClockLPModeCmd,"ax",%progbits
	.hidden	RCC_AHB1PeriphClockLPModeCmd @ -- Begin function RCC_AHB1PeriphClockLPModeCmd
	.globl	RCC_AHB1PeriphClockLPModeCmd
	.p2align	1
	.type	RCC_AHB1PeriphClockLPModeCmd,%function
	.code	16                      @ @RCC_AHB1PeriphClockLPModeCmd
	.thumb_func
RCC_AHB1PeriphClockLPModeCmd:
.Lfunc_begin43:
	.loc	2 2197 0                @ ../Libraries/STM32F4xx_StdPeriph_Driver/src/stm32f4xx_rcc.c:2197:0
	.fnstart
	.cfi_startproc
@ %bb.0:
	@DEBUG_VALUE: RCC_AHB1PeriphClockLPModeCmd:RCC_AHB1Periph <- $r0
	@DEBUG_VALUE: RCC_AHB1PeriphClockLPModeCmd:NewState <- $r1
	movw	r2, #14416
.Ltmp230:
	.loc	2 2201 7 prologue_end   @ ../Libraries/STM32F4xx_StdPeriph_Driver/src/stm32f4xx_rcc.c:2201:7
	cmp	r1, #0
	movt	r2, #16386
	@DEBUG_VALUE: RCC_AHB1PeriphClockLPModeCmd:NewState <- $r1
	@DEBUG_VALUE: RCC_AHB1PeriphClockLPModeCmd:RCC_AHB1Periph <- $r0
.Ltmp231:
	.loc	2 2207 20               @ ../Libraries/STM32F4xx_StdPeriph_Driver/src/stm32f4xx_rcc.c:2207:20
	ldr	r1, [r2]
.Ltmp232:
	ite	eq
	biceq.w	r0, r1, r0
.Ltmp233:
	.loc	2 2203 20               @ ../Libraries/STM32F4xx_StdPeriph_Driver/src/stm32f4xx_rcc.c:2203:20
	orrne	r0, r1
.Ltmp234:
	.loc	2 0 0 is_stmt 0         @ ../Libraries/STM32F4xx_StdPeriph_Driver/src/stm32f4xx_rcc.c:0:0
	str	r0, [r2]
.Ltmp235:
	.loc	2 2209 1 is_stmt 1      @ ../Libraries/STM32F4xx_StdPeriph_Driver/src/stm32f4xx_rcc.c:2209:1
	bx	lr
.Ltmp236:
.Lfunc_end43:
	.size	RCC_AHB1PeriphClockLPModeCmd, .Lfunc_end43-RCC_AHB1PeriphClockLPModeCmd
	.cfi_endproc
	.cantunwind
	.fnend
                                        @ -- End function
	.section	.text.RCC_AHB2PeriphClockLPModeCmd,"ax",%progbits
	.hidden	RCC_AHB2PeriphClockLPModeCmd @ -- Begin function RCC_AHB2PeriphClockLPModeCmd
	.globl	RCC_AHB2PeriphClockLPModeCmd
	.p2align	1
	.type	RCC_AHB2PeriphClockLPModeCmd,%function
	.code	16                      @ @RCC_AHB2PeriphClockLPModeCmd
	.thumb_func
RCC_AHB2PeriphClockLPModeCmd:
.Lfunc_begin44:
	.loc	2 2229 0                @ ../Libraries/STM32F4xx_StdPeriph_Driver/src/stm32f4xx_rcc.c:2229:0
	.fnstart
	.cfi_startproc
@ %bb.0:
	@DEBUG_VALUE: RCC_AHB2PeriphClockLPModeCmd:RCC_AHB2Periph <- $r0
	@DEBUG_VALUE: RCC_AHB2PeriphClockLPModeCmd:NewState <- $r1
	movw	r2, #14420
.Ltmp237:
	.loc	2 2233 7 prologue_end   @ ../Libraries/STM32F4xx_StdPeriph_Driver/src/stm32f4xx_rcc.c:2233:7
	cmp	r1, #0
	movt	r2, #16386
	@DEBUG_VALUE: RCC_AHB2PeriphClockLPModeCmd:NewState <- $r1
	@DEBUG_VALUE: RCC_AHB2PeriphClockLPModeCmd:RCC_AHB2Periph <- $r0
.Ltmp238:
	.loc	2 2239 20               @ ../Libraries/STM32F4xx_StdPeriph_Driver/src/stm32f4xx_rcc.c:2239:20
	ldr	r1, [r2]
.Ltmp239:
	ite	eq
	biceq.w	r0, r1, r0
.Ltmp240:
	.loc	2 2235 20               @ ../Libraries/STM32F4xx_StdPeriph_Driver/src/stm32f4xx_rcc.c:2235:20
	orrne	r0, r1
.Ltmp241:
	.loc	2 0 0 is_stmt 0         @ ../Libraries/STM32F4xx_StdPeriph_Driver/src/stm32f4xx_rcc.c:0:0
	str	r0, [r2]
.Ltmp242:
	.loc	2 2241 1 is_stmt 1      @ ../Libraries/STM32F4xx_StdPeriph_Driver/src/stm32f4xx_rcc.c:2241:1
	bx	lr
.Ltmp243:
.Lfunc_end44:
	.size	RCC_AHB2PeriphClockLPModeCmd, .Lfunc_end44-RCC_AHB2PeriphClockLPModeCmd
	.cfi_endproc
	.cantunwind
	.fnend
                                        @ -- End function
	.section	.text.RCC_AHB3PeriphClockLPModeCmd,"ax",%progbits
	.hidden	RCC_AHB3PeriphClockLPModeCmd @ -- Begin function RCC_AHB3PeriphClockLPModeCmd
	.globl	RCC_AHB3PeriphClockLPModeCmd
	.p2align	1
	.type	RCC_AHB3PeriphClockLPModeCmd,%function
	.code	16                      @ @RCC_AHB3PeriphClockLPModeCmd
	.thumb_func
RCC_AHB3PeriphClockLPModeCmd:
.Lfunc_begin45:
	.loc	2 2259 0                @ ../Libraries/STM32F4xx_StdPeriph_Driver/src/stm32f4xx_rcc.c:2259:0
	.fnstart
	.cfi_startproc
@ %bb.0:
	@DEBUG_VALUE: RCC_AHB3PeriphClockLPModeCmd:RCC_AHB3Periph <- $r0
	@DEBUG_VALUE: RCC_AHB3PeriphClockLPModeCmd:NewState <- $r1
	movw	r2, #14424
.Ltmp244:
	.loc	2 2263 7 prologue_end   @ ../Libraries/STM32F4xx_StdPeriph_Driver/src/stm32f4xx_rcc.c:2263:7
	cmp	r1, #0
	movt	r2, #16386
	@DEBUG_VALUE: RCC_AHB3PeriphClockLPModeCmd:NewState <- $r1
	@DEBUG_VALUE: RCC_AHB3PeriphClockLPModeCmd:RCC_AHB3Periph <- $r0
.Ltmp245:
	.loc	2 2269 20               @ ../Libraries/STM32F4xx_StdPeriph_Driver/src/stm32f4xx_rcc.c:2269:20
	ldr	r1, [r2]
.Ltmp246:
	ite	eq
	biceq.w	r0, r1, r0
.Ltmp247:
	.loc	2 2265 20               @ ../Libraries/STM32F4xx_StdPeriph_Driver/src/stm32f4xx_rcc.c:2265:20
	orrne	r0, r1
.Ltmp248:
	.loc	2 0 0 is_stmt 0         @ ../Libraries/STM32F4xx_StdPeriph_Driver/src/stm32f4xx_rcc.c:0:0
	str	r0, [r2]
.Ltmp249:
	.loc	2 2271 1 is_stmt 1      @ ../Libraries/STM32F4xx_StdPeriph_Driver/src/stm32f4xx_rcc.c:2271:1
	bx	lr
.Ltmp250:
.Lfunc_end45:
	.size	RCC_AHB3PeriphClockLPModeCmd, .Lfunc_end45-RCC_AHB3PeriphClockLPModeCmd
	.cfi_endproc
	.cantunwind
	.fnend
                                        @ -- End function
	.section	.text.RCC_APB1PeriphClockLPModeCmd,"ax",%progbits
	.hidden	RCC_APB1PeriphClockLPModeCmd @ -- Begin function RCC_APB1PeriphClockLPModeCmd
	.globl	RCC_APB1PeriphClockLPModeCmd
	.p2align	1
	.type	RCC_APB1PeriphClockLPModeCmd,%function
	.code	16                      @ @RCC_APB1PeriphClockLPModeCmd
	.thumb_func
RCC_APB1PeriphClockLPModeCmd:
.Lfunc_begin46:
	.loc	2 2315 0                @ ../Libraries/STM32F4xx_StdPeriph_Driver/src/stm32f4xx_rcc.c:2315:0
	.fnstart
	.cfi_startproc
@ %bb.0:
	@DEBUG_VALUE: RCC_APB1PeriphClockLPModeCmd:RCC_APB1Periph <- $r0
	@DEBUG_VALUE: RCC_APB1PeriphClockLPModeCmd:NewState <- $r1
	movw	r2, #14432
.Ltmp251:
	.loc	2 2319 7 prologue_end   @ ../Libraries/STM32F4xx_StdPeriph_Driver/src/stm32f4xx_rcc.c:2319:7
	cmp	r1, #0
	movt	r2, #16386
	@DEBUG_VALUE: RCC_APB1PeriphClockLPModeCmd:NewState <- $r1
	@DEBUG_VALUE: RCC_APB1PeriphClockLPModeCmd:RCC_APB1Periph <- $r0
.Ltmp252:
	.loc	2 2325 20               @ ../Libraries/STM32F4xx_StdPeriph_Driver/src/stm32f4xx_rcc.c:2325:20
	ldr	r1, [r2]
.Ltmp253:
	ite	eq
	biceq.w	r0, r1, r0
.Ltmp254:
	.loc	2 2321 20               @ ../Libraries/STM32F4xx_StdPeriph_Driver/src/stm32f4xx_rcc.c:2321:20
	orrne	r0, r1
.Ltmp255:
	.loc	2 0 0 is_stmt 0         @ ../Libraries/STM32F4xx_StdPeriph_Driver/src/stm32f4xx_rcc.c:0:0
	str	r0, [r2]
.Ltmp256:
	.loc	2 2327 1 is_stmt 1      @ ../Libraries/STM32F4xx_StdPeriph_Driver/src/stm32f4xx_rcc.c:2327:1
	bx	lr
.Ltmp257:
.Lfunc_end46:
	.size	RCC_APB1PeriphClockLPModeCmd, .Lfunc_end46-RCC_APB1PeriphClockLPModeCmd
	.cfi_endproc
	.cantunwind
	.fnend
                                        @ -- End function
	.section	.text.RCC_APB2PeriphClockLPModeCmd,"ax",%progbits
	.hidden	RCC_APB2PeriphClockLPModeCmd @ -- Begin function RCC_APB2PeriphClockLPModeCmd
	.globl	RCC_APB2PeriphClockLPModeCmd
	.p2align	1
	.type	RCC_APB2PeriphClockLPModeCmd,%function
	.code	16                      @ @RCC_APB2PeriphClockLPModeCmd
	.thumb_func
RCC_APB2PeriphClockLPModeCmd:
.Lfunc_begin47:
	.loc	2 2361 0                @ ../Libraries/STM32F4xx_StdPeriph_Driver/src/stm32f4xx_rcc.c:2361:0
	.fnstart
	.cfi_startproc
@ %bb.0:
	@DEBUG_VALUE: RCC_APB2PeriphClockLPModeCmd:RCC_APB2Periph <- $r0
	@DEBUG_VALUE: RCC_APB2PeriphClockLPModeCmd:NewState <- $r1
	movw	r2, #14436
.Ltmp258:
	.loc	2 2365 7 prologue_end   @ ../Libraries/STM32F4xx_StdPeriph_Driver/src/stm32f4xx_rcc.c:2365:7
	cmp	r1, #0
	movt	r2, #16386
	@DEBUG_VALUE: RCC_APB2PeriphClockLPModeCmd:NewState <- $r1
	@DEBUG_VALUE: RCC_APB2PeriphClockLPModeCmd:RCC_APB2Periph <- $r0
.Ltmp259:
	.loc	2 2371 20               @ ../Libraries/STM32F4xx_StdPeriph_Driver/src/stm32f4xx_rcc.c:2371:20
	ldr	r1, [r2]
.Ltmp260:
	ite	eq
	biceq.w	r0, r1, r0
.Ltmp261:
	.loc	2 2367 20               @ ../Libraries/STM32F4xx_StdPeriph_Driver/src/stm32f4xx_rcc.c:2367:20
	orrne	r0, r1
.Ltmp262:
	.loc	2 0 0 is_stmt 0         @ ../Libraries/STM32F4xx_StdPeriph_Driver/src/stm32f4xx_rcc.c:0:0
	str	r0, [r2]
.Ltmp263:
	.loc	2 2373 1 is_stmt 1      @ ../Libraries/STM32F4xx_StdPeriph_Driver/src/stm32f4xx_rcc.c:2373:1
	bx	lr
.Ltmp264:
.Lfunc_end47:
	.size	RCC_APB2PeriphClockLPModeCmd, .Lfunc_end47-RCC_APB2PeriphClockLPModeCmd
	.cfi_endproc
	.cantunwind
	.fnend
                                        @ -- End function
	.section	.text.RCC_LSEModeConfig,"ax",%progbits
	.hidden	RCC_LSEModeConfig       @ -- Begin function RCC_LSEModeConfig
	.globl	RCC_LSEModeConfig
	.p2align	1
	.type	RCC_LSEModeConfig,%function
	.code	16                      @ @RCC_LSEModeConfig
	.thumb_func
RCC_LSEModeConfig:
.Lfunc_begin48:
	.loc	2 2385 0                @ ../Libraries/STM32F4xx_StdPeriph_Driver/src/stm32f4xx_rcc.c:2385:0
	.fnstart
	.cfi_startproc
@ %bb.0:
	@DEBUG_VALUE: RCC_LSEModeConfig:RCC_Mode <- $r0
	movw	r1, #14448
.Ltmp265:
	.loc	2 2389 6 prologue_end   @ ../Libraries/STM32F4xx_StdPeriph_Driver/src/stm32f4xx_rcc.c:2389:6
	cmp	r0, #1
	movt	r1, #16386
	@DEBUG_VALUE: RCC_LSEModeConfig:RCC_Mode <- $r0
.Ltmp266:
	.loc	2 0 0 is_stmt 0         @ ../Libraries/STM32F4xx_StdPeriph_Driver/src/stm32f4xx_rcc.c:0:0
	ldr	r2, [r1]
.Ltmp267:
	.loc	2 2389 6                @ ../Libraries/STM32F4xx_StdPeriph_Driver/src/stm32f4xx_rcc.c:2389:6
	bic	r3, r2, #8
	it	eq
	orreq	r3, r2, #8
.Ltmp268:
	.loc	2 0 0                   @ ../Libraries/STM32F4xx_StdPeriph_Driver/src/stm32f4xx_rcc.c:0:0
	str	r3, [r1]
.Ltmp269:
	.loc	2 2397 1 is_stmt 1      @ ../Libraries/STM32F4xx_StdPeriph_Driver/src/stm32f4xx_rcc.c:2397:1
	bx	lr
.Ltmp270:
.Lfunc_end48:
	.size	RCC_LSEModeConfig, .Lfunc_end48-RCC_LSEModeConfig
	.cfi_endproc
	.cantunwind
	.fnend
                                        @ -- End function
	.section	.text.RCC_ITConfig,"ax",%progbits
	.hidden	RCC_ITConfig            @ -- Begin function RCC_ITConfig
	.globl	RCC_ITConfig
	.p2align	1
	.type	RCC_ITConfig,%function
	.code	16                      @ @RCC_ITConfig
	.thumb_func
RCC_ITConfig:
.Lfunc_begin49:
	.loc	2 2583 0                @ ../Libraries/STM32F4xx_StdPeriph_Driver/src/stm32f4xx_rcc.c:2583:0
	.fnstart
	.cfi_startproc
@ %bb.0:
	@DEBUG_VALUE: RCC_ITConfig:RCC_IT <- $r0
	@DEBUG_VALUE: RCC_ITConfig:NewState <- $r1
	movw	r2, #14349
.Ltmp271:
	.loc	2 2587 7 prologue_end   @ ../Libraries/STM32F4xx_StdPeriph_Driver/src/stm32f4xx_rcc.c:2587:7
	cmp	r1, #0
	movt	r2, #16386
	@DEBUG_VALUE: RCC_ITConfig:NewState <- $r1
	@DEBUG_VALUE: RCC_ITConfig:RCC_IT <- $r0
.Ltmp272:
	.loc	2 2595 41               @ ../Libraries/STM32F4xx_StdPeriph_Driver/src/stm32f4xx_rcc.c:2595:41
	ldrb	r1, [r2]
.Ltmp273:
	ite	eq
	biceq.w	r0, r1, r0
.Ltmp274:
	.loc	2 2590 41               @ ../Libraries/STM32F4xx_StdPeriph_Driver/src/stm32f4xx_rcc.c:2590:41
	orrne	r0, r1
.Ltmp275:
	.loc	2 0 0 is_stmt 0         @ ../Libraries/STM32F4xx_StdPeriph_Driver/src/stm32f4xx_rcc.c:0:0
	strb	r0, [r2]
.Ltmp276:
	.loc	2 2597 1 is_stmt 1      @ ../Libraries/STM32F4xx_StdPeriph_Driver/src/stm32f4xx_rcc.c:2597:1
	bx	lr
.Ltmp277:
.Lfunc_end49:
	.size	RCC_ITConfig, .Lfunc_end49-RCC_ITConfig
	.cfi_endproc
	.cantunwind
	.fnend
                                        @ -- End function
	.section	.text.RCC_ClearFlag,"ax",%progbits
	.hidden	RCC_ClearFlag           @ -- Begin function RCC_ClearFlag
	.globl	RCC_ClearFlag
	.p2align	1
	.type	RCC_ClearFlag,%function
	.code	16                      @ @RCC_ClearFlag
	.thumb_func
RCC_ClearFlag:
.Lfunc_begin50:
	.loc	2 2665 0                @ ../Libraries/STM32F4xx_StdPeriph_Driver/src/stm32f4xx_rcc.c:2665:0
	.fnstart
	.cfi_startproc
@ %bb.0:
	movw	r0, #14452
	movt	r0, #16386
.Ltmp278:
	.loc	2 2667 12 prologue_end  @ ../Libraries/STM32F4xx_StdPeriph_Driver/src/stm32f4xx_rcc.c:2667:12
	ldr	r1, [r0]
	orr	r1, r1, #16777216
	str	r1, [r0]
	.loc	2 2668 1                @ ../Libraries/STM32F4xx_StdPeriph_Driver/src/stm32f4xx_rcc.c:2668:1
	bx	lr
.Ltmp279:
.Lfunc_end50:
	.size	RCC_ClearFlag, .Lfunc_end50-RCC_ClearFlag
	.cfi_endproc
	.cantunwind
	.fnend
                                        @ -- End function
	.section	.text.RCC_GetITStatus,"ax",%progbits
	.hidden	RCC_GetITStatus         @ -- Begin function RCC_GetITStatus
	.globl	RCC_GetITStatus
	.p2align	1
	.type	RCC_GetITStatus,%function
	.code	16                      @ @RCC_GetITStatus
	.thumb_func
RCC_GetITStatus:
.Lfunc_begin51:
	.loc	2 2685 0                @ ../Libraries/STM32F4xx_StdPeriph_Driver/src/stm32f4xx_rcc.c:2685:0
	.fnstart
	.cfi_startproc
@ %bb.0:
	@DEBUG_VALUE: RCC_GetITStatus:RCC_IT <- $r0
	movw	r1, #14348
	movt	r1, #16386
.Ltmp280:
	@DEBUG_VALUE: RCC_GetITStatus:bitstatus <- 0
	@DEBUG_VALUE: RCC_GetITStatus:RCC_IT <- $r0
	.loc	2 2692 13 prologue_end  @ ../Libraries/STM32F4xx_StdPeriph_Driver/src/stm32f4xx_rcc.c:2692:13
	ldr	r1, [r1]
	.loc	2 2692 17 is_stmt 0     @ ../Libraries/STM32F4xx_StdPeriph_Driver/src/stm32f4xx_rcc.c:2692:17
	ands	r0, r1
.Ltmp281:
	.loc	2 2692 27               @ ../Libraries/STM32F4xx_StdPeriph_Driver/src/stm32f4xx_rcc.c:2692:27
	it	ne
	movne	r0, #1
.Ltmp282:
	@DEBUG_VALUE: RCC_GetITStatus:bitstatus <- undef
	.loc	2 2701 3 is_stmt 1      @ ../Libraries/STM32F4xx_StdPeriph_Driver/src/stm32f4xx_rcc.c:2701:3
	bx	lr
.Ltmp283:
.Lfunc_end51:
	.size	RCC_GetITStatus, .Lfunc_end51-RCC_GetITStatus
	.cfi_endproc
	.cantunwind
	.fnend
                                        @ -- End function
	.section	.text.RCC_ClearITPendingBit,"ax",%progbits
	.hidden	RCC_ClearITPendingBit   @ -- Begin function RCC_ClearITPendingBit
	.globl	RCC_ClearITPendingBit
	.p2align	1
	.type	RCC_ClearITPendingBit,%function
	.code	16                      @ @RCC_ClearITPendingBit
	.thumb_func
RCC_ClearITPendingBit:
.Lfunc_begin52:
	.loc	2 2719 0                @ ../Libraries/STM32F4xx_StdPeriph_Driver/src/stm32f4xx_rcc.c:2719:0
	.fnstart
	.cfi_startproc
@ %bb.0:
	@DEBUG_VALUE: RCC_ClearITPendingBit:RCC_IT <- $r0
	movw	r1, #14350
	movt	r1, #16386
	@DEBUG_VALUE: RCC_ClearITPendingBit:RCC_IT <- $r0
.Ltmp284:
	.loc	2 2725 39 prologue_end  @ ../Libraries/STM32F4xx_StdPeriph_Driver/src/stm32f4xx_rcc.c:2725:39
	strb	r0, [r1]
	.loc	2 2726 1                @ ../Libraries/STM32F4xx_StdPeriph_Driver/src/stm32f4xx_rcc.c:2726:1
	bx	lr
.Ltmp285:
.Lfunc_end52:
	.size	RCC_ClearITPendingBit, .Lfunc_end52-RCC_ClearITPendingBit
	.cfi_endproc
	.cantunwind
	.fnend
                                        @ -- End function
	.type	APBAHBPrescTable,%object @ @APBAHBPrescTable
	.section	.rodata.APBAHBPrescTable,"a",%progbits
APBAHBPrescTable:
	.ascii	"\000\000\000\000\001\002\003\004\001\002\003\004\006\007\b\t"
	.size	APBAHBPrescTable, 16

	.file	4 "F:\\SkyDrive\\OtvoreniProjekti\\HotelSaplast\\fw\\KontrolerHotela\\HC070318\\Project" "../Libraries/STM32F4xx_StdPeriph_Driver/inc\\stm32f4xx_rcc.h"
	.section	".note.GNU-stack","",%progbits
	.eabi_attribute	30, 3	@ Tag_ABI_optimization_goals
	.ARM_attribute	16, 1	@ Tag_AV_eba