	.text
	.syntax unified
	.eabi_attribute	67, "2.09"	@ Tag_conformance
	.cpu	cortex-m4
	.eabi_attribute	6, 13	@ Tag_CPU_arch
	.eabi_attribute	7, 77	@ Tag_CPU_arch_profile
	.eabi_attribute	8, 0	@ Tag_ARM_ISA_use
	.eabi_attribute	9, 2	@ Tag_THUMB_ISA_use
	.fpu	fpv4-sp-d16
	.eabi_attribute	27, 1	@ Tag_ABI_HardFP_use
	.eabi_attribute	36, 1	@ Tag_FP_HP_extension
	.eabi_attribute	34, 1	@ Tag_CPU_unaligned_access
	.eabi_attribute	17, 1	@ Tag_ABI_PCS_GOT_use
	.eabi_attribute	20, 2	@ Tag_ABI_FP_denormal
	.eabi_attribute	21, 0	@ Tag_ABI_FP_exceptions
	.eabi_attribute	23, 1	@ Tag_ABI_FP_number_model
	.eabi_attribute	24, 1	@ Tag_ABI_align_needed
	.eabi_attribute	25, 1	@ Tag_ABI_align_preserved
	.eabi_attribute	28, 1	@ Tag_ABI_VFP_args
	.eabi_attribute	38, 1	@ Tag_ABI_FP_16bit_format
	.eabi_attribute	18, 2	@ Tag_ABI_PCS_wchar_t
	.eabi_attribute	26, 1	@ Tag_ABI_enum_size
	.eabi_attribute	14, 0	@ Tag_ABI_PCS_R9_use
	.file	"stm32f4xx_syscfg.c"
	.file	1 "F:\\SkyDrive\\OtvoreniProjekti\\HotelSaplast\\fw\\KontrolerHotela\\HC070318\\Project" "../Libraries/CMSIS/Device/ST/STM32F4xx/Include\\stm32f4xx.h"
	.file	2 "C:\\Keil\\ARM\\ARMCLANG\\Bin\\..\\include" "stdint.h"
	.section	.text.SYSCFG_DeInit,"ax",%progbits
	.hidden	SYSCFG_DeInit           @ -- Begin function SYSCFG_DeInit
	.globl	SYSCFG_DeInit
	.p2align	1
	.type	SYSCFG_DeInit,%function
	.code	16                      @ @SYSCFG_DeInit
	.thumb_func
SYSCFG_DeInit:
.Lfunc_begin0:
	.file	3 "F:\\SkyDrive\\OtvoreniProjekti\\HotelSaplast\\fw\\KontrolerHotela\\HC070318\\Project" "../Libraries/STM32F4xx_StdPeriph_Driver/src/stm32f4xx_syscfg.c"
	.loc	3 101 0                 @ ../Libraries/STM32F4xx_StdPeriph_Driver/src/stm32f4xx_syscfg.c:101:0
	.fnstart
	.cfi_sections .debug_frame
	.cfi_startproc
@ %bb.0:
	.save	{r7, lr}
	push	{r7, lr}
	.cfi_def_cfa_offset 8
	.cfi_offset lr, -4
	.cfi_offset r7, -8
.Ltmp0:
	.loc	3 102 4 prologue_end    @ ../Libraries/STM32F4xx_StdPeriph_Driver/src/stm32f4xx_syscfg.c:102:4
	mov.w	r0, #16384
	movs	r1, #1
	bl	RCC_APB2PeriphResetCmd
	.loc	3 103 4                 @ ../Libraries/STM32F4xx_StdPeriph_Driver/src/stm32f4xx_syscfg.c:103:4
	mov.w	r0, #16384
	movs	r1, #0
	pop.w	{r7, lr}
	b	RCC_APB2PeriphResetCmd
.Ltmp1:
.Lfunc_end0:
	.size	SYSCFG_DeInit, .Lfunc_end0-SYSCFG_DeInit
	.cfi_endproc
	.cantunwind
	.fnend
                                        @ -- End function
	.section	.text.SYSCFG_MemoryRemapConfig,"ax",%progbits
	.hidden	SYSCFG_MemoryRemapConfig @ -- Begin function SYSCFG_MemoryRemapConfig
	.globl	SYSCFG_MemoryRemapConfig
	.p2align	1
	.type	SYSCFG_MemoryRemapConfig,%function
	.code	16                      @ @SYSCFG_MemoryRemapConfig
	.thumb_func
SYSCFG_MemoryRemapConfig:
.Lfunc_begin1:
	.loc	3 120 0                 @ ../Libraries/STM32F4xx_StdPeriph_Driver/src/stm32f4xx_syscfg.c:120:0
	.fnstart
	.cfi_startproc
@ %bb.0:
	@DEBUG_VALUE: SYSCFG_MemoryRemapConfig:SYSCFG_MemoryRemap <- $r0
	movw	r1, #14336
	movt	r1, #16385
	@DEBUG_VALUE: SYSCFG_MemoryRemapConfig:SYSCFG_MemoryRemap <- $r0
.Ltmp2:
	.loc	3 124 18 prologue_end   @ ../Libraries/STM32F4xx_StdPeriph_Driver/src/stm32f4xx_syscfg.c:124:18
	str	r0, [r1]
	.loc	3 125 1                 @ ../Libraries/STM32F4xx_StdPeriph_Driver/src/stm32f4xx_syscfg.c:125:1
	bx	lr
.Ltmp3:
.Lfunc_end1:
	.size	SYSCFG_MemoryRemapConfig, .Lfunc_end1-SYSCFG_MemoryRemapConfig
	.cfi_endproc
	.cantunwind
	.fnend
                                        @ -- End function
	.section	.text.SYSCFG_MemorySwappingBank,"ax",%progbits
	.hidden	SYSCFG_MemorySwappingBank @ -- Begin function SYSCFG_MemorySwappingBank
	.globl	SYSCFG_MemorySwappingBank
	.p2align	1
	.type	SYSCFG_MemorySwappingBank,%function
	.code	16                      @ @SYSCFG_MemorySwappingBank
	.thumb_func
SYSCFG_MemorySwappingBank:
.Lfunc_begin2:
	.loc	3 141 0                 @ ../Libraries/STM32F4xx_StdPeriph_Driver/src/stm32f4xx_syscfg.c:141:0
	.fnstart
	.cfi_startproc
@ %bb.0:
	@DEBUG_VALUE: SYSCFG_MemorySwappingBank:NewState <- $r0
	movs	r1, #32
	movt	r1, #16935
	@DEBUG_VALUE: SYSCFG_MemorySwappingBank:NewState <- $r0
.Ltmp4:
	.loc	3 145 34 prologue_end   @ ../Libraries/STM32F4xx_StdPeriph_Driver/src/stm32f4xx_syscfg.c:145:34
	str	r0, [r1]
	.loc	3 146 1                 @ ../Libraries/STM32F4xx_StdPeriph_Driver/src/stm32f4xx_syscfg.c:146:1
	bx	lr
.Ltmp5:
.Lfunc_end2:
	.size	SYSCFG_MemorySwappingBank, .Lfunc_end2-SYSCFG_MemorySwappingBank
	.cfi_endproc
	.cantunwind
	.fnend
                                        @ -- End function
	.section	.text.SYSCFG_EXTILineConfig,"ax",%progbits
	.hidden	SYSCFG_EXTILineConfig   @ -- Begin function SYSCFG_EXTILineConfig
	.globl	SYSCFG_EXTILineConfig
	.p2align	1
	.type	SYSCFG_EXTILineConfig,%function
	.code	16                      @ @SYSCFG_EXTILineConfig
	.thumb_func
SYSCFG_EXTILineConfig:
.Lfunc_begin3:
	.loc	3 164 0                 @ ../Libraries/STM32F4xx_StdPeriph_Driver/src/stm32f4xx_syscfg.c:164:0
	.fnstart
	.cfi_startproc
@ %bb.0:
	.save	{r7, lr}
	push	{r7, lr}
	.cfi_def_cfa_offset 8
	.cfi_offset lr, -4
	.cfi_offset r7, -8
	@DEBUG_VALUE: SYSCFG_EXTILineConfig:EXTI_PortSourceGPIOx <- $r0
	@DEBUG_VALUE: SYSCFG_EXTILineConfig:EXTI_PortSourceGPIOx <- $r0
	@DEBUG_VALUE: SYSCFG_EXTILineConfig:EXTI_PinSourcex <- $r1
	@DEBUG_VALUE: SYSCFG_EXTILineConfig:EXTI_PinSourcex <- $r1
.Ltmp6:
	@DEBUG_VALUE: SYSCFG_EXTILineConfig:tmp <- 0
	movw	lr, #14344
.Ltmp7:
	.loc	3 172 34 prologue_end   @ ../Libraries/STM32F4xx_StdPeriph_Driver/src/stm32f4xx_syscfg.c:172:34
	and	r2, r1, #252
	movs	r3, #12
	movt	lr, #16385
	.loc	3 171 35                @ ../Libraries/STM32F4xx_StdPeriph_Driver/src/stm32f4xx_syscfg.c:171:35
	and.w	r1, r3, r1, lsl #2
.Ltmp8:
	.loc	3 0 35 is_stmt 0        @ ../Libraries/STM32F4xx_StdPeriph_Driver/src/stm32f4xx_syscfg.c:0:35
	movs	r3, #15
	.loc	3 172 43 is_stmt 1      @ ../Libraries/STM32F4xx_StdPeriph_Driver/src/stm32f4xx_syscfg.c:172:43
	ldr.w	r12, [r2, lr]
	.loc	3 171 26                @ ../Libraries/STM32F4xx_StdPeriph_Driver/src/stm32f4xx_syscfg.c:171:26
	lsls	r3, r1
.Ltmp9:
	@DEBUG_VALUE: SYSCFG_EXTILineConfig:tmp <- $r3
	.loc	3 173 80                @ ../Libraries/STM32F4xx_StdPeriph_Driver/src/stm32f4xx_syscfg.c:173:80
	lsls	r0, r1
.Ltmp10:
	.loc	3 172 43                @ ../Libraries/STM32F4xx_StdPeriph_Driver/src/stm32f4xx_syscfg.c:172:43
	bic.w	r3, r12, r3
.Ltmp11:
	str.w	r3, [r2, lr]
	.loc	3 173 43                @ ../Libraries/STM32F4xx_StdPeriph_Driver/src/stm32f4xx_syscfg.c:173:43
	ldr.w	r3, [r2, lr]
	orrs	r0, r3
	str.w	r0, [r2, lr]
	.loc	3 174 1                 @ ../Libraries/STM32F4xx_StdPeriph_Driver/src/stm32f4xx_syscfg.c:174:1
	pop	{r7, pc}
.Ltmp12:
.Lfunc_end3:
	.size	SYSCFG_EXTILineConfig, .Lfunc_end3-SYSCFG_EXTILineConfig
	.cfi_endproc
	.cantunwind
	.fnend
                                        @ -- End function
	.section	.text.SYSCFG_ETH_MediaInterfaceConfig,"ax",%progbits
	.hidden	SYSCFG_ETH_MediaInterfaceConfig @ -- Begin function SYSCFG_ETH_MediaInterfaceConfig
	.globl	SYSCFG_ETH_MediaInterfaceConfig
	.p2align	1
	.type	SYSCFG_ETH_MediaInterfaceConfig,%function
	.code	16                      @ @SYSCFG_ETH_MediaInterfaceConfig
	.thumb_func
SYSCFG_ETH_MediaInterfaceConfig:
.Lfunc_begin4:
	.loc	3 185 0                 @ ../Libraries/STM32F4xx_StdPeriph_Driver/src/stm32f4xx_syscfg.c:185:0
	.fnstart
	.cfi_startproc
@ %bb.0:
	@DEBUG_VALUE: SYSCFG_ETH_MediaInterfaceConfig:SYSCFG_ETH_MediaInterface <- $r0
	movs	r1, #220
	movt	r1, #16935
	@DEBUG_VALUE: SYSCFG_ETH_MediaInterfaceConfig:SYSCFG_ETH_MediaInterface <- $r0
.Ltmp13:
	.loc	3 188 42 prologue_end   @ ../Libraries/STM32F4xx_StdPeriph_Driver/src/stm32f4xx_syscfg.c:188:42
	str	r0, [r1]
	.loc	3 189 1                 @ ../Libraries/STM32F4xx_StdPeriph_Driver/src/stm32f4xx_syscfg.c:189:1
	bx	lr
.Ltmp14:
.Lfunc_end4:
	.size	SYSCFG_ETH_MediaInterfaceConfig, .Lfunc_end4-SYSCFG_ETH_MediaInterfaceConfig
	.cfi_endproc
	.cantunwind
	.fnend
                                        @ -- End function
	.section	.text.SYSCFG_CompensationCellCmd,"ax",%progbits
	.hidden	SYSCFG_CompensationCellCmd @ -- Begin function SYSCFG_CompensationCellCmd
	.globl	SYSCFG_CompensationCellCmd
	.p2align	1
	.type	SYSCFG_CompensationCellCmd,%function
	.code	16                      @ @SYSCFG_CompensationCellCmd
	.thumb_func
SYSCFG_CompensationCellCmd:
.Lfunc_begin5:
	.loc	3 202 0                 @ ../Libraries/STM32F4xx_StdPeriph_Driver/src/stm32f4xx_syscfg.c:202:0
	.fnstart
	.cfi_startproc
@ %bb.0:
	@DEBUG_VALUE: SYSCFG_CompensationCellCmd:NewState <- $r0
	movw	r1, #1024
	movt	r1, #16935
	@DEBUG_VALUE: SYSCFG_CompensationCellCmd:NewState <- $r0
.Ltmp15:
	.loc	3 206 38 prologue_end   @ ../Libraries/STM32F4xx_StdPeriph_Driver/src/stm32f4xx_syscfg.c:206:38
	str	r0, [r1]
	.loc	3 207 1                 @ ../Libraries/STM32F4xx_StdPeriph_Driver/src/stm32f4xx_syscfg.c:207:1
	bx	lr
.Ltmp16:
.Lfunc_end5:
	.size	SYSCFG_CompensationCellCmd, .Lfunc_end5-SYSCFG_CompensationCellCmd
	.cfi_endproc
	.cantunwind
	.fnend
                                        @ -- End function
	.section	.text.SYSCFG_GetCompensationCellStatus,"ax",%progbits
	.hidden	SYSCFG_GetCompensationCellStatus @ -- Begin function SYSCFG_GetCompensationCellStatus
	.globl	SYSCFG_GetCompensationCellStatus
	.p2align	1
	.type	SYSCFG_GetCompensationCellStatus,%function
	.code	16                      @ @SYSCFG_GetCompensationCellStatus
	.thumb_func
SYSCFG_GetCompensationCellStatus:
.Lfunc_begin6:
	.loc	3 215 0                 @ ../Libraries/STM32F4xx_StdPeriph_Driver/src/stm32f4xx_syscfg.c:215:0
	.fnstart
	.cfi_startproc
@ %bb.0:
	movw	r0, #14368
	movt	r0, #16385
.Ltmp17:
	@DEBUG_VALUE: SYSCFG_GetCompensationCellStatus:bitstatus <- 0
	.loc	3 218 16 prologue_end   @ ../Libraries/STM32F4xx_StdPeriph_Driver/src/stm32f4xx_syscfg.c:218:16
	ldr	r0, [r0]
.Ltmp18:
	@DEBUG_VALUE: SYSCFG_GetCompensationCellStatus:bitstatus <- undef
	.loc	3 226 3                 @ ../Libraries/STM32F4xx_StdPeriph_Driver/src/stm32f4xx_syscfg.c:226:3
	ubfx	r0, r0, #8, #1
	bx	lr
.Ltmp19:
.Lfunc_end6:
	.size	SYSCFG_GetCompensationCellStatus, .Lfunc_end6-SYSCFG_GetCompensationCellStatus
	.cfi_endproc
	.cantunwind
	.fnend
                                        @ -- End function
	.section	".note.GNU-stack","",%progbits
	.eabi_attribute	30, 3	@ Tag_ABI_optimization_goals
	.ARM_attribute	16, 1	@ Tag_AV_eba