	.text
	.syntax unified
	.eabi_attribute	67, "2.09"	@ Tag_conformance
	.cpu	cortex-m4
	.eabi_attribute	6, 13	@ Tag_CPU_arch
	.eabi_attribute	7, 77	@ Tag_CPU_arch_profile
	.eabi_attribute	8, 0	@ Tag_ARM_ISA_use
	.eabi_attribute	9, 2	@ Tag_THUMB_ISA_use
	.fpu	fpv4-sp-d16
	.eabi_attribute	27, 1	@ Tag_ABI_HardFP_use
	.eabi_attribute	36, 1	@ Tag_FP_HP_extension
	.eabi_attribute	34, 1	@ Tag_CPU_unaligned_access
	.eabi_attribute	17, 1	@ Tag_ABI_PCS_GOT_use
	.eabi_attribute	20, 2	@ Tag_ABI_FP_denormal
	.eabi_attribute	21, 0	@ Tag_ABI_FP_exceptions
	.eabi_attribute	23, 1	@ Tag_ABI_FP_number_model
	.eabi_attribute	24, 1	@ Tag_ABI_align_needed
	.eabi_attribute	25, 1	@ Tag_ABI_align_preserved
	.eabi_attribute	28, 1	@ Tag_ABI_VFP_args
	.eabi_attribute	38, 1	@ Tag_ABI_FP_16bit_format
	.eabi_attribute	18, 2	@ Tag_ABI_PCS_wchar_t
	.eabi_attribute	26, 1	@ Tag_ABI_enum_size
	.eabi_attribute	14, 0	@ Tag_ABI_PCS_R9_use
	.file	"stm32f4xx_flash.c"
	.file	1 "F:\\SkyDrive\\OtvoreniProjekti\\HotelSaplast\\fw\\KontrolerHotela\\HC070318\\Project" "../Libraries/CMSIS/Device/ST/STM32F4xx/Include\\stm32f4xx.h"
	.file	2 "F:\\SkyDrive\\OtvoreniProjekti\\HotelSaplast\\fw\\KontrolerHotela\\HC070318\\Project" "../Libraries/STM32F4xx_StdPeriph_Driver/inc\\stm32f4xx_flash.h"
	.file	3 "C:\\Keil\\ARM\\ARMCLANG\\Bin\\..\\include" "stdint.h"
	.section	.text.FLASH_SetLatency,"ax",%progbits
	.hidden	FLASH_SetLatency        @ -- Begin function FLASH_SetLatency
	.globl	FLASH_SetLatency
	.p2align	1
	.type	FLASH_SetLatency,%function
	.code	16                      @ @FLASH_SetLatency
	.thumb_func
FLASH_SetLatency:
.Lfunc_begin0:
	.file	4 "F:\\SkyDrive\\OtvoreniProjekti\\HotelSaplast\\fw\\KontrolerHotela\\HC070318\\Project" "../Libraries/STM32F4xx_StdPeriph_Driver/src/stm32f4xx_flash.c"
	.loc	4 278 0                 @ ../Libraries/STM32F4xx_StdPeriph_Driver/src/stm32f4xx_flash.c:278:0
	.fnstart
	.cfi_sections .debug_frame
	.cfi_startproc
@ %bb.0:
	@DEBUG_VALUE: FLASH_SetLatency:FLASH_Latency <- $r0
	movw	r1, #15360
	movt	r1, #16386
	@DEBUG_VALUE: FLASH_SetLatency:FLASH_Latency <- $r0
.Ltmp0:
	.loc	4 283 38 prologue_end   @ ../Libraries/STM32F4xx_StdPeriph_Driver/src/stm32f4xx_flash.c:283:38
	strb	r0, [r1]
	.loc	4 284 1                 @ ../Libraries/STM32F4xx_StdPeriph_Driver/src/stm32f4xx_flash.c:284:1
	bx	lr
.Ltmp1:
.Lfunc_end0:
	.size	FLASH_SetLatency, .Lfunc_end0-FLASH_SetLatency
	.cfi_endproc
	.cantunwind
	.fnend
                                        @ -- End function
	.section	.text.FLASH_PrefetchBufferCmd,"ax",%progbits
	.hidden	FLASH_PrefetchBufferCmd @ -- Begin function FLASH_PrefetchBufferCmd
	.globl	FLASH_PrefetchBufferCmd
	.p2align	1
	.type	FLASH_PrefetchBufferCmd,%function
	.code	16                      @ @FLASH_PrefetchBufferCmd
	.thumb_func
FLASH_PrefetchBufferCmd:
.Lfunc_begin1:
	.loc	4 293 0                 @ ../Libraries/STM32F4xx_StdPeriph_Driver/src/stm32f4xx_flash.c:293:0
	.fnstart
	.cfi_startproc
@ %bb.0:
	@DEBUG_VALUE: FLASH_PrefetchBufferCmd:NewState <- $r0
	movw	r1, #15360
.Ltmp2:
	.loc	4 298 6 prologue_end    @ ../Libraries/STM32F4xx_StdPeriph_Driver/src/stm32f4xx_flash.c:298:6
	cmp	r0, #0
	movt	r1, #16386
	@DEBUG_VALUE: FLASH_PrefetchBufferCmd:NewState <- $r0
.Ltmp3:
	.loc	4 0 0 is_stmt 0         @ ../Libraries/STM32F4xx_StdPeriph_Driver/src/stm32f4xx_flash.c:0:0
	ldr	r2, [r1]
.Ltmp4:
	.loc	4 298 6                 @ ../Libraries/STM32F4xx_StdPeriph_Driver/src/stm32f4xx_flash.c:298:6
	orr	r3, r2, #256
	it	eq
	biceq	r3, r2, #256
.Ltmp5:
	.loc	4 0 0                   @ ../Libraries/STM32F4xx_StdPeriph_Driver/src/stm32f4xx_flash.c:0:0
	str	r3, [r1]
.Ltmp6:
	.loc	4 306 1 is_stmt 1       @ ../Libraries/STM32F4xx_StdPeriph_Driver/src/stm32f4xx_flash.c:306:1
	bx	lr
.Ltmp7:
.Lfunc_end1:
	.size	FLASH_PrefetchBufferCmd, .Lfunc_end1-FLASH_PrefetchBufferCmd
	.cfi_endproc
	.cantunwind
	.fnend
                                        @ -- End function
	.section	.text.FLASH_InstructionCacheCmd,"ax",%progbits
	.hidden	FLASH_InstructionCacheCmd @ -- Begin function FLASH_InstructionCacheCmd
	.globl	FLASH_InstructionCacheCmd
	.p2align	1
	.type	FLASH_InstructionCacheCmd,%function
	.code	16                      @ @FLASH_InstructionCacheCmd
	.thumb_func
FLASH_InstructionCacheCmd:
.Lfunc_begin2:
	.loc	4 315 0                 @ ../Libraries/STM32F4xx_StdPeriph_Driver/src/stm32f4xx_flash.c:315:0
	.fnstart
	.cfi_startproc
@ %bb.0:
	@DEBUG_VALUE: FLASH_InstructionCacheCmd:NewState <- $r0
	movw	r1, #15360
.Ltmp8:
	.loc	4 319 6 prologue_end    @ ../Libraries/STM32F4xx_StdPeriph_Driver/src/stm32f4xx_flash.c:319:6
	cmp	r0, #0
	movt	r1, #16386
	@DEBUG_VALUE: FLASH_InstructionCacheCmd:NewState <- $r0
.Ltmp9:
	.loc	4 0 0 is_stmt 0         @ ../Libraries/STM32F4xx_StdPeriph_Driver/src/stm32f4xx_flash.c:0:0
	ldr	r2, [r1]
.Ltmp10:
	.loc	4 319 6                 @ ../Libraries/STM32F4xx_StdPeriph_Driver/src/stm32f4xx_flash.c:319:6
	orr	r3, r2, #512
	it	eq
	biceq	r3, r2, #512
.Ltmp11:
	.loc	4 0 0                   @ ../Libraries/STM32F4xx_StdPeriph_Driver/src/stm32f4xx_flash.c:0:0
	str	r3, [r1]
.Ltmp12:
	.loc	4 327 1 is_stmt 1       @ ../Libraries/STM32F4xx_StdPeriph_Driver/src/stm32f4xx_flash.c:327:1
	bx	lr
.Ltmp13:
.Lfunc_end2:
	.size	FLASH_InstructionCacheCmd, .Lfunc_end2-FLASH_InstructionCacheCmd
	.cfi_endproc
	.cantunwind
	.fnend
                                        @ -- End function
	.section	.text.FLASH_DataCacheCmd,"ax",%progbits
	.hidden	FLASH_DataCacheCmd      @ -- Begin function FLASH_DataCacheCmd
	.globl	FLASH_DataCacheCmd
	.p2align	1
	.type	FLASH_DataCacheCmd,%function
	.code	16                      @ @FLASH_DataCacheCmd
	.thumb_func
FLASH_DataCacheCmd:
.Lfunc_begin3:
	.loc	4 336 0                 @ ../Libraries/STM32F4xx_StdPeriph_Driver/src/stm32f4xx_flash.c:336:0
	.fnstart
	.cfi_startproc
@ %bb.0:
	@DEBUG_VALUE: FLASH_DataCacheCmd:NewState <- $r0
	movw	r1, #15360
.Ltmp14:
	.loc	4 340 6 prologue_end    @ ../Libraries/STM32F4xx_StdPeriph_Driver/src/stm32f4xx_flash.c:340:6
	cmp	r0, #0
	movt	r1, #16386
	@DEBUG_VALUE: FLASH_DataCacheCmd:NewState <- $r0
.Ltmp15:
	.loc	4 0 0 is_stmt 0         @ ../Libraries/STM32F4xx_StdPeriph_Driver/src/stm32f4xx_flash.c:0:0
	ldr	r2, [r1]
.Ltmp16:
	.loc	4 340 6                 @ ../Libraries/STM32F4xx_StdPeriph_Driver/src/stm32f4xx_flash.c:340:6
	orr	r3, r2, #1024
	it	eq
	biceq	r3, r2, #1024
.Ltmp17:
	.loc	4 0 0                   @ ../Libraries/STM32F4xx_StdPeriph_Driver/src/stm32f4xx_flash.c:0:0
	str	r3, [r1]
.Ltmp18:
	.loc	4 348 1 is_stmt 1       @ ../Libraries/STM32F4xx_StdPeriph_Driver/src/stm32f4xx_flash.c:348:1
	bx	lr
.Ltmp19:
.Lfunc_end3:
	.size	FLASH_DataCacheCmd, .Lfunc_end3-FLASH_DataCacheCmd
	.cfi_endproc
	.cantunwind
	.fnend
                                        @ -- End function
	.section	.text.FLASH_InstructionCacheReset,"ax",%progbits
	.hidden	FLASH_InstructionCacheReset @ -- Begin function FLASH_InstructionCacheReset
	.globl	FLASH_InstructionCacheReset
	.p2align	1
	.type	FLASH_InstructionCacheReset,%function
	.code	16                      @ @FLASH_InstructionCacheReset
	.thumb_func
FLASH_InstructionCacheReset:
.Lfunc_begin4:
	.loc	4 357 0                 @ ../Libraries/STM32F4xx_StdPeriph_Driver/src/stm32f4xx_flash.c:357:0
	.fnstart
	.cfi_startproc
@ %bb.0:
	movw	r0, #15360
	movt	r0, #16386
.Ltmp20:
	.loc	4 358 14 prologue_end   @ ../Libraries/STM32F4xx_StdPeriph_Driver/src/stm32f4xx_flash.c:358:14
	ldr	r1, [r0]
	orr	r1, r1, #2048
	str	r1, [r0]
	.loc	4 359 1                 @ ../Libraries/STM32F4xx_StdPeriph_Driver/src/stm32f4xx_flash.c:359:1
	bx	lr
.Ltmp21:
.Lfunc_end4:
	.size	FLASH_InstructionCacheReset, .Lfunc_end4-FLASH_InstructionCacheReset
	.cfi_endproc
	.cantunwind
	.fnend
                                        @ -- End function
	.section	.text.FLASH_DataCacheReset,"ax",%progbits
	.hidden	FLASH_DataCacheReset    @ -- Begin function FLASH_DataCacheReset
	.globl	FLASH_DataCacheReset
	.p2align	1
	.type	FLASH_DataCacheReset,%function
	.code	16                      @ @FLASH_DataCacheReset
	.thumb_func
FLASH_DataCacheReset:
.Lfunc_begin5:
	.loc	4 368 0                 @ ../Libraries/STM32F4xx_StdPeriph_Driver/src/stm32f4xx_flash.c:368:0
	.fnstart
	.cfi_startproc
@ %bb.0:
	movw	r0, #15360
	movt	r0, #16386
.Ltmp22:
	.loc	4 369 14 prologue_end   @ ../Libraries/STM32F4xx_StdPeriph_Driver/src/stm32f4xx_flash.c:369:14
	ldr	r1, [r0]
	orr	r1, r1, #4096
	str	r1, [r0]
	.loc	4 370 1                 @ ../Libraries/STM32F4xx_StdPeriph_Driver/src/stm32f4xx_flash.c:370:1
	bx	lr
.Ltmp23:
.Lfunc_end5:
	.size	FLASH_DataCacheReset, .Lfunc_end5-FLASH_DataCacheReset
	.cfi_endproc
	.cantunwind
	.fnend
                                        @ -- End function
	.section	.text.FLASH_Unlock,"ax",%progbits
	.hidden	FLASH_Unlock            @ -- Begin function FLASH_Unlock
	.globl	FLASH_Unlock
	.p2align	1
	.type	FLASH_Unlock,%function
	.code	16                      @ @FLASH_Unlock
	.thumb_func
FLASH_Unlock:
.Lfunc_begin6:
	.loc	4 415 0                 @ ../Libraries/STM32F4xx_StdPeriph_Driver/src/stm32f4xx_flash.c:415:0
	.fnstart
	.cfi_startproc
@ %bb.0:
	movw	r0, #15364
	movt	r0, #16386
.Ltmp24:
	.loc	4 416 14 prologue_end   @ ../Libraries/STM32F4xx_StdPeriph_Driver/src/stm32f4xx_flash.c:416:14
	ldr	r1, [r0, #12]
.Ltmp25:
	.loc	4 416 6 is_stmt 0       @ ../Libraries/STM32F4xx_StdPeriph_Driver/src/stm32f4xx_flash.c:416:6
	cmp.w	r1, #-1
	.loc	4 422 1 is_stmt 1       @ ../Libraries/STM32F4xx_StdPeriph_Driver/src/stm32f4xx_flash.c:422:1
	it	gt
	bxgt	lr
	movw	r1, #291
	movt	r1, #17767
.Ltmp26:
	.loc	4 419 17                @ ../Libraries/STM32F4xx_StdPeriph_Driver/src/stm32f4xx_flash.c:419:17
	str	r1, [r0]
	movw	r1, #35243
	movt	r1, #52719
	.loc	4 420 17                @ ../Libraries/STM32F4xx_StdPeriph_Driver/src/stm32f4xx_flash.c:420:17
	str	r1, [r0]
.Ltmp27:
	.loc	4 422 1                 @ ../Libraries/STM32F4xx_StdPeriph_Driver/src/stm32f4xx_flash.c:422:1
	bx	lr
.Ltmp28:
.Lfunc_end6:
	.size	FLASH_Unlock, .Lfunc_end6-FLASH_Unlock
	.cfi_endproc
	.cantunwind
	.fnend
                                        @ -- End function
	.section	.text.FLASH_Lock,"ax",%progbits
	.hidden	FLASH_Lock              @ -- Begin function FLASH_Lock
	.globl	FLASH_Lock
	.p2align	1
	.type	FLASH_Lock,%function
	.code	16                      @ @FLASH_Lock
	.thumb_func
FLASH_Lock:
.Lfunc_begin7:
	.loc	4 430 0                 @ ../Libraries/STM32F4xx_StdPeriph_Driver/src/stm32f4xx_flash.c:430:0
	.fnstart
	.cfi_startproc
@ %bb.0:
	movw	r0, #15376
	movt	r0, #16386
.Ltmp29:
	.loc	4 432 13 prologue_end   @ ../Libraries/STM32F4xx_StdPeriph_Driver/src/stm32f4xx_flash.c:432:13
	ldr	r1, [r0]
	orr	r1, r1, #-2147483648
	str	r1, [r0]
	.loc	4 433 1                 @ ../Libraries/STM32F4xx_StdPeriph_Driver/src/stm32f4xx_flash.c:433:1
	bx	lr
.Ltmp30:
.Lfunc_end7:
	.size	FLASH_Lock, .Lfunc_end7-FLASH_Lock
	.cfi_endproc
	.cantunwind
	.fnend
                                        @ -- End function
	.section	.text.FLASH_EraseSector,"ax",%progbits
	.hidden	FLASH_EraseSector       @ -- Begin function FLASH_EraseSector
	.globl	FLASH_EraseSector
	.p2align	1
	.type	FLASH_EraseSector,%function
	.code	16                      @ @FLASH_EraseSector
	.thumb_func
FLASH_EraseSector:
.Lfunc_begin8:
	.loc	4 470 0                 @ ../Libraries/STM32F4xx_StdPeriph_Driver/src/stm32f4xx_flash.c:470:0
	.fnstart
	.cfi_startproc
@ %bb.0:
	.save	{r4, r5, r6, lr}
	push	{r4, r5, r6, lr}
	.cfi_def_cfa_offset 16
	.cfi_offset lr, -4
	.cfi_offset r6, -8
	.cfi_offset r5, -12
	.cfi_offset r4, -16
	@DEBUG_VALUE: FLASH_EraseSector:FLASH_Sector <- $r0
	@DEBUG_VALUE: FLASH_EraseSector:VoltageRange <- $r1
	mov	r5, r1
	mov	r4, r0
.Ltmp31:
	@DEBUG_VALUE: FLASH_EraseSector:status <- 9
	@DEBUG_VALUE: FLASH_EraseSector:tmp_psize <- 0
	@DEBUG_VALUE: FLASH_EraseSector:VoltageRange <- $r5
	@DEBUG_VALUE: FLASH_EraseSector:FLASH_Sector <- $r4
	.loc	4 495 12 prologue_end   @ ../Libraries/STM32F4xx_StdPeriph_Driver/src/stm32f4xx_flash.c:495:12
	bl	FLASH_WaitForLastOperation
.Ltmp32:
	@DEBUG_VALUE: FLASH_EraseSector:status <- $r0
	.loc	4 497 6                 @ ../Libraries/STM32F4xx_StdPeriph_Driver/src/stm32f4xx_flash.c:497:6
	cmp	r0, #9
	.loc	4 514 3                 @ ../Libraries/STM32F4xx_StdPeriph_Driver/src/stm32f4xx_flash.c:514:3
	it	ne
	popne	{r4, r5, r6, pc}
.Ltmp33:
	.loc	4 0 3 is_stmt 0         @ ../Libraries/STM32F4xx_StdPeriph_Driver/src/stm32f4xx_flash.c:0:3
	movw	r6, #15376
	.loc	4 478 6 is_stmt 1       @ ../Libraries/STM32F4xx_StdPeriph_Driver/src/stm32f4xx_flash.c:478:6
	cmp	r5, #3
	movt	r6, #16386
.Ltmp34:
	.loc	4 500 15                @ ../Libraries/STM32F4xx_StdPeriph_Driver/src/stm32f4xx_flash.c:500:15
	ldr	r0, [r6]
.Ltmp35:
	bic	r0, r0, #768
	str	r0, [r6]
	mov.w	r0, #768
.Ltmp36:
	.loc	4 478 6                 @ ../Libraries/STM32F4xx_StdPeriph_Driver/src/stm32f4xx_flash.c:478:6
	it	lo
	lsllo	r0, r5, #8
.Ltmp37:
	@DEBUG_VALUE: FLASH_EraseSector:tmp_psize <- $r0
	.loc	4 501 15                @ ../Libraries/STM32F4xx_StdPeriph_Driver/src/stm32f4xx_flash.c:501:15
	ldr	r1, [r6]
	orrs	r0, r1
.Ltmp38:
	str	r0, [r6]
	.loc	4 502 15                @ ../Libraries/STM32F4xx_StdPeriph_Driver/src/stm32f4xx_flash.c:502:15
	ldr	r0, [r6]
	bic	r0, r0, #248
	str	r0, [r6]
	.loc	4 503 15                @ ../Libraries/STM32F4xx_StdPeriph_Driver/src/stm32f4xx_flash.c:503:15
	ldr	r0, [r6]
	orrs	r0, r4
	orr	r0, r0, #2
	str	r0, [r6]
	.loc	4 504 15                @ ../Libraries/STM32F4xx_StdPeriph_Driver/src/stm32f4xx_flash.c:504:15
	ldr	r0, [r6]
	orr	r0, r0, #65536
	str	r0, [r6]
	.loc	4 507 14                @ ../Libraries/STM32F4xx_StdPeriph_Driver/src/stm32f4xx_flash.c:507:14
	bl	FLASH_WaitForLastOperation
.Ltmp39:
	@DEBUG_VALUE: FLASH_EraseSector:status <- undef
	.loc	4 510 15                @ ../Libraries/STM32F4xx_StdPeriph_Driver/src/stm32f4xx_flash.c:510:15
	ldr	r1, [r6]
	bic	r1, r1, #2
	str	r1, [r6]
	.loc	4 511 15                @ ../Libraries/STM32F4xx_StdPeriph_Driver/src/stm32f4xx_flash.c:511:15
	ldr	r1, [r6]
	bic	r1, r1, #248
	str	r1, [r6]
.Ltmp40:
	.loc	4 514 3                 @ ../Libraries/STM32F4xx_StdPeriph_Driver/src/stm32f4xx_flash.c:514:3
	pop	{r4, r5, r6, pc}
.Ltmp41:
.Lfunc_end8:
	.size	FLASH_EraseSector, .Lfunc_end8-FLASH_EraseSector
	.cfi_endproc
	.cantunwind
	.fnend
                                        @ -- End function
	.section	.text.FLASH_WaitForLastOperation,"ax",%progbits
	.hidden	FLASH_WaitForLastOperation @ -- Begin function FLASH_WaitForLastOperation
	.globl	FLASH_WaitForLastOperation
	.p2align	1
	.type	FLASH_WaitForLastOperation,%function
	.code	16                      @ @FLASH_WaitForLastOperation
	.thumb_func
FLASH_WaitForLastOperation:
.Lfunc_begin9:
	.loc	4 1579 0                @ ../Libraries/STM32F4xx_StdPeriph_Driver/src/stm32f4xx_flash.c:1579:0
	.fnstart
	.cfi_startproc
@ %bb.0:
	.save	{r7, lr}
	push	{r7, lr}
	.cfi_def_cfa_offset 8
	.cfi_offset lr, -4
	.cfi_offset r7, -8
	.pad	#8
	sub	sp, #8
	.cfi_def_cfa_offset 16
	movs	r0, #9
.Ltmp42:
	.loc	4 1580 21 prologue_end  @ ../Libraries/STM32F4xx_StdPeriph_Driver/src/stm32f4xx_flash.c:1580:21
	strb.w	r0, [sp, #7]
	.p2align	2
.LBB9_1:                                @ =>This Inner Loop Header: Depth=1
	.loc	4 0 0 is_stmt 0         @ ../Libraries/STM32F4xx_StdPeriph_Driver/src/stm32f4xx_flash.c:0:0
	bl	FLASH_GetStatus
	strb.w	r0, [sp, #7]
	.loc	4 1588 9 is_stmt 1      @ ../Libraries/STM32F4xx_StdPeriph_Driver/src/stm32f4xx_flash.c:1588:9
	ldrb.w	r0, [sp, #7]
	.loc	4 1588 3 is_stmt 0      @ ../Libraries/STM32F4xx_StdPeriph_Driver/src/stm32f4xx_flash.c:1588:3
	cmp	r0, #1
	beq	.LBB9_1
@ %bb.2:
	.loc	4 1593 10 is_stmt 1     @ ../Libraries/STM32F4xx_StdPeriph_Driver/src/stm32f4xx_flash.c:1593:10
	ldrb.w	r0, [sp, #7]
	.loc	4 1593 3 is_stmt 0      @ ../Libraries/STM32F4xx_StdPeriph_Driver/src/stm32f4xx_flash.c:1593:3
	add	sp, #8
	pop	{r7, pc}
.Ltmp43:
.Lfunc_end9:
	.size	FLASH_WaitForLastOperation, .Lfunc_end9-FLASH_WaitForLastOperation
	.cfi_endproc
	.cantunwind
	.fnend
                                        @ -- End function
	.section	.text.FLASH_EraseAllSectors,"ax",%progbits
	.hidden	FLASH_EraseAllSectors   @ -- Begin function FLASH_EraseAllSectors
	.globl	FLASH_EraseAllSectors
	.p2align	1
	.type	FLASH_EraseAllSectors,%function
	.code	16                      @ @FLASH_EraseAllSectors
	.thumb_func
FLASH_EraseAllSectors:
.Lfunc_begin10:
	.loc	4 538 0 is_stmt 1       @ ../Libraries/STM32F4xx_StdPeriph_Driver/src/stm32f4xx_flash.c:538:0
	.fnstart
	.cfi_startproc
@ %bb.0:
	.save	{r4, r5, r7, lr}
	push	{r4, r5, r7, lr}
	.cfi_def_cfa_offset 16
	.cfi_offset lr, -4
	.cfi_offset r7, -8
	.cfi_offset r5, -12
	.cfi_offset r4, -16
	@DEBUG_VALUE: FLASH_EraseAllSectors:VoltageRange <- $r0
	mov	r4, r0
.Ltmp44:
	@DEBUG_VALUE: FLASH_EraseAllSectors:status <- 9
	@DEBUG_VALUE: FLASH_EraseAllSectors:tmp_psize <- 0
	@DEBUG_VALUE: FLASH_EraseAllSectors:VoltageRange <- $r4
	.loc	4 543 12 prologue_end   @ ../Libraries/STM32F4xx_StdPeriph_Driver/src/stm32f4xx_flash.c:543:12
	bl	FLASH_WaitForLastOperation
.Ltmp45:
	@DEBUG_VALUE: FLASH_EraseAllSectors:status <- $r0
	.loc	4 562 6                 @ ../Libraries/STM32F4xx_StdPeriph_Driver/src/stm32f4xx_flash.c:562:6
	cmp	r0, #9
	.loc	4 593 3                 @ ../Libraries/STM32F4xx_StdPeriph_Driver/src/stm32f4xx_flash.c:593:3
	it	ne
	popne	{r4, r5, r7, pc}
.Ltmp46:
	.loc	4 0 3 is_stmt 0         @ ../Libraries/STM32F4xx_StdPeriph_Driver/src/stm32f4xx_flash.c:0:3
	movw	r5, #15376
	.loc	4 546 6 is_stmt 1       @ ../Libraries/STM32F4xx_StdPeriph_Driver/src/stm32f4xx_flash.c:546:6
	cmp	r4, #3
	movt	r5, #16386
.Ltmp47:
	.loc	4 566 15                @ ../Libraries/STM32F4xx_StdPeriph_Driver/src/stm32f4xx_flash.c:566:15
	ldr	r0, [r5]
.Ltmp48:
	bic	r0, r0, #768
	str	r0, [r5]
	mov.w	r0, #768
.Ltmp49:
	.loc	4 546 6                 @ ../Libraries/STM32F4xx_StdPeriph_Driver/src/stm32f4xx_flash.c:546:6
	it	lo
	lsllo	r0, r4, #8
.Ltmp50:
	@DEBUG_VALUE: FLASH_EraseAllSectors:tmp_psize <- $r0
	.loc	4 567 15                @ ../Libraries/STM32F4xx_StdPeriph_Driver/src/stm32f4xx_flash.c:567:15
	ldr	r1, [r5]
	movw	r4, #32772
	orrs	r0, r1
.Ltmp51:
	str	r0, [r5]
	.loc	4 568 15                @ ../Libraries/STM32F4xx_StdPeriph_Driver/src/stm32f4xx_flash.c:568:15
	ldr	r0, [r5]
	orrs	r0, r4
	str	r0, [r5]
	.loc	4 569 15                @ ../Libraries/STM32F4xx_StdPeriph_Driver/src/stm32f4xx_flash.c:569:15
	ldr	r0, [r5]
	orr	r0, r0, #65536
	str	r0, [r5]
	.loc	4 572 14                @ ../Libraries/STM32F4xx_StdPeriph_Driver/src/stm32f4xx_flash.c:572:14
	bl	FLASH_WaitForLastOperation
.Ltmp52:
	@DEBUG_VALUE: FLASH_EraseAllSectors:status <- undef
	.loc	4 575 15                @ ../Libraries/STM32F4xx_StdPeriph_Driver/src/stm32f4xx_flash.c:575:15
	ldr	r1, [r5]
	bics	r1, r4
	str	r1, [r5]
.Ltmp53:
	.loc	4 593 3                 @ ../Libraries/STM32F4xx_StdPeriph_Driver/src/stm32f4xx_flash.c:593:3
	pop	{r4, r5, r7, pc}
.Ltmp54:
.Lfunc_end10:
	.size	FLASH_EraseAllSectors, .Lfunc_end10-FLASH_EraseAllSectors
	.cfi_endproc
	.cantunwind
	.fnend
                                        @ -- End function
	.section	.text.FLASH_EraseAllBank1Sectors,"ax",%progbits
	.hidden	FLASH_EraseAllBank1Sectors @ -- Begin function FLASH_EraseAllBank1Sectors
	.globl	FLASH_EraseAllBank1Sectors
	.p2align	1
	.type	FLASH_EraseAllBank1Sectors,%function
	.code	16                      @ @FLASH_EraseAllBank1Sectors
	.thumb_func
FLASH_EraseAllBank1Sectors:
.Lfunc_begin11:
	.loc	4 619 0                 @ ../Libraries/STM32F4xx_StdPeriph_Driver/src/stm32f4xx_flash.c:619:0
	.fnstart
	.cfi_startproc
@ %bb.0:
	.save	{r4, r5, r7, lr}
	push	{r4, r5, r7, lr}
	.cfi_def_cfa_offset 16
	.cfi_offset lr, -4
	.cfi_offset r7, -8
	.cfi_offset r5, -12
	.cfi_offset r4, -16
	@DEBUG_VALUE: FLASH_EraseAllBank1Sectors:VoltageRange <- $r0
	mov	r4, r0
.Ltmp55:
	@DEBUG_VALUE: FLASH_EraseAllBank1Sectors:status <- 9
	@DEBUG_VALUE: FLASH_EraseAllBank1Sectors:tmp_psize <- 0
	@DEBUG_VALUE: FLASH_EraseAllBank1Sectors:VoltageRange <- $r4
	.loc	4 624 12 prologue_end   @ ../Libraries/STM32F4xx_StdPeriph_Driver/src/stm32f4xx_flash.c:624:12
	bl	FLASH_WaitForLastOperation
.Ltmp56:
	@DEBUG_VALUE: FLASH_EraseAllBank1Sectors:status <- $r0
	.loc	4 643 6                 @ ../Libraries/STM32F4xx_StdPeriph_Driver/src/stm32f4xx_flash.c:643:6
	cmp	r0, #9
	.loc	4 659 3                 @ ../Libraries/STM32F4xx_StdPeriph_Driver/src/stm32f4xx_flash.c:659:3
	it	ne
	popne	{r4, r5, r7, pc}
.Ltmp57:
	.loc	4 0 3 is_stmt 0         @ ../Libraries/STM32F4xx_StdPeriph_Driver/src/stm32f4xx_flash.c:0:3
	movw	r5, #15376
	.loc	4 627 6 is_stmt 1       @ ../Libraries/STM32F4xx_StdPeriph_Driver/src/stm32f4xx_flash.c:627:6
	cmp	r4, #3
	movt	r5, #16386
.Ltmp58:
	.loc	4 646 16                @ ../Libraries/STM32F4xx_StdPeriph_Driver/src/stm32f4xx_flash.c:646:16
	ldr	r0, [r5]
.Ltmp59:
	bic	r0, r0, #768
	str	r0, [r5]
	mov.w	r0, #768
.Ltmp60:
	.loc	4 627 6                 @ ../Libraries/STM32F4xx_StdPeriph_Driver/src/stm32f4xx_flash.c:627:6
	it	lo
	lsllo	r0, r4, #8
.Ltmp61:
	@DEBUG_VALUE: FLASH_EraseAllBank1Sectors:tmp_psize <- $r0
	.loc	4 647 16                @ ../Libraries/STM32F4xx_StdPeriph_Driver/src/stm32f4xx_flash.c:647:16
	ldr	r1, [r5]
	orrs	r0, r1
.Ltmp62:
	str	r0, [r5]
	.loc	4 648 16                @ ../Libraries/STM32F4xx_StdPeriph_Driver/src/stm32f4xx_flash.c:648:16
	ldr	r0, [r5]
	orr	r0, r0, #4
	str	r0, [r5]
	.loc	4 649 16                @ ../Libraries/STM32F4xx_StdPeriph_Driver/src/stm32f4xx_flash.c:649:16
	ldr	r0, [r5]
	orr	r0, r0, #65536
	str	r0, [r5]
	.loc	4 652 14                @ ../Libraries/STM32F4xx_StdPeriph_Driver/src/stm32f4xx_flash.c:652:14
	bl	FLASH_WaitForLastOperation
.Ltmp63:
	@DEBUG_VALUE: FLASH_EraseAllBank1Sectors:status <- undef
	.loc	4 655 15                @ ../Libraries/STM32F4xx_StdPeriph_Driver/src/stm32f4xx_flash.c:655:15
	ldr	r1, [r5]
	bic	r1, r1, #4
	str	r1, [r5]
.Ltmp64:
	.loc	4 659 3                 @ ../Libraries/STM32F4xx_StdPeriph_Driver/src/stm32f4xx_flash.c:659:3
	pop	{r4, r5, r7, pc}
.Ltmp65:
.Lfunc_end11:
	.size	FLASH_EraseAllBank1Sectors, .Lfunc_end11-FLASH_EraseAllBank1Sectors
	.cfi_endproc
	.cantunwind
	.fnend
                                        @ -- End function
	.section	.text.FLASH_EraseAllBank2Sectors,"ax",%progbits
	.hidden	FLASH_EraseAllBank2Sectors @ -- Begin function FLASH_EraseAllBank2Sectors
	.globl	FLASH_EraseAllBank2Sectors
	.p2align	1
	.type	FLASH_EraseAllBank2Sectors,%function
	.code	16                      @ @FLASH_EraseAllBank2Sectors
	.thumb_func
FLASH_EraseAllBank2Sectors:
.Lfunc_begin12:
	.loc	4 686 0                 @ ../Libraries/STM32F4xx_StdPeriph_Driver/src/stm32f4xx_flash.c:686:0
	.fnstart
	.cfi_startproc
@ %bb.0:
	.save	{r4, r5, r7, lr}
	push	{r4, r5, r7, lr}
	.cfi_def_cfa_offset 16
	.cfi_offset lr, -4
	.cfi_offset r7, -8
	.cfi_offset r5, -12
	.cfi_offset r4, -16
	@DEBUG_VALUE: FLASH_EraseAllBank2Sectors:VoltageRange <- $r0
	mov	r4, r0
.Ltmp66:
	@DEBUG_VALUE: FLASH_EraseAllBank2Sectors:status <- 9
	@DEBUG_VALUE: FLASH_EraseAllBank2Sectors:tmp_psize <- 0
	@DEBUG_VALUE: FLASH_EraseAllBank2Sectors:VoltageRange <- $r4
	.loc	4 691 12 prologue_end   @ ../Libraries/STM32F4xx_StdPeriph_Driver/src/stm32f4xx_flash.c:691:12
	bl	FLASH_WaitForLastOperation
.Ltmp67:
	@DEBUG_VALUE: FLASH_EraseAllBank2Sectors:status <- $r0
	.loc	4 710 6                 @ ../Libraries/STM32F4xx_StdPeriph_Driver/src/stm32f4xx_flash.c:710:6
	cmp	r0, #9
	.loc	4 726 3                 @ ../Libraries/STM32F4xx_StdPeriph_Driver/src/stm32f4xx_flash.c:726:3
	it	ne
	popne	{r4, r5, r7, pc}
.Ltmp68:
	.loc	4 0 3 is_stmt 0         @ ../Libraries/STM32F4xx_StdPeriph_Driver/src/stm32f4xx_flash.c:0:3
	movw	r5, #15376
	.loc	4 694 6 is_stmt 1       @ ../Libraries/STM32F4xx_StdPeriph_Driver/src/stm32f4xx_flash.c:694:6
	cmp	r4, #3
	movt	r5, #16386
.Ltmp69:
	.loc	4 713 16                @ ../Libraries/STM32F4xx_StdPeriph_Driver/src/stm32f4xx_flash.c:713:16
	ldr	r0, [r5]
.Ltmp70:
	bic	r0, r0, #768
	str	r0, [r5]
	mov.w	r0, #768
.Ltmp71:
	.loc	4 694 6                 @ ../Libraries/STM32F4xx_StdPeriph_Driver/src/stm32f4xx_flash.c:694:6
	it	lo
	lsllo	r0, r4, #8
.Ltmp72:
	@DEBUG_VALUE: FLASH_EraseAllBank2Sectors:tmp_psize <- $r0
	.loc	4 714 16                @ ../Libraries/STM32F4xx_StdPeriph_Driver/src/stm32f4xx_flash.c:714:16
	ldr	r1, [r5]
	orrs	r0, r1
.Ltmp73:
	str	r0, [r5]
	.loc	4 715 16                @ ../Libraries/STM32F4xx_StdPeriph_Driver/src/stm32f4xx_flash.c:715:16
	ldr	r0, [r5]
	orr	r0, r0, #32768
	str	r0, [r5]
	.loc	4 716 16                @ ../Libraries/STM32F4xx_StdPeriph_Driver/src/stm32f4xx_flash.c:716:16
	ldr	r0, [r5]
	orr	r0, r0, #65536
	str	r0, [r5]
	.loc	4 719 14                @ ../Libraries/STM32F4xx_StdPeriph_Driver/src/stm32f4xx_flash.c:719:14
	bl	FLASH_WaitForLastOperation
.Ltmp74:
	@DEBUG_VALUE: FLASH_EraseAllBank2Sectors:status <- undef
	.loc	4 722 15                @ ../Libraries/STM32F4xx_StdPeriph_Driver/src/stm32f4xx_flash.c:722:15
	ldr	r1, [r5]
	bic	r1, r1, #32768
	str	r1, [r5]
.Ltmp75:
	.loc	4 726 3                 @ ../Libraries/STM32F4xx_StdPeriph_Driver/src/stm32f4xx_flash.c:726:3
	pop	{r4, r5, r7, pc}
.Ltmp76:
.Lfunc_end12:
	.size	FLASH_EraseAllBank2Sectors, .Lfunc_end12-FLASH_EraseAllBank2Sectors
	.cfi_endproc
	.cantunwind
	.fnend
                                        @ -- End function
	.section	.text.FLASH_ProgramDoubleWord,"ax",%progbits
	.hidden	FLASH_ProgramDoubleWord @ -- Begin function FLASH_ProgramDoubleWord
	.globl	FLASH_ProgramDoubleWord
	.p2align	1
	.type	FLASH_ProgramDoubleWord,%function
	.code	16                      @ @FLASH_ProgramDoubleWord
	.thumb_func
FLASH_ProgramDoubleWord:
.Lfunc_begin13:
	.loc	4 743 0                 @ ../Libraries/STM32F4xx_StdPeriph_Driver/src/stm32f4xx_flash.c:743:0
	.fnstart
	.cfi_startproc
@ %bb.0:
	.save	{r4, r5, r6, r7, lr}
	push	{r4, r5, r6, r7, lr}
	.cfi_def_cfa_offset 20
	.cfi_offset lr, -4
	.cfi_offset r7, -8
	.cfi_offset r6, -12
	.cfi_offset r5, -16
	.cfi_offset r4, -20
	.pad	#4
	sub	sp, #4
	.cfi_def_cfa_offset 24
	@DEBUG_VALUE: FLASH_ProgramDoubleWord:Address <- $r0
	mov	r5, r3
	mov	r4, r2
	mov	r6, r0
.Ltmp77:
	@DEBUG_VALUE: FLASH_ProgramDoubleWord:status <- 9
	@DEBUG_VALUE: FLASH_ProgramDoubleWord:Address <- $r6
	.loc	4 750 12 prologue_end   @ ../Libraries/STM32F4xx_StdPeriph_Driver/src/stm32f4xx_flash.c:750:12
	bl	FLASH_WaitForLastOperation
.Ltmp78:
	@DEBUG_VALUE: FLASH_ProgramDoubleWord:status <- $r0
	.loc	4 752 6                 @ ../Libraries/STM32F4xx_StdPeriph_Driver/src/stm32f4xx_flash.c:752:6
	cmp	r0, #9
	bne	.LBB13_2
.Ltmp79:
@ %bb.1:
	@DEBUG_VALUE: FLASH_ProgramDoubleWord:status <- $r0
	@DEBUG_VALUE: FLASH_ProgramDoubleWord:Address <- $r6
	@DEBUG_VALUE: FLASH_ProgramDoubleWord:Data <- [DW_OP_LLVM_fragment 32 32] $r5
	@DEBUG_VALUE: FLASH_ProgramDoubleWord:Data <- [DW_OP_LLVM_fragment 0 32] $r4
	.loc	4 0 6 is_stmt 0         @ ../Libraries/STM32F4xx_StdPeriph_Driver/src/stm32f4xx_flash.c:0:6
	movw	r7, #15376
	movt	r7, #16386
.Ltmp80:
	.loc	4 755 15 is_stmt 1      @ ../Libraries/STM32F4xx_StdPeriph_Driver/src/stm32f4xx_flash.c:755:15
	ldr	r0, [r7]
.Ltmp81:
	bic	r0, r0, #768
	str	r0, [r7]
	.loc	4 756 15                @ ../Libraries/STM32F4xx_StdPeriph_Driver/src/stm32f4xx_flash.c:756:15
	ldr	r0, [r7]
	orr	r0, r0, #768
	str	r0, [r7]
	.loc	4 757 15                @ ../Libraries/STM32F4xx_StdPeriph_Driver/src/stm32f4xx_flash.c:757:15
	ldr	r0, [r7]
	orr	r0, r0, #1
	str	r0, [r7]
	.loc	4 759 30                @ ../Libraries/STM32F4xx_StdPeriph_Driver/src/stm32f4xx_flash.c:759:30
	str	r5, [r6, #4]
	str	r4, [r6]
	.loc	4 762 14                @ ../Libraries/STM32F4xx_StdPeriph_Driver/src/stm32f4xx_flash.c:762:14
	bl	FLASH_WaitForLastOperation
.Ltmp82:
	@DEBUG_VALUE: FLASH_ProgramDoubleWord:status <- undef
	.loc	4 765 15                @ ../Libraries/STM32F4xx_StdPeriph_Driver/src/stm32f4xx_flash.c:765:15
	ldr	r1, [r7]
	bic	r1, r1, #1
	str	r1, [r7]
.Ltmp83:
.LBB13_2:
	@DEBUG_VALUE: FLASH_ProgramDoubleWord:Address <- $r6
	.loc	4 768 3                 @ ../Libraries/STM32F4xx_StdPeriph_Driver/src/stm32f4xx_flash.c:768:3
	add	sp, #4
	pop	{r4, r5, r6, r7, pc}
.Ltmp84:
.Lfunc_end13:
	.size	FLASH_ProgramDoubleWord, .Lfunc_end13-FLASH_ProgramDoubleWord
	.cfi_endproc
	.cantunwind
	.fnend
                                        @ -- End function
	.section	.text.FLASH_ProgramWord,"ax",%progbits
	.hidden	FLASH_ProgramWord       @ -- Begin function FLASH_ProgramWord
	.globl	FLASH_ProgramWord
	.p2align	1
	.type	FLASH_ProgramWord,%function
	.code	16                      @ @FLASH_ProgramWord
	.thumb_func
FLASH_ProgramWord:
.Lfunc_begin14:
	.loc	4 786 0                 @ ../Libraries/STM32F4xx_StdPeriph_Driver/src/stm32f4xx_flash.c:786:0
	.fnstart
	.cfi_startproc
@ %bb.0:
	.save	{r4, r5, r6, lr}
	push	{r4, r5, r6, lr}
	.cfi_def_cfa_offset 16
	.cfi_offset lr, -4
	.cfi_offset r6, -8
	.cfi_offset r5, -12
	.cfi_offset r4, -16
	@DEBUG_VALUE: FLASH_ProgramWord:Address <- $r0
	@DEBUG_VALUE: FLASH_ProgramWord:Data <- $r1
	mov	r4, r1
	mov	r5, r0
.Ltmp85:
	@DEBUG_VALUE: FLASH_ProgramWord:status <- 9
	@DEBUG_VALUE: FLASH_ProgramWord:Data <- $r4
	@DEBUG_VALUE: FLASH_ProgramWord:Address <- $r5
	.loc	4 793 12 prologue_end   @ ../Libraries/STM32F4xx_StdPeriph_Driver/src/stm32f4xx_flash.c:793:12
	bl	FLASH_WaitForLastOperation
.Ltmp86:
	@DEBUG_VALUE: FLASH_ProgramWord:status <- $r0
	.loc	4 795 6                 @ ../Libraries/STM32F4xx_StdPeriph_Driver/src/stm32f4xx_flash.c:795:6
	cmp	r0, #9
	.loc	4 811 3                 @ ../Libraries/STM32F4xx_StdPeriph_Driver/src/stm32f4xx_flash.c:811:3
	it	ne
	popne	{r4, r5, r6, pc}
.Ltmp87:
	.loc	4 0 3 is_stmt 0         @ ../Libraries/STM32F4xx_StdPeriph_Driver/src/stm32f4xx_flash.c:0:3
	movw	r6, #15376
	movt	r6, #16386
.Ltmp88:
	.loc	4 798 15 is_stmt 1      @ ../Libraries/STM32F4xx_StdPeriph_Driver/src/stm32f4xx_flash.c:798:15
	ldr	r0, [r6]
.Ltmp89:
	bic	r0, r0, #768
	str	r0, [r6]
	.loc	4 799 15                @ ../Libraries/STM32F4xx_StdPeriph_Driver/src/stm32f4xx_flash.c:799:15
	ldr	r0, [r6]
	orr	r0, r0, #512
	str	r0, [r6]
	.loc	4 800 15                @ ../Libraries/STM32F4xx_StdPeriph_Driver/src/stm32f4xx_flash.c:800:15
	ldr	r0, [r6]
	orr	r0, r0, #1
	str	r0, [r6]
	.loc	4 802 30                @ ../Libraries/STM32F4xx_StdPeriph_Driver/src/stm32f4xx_flash.c:802:30
	str	r4, [r5]
	.loc	4 805 14                @ ../Libraries/STM32F4xx_StdPeriph_Driver/src/stm32f4xx_flash.c:805:14
	bl	FLASH_WaitForLastOperation
.Ltmp90:
	@DEBUG_VALUE: FLASH_ProgramWord:status <- undef
	.loc	4 808 15                @ ../Libraries/STM32F4xx_StdPeriph_Driver/src/stm32f4xx_flash.c:808:15
	ldr	r1, [r6]
	bic	r1, r1, #1
	str	r1, [r6]
.Ltmp91:
	.loc	4 811 3                 @ ../Libraries/STM32F4xx_StdPeriph_Driver/src/stm32f4xx_flash.c:811:3
	pop	{r4, r5, r6, pc}
.Ltmp92:
.Lfunc_end14:
	.size	FLASH_ProgramWord, .Lfunc_end14-FLASH_ProgramWord
	.cfi_endproc
	.cantunwind
	.fnend
                                        @ -- End function
	.section	.text.FLASH_ProgramHalfWord,"ax",%progbits
	.hidden	FLASH_ProgramHalfWord   @ -- Begin function FLASH_ProgramHalfWord
	.globl	FLASH_ProgramHalfWord
	.p2align	1
	.type	FLASH_ProgramHalfWord,%function
	.code	16                      @ @FLASH_ProgramHalfWord
	.thumb_func
FLASH_ProgramHalfWord:
.Lfunc_begin15:
	.loc	4 828 0                 @ ../Libraries/STM32F4xx_StdPeriph_Driver/src/stm32f4xx_flash.c:828:0
	.fnstart
	.cfi_startproc
@ %bb.0:
	.save	{r4, r5, r6, lr}
	push	{r4, r5, r6, lr}
	.cfi_def_cfa_offset 16
	.cfi_offset lr, -4
	.cfi_offset r6, -8
	.cfi_offset r5, -12
	.cfi_offset r4, -16
	@DEBUG_VALUE: FLASH_ProgramHalfWord:Address <- $r0
	@DEBUG_VALUE: FLASH_ProgramHalfWord:Data <- $r1
	mov	r4, r1
	mov	r5, r0
.Ltmp93:
	@DEBUG_VALUE: FLASH_ProgramHalfWord:status <- 9
	@DEBUG_VALUE: FLASH_ProgramHalfWord:Data <- $r4
	@DEBUG_VALUE: FLASH_ProgramHalfWord:Address <- $r5
	.loc	4 835 12 prologue_end   @ ../Libraries/STM32F4xx_StdPeriph_Driver/src/stm32f4xx_flash.c:835:12
	bl	FLASH_WaitForLastOperation
.Ltmp94:
	@DEBUG_VALUE: FLASH_ProgramHalfWord:status <- $r0
	.loc	4 837 6                 @ ../Libraries/STM32F4xx_StdPeriph_Driver/src/stm32f4xx_flash.c:837:6
	cmp	r0, #9
	.loc	4 853 3                 @ ../Libraries/STM32F4xx_StdPeriph_Driver/src/stm32f4xx_flash.c:853:3
	it	ne
	popne	{r4, r5, r6, pc}
.Ltmp95:
	@DEBUG_VALUE: FLASH_ProgramHalfWord:Data <- $r4
	.loc	4 0 3 is_stmt 0         @ ../Libraries/STM32F4xx_StdPeriph_Driver/src/stm32f4xx_flash.c:0:3
	movw	r6, #15376
	movt	r6, #16386
.Ltmp96:
	.loc	4 840 15 is_stmt 1      @ ../Libraries/STM32F4xx_StdPeriph_Driver/src/stm32f4xx_flash.c:840:15
	ldr	r0, [r6]
.Ltmp97:
	bic	r0, r0, #768
	str	r0, [r6]
	.loc	4 841 15                @ ../Libraries/STM32F4xx_StdPeriph_Driver/src/stm32f4xx_flash.c:841:15
	ldr	r0, [r6]
	orr	r0, r0, #256
	str	r0, [r6]
	.loc	4 842 15                @ ../Libraries/STM32F4xx_StdPeriph_Driver/src/stm32f4xx_flash.c:842:15
	ldr	r0, [r6]
	orr	r0, r0, #1
	str	r0, [r6]
	.loc	4 844 30                @ ../Libraries/STM32F4xx_StdPeriph_Driver/src/stm32f4xx_flash.c:844:30
	strh	r4, [r5]
	.loc	4 847 14                @ ../Libraries/STM32F4xx_StdPeriph_Driver/src/stm32f4xx_flash.c:847:14
	bl	FLASH_WaitForLastOperation
.Ltmp98:
	@DEBUG_VALUE: FLASH_ProgramHalfWord:status <- undef
	.loc	4 850 15                @ ../Libraries/STM32F4xx_StdPeriph_Driver/src/stm32f4xx_flash.c:850:15
	ldr	r1, [r6]
	bic	r1, r1, #1
	str	r1, [r6]
.Ltmp99:
	.loc	4 853 3                 @ ../Libraries/STM32F4xx_StdPeriph_Driver/src/stm32f4xx_flash.c:853:3
	pop	{r4, r5, r6, pc}
.Ltmp100:
.Lfunc_end15:
	.size	FLASH_ProgramHalfWord, .Lfunc_end15-FLASH_ProgramHalfWord
	.cfi_endproc
	.cantunwind
	.fnend
                                        @ -- End function
	.section	.text.FLASH_ProgramByte,"ax",%progbits
	.hidden	FLASH_ProgramByte       @ -- Begin function FLASH_ProgramByte
	.globl	FLASH_ProgramByte
	.p2align	1
	.type	FLASH_ProgramByte,%function
	.code	16                      @ @FLASH_ProgramByte
	.thumb_func
FLASH_ProgramByte:
.Lfunc_begin16:
	.loc	4 870 0                 @ ../Libraries/STM32F4xx_StdPeriph_Driver/src/stm32f4xx_flash.c:870:0
	.fnstart
	.cfi_startproc
@ %bb.0:
	.save	{r4, r5, r6, lr}
	push	{r4, r5, r6, lr}
	.cfi_def_cfa_offset 16
	.cfi_offset lr, -4
	.cfi_offset r6, -8
	.cfi_offset r5, -12
	.cfi_offset r4, -16
	@DEBUG_VALUE: FLASH_ProgramByte:Address <- $r0
	@DEBUG_VALUE: FLASH_ProgramByte:Data <- $r1
	mov	r4, r1
	mov	r5, r0
.Ltmp101:
	@DEBUG_VALUE: FLASH_ProgramByte:status <- 9
	@DEBUG_VALUE: FLASH_ProgramByte:Data <- $r4
	@DEBUG_VALUE: FLASH_ProgramByte:Address <- $r5
	.loc	4 877 12 prologue_end   @ ../Libraries/STM32F4xx_StdPeriph_Driver/src/stm32f4xx_flash.c:877:12
	bl	FLASH_WaitForLastOperation
.Ltmp102:
	@DEBUG_VALUE: FLASH_ProgramByte:status <- $r0
	.loc	4 879 6                 @ ../Libraries/STM32F4xx_StdPeriph_Driver/src/stm32f4xx_flash.c:879:6
	cmp	r0, #9
	.loc	4 896 3                 @ ../Libraries/STM32F4xx_StdPeriph_Driver/src/stm32f4xx_flash.c:896:3
	it	ne
	popne	{r4, r5, r6, pc}
.Ltmp103:
	@DEBUG_VALUE: FLASH_ProgramByte:Data <- $r4
	.loc	4 0 3 is_stmt 0         @ ../Libraries/STM32F4xx_StdPeriph_Driver/src/stm32f4xx_flash.c:0:3
	movw	r6, #15376
	movt	r6, #16386
.Ltmp104:
	.loc	4 882 15 is_stmt 1      @ ../Libraries/STM32F4xx_StdPeriph_Driver/src/stm32f4xx_flash.c:882:15
	ldr	r0, [r6]
.Ltmp105:
	bic	r0, r0, #768
	str	r0, [r6]
	.loc	4 883 15                @ ../Libraries/STM32F4xx_StdPeriph_Driver/src/stm32f4xx_flash.c:883:15
	ldr	r0, [r6]
	str	r0, [r6]
	.loc	4 884 15                @ ../Libraries/STM32F4xx_StdPeriph_Driver/src/stm32f4xx_flash.c:884:15
	ldr	r0, [r6]
	orr	r0, r0, #1
	str	r0, [r6]
	.loc	4 886 29                @ ../Libraries/STM32F4xx_StdPeriph_Driver/src/stm32f4xx_flash.c:886:29
	strb	r4, [r5]
	.loc	4 889 14                @ ../Libraries/STM32F4xx_StdPeriph_Driver/src/stm32f4xx_flash.c:889:14
	bl	FLASH_WaitForLastOperation
.Ltmp106:
	@DEBUG_VALUE: FLASH_ProgramByte:status <- undef
	.loc	4 892 15                @ ../Libraries/STM32F4xx_StdPeriph_Driver/src/stm32f4xx_flash.c:892:15
	ldr	r1, [r6]
	bic	r1, r1, #1
	str	r1, [r6]
.Ltmp107:
	.loc	4 896 3                 @ ../Libraries/STM32F4xx_StdPeriph_Driver/src/stm32f4xx_flash.c:896:3
	pop	{r4, r5, r6, pc}
.Ltmp108:
.Lfunc_end16:
	.size	FLASH_ProgramByte, .Lfunc_end16-FLASH_ProgramByte
	.cfi_endproc
	.cantunwind
	.fnend
                                        @ -- End function
	.section	.text.FLASH_OB_Unlock,"ax",%progbits
	.hidden	FLASH_OB_Unlock         @ -- Begin function FLASH_OB_Unlock
	.globl	FLASH_OB_Unlock
	.p2align	1
	.type	FLASH_OB_Unlock,%function
	.code	16                      @ @FLASH_OB_Unlock
	.thumb_func
FLASH_OB_Unlock:
.Lfunc_begin17:
	.loc	4 969 0                 @ ../Libraries/STM32F4xx_StdPeriph_Driver/src/stm32f4xx_flash.c:969:0
	.fnstart
	.cfi_startproc
@ %bb.0:
	movw	r0, #15368
	movt	r0, #16386
.Ltmp109:
	.loc	4 970 14 prologue_end   @ ../Libraries/STM32F4xx_StdPeriph_Driver/src/stm32f4xx_flash.c:970:14
	ldr	r1, [r0, #12]
.Ltmp110:
	.loc	4 970 6 is_stmt 0       @ ../Libraries/STM32F4xx_StdPeriph_Driver/src/stm32f4xx_flash.c:970:6
	lsls	r1, r1, #31
	.loc	4 976 1 is_stmt 1       @ ../Libraries/STM32F4xx_StdPeriph_Driver/src/stm32f4xx_flash.c:976:1
	it	eq
	bxeq	lr
	movw	r1, #10811
	movt	r1, #2073
.Ltmp111:
	.loc	4 973 20                @ ../Libraries/STM32F4xx_StdPeriph_Driver/src/stm32f4xx_flash.c:973:20
	str	r1, [r0]
	movw	r1, #28287
	movt	r1, #19549
	.loc	4 974 20                @ ../Libraries/STM32F4xx_StdPeriph_Driver/src/stm32f4xx_flash.c:974:20
	str	r1, [r0]
.Ltmp112:
	.loc	4 976 1                 @ ../Libraries/STM32F4xx_StdPeriph_Driver/src/stm32f4xx_flash.c:976:1
	bx	lr
.Ltmp113:
.Lfunc_end17:
	.size	FLASH_OB_Unlock, .Lfunc_end17-FLASH_OB_Unlock
	.cfi_endproc
	.cantunwind
	.fnend
                                        @ -- End function
	.section	.text.FLASH_OB_Lock,"ax",%progbits
	.hidden	FLASH_OB_Lock           @ -- Begin function FLASH_OB_Lock
	.globl	FLASH_OB_Lock
	.p2align	1
	.type	FLASH_OB_Lock,%function
	.code	16                      @ @FLASH_OB_Lock
	.thumb_func
FLASH_OB_Lock:
.Lfunc_begin18:
	.loc	4 984 0                 @ ../Libraries/STM32F4xx_StdPeriph_Driver/src/stm32f4xx_flash.c:984:0
	.fnstart
	.cfi_startproc
@ %bb.0:
	movw	r0, #15380
	movt	r0, #16386
.Ltmp114:
	.loc	4 986 16 prologue_end   @ ../Libraries/STM32F4xx_StdPeriph_Driver/src/stm32f4xx_flash.c:986:16
	ldr	r1, [r0]
	orr	r1, r1, #1
	str	r1, [r0]
	.loc	4 987 1                 @ ../Libraries/STM32F4xx_StdPeriph_Driver/src/stm32f4xx_flash.c:987:1
	bx	lr
.Ltmp115:
.Lfunc_end18:
	.size	FLASH_OB_Lock, .Lfunc_end18-FLASH_OB_Lock
	.cfi_endproc
	.cantunwind
	.fnend
                                        @ -- End function
	.section	.text.FLASH_OB_WRPConfig,"ax",%progbits
	.hidden	FLASH_OB_WRPConfig      @ -- Begin function FLASH_OB_WRPConfig
	.globl	FLASH_OB_WRPConfig
	.p2align	1
	.type	FLASH_OB_WRPConfig,%function
	.code	16                      @ @FLASH_OB_WRPConfig
	.thumb_func
FLASH_OB_WRPConfig:
.Lfunc_begin19:
	.loc	4 1007 0                @ ../Libraries/STM32F4xx_StdPeriph_Driver/src/stm32f4xx_flash.c:1007:0
	.fnstart
	.cfi_startproc
@ %bb.0:
	.save	{r4, r5, r7, lr}
	push	{r4, r5, r7, lr}
	.cfi_def_cfa_offset 16
	.cfi_offset lr, -4
	.cfi_offset r7, -8
	.cfi_offset r5, -12
	.cfi_offset r4, -16
	@DEBUG_VALUE: FLASH_OB_WRPConfig:OB_WRP <- $r0
	@DEBUG_VALUE: FLASH_OB_WRPConfig:NewState <- $r1
	mov	r5, r1
	mov	r4, r0
.Ltmp116:
	@DEBUG_VALUE: FLASH_OB_WRPConfig:status <- 9
	@DEBUG_VALUE: FLASH_OB_WRPConfig:NewState <- $r5
	@DEBUG_VALUE: FLASH_OB_WRPConfig:OB_WRP <- $r4
	.loc	4 1014 12 prologue_end  @ ../Libraries/STM32F4xx_StdPeriph_Driver/src/stm32f4xx_flash.c:1014:12
	bl	FLASH_WaitForLastOperation
.Ltmp117:
	@DEBUG_VALUE: FLASH_OB_WRPConfig:status <- $r0
	.loc	4 1016 6                @ ../Libraries/STM32F4xx_StdPeriph_Driver/src/stm32f4xx_flash.c:1016:6
	cmp	r0, #9
	.loc	4 1027 1                @ ../Libraries/STM32F4xx_StdPeriph_Driver/src/stm32f4xx_flash.c:1027:1
	it	ne
	popne	{r4, r5, r7, pc}
.Ltmp118:
	.loc	4 0 1 is_stmt 0         @ ../Libraries/STM32F4xx_StdPeriph_Driver/src/stm32f4xx_flash.c:0:1
	movw	r0, #15382
.Ltmp119:
	.loc	4 1018 8 is_stmt 1      @ ../Libraries/STM32F4xx_StdPeriph_Driver/src/stm32f4xx_flash.c:1018:8
	cmp	r5, #0
	movt	r0, #16386
.Ltmp120:
	.loc	4 0 0 is_stmt 0         @ ../Libraries/STM32F4xx_StdPeriph_Driver/src/stm32f4xx_flash.c:0:0
	ldrh	r1, [r0]
.Ltmp121:
	.loc	4 1018 8                @ ../Libraries/STM32F4xx_StdPeriph_Driver/src/stm32f4xx_flash.c:1018:8
	bic.w	r2, r1, r4
	it	eq
	orreq.w	r2, r1, r4
.Ltmp122:
	.loc	4 0 0                   @ ../Libraries/STM32F4xx_StdPeriph_Driver/src/stm32f4xx_flash.c:0:0
	strh	r2, [r0]
.Ltmp123:
	.loc	4 1027 1 is_stmt 1      @ ../Libraries/STM32F4xx_StdPeriph_Driver/src/stm32f4xx_flash.c:1027:1
	pop	{r4, r5, r7, pc}
.Ltmp124:
.Lfunc_end19:
	.size	FLASH_OB_WRPConfig, .Lfunc_end19-FLASH_OB_WRPConfig
	.cfi_endproc
	.cantunwind
	.fnend
                                        @ -- End function
	.section	.text.FLASH_OB_WRP1Config,"ax",%progbits
	.hidden	FLASH_OB_WRP1Config     @ -- Begin function FLASH_OB_WRP1Config
	.globl	FLASH_OB_WRP1Config
	.p2align	1
	.type	FLASH_OB_WRP1Config,%function
	.code	16                      @ @FLASH_OB_WRP1Config
	.thumb_func
FLASH_OB_WRP1Config:
.Lfunc_begin20:
	.loc	4 1049 0                @ ../Libraries/STM32F4xx_StdPeriph_Driver/src/stm32f4xx_flash.c:1049:0
	.fnstart
	.cfi_startproc
@ %bb.0:
	.save	{r4, r5, r7, lr}
	push	{r4, r5, r7, lr}
	.cfi_def_cfa_offset 16
	.cfi_offset lr, -4
	.cfi_offset r7, -8
	.cfi_offset r5, -12
	.cfi_offset r4, -16
	@DEBUG_VALUE: FLASH_OB_WRP1Config:OB_WRP <- $r0
	@DEBUG_VALUE: FLASH_OB_WRP1Config:NewState <- $r1
	mov	r5, r1
	mov	r4, r0
.Ltmp125:
	@DEBUG_VALUE: FLASH_OB_WRP1Config:status <- 9
	@DEBUG_VALUE: FLASH_OB_WRP1Config:NewState <- $r5
	@DEBUG_VALUE: FLASH_OB_WRP1Config:OB_WRP <- $r4
	.loc	4 1056 12 prologue_end  @ ../Libraries/STM32F4xx_StdPeriph_Driver/src/stm32f4xx_flash.c:1056:12
	bl	FLASH_WaitForLastOperation
.Ltmp126:
	@DEBUG_VALUE: FLASH_OB_WRP1Config:status <- $r0
	.loc	4 1058 6                @ ../Libraries/STM32F4xx_StdPeriph_Driver/src/stm32f4xx_flash.c:1058:6
	cmp	r0, #9
	.loc	4 1069 1                @ ../Libraries/STM32F4xx_StdPeriph_Driver/src/stm32f4xx_flash.c:1069:1
	it	ne
	popne	{r4, r5, r7, pc}
.Ltmp127:
	.loc	4 0 1 is_stmt 0         @ ../Libraries/STM32F4xx_StdPeriph_Driver/src/stm32f4xx_flash.c:0:1
	movw	r0, #15386
.Ltmp128:
	.loc	4 1060 8 is_stmt 1      @ ../Libraries/STM32F4xx_StdPeriph_Driver/src/stm32f4xx_flash.c:1060:8
	cmp	r5, #0
	movt	r0, #16386
.Ltmp129:
	.loc	4 0 0 is_stmt 0         @ ../Libraries/STM32F4xx_StdPeriph_Driver/src/stm32f4xx_flash.c:0:0
	ldrh	r1, [r0]
.Ltmp130:
	.loc	4 1060 8                @ ../Libraries/STM32F4xx_StdPeriph_Driver/src/stm32f4xx_flash.c:1060:8
	bic.w	r2, r1, r4
	it	eq
	orreq.w	r2, r1, r4
.Ltmp131:
	.loc	4 0 0                   @ ../Libraries/STM32F4xx_StdPeriph_Driver/src/stm32f4xx_flash.c:0:0
	strh	r2, [r0]
.Ltmp132:
	.loc	4 1069 1 is_stmt 1      @ ../Libraries/STM32F4xx_StdPeriph_Driver/src/stm32f4xx_flash.c:1069:1
	pop	{r4, r5, r7, pc}
.Ltmp133:
.Lfunc_end20:
	.size	FLASH_OB_WRP1Config, .Lfunc_end20-FLASH_OB_WRP1Config
	.cfi_endproc
	.cantunwind
	.fnend
                                        @ -- End function
	.section	.text.FLASH_OB_PCROPSelectionConfig,"ax",%progbits
	.hidden	FLASH_OB_PCROPSelectionConfig @ -- Begin function FLASH_OB_PCROPSelectionConfig
	.globl	FLASH_OB_PCROPSelectionConfig
	.p2align	1
	.type	FLASH_OB_PCROPSelectionConfig,%function
	.code	16                      @ @FLASH_OB_PCROPSelectionConfig
	.thumb_func
FLASH_OB_PCROPSelectionConfig:
.Lfunc_begin21:
	.loc	4 1099 0                @ ../Libraries/STM32F4xx_StdPeriph_Driver/src/stm32f4xx_flash.c:1099:0
	.fnstart
	.cfi_startproc
@ %bb.0:
	@DEBUG_VALUE: FLASH_OB_PCROPSelectionConfig:OB_PcROP <- $r0
	movw	r1, #15383
	movt	r1, #16386
.Ltmp134:
	@DEBUG_VALUE: FLASH_OB_PCROPSelectionConfig:optiontmp <- -1
	@DEBUG_VALUE: FLASH_OB_PCROPSelectionConfig:OB_PcROP <- $r0
	.loc	4 1106 27 prologue_end  @ ../Libraries/STM32F4xx_StdPeriph_Driver/src/stm32f4xx_flash.c:1106:27
	ldrb	r2, [r1]
	.loc	4 1106 65 is_stmt 0     @ ../Libraries/STM32F4xx_StdPeriph_Driver/src/stm32f4xx_flash.c:1106:65
	and	r2, r2, #127
.Ltmp135:
	@DEBUG_VALUE: FLASH_OB_PCROPSelectionConfig:optiontmp <- $r2
	.loc	4 1108 61 is_stmt 1     @ ../Libraries/STM32F4xx_StdPeriph_Driver/src/stm32f4xx_flash.c:1108:61
	orrs	r0, r2
.Ltmp136:
	.loc	4 1108 40 is_stmt 0     @ ../Libraries/STM32F4xx_StdPeriph_Driver/src/stm32f4xx_flash.c:1108:40
	strb	r0, [r1]
	.loc	4 1110 1 is_stmt 1      @ ../Libraries/STM32F4xx_StdPeriph_Driver/src/stm32f4xx_flash.c:1110:1
	bx	lr
.Ltmp137:
.Lfunc_end21:
	.size	FLASH_OB_PCROPSelectionConfig, .Lfunc_end21-FLASH_OB_PCROPSelectionConfig
	.cfi_endproc
	.cantunwind
	.fnend
                                        @ -- End function
	.section	.text.FLASH_OB_PCROPConfig,"ax",%progbits
	.hidden	FLASH_OB_PCROPConfig    @ -- Begin function FLASH_OB_PCROPConfig
	.globl	FLASH_OB_PCROPConfig
	.p2align	1
	.type	FLASH_OB_PCROPConfig,%function
	.code	16                      @ @FLASH_OB_PCROPConfig
	.thumb_func
FLASH_OB_PCROPConfig:
.Lfunc_begin22:
	.loc	4 1129 0                @ ../Libraries/STM32F4xx_StdPeriph_Driver/src/stm32f4xx_flash.c:1129:0
	.fnstart
	.cfi_startproc
@ %bb.0:
	.save	{r4, r5, r7, lr}
	push	{r4, r5, r7, lr}
	.cfi_def_cfa_offset 16
	.cfi_offset lr, -4
	.cfi_offset r7, -8
	.cfi_offset r5, -12
	.cfi_offset r4, -16
	@DEBUG_VALUE: FLASH_OB_PCROPConfig:OB_PCROP <- $r0
	@DEBUG_VALUE: FLASH_OB_PCROPConfig:NewState <- $r1
	mov	r5, r1
	mov	r4, r0
.Ltmp138:
	@DEBUG_VALUE: FLASH_OB_PCROPConfig:status <- 9
	@DEBUG_VALUE: FLASH_OB_PCROPConfig:NewState <- $r5
	@DEBUG_VALUE: FLASH_OB_PCROPConfig:OB_PCROP <- $r4
	.loc	4 1136 12 prologue_end  @ ../Libraries/STM32F4xx_StdPeriph_Driver/src/stm32f4xx_flash.c:1136:12
	bl	FLASH_WaitForLastOperation
.Ltmp139:
	@DEBUG_VALUE: FLASH_OB_PCROPConfig:status <- $r0
	.loc	4 1138 6                @ ../Libraries/STM32F4xx_StdPeriph_Driver/src/stm32f4xx_flash.c:1138:6
	cmp	r0, #9
	.loc	4 1149 1                @ ../Libraries/STM32F4xx_StdPeriph_Driver/src/stm32f4xx_flash.c:1149:1
	it	ne
	popne	{r4, r5, r7, pc}
.Ltmp140:
	.loc	4 0 1 is_stmt 0         @ ../Libraries/STM32F4xx_StdPeriph_Driver/src/stm32f4xx_flash.c:0:1
	movw	r0, #15382
.Ltmp141:
	.loc	4 1140 8 is_stmt 1      @ ../Libraries/STM32F4xx_StdPeriph_Driver/src/stm32f4xx_flash.c:1140:8
	cmp	r5, #0
	movt	r0, #16386
.Ltmp142:
	.loc	4 0 0 is_stmt 0         @ ../Libraries/STM32F4xx_StdPeriph_Driver/src/stm32f4xx_flash.c:0:0
	ldrh	r1, [r0]
.Ltmp143:
	.loc	4 1140 8                @ ../Libraries/STM32F4xx_StdPeriph_Driver/src/stm32f4xx_flash.c:1140:8
	orr.w	r2, r1, r4
	it	eq
	biceq.w	r2, r1, r4
.Ltmp144:
	.loc	4 0 0                   @ ../Libraries/STM32F4xx_StdPeriph_Driver/src/stm32f4xx_flash.c:0:0
	strh	r2, [r0]
.Ltmp145:
	.loc	4 1149 1 is_stmt 1      @ ../Libraries/STM32F4xx_StdPeriph_Driver/src/stm32f4xx_flash.c:1149:1
	pop	{r4, r5, r7, pc}
.Ltmp146:
.Lfunc_end22:
	.size	FLASH_OB_PCROPConfig, .Lfunc_end22-FLASH_OB_PCROPConfig
	.cfi_endproc
	.cantunwind
	.fnend
                                        @ -- End function
	.section	.text.FLASH_OB_PCROP1Config,"ax",%progbits
	.hidden	FLASH_OB_PCROP1Config   @ -- Begin function FLASH_OB_PCROP1Config
	.globl	FLASH_OB_PCROP1Config
	.p2align	1
	.type	FLASH_OB_PCROP1Config,%function
	.code	16                      @ @FLASH_OB_PCROP1Config
	.thumb_func
FLASH_OB_PCROP1Config:
.Lfunc_begin23:
	.loc	4 1166 0                @ ../Libraries/STM32F4xx_StdPeriph_Driver/src/stm32f4xx_flash.c:1166:0
	.fnstart
	.cfi_startproc
@ %bb.0:
	.save	{r4, r5, r7, lr}
	push	{r4, r5, r7, lr}
	.cfi_def_cfa_offset 16
	.cfi_offset lr, -4
	.cfi_offset r7, -8
	.cfi_offset r5, -12
	.cfi_offset r4, -16
	@DEBUG_VALUE: FLASH_OB_PCROP1Config:OB_PCROP <- $r0
	@DEBUG_VALUE: FLASH_OB_PCROP1Config:NewState <- $r1
	mov	r5, r1
	mov	r4, r0
.Ltmp147:
	@DEBUG_VALUE: FLASH_OB_PCROP1Config:status <- 9
	@DEBUG_VALUE: FLASH_OB_PCROP1Config:NewState <- $r5
	@DEBUG_VALUE: FLASH_OB_PCROP1Config:OB_PCROP <- $r4
	.loc	4 1173 12 prologue_end  @ ../Libraries/STM32F4xx_StdPeriph_Driver/src/stm32f4xx_flash.c:1173:12
	bl	FLASH_WaitForLastOperation
.Ltmp148:
	@DEBUG_VALUE: FLASH_OB_PCROP1Config:status <- $r0
	.loc	4 1175 6                @ ../Libraries/STM32F4xx_StdPeriph_Driver/src/stm32f4xx_flash.c:1175:6
	cmp	r0, #9
	.loc	4 1186 1                @ ../Libraries/STM32F4xx_StdPeriph_Driver/src/stm32f4xx_flash.c:1186:1
	it	ne
	popne	{r4, r5, r7, pc}
.Ltmp149:
	.loc	4 0 1 is_stmt 0         @ ../Libraries/STM32F4xx_StdPeriph_Driver/src/stm32f4xx_flash.c:0:1
	movw	r0, #15386
.Ltmp150:
	.loc	4 1177 8 is_stmt 1      @ ../Libraries/STM32F4xx_StdPeriph_Driver/src/stm32f4xx_flash.c:1177:8
	cmp	r5, #0
	movt	r0, #16386
.Ltmp151:
	.loc	4 0 0 is_stmt 0         @ ../Libraries/STM32F4xx_StdPeriph_Driver/src/stm32f4xx_flash.c:0:0
	ldrh	r1, [r0]
.Ltmp152:
	.loc	4 1177 8                @ ../Libraries/STM32F4xx_StdPeriph_Driver/src/stm32f4xx_flash.c:1177:8
	orr.w	r2, r1, r4
	it	eq
	biceq.w	r2, r1, r4
.Ltmp153:
	.loc	4 0 0                   @ ../Libraries/STM32F4xx_StdPeriph_Driver/src/stm32f4xx_flash.c:0:0
	strh	r2, [r0]
.Ltmp154:
	.loc	4 1186 1 is_stmt 1      @ ../Libraries/STM32F4xx_StdPeriph_Driver/src/stm32f4xx_flash.c:1186:1
	pop	{r4, r5, r7, pc}
.Ltmp155:
.Lfunc_end23:
	.size	FLASH_OB_PCROP1Config, .Lfunc_end23-FLASH_OB_PCROP1Config
	.cfi_endproc
	.cantunwind
	.fnend
                                        @ -- End function
	.section	.text.FLASH_OB_RDPConfig,"ax",%progbits
	.hidden	FLASH_OB_RDPConfig      @ -- Begin function FLASH_OB_RDPConfig
	.globl	FLASH_OB_RDPConfig
	.p2align	1
	.type	FLASH_OB_RDPConfig,%function
	.code	16                      @ @FLASH_OB_RDPConfig
	.thumb_func
FLASH_OB_RDPConfig:
.Lfunc_begin24:
	.loc	4 1202 0                @ ../Libraries/STM32F4xx_StdPeriph_Driver/src/stm32f4xx_flash.c:1202:0
	.fnstart
	.cfi_startproc
@ %bb.0:
	.save	{r4, lr}
	push	{r4, lr}
	.cfi_def_cfa_offset 8
	.cfi_offset lr, -4
	.cfi_offset r4, -8
	@DEBUG_VALUE: FLASH_OB_RDPConfig:OB_RDP <- $r0
	mov	r4, r0
.Ltmp156:
	@DEBUG_VALUE: FLASH_OB_RDPConfig:status <- 9
	@DEBUG_VALUE: FLASH_OB_RDPConfig:OB_RDP <- $r4
	.loc	4 1208 12 prologue_end  @ ../Libraries/STM32F4xx_StdPeriph_Driver/src/stm32f4xx_flash.c:1208:12
	bl	FLASH_WaitForLastOperation
.Ltmp157:
	@DEBUG_VALUE: FLASH_OB_RDPConfig:status <- $r0
	.loc	4 1210 6                @ ../Libraries/STM32F4xx_StdPeriph_Driver/src/stm32f4xx_flash.c:1210:6
	cmp	r0, #9
	@DEBUG_VALUE: FLASH_OB_RDPConfig:OB_RDP <- $r4
	ittt	eq
	movweq	r0, #15381
.Ltmp158:
	.loc	4 0 6 is_stmt 0         @ ../Libraries/STM32F4xx_StdPeriph_Driver/src/stm32f4xx_flash.c:0:6
	movteq	r0, #16386
.Ltmp159:
	.loc	4 1212 41 is_stmt 1     @ ../Libraries/STM32F4xx_StdPeriph_Driver/src/stm32f4xx_flash.c:1212:41
	strbeq	r4, [r0]
.Ltmp160:
	.loc	4 1215 1                @ ../Libraries/STM32F4xx_StdPeriph_Driver/src/stm32f4xx_flash.c:1215:1
	pop	{r4, pc}
.Ltmp161:
.Lfunc_end24:
	.size	FLASH_OB_RDPConfig, .Lfunc_end24-FLASH_OB_RDPConfig
	.cfi_endproc
	.cantunwind
	.fnend
                                        @ -- End function
	.section	.text.FLASH_OB_UserConfig,"ax",%progbits
	.hidden	FLASH_OB_UserConfig     @ -- Begin function FLASH_OB_UserConfig
	.globl	FLASH_OB_UserConfig
	.p2align	1
	.type	FLASH_OB_UserConfig,%function
	.code	16                      @ @FLASH_OB_UserConfig
	.thumb_func
FLASH_OB_UserConfig:
.Lfunc_begin25:
	.loc	4 1234 0                @ ../Libraries/STM32F4xx_StdPeriph_Driver/src/stm32f4xx_flash.c:1234:0
	.fnstart
	.cfi_startproc
@ %bb.0:
	.save	{r4, r5, r6, lr}
	push	{r4, r5, r6, lr}
	.cfi_def_cfa_offset 16
	.cfi_offset lr, -4
	.cfi_offset r6, -8
	.cfi_offset r5, -12
	.cfi_offset r4, -16
	@DEBUG_VALUE: FLASH_OB_UserConfig:OB_IWDG <- $r0
	@DEBUG_VALUE: FLASH_OB_UserConfig:OB_STOP <- $r1
	@DEBUG_VALUE: FLASH_OB_UserConfig:OB_STDBY <- $r2
	mov	r4, r2
	mov	r5, r1
	mov	r6, r0
.Ltmp162:
	@DEBUG_VALUE: FLASH_OB_UserConfig:status <- 9
	@DEBUG_VALUE: FLASH_OB_UserConfig:optiontmp <- -1
	@DEBUG_VALUE: FLASH_OB_UserConfig:OB_STDBY <- $r4
	@DEBUG_VALUE: FLASH_OB_UserConfig:OB_STOP <- $r5
	@DEBUG_VALUE: FLASH_OB_UserConfig:OB_IWDG <- $r6
	.loc	4 1244 12 prologue_end  @ ../Libraries/STM32F4xx_StdPeriph_Driver/src/stm32f4xx_flash.c:1244:12
	bl	FLASH_WaitForLastOperation
.Ltmp163:
	@DEBUG_VALUE: FLASH_OB_UserConfig:status <- $r0
	.loc	4 1246 6                @ ../Libraries/STM32F4xx_StdPeriph_Driver/src/stm32f4xx_flash.c:1246:6
	cmp	r0, #9
	.loc	4 1261 1                @ ../Libraries/STM32F4xx_StdPeriph_Driver/src/stm32f4xx_flash.c:1261:1
	it	ne
	popne	{r4, r5, r6, pc}
.Ltmp164:
	.loc	4 0 1 is_stmt 0         @ ../Libraries/STM32F4xx_StdPeriph_Driver/src/stm32f4xx_flash.c:0:1
	movw	r1, #15380
.Ltmp165:
	.loc	4 1259 93 is_stmt 1     @ ../Libraries/STM32F4xx_StdPeriph_Driver/src/stm32f4xx_flash.c:1259:93
	orr.w	r0, r5, r6
.Ltmp166:
	.loc	4 0 93 is_stmt 0        @ ../Libraries/STM32F4xx_StdPeriph_Driver/src/stm32f4xx_flash.c:0:93
	movt	r1, #16386
	.loc	4 1259 73               @ ../Libraries/STM32F4xx_StdPeriph_Driver/src/stm32f4xx_flash.c:1259:73
	orrs	r0, r4
	.loc	4 1250 29 is_stmt 1     @ ../Libraries/STM32F4xx_StdPeriph_Driver/src/stm32f4xx_flash.c:1250:29
	ldrb	r2, [r1]
	.loc	4 1250 67 is_stmt 0     @ ../Libraries/STM32F4xx_StdPeriph_Driver/src/stm32f4xx_flash.c:1250:67
	and	r2, r2, #31
.Ltmp167:
	@DEBUG_VALUE: FLASH_OB_UserConfig:optiontmp <- $r2
	.loc	4 1259 52 is_stmt 1     @ ../Libraries/STM32F4xx_StdPeriph_Driver/src/stm32f4xx_flash.c:1259:52
	orrs	r0, r2
	.loc	4 1259 42 is_stmt 0     @ ../Libraries/STM32F4xx_StdPeriph_Driver/src/stm32f4xx_flash.c:1259:42
	strb	r0, [r1]
.Ltmp168:
	.loc	4 1261 1 is_stmt 1      @ ../Libraries/STM32F4xx_StdPeriph_Driver/src/stm32f4xx_flash.c:1261:1
	pop	{r4, r5, r6, pc}
.Ltmp169:
.Lfunc_end25:
	.size	FLASH_OB_UserConfig, .Lfunc_end25-FLASH_OB_UserConfig
	.cfi_endproc
	.cantunwind
	.fnend
                                        @ -- End function
	.section	.text.FLASH_OB_BootConfig,"ax",%progbits
	.hidden	FLASH_OB_BootConfig     @ -- Begin function FLASH_OB_BootConfig
	.globl	FLASH_OB_BootConfig
	.p2align	1
	.type	FLASH_OB_BootConfig,%function
	.code	16                      @ @FLASH_OB_BootConfig
	.thumb_func
FLASH_OB_BootConfig:
.Lfunc_begin26:
	.loc	4 1275 0                @ ../Libraries/STM32F4xx_StdPeriph_Driver/src/stm32f4xx_flash.c:1275:0
	.fnstart
	.cfi_startproc
@ %bb.0:
	@DEBUG_VALUE: FLASH_OB_BootConfig:OB_BOOT <- $r0
	movw	r1, #15380
	movt	r1, #16386
	@DEBUG_VALUE: FLASH_OB_BootConfig:OB_BOOT <- $r0
.Ltmp170:
	.loc	4 1280 40 prologue_end  @ ../Libraries/STM32F4xx_StdPeriph_Driver/src/stm32f4xx_flash.c:1280:40
	ldrb	r2, [r1]
	and	r2, r2, #239
	strb	r2, [r1]
	.loc	4 1281 40               @ ../Libraries/STM32F4xx_StdPeriph_Driver/src/stm32f4xx_flash.c:1281:40
	ldrb	r2, [r1]
	orrs	r0, r2
.Ltmp171:
	strb	r0, [r1]
	.loc	4 1283 1                @ ../Libraries/STM32F4xx_StdPeriph_Driver/src/stm32f4xx_flash.c:1283:1
	bx	lr
.Ltmp172:
.Lfunc_end26:
	.size	FLASH_OB_BootConfig, .Lfunc_end26-FLASH_OB_BootConfig
	.cfi_endproc
	.cantunwind
	.fnend
                                        @ -- End function
	.section	.text.FLASH_OB_BORConfig,"ax",%progbits
	.hidden	FLASH_OB_BORConfig      @ -- Begin function FLASH_OB_BORConfig
	.globl	FLASH_OB_BORConfig
	.p2align	1
	.type	FLASH_OB_BORConfig,%function
	.code	16                      @ @FLASH_OB_BORConfig
	.thumb_func
FLASH_OB_BORConfig:
.Lfunc_begin27:
	.loc	4 1296 0                @ ../Libraries/STM32F4xx_StdPeriph_Driver/src/stm32f4xx_flash.c:1296:0
	.fnstart
	.cfi_startproc
@ %bb.0:
	@DEBUG_VALUE: FLASH_OB_BORConfig:OB_BOR <- $r0
	movw	r1, #15380
	movt	r1, #16386
	@DEBUG_VALUE: FLASH_OB_BORConfig:OB_BOR <- $r0
.Ltmp173:
	.loc	4 1301 40 prologue_end  @ ../Libraries/STM32F4xx_StdPeriph_Driver/src/stm32f4xx_flash.c:1301:40
	ldrb	r2, [r1]
	and	r2, r2, #243
	strb	r2, [r1]
	.loc	4 1302 40               @ ../Libraries/STM32F4xx_StdPeriph_Driver/src/stm32f4xx_flash.c:1302:40
	ldrb	r2, [r1]
	orrs	r0, r2
.Ltmp174:
	strb	r0, [r1]
	.loc	4 1304 1                @ ../Libraries/STM32F4xx_StdPeriph_Driver/src/stm32f4xx_flash.c:1304:1
	bx	lr
.Ltmp175:
.Lfunc_end27:
	.size	FLASH_OB_BORConfig, .Lfunc_end27-FLASH_OB_BORConfig
	.cfi_endproc
	.cantunwind
	.fnend
                                        @ -- End function
	.section	.text.FLASH_OB_Launch,"ax",%progbits
	.hidden	FLASH_OB_Launch         @ -- Begin function FLASH_OB_Launch
	.globl	FLASH_OB_Launch
	.p2align	1
	.type	FLASH_OB_Launch,%function
	.code	16                      @ @FLASH_OB_Launch
	.thumb_func
FLASH_OB_Launch:
.Lfunc_begin28:
	.loc	4 1313 0                @ ../Libraries/STM32F4xx_StdPeriph_Driver/src/stm32f4xx_flash.c:1313:0
	.fnstart
	.cfi_startproc
@ %bb.0:
	movw	r0, #15380
	movt	r0, #16386
.Ltmp176:
	@DEBUG_VALUE: FLASH_OB_Launch:status <- 9
	.loc	4 1317 40 prologue_end  @ ../Libraries/STM32F4xx_StdPeriph_Driver/src/stm32f4xx_flash.c:1317:40
	ldrb	r1, [r0]
	orr	r1, r1, #2
	strb	r1, [r0]
	.loc	4 1320 12               @ ../Libraries/STM32F4xx_StdPeriph_Driver/src/stm32f4xx_flash.c:1320:12
	b	FLASH_WaitForLastOperation
.Ltmp177:
.Lfunc_end28:
	.size	FLASH_OB_Launch, .Lfunc_end28-FLASH_OB_Launch
	.cfi_endproc
	.cantunwind
	.fnend
                                        @ -- End function
	.section	.text.FLASH_OB_GetUser,"ax",%progbits
	.hidden	FLASH_OB_GetUser        @ -- Begin function FLASH_OB_GetUser
	.globl	FLASH_OB_GetUser
	.p2align	1
	.type	FLASH_OB_GetUser,%function
	.code	16                      @ @FLASH_OB_GetUser
	.thumb_func
FLASH_OB_GetUser:
.Lfunc_begin29:
	.loc	4 1332 0                @ ../Libraries/STM32F4xx_StdPeriph_Driver/src/stm32f4xx_flash.c:1332:0
	.fnstart
	.cfi_startproc
@ %bb.0:
	movw	r0, #15380
	movt	r0, #16386
.Ltmp178:
	.loc	4 1334 27 prologue_end  @ ../Libraries/STM32F4xx_StdPeriph_Driver/src/stm32f4xx_flash.c:1334:27
	ldr	r0, [r0]
	.loc	4 1334 3 is_stmt 0      @ ../Libraries/STM32F4xx_StdPeriph_Driver/src/stm32f4xx_flash.c:1334:3
	ubfx	r0, r0, #5, #8
	bx	lr
.Ltmp179:
.Lfunc_end29:
	.size	FLASH_OB_GetUser, .Lfunc_end29-FLASH_OB_GetUser
	.cfi_endproc
	.cantunwind
	.fnend
                                        @ -- End function
	.section	.text.FLASH_OB_GetWRP,"ax",%progbits
	.hidden	FLASH_OB_GetWRP         @ -- Begin function FLASH_OB_GetWRP
	.globl	FLASH_OB_GetWRP
	.p2align	1
	.type	FLASH_OB_GetWRP,%function
	.code	16                      @ @FLASH_OB_GetWRP
	.thumb_func
FLASH_OB_GetWRP:
.Lfunc_begin30:
	.loc	4 1343 0 is_stmt 1      @ ../Libraries/STM32F4xx_StdPeriph_Driver/src/stm32f4xx_flash.c:1343:0
	.fnstart
	.cfi_startproc
@ %bb.0:
	movw	r0, #15382
	movt	r0, #16386
.Ltmp180:
	.loc	4 1345 11 prologue_end  @ ../Libraries/STM32F4xx_StdPeriph_Driver/src/stm32f4xx_flash.c:1345:11
	ldrh	r0, [r0]
	.loc	4 1345 3 is_stmt 0      @ ../Libraries/STM32F4xx_StdPeriph_Driver/src/stm32f4xx_flash.c:1345:3
	bx	lr
.Ltmp181:
.Lfunc_end30:
	.size	FLASH_OB_GetWRP, .Lfunc_end30-FLASH_OB_GetWRP
	.cfi_endproc
	.cantunwind
	.fnend
                                        @ -- End function
	.section	.text.FLASH_OB_GetWRP1,"ax",%progbits
	.hidden	FLASH_OB_GetWRP1        @ -- Begin function FLASH_OB_GetWRP1
	.globl	FLASH_OB_GetWRP1
	.p2align	1
	.type	FLASH_OB_GetWRP1,%function
	.code	16                      @ @FLASH_OB_GetWRP1
	.thumb_func
FLASH_OB_GetWRP1:
.Lfunc_begin31:
	.loc	4 1357 0 is_stmt 1      @ ../Libraries/STM32F4xx_StdPeriph_Driver/src/stm32f4xx_flash.c:1357:0
	.fnstart
	.cfi_startproc
@ %bb.0:
	movw	r0, #15386
	movt	r0, #16386
.Ltmp182:
	.loc	4 1359 11 prologue_end  @ ../Libraries/STM32F4xx_StdPeriph_Driver/src/stm32f4xx_flash.c:1359:11
	ldrh	r0, [r0]
	.loc	4 1359 3 is_stmt 0      @ ../Libraries/STM32F4xx_StdPeriph_Driver/src/stm32f4xx_flash.c:1359:3
	bx	lr
.Ltmp183:
.Lfunc_end31:
	.size	FLASH_OB_GetWRP1, .Lfunc_end31-FLASH_OB_GetWRP1
	.cfi_endproc
	.cantunwind
	.fnend
                                        @ -- End function
	.section	.text.FLASH_OB_GetPCROP,"ax",%progbits
	.hidden	FLASH_OB_GetPCROP       @ -- Begin function FLASH_OB_GetPCROP
	.globl	FLASH_OB_GetPCROP
	.p2align	1
	.type	FLASH_OB_GetPCROP,%function
	.code	16                      @ @FLASH_OB_GetPCROP
	.thumb_func
FLASH_OB_GetPCROP:
.Lfunc_begin32:
	.loc	4 1371 0 is_stmt 1      @ ../Libraries/STM32F4xx_StdPeriph_Driver/src/stm32f4xx_flash.c:1371:0
	.fnstart
	.cfi_startproc
@ %bb.0:
	movw	r0, #15382
	movt	r0, #16386
.Ltmp184:
	.loc	4 1373 11 prologue_end  @ ../Libraries/STM32F4xx_StdPeriph_Driver/src/stm32f4xx_flash.c:1373:11
	ldrh	r0, [r0]
	.loc	4 1373 3 is_stmt 0      @ ../Libraries/STM32F4xx_StdPeriph_Driver/src/stm32f4xx_flash.c:1373:3
	bx	lr
.Ltmp185:
.Lfunc_end32:
	.size	FLASH_OB_GetPCROP, .Lfunc_end32-FLASH_OB_GetPCROP
	.cfi_endproc
	.cantunwind
	.fnend
                                        @ -- End function
	.section	.text.FLASH_OB_GetPCROP1,"ax",%progbits
	.hidden	FLASH_OB_GetPCROP1      @ -- Begin function FLASH_OB_GetPCROP1
	.globl	FLASH_OB_GetPCROP1
	.p2align	1
	.type	FLASH_OB_GetPCROP1,%function
	.code	16                      @ @FLASH_OB_GetPCROP1
	.thumb_func
FLASH_OB_GetPCROP1:
.Lfunc_begin33:
	.loc	4 1385 0 is_stmt 1      @ ../Libraries/STM32F4xx_StdPeriph_Driver/src/stm32f4xx_flash.c:1385:0
	.fnstart
	.cfi_startproc
@ %bb.0:
	movw	r0, #15386
	movt	r0, #16386
.Ltmp186:
	.loc	4 1387 11 prologue_end  @ ../Libraries/STM32F4xx_StdPeriph_Driver/src/stm32f4xx_flash.c:1387:11
	ldrh	r0, [r0]
	.loc	4 1387 3 is_stmt 0      @ ../Libraries/STM32F4xx_StdPeriph_Driver/src/stm32f4xx_flash.c:1387:3
	bx	lr
.Ltmp187:
.Lfunc_end33:
	.size	FLASH_OB_GetPCROP1, .Lfunc_end33-FLASH_OB_GetPCROP1
	.cfi_endproc
	.cantunwind
	.fnend
                                        @ -- End function
	.section	.text.FLASH_OB_GetRDP,"ax",%progbits
	.hidden	FLASH_OB_GetRDP         @ -- Begin function FLASH_OB_GetRDP
	.globl	FLASH_OB_GetRDP
	.p2align	1
	.type	FLASH_OB_GetRDP,%function
	.code	16                      @ @FLASH_OB_GetRDP
	.thumb_func
FLASH_OB_GetRDP:
.Lfunc_begin34:
	.loc	4 1398 0 is_stmt 1      @ ../Libraries/STM32F4xx_StdPeriph_Driver/src/stm32f4xx_flash.c:1398:0
	.fnstart
	.cfi_startproc
@ %bb.0:
	movw	r0, #15381
	movt	r0, #16386
.Ltmp188:
	@DEBUG_VALUE: FLASH_OB_GetRDP:readstatus <- 0
	.loc	4 1401 8 prologue_end   @ ../Libraries/STM32F4xx_StdPeriph_Driver/src/stm32f4xx_flash.c:1401:8
	ldrb	r0, [r0]
	.loc	4 1401 46 is_stmt 0     @ ../Libraries/STM32F4xx_StdPeriph_Driver/src/stm32f4xx_flash.c:1401:46
	subs	r0, #170
	it	ne
	movne	r0, #1
.Ltmp189:
	@DEBUG_VALUE: FLASH_OB_GetRDP:readstatus <- undef
	.loc	4 1409 3 is_stmt 1      @ ../Libraries/STM32F4xx_StdPeriph_Driver/src/stm32f4xx_flash.c:1409:3
	bx	lr
.Ltmp190:
.Lfunc_end34:
	.size	FLASH_OB_GetRDP, .Lfunc_end34-FLASH_OB_GetRDP
	.cfi_endproc
	.cantunwind
	.fnend
                                        @ -- End function
	.section	.text.FLASH_OB_GetBOR,"ax",%progbits
	.hidden	FLASH_OB_GetBOR         @ -- Begin function FLASH_OB_GetBOR
	.globl	FLASH_OB_GetBOR
	.p2align	1
	.type	FLASH_OB_GetBOR,%function
	.code	16                      @ @FLASH_OB_GetBOR
	.thumb_func
FLASH_OB_GetBOR:
.Lfunc_begin35:
	.loc	4 1422 0                @ ../Libraries/STM32F4xx_StdPeriph_Driver/src/stm32f4xx_flash.c:1422:0
	.fnstart
	.cfi_startproc
@ %bb.0:
	movw	r0, #15380
	movt	r0, #16386
.Ltmp191:
	.loc	4 1424 20 prologue_end  @ ../Libraries/STM32F4xx_StdPeriph_Driver/src/stm32f4xx_flash.c:1424:20
	ldrb	r0, [r0]
	.loc	4 1424 3 is_stmt 0      @ ../Libraries/STM32F4xx_StdPeriph_Driver/src/stm32f4xx_flash.c:1424:3
	and	r0, r0, #12
	bx	lr
.Ltmp192:
.Lfunc_end35:
	.size	FLASH_OB_GetBOR, .Lfunc_end35-FLASH_OB_GetBOR
	.cfi_endproc
	.cantunwind
	.fnend
                                        @ -- End function
	.section	.text.FLASH_ITConfig,"ax",%progbits
	.hidden	FLASH_ITConfig          @ -- Begin function FLASH_ITConfig
	.globl	FLASH_ITConfig
	.p2align	1
	.type	FLASH_ITConfig,%function
	.code	16                      @ @FLASH_ITConfig
	.thumb_func
FLASH_ITConfig:
.Lfunc_begin36:
	.loc	4 1451 0 is_stmt 1      @ ../Libraries/STM32F4xx_StdPeriph_Driver/src/stm32f4xx_flash.c:1451:0
	.fnstart
	.cfi_startproc
@ %bb.0:
	@DEBUG_VALUE: FLASH_ITConfig:FLASH_IT <- $r0
	@DEBUG_VALUE: FLASH_ITConfig:NewState <- $r1
	movw	r2, #15376
.Ltmp193:
	.loc	4 1456 6 prologue_end   @ ../Libraries/STM32F4xx_StdPeriph_Driver/src/stm32f4xx_flash.c:1456:6
	cmp	r1, #0
	movt	r2, #16386
	@DEBUG_VALUE: FLASH_ITConfig:NewState <- $r1
	@DEBUG_VALUE: FLASH_ITConfig:FLASH_IT <- $r0
.Ltmp194:
	.loc	4 1464 15               @ ../Libraries/STM32F4xx_StdPeriph_Driver/src/stm32f4xx_flash.c:1464:15
	ldr	r1, [r2]
.Ltmp195:
	ite	eq
	biceq.w	r0, r1, r0
.Ltmp196:
	.loc	4 1459 15               @ ../Libraries/STM32F4xx_StdPeriph_Driver/src/stm32f4xx_flash.c:1459:15
	orrne	r0, r1
.Ltmp197:
	.loc	4 0 0 is_stmt 0         @ ../Libraries/STM32F4xx_StdPeriph_Driver/src/stm32f4xx_flash.c:0:0
	str	r0, [r2]
.Ltmp198:
	.loc	4 1466 1 is_stmt 1      @ ../Libraries/STM32F4xx_StdPeriph_Driver/src/stm32f4xx_flash.c:1466:1
	bx	lr
.Ltmp199:
.Lfunc_end36:
	.size	FLASH_ITConfig, .Lfunc_end36-FLASH_ITConfig
	.cfi_endproc
	.cantunwind
	.fnend
                                        @ -- End function
	.section	.text.FLASH_GetFlagStatus,"ax",%progbits
	.hidden	FLASH_GetFlagStatus     @ -- Begin function FLASH_GetFlagStatus
	.globl	FLASH_GetFlagStatus
	.p2align	1
	.type	FLASH_GetFlagStatus,%function
	.code	16                      @ @FLASH_GetFlagStatus
	.thumb_func
FLASH_GetFlagStatus:
.Lfunc_begin37:
	.loc	4 1483 0                @ ../Libraries/STM32F4xx_StdPeriph_Driver/src/stm32f4xx_flash.c:1483:0
	.fnstart
	.cfi_startproc
@ %bb.0:
	@DEBUG_VALUE: FLASH_GetFlagStatus:FLASH_FLAG <- $r0
	movw	r1, #15372
	movt	r1, #16386
.Ltmp200:
	@DEBUG_VALUE: FLASH_GetFlagStatus:bitstatus <- 0
	@DEBUG_VALUE: FLASH_GetFlagStatus:FLASH_FLAG <- $r0
	.loc	4 1488 14 prologue_end  @ ../Libraries/STM32F4xx_StdPeriph_Driver/src/stm32f4xx_flash.c:1488:14
	ldr	r1, [r1]
	.loc	4 1488 17 is_stmt 0     @ ../Libraries/STM32F4xx_StdPeriph_Driver/src/stm32f4xx_flash.c:1488:17
	ands	r0, r1
.Ltmp201:
	.loc	4 1488 31               @ ../Libraries/STM32F4xx_StdPeriph_Driver/src/stm32f4xx_flash.c:1488:31
	it	ne
	movne	r0, #1
.Ltmp202:
	@DEBUG_VALUE: FLASH_GetFlagStatus:bitstatus <- undef
	.loc	4 1497 3 is_stmt 1      @ ../Libraries/STM32F4xx_StdPeriph_Driver/src/stm32f4xx_flash.c:1497:3
	bx	lr
.Ltmp203:
.Lfunc_end37:
	.size	FLASH_GetFlagStatus, .Lfunc_end37-FLASH_GetFlagStatus
	.cfi_endproc
	.cantunwind
	.fnend
                                        @ -- End function
	.section	.text.FLASH_ClearFlag,"ax",%progbits
	.hidden	FLASH_ClearFlag         @ -- Begin function FLASH_ClearFlag
	.globl	FLASH_ClearFlag
	.p2align	1
	.type	FLASH_ClearFlag,%function
	.code	16                      @ @FLASH_ClearFlag
	.thumb_func
FLASH_ClearFlag:
.Lfunc_begin38:
	.loc	4 1514 0                @ ../Libraries/STM32F4xx_StdPeriph_Driver/src/stm32f4xx_flash.c:1514:0
	.fnstart
	.cfi_startproc
@ %bb.0:
	@DEBUG_VALUE: FLASH_ClearFlag:FLASH_FLAG <- $r0
	movw	r1, #15372
	movt	r1, #16386
	@DEBUG_VALUE: FLASH_ClearFlag:FLASH_FLAG <- $r0
.Ltmp204:
	.loc	4 1519 13 prologue_end  @ ../Libraries/STM32F4xx_StdPeriph_Driver/src/stm32f4xx_flash.c:1519:13
	str	r0, [r1]
	.loc	4 1520 1                @ ../Libraries/STM32F4xx_StdPeriph_Driver/src/stm32f4xx_flash.c:1520:1
	bx	lr
.Ltmp205:
.Lfunc_end38:
	.size	FLASH_ClearFlag, .Lfunc_end38-FLASH_ClearFlag
	.cfi_endproc
	.cantunwind
	.fnend
                                        @ -- End function
	.section	.text.FLASH_GetStatus,"ax",%progbits
	.hidden	FLASH_GetStatus         @ -- Begin function FLASH_GetStatus
	.globl	FLASH_GetStatus
	.p2align	1
	.type	FLASH_GetStatus,%function
	.code	16                      @ @FLASH_GetStatus
	.thumb_func
FLASH_GetStatus:
.Lfunc_begin39:
	.loc	4 1529 0                @ ../Libraries/STM32F4xx_StdPeriph_Driver/src/stm32f4xx_flash.c:1529:0
	.fnstart
	.cfi_startproc
@ %bb.0:
	movw	r0, #15372
	movt	r0, #16386
.Ltmp206:
	@DEBUG_VALUE: FLASH_GetStatus:flashstatus <- 9
	.loc	4 1532 14 prologue_end  @ ../Libraries/STM32F4xx_StdPeriph_Driver/src/stm32f4xx_flash.c:1532:14
	ldr	r1, [r0]
.Ltmp207:
	.loc	4 1532 6 is_stmt 0      @ ../Libraries/STM32F4xx_StdPeriph_Driver/src/stm32f4xx_flash.c:1532:6
	lsls	r1, r1, #15
	itt	mi
	movmi	r0, #1
.Ltmp208:
	@DEBUG_VALUE: FLASH_GetStatus:flashstatus <- $r0
	.loc	4 0 0                   @ ../Libraries/STM32F4xx_StdPeriph_Driver/src/stm32f4xx_flash.c:0:0
	bxmi	lr
.Ltmp209:
	.loc	4 1538 16 is_stmt 1     @ ../Libraries/STM32F4xx_StdPeriph_Driver/src/stm32f4xx_flash.c:1538:16
	ldr	r1, [r0]
.Ltmp210:
	.loc	4 1538 8 is_stmt 0      @ ../Libraries/STM32F4xx_StdPeriph_Driver/src/stm32f4xx_flash.c:1538:8
	lsls	r1, r1, #27
	itt	mi
	movmi	r0, #6
.Ltmp211:
	@DEBUG_VALUE: FLASH_GetStatus:flashstatus <- $r0
	.loc	4 0 0                   @ ../Libraries/STM32F4xx_StdPeriph_Driver/src/stm32f4xx_flash.c:0:0
	bxmi	lr
.Ltmp212:
	.loc	4 1544 18 is_stmt 1     @ ../Libraries/STM32F4xx_StdPeriph_Driver/src/stm32f4xx_flash.c:1544:18
	ldr	r1, [r0]
.Ltmp213:
	.loc	4 1544 10 is_stmt 0     @ ../Libraries/STM32F4xx_StdPeriph_Driver/src/stm32f4xx_flash.c:1544:10
	lsls	r1, r1, #23
	itt	mi
	movmi	r0, #2
.Ltmp214:
	@DEBUG_VALUE: FLASH_GetStatus:flashstatus <- $r0
	.loc	4 0 0                   @ ../Libraries/STM32F4xx_StdPeriph_Driver/src/stm32f4xx_flash.c:0:0
	bxmi	lr
.Ltmp215:
	.loc	4 1550 20 is_stmt 1     @ ../Libraries/STM32F4xx_StdPeriph_Driver/src/stm32f4xx_flash.c:1550:20
	ldr	r1, [r0]
.Ltmp216:
	.loc	4 1550 12 is_stmt 0     @ ../Libraries/STM32F4xx_StdPeriph_Driver/src/stm32f4xx_flash.c:1550:12
	tst.w	r1, #224
	itt	ne
	movne	r0, #7
.Ltmp217:
	@DEBUG_VALUE: FLASH_GetStatus:flashstatus <- $r0
	.loc	4 0 0                   @ ../Libraries/STM32F4xx_StdPeriph_Driver/src/stm32f4xx_flash.c:0:0
	bxne	lr
.Ltmp218:
	.loc	4 1556 22 is_stmt 1     @ ../Libraries/STM32F4xx_StdPeriph_Driver/src/stm32f4xx_flash.c:1556:22
	ldr	r0, [r0]
.Ltmp219:
	.loc	4 1556 14 is_stmt 0     @ ../Libraries/STM32F4xx_StdPeriph_Driver/src/stm32f4xx_flash.c:1556:14
	lsls	r0, r0, #30
	mov.w	r0, #8
	it	pl
	movpl	r0, #9
.Ltmp220:
	@DEBUG_VALUE: FLASH_GetStatus:flashstatus <- $r0
	.loc	4 0 0                   @ ../Libraries/STM32F4xx_StdPeriph_Driver/src/stm32f4xx_flash.c:0:0
	bx	lr
.Ltmp221:
.Lfunc_end39:
	.size	FLASH_GetStatus, .Lfunc_end39-FLASH_GetStatus
	.cfi_endproc
	.cantunwind
	.fnend
                                        @ -- End function
	.section	".note.GNU-stack","",%progbits
	.eabi_attribute	30, 3	@ Tag_ABI_optimization_goals
	.ARM_attribute	16, 1	@ Tag_AV_eba