	.text
	.syntax unified
	.eabi_attribute	67, "2.09"	@ Tag_conformance
	.cpu	cortex-m4
	.eabi_attribute	6, 13	@ Tag_CPU_arch
	.eabi_attribute	7, 77	@ Tag_CPU_arch_profile
	.eabi_attribute	8, 0	@ Tag_ARM_ISA_use
	.eabi_attribute	9, 2	@ Tag_THUMB_ISA_use
	.fpu	fpv4-sp-d16
	.eabi_attribute	27, 1	@ Tag_ABI_HardFP_use
	.eabi_attribute	36, 1	@ Tag_FP_HP_extension
	.eabi_attribute	34, 1	@ Tag_CPU_unaligned_access
	.eabi_attribute	17, 1	@ Tag_ABI_PCS_GOT_use
	.eabi_attribute	20, 2	@ Tag_ABI_FP_denormal
	.eabi_attribute	21, 0	@ Tag_ABI_FP_exceptions
	.eabi_attribute	23, 1	@ Tag_ABI_FP_number_model
	.eabi_attribute	24, 1	@ Tag_ABI_align_needed
	.eabi_attribute	25, 1	@ Tag_ABI_align_preserved
	.eabi_attribute	28, 1	@ Tag_ABI_VFP_args
	.eabi_attribute	38, 1	@ Tag_ABI_FP_16bit_format
	.eabi_attribute	18, 2	@ Tag_ABI_PCS_wchar_t
	.eabi_attribute	26, 1	@ Tag_ABI_enum_size
	.eabi_attribute	14, 0	@ Tag_ABI_PCS_R9_use
	.file	"stm32f4xx_spi.c"
	.file	1 "F:\\SkyDrive\\OtvoreniProjekti\\HotelSaplast\\fw\\KontrolerHotela\\HC070318\\Project" "../Libraries/CMSIS/Device/ST/STM32F4xx/Include\\stm32f4xx.h"
	.file	2 "C:\\Keil\\ARM\\ARMCLANG\\Bin\\..\\include" "stdint.h"
	.section	.text.SPI_I2S_DeInit,"ax",%progbits
	.hidden	SPI_I2S_DeInit          @ -- Begin function SPI_I2S_DeInit
	.globl	SPI_I2S_DeInit
	.p2align	1
	.type	SPI_I2S_DeInit,%function
	.code	16                      @ @SPI_I2S_DeInit
	.thumb_func
SPI_I2S_DeInit:
.Lfunc_begin0:
	.file	3 "F:\\SkyDrive\\OtvoreniProjekti\\HotelSaplast\\fw\\KontrolerHotela\\HC070318\\Project" "../Libraries/STM32F4xx_StdPeriph_Driver/src/stm32f4xx_spi.c"
	.loc	3 225 0                 @ ../Libraries/STM32F4xx_StdPeriph_Driver/src/stm32f4xx_spi.c:225:0
	.fnstart
	.cfi_sections .debug_frame
	.cfi_startproc
@ %bb.0:
	.save	{r7, lr}
	push	{r7, lr}
	.cfi_def_cfa_offset 8
	.cfi_offset lr, -4
	.cfi_offset r7, -8
	@DEBUG_VALUE: SPI_I2S_DeInit:SPIx <- $r0
	movw	r1, #13311
	movt	r1, #16385
	@DEBUG_VALUE: SPI_I2S_DeInit:SPIx <- $r0
.Ltmp0:
	.loc	3 229 7 prologue_end    @ ../Libraries/STM32F4xx_StdPeriph_Driver/src/stm32f4xx_spi.c:229:7
	cmp	r0, r1
	bgt	.LBB0_5
.Ltmp1:
@ %bb.1:
	@DEBUG_VALUE: SPI_I2S_DeInit:SPIx <- $r0
	.loc	3 0 7 is_stmt 0         @ ../Libraries/STM32F4xx_StdPeriph_Driver/src/stm32f4xx_spi.c:0:7
	movw	r1, #14336
	movt	r1, #16384
	.loc	3 229 7                 @ ../Libraries/STM32F4xx_StdPeriph_Driver/src/stm32f4xx_spi.c:229:7
	cmp	r0, r1
	beq	.LBB0_8
.Ltmp2:
@ %bb.2:
	@DEBUG_VALUE: SPI_I2S_DeInit:SPIx <- $r0
	.loc	3 0 7                   @ ../Libraries/STM32F4xx_StdPeriph_Driver/src/stm32f4xx_spi.c:0:7
	movw	r1, #15360
	movt	r1, #16384
	.loc	3 229 7                 @ ../Libraries/STM32F4xx_StdPeriph_Driver/src/stm32f4xx_spi.c:229:7
	cmp	r0, r1
	beq	.LBB0_10
.Ltmp3:
@ %bb.3:
	@DEBUG_VALUE: SPI_I2S_DeInit:SPIx <- $r0
	.loc	3 0 7                   @ ../Libraries/STM32F4xx_StdPeriph_Driver/src/stm32f4xx_spi.c:0:7
	movw	r1, #12288
	movt	r1, #16385
	.loc	3 229 7                 @ ../Libraries/STM32F4xx_StdPeriph_Driver/src/stm32f4xx_spi.c:229:7
	cmp	r0, r1
	bne	.LBB0_14
.Ltmp4:
@ %bb.4:
	@DEBUG_VALUE: SPI_I2S_DeInit:SPIx <- $r0
	.loc	3 232 5 is_stmt 1       @ ../Libraries/STM32F4xx_StdPeriph_Driver/src/stm32f4xx_spi.c:232:5
	mov.w	r0, #4096
.Ltmp5:
	movs	r1, #1
	bl	RCC_APB2PeriphResetCmd
	.loc	3 234 5                 @ ../Libraries/STM32F4xx_StdPeriph_Driver/src/stm32f4xx_spi.c:234:5
	mov.w	r0, #4096
	b	.LBB0_13
.Ltmp6:
.LBB0_5:
	@DEBUG_VALUE: SPI_I2S_DeInit:SPIx <- $r0
	.loc	3 0 5 is_stmt 0         @ ../Libraries/STM32F4xx_StdPeriph_Driver/src/stm32f4xx_spi.c:0:5
	movw	r1, #13312
	movt	r1, #16385
	.loc	3 229 7 is_stmt 1       @ ../Libraries/STM32F4xx_StdPeriph_Driver/src/stm32f4xx_spi.c:229:7
	cmp	r0, r1
	beq	.LBB0_9
.Ltmp7:
@ %bb.6:
	@DEBUG_VALUE: SPI_I2S_DeInit:SPIx <- $r0
	.loc	3 0 7 is_stmt 0         @ ../Libraries/STM32F4xx_StdPeriph_Driver/src/stm32f4xx_spi.c:0:7
	movw	r1, #20480
	movt	r1, #16385
	.loc	3 229 7                 @ ../Libraries/STM32F4xx_StdPeriph_Driver/src/stm32f4xx_spi.c:229:7
	cmp	r0, r1
	beq	.LBB0_12
.Ltmp8:
@ %bb.7:
	@DEBUG_VALUE: SPI_I2S_DeInit:SPIx <- $r0
	.loc	3 0 7                   @ ../Libraries/STM32F4xx_StdPeriph_Driver/src/stm32f4xx_spi.c:0:7
	movw	r1, #21504
	movt	r1, #16385
	.loc	3 229 7                 @ ../Libraries/STM32F4xx_StdPeriph_Driver/src/stm32f4xx_spi.c:229:7
	cmp	r0, r1
	.loc	3 274 1 is_stmt 1       @ ../Libraries/STM32F4xx_StdPeriph_Driver/src/stm32f4xx_spi.c:274:1
	it	ne
	popne	{r7, pc}
.Ltmp9:
	.loc	3 269 7                 @ ../Libraries/STM32F4xx_StdPeriph_Driver/src/stm32f4xx_spi.c:269:7
	mov.w	r0, #2097152
.Ltmp10:
	movs	r1, #1
	bl	RCC_APB2PeriphResetCmd
	.loc	3 271 7                 @ ../Libraries/STM32F4xx_StdPeriph_Driver/src/stm32f4xx_spi.c:271:7
	mov.w	r0, #2097152
	b	.LBB0_13
.Ltmp11:
.LBB0_8:
	@DEBUG_VALUE: SPI_I2S_DeInit:SPIx <- $r0
	.loc	3 239 5                 @ ../Libraries/STM32F4xx_StdPeriph_Driver/src/stm32f4xx_spi.c:239:5
	mov.w	r0, #16384
.Ltmp12:
	movs	r1, #1
	bl	RCC_APB1PeriphResetCmd
	.loc	3 241 5                 @ ../Libraries/STM32F4xx_StdPeriph_Driver/src/stm32f4xx_spi.c:241:5
	mov.w	r0, #16384
	b	.LBB0_11
.Ltmp13:
.LBB0_9:
	@DEBUG_VALUE: SPI_I2S_DeInit:SPIx <- $r0
	.loc	3 253 5                 @ ../Libraries/STM32F4xx_StdPeriph_Driver/src/stm32f4xx_spi.c:253:5
	mov.w	r0, #8192
.Ltmp14:
	movs	r1, #1
	bl	RCC_APB2PeriphResetCmd
	.loc	3 255 5                 @ ../Libraries/STM32F4xx_StdPeriph_Driver/src/stm32f4xx_spi.c:255:5
	mov.w	r0, #8192
	b	.LBB0_13
.Ltmp15:
.LBB0_10:
	@DEBUG_VALUE: SPI_I2S_DeInit:SPIx <- $r0
	.loc	3 246 5                 @ ../Libraries/STM32F4xx_StdPeriph_Driver/src/stm32f4xx_spi.c:246:5
	mov.w	r0, #32768
.Ltmp16:
	movs	r1, #1
	bl	RCC_APB1PeriphResetCmd
	.loc	3 248 5                 @ ../Libraries/STM32F4xx_StdPeriph_Driver/src/stm32f4xx_spi.c:248:5
	mov.w	r0, #32768
.Ltmp17:
.LBB0_11:
	.loc	3 0 0 is_stmt 0         @ ../Libraries/STM32F4xx_StdPeriph_Driver/src/stm32f4xx_spi.c:0:0
	movs	r1, #0
	pop.w	{r7, lr}
	b	RCC_APB1PeriphResetCmd
.LBB0_12:
.Ltmp18:
	@DEBUG_VALUE: SPI_I2S_DeInit:SPIx <- $r0
	.loc	3 260 5 is_stmt 1       @ ../Libraries/STM32F4xx_StdPeriph_Driver/src/stm32f4xx_spi.c:260:5
	mov.w	r0, #1048576
.Ltmp19:
	movs	r1, #1
	bl	RCC_APB2PeriphResetCmd
	.loc	3 262 5                 @ ../Libraries/STM32F4xx_StdPeriph_Driver/src/stm32f4xx_spi.c:262:5
	mov.w	r0, #1048576
.Ltmp20:
.LBB0_13:
	.loc	3 0 0 is_stmt 0         @ ../Libraries/STM32F4xx_StdPeriph_Driver/src/stm32f4xx_spi.c:0:0
	movs	r1, #0
	pop.w	{r7, lr}
	b	RCC_APB2PeriphResetCmd
.Ltmp21:
.LBB0_14:
	@DEBUG_VALUE: SPI_I2S_DeInit:SPIx <- $r0
	.loc	3 274 1 is_stmt 1       @ ../Libraries/STM32F4xx_StdPeriph_Driver/src/stm32f4xx_spi.c:274:1
	pop	{r7, pc}
.Ltmp22:
.Lfunc_end0:
	.size	SPI_I2S_DeInit, .Lfunc_end0-SPI_I2S_DeInit
	.cfi_endproc
	.cantunwind
	.fnend
                                        @ -- End function
	.section	.text.SPI_Init,"ax",%progbits
	.hidden	SPI_Init                @ -- Begin function SPI_Init
	.globl	SPI_Init
	.p2align	1
	.type	SPI_Init,%function
	.code	16                      @ @SPI_Init
	.thumb_func
SPI_Init:
.Lfunc_begin1:
	.loc	3 285 0                 @ ../Libraries/STM32F4xx_StdPeriph_Driver/src/stm32f4xx_spi.c:285:0
	.fnstart
	.cfi_startproc
@ %bb.0:
	@DEBUG_VALUE: SPI_Init:SPIx <- $r0
	@DEBUG_VALUE: SPI_Init:SPIx <- $r0
	@DEBUG_VALUE: SPI_Init:SPI_InitStruct <- $r1
	@DEBUG_VALUE: SPI_Init:SPI_InitStruct <- $r1
	@DEBUG_VALUE: SPI_Init:tmpreg <- 0
	.loc	3 304 18 prologue_end   @ ../Libraries/STM32F4xx_StdPeriph_Driver/src/stm32f4xx_spi.c:304:18
	ldrh	r2, [r0]
.Ltmp23:
	@DEBUG_VALUE: SPI_Init:tmpreg <- $r2
	.loc	3 315 50                @ ../Libraries/STM32F4xx_StdPeriph_Driver/src/stm32f4xx_spi.c:315:50
	ldrh	r3, [r1]
	.loc	3 306 10                @ ../Libraries/STM32F4xx_StdPeriph_Driver/src/stm32f4xx_spi.c:306:10
	and	r2, r2, #12352
.Ltmp24:
	@DEBUG_VALUE: SPI_Init:tmpreg <- $r2
	.loc	3 315 64                @ ../Libraries/STM32F4xx_StdPeriph_Driver/src/stm32f4xx_spi.c:315:64
	orrs	r2, r3
.Ltmp25:
	.loc	3 315 82 is_stmt 0      @ ../Libraries/STM32F4xx_StdPeriph_Driver/src/stm32f4xx_spi.c:315:82
	ldrh	r3, [r1, #2]
	.loc	3 315 91                @ ../Libraries/STM32F4xx_StdPeriph_Driver/src/stm32f4xx_spi.c:315:91
	orrs	r2, r3
	.loc	3 316 35 is_stmt 1      @ ../Libraries/STM32F4xx_StdPeriph_Driver/src/stm32f4xx_spi.c:316:35
	ldrh	r3, [r1, #4]
	.loc	3 316 48 is_stmt 0      @ ../Libraries/STM32F4xx_StdPeriph_Driver/src/stm32f4xx_spi.c:316:48
	orrs	r2, r3
	.loc	3 316 66                @ ../Libraries/STM32F4xx_StdPeriph_Driver/src/stm32f4xx_spi.c:316:66
	ldrh	r3, [r1, #6]
	.loc	3 316 75                @ ../Libraries/STM32F4xx_StdPeriph_Driver/src/stm32f4xx_spi.c:316:75
	orrs	r2, r3
	.loc	3 317 35 is_stmt 1      @ ../Libraries/STM32F4xx_StdPeriph_Driver/src/stm32f4xx_spi.c:317:35
	ldrh	r3, [r1, #8]
	.loc	3 317 44 is_stmt 0      @ ../Libraries/STM32F4xx_StdPeriph_Driver/src/stm32f4xx_spi.c:317:44
	orrs	r2, r3
	.loc	3 317 62                @ ../Libraries/STM32F4xx_StdPeriph_Driver/src/stm32f4xx_spi.c:317:62
	ldrh	r3, [r1, #10]
	.loc	3 317 70                @ ../Libraries/STM32F4xx_StdPeriph_Driver/src/stm32f4xx_spi.c:317:70
	orrs	r2, r3
	.loc	3 318 35 is_stmt 1      @ ../Libraries/STM32F4xx_StdPeriph_Driver/src/stm32f4xx_spi.c:318:35
	ldrh	r3, [r1, #12]
	.loc	3 318 57 is_stmt 0      @ ../Libraries/STM32F4xx_StdPeriph_Driver/src/stm32f4xx_spi.c:318:57
	orrs	r2, r3
	.loc	3 318 75                @ ../Libraries/STM32F4xx_StdPeriph_Driver/src/stm32f4xx_spi.c:318:75
	ldrh	r3, [r1, #14]
	.loc	3 315 10 is_stmt 1      @ ../Libraries/STM32F4xx_StdPeriph_Driver/src/stm32f4xx_spi.c:315:10
	orrs	r2, r3
.Ltmp26:
	@DEBUG_VALUE: SPI_Init:tmpreg <- $r2
	.loc	3 320 13                @ ../Libraries/STM32F4xx_StdPeriph_Driver/src/stm32f4xx_spi.c:320:13
	strh	r2, [r0]
	.loc	3 323 17                @ ../Libraries/STM32F4xx_StdPeriph_Driver/src/stm32f4xx_spi.c:323:17
	ldrh	r2, [r0, #28]
.Ltmp27:
	bic	r2, r2, #2048
	strh	r2, [r0, #28]
	.loc	3 326 33                @ ../Libraries/STM32F4xx_StdPeriph_Driver/src/stm32f4xx_spi.c:326:33
	ldrh	r1, [r1, #16]
.Ltmp28:
	.loc	3 326 15 is_stmt 0      @ ../Libraries/STM32F4xx_StdPeriph_Driver/src/stm32f4xx_spi.c:326:15
	strh	r1, [r0, #16]
	.loc	3 327 1 is_stmt 1       @ ../Libraries/STM32F4xx_StdPeriph_Driver/src/stm32f4xx_spi.c:327:1
	bx	lr
.Ltmp29:
.Lfunc_end1:
	.size	SPI_Init, .Lfunc_end1-SPI_Init
	.cfi_endproc
	.cantunwind
	.fnend
                                        @ -- End function
	.section	.text.I2S_Init,"ax",%progbits
	.hidden	I2S_Init                @ -- Begin function I2S_Init
	.globl	I2S_Init
	.p2align	1
	.type	I2S_Init,%function
	.code	16                      @ @I2S_Init
	.thumb_func
I2S_Init:
.Lfunc_begin2:
	.loc	3 349 0                 @ ../Libraries/STM32F4xx_StdPeriph_Driver/src/stm32f4xx_spi.c:349:0
	.fnstart
	.cfi_startproc
@ %bb.0:
	.save	{r4, r5, r6, r7, r8, lr}
	push.w	{r4, r5, r6, r7, r8, lr}
	.cfi_def_cfa_offset 24
	.cfi_offset lr, -4
	.cfi_offset r8, -8
	.cfi_offset r7, -12
	.cfi_offset r6, -16
	.cfi_offset r5, -20
	.cfi_offset r4, -24
	@DEBUG_VALUE: I2S_Init:SPIx <- $r0
	@DEBUG_VALUE: I2S_Init:SPIx <- $r0
	@DEBUG_VALUE: I2S_Init:I2S_InitStruct <- $r1
	@DEBUG_VALUE: I2S_Init:I2S_InitStruct <- $r1
.Ltmp30:
	@DEBUG_VALUE: I2S_Init:tmpreg <- 0
	@DEBUG_VALUE: I2S_Init:i2sdiv <- 2
	@DEBUG_VALUE: I2S_Init:i2sodd <- 0
	@DEBUG_VALUE: I2S_Init:packetlength <- 1
	@DEBUG_VALUE: I2S_Init:tmp <- 0
	@DEBUG_VALUE: I2S_Init:i2sclk <- 0
	@DEBUG_VALUE: I2S_Init:pllm <- 0
	@DEBUG_VALUE: I2S_Init:plln <- 0
	@DEBUG_VALUE: I2S_Init:pllr <- 0
	.loc	3 367 17 prologue_end   @ ../Libraries/STM32F4xx_StdPeriph_Driver/src/stm32f4xx_spi.c:367:17
	ldrh	r2, [r0, #28]
	movw	r3, #61504
	ands	r2, r3
	strh	r2, [r0, #28]
	movs	r2, #2
	.loc	3 368 15                @ ../Libraries/STM32F4xx_StdPeriph_Driver/src/stm32f4xx_spi.c:368:15
	strh	r2, [r0, #32]
	.loc	3 371 18                @ ../Libraries/STM32F4xx_StdPeriph_Driver/src/stm32f4xx_spi.c:371:18
	ldrh.w	r12, [r0, #28]
.Ltmp31:
	.loc	3 374 22                @ ../Libraries/STM32F4xx_StdPeriph_Driver/src/stm32f4xx_spi.c:374:22
	ldr	r3, [r1, #8]
.Ltmp32:
	@DEBUG_VALUE: I2S_Init:tmpreg <- undef
	.loc	3 374 6 is_stmt 0       @ ../Libraries/STM32F4xx_StdPeriph_Driver/src/stm32f4xx_spi.c:374:6
	cmp	r3, #2
	bne	.LBB2_2
.Ltmp33:
@ %bb.1:
	@DEBUG_VALUE: I2S_Init:I2S_InitStruct <- $r1
	@DEBUG_VALUE: I2S_Init:SPIx <- $r0
	.loc	3 475 88 is_stmt 1      @ ../Libraries/STM32F4xx_StdPeriph_Driver/src/stm32f4xx_spi.c:475:88
	ldrh.w	lr, [r1, #4]
	.loc	3 471 93                @ ../Libraries/STM32F4xx_StdPeriph_Driver/src/stm32f4xx_spi.c:471:93
	ldrh	r2, [r1, #6]
	movs	r4, #0
	movs	r3, #2
	b	.LBB2_3
.Ltmp34:
.LBB2_2:
	@DEBUG_VALUE: I2S_Init:I2S_InitStruct <- $r1
	@DEBUG_VALUE: I2S_Init:SPIx <- $r0
	.loc	3 0 93 is_stmt 0        @ ../Libraries/STM32F4xx_StdPeriph_Driver/src/stm32f4xx_spi.c:0:93
	movw	r2, #14340
.Ltmp35:
	.loc	3 383 24 is_stmt 1      @ ../Libraries/STM32F4xx_StdPeriph_Driver/src/stm32f4xx_spi.c:383:24
	ldrh.w	lr, [r1, #4]
	movt	r2, #16386
.Ltmp36:
	.loc	3 410 15                @ ../Libraries/STM32F4xx_StdPeriph_Driver/src/stm32f4xx_spi.c:410:15
	ldr	r4, [r2, #4]
.Ltmp37:
	.loc	3 410 9 is_stmt 0       @ ../Libraries/STM32F4xx_StdPeriph_Driver/src/stm32f4xx_spi.c:410:9
	lsls	r4, r4, #8
.Ltmp38:
	.loc	3 412 17 is_stmt 1      @ ../Libraries/STM32F4xx_StdPeriph_Driver/src/stm32f4xx_spi.c:412:17
	ittt	mi
	ldrmi	r4, [r2, #4]
	bicmi	r4, r4, #8388608
	strmi	r4, [r2, #4]
	movs	r4, #6
.Ltmp39:
	.loc	3 438 8                 @ ../Libraries/STM32F4xx_StdPeriph_Driver/src/stm32f4xx_spi.c:438:8
	cmp.w	lr, #0
	it	eq
	moveq	r4, #5
	.loc	3 416 30                @ ../Libraries/STM32F4xx_StdPeriph_Driver/src/stm32f4xx_spi.c:416:30
	ldr.w	r5, [r2, #128]
	.loc	3 420 30                @ ../Libraries/STM32F4xx_StdPeriph_Driver/src/stm32f4xx_spi.c:420:30
	ldr.w	r8, [r2, #128]
	.loc	3 424 28                @ ../Libraries/STM32F4xx_StdPeriph_Driver/src/stm32f4xx_spi.c:424:28
	ldr	r7, [r2]
.Ltmp40:
	.loc	3 426 14                @ ../Libraries/STM32F4xx_StdPeriph_Driver/src/stm32f4xx_spi.c:426:14
	ldr	r6, [r2]
.Ltmp41:
	.loc	3 438 24                @ ../Libraries/STM32F4xx_StdPeriph_Driver/src/stm32f4xx_spi.c:438:24
	ldrh	r2, [r1, #6]
.Ltmp42:
	.loc	3 438 8 is_stmt 0       @ ../Libraries/STM32F4xx_StdPeriph_Driver/src/stm32f4xx_spi.c:438:8
	cmp.w	r2, #512
	it	eq
	moveq	r4, #8
	.loc	3 424 36 is_stmt 1      @ ../Libraries/STM32F4xx_StdPeriph_Driver/src/stm32f4xx_spi.c:424:36
	and	r7, r7, #63
.Ltmp43:
	@DEBUG_VALUE: I2S_Init:pllm <- $r7
	.loc	3 426 8                 @ ../Libraries/STM32F4xx_StdPeriph_Driver/src/stm32f4xx_spi.c:426:8
	lsls	r6, r6, #9
	movw	r6, #13824
	movt	r6, #366
	itt	pl
	movwpl	r6, #9216
	movtpl	r6, #244
	.loc	3 416 67                @ ../Libraries/STM32F4xx_StdPeriph_Driver/src/stm32f4xx_spi.c:416:67
	ubfx	r5, r5, #6, #9
.Ltmp44:
	@DEBUG_VALUE: I2S_Init:plln <- $r5
	.loc	3 0 0 is_stmt 0         @ ../Libraries/STM32F4xx_StdPeriph_Driver/src/stm32f4xx_spi.c:0:0
	udiv	r6, r6, r7
	muls	r5, r6, r5
.Ltmp45:
	.loc	3 420 67 is_stmt 1      @ ../Libraries/STM32F4xx_StdPeriph_Driver/src/stm32f4xx_spi.c:420:67
	ubfx	r6, r8, #28, #3
.Ltmp46:
	@DEBUG_VALUE: I2S_Init:pllr <- $r6
	.loc	3 0 0 is_stmt 0         @ ../Libraries/STM32F4xx_StdPeriph_Driver/src/stm32f4xx_spi.c:0:0
	udiv	r5, r5, r6
.Ltmp47:
	@DEBUG_VALUE: I2S_Init:i2sclk <- $r5
	mvn	r6, #1
.Ltmp48:
	.loc	3 438 8 is_stmt 1       @ ../Libraries/STM32F4xx_StdPeriph_Driver/src/stm32f4xx_spi.c:438:8
	lsr.w	r4, r5, r4
.Ltmp49:
	.loc	3 0 0 is_stmt 0         @ ../Libraries/STM32F4xx_StdPeriph_Driver/src/stm32f4xx_spi.c:0:0
	add.w	r4, r4, r4, lsl #2
	lsls	r4, r4, #1
	udiv	r3, r4, r3
.Ltmp50:
	@DEBUG_VALUE: I2S_Init:tmp <- [DW_OP_plus_uconst 5, DW_OP_constu 65534, DW_OP_and, DW_OP_stack_value] $r3
	movw	r4, #52429
.Ltmp51:
	.loc	3 450 15 is_stmt 1      @ ../Libraries/STM32F4xx_StdPeriph_Driver/src/stm32f4xx_spi.c:450:15
	adds	r3, #5
.Ltmp52:
	.loc	3 0 15 is_stmt 0        @ ../Libraries/STM32F4xx_StdPeriph_Driver/src/stm32f4xx_spi.c:0:15
	movt	r4, #52428
	.loc	3 450 15                @ ../Libraries/STM32F4xx_StdPeriph_Driver/src/stm32f4xx_spi.c:450:15
	uxth	r3, r3
	umull	r3, r4, r3, r4
.Ltmp53:
	@DEBUG_VALUE: I2S_Init:tmp <- undef
	.loc	3 453 14 is_stmt 1      @ ../Libraries/STM32F4xx_StdPeriph_Driver/src/stm32f4xx_spi.c:453:14
	ubfx	r5, r4, #3, #1
.Ltmp54:
	@DEBUG_VALUE: I2S_Init:i2sodd <- $r5
	.loc	3 456 30                @ ../Libraries/STM32F4xx_StdPeriph_Driver/src/stm32f4xx_spi.c:456:30
	rsb	r3, r5, r4, lsr #3
	.loc	3 456 40 is_stmt 0      @ ../Libraries/STM32F4xx_StdPeriph_Driver/src/stm32f4xx_spi.c:456:40
	lsrs	r4, r3, #1
	.loc	3 456 14                @ ../Libraries/STM32F4xx_StdPeriph_Driver/src/stm32f4xx_spi.c:456:14
	ubfx	r3, r3, #1, #16
.Ltmp55:
	.loc	3 463 20 is_stmt 1      @ ../Libraries/STM32F4xx_StdPeriph_Driver/src/stm32f4xx_spi.c:463:20
	uxtah	r4, r6, r4
.Ltmp56:
	@DEBUG_VALUE: I2S_Init:i2sdiv <- undef
	cmp	r4, #253
	lsl.w	r4, r5, #8
	it	hi
	movhi	r3, #2
	it	hi
	movhi	r4, #0
.Ltmp57:
.LBB2_3:
	@DEBUG_VALUE: I2S_Init:I2S_InitStruct <- $r1
	@DEBUG_VALUE: I2S_Init:SPIx <- $r0
	@DEBUG_VALUE: I2S_Init:i2sdiv <- $r3
	.loc	3 471 47                @ ../Libraries/STM32F4xx_StdPeriph_Driver/src/stm32f4xx_spi.c:471:47
	orrs	r3, r4
.Ltmp58:
	.loc	3 471 45 is_stmt 0      @ ../Libraries/STM32F4xx_StdPeriph_Driver/src/stm32f4xx_spi.c:471:45
	orrs	r2, r3
	.loc	3 471 15                @ ../Libraries/STM32F4xx_StdPeriph_Driver/src/stm32f4xx_spi.c:471:15
	strh	r2, [r0, #32]
	.loc	3 474 82 is_stmt 1      @ ../Libraries/STM32F4xx_StdPeriph_Driver/src/stm32f4xx_spi.c:474:82
	ldrh	r2, [r1]
	.loc	3 475 46                @ ../Libraries/STM32F4xx_StdPeriph_Driver/src/stm32f4xx_spi.c:475:46
	ldrh	r3, [r1, #2]
	.loc	3 476 45                @ ../Libraries/STM32F4xx_StdPeriph_Driver/src/stm32f4xx_spi.c:476:45
	ldrh	r1, [r1, #12]
.Ltmp59:
	.loc	3 475 59                @ ../Libraries/STM32F4xx_StdPeriph_Driver/src/stm32f4xx_spi.c:475:59
	orr.w	r2, r2, r12
	.loc	3 474 91                @ ../Libraries/STM32F4xx_StdPeriph_Driver/src/stm32f4xx_spi.c:474:91
	orrs	r2, r3
	.loc	3 474 53 is_stmt 0      @ ../Libraries/STM32F4xx_StdPeriph_Driver/src/stm32f4xx_spi.c:474:53
	orr.w	r2, r2, lr
	.loc	3 474 10                @ ../Libraries/STM32F4xx_StdPeriph_Driver/src/stm32f4xx_spi.c:474:10
	orrs	r1, r2
	orr	r1, r1, #2048
.Ltmp60:
	@DEBUG_VALUE: I2S_Init:tmpreg <- $r1
	.loc	3 479 17 is_stmt 1      @ ../Libraries/STM32F4xx_StdPeriph_Driver/src/stm32f4xx_spi.c:479:17
	strh	r1, [r0, #28]
	.loc	3 480 1                 @ ../Libraries/STM32F4xx_StdPeriph_Driver/src/stm32f4xx_spi.c:480:1
	pop.w	{r4, r5, r6, r7, r8, pc}
.Ltmp61:
.Lfunc_end2:
	.size	I2S_Init, .Lfunc_end2-I2S_Init
	.cfi_endproc
	.cantunwind
	.fnend
                                        @ -- End function
	.section	.text.SPI_StructInit,"ax",%progbits
	.hidden	SPI_StructInit          @ -- Begin function SPI_StructInit
	.globl	SPI_StructInit
	.p2align	1
	.type	SPI_StructInit,%function
	.code	16                      @ @SPI_StructInit
	.thumb_func
SPI_StructInit:
.Lfunc_begin3:
	.loc	3 488 0                 @ ../Libraries/STM32F4xx_StdPeriph_Driver/src/stm32f4xx_spi.c:488:0
	.fnstart
	.cfi_startproc
@ %bb.0:
	@DEBUG_VALUE: SPI_StructInit:SPI_InitStruct <- $r0
	movs	r1, #0
	@DEBUG_VALUE: SPI_StructInit:SPI_InitStruct <- $r0
.Ltmp62:
	.loc	3 493 28 prologue_end   @ ../Libraries/STM32F4xx_StdPeriph_Driver/src/stm32f4xx_spi.c:493:28
	str	r1, [r0, #12]
	str	r1, [r0, #8]
	str	r1, [r0, #4]
	str	r1, [r0]
	movs	r1, #7
	.loc	3 507 37                @ ../Libraries/STM32F4xx_StdPeriph_Driver/src/stm32f4xx_spi.c:507:37
	strh	r1, [r0, #16]
	.loc	3 508 1                 @ ../Libraries/STM32F4xx_StdPeriph_Driver/src/stm32f4xx_spi.c:508:1
	bx	lr
.Ltmp63:
.Lfunc_end3:
	.size	SPI_StructInit, .Lfunc_end3-SPI_StructInit
	.cfi_endproc
	.cantunwind
	.fnend
                                        @ -- End function
	.section	.text.I2S_StructInit,"ax",%progbits
	.hidden	I2S_StructInit          @ -- Begin function I2S_StructInit
	.globl	I2S_StructInit
	.p2align	1
	.type	I2S_StructInit,%function
	.code	16                      @ @I2S_StructInit
	.thumb_func
I2S_StructInit:
.Lfunc_begin4:
	.loc	3 516 0                 @ ../Libraries/STM32F4xx_StdPeriph_Driver/src/stm32f4xx_spi.c:516:0
	.fnstart
	.cfi_startproc
@ %bb.0:
	@DEBUG_VALUE: I2S_StructInit:I2S_InitStruct <- $r0
	movs	r1, #0
	@DEBUG_VALUE: I2S_StructInit:I2S_InitStruct <- $r0
	movs	r2, #2
.Ltmp64:
	.loc	3 534 28 prologue_end   @ ../Libraries/STM32F4xx_StdPeriph_Driver/src/stm32f4xx_spi.c:534:28
	strh	r1, [r0, #12]
	.loc	3 522 32                @ ../Libraries/STM32F4xx_StdPeriph_Driver/src/stm32f4xx_spi.c:522:32
	strd	r1, r1, [r0]
	.loc	3 531 33                @ ../Libraries/STM32F4xx_StdPeriph_Driver/src/stm32f4xx_spi.c:531:33
	str	r2, [r0, #8]
	.loc	3 535 1                 @ ../Libraries/STM32F4xx_StdPeriph_Driver/src/stm32f4xx_spi.c:535:1
	bx	lr
.Ltmp65:
.Lfunc_end4:
	.size	I2S_StructInit, .Lfunc_end4-I2S_StructInit
	.cfi_endproc
	.cantunwind
	.fnend
                                        @ -- End function
	.section	.text.SPI_Cmd,"ax",%progbits
	.hidden	SPI_Cmd                 @ -- Begin function SPI_Cmd
	.globl	SPI_Cmd
	.p2align	1
	.type	SPI_Cmd,%function
	.code	16                      @ @SPI_Cmd
	.thumb_func
SPI_Cmd:
.Lfunc_begin5:
	.loc	3 545 0                 @ ../Libraries/STM32F4xx_StdPeriph_Driver/src/stm32f4xx_spi.c:545:0
	.fnstart
	.cfi_startproc
@ %bb.0:
	@DEBUG_VALUE: SPI_Cmd:SPIx <- $r0
	@DEBUG_VALUE: SPI_Cmd:SPIx <- $r0
	@DEBUG_VALUE: SPI_Cmd:NewState <- $r1
	@DEBUG_VALUE: SPI_Cmd:NewState <- $r1
	.loc	3 0 0 prologue_end      @ ../Libraries/STM32F4xx_StdPeriph_Driver/src/stm32f4xx_spi.c:0:0
	ldrh	r2, [r0]
.Ltmp66:
	.loc	3 549 7                 @ ../Libraries/STM32F4xx_StdPeriph_Driver/src/stm32f4xx_spi.c:549:7
	cmp	r1, #0
	orr	r3, r2, #64
	it	eq
	biceq	r3, r2, #64
.Ltmp67:
	.loc	3 0 0 is_stmt 0         @ ../Libraries/STM32F4xx_StdPeriph_Driver/src/stm32f4xx_spi.c:0:0
	strh	r3, [r0]
.Ltmp68:
	.loc	3 559 1 is_stmt 1       @ ../Libraries/STM32F4xx_StdPeriph_Driver/src/stm32f4xx_spi.c:559:1
	bx	lr
.Ltmp69:
.Lfunc_end5:
	.size	SPI_Cmd, .Lfunc_end5-SPI_Cmd
	.cfi_endproc
	.cantunwind
	.fnend
                                        @ -- End function
	.section	.text.I2S_Cmd,"ax",%progbits
	.hidden	I2S_Cmd                 @ -- Begin function I2S_Cmd
	.globl	I2S_Cmd
	.p2align	1
	.type	I2S_Cmd,%function
	.code	16                      @ @I2S_Cmd
	.thumb_func
I2S_Cmd:
.Lfunc_begin6:
	.loc	3 570 0                 @ ../Libraries/STM32F4xx_StdPeriph_Driver/src/stm32f4xx_spi.c:570:0
	.fnstart
	.cfi_startproc
@ %bb.0:
	@DEBUG_VALUE: I2S_Cmd:SPIx <- $r0
	@DEBUG_VALUE: I2S_Cmd:SPIx <- $r0
	@DEBUG_VALUE: I2S_Cmd:NewState <- $r1
	@DEBUG_VALUE: I2S_Cmd:NewState <- $r1
	.loc	3 0 0 prologue_end      @ ../Libraries/STM32F4xx_StdPeriph_Driver/src/stm32f4xx_spi.c:0:0
	ldrh	r2, [r0, #28]
.Ltmp70:
	.loc	3 575 7                 @ ../Libraries/STM32F4xx_StdPeriph_Driver/src/stm32f4xx_spi.c:575:7
	cmp	r1, #0
	orr	r3, r2, #1024
	it	eq
	biceq	r3, r2, #1024
.Ltmp71:
	.loc	3 0 0 is_stmt 0         @ ../Libraries/STM32F4xx_StdPeriph_Driver/src/stm32f4xx_spi.c:0:0
	strh	r3, [r0, #28]
.Ltmp72:
	.loc	3 585 1 is_stmt 1       @ ../Libraries/STM32F4xx_StdPeriph_Driver/src/stm32f4xx_spi.c:585:1
	bx	lr
.Ltmp73:
.Lfunc_end6:
	.size	I2S_Cmd, .Lfunc_end6-I2S_Cmd
	.cfi_endproc
	.cantunwind
	.fnend
                                        @ -- End function
	.section	.text.SPI_DataSizeConfig,"ax",%progbits
	.hidden	SPI_DataSizeConfig      @ -- Begin function SPI_DataSizeConfig
	.globl	SPI_DataSizeConfig
	.p2align	1
	.type	SPI_DataSizeConfig,%function
	.code	16                      @ @SPI_DataSizeConfig
	.thumb_func
SPI_DataSizeConfig:
.Lfunc_begin7:
	.loc	3 597 0                 @ ../Libraries/STM32F4xx_StdPeriph_Driver/src/stm32f4xx_spi.c:597:0
	.fnstart
	.cfi_startproc
@ %bb.0:
	@DEBUG_VALUE: SPI_DataSizeConfig:SPIx <- $r0
	@DEBUG_VALUE: SPI_DataSizeConfig:SPIx <- $r0
	@DEBUG_VALUE: SPI_DataSizeConfig:SPI_DataSize <- $r1
	@DEBUG_VALUE: SPI_DataSizeConfig:SPI_DataSize <- $r1
	.loc	3 602 13 prologue_end   @ ../Libraries/STM32F4xx_StdPeriph_Driver/src/stm32f4xx_spi.c:602:13
	ldrh	r2, [r0]
	bic	r2, r2, #2048
	strh	r2, [r0]
	.loc	3 604 13                @ ../Libraries/STM32F4xx_StdPeriph_Driver/src/stm32f4xx_spi.c:604:13
	ldrh	r2, [r0]
	orrs	r1, r2
.Ltmp74:
	strh	r1, [r0]
	.loc	3 605 1                 @ ../Libraries/STM32F4xx_StdPeriph_Driver/src/stm32f4xx_spi.c:605:1
	bx	lr
.Ltmp75:
.Lfunc_end7:
	.size	SPI_DataSizeConfig, .Lfunc_end7-SPI_DataSizeConfig
	.cfi_endproc
	.cantunwind
	.fnend
                                        @ -- End function
	.section	.text.SPI_BiDirectionalLineConfig,"ax",%progbits
	.hidden	SPI_BiDirectionalLineConfig @ -- Begin function SPI_BiDirectionalLineConfig
	.globl	SPI_BiDirectionalLineConfig
	.p2align	1
	.type	SPI_BiDirectionalLineConfig,%function
	.code	16                      @ @SPI_BiDirectionalLineConfig
	.thumb_func
SPI_BiDirectionalLineConfig:
.Lfunc_begin8:
	.loc	3 617 0                 @ ../Libraries/STM32F4xx_StdPeriph_Driver/src/stm32f4xx_spi.c:617:0
	.fnstart
	.cfi_startproc
@ %bb.0:
	@DEBUG_VALUE: SPI_BiDirectionalLineConfig:SPIx <- $r0
	@DEBUG_VALUE: SPI_BiDirectionalLineConfig:SPIx <- $r0
	@DEBUG_VALUE: SPI_BiDirectionalLineConfig:SPI_Direction <- $r1
	@DEBUG_VALUE: SPI_BiDirectionalLineConfig:SPI_Direction <- $r1
	.loc	3 0 0 prologue_end      @ ../Libraries/STM32F4xx_StdPeriph_Driver/src/stm32f4xx_spi.c:0:0
	ldrh	r2, [r0]
.Ltmp76:
	.loc	3 621 7                 @ ../Libraries/STM32F4xx_StdPeriph_Driver/src/stm32f4xx_spi.c:621:7
	cmp.w	r1, #16384
	bic	r3, r2, #16384
	it	eq
	orreq	r3, r2, #16384
.Ltmp77:
	.loc	3 0 0 is_stmt 0         @ ../Libraries/STM32F4xx_StdPeriph_Driver/src/stm32f4xx_spi.c:0:0
	strh	r3, [r0]
.Ltmp78:
	.loc	3 631 1 is_stmt 1       @ ../Libraries/STM32F4xx_StdPeriph_Driver/src/stm32f4xx_spi.c:631:1
	bx	lr
.Ltmp79:
.Lfunc_end8:
	.size	SPI_BiDirectionalLineConfig, .Lfunc_end8-SPI_BiDirectionalLineConfig
	.cfi_endproc
	.cantunwind
	.fnend
                                        @ -- End function
	.section	.text.SPI_NSSInternalSoftwareConfig,"ax",%progbits
	.hidden	SPI_NSSInternalSoftwareConfig @ -- Begin function SPI_NSSInternalSoftwareConfig
	.globl	SPI_NSSInternalSoftwareConfig
	.p2align	1
	.type	SPI_NSSInternalSoftwareConfig,%function
	.code	16                      @ @SPI_NSSInternalSoftwareConfig
	.thumb_func
SPI_NSSInternalSoftwareConfig:
.Lfunc_begin9:
	.loc	3 643 0                 @ ../Libraries/STM32F4xx_StdPeriph_Driver/src/stm32f4xx_spi.c:643:0
	.fnstart
	.cfi_startproc
@ %bb.0:
	@DEBUG_VALUE: SPI_NSSInternalSoftwareConfig:SPIx <- $r0
	@DEBUG_VALUE: SPI_NSSInternalSoftwareConfig:SPIx <- $r0
	@DEBUG_VALUE: SPI_NSSInternalSoftwareConfig:SPI_NSSInternalSoft <- $r1
	@DEBUG_VALUE: SPI_NSSInternalSoftwareConfig:SPI_NSSInternalSoft <- $r1
	.loc	3 0 0 prologue_end      @ ../Libraries/STM32F4xx_StdPeriph_Driver/src/stm32f4xx_spi.c:0:0
	ldrh.w	r12, [r0]
	movw	r2, #65279
.Ltmp80:
	.loc	3 647 7                 @ ../Libraries/STM32F4xx_StdPeriph_Driver/src/stm32f4xx_spi.c:647:7
	cmp	r1, r2
	orr	r3, r12, #256
	it	eq
	biceq	r3, r12, #256
.Ltmp81:
	.loc	3 0 0 is_stmt 0         @ ../Libraries/STM32F4xx_StdPeriph_Driver/src/stm32f4xx_spi.c:0:0
	strh	r3, [r0]
.Ltmp82:
	.loc	3 657 1 is_stmt 1       @ ../Libraries/STM32F4xx_StdPeriph_Driver/src/stm32f4xx_spi.c:657:1
	bx	lr
.Ltmp83:
.Lfunc_end9:
	.size	SPI_NSSInternalSoftwareConfig, .Lfunc_end9-SPI_NSSInternalSoftwareConfig
	.cfi_endproc
	.cantunwind
	.fnend
                                        @ -- End function
	.section	.text.SPI_SSOutputCmd,"ax",%progbits
	.hidden	SPI_SSOutputCmd         @ -- Begin function SPI_SSOutputCmd
	.globl	SPI_SSOutputCmd
	.p2align	1
	.type	SPI_SSOutputCmd,%function
	.code	16                      @ @SPI_SSOutputCmd
	.thumb_func
SPI_SSOutputCmd:
.Lfunc_begin10:
	.loc	3 667 0                 @ ../Libraries/STM32F4xx_StdPeriph_Driver/src/stm32f4xx_spi.c:667:0
	.fnstart
	.cfi_startproc
@ %bb.0:
	@DEBUG_VALUE: SPI_SSOutputCmd:SPIx <- $r0
	@DEBUG_VALUE: SPI_SSOutputCmd:SPIx <- $r0
	@DEBUG_VALUE: SPI_SSOutputCmd:NewState <- $r1
	@DEBUG_VALUE: SPI_SSOutputCmd:NewState <- $r1
	.loc	3 0 0 prologue_end      @ ../Libraries/STM32F4xx_StdPeriph_Driver/src/stm32f4xx_spi.c:0:0
	ldrh	r2, [r0, #4]
.Ltmp84:
	.loc	3 671 7                 @ ../Libraries/STM32F4xx_StdPeriph_Driver/src/stm32f4xx_spi.c:671:7
	cmp	r1, #0
	orr	r3, r2, #4
	it	eq
	biceq	r3, r2, #4
.Ltmp85:
	.loc	3 0 0 is_stmt 0         @ ../Libraries/STM32F4xx_StdPeriph_Driver/src/stm32f4xx_spi.c:0:0
	strh	r3, [r0, #4]
.Ltmp86:
	.loc	3 681 1 is_stmt 1       @ ../Libraries/STM32F4xx_StdPeriph_Driver/src/stm32f4xx_spi.c:681:1
	bx	lr
.Ltmp87:
.Lfunc_end10:
	.size	SPI_SSOutputCmd, .Lfunc_end10-SPI_SSOutputCmd
	.cfi_endproc
	.cantunwind
	.fnend
                                        @ -- End function
	.section	.text.SPI_TIModeCmd,"ax",%progbits
	.hidden	SPI_TIModeCmd           @ -- Begin function SPI_TIModeCmd
	.globl	SPI_TIModeCmd
	.p2align	1
	.type	SPI_TIModeCmd,%function
	.code	16                      @ @SPI_TIModeCmd
	.thumb_func
SPI_TIModeCmd:
.Lfunc_begin11:
	.loc	3 698 0                 @ ../Libraries/STM32F4xx_StdPeriph_Driver/src/stm32f4xx_spi.c:698:0
	.fnstart
	.cfi_startproc
@ %bb.0:
	@DEBUG_VALUE: SPI_TIModeCmd:SPIx <- $r0
	@DEBUG_VALUE: SPI_TIModeCmd:SPIx <- $r0
	@DEBUG_VALUE: SPI_TIModeCmd:NewState <- $r1
	@DEBUG_VALUE: SPI_TIModeCmd:NewState <- $r1
	.loc	3 0 0 prologue_end      @ ../Libraries/STM32F4xx_StdPeriph_Driver/src/stm32f4xx_spi.c:0:0
	ldrh	r2, [r0, #4]
.Ltmp88:
	.loc	3 703 7                 @ ../Libraries/STM32F4xx_StdPeriph_Driver/src/stm32f4xx_spi.c:703:7
	cmp	r1, #0
	orr	r3, r2, #16
	it	eq
	biceq	r3, r2, #16
.Ltmp89:
	.loc	3 0 0 is_stmt 0         @ ../Libraries/STM32F4xx_StdPeriph_Driver/src/stm32f4xx_spi.c:0:0
	strh	r3, [r0, #4]
.Ltmp90:
	.loc	3 713 1 is_stmt 1       @ ../Libraries/STM32F4xx_StdPeriph_Driver/src/stm32f4xx_spi.c:713:1
	bx	lr
.Ltmp91:
.Lfunc_end11:
	.size	SPI_TIModeCmd, .Lfunc_end11-SPI_TIModeCmd
	.cfi_endproc
	.cantunwind
	.fnend
                                        @ -- End function
	.section	.text.I2S_FullDuplexConfig,"ax",%progbits
	.hidden	I2S_FullDuplexConfig    @ -- Begin function I2S_FullDuplexConfig
	.globl	I2S_FullDuplexConfig
	.p2align	1
	.type	I2S_FullDuplexConfig,%function
	.code	16                      @ @I2S_FullDuplexConfig
	.thumb_func
I2S_FullDuplexConfig:
.Lfunc_begin12:
	.loc	3 735 0                 @ ../Libraries/STM32F4xx_StdPeriph_Driver/src/stm32f4xx_spi.c:735:0
	.fnstart
	.cfi_startproc
@ %bb.0:
	@DEBUG_VALUE: I2S_FullDuplexConfig:I2Sxext <- $r0
	@DEBUG_VALUE: I2S_FullDuplexConfig:I2Sxext <- $r0
	@DEBUG_VALUE: I2S_FullDuplexConfig:I2S_InitStruct <- $r1
	@DEBUG_VALUE: I2S_FullDuplexConfig:I2S_InitStruct <- $r1
	@DEBUG_VALUE: I2S_FullDuplexConfig:tmpreg <- 0
	@DEBUG_VALUE: I2S_FullDuplexConfig:tmp <- 0
	.loc	3 747 20 prologue_end   @ ../Libraries/STM32F4xx_StdPeriph_Driver/src/stm32f4xx_spi.c:747:20
	ldrh	r2, [r0, #28]
	movw	r3, #61504
	ands	r2, r3
	mov.w	r3, #256
	strh	r2, [r0, #28]
	movs	r2, #2
	.loc	3 748 18                @ ../Libraries/STM32F4xx_StdPeriph_Driver/src/stm32f4xx_spi.c:748:18
	strh	r2, [r0, #32]
	.loc	3 751 21                @ ../Libraries/STM32F4xx_StdPeriph_Driver/src/stm32f4xx_spi.c:751:21
	ldrh.w	r12, [r0, #28]
.Ltmp92:
	@DEBUG_VALUE: I2S_FullDuplexConfig:tmpreg <- undef
	.loc	3 754 24                @ ../Libraries/STM32F4xx_StdPeriph_Driver/src/stm32f4xx_spi.c:754:24
	ldrh	r2, [r1]
	.loc	3 754 55 is_stmt 0      @ ../Libraries/STM32F4xx_StdPeriph_Driver/src/stm32f4xx_spi.c:754:55
	cbz	r2, .LBB12_3
.Ltmp93:
@ %bb.1:
	@DEBUG_VALUE: I2S_FullDuplexConfig:I2S_InitStruct <- $r1
	@DEBUG_VALUE: I2S_FullDuplexConfig:I2Sxext <- $r0
	cmp.w	r2, #512
	beq	.LBB12_3
.Ltmp94:
@ %bb.2:
	@DEBUG_VALUE: I2S_FullDuplexConfig:I2S_InitStruct <- $r1
	@DEBUG_VALUE: I2S_FullDuplexConfig:I2Sxext <- $r0
	.loc	3 0 55                  @ ../Libraries/STM32F4xx_StdPeriph_Driver/src/stm32f4xx_spi.c:0:55
	movs	r3, #0
	.loc	3 754 55                @ ../Libraries/STM32F4xx_StdPeriph_Driver/src/stm32f4xx_spi.c:754:55
	cmp.w	r2, #768
.Ltmp95:
.LBB12_3:
	@DEBUG_VALUE: I2S_FullDuplexConfig:I2S_InitStruct <- $r1
	@DEBUG_VALUE: I2S_FullDuplexConfig:I2Sxext <- $r0
	.loc	3 769 59 is_stmt 1      @ ../Libraries/STM32F4xx_StdPeriph_Driver/src/stm32f4xx_spi.c:769:59
	orr.w	r2, r12, r3
	.loc	3 769 46 is_stmt 0      @ ../Libraries/STM32F4xx_StdPeriph_Driver/src/stm32f4xx_spi.c:769:46
	ldrh	r3, [r1, #2]
	.loc	3 768 70 is_stmt 1      @ ../Libraries/STM32F4xx_StdPeriph_Driver/src/stm32f4xx_spi.c:768:70
	orrs	r2, r3
	.loc	3 769 88                @ ../Libraries/STM32F4xx_StdPeriph_Driver/src/stm32f4xx_spi.c:769:88
	ldrh	r3, [r1, #4]
	.loc	3 770 45                @ ../Libraries/STM32F4xx_StdPeriph_Driver/src/stm32f4xx_spi.c:770:45
	ldrh	r1, [r1, #12]
.Ltmp96:
	.loc	3 768 53                @ ../Libraries/STM32F4xx_StdPeriph_Driver/src/stm32f4xx_spi.c:768:53
	orrs	r2, r3
	.loc	3 768 10 is_stmt 0      @ ../Libraries/STM32F4xx_StdPeriph_Driver/src/stm32f4xx_spi.c:768:10
	orrs	r1, r2
	orr	r1, r1, #2048
.Ltmp97:
	@DEBUG_VALUE: I2S_FullDuplexConfig:tmpreg <- $r1
	.loc	3 773 20 is_stmt 1      @ ../Libraries/STM32F4xx_StdPeriph_Driver/src/stm32f4xx_spi.c:773:20
	strh	r1, [r0, #28]
	.loc	3 774 1                 @ ../Libraries/STM32F4xx_StdPeriph_Driver/src/stm32f4xx_spi.c:774:1
	bx	lr
.Ltmp98:
.Lfunc_end12:
	.size	I2S_FullDuplexConfig, .Lfunc_end12-I2S_FullDuplexConfig
	.cfi_endproc
	.cantunwind
	.fnend
                                        @ -- End function
	.section	.text.SPI_I2S_ReceiveData,"ax",%progbits
	.hidden	SPI_I2S_ReceiveData     @ -- Begin function SPI_I2S_ReceiveData
	.globl	SPI_I2S_ReceiveData
	.p2align	1
	.type	SPI_I2S_ReceiveData,%function
	.code	16                      @ @SPI_I2S_ReceiveData
	.thumb_func
SPI_I2S_ReceiveData:
.Lfunc_begin13:
	.loc	3 809 0                 @ ../Libraries/STM32F4xx_StdPeriph_Driver/src/stm32f4xx_spi.c:809:0
	.fnstart
	.cfi_startproc
@ %bb.0:
	@DEBUG_VALUE: SPI_I2S_ReceiveData:SPIx <- $r0
	@DEBUG_VALUE: SPI_I2S_ReceiveData:SPIx <- $r0
	.loc	3 814 16 prologue_end   @ ../Libraries/STM32F4xx_StdPeriph_Driver/src/stm32f4xx_spi.c:814:16
	ldrh	r0, [r0, #12]
.Ltmp99:
	.loc	3 814 3 is_stmt 0       @ ../Libraries/STM32F4xx_StdPeriph_Driver/src/stm32f4xx_spi.c:814:3
	bx	lr
.Ltmp100:
.Lfunc_end13:
	.size	SPI_I2S_ReceiveData, .Lfunc_end13-SPI_I2S_ReceiveData
	.cfi_endproc
	.cantunwind
	.fnend
                                        @ -- End function
	.section	.text.SPI_I2S_SendData,"ax",%progbits
	.hidden	SPI_I2S_SendData        @ -- Begin function SPI_I2S_SendData
	.globl	SPI_I2S_SendData
	.p2align	1
	.type	SPI_I2S_SendData,%function
	.code	16                      @ @SPI_I2S_SendData
	.thumb_func
SPI_I2S_SendData:
.Lfunc_begin14:
	.loc	3 825 0 is_stmt 1       @ ../Libraries/STM32F4xx_StdPeriph_Driver/src/stm32f4xx_spi.c:825:0
	.fnstart
	.cfi_startproc
@ %bb.0:
	@DEBUG_VALUE: SPI_I2S_SendData:SPIx <- $r0
	@DEBUG_VALUE: SPI_I2S_SendData:SPIx <- $r0
	@DEBUG_VALUE: SPI_I2S_SendData:Data <- $r1
	@DEBUG_VALUE: SPI_I2S_SendData:Data <- $r1
	.loc	3 830 12 prologue_end   @ ../Libraries/STM32F4xx_StdPeriph_Driver/src/stm32f4xx_spi.c:830:12
	strh	r1, [r0, #12]
	.loc	3 831 1                 @ ../Libraries/STM32F4xx_StdPeriph_Driver/src/stm32f4xx_spi.c:831:1
	bx	lr
.Ltmp101:
.Lfunc_end14:
	.size	SPI_I2S_SendData, .Lfunc_end14-SPI_I2S_SendData
	.cfi_endproc
	.cantunwind
	.fnend
                                        @ -- End function
	.section	.text.SPI_CalculateCRC,"ax",%progbits
	.hidden	SPI_CalculateCRC        @ -- Begin function SPI_CalculateCRC
	.globl	SPI_CalculateCRC
	.p2align	1
	.type	SPI_CalculateCRC,%function
	.code	16                      @ @SPI_CalculateCRC
	.thumb_func
SPI_CalculateCRC:
.Lfunc_begin15:
	.loc	3 915 0                 @ ../Libraries/STM32F4xx_StdPeriph_Driver/src/stm32f4xx_spi.c:915:0
	.fnstart
	.cfi_startproc
@ %bb.0:
	@DEBUG_VALUE: SPI_CalculateCRC:SPIx <- $r0
	@DEBUG_VALUE: SPI_CalculateCRC:SPIx <- $r0
	@DEBUG_VALUE: SPI_CalculateCRC:NewState <- $r1
	@DEBUG_VALUE: SPI_CalculateCRC:NewState <- $r1
	.loc	3 0 0 prologue_end      @ ../Libraries/STM32F4xx_StdPeriph_Driver/src/stm32f4xx_spi.c:0:0
	ldrh	r2, [r0]
.Ltmp102:
	.loc	3 919 7                 @ ../Libraries/STM32F4xx_StdPeriph_Driver/src/stm32f4xx_spi.c:919:7
	cmp	r1, #0
	orr	r3, r2, #8192
	it	eq
	biceq	r3, r2, #8192
.Ltmp103:
	.loc	3 0 0 is_stmt 0         @ ../Libraries/STM32F4xx_StdPeriph_Driver/src/stm32f4xx_spi.c:0:0
	strh	r3, [r0]
.Ltmp104:
	.loc	3 929 1 is_stmt 1       @ ../Libraries/STM32F4xx_StdPeriph_Driver/src/stm32f4xx_spi.c:929:1
	bx	lr
.Ltmp105:
.Lfunc_end15:
	.size	SPI_CalculateCRC, .Lfunc_end15-SPI_CalculateCRC
	.cfi_endproc
	.cantunwind
	.fnend
                                        @ -- End function
	.section	.text.SPI_TransmitCRC,"ax",%progbits
	.hidden	SPI_TransmitCRC         @ -- Begin function SPI_TransmitCRC
	.globl	SPI_TransmitCRC
	.p2align	1
	.type	SPI_TransmitCRC,%function
	.code	16                      @ @SPI_TransmitCRC
	.thumb_func
SPI_TransmitCRC:
.Lfunc_begin16:
	.loc	3 937 0                 @ ../Libraries/STM32F4xx_StdPeriph_Driver/src/stm32f4xx_spi.c:937:0
	.fnstart
	.cfi_startproc
@ %bb.0:
	@DEBUG_VALUE: SPI_TransmitCRC:SPIx <- $r0
	@DEBUG_VALUE: SPI_TransmitCRC:SPIx <- $r0
	.loc	3 942 13 prologue_end   @ ../Libraries/STM32F4xx_StdPeriph_Driver/src/stm32f4xx_spi.c:942:13
	ldrh	r1, [r0]
	orr	r1, r1, #4096
	strh	r1, [r0]
	.loc	3 943 1                 @ ../Libraries/STM32F4xx_StdPeriph_Driver/src/stm32f4xx_spi.c:943:1
	bx	lr
.Ltmp106:
.Lfunc_end16:
	.size	SPI_TransmitCRC, .Lfunc_end16-SPI_TransmitCRC
	.cfi_endproc
	.cantunwind
	.fnend
                                        @ -- End function
	.section	.text.SPI_GetCRC,"ax",%progbits
	.hidden	SPI_GetCRC              @ -- Begin function SPI_GetCRC
	.globl	SPI_GetCRC
	.p2align	1
	.type	SPI_GetCRC,%function
	.code	16                      @ @SPI_GetCRC
	.thumb_func
SPI_GetCRC:
.Lfunc_begin17:
	.loc	3 955 0                 @ ../Libraries/STM32F4xx_StdPeriph_Driver/src/stm32f4xx_spi.c:955:0
	.fnstart
	.cfi_startproc
@ %bb.0:
	@DEBUG_VALUE: SPI_GetCRC:SPIx <- $r0
	@DEBUG_VALUE: SPI_GetCRC:SPI_CRC <- $r1
	movs	r2, #24
.Ltmp107:
	@DEBUG_VALUE: SPI_GetCRC:crcreg <- 0
	@DEBUG_VALUE: SPI_GetCRC:SPI_CRC <- $r1
	@DEBUG_VALUE: SPI_GetCRC:SPIx <- $r0
	.loc	3 960 7 prologue_end    @ ../Libraries/STM32F4xx_StdPeriph_Driver/src/stm32f4xx_spi.c:960:7
	cmp	r1, #1
	it	eq
	moveq	r2, #20
.Ltmp108:
	.loc	3 0 0 is_stmt 0         @ ../Libraries/STM32F4xx_StdPeriph_Driver/src/stm32f4xx_spi.c:0:0
	ldrh	r0, [r0, r2]
.Ltmp109:
	@DEBUG_VALUE: SPI_GetCRC:crcreg <- undef
	.loc	3 971 3 is_stmt 1       @ ../Libraries/STM32F4xx_StdPeriph_Driver/src/stm32f4xx_spi.c:971:3
	bx	lr
.Ltmp110:
.Lfunc_end17:
	.size	SPI_GetCRC, .Lfunc_end17-SPI_GetCRC
	.cfi_endproc
	.cantunwind
	.fnend
                                        @ -- End function
	.section	.text.SPI_GetCRCPolynomial,"ax",%progbits
	.hidden	SPI_GetCRCPolynomial    @ -- Begin function SPI_GetCRCPolynomial
	.globl	SPI_GetCRCPolynomial
	.p2align	1
	.type	SPI_GetCRCPolynomial,%function
	.code	16                      @ @SPI_GetCRCPolynomial
	.thumb_func
SPI_GetCRCPolynomial:
.Lfunc_begin18:
	.loc	3 980 0                 @ ../Libraries/STM32F4xx_StdPeriph_Driver/src/stm32f4xx_spi.c:980:0
	.fnstart
	.cfi_startproc
@ %bb.0:
	@DEBUG_VALUE: SPI_GetCRCPolynomial:SPIx <- $r0
	@DEBUG_VALUE: SPI_GetCRCPolynomial:SPIx <- $r0
	.loc	3 985 16 prologue_end   @ ../Libraries/STM32F4xx_StdPeriph_Driver/src/stm32f4xx_spi.c:985:16
	ldrh	r0, [r0, #16]
.Ltmp111:
	.loc	3 985 3 is_stmt 0       @ ../Libraries/STM32F4xx_StdPeriph_Driver/src/stm32f4xx_spi.c:985:3
	bx	lr
.Ltmp112:
.Lfunc_end18:
	.size	SPI_GetCRCPolynomial, .Lfunc_end18-SPI_GetCRCPolynomial
	.cfi_endproc
	.cantunwind
	.fnend
                                        @ -- End function
	.section	.text.SPI_I2S_DMACmd,"ax",%progbits
	.hidden	SPI_I2S_DMACmd          @ -- Begin function SPI_I2S_DMACmd
	.globl	SPI_I2S_DMACmd
	.p2align	1
	.type	SPI_I2S_DMACmd,%function
	.code	16                      @ @SPI_I2S_DMACmd
	.thumb_func
SPI_I2S_DMACmd:
.Lfunc_begin19:
	.loc	3 1017 0 is_stmt 1      @ ../Libraries/STM32F4xx_StdPeriph_Driver/src/stm32f4xx_spi.c:1017:0
	.fnstart
	.cfi_startproc
@ %bb.0:
	@DEBUG_VALUE: SPI_I2S_DMACmd:SPIx <- $r0
	@DEBUG_VALUE: SPI_I2S_DMACmd:SPIx <- $r0
	@DEBUG_VALUE: SPI_I2S_DMACmd:SPI_I2S_DMAReq <- $r1
	@DEBUG_VALUE: SPI_I2S_DMACmd:SPI_I2S_DMAReq <- $r1
	@DEBUG_VALUE: SPI_I2S_DMACmd:NewState <- $r2
	@DEBUG_VALUE: SPI_I2S_DMACmd:NewState <- $r2
	.loc	3 1023 7 prologue_end   @ ../Libraries/STM32F4xx_StdPeriph_Driver/src/stm32f4xx_spi.c:1023:7
	cmp	r2, #0
.Ltmp113:
	.loc	3 1031 15               @ ../Libraries/STM32F4xx_StdPeriph_Driver/src/stm32f4xx_spi.c:1031:15
	ldrh	r2, [r0, #4]
.Ltmp114:
	ite	eq
	biceq.w	r1, r2, r1
.Ltmp115:
	.loc	3 1026 15               @ ../Libraries/STM32F4xx_StdPeriph_Driver/src/stm32f4xx_spi.c:1026:15
	orrne	r1, r2
.Ltmp116:
	.loc	3 0 0 is_stmt 0         @ ../Libraries/STM32F4xx_StdPeriph_Driver/src/stm32f4xx_spi.c:0:0
	strh	r1, [r0, #4]
.Ltmp117:
	.loc	3 1033 1 is_stmt 1      @ ../Libraries/STM32F4xx_StdPeriph_Driver/src/stm32f4xx_spi.c:1033:1
	bx	lr
.Ltmp118:
.Lfunc_end19:
	.size	SPI_I2S_DMACmd, .Lfunc_end19-SPI_I2S_DMACmd
	.cfi_endproc
	.cantunwind
	.fnend
                                        @ -- End function
	.section	.text.SPI_I2S_ITConfig,"ax",%progbits
	.hidden	SPI_I2S_ITConfig        @ -- Begin function SPI_I2S_ITConfig
	.globl	SPI_I2S_ITConfig
	.p2align	1
	.type	SPI_I2S_ITConfig,%function
	.code	16                      @ @SPI_I2S_ITConfig
	.thumb_func
SPI_I2S_ITConfig:
.Lfunc_begin20:
	.loc	3 1125 0                @ ../Libraries/STM32F4xx_StdPeriph_Driver/src/stm32f4xx_spi.c:1125:0
	.fnstart
	.cfi_startproc
@ %bb.0:
	@DEBUG_VALUE: SPI_I2S_ITConfig:SPIx <- $r0
	@DEBUG_VALUE: SPI_I2S_ITConfig:SPIx <- $r0
	@DEBUG_VALUE: SPI_I2S_ITConfig:SPI_I2S_IT <- $r1
	@DEBUG_VALUE: SPI_I2S_ITConfig:SPI_I2S_IT <- $r1
	@DEBUG_VALUE: SPI_I2S_ITConfig:NewState <- $r2
	@DEBUG_VALUE: SPI_I2S_ITConfig:NewState <- $r2
	@DEBUG_VALUE: SPI_I2S_ITConfig:itpos <- 0
	@DEBUG_VALUE: SPI_I2S_ITConfig:itmask <- 0
	.loc	3 1134 22 prologue_end  @ ../Libraries/STM32F4xx_StdPeriph_Driver/src/stm32f4xx_spi.c:1134:22
	lsrs	r1, r1, #4
.Ltmp119:
	.loc	3 0 22 is_stmt 0        @ ../Libraries/STM32F4xx_StdPeriph_Driver/src/stm32f4xx_spi.c:0:22
	movs	r3, #1
.Ltmp120:
	@DEBUG_VALUE: SPI_I2S_ITConfig:itpos <- $r1
	.loc	3 1139 7 is_stmt 1      @ ../Libraries/STM32F4xx_StdPeriph_Driver/src/stm32f4xx_spi.c:1139:7
	cmp	r2, #0
	.loc	3 1137 24               @ ../Libraries/STM32F4xx_StdPeriph_Driver/src/stm32f4xx_spi.c:1137:24
	lsl.w	r12, r3, r1
.Ltmp121:
	.loc	3 0 0 is_stmt 0         @ ../Libraries/STM32F4xx_StdPeriph_Driver/src/stm32f4xx_spi.c:0:0
	ldrh	r3, [r0, #4]
.Ltmp122:
	.loc	3 1139 7 is_stmt 1      @ ../Libraries/STM32F4xx_StdPeriph_Driver/src/stm32f4xx_spi.c:1139:7
	orr.w	r1, r3, r12
.Ltmp123:
	it	eq
	biceq.w	r1, r3, r12
.Ltmp124:
	.loc	3 0 0 is_stmt 0         @ ../Libraries/STM32F4xx_StdPeriph_Driver/src/stm32f4xx_spi.c:0:0
	strh	r1, [r0, #4]
.Ltmp125:
	.loc	3 1149 1 is_stmt 1      @ ../Libraries/STM32F4xx_StdPeriph_Driver/src/stm32f4xx_spi.c:1149:1
	bx	lr
.Ltmp126:
.Lfunc_end20:
	.size	SPI_I2S_ITConfig, .Lfunc_end20-SPI_I2S_ITConfig
	.cfi_endproc
	.cantunwind
	.fnend
                                        @ -- End function
	.section	.text.SPI_I2S_GetFlagStatus,"ax",%progbits
	.hidden	SPI_I2S_GetFlagStatus   @ -- Begin function SPI_I2S_GetFlagStatus
	.globl	SPI_I2S_GetFlagStatus
	.p2align	1
	.type	SPI_I2S_GetFlagStatus,%function
	.code	16                      @ @SPI_I2S_GetFlagStatus
	.thumb_func
SPI_I2S_GetFlagStatus:
.Lfunc_begin21:
	.loc	3 1169 0                @ ../Libraries/STM32F4xx_StdPeriph_Driver/src/stm32f4xx_spi.c:1169:0
	.fnstart
	.cfi_startproc
@ %bb.0:
	@DEBUG_VALUE: SPI_I2S_GetFlagStatus:SPIx <- $r0
	@DEBUG_VALUE: SPI_I2S_GetFlagStatus:SPIx <- $r0
	@DEBUG_VALUE: SPI_I2S_GetFlagStatus:SPI_I2S_FLAG <- $r1
	@DEBUG_VALUE: SPI_I2S_GetFlagStatus:SPI_I2S_FLAG <- $r1
	@DEBUG_VALUE: SPI_I2S_GetFlagStatus:bitstatus <- 0
	.loc	3 1176 14 prologue_end  @ ../Libraries/STM32F4xx_StdPeriph_Driver/src/stm32f4xx_spi.c:1176:14
	ldrh	r0, [r0, #8]
.Ltmp127:
	.loc	3 1176 17 is_stmt 0     @ ../Libraries/STM32F4xx_StdPeriph_Driver/src/stm32f4xx_spi.c:1176:17
	ands	r0, r1
	.loc	3 1176 33               @ ../Libraries/STM32F4xx_StdPeriph_Driver/src/stm32f4xx_spi.c:1176:33
	it	ne
	movne	r0, #1
.Ltmp128:
	@DEBUG_VALUE: SPI_I2S_GetFlagStatus:bitstatus <- undef
	.loc	3 1187 3 is_stmt 1      @ ../Libraries/STM32F4xx_StdPeriph_Driver/src/stm32f4xx_spi.c:1187:3
	bx	lr
.Ltmp129:
.Lfunc_end21:
	.size	SPI_I2S_GetFlagStatus, .Lfunc_end21-SPI_I2S_GetFlagStatus
	.cfi_endproc
	.cantunwind
	.fnend
                                        @ -- End function
	.section	.text.SPI_I2S_ClearFlag,"ax",%progbits
	.hidden	SPI_I2S_ClearFlag       @ -- Begin function SPI_I2S_ClearFlag
	.globl	SPI_I2S_ClearFlag
	.p2align	1
	.type	SPI_I2S_ClearFlag,%function
	.code	16                      @ @SPI_I2S_ClearFlag
	.thumb_func
SPI_I2S_ClearFlag:
.Lfunc_begin22:
	.loc	3 1210 0                @ ../Libraries/STM32F4xx_StdPeriph_Driver/src/stm32f4xx_spi.c:1210:0
	.fnstart
	.cfi_startproc
@ %bb.0:
	@DEBUG_VALUE: SPI_I2S_ClearFlag:SPIx <- $r0
	@DEBUG_VALUE: SPI_I2S_ClearFlag:SPIx <- $r0
	@DEBUG_VALUE: SPI_I2S_ClearFlag:SPI_I2S_FLAG <- $r1
	@DEBUG_VALUE: SPI_I2S_ClearFlag:SPI_I2S_FLAG <- $r1
	.loc	3 1216 24 prologue_end  @ ../Libraries/STM32F4xx_StdPeriph_Driver/src/stm32f4xx_spi.c:1216:24
	mvns	r1, r1
.Ltmp130:
	.loc	3 1216 12 is_stmt 0     @ ../Libraries/STM32F4xx_StdPeriph_Driver/src/stm32f4xx_spi.c:1216:12
	strh	r1, [r0, #8]
	.loc	3 1217 1 is_stmt 1      @ ../Libraries/STM32F4xx_StdPeriph_Driver/src/stm32f4xx_spi.c:1217:1
	bx	lr
.Ltmp131:
.Lfunc_end22:
	.size	SPI_I2S_ClearFlag, .Lfunc_end22-SPI_I2S_ClearFlag
	.cfi_endproc
	.cantunwind
	.fnend
                                        @ -- End function
	.section	.text.SPI_I2S_GetITStatus,"ax",%progbits
	.hidden	SPI_I2S_GetITStatus     @ -- Begin function SPI_I2S_GetITStatus
	.globl	SPI_I2S_GetITStatus
	.p2align	1
	.type	SPI_I2S_GetITStatus,%function
	.code	16                      @ @SPI_I2S_GetITStatus
	.thumb_func
SPI_I2S_GetITStatus:
.Lfunc_begin23:
	.loc	3 1235 0                @ ../Libraries/STM32F4xx_StdPeriph_Driver/src/stm32f4xx_spi.c:1235:0
	.fnstart
	.cfi_startproc
@ %bb.0:
	@DEBUG_VALUE: SPI_I2S_GetITStatus:SPIx <- $r0
	@DEBUG_VALUE: SPI_I2S_GetITStatus:SPI_I2S_IT <- $r1
	mov	r2, r0
.Ltmp132:
	@DEBUG_VALUE: SPI_I2S_GetITStatus:enablestatus <- 0
	@DEBUG_VALUE: SPI_I2S_GetITStatus:itmask <- 0
	@DEBUG_VALUE: SPI_I2S_GetITStatus:itpos <- 0
	@DEBUG_VALUE: SPI_I2S_GetITStatus:bitstatus <- 0
	@DEBUG_VALUE: SPI_I2S_GetITStatus:SPI_I2S_IT <- $r1
	@DEBUG_VALUE: SPI_I2S_GetITStatus:SPIx <- $r2
	.loc	3 1244 31 prologue_end  @ ../Libraries/STM32F4xx_StdPeriph_Driver/src/stm32f4xx_spi.c:1244:31
	and	r3, r1, #15
	movs	r0, #1
	.loc	3 1253 25               @ ../Libraries/STM32F4xx_StdPeriph_Driver/src/stm32f4xx_spi.c:1253:25
	ldrh.w	r12, [r2, #4]
.Ltmp133:
	.loc	3 1256 15               @ ../Libraries/STM32F4xx_StdPeriph_Driver/src/stm32f4xx_spi.c:1256:15
	ldrh	r2, [r2, #8]
.Ltmp134:
	.loc	3 1244 16               @ ../Libraries/STM32F4xx_StdPeriph_Driver/src/stm32f4xx_spi.c:1244:16
	lsl.w	r3, r0, r3
.Ltmp135:
	.loc	3 1256 47               @ ../Libraries/STM32F4xx_StdPeriph_Driver/src/stm32f4xx_spi.c:1256:47
	tst	r3, r2
	beq	.LBB23_2
.Ltmp136:
@ %bb.1:
	@DEBUG_VALUE: SPI_I2S_GetITStatus:SPI_I2S_IT <- $r1
	.loc	3 1247 12               @ ../Libraries/STM32F4xx_StdPeriph_Driver/src/stm32f4xx_spi.c:1247:12
	lsrs	r1, r1, #4
.Ltmp137:
	@DEBUG_VALUE: SPI_I2S_GetITStatus:itmask <- $r1
	.loc	3 1250 17               @ ../Libraries/STM32F4xx_StdPeriph_Driver/src/stm32f4xx_spi.c:1250:17
	lsl.w	r1, r0, r1
.Ltmp138:
	@DEBUG_VALUE: SPI_I2S_GetITStatus:enablestatus <- undef
	.loc	3 1256 7                @ ../Libraries/STM32F4xx_StdPeriph_Driver/src/stm32f4xx_spi.c:1256:7
	tst.w	r12, r1
	it	eq
	moveq	r0, #0
	@DEBUG_VALUE: SPI_I2S_GetITStatus:bitstatus <- 0
.Ltmp139:
	@DEBUG_VALUE: SPI_I2S_GetITStatus:bitstatus <- $r0
	.loc	3 1267 3                @ ../Libraries/STM32F4xx_StdPeriph_Driver/src/stm32f4xx_spi.c:1267:3
	bx	lr
.Ltmp140:
.LBB23_2:
	@DEBUG_VALUE: SPI_I2S_GetITStatus:SPI_I2S_IT <- $r1
	.loc	3 0 3 is_stmt 0         @ ../Libraries/STM32F4xx_StdPeriph_Driver/src/stm32f4xx_spi.c:0:3
	movs	r0, #0
.Ltmp141:
	@DEBUG_VALUE: SPI_I2S_GetITStatus:bitstatus <- 0
	@DEBUG_VALUE: SPI_I2S_GetITStatus:bitstatus <- $r0
	.loc	3 1267 3                @ ../Libraries/STM32F4xx_StdPeriph_Driver/src/stm32f4xx_spi.c:1267:3
	bx	lr
.Ltmp142:
.Lfunc_end23:
	.size	SPI_I2S_GetITStatus, .Lfunc_end23-SPI_I2S_GetITStatus
	.cfi_endproc
	.cantunwind
	.fnend
                                        @ -- End function
	.section	.text.SPI_I2S_ClearITPendingBit,"ax",%progbits
	.hidden	SPI_I2S_ClearITPendingBit @ -- Begin function SPI_I2S_ClearITPendingBit
	.globl	SPI_I2S_ClearITPendingBit
	.p2align	1
	.type	SPI_I2S_ClearITPendingBit,%function
	.code	16                      @ @SPI_I2S_ClearITPendingBit
	.thumb_func
SPI_I2S_ClearITPendingBit:
.Lfunc_begin24:
	.loc	3 1290 0 is_stmt 1      @ ../Libraries/STM32F4xx_StdPeriph_Driver/src/stm32f4xx_spi.c:1290:0
	.fnstart
	.cfi_startproc
@ %bb.0:
	@DEBUG_VALUE: SPI_I2S_ClearITPendingBit:SPIx <- $r0
	@DEBUG_VALUE: SPI_I2S_ClearITPendingBit:SPIx <- $r0
	@DEBUG_VALUE: SPI_I2S_ClearITPendingBit:SPI_I2S_IT <- $r1
	@DEBUG_VALUE: SPI_I2S_ClearITPendingBit:SPI_I2S_IT <- $r1
	@DEBUG_VALUE: SPI_I2S_ClearITPendingBit:itpos <- 0
	.loc	3 1297 31 prologue_end  @ ../Libraries/STM32F4xx_StdPeriph_Driver/src/stm32f4xx_spi.c:1297:31
	and	r1, r1, #15
.Ltmp143:
	.loc	3 0 31 is_stmt 0        @ ../Libraries/STM32F4xx_StdPeriph_Driver/src/stm32f4xx_spi.c:0:31
	movs	r2, #1
	.loc	3 1297 16               @ ../Libraries/STM32F4xx_StdPeriph_Driver/src/stm32f4xx_spi.c:1297:16
	lsl.w	r1, r2, r1
.Ltmp144:
	@DEBUG_VALUE: SPI_I2S_ClearITPendingBit:itpos <- $r1
	.loc	3 1300 14 is_stmt 1     @ ../Libraries/STM32F4xx_StdPeriph_Driver/src/stm32f4xx_spi.c:1300:14
	mvns	r1, r1
.Ltmp145:
	.loc	3 1300 12 is_stmt 0     @ ../Libraries/STM32F4xx_StdPeriph_Driver/src/stm32f4xx_spi.c:1300:12
	strh	r1, [r0, #8]
	.loc	3 1301 1 is_stmt 1      @ ../Libraries/STM32F4xx_StdPeriph_Driver/src/stm32f4xx_spi.c:1301:1
	bx	lr
.Ltmp146:
.Lfunc_end24:
	.size	SPI_I2S_ClearITPendingBit, .Lfunc_end24-SPI_I2S_ClearITPendingBit
	.cfi_endproc
	.cantunwind
	.fnend
                                        @ -- End function
	.file	4 "F:\\SkyDrive\\OtvoreniProjekti\\HotelSaplast\\fw\\KontrolerHotela\\HC070318\\Project" "../Libraries/STM32F4xx_StdPeriph_Driver/inc\\stm32f4xx_spi.h"
	.section	".note.GNU-stack","",%progbits
	.eabi_attribute	30, 3	@ Tag_ABI_optimization_goals
	.ARM_attribute	16, 1	@ Tag_AV_eba