	.text
	.syntax unified
	.eabi_attribute	67, "2.09"	@ Tag_conformance
	.cpu	cortex-m4
	.eabi_attribute	6, 13	@ Tag_CPU_arch
	.eabi_attribute	7, 77	@ Tag_CPU_arch_profile
	.eabi_attribute	8, 0	@ Tag_ARM_ISA_use
	.eabi_attribute	9, 2	@ Tag_THUMB_ISA_use
	.fpu	fpv4-sp-d16
	.eabi_attribute	27, 1	@ Tag_ABI_HardFP_use
	.eabi_attribute	36, 1	@ Tag_FP_HP_extension
	.eabi_attribute	34, 1	@ Tag_CPU_unaligned_access
	.eabi_attribute	17, 1	@ Tag_ABI_PCS_GOT_use
	.eabi_attribute	20, 2	@ Tag_ABI_FP_denormal
	.eabi_attribute	21, 0	@ Tag_ABI_FP_exceptions
	.eabi_attribute	23, 1	@ Tag_ABI_FP_number_model
	.eabi_attribute	24, 1	@ Tag_ABI_align_needed
	.eabi_attribute	25, 1	@ Tag_ABI_align_preserved
	.eabi_attribute	28, 1	@ Tag_ABI_VFP_args
	.eabi_attribute	38, 1	@ Tag_ABI_FP_16bit_format
	.eabi_attribute	18, 2	@ Tag_ABI_PCS_wchar_t
	.eabi_attribute	26, 1	@ Tag_ABI_enum_size
	.eabi_attribute	14, 0	@ Tag_ABI_PCS_R9_use
	.file	"stm32f4xx_tim.c"
	.file	1 "F:\\SkyDrive\\OtvoreniProjekti\\HotelSaplast\\fw\\KontrolerHotela\\HC070318\\Project" "../Libraries/CMSIS/Device/ST/STM32F4xx/Include\\stm32f4xx.h"
	.file	2 "C:\\Keil\\ARM\\ARMCLANG\\Bin\\..\\include" "stdint.h"
	.section	.text.TIM_DeInit,"ax",%progbits
	.hidden	TIM_DeInit              @ -- Begin function TIM_DeInit
	.globl	TIM_DeInit
	.p2align	1
	.type	TIM_DeInit,%function
	.code	16                      @ @TIM_DeInit
	.thumb_func
TIM_DeInit:
.Lfunc_begin0:
	.file	3 "F:\\SkyDrive\\OtvoreniProjekti\\HotelSaplast\\fw\\KontrolerHotela\\HC070318\\Project" "../Libraries/STM32F4xx_StdPeriph_Driver/src/stm32f4xx_tim.c"
	.loc	3 201 0                 @ ../Libraries/STM32F4xx_StdPeriph_Driver/src/stm32f4xx_tim.c:201:0
	.fnstart
	.cfi_sections .debug_frame
	.cfi_startproc
@ %bb.0:
	.save	{r7, lr}
	push	{r7, lr}
	.cfi_def_cfa_offset 8
	.cfi_offset lr, -4
	.cfi_offset r7, -8
	@DEBUG_VALUE: TIM_DeInit:TIMx <- $r0
	movw	r1, #7167
	movt	r1, #16384
	@DEBUG_VALUE: TIM_DeInit:TIMx <- $r0
.Ltmp0:
	.loc	3 205 7 prologue_end    @ ../Libraries/STM32F4xx_StdPeriph_Driver/src/stm32f4xx_tim.c:205:7
	cmp	r0, r1
	bgt	.LBB0_6
.Ltmp1:
@ %bb.1:
	@DEBUG_VALUE: TIM_DeInit:TIMx <- $r0
	.loc	3 0 7 is_stmt 0         @ ../Libraries/STM32F4xx_StdPeriph_Driver/src/stm32f4xx_tim.c:0:7
	movw	r1, #3071
	movt	r1, #16384
	.loc	3 205 7                 @ ../Libraries/STM32F4xx_StdPeriph_Driver/src/stm32f4xx_tim.c:205:7
	cmp	r0, r1
	ble	.LBB0_11
.Ltmp2:
@ %bb.2:
	@DEBUG_VALUE: TIM_DeInit:TIMx <- $r0
	.loc	3 0 7                   @ ../Libraries/STM32F4xx_StdPeriph_Driver/src/stm32f4xx_tim.c:0:7
	movw	r1, #5119
	movt	r1, #16384
	.loc	3 205 7                 @ ../Libraries/STM32F4xx_StdPeriph_Driver/src/stm32f4xx_tim.c:205:7
	cmp	r0, r1
	bgt	.LBB0_19
.Ltmp3:
@ %bb.3:
	@DEBUG_VALUE: TIM_DeInit:TIMx <- $r0
	.loc	3 0 7                   @ ../Libraries/STM32F4xx_StdPeriph_Driver/src/stm32f4xx_tim.c:0:7
	movw	r1, #3072
	movt	r1, #16384
	.loc	3 205 7                 @ ../Libraries/STM32F4xx_StdPeriph_Driver/src/stm32f4xx_tim.c:205:7
	cmp	r0, r1
	beq.w	.LBB0_24
.Ltmp4:
@ %bb.4:
	@DEBUG_VALUE: TIM_DeInit:TIMx <- $r0
	.loc	3 0 7                   @ ../Libraries/STM32F4xx_StdPeriph_Driver/src/stm32f4xx_tim.c:0:7
	movw	r1, #4096
	movt	r1, #16384
	.loc	3 205 7                 @ ../Libraries/STM32F4xx_StdPeriph_Driver/src/stm32f4xx_tim.c:205:7
	cmp	r0, r1
	bne.w	.LBB0_34
.Ltmp5:
@ %bb.5:
	@DEBUG_VALUE: TIM_DeInit:TIMx <- $r0
	.loc	3 232 5 is_stmt 1       @ ../Libraries/STM32F4xx_StdPeriph_Driver/src/stm32f4xx_tim.c:232:5
	movs	r0, #16
.Ltmp6:
	movs	r1, #1
	bl	RCC_APB1PeriphResetCmd
	.loc	3 233 5                 @ ../Libraries/STM32F4xx_StdPeriph_Driver/src/stm32f4xx_tim.c:233:5
	movs	r0, #16
	b	.LBB0_31
.Ltmp7:
.LBB0_6:
	@DEBUG_VALUE: TIM_DeInit:TIMx <- $r0
	.loc	3 0 5 is_stmt 0         @ ../Libraries/STM32F4xx_StdPeriph_Driver/src/stm32f4xx_tim.c:0:5
	movw	r1, #1023
	movt	r1, #16385
	.loc	3 205 7 is_stmt 1       @ ../Libraries/STM32F4xx_StdPeriph_Driver/src/stm32f4xx_tim.c:205:7
	cmp	r0, r1
	ble	.LBB0_15
.Ltmp8:
@ %bb.7:
	@DEBUG_VALUE: TIM_DeInit:TIMx <- $r0
	.loc	3 0 7 is_stmt 0         @ ../Libraries/STM32F4xx_StdPeriph_Driver/src/stm32f4xx_tim.c:0:7
	movw	r1, #17407
	movt	r1, #16385
	.loc	3 205 7                 @ ../Libraries/STM32F4xx_StdPeriph_Driver/src/stm32f4xx_tim.c:205:7
	cmp	r0, r1
	bgt	.LBB0_22
.Ltmp9:
@ %bb.8:
	@DEBUG_VALUE: TIM_DeInit:TIMx <- $r0
	.loc	3 0 7                   @ ../Libraries/STM32F4xx_StdPeriph_Driver/src/stm32f4xx_tim.c:0:7
	movw	r1, #1024
	movt	r1, #16385
	.loc	3 205 7                 @ ../Libraries/STM32F4xx_StdPeriph_Driver/src/stm32f4xx_tim.c:205:7
	cmp	r0, r1
	beq	.LBB0_25
.Ltmp10:
@ %bb.9:
	@DEBUG_VALUE: TIM_DeInit:TIMx <- $r0
	.loc	3 0 7                   @ ../Libraries/STM32F4xx_StdPeriph_Driver/src/stm32f4xx_tim.c:0:7
	movw	r1, #16384
	movt	r1, #16385
	.loc	3 205 7                 @ ../Libraries/STM32F4xx_StdPeriph_Driver/src/stm32f4xx_tim.c:205:7
	cmp	r0, r1
	bne.w	.LBB0_34
.Ltmp11:
@ %bb.10:
	@DEBUG_VALUE: TIM_DeInit:TIMx <- $r0
	.loc	3 247 5 is_stmt 1       @ ../Libraries/STM32F4xx_StdPeriph_Driver/src/stm32f4xx_tim.c:247:5
	mov.w	r0, #65536
.Ltmp12:
	movs	r1, #1
	bl	RCC_APB2PeriphResetCmd
	.loc	3 248 5                 @ ../Libraries/STM32F4xx_StdPeriph_Driver/src/stm32f4xx_tim.c:248:5
	mov.w	r0, #65536
	b	.LBB0_33
.Ltmp13:
.LBB0_11:
	@DEBUG_VALUE: TIM_DeInit:TIMx <- $r0
	.loc	3 205 7                 @ ../Libraries/STM32F4xx_StdPeriph_Driver/src/stm32f4xx_tim.c:205:7
	cmp.w	r0, #1073741824
	beq	.LBB0_26
.Ltmp14:
@ %bb.12:
	@DEBUG_VALUE: TIM_DeInit:TIMx <- $r0
	.loc	3 0 7 is_stmt 0         @ ../Libraries/STM32F4xx_StdPeriph_Driver/src/stm32f4xx_tim.c:0:7
	movw	r1, #1024
	movt	r1, #16384
	.loc	3 205 7                 @ ../Libraries/STM32F4xx_StdPeriph_Driver/src/stm32f4xx_tim.c:205:7
	cmp	r0, r1
	beq	.LBB0_27
.Ltmp15:
@ %bb.13:
	@DEBUG_VALUE: TIM_DeInit:TIMx <- $r0
	.loc	3 0 7                   @ ../Libraries/STM32F4xx_StdPeriph_Driver/src/stm32f4xx_tim.c:0:7
	movw	r1, #2048
	movt	r1, #16384
	.loc	3 205 7                 @ ../Libraries/STM32F4xx_StdPeriph_Driver/src/stm32f4xx_tim.c:205:7
	cmp	r0, r1
	bne.w	.LBB0_34
.Ltmp16:
@ %bb.14:
	@DEBUG_VALUE: TIM_DeInit:TIMx <- $r0
	.loc	3 222 5 is_stmt 1       @ ../Libraries/STM32F4xx_StdPeriph_Driver/src/stm32f4xx_tim.c:222:5
	movs	r0, #4
.Ltmp17:
	movs	r1, #1
	bl	RCC_APB1PeriphResetCmd
	.loc	3 223 5                 @ ../Libraries/STM32F4xx_StdPeriph_Driver/src/stm32f4xx_tim.c:223:5
	movs	r0, #4
	b	.LBB0_31
.Ltmp18:
.LBB0_15:
	@DEBUG_VALUE: TIM_DeInit:TIMx <- $r0
	.loc	3 0 5 is_stmt 0         @ ../Libraries/STM32F4xx_StdPeriph_Driver/src/stm32f4xx_tim.c:0:5
	movw	r1, #7168
	movt	r1, #16384
	.loc	3 205 7 is_stmt 1       @ ../Libraries/STM32F4xx_StdPeriph_Driver/src/stm32f4xx_tim.c:205:7
	cmp	r0, r1
	beq	.LBB0_28
.Ltmp19:
@ %bb.16:
	@DEBUG_VALUE: TIM_DeInit:TIMx <- $r0
	.loc	3 0 7 is_stmt 0         @ ../Libraries/STM32F4xx_StdPeriph_Driver/src/stm32f4xx_tim.c:0:7
	movw	r1, #8192
	movt	r1, #16384
	.loc	3 205 7                 @ ../Libraries/STM32F4xx_StdPeriph_Driver/src/stm32f4xx_tim.c:205:7
	cmp	r0, r1
	beq	.LBB0_29
.Ltmp20:
@ %bb.17:
	@DEBUG_VALUE: TIM_DeInit:TIMx <- $r0
	.loc	3 0 7                   @ ../Libraries/STM32F4xx_StdPeriph_Driver/src/stm32f4xx_tim.c:0:7
	movs	r1, #0
	movt	r1, #16385
	.loc	3 205 7                 @ ../Libraries/STM32F4xx_StdPeriph_Driver/src/stm32f4xx_tim.c:205:7
	cmp	r0, r1
	bne	.LBB0_34
.Ltmp21:
@ %bb.18:
	@DEBUG_VALUE: TIM_DeInit:TIMx <- $r0
	.loc	3 207 5 is_stmt 1       @ ../Libraries/STM32F4xx_StdPeriph_Driver/src/stm32f4xx_tim.c:207:5
	movs	r0, #1
.Ltmp22:
	movs	r1, #1
	bl	RCC_APB2PeriphResetCmd
	.loc	3 208 5                 @ ../Libraries/STM32F4xx_StdPeriph_Driver/src/stm32f4xx_tim.c:208:5
	movs	r0, #1
	b	.LBB0_33
.Ltmp23:
.LBB0_19:
	@DEBUG_VALUE: TIM_DeInit:TIMx <- $r0
	.loc	3 0 5 is_stmt 0         @ ../Libraries/STM32F4xx_StdPeriph_Driver/src/stm32f4xx_tim.c:0:5
	movw	r1, #5120
	movt	r1, #16384
	.loc	3 205 7 is_stmt 1       @ ../Libraries/STM32F4xx_StdPeriph_Driver/src/stm32f4xx_tim.c:205:7
	cmp	r0, r1
	beq	.LBB0_30
.Ltmp24:
@ %bb.20:
	@DEBUG_VALUE: TIM_DeInit:TIMx <- $r0
	.loc	3 0 7 is_stmt 0         @ ../Libraries/STM32F4xx_StdPeriph_Driver/src/stm32f4xx_tim.c:0:7
	movw	r1, #6144
	movt	r1, #16384
	.loc	3 205 7                 @ ../Libraries/STM32F4xx_StdPeriph_Driver/src/stm32f4xx_tim.c:205:7
	cmp	r0, r1
	bne	.LBB0_34
.Ltmp25:
@ %bb.21:
	@DEBUG_VALUE: TIM_DeInit:TIMx <- $r0
	.loc	3 262 5 is_stmt 1       @ ../Libraries/STM32F4xx_StdPeriph_Driver/src/stm32f4xx_tim.c:262:5
	movs	r0, #64
.Ltmp26:
	movs	r1, #1
	bl	RCC_APB1PeriphResetCmd
	.loc	3 263 5                 @ ../Libraries/STM32F4xx_StdPeriph_Driver/src/stm32f4xx_tim.c:263:5
	movs	r0, #64
	b	.LBB0_31
.Ltmp27:
.LBB0_22:
	@DEBUG_VALUE: TIM_DeInit:TIMx <- $r0
	.loc	3 0 5 is_stmt 0         @ ../Libraries/STM32F4xx_StdPeriph_Driver/src/stm32f4xx_tim.c:0:5
	movw	r1, #17408
	movt	r1, #16385
	.loc	3 205 7 is_stmt 1       @ ../Libraries/STM32F4xx_StdPeriph_Driver/src/stm32f4xx_tim.c:205:7
	cmp	r0, r1
	beq	.LBB0_32
.Ltmp28:
@ %bb.23:
	@DEBUG_VALUE: TIM_DeInit:TIMx <- $r0
	.loc	3 0 7 is_stmt 0         @ ../Libraries/STM32F4xx_StdPeriph_Driver/src/stm32f4xx_tim.c:0:7
	movw	r1, #18432
	movt	r1, #16385
	.loc	3 205 7                 @ ../Libraries/STM32F4xx_StdPeriph_Driver/src/stm32f4xx_tim.c:205:7
	cmp	r0, r1
	.loc	3 278 1 is_stmt 1       @ ../Libraries/STM32F4xx_StdPeriph_Driver/src/stm32f4xx_tim.c:278:1
	it	ne
	popne	{r7, pc}
.Ltmp29:
	.loc	3 257 5                 @ ../Libraries/STM32F4xx_StdPeriph_Driver/src/stm32f4xx_tim.c:257:5
	mov.w	r0, #262144
.Ltmp30:
	movs	r1, #1
	bl	RCC_APB2PeriphResetCmd
	.loc	3 258 5                 @ ../Libraries/STM32F4xx_StdPeriph_Driver/src/stm32f4xx_tim.c:258:5
	mov.w	r0, #262144
	b	.LBB0_33
.Ltmp31:
.LBB0_24:
	@DEBUG_VALUE: TIM_DeInit:TIMx <- $r0
	.loc	3 227 5                 @ ../Libraries/STM32F4xx_StdPeriph_Driver/src/stm32f4xx_tim.c:227:5
	movs	r0, #8
.Ltmp32:
	movs	r1, #1
	bl	RCC_APB1PeriphResetCmd
	.loc	3 228 5                 @ ../Libraries/STM32F4xx_StdPeriph_Driver/src/stm32f4xx_tim.c:228:5
	movs	r0, #8
	b	.LBB0_31
.Ltmp33:
.LBB0_25:
	@DEBUG_VALUE: TIM_DeInit:TIMx <- $r0
	.loc	3 242 5                 @ ../Libraries/STM32F4xx_StdPeriph_Driver/src/stm32f4xx_tim.c:242:5
	movs	r0, #2
.Ltmp34:
	movs	r1, #1
	bl	RCC_APB2PeriphResetCmd
	.loc	3 243 5                 @ ../Libraries/STM32F4xx_StdPeriph_Driver/src/stm32f4xx_tim.c:243:5
	movs	r0, #2
	b	.LBB0_33
.Ltmp35:
.LBB0_26:
	@DEBUG_VALUE: TIM_DeInit:TIMx <- $r0
	.loc	3 212 5                 @ ../Libraries/STM32F4xx_StdPeriph_Driver/src/stm32f4xx_tim.c:212:5
	movs	r0, #1
.Ltmp36:
	movs	r1, #1
	bl	RCC_APB1PeriphResetCmd
	.loc	3 213 5                 @ ../Libraries/STM32F4xx_StdPeriph_Driver/src/stm32f4xx_tim.c:213:5
	movs	r0, #1
	b	.LBB0_31
.Ltmp37:
.LBB0_27:
	@DEBUG_VALUE: TIM_DeInit:TIMx <- $r0
	.loc	3 217 5                 @ ../Libraries/STM32F4xx_StdPeriph_Driver/src/stm32f4xx_tim.c:217:5
	movs	r0, #2
.Ltmp38:
	movs	r1, #1
	bl	RCC_APB1PeriphResetCmd
	.loc	3 218 5                 @ ../Libraries/STM32F4xx_StdPeriph_Driver/src/stm32f4xx_tim.c:218:5
	movs	r0, #2
	b	.LBB0_31
.Ltmp39:
.LBB0_28:
	@DEBUG_VALUE: TIM_DeInit:TIMx <- $r0
	.loc	3 267 5                 @ ../Libraries/STM32F4xx_StdPeriph_Driver/src/stm32f4xx_tim.c:267:5
	movs	r0, #128
.Ltmp40:
	movs	r1, #1
	bl	RCC_APB1PeriphResetCmd
	.loc	3 268 5                 @ ../Libraries/STM32F4xx_StdPeriph_Driver/src/stm32f4xx_tim.c:268:5
	movs	r0, #128
	b	.LBB0_31
.Ltmp41:
.LBB0_29:
	@DEBUG_VALUE: TIM_DeInit:TIMx <- $r0
	.loc	3 274 7                 @ ../Libraries/STM32F4xx_StdPeriph_Driver/src/stm32f4xx_tim.c:274:7
	mov.w	r0, #256
.Ltmp42:
	movs	r1, #1
	bl	RCC_APB1PeriphResetCmd
	.loc	3 275 7                 @ ../Libraries/STM32F4xx_StdPeriph_Driver/src/stm32f4xx_tim.c:275:7
	mov.w	r0, #256
	b	.LBB0_31
.Ltmp43:
.LBB0_30:
	@DEBUG_VALUE: TIM_DeInit:TIMx <- $r0
	.loc	3 237 5                 @ ../Libraries/STM32F4xx_StdPeriph_Driver/src/stm32f4xx_tim.c:237:5
	movs	r0, #32
.Ltmp44:
	movs	r1, #1
	bl	RCC_APB1PeriphResetCmd
	.loc	3 238 5                 @ ../Libraries/STM32F4xx_StdPeriph_Driver/src/stm32f4xx_tim.c:238:5
	movs	r0, #32
.Ltmp45:
.LBB0_31:
	.loc	3 0 0 is_stmt 0         @ ../Libraries/STM32F4xx_StdPeriph_Driver/src/stm32f4xx_tim.c:0:0
	movs	r1, #0
	pop.w	{r7, lr}
	b	RCC_APB1PeriphResetCmd
.LBB0_32:
.Ltmp46:
	@DEBUG_VALUE: TIM_DeInit:TIMx <- $r0
	.loc	3 252 5 is_stmt 1       @ ../Libraries/STM32F4xx_StdPeriph_Driver/src/stm32f4xx_tim.c:252:5
	mov.w	r0, #131072
.Ltmp47:
	movs	r1, #1
	bl	RCC_APB2PeriphResetCmd
	.loc	3 253 5                 @ ../Libraries/STM32F4xx_StdPeriph_Driver/src/stm32f4xx_tim.c:253:5
	mov.w	r0, #131072
.Ltmp48:
.LBB0_33:
	.loc	3 0 0 is_stmt 0         @ ../Libraries/STM32F4xx_StdPeriph_Driver/src/stm32f4xx_tim.c:0:0
	movs	r1, #0
	pop.w	{r7, lr}
	b	RCC_APB2PeriphResetCmd
.Ltmp49:
.LBB0_34:
	@DEBUG_VALUE: TIM_DeInit:TIMx <- $r0
	.loc	3 278 1 is_stmt 1       @ ../Libraries/STM32F4xx_StdPeriph_Driver/src/stm32f4xx_tim.c:278:1
	pop	{r7, pc}
.Ltmp50:
.Lfunc_end0:
	.size	TIM_DeInit, .Lfunc_end0-TIM_DeInit
	.cfi_endproc
	.cantunwind
	.fnend
                                        @ -- End function
	.section	.text.TIM_TimeBaseInit,"ax",%progbits
	.hidden	TIM_TimeBaseInit        @ -- Begin function TIM_TimeBaseInit
	.globl	TIM_TimeBaseInit
	.p2align	1
	.type	TIM_TimeBaseInit,%function
	.code	16                      @ @TIM_TimeBaseInit
	.thumb_func
TIM_TimeBaseInit:
.Lfunc_begin1:
	.loc	3 289 0                 @ ../Libraries/STM32F4xx_StdPeriph_Driver/src/stm32f4xx_tim.c:289:0
	.fnstart
	.cfi_startproc
@ %bb.0:
	@DEBUG_VALUE: TIM_TimeBaseInit:TIMx <- $r0
	@DEBUG_VALUE: TIM_TimeBaseInit:TIMx <- $r0
	@DEBUG_VALUE: TIM_TimeBaseInit:TIM_TimeBaseInitStruct <- $r1
	@DEBUG_VALUE: TIM_TimeBaseInit:TIM_TimeBaseInitStruct <- $r1
	@DEBUG_VALUE: TIM_TimeBaseInit:tmpcr1 <- 0
	movw	r3, #3071
.Ltmp51:
	.loc	3 297 18 prologue_end   @ ../Libraries/STM32F4xx_StdPeriph_Driver/src/stm32f4xx_tim.c:297:18
	ldrh.w	r12, [r0]
.Ltmp52:
	@DEBUG_VALUE: TIM_TimeBaseInit:tmpcr1 <- undef
	.loc	3 0 18 is_stmt 0        @ ../Libraries/STM32F4xx_StdPeriph_Driver/src/stm32f4xx_tim.c:0:18
	movt	r3, #16384
.Ltmp53:
	.loc	3 299 21 is_stmt 1      @ ../Libraries/STM32F4xx_StdPeriph_Driver/src/stm32f4xx_tim.c:299:21
	cmp	r0, r3
	bgt	.LBB1_4
.Ltmp54:
@ %bb.1:
	@DEBUG_VALUE: TIM_TimeBaseInit:TIM_TimeBaseInitStruct <- $r1
	@DEBUG_VALUE: TIM_TimeBaseInit:TIMx <- $r0
	cmp.w	r0, #1073741824
	beq	.LBB1_8
.Ltmp55:
@ %bb.2:
	@DEBUG_VALUE: TIM_TimeBaseInit:TIM_TimeBaseInitStruct <- $r1
	@DEBUG_VALUE: TIM_TimeBaseInit:TIMx <- $r0
	.loc	3 0 21 is_stmt 0        @ ../Libraries/STM32F4xx_StdPeriph_Driver/src/stm32f4xx_tim.c:0:21
	movw	r3, #1024
	movt	r3, #16384
	.loc	3 299 21                @ ../Libraries/STM32F4xx_StdPeriph_Driver/src/stm32f4xx_tim.c:299:21
	cmp	r0, r3
	beq	.LBB1_8
.Ltmp56:
@ %bb.3:
	@DEBUG_VALUE: TIM_TimeBaseInit:TIM_TimeBaseInitStruct <- $r1
	@DEBUG_VALUE: TIM_TimeBaseInit:TIMx <- $r0
	.loc	3 0 21                  @ ../Libraries/STM32F4xx_StdPeriph_Driver/src/stm32f4xx_tim.c:0:21
	movw	r3, #2048
	movt	r3, #16384
	b	.LBB1_7
.Ltmp57:
.LBB1_4:
	@DEBUG_VALUE: TIM_TimeBaseInit:TIM_TimeBaseInitStruct <- $r1
	@DEBUG_VALUE: TIM_TimeBaseInit:TIMx <- $r0
	movw	r3, #3072
	movt	r3, #16384
	.loc	3 299 21                @ ../Libraries/STM32F4xx_StdPeriph_Driver/src/stm32f4xx_tim.c:299:21
	cmp	r0, r3
	beq	.LBB1_8
.Ltmp58:
@ %bb.5:
	@DEBUG_VALUE: TIM_TimeBaseInit:TIM_TimeBaseInitStruct <- $r1
	@DEBUG_VALUE: TIM_TimeBaseInit:TIMx <- $r0
	.loc	3 0 21                  @ ../Libraries/STM32F4xx_StdPeriph_Driver/src/stm32f4xx_tim.c:0:21
	movw	r3, #1024
	movt	r3, #16385
	.loc	3 299 21                @ ../Libraries/STM32F4xx_StdPeriph_Driver/src/stm32f4xx_tim.c:299:21
	cmp	r0, r3
	beq	.LBB1_8
.Ltmp59:
@ %bb.6:
	@DEBUG_VALUE: TIM_TimeBaseInit:TIM_TimeBaseInitStruct <- $r1
	@DEBUG_VALUE: TIM_TimeBaseInit:TIMx <- $r0
	.loc	3 0 21                  @ ../Libraries/STM32F4xx_StdPeriph_Driver/src/stm32f4xx_tim.c:0:21
	movs	r3, #0
	movt	r3, #16385
.Ltmp60:
.LBB1_7:
	@DEBUG_VALUE: TIM_TimeBaseInit:TIM_TimeBaseInitStruct <- $r1
	@DEBUG_VALUE: TIM_TimeBaseInit:TIMx <- $r0
	.loc	3 299 21                @ ../Libraries/STM32F4xx_StdPeriph_Driver/src/stm32f4xx_tim.c:299:21
	cmp	r0, r3
	bne	.LBB1_9
.Ltmp61:
.LBB1_8:
	@DEBUG_VALUE: TIM_TimeBaseInit:TIM_TimeBaseInitStruct <- $r1
	@DEBUG_VALUE: TIM_TimeBaseInit:TIMx <- $r0
	.loc	3 305 49 is_stmt 1      @ ../Libraries/STM32F4xx_StdPeriph_Driver/src/stm32f4xx_tim.c:305:49
	ldrh	r3, [r1, #2]
	.loc	3 304 12                @ ../Libraries/STM32F4xx_StdPeriph_Driver/src/stm32f4xx_tim.c:304:12
	bic	r2, r12, #112
.Ltmp62:
	@DEBUG_VALUE: TIM_TimeBaseInit:tmpcr1 <- $r2
	.loc	3 305 12                @ ../Libraries/STM32F4xx_StdPeriph_Driver/src/stm32f4xx_tim.c:305:12
	orr.w	r12, r3, r2
.Ltmp63:
	@DEBUG_VALUE: TIM_TimeBaseInit:tmpcr1 <- $r12
.LBB1_9:
	@DEBUG_VALUE: TIM_TimeBaseInit:TIM_TimeBaseInitStruct <- $r1
	@DEBUG_VALUE: TIM_TimeBaseInit:TIMx <- $r0
	@DEBUG_VALUE: TIM_TimeBaseInit:tmpcr1 <- $r12
	.loc	3 0 12 is_stmt 0        @ ../Libraries/STM32F4xx_StdPeriph_Driver/src/stm32f4xx_tim.c:0:12
	movw	r2, #5120
.Ltmp64:
	.loc	3 308 21 is_stmt 1      @ ../Libraries/STM32F4xx_StdPeriph_Driver/src/stm32f4xx_tim.c:308:21
	orr	r3, r0, #1024
	movt	r2, #16384
	cmp	r3, r2
	beq	.LBB1_11
.Ltmp65:
@ %bb.10:
	@DEBUG_VALUE: TIM_TimeBaseInit:tmpcr1 <- $r12
	@DEBUG_VALUE: TIM_TimeBaseInit:TIM_TimeBaseInitStruct <- $r1
	@DEBUG_VALUE: TIM_TimeBaseInit:TIMx <- $r0
	.save	{r7, lr}
	push	{r7, lr}
	.cfi_def_cfa_offset 8
	.cfi_offset lr, -4
	.cfi_offset r7, -8
.Ltmp66:
	.loc	3 312 49                @ ../Libraries/STM32F4xx_StdPeriph_Driver/src/stm32f4xx_tim.c:312:49
	ldrh.w	lr, [r1, #8]
	.loc	3 311 12                @ ../Libraries/STM32F4xx_StdPeriph_Driver/src/stm32f4xx_tim.c:311:12
	bic	r2, r12, #768
.Ltmp67:
	@DEBUG_VALUE: TIM_TimeBaseInit:tmpcr1 <- $r2
	.loc	3 312 12                @ ../Libraries/STM32F4xx_StdPeriph_Driver/src/stm32f4xx_tim.c:312:12
	orr.w	r12, lr, r2
.Ltmp68:
	@DEBUG_VALUE: TIM_TimeBaseInit:tmpcr1 <- $r12
	.loc	3 0 12 is_stmt 0        @ ../Libraries/STM32F4xx_StdPeriph_Driver/src/stm32f4xx_tim.c:0:12
	pop.w	{r7, lr}
.Ltmp69:
.LBB1_11:
	@DEBUG_VALUE: TIM_TimeBaseInit:tmpcr1 <- $r12
	@DEBUG_VALUE: TIM_TimeBaseInit:TIM_TimeBaseInitStruct <- $r1
	@DEBUG_VALUE: TIM_TimeBaseInit:TIMx <- $r0
	@DEBUG_VALUE: TIM_TimeBaseInit:tmpcr1 <- $r12
	.loc	3 315 13 is_stmt 1      @ ../Libraries/STM32F4xx_StdPeriph_Driver/src/stm32f4xx_tim.c:315:13
	strh.w	r12, [r0]
	.loc	3 318 39                @ ../Libraries/STM32F4xx_StdPeriph_Driver/src/stm32f4xx_tim.c:318:39
	ldr	r2, [r1, #4]
	.loc	3 318 13 is_stmt 0      @ ../Libraries/STM32F4xx_StdPeriph_Driver/src/stm32f4xx_tim.c:318:13
	str	r2, [r0, #44]
	.loc	3 321 39 is_stmt 1      @ ../Libraries/STM32F4xx_StdPeriph_Driver/src/stm32f4xx_tim.c:321:39
	ldrh	r2, [r1]
	.loc	3 321 13 is_stmt 0      @ ../Libraries/STM32F4xx_StdPeriph_Driver/src/stm32f4xx_tim.c:321:13
	strh	r2, [r0, #40]
	movw	r2, #1024
	movt	r2, #16385
.Ltmp70:
	.loc	3 323 22 is_stmt 1      @ ../Libraries/STM32F4xx_StdPeriph_Driver/src/stm32f4xx_tim.c:323:22
	cmp	r3, r2
.Ltmp71:
	.loc	3 326 41                @ ../Libraries/STM32F4xx_StdPeriph_Driver/src/stm32f4xx_tim.c:326:41
	itt	eq
	ldrbeq	r1, [r1, #10]
.Ltmp72:
	.loc	3 326 15 is_stmt 0      @ ../Libraries/STM32F4xx_StdPeriph_Driver/src/stm32f4xx_tim.c:326:15
	strheq	r1, [r0, #48]
	movs	r1, #1
.Ltmp73:
	.loc	3 331 13 is_stmt 1      @ ../Libraries/STM32F4xx_StdPeriph_Driver/src/stm32f4xx_tim.c:331:13
	strh	r1, [r0, #20]
	.loc	3 332 1                 @ ../Libraries/STM32F4xx_StdPeriph_Driver/src/stm32f4xx_tim.c:332:1
	bx	lr
.Ltmp74:
.Lfunc_end1:
	.size	TIM_TimeBaseInit, .Lfunc_end1-TIM_TimeBaseInit
	.cfi_endproc
	.cantunwind
	.fnend
                                        @ -- End function
	.section	.text.TIM_TimeBaseStructInit,"ax",%progbits
	.hidden	TIM_TimeBaseStructInit  @ -- Begin function TIM_TimeBaseStructInit
	.globl	TIM_TimeBaseStructInit
	.p2align	1
	.type	TIM_TimeBaseStructInit,%function
	.code	16                      @ @TIM_TimeBaseStructInit
	.thumb_func
TIM_TimeBaseStructInit:
.Lfunc_begin2:
	.loc	3 341 0                 @ ../Libraries/STM32F4xx_StdPeriph_Driver/src/stm32f4xx_tim.c:341:0
	.fnstart
	.cfi_startproc
@ %bb.0:
	@DEBUG_VALUE: TIM_TimeBaseStructInit:TIM_TimeBaseInitStruct <- $r0
	movs	r1, #0
	@DEBUG_VALUE: TIM_TimeBaseStructInit:TIM_TimeBaseInitStruct <- $r0
	mov.w	r2, #-1
.Ltmp75:
	.loc	3 345 45 prologue_end   @ ../Libraries/STM32F4xx_StdPeriph_Driver/src/stm32f4xx_tim.c:345:45
	strh	r1, [r0, #8]
	.loc	3 347 49                @ ../Libraries/STM32F4xx_StdPeriph_Driver/src/stm32f4xx_tim.c:347:49
	strb	r1, [r0, #10]
	.loc	3 344 41                @ ../Libraries/STM32F4xx_StdPeriph_Driver/src/stm32f4xx_tim.c:344:41
	strd	r1, r2, [r0]
	.loc	3 348 1                 @ ../Libraries/STM32F4xx_StdPeriph_Driver/src/stm32f4xx_tim.c:348:1
	bx	lr
.Ltmp76:
.Lfunc_end2:
	.size	TIM_TimeBaseStructInit, .Lfunc_end2-TIM_TimeBaseStructInit
	.cfi_endproc
	.cantunwind
	.fnend
                                        @ -- End function
	.section	.text.TIM_PrescalerConfig,"ax",%progbits
	.hidden	TIM_PrescalerConfig     @ -- Begin function TIM_PrescalerConfig
	.globl	TIM_PrescalerConfig
	.p2align	1
	.type	TIM_PrescalerConfig,%function
	.code	16                      @ @TIM_PrescalerConfig
	.thumb_func
TIM_PrescalerConfig:
.Lfunc_begin3:
	.loc	3 361 0                 @ ../Libraries/STM32F4xx_StdPeriph_Driver/src/stm32f4xx_tim.c:361:0
	.fnstart
	.cfi_startproc
@ %bb.0:
	@DEBUG_VALUE: TIM_PrescalerConfig:TIMx <- $r0
	@DEBUG_VALUE: TIM_PrescalerConfig:TIMx <- $r0
	@DEBUG_VALUE: TIM_PrescalerConfig:Prescaler <- $r1
	@DEBUG_VALUE: TIM_PrescalerConfig:Prescaler <- $r1
	@DEBUG_VALUE: TIM_PrescalerConfig:TIM_PSCReloadMode <- $r2
	@DEBUG_VALUE: TIM_PrescalerConfig:TIM_PSCReloadMode <- $r2
	.loc	3 366 13 prologue_end   @ ../Libraries/STM32F4xx_StdPeriph_Driver/src/stm32f4xx_tim.c:366:13
	strh	r1, [r0, #40]
	.loc	3 368 13                @ ../Libraries/STM32F4xx_StdPeriph_Driver/src/stm32f4xx_tim.c:368:13
	strh	r2, [r0, #20]
	.loc	3 369 1                 @ ../Libraries/STM32F4xx_StdPeriph_Driver/src/stm32f4xx_tim.c:369:1
	bx	lr
.Ltmp77:
.Lfunc_end3:
	.size	TIM_PrescalerConfig, .Lfunc_end3-TIM_PrescalerConfig
	.cfi_endproc
	.cantunwind
	.fnend
                                        @ -- End function
	.section	.text.TIM_CounterModeConfig,"ax",%progbits
	.hidden	TIM_CounterModeConfig   @ -- Begin function TIM_CounterModeConfig
	.globl	TIM_CounterModeConfig
	.p2align	1
	.type	TIM_CounterModeConfig,%function
	.code	16                      @ @TIM_CounterModeConfig
	.thumb_func
TIM_CounterModeConfig:
.Lfunc_begin4:
	.loc	3 384 0                 @ ../Libraries/STM32F4xx_StdPeriph_Driver/src/stm32f4xx_tim.c:384:0
	.fnstart
	.cfi_startproc
@ %bb.0:
	@DEBUG_VALUE: TIM_CounterModeConfig:TIMx <- $r0
	@DEBUG_VALUE: TIM_CounterModeConfig:TIMx <- $r0
	@DEBUG_VALUE: TIM_CounterModeConfig:TIM_CounterMode <- $r1
	@DEBUG_VALUE: TIM_CounterModeConfig:TIM_CounterMode <- $r1
	@DEBUG_VALUE: TIM_CounterModeConfig:tmpcr1 <- 0
	.loc	3 391 18 prologue_end   @ ../Libraries/STM32F4xx_StdPeriph_Driver/src/stm32f4xx_tim.c:391:18
	ldrh	r2, [r0]
.Ltmp78:
	@DEBUG_VALUE: TIM_CounterModeConfig:tmpcr1 <- $r2
	.loc	3 394 10                @ ../Libraries/STM32F4xx_StdPeriph_Driver/src/stm32f4xx_tim.c:394:10
	bic	r2, r2, #112
.Ltmp79:
	@DEBUG_VALUE: TIM_CounterModeConfig:tmpcr1 <- $r2
	.loc	3 397 10                @ ../Libraries/STM32F4xx_StdPeriph_Driver/src/stm32f4xx_tim.c:397:10
	orrs	r1, r2
.Ltmp80:
	@DEBUG_VALUE: TIM_CounterModeConfig:tmpcr1 <- $r1
	.loc	3 400 13                @ ../Libraries/STM32F4xx_StdPeriph_Driver/src/stm32f4xx_tim.c:400:13
	strh	r1, [r0]
	.loc	3 401 1                 @ ../Libraries/STM32F4xx_StdPeriph_Driver/src/stm32f4xx_tim.c:401:1
	bx	lr
.Ltmp81:
.Lfunc_end4:
	.size	TIM_CounterModeConfig, .Lfunc_end4-TIM_CounterModeConfig
	.cfi_endproc
	.cantunwind
	.fnend
                                        @ -- End function
	.section	.text.TIM_SetCounter,"ax",%progbits
	.hidden	TIM_SetCounter          @ -- Begin function TIM_SetCounter
	.globl	TIM_SetCounter
	.p2align	1
	.type	TIM_SetCounter,%function
	.code	16                      @ @TIM_SetCounter
	.thumb_func
TIM_SetCounter:
.Lfunc_begin5:
	.loc	3 410 0                 @ ../Libraries/STM32F4xx_StdPeriph_Driver/src/stm32f4xx_tim.c:410:0
	.fnstart
	.cfi_startproc
@ %bb.0:
	@DEBUG_VALUE: TIM_SetCounter:TIMx <- $r0
	@DEBUG_VALUE: TIM_SetCounter:TIMx <- $r0
	@DEBUG_VALUE: TIM_SetCounter:Counter <- $r1
	@DEBUG_VALUE: TIM_SetCounter:Counter <- $r1
	.loc	3 415 13 prologue_end   @ ../Libraries/STM32F4xx_StdPeriph_Driver/src/stm32f4xx_tim.c:415:13
	str	r1, [r0, #36]
	.loc	3 416 1                 @ ../Libraries/STM32F4xx_StdPeriph_Driver/src/stm32f4xx_tim.c:416:1
	bx	lr
.Ltmp82:
.Lfunc_end5:
	.size	TIM_SetCounter, .Lfunc_end5-TIM_SetCounter
	.cfi_endproc
	.cantunwind
	.fnend
                                        @ -- End function
	.section	.text.TIM_SetAutoreload,"ax",%progbits
	.hidden	TIM_SetAutoreload       @ -- Begin function TIM_SetAutoreload
	.globl	TIM_SetAutoreload
	.p2align	1
	.type	TIM_SetAutoreload,%function
	.code	16                      @ @TIM_SetAutoreload
	.thumb_func
TIM_SetAutoreload:
.Lfunc_begin6:
	.loc	3 425 0                 @ ../Libraries/STM32F4xx_StdPeriph_Driver/src/stm32f4xx_tim.c:425:0
	.fnstart
	.cfi_startproc
@ %bb.0:
	@DEBUG_VALUE: TIM_SetAutoreload:TIMx <- $r0
	@DEBUG_VALUE: TIM_SetAutoreload:TIMx <- $r0
	@DEBUG_VALUE: TIM_SetAutoreload:Autoreload <- $r1
	@DEBUG_VALUE: TIM_SetAutoreload:Autoreload <- $r1
	.loc	3 430 13 prologue_end   @ ../Libraries/STM32F4xx_StdPeriph_Driver/src/stm32f4xx_tim.c:430:13
	str	r1, [r0, #44]
	.loc	3 431 1                 @ ../Libraries/STM32F4xx_StdPeriph_Driver/src/stm32f4xx_tim.c:431:1
	bx	lr
.Ltmp83:
.Lfunc_end6:
	.size	TIM_SetAutoreload, .Lfunc_end6-TIM_SetAutoreload
	.cfi_endproc
	.cantunwind
	.fnend
                                        @ -- End function
	.section	.text.TIM_GetCounter,"ax",%progbits
	.hidden	TIM_GetCounter          @ -- Begin function TIM_GetCounter
	.globl	TIM_GetCounter
	.p2align	1
	.type	TIM_GetCounter,%function
	.code	16                      @ @TIM_GetCounter
	.thumb_func
TIM_GetCounter:
.Lfunc_begin7:
	.loc	3 439 0                 @ ../Libraries/STM32F4xx_StdPeriph_Driver/src/stm32f4xx_tim.c:439:0
	.fnstart
	.cfi_startproc
@ %bb.0:
	@DEBUG_VALUE: TIM_GetCounter:TIMx <- $r0
	@DEBUG_VALUE: TIM_GetCounter:TIMx <- $r0
	.loc	3 444 16 prologue_end   @ ../Libraries/STM32F4xx_StdPeriph_Driver/src/stm32f4xx_tim.c:444:16
	ldr	r0, [r0, #36]
.Ltmp84:
	.loc	3 444 3 is_stmt 0       @ ../Libraries/STM32F4xx_StdPeriph_Driver/src/stm32f4xx_tim.c:444:3
	bx	lr
.Ltmp85:
.Lfunc_end7:
	.size	TIM_GetCounter, .Lfunc_end7-TIM_GetCounter
	.cfi_endproc
	.cantunwind
	.fnend
                                        @ -- End function
	.section	.text.TIM_GetPrescaler,"ax",%progbits
	.hidden	TIM_GetPrescaler        @ -- Begin function TIM_GetPrescaler
	.globl	TIM_GetPrescaler
	.p2align	1
	.type	TIM_GetPrescaler,%function
	.code	16                      @ @TIM_GetPrescaler
	.thumb_func
TIM_GetPrescaler:
.Lfunc_begin8:
	.loc	3 453 0 is_stmt 1       @ ../Libraries/STM32F4xx_StdPeriph_Driver/src/stm32f4xx_tim.c:453:0
	.fnstart
	.cfi_startproc
@ %bb.0:
	@DEBUG_VALUE: TIM_GetPrescaler:TIMx <- $r0
	@DEBUG_VALUE: TIM_GetPrescaler:TIMx <- $r0
	.loc	3 458 16 prologue_end   @ ../Libraries/STM32F4xx_StdPeriph_Driver/src/stm32f4xx_tim.c:458:16
	ldrh	r0, [r0, #40]
.Ltmp86:
	.loc	3 458 3 is_stmt 0       @ ../Libraries/STM32F4xx_StdPeriph_Driver/src/stm32f4xx_tim.c:458:3
	bx	lr
.Ltmp87:
.Lfunc_end8:
	.size	TIM_GetPrescaler, .Lfunc_end8-TIM_GetPrescaler
	.cfi_endproc
	.cantunwind
	.fnend
                                        @ -- End function
	.section	.text.TIM_UpdateDisableConfig,"ax",%progbits
	.hidden	TIM_UpdateDisableConfig @ -- Begin function TIM_UpdateDisableConfig
	.globl	TIM_UpdateDisableConfig
	.p2align	1
	.type	TIM_UpdateDisableConfig,%function
	.code	16                      @ @TIM_UpdateDisableConfig
	.thumb_func
TIM_UpdateDisableConfig:
.Lfunc_begin9:
	.loc	3 469 0 is_stmt 1       @ ../Libraries/STM32F4xx_StdPeriph_Driver/src/stm32f4xx_tim.c:469:0
	.fnstart
	.cfi_startproc
@ %bb.0:
	@DEBUG_VALUE: TIM_UpdateDisableConfig:TIMx <- $r0
	@DEBUG_VALUE: TIM_UpdateDisableConfig:TIMx <- $r0
	@DEBUG_VALUE: TIM_UpdateDisableConfig:NewState <- $r1
	@DEBUG_VALUE: TIM_UpdateDisableConfig:NewState <- $r1
	.loc	3 0 0 prologue_end      @ ../Libraries/STM32F4xx_StdPeriph_Driver/src/stm32f4xx_tim.c:0:0
	ldrh	r2, [r0]
.Ltmp88:
	.loc	3 474 7                 @ ../Libraries/STM32F4xx_StdPeriph_Driver/src/stm32f4xx_tim.c:474:7
	cmp	r1, #0
	orr	r3, r2, #2
	it	eq
	biceq	r3, r2, #2
.Ltmp89:
	.loc	3 0 0 is_stmt 0         @ ../Libraries/STM32F4xx_StdPeriph_Driver/src/stm32f4xx_tim.c:0:0
	strh	r3, [r0]
.Ltmp90:
	.loc	3 484 1 is_stmt 1       @ ../Libraries/STM32F4xx_StdPeriph_Driver/src/stm32f4xx_tim.c:484:1
	bx	lr
.Ltmp91:
.Lfunc_end9:
	.size	TIM_UpdateDisableConfig, .Lfunc_end9-TIM_UpdateDisableConfig
	.cfi_endproc
	.cantunwind
	.fnend
                                        @ -- End function
	.section	.text.TIM_UpdateRequestConfig,"ax",%progbits
	.hidden	TIM_UpdateRequestConfig @ -- Begin function TIM_UpdateRequestConfig
	.globl	TIM_UpdateRequestConfig
	.p2align	1
	.type	TIM_UpdateRequestConfig,%function
	.code	16                      @ @TIM_UpdateRequestConfig
	.thumb_func
TIM_UpdateRequestConfig:
.Lfunc_begin10:
	.loc	3 498 0                 @ ../Libraries/STM32F4xx_StdPeriph_Driver/src/stm32f4xx_tim.c:498:0
	.fnstart
	.cfi_startproc
@ %bb.0:
	@DEBUG_VALUE: TIM_UpdateRequestConfig:TIMx <- $r0
	@DEBUG_VALUE: TIM_UpdateRequestConfig:TIMx <- $r0
	@DEBUG_VALUE: TIM_UpdateRequestConfig:TIM_UpdateSource <- $r1
	@DEBUG_VALUE: TIM_UpdateRequestConfig:TIM_UpdateSource <- $r1
	.loc	3 0 0 prologue_end      @ ../Libraries/STM32F4xx_StdPeriph_Driver/src/stm32f4xx_tim.c:0:0
	ldrh	r2, [r0]
.Ltmp92:
	.loc	3 503 7                 @ ../Libraries/STM32F4xx_StdPeriph_Driver/src/stm32f4xx_tim.c:503:7
	cmp	r1, #0
	orr	r3, r2, #4
	it	eq
	biceq	r3, r2, #4
.Ltmp93:
	.loc	3 0 0 is_stmt 0         @ ../Libraries/STM32F4xx_StdPeriph_Driver/src/stm32f4xx_tim.c:0:0
	strh	r3, [r0]
.Ltmp94:
	.loc	3 513 1 is_stmt 1       @ ../Libraries/STM32F4xx_StdPeriph_Driver/src/stm32f4xx_tim.c:513:1
	bx	lr
.Ltmp95:
.Lfunc_end10:
	.size	TIM_UpdateRequestConfig, .Lfunc_end10-TIM_UpdateRequestConfig
	.cfi_endproc
	.cantunwind
	.fnend
                                        @ -- End function
	.section	.text.TIM_ARRPreloadConfig,"ax",%progbits
	.hidden	TIM_ARRPreloadConfig    @ -- Begin function TIM_ARRPreloadConfig
	.globl	TIM_ARRPreloadConfig
	.p2align	1
	.type	TIM_ARRPreloadConfig,%function
	.code	16                      @ @TIM_ARRPreloadConfig
	.thumb_func
TIM_ARRPreloadConfig:
.Lfunc_begin11:
	.loc	3 523 0                 @ ../Libraries/STM32F4xx_StdPeriph_Driver/src/stm32f4xx_tim.c:523:0
	.fnstart
	.cfi_startproc
@ %bb.0:
	@DEBUG_VALUE: TIM_ARRPreloadConfig:TIMx <- $r0
	@DEBUG_VALUE: TIM_ARRPreloadConfig:TIMx <- $r0
	@DEBUG_VALUE: TIM_ARRPreloadConfig:NewState <- $r1
	@DEBUG_VALUE: TIM_ARRPreloadConfig:NewState <- $r1
	.loc	3 0 0 prologue_end      @ ../Libraries/STM32F4xx_StdPeriph_Driver/src/stm32f4xx_tim.c:0:0
	ldrh	r2, [r0]
.Ltmp96:
	.loc	3 528 7                 @ ../Libraries/STM32F4xx_StdPeriph_Driver/src/stm32f4xx_tim.c:528:7
	cmp	r1, #0
	orr	r3, r2, #128
	it	eq
	biceq	r3, r2, #128
.Ltmp97:
	.loc	3 0 0 is_stmt 0         @ ../Libraries/STM32F4xx_StdPeriph_Driver/src/stm32f4xx_tim.c:0:0
	strh	r3, [r0]
.Ltmp98:
	.loc	3 538 1 is_stmt 1       @ ../Libraries/STM32F4xx_StdPeriph_Driver/src/stm32f4xx_tim.c:538:1
	bx	lr
.Ltmp99:
.Lfunc_end11:
	.size	TIM_ARRPreloadConfig, .Lfunc_end11-TIM_ARRPreloadConfig
	.cfi_endproc
	.cantunwind
	.fnend
                                        @ -- End function
	.section	.text.TIM_SelectOnePulseMode,"ax",%progbits
	.hidden	TIM_SelectOnePulseMode  @ -- Begin function TIM_SelectOnePulseMode
	.globl	TIM_SelectOnePulseMode
	.p2align	1
	.type	TIM_SelectOnePulseMode,%function
	.code	16                      @ @TIM_SelectOnePulseMode
	.thumb_func
TIM_SelectOnePulseMode:
.Lfunc_begin12:
	.loc	3 550 0                 @ ../Libraries/STM32F4xx_StdPeriph_Driver/src/stm32f4xx_tim.c:550:0
	.fnstart
	.cfi_startproc
@ %bb.0:
	@DEBUG_VALUE: TIM_SelectOnePulseMode:TIMx <- $r0
	@DEBUG_VALUE: TIM_SelectOnePulseMode:TIMx <- $r0
	@DEBUG_VALUE: TIM_SelectOnePulseMode:TIM_OPMode <- $r1
	@DEBUG_VALUE: TIM_SelectOnePulseMode:TIM_OPMode <- $r1
	.loc	3 556 13 prologue_end   @ ../Libraries/STM32F4xx_StdPeriph_Driver/src/stm32f4xx_tim.c:556:13
	ldrh	r2, [r0]
	bic	r2, r2, #8
	strh	r2, [r0]
	.loc	3 559 13                @ ../Libraries/STM32F4xx_StdPeriph_Driver/src/stm32f4xx_tim.c:559:13
	ldrh	r2, [r0]
	orrs	r1, r2
.Ltmp100:
	strh	r1, [r0]
	.loc	3 560 1                 @ ../Libraries/STM32F4xx_StdPeriph_Driver/src/stm32f4xx_tim.c:560:1
	bx	lr
.Ltmp101:
.Lfunc_end12:
	.size	TIM_SelectOnePulseMode, .Lfunc_end12-TIM_SelectOnePulseMode
	.cfi_endproc
	.cantunwind
	.fnend
                                        @ -- End function
	.section	.text.TIM_SetClockDivision,"ax",%progbits
	.hidden	TIM_SetClockDivision    @ -- Begin function TIM_SetClockDivision
	.globl	TIM_SetClockDivision
	.p2align	1
	.type	TIM_SetClockDivision,%function
	.code	16                      @ @TIM_SetClockDivision
	.thumb_func
TIM_SetClockDivision:
.Lfunc_begin13:
	.loc	3 573 0                 @ ../Libraries/STM32F4xx_StdPeriph_Driver/src/stm32f4xx_tim.c:573:0
	.fnstart
	.cfi_startproc
@ %bb.0:
	@DEBUG_VALUE: TIM_SetClockDivision:TIMx <- $r0
	@DEBUG_VALUE: TIM_SetClockDivision:TIMx <- $r0
	@DEBUG_VALUE: TIM_SetClockDivision:TIM_CKD <- $r1
	@DEBUG_VALUE: TIM_SetClockDivision:TIM_CKD <- $r1
	.loc	3 579 13 prologue_end   @ ../Libraries/STM32F4xx_StdPeriph_Driver/src/stm32f4xx_tim.c:579:13
	ldrh	r2, [r0]
	bic	r2, r2, #768
	strh	r2, [r0]
	.loc	3 582 13                @ ../Libraries/STM32F4xx_StdPeriph_Driver/src/stm32f4xx_tim.c:582:13
	ldrh	r2, [r0]
	orrs	r1, r2
.Ltmp102:
	strh	r1, [r0]
	.loc	3 583 1                 @ ../Libraries/STM32F4xx_StdPeriph_Driver/src/stm32f4xx_tim.c:583:1
	bx	lr
.Ltmp103:
.Lfunc_end13:
	.size	TIM_SetClockDivision, .Lfunc_end13-TIM_SetClockDivision
	.cfi_endproc
	.cantunwind
	.fnend
                                        @ -- End function
	.section	.text.TIM_Cmd,"ax",%progbits
	.hidden	TIM_Cmd                 @ -- Begin function TIM_Cmd
	.globl	TIM_Cmd
	.p2align	1
	.type	TIM_Cmd,%function
	.code	16                      @ @TIM_Cmd
	.thumb_func
TIM_Cmd:
.Lfunc_begin14:
	.loc	3 593 0                 @ ../Libraries/STM32F4xx_StdPeriph_Driver/src/stm32f4xx_tim.c:593:0
	.fnstart
	.cfi_startproc
@ %bb.0:
	@DEBUG_VALUE: TIM_Cmd:TIMx <- $r0
	@DEBUG_VALUE: TIM_Cmd:TIMx <- $r0
	@DEBUG_VALUE: TIM_Cmd:NewState <- $r1
	@DEBUG_VALUE: TIM_Cmd:NewState <- $r1
	.loc	3 0 0 prologue_end      @ ../Libraries/STM32F4xx_StdPeriph_Driver/src/stm32f4xx_tim.c:0:0
	ldrh	r2, [r0]
.Ltmp104:
	.loc	3 598 7                 @ ../Libraries/STM32F4xx_StdPeriph_Driver/src/stm32f4xx_tim.c:598:7
	cmp	r1, #0
	orr	r3, r2, #1
	it	eq
	biceq	r3, r2, #1
.Ltmp105:
	.loc	3 0 0 is_stmt 0         @ ../Libraries/STM32F4xx_StdPeriph_Driver/src/stm32f4xx_tim.c:0:0
	strh	r3, [r0]
.Ltmp106:
	.loc	3 608 1 is_stmt 1       @ ../Libraries/STM32F4xx_StdPeriph_Driver/src/stm32f4xx_tim.c:608:1
	bx	lr
.Ltmp107:
.Lfunc_end14:
	.size	TIM_Cmd, .Lfunc_end14-TIM_Cmd
	.cfi_endproc
	.cantunwind
	.fnend
                                        @ -- End function
	.section	.text.TIM_OC1Init,"ax",%progbits
	.hidden	TIM_OC1Init             @ -- Begin function TIM_OC1Init
	.globl	TIM_OC1Init
	.p2align	1
	.type	TIM_OC1Init,%function
	.code	16                      @ @TIM_OC1Init
	.thumb_func
TIM_OC1Init:
.Lfunc_begin15:
	.loc	3 674 0                 @ ../Libraries/STM32F4xx_StdPeriph_Driver/src/stm32f4xx_tim.c:674:0
	.fnstart
	.cfi_startproc
@ %bb.0:
	.save	{r4, lr}
	push	{r4, lr}
	.cfi_def_cfa_offset 8
	.cfi_offset lr, -4
	.cfi_offset r4, -8
	@DEBUG_VALUE: TIM_OC1Init:TIMx <- $r0
	@DEBUG_VALUE: TIM_OC1Init:TIMx <- $r0
	@DEBUG_VALUE: TIM_OC1Init:TIM_OCInitStruct <- $r1
	@DEBUG_VALUE: TIM_OC1Init:TIM_OCInitStruct <- $r1
.Ltmp108:
	@DEBUG_VALUE: TIM_OC1Init:tmpccmrx <- 0
	@DEBUG_VALUE: TIM_OC1Init:tmpccer <- 0
	@DEBUG_VALUE: TIM_OC1Init:tmpcr2 <- 0
	.loc	3 684 14 prologue_end   @ ../Libraries/STM32F4xx_StdPeriph_Driver/src/stm32f4xx_tim.c:684:14
	ldrh	r2, [r0, #32]
	bic	r2, r2, #1
	strh	r2, [r0, #32]
	.loc	3 687 19                @ ../Libraries/STM32F4xx_StdPeriph_Driver/src/stm32f4xx_tim.c:687:19
	ldrh	r4, [r0, #32]
.Ltmp109:
	@DEBUG_VALUE: TIM_OC1Init:tmpccer <- $r4
	.loc	3 689 19                @ ../Libraries/STM32F4xx_StdPeriph_Driver/src/stm32f4xx_tim.c:689:19
	ldrh.w	lr, [r0, #4]
.Ltmp110:
	@DEBUG_VALUE: TIM_OC1Init:tmpcr2 <- [DW_OP_constu 18446744073709551359, DW_OP_and, DW_OP_stack_value] undef
	@DEBUG_VALUE: TIM_OC1Init:tmpcr2 <- undef
	.loc	3 692 20                @ ../Libraries/STM32F4xx_StdPeriph_Driver/src/stm32f4xx_tim.c:692:20
	ldrh	r3, [r0, #24]
.Ltmp111:
	@DEBUG_VALUE: TIM_OC1Init:tmpccmrx <- [DW_OP_constu 18446744073709551503, DW_OP_and, DW_OP_stack_value] $r3
	@DEBUG_VALUE: TIM_OC1Init:tmpccmrx <- $r3
	.loc	3 698 33                @ ../Libraries/STM32F4xx_StdPeriph_Driver/src/stm32f4xx_tim.c:698:33
	ldrh	r2, [r1]
	.loc	3 696 12                @ ../Libraries/STM32F4xx_StdPeriph_Driver/src/stm32f4xx_tim.c:696:12
	bic	r3, r3, #115
.Ltmp112:
	@DEBUG_VALUE: TIM_OC1Init:tmpccmrx <- $r3
	.loc	3 698 12                @ ../Libraries/STM32F4xx_StdPeriph_Driver/src/stm32f4xx_tim.c:698:12
	orr.w	r12, r3, r2
.Ltmp113:
	@DEBUG_VALUE: TIM_OC1Init:tmpccmrx <- $r12
	.loc	3 703 32                @ ../Libraries/STM32F4xx_StdPeriph_Driver/src/stm32f4xx_tim.c:703:32
	ldrh	r2, [r1, #12]
	.loc	3 701 11                @ ../Libraries/STM32F4xx_StdPeriph_Driver/src/stm32f4xx_tim.c:701:11
	bic	r3, r4, #2
.Ltmp114:
	@DEBUG_VALUE: TIM_OC1Init:tmpccer <- $r3
	.loc	3 0 11 is_stmt 0        @ ../Libraries/STM32F4xx_StdPeriph_Driver/src/stm32f4xx_tim.c:0:11
	movw	r4, #1024
	movt	r4, #16385
	.loc	3 703 11 is_stmt 1      @ ../Libraries/STM32F4xx_StdPeriph_Driver/src/stm32f4xx_tim.c:703:11
	orrs	r2, r3
.Ltmp115:
	@DEBUG_VALUE: TIM_OC1Init:tmpccer <- $r2
	.loc	3 706 32                @ ../Libraries/STM32F4xx_StdPeriph_Driver/src/stm32f4xx_tim.c:706:32
	ldrh	r3, [r1, #2]
	.loc	3 706 11 is_stmt 0      @ ../Libraries/STM32F4xx_StdPeriph_Driver/src/stm32f4xx_tim.c:706:11
	orrs	r2, r3
.Ltmp116:
	@DEBUG_VALUE: TIM_OC1Init:tmpccer <- $r2
	.loc	3 708 21 is_stmt 1      @ ../Libraries/STM32F4xx_StdPeriph_Driver/src/stm32f4xx_tim.c:708:21
	orr	r3, r0, #1024
	cmp	r3, r4
	bne	.LBB15_2
.Ltmp117:
@ %bb.1:
	@DEBUG_VALUE: TIM_OC1Init:tmpccer <- $r2
	@DEBUG_VALUE: TIM_OC1Init:tmpccmrx <- $r12
	@DEBUG_VALUE: TIM_OC1Init:TIM_OCInitStruct <- $r1
	@DEBUG_VALUE: TIM_OC1Init:TIMx <- $r0
	.loc	3 728 33                @ ../Libraries/STM32F4xx_StdPeriph_Driver/src/stm32f4xx_tim.c:728:33
	ldrh	r3, [r1, #16]
	.loc	3 726 12                @ ../Libraries/STM32F4xx_StdPeriph_Driver/src/stm32f4xx_tim.c:726:12
	bic	r4, lr, #768
.Ltmp118:
	@DEBUG_VALUE: TIM_OC1Init:tmpcr2 <- $r4
	.loc	3 716 13                @ ../Libraries/STM32F4xx_StdPeriph_Driver/src/stm32f4xx_tim.c:716:13
	bic	r2, r2, #12
.Ltmp119:
	@DEBUG_VALUE: TIM_OC1Init:tmpccer <- $r2
	.loc	3 728 12                @ ../Libraries/STM32F4xx_StdPeriph_Driver/src/stm32f4xx_tim.c:728:12
	orrs	r3, r4
.Ltmp120:
	@DEBUG_VALUE: TIM_OC1Init:tmpcr2 <- $r3
	.loc	3 730 33                @ ../Libraries/STM32F4xx_StdPeriph_Driver/src/stm32f4xx_tim.c:730:33
	ldrh	r4, [r1, #18]
	.loc	3 730 12 is_stmt 0      @ ../Libraries/STM32F4xx_StdPeriph_Driver/src/stm32f4xx_tim.c:730:12
	orr.w	lr, r3, r4
.Ltmp121:
	@DEBUG_VALUE: TIM_OC1Init:tmpcr2 <- $lr
	.loc	3 718 34 is_stmt 1      @ ../Libraries/STM32F4xx_StdPeriph_Driver/src/stm32f4xx_tim.c:718:34
	ldrh	r3, [r1, #14]
	.loc	3 720 13                @ ../Libraries/STM32F4xx_StdPeriph_Driver/src/stm32f4xx_tim.c:720:13
	bic	r3, r3, #4
	orrs	r2, r3
.Ltmp122:
	@DEBUG_VALUE: TIM_OC1Init:tmpccer <- $r2
	.loc	3 723 34                @ ../Libraries/STM32F4xx_StdPeriph_Driver/src/stm32f4xx_tim.c:723:34
	ldrh	r3, [r1, #4]
	.loc	3 723 13 is_stmt 0      @ ../Libraries/STM32F4xx_StdPeriph_Driver/src/stm32f4xx_tim.c:723:13
	orrs	r2, r3
.Ltmp123:
	@DEBUG_VALUE: TIM_OC1Init:tmpccer <- $r2
.LBB15_2:
	@DEBUG_VALUE: TIM_OC1Init:tmpccer <- $r2
	@DEBUG_VALUE: TIM_OC1Init:tmpccmrx <- $r12
	@DEBUG_VALUE: TIM_OC1Init:TIM_OCInitStruct <- $r1
	@DEBUG_VALUE: TIM_OC1Init:TIMx <- $r0
	@DEBUG_VALUE: TIM_OC1Init:tmpccer <- $r2
	@DEBUG_VALUE: TIM_OC1Init:tmpcr2 <- $lr
	.loc	3 733 13 is_stmt 1      @ ../Libraries/STM32F4xx_StdPeriph_Driver/src/stm32f4xx_tim.c:733:13
	strh.w	lr, [r0, #4]
	.loc	3 736 15                @ ../Libraries/STM32F4xx_StdPeriph_Driver/src/stm32f4xx_tim.c:736:15
	strh.w	r12, [r0, #24]
	.loc	3 739 34                @ ../Libraries/STM32F4xx_StdPeriph_Driver/src/stm32f4xx_tim.c:739:34
	ldr	r1, [r1, #8]
.Ltmp124:
	.loc	3 739 14 is_stmt 0      @ ../Libraries/STM32F4xx_StdPeriph_Driver/src/stm32f4xx_tim.c:739:14
	str	r1, [r0, #52]
	.loc	3 742 14 is_stmt 1      @ ../Libraries/STM32F4xx_StdPeriph_Driver/src/stm32f4xx_tim.c:742:14
	strh	r2, [r0, #32]
	.loc	3 743 1                 @ ../Libraries/STM32F4xx_StdPeriph_Driver/src/stm32f4xx_tim.c:743:1
	pop	{r4, pc}
.Ltmp125:
.Lfunc_end15:
	.size	TIM_OC1Init, .Lfunc_end15-TIM_OC1Init
	.cfi_endproc
	.cantunwind
	.fnend
                                        @ -- End function
	.section	.text.TIM_OC2Init,"ax",%progbits
	.hidden	TIM_OC2Init             @ -- Begin function TIM_OC2Init
	.globl	TIM_OC2Init
	.p2align	1
	.type	TIM_OC2Init,%function
	.code	16                      @ @TIM_OC2Init
	.thumb_func
TIM_OC2Init:
.Lfunc_begin16:
	.loc	3 755 0                 @ ../Libraries/STM32F4xx_StdPeriph_Driver/src/stm32f4xx_tim.c:755:0
	.fnstart
	.cfi_startproc
@ %bb.0:
	.save	{r4, lr}
	push	{r4, lr}
	.cfi_def_cfa_offset 8
	.cfi_offset lr, -4
	.cfi_offset r4, -8
	@DEBUG_VALUE: TIM_OC2Init:TIMx <- $r0
	@DEBUG_VALUE: TIM_OC2Init:TIMx <- $r0
	@DEBUG_VALUE: TIM_OC2Init:TIM_OCInitStruct <- $r1
	@DEBUG_VALUE: TIM_OC2Init:TIM_OCInitStruct <- $r1
.Ltmp126:
	@DEBUG_VALUE: TIM_OC2Init:tmpccmrx <- 0
	@DEBUG_VALUE: TIM_OC2Init:tmpccer <- 0
	@DEBUG_VALUE: TIM_OC2Init:tmpcr2 <- 0
	.loc	3 765 14 prologue_end   @ ../Libraries/STM32F4xx_StdPeriph_Driver/src/stm32f4xx_tim.c:765:14
	ldrh	r2, [r0, #32]
	bic	r2, r2, #16
	strh	r2, [r0, #32]
	.loc	3 768 19                @ ../Libraries/STM32F4xx_StdPeriph_Driver/src/stm32f4xx_tim.c:768:19
	ldrh	r4, [r0, #32]
.Ltmp127:
	@DEBUG_VALUE: TIM_OC2Init:tmpccer <- $r4
	.loc	3 770 19                @ ../Libraries/STM32F4xx_StdPeriph_Driver/src/stm32f4xx_tim.c:770:19
	ldrh.w	lr, [r0, #4]
.Ltmp128:
	@DEBUG_VALUE: TIM_OC2Init:tmpcr2 <- [DW_OP_constu 18446744073709550591, DW_OP_and, DW_OP_stack_value] undef
	@DEBUG_VALUE: TIM_OC2Init:tmpcr2 <- undef
	.loc	3 773 20                @ ../Libraries/STM32F4xx_StdPeriph_Driver/src/stm32f4xx_tim.c:773:20
	ldrh	r3, [r0, #24]
.Ltmp129:
	@DEBUG_VALUE: TIM_OC2Init:tmpccmrx <- [DW_OP_constu 18446744073709522943, DW_OP_and, DW_OP_stack_value] $r3
	@DEBUG_VALUE: TIM_OC2Init:tmpccmrx <- $r3
	.loc	3 780 44                @ ../Libraries/STM32F4xx_StdPeriph_Driver/src/stm32f4xx_tim.c:780:44
	ldrh	r2, [r1]
	.loc	3 777 12                @ ../Libraries/STM32F4xx_StdPeriph_Driver/src/stm32f4xx_tim.c:777:12
	bic	r3, r3, #29440
.Ltmp130:
	@DEBUG_VALUE: TIM_OC2Init:tmpccmrx <- $r3
	.loc	3 780 12                @ ../Libraries/STM32F4xx_StdPeriph_Driver/src/stm32f4xx_tim.c:780:12
	orr.w	r12, r3, r2, lsl #8
.Ltmp131:
	@DEBUG_VALUE: TIM_OC2Init:tmpccmrx <- $r12
	.loc	3 785 43                @ ../Libraries/STM32F4xx_StdPeriph_Driver/src/stm32f4xx_tim.c:785:43
	ldrh	r2, [r1, #12]
	.loc	3 783 11                @ ../Libraries/STM32F4xx_StdPeriph_Driver/src/stm32f4xx_tim.c:783:11
	bic	r3, r4, #32
.Ltmp132:
	@DEBUG_VALUE: TIM_OC2Init:tmpccer <- $r3
	.loc	3 0 11 is_stmt 0        @ ../Libraries/STM32F4xx_StdPeriph_Driver/src/stm32f4xx_tim.c:0:11
	movw	r4, #1024
	movt	r4, #16385
	.loc	3 785 11 is_stmt 1      @ ../Libraries/STM32F4xx_StdPeriph_Driver/src/stm32f4xx_tim.c:785:11
	orr.w	r2, r3, r2, lsl #4
.Ltmp133:
	@DEBUG_VALUE: TIM_OC2Init:tmpccer <- $r2
	.loc	3 788 43                @ ../Libraries/STM32F4xx_StdPeriph_Driver/src/stm32f4xx_tim.c:788:43
	ldrh	r3, [r1, #2]
	.loc	3 788 11 is_stmt 0      @ ../Libraries/STM32F4xx_StdPeriph_Driver/src/stm32f4xx_tim.c:788:11
	orr.w	r2, r2, r3, lsl #4
.Ltmp134:
	@DEBUG_VALUE: TIM_OC2Init:tmpccer <- $r2
	.loc	3 790 21 is_stmt 1      @ ../Libraries/STM32F4xx_StdPeriph_Driver/src/stm32f4xx_tim.c:790:21
	orr	r3, r0, #1024
	cmp	r3, r4
	bne	.LBB16_2
.Ltmp135:
@ %bb.1:
	@DEBUG_VALUE: TIM_OC2Init:tmpccer <- $r2
	@DEBUG_VALUE: TIM_OC2Init:tmpccmrx <- $r12
	@DEBUG_VALUE: TIM_OC2Init:TIM_OCInitStruct <- $r1
	@DEBUG_VALUE: TIM_OC2Init:TIMx <- $r0
	.loc	3 810 44                @ ../Libraries/STM32F4xx_StdPeriph_Driver/src/stm32f4xx_tim.c:810:44
	ldrh	r3, [r1, #16]
	.loc	3 808 12                @ ../Libraries/STM32F4xx_StdPeriph_Driver/src/stm32f4xx_tim.c:808:12
	bic	r4, lr, #3072
.Ltmp136:
	@DEBUG_VALUE: TIM_OC2Init:tmpcr2 <- $r4
	.loc	3 798 13                @ ../Libraries/STM32F4xx_StdPeriph_Driver/src/stm32f4xx_tim.c:798:13
	bic	r2, r2, #192
.Ltmp137:
	@DEBUG_VALUE: TIM_OC2Init:tmpccer <- $r2
	.loc	3 810 12                @ ../Libraries/STM32F4xx_StdPeriph_Driver/src/stm32f4xx_tim.c:810:12
	orr.w	r3, r4, r3, lsl #2
.Ltmp138:
	@DEBUG_VALUE: TIM_OC2Init:tmpcr2 <- $r3
	.loc	3 812 44                @ ../Libraries/STM32F4xx_StdPeriph_Driver/src/stm32f4xx_tim.c:812:44
	ldrh	r4, [r1, #18]
	.loc	3 812 12 is_stmt 0      @ ../Libraries/STM32F4xx_StdPeriph_Driver/src/stm32f4xx_tim.c:812:12
	orr.w	lr, r3, r4, lsl #2
.Ltmp139:
	@DEBUG_VALUE: TIM_OC2Init:tmpcr2 <- $lr
	.loc	3 800 45 is_stmt 1      @ ../Libraries/STM32F4xx_StdPeriph_Driver/src/stm32f4xx_tim.c:800:45
	ldrh	r3, [r1, #14]
	mvn	r4, #64
	.loc	3 802 13                @ ../Libraries/STM32F4xx_StdPeriph_Driver/src/stm32f4xx_tim.c:802:13
	and.w	r3, r4, r3, lsl #4
	orrs	r2, r3
.Ltmp140:
	@DEBUG_VALUE: TIM_OC2Init:tmpccer <- $r2
	.loc	3 805 45                @ ../Libraries/STM32F4xx_StdPeriph_Driver/src/stm32f4xx_tim.c:805:45
	ldrh	r3, [r1, #4]
	.loc	3 805 13 is_stmt 0      @ ../Libraries/STM32F4xx_StdPeriph_Driver/src/stm32f4xx_tim.c:805:13
	orr.w	r2, r2, r3, lsl #4
.Ltmp141:
	@DEBUG_VALUE: TIM_OC2Init:tmpccer <- $r2
.LBB16_2:
	@DEBUG_VALUE: TIM_OC2Init:tmpccer <- $r2
	@DEBUG_VALUE: TIM_OC2Init:tmpccmrx <- $r12
	@DEBUG_VALUE: TIM_OC2Init:TIM_OCInitStruct <- $r1
	@DEBUG_VALUE: TIM_OC2Init:TIMx <- $r0
	@DEBUG_VALUE: TIM_OC2Init:tmpccer <- $r2
	@DEBUG_VALUE: TIM_OC2Init:tmpcr2 <- $lr
	.loc	3 815 13 is_stmt 1      @ ../Libraries/STM32F4xx_StdPeriph_Driver/src/stm32f4xx_tim.c:815:13
	strh.w	lr, [r0, #4]
	.loc	3 818 15                @ ../Libraries/STM32F4xx_StdPeriph_Driver/src/stm32f4xx_tim.c:818:15
	strh.w	r12, [r0, #24]
	.loc	3 821 34                @ ../Libraries/STM32F4xx_StdPeriph_Driver/src/stm32f4xx_tim.c:821:34
	ldr	r1, [r1, #8]
.Ltmp142:
	.loc	3 821 14 is_stmt 0      @ ../Libraries/STM32F4xx_StdPeriph_Driver/src/stm32f4xx_tim.c:821:14
	str	r1, [r0, #56]
	.loc	3 824 14 is_stmt 1      @ ../Libraries/STM32F4xx_StdPeriph_Driver/src/stm32f4xx_tim.c:824:14
	strh	r2, [r0, #32]
	.loc	3 825 1                 @ ../Libraries/STM32F4xx_StdPeriph_Driver/src/stm32f4xx_tim.c:825:1
	pop	{r4, pc}
.Ltmp143:
.Lfunc_end16:
	.size	TIM_OC2Init, .Lfunc_end16-TIM_OC2Init
	.cfi_endproc
	.cantunwind
	.fnend
                                        @ -- End function
	.section	.text.TIM_OC3Init,"ax",%progbits
	.hidden	TIM_OC3Init             @ -- Begin function TIM_OC3Init
	.globl	TIM_OC3Init
	.p2align	1
	.type	TIM_OC3Init,%function
	.code	16                      @ @TIM_OC3Init
	.thumb_func
TIM_OC3Init:
.Lfunc_begin17:
	.loc	3 836 0                 @ ../Libraries/STM32F4xx_StdPeriph_Driver/src/stm32f4xx_tim.c:836:0
	.fnstart
	.cfi_startproc
@ %bb.0:
	.save	{r4, lr}
	push	{r4, lr}
	.cfi_def_cfa_offset 8
	.cfi_offset lr, -4
	.cfi_offset r4, -8
	@DEBUG_VALUE: TIM_OC3Init:TIMx <- $r0
	@DEBUG_VALUE: TIM_OC3Init:TIMx <- $r0
	@DEBUG_VALUE: TIM_OC3Init:TIM_OCInitStruct <- $r1
	@DEBUG_VALUE: TIM_OC3Init:TIM_OCInitStruct <- $r1
.Ltmp144:
	@DEBUG_VALUE: TIM_OC3Init:tmpccmrx <- 0
	@DEBUG_VALUE: TIM_OC3Init:tmpccer <- 0
	@DEBUG_VALUE: TIM_OC3Init:tmpcr2 <- 0
	.loc	3 846 14 prologue_end   @ ../Libraries/STM32F4xx_StdPeriph_Driver/src/stm32f4xx_tim.c:846:14
	ldrh	r2, [r0, #32]
	bic	r2, r2, #256
	strh	r2, [r0, #32]
	.loc	3 849 19                @ ../Libraries/STM32F4xx_StdPeriph_Driver/src/stm32f4xx_tim.c:849:19
	ldrh	r4, [r0, #32]
.Ltmp145:
	@DEBUG_VALUE: TIM_OC3Init:tmpccer <- $r4
	.loc	3 851 19                @ ../Libraries/STM32F4xx_StdPeriph_Driver/src/stm32f4xx_tim.c:851:19
	ldrh.w	lr, [r0, #4]
.Ltmp146:
	@DEBUG_VALUE: TIM_OC3Init:tmpcr2 <- [DW_OP_constu 18446744073709547519, DW_OP_and, DW_OP_stack_value] undef
	@DEBUG_VALUE: TIM_OC3Init:tmpcr2 <- undef
	.loc	3 854 20                @ ../Libraries/STM32F4xx_StdPeriph_Driver/src/stm32f4xx_tim.c:854:20
	ldrh	r3, [r0, #28]
.Ltmp147:
	@DEBUG_VALUE: TIM_OC3Init:tmpccmrx <- [DW_OP_constu 18446744073709551503, DW_OP_and, DW_OP_stack_value] $r3
	@DEBUG_VALUE: TIM_OC3Init:tmpccmrx <- $r3
	.loc	3 860 33                @ ../Libraries/STM32F4xx_StdPeriph_Driver/src/stm32f4xx_tim.c:860:33
	ldrh	r2, [r1]
	.loc	3 858 12                @ ../Libraries/STM32F4xx_StdPeriph_Driver/src/stm32f4xx_tim.c:858:12
	bic	r3, r3, #115
.Ltmp148:
	@DEBUG_VALUE: TIM_OC3Init:tmpccmrx <- $r3
	.loc	3 860 12                @ ../Libraries/STM32F4xx_StdPeriph_Driver/src/stm32f4xx_tim.c:860:12
	orr.w	r12, r3, r2
.Ltmp149:
	@DEBUG_VALUE: TIM_OC3Init:tmpccmrx <- $r12
	.loc	3 865 43                @ ../Libraries/STM32F4xx_StdPeriph_Driver/src/stm32f4xx_tim.c:865:43
	ldrh	r2, [r1, #12]
	.loc	3 863 11                @ ../Libraries/STM32F4xx_StdPeriph_Driver/src/stm32f4xx_tim.c:863:11
	bic	r3, r4, #512
.Ltmp150:
	@DEBUG_VALUE: TIM_OC3Init:tmpccer <- $r3
	.loc	3 0 11 is_stmt 0        @ ../Libraries/STM32F4xx_StdPeriph_Driver/src/stm32f4xx_tim.c:0:11
	movw	r4, #1024
	movt	r4, #16385
	.loc	3 865 11 is_stmt 1      @ ../Libraries/STM32F4xx_StdPeriph_Driver/src/stm32f4xx_tim.c:865:11
	orr.w	r2, r3, r2, lsl #8
.Ltmp151:
	@DEBUG_VALUE: TIM_OC3Init:tmpccer <- $r2
	.loc	3 868 43                @ ../Libraries/STM32F4xx_StdPeriph_Driver/src/stm32f4xx_tim.c:868:43
	ldrh	r3, [r1, #2]
	.loc	3 868 11 is_stmt 0      @ ../Libraries/STM32F4xx_StdPeriph_Driver/src/stm32f4xx_tim.c:868:11
	orr.w	r2, r2, r3, lsl #8
.Ltmp152:
	@DEBUG_VALUE: TIM_OC3Init:tmpccer <- $r2
	.loc	3 870 21 is_stmt 1      @ ../Libraries/STM32F4xx_StdPeriph_Driver/src/stm32f4xx_tim.c:870:21
	orr	r3, r0, #1024
	cmp	r3, r4
	bne	.LBB17_2
.Ltmp153:
@ %bb.1:
	@DEBUG_VALUE: TIM_OC3Init:tmpccer <- $r2
	@DEBUG_VALUE: TIM_OC3Init:tmpccmrx <- $r12
	@DEBUG_VALUE: TIM_OC3Init:TIM_OCInitStruct <- $r1
	@DEBUG_VALUE: TIM_OC3Init:TIMx <- $r0
	.loc	3 890 44                @ ../Libraries/STM32F4xx_StdPeriph_Driver/src/stm32f4xx_tim.c:890:44
	ldrh	r3, [r1, #16]
	.loc	3 888 12                @ ../Libraries/STM32F4xx_StdPeriph_Driver/src/stm32f4xx_tim.c:888:12
	bic	r4, lr, #12288
.Ltmp154:
	@DEBUG_VALUE: TIM_OC3Init:tmpcr2 <- $r4
	.loc	3 878 13                @ ../Libraries/STM32F4xx_StdPeriph_Driver/src/stm32f4xx_tim.c:878:13
	bic	r2, r2, #3072
.Ltmp155:
	@DEBUG_VALUE: TIM_OC3Init:tmpccer <- $r2
	.loc	3 890 12                @ ../Libraries/STM32F4xx_StdPeriph_Driver/src/stm32f4xx_tim.c:890:12
	orr.w	r3, r4, r3, lsl #4
.Ltmp156:
	@DEBUG_VALUE: TIM_OC3Init:tmpcr2 <- $r3
	.loc	3 892 44                @ ../Libraries/STM32F4xx_StdPeriph_Driver/src/stm32f4xx_tim.c:892:44
	ldrh	r4, [r1, #18]
	.loc	3 892 12 is_stmt 0      @ ../Libraries/STM32F4xx_StdPeriph_Driver/src/stm32f4xx_tim.c:892:12
	orr.w	lr, r3, r4, lsl #4
.Ltmp157:
	@DEBUG_VALUE: TIM_OC3Init:tmpcr2 <- $lr
	.loc	3 880 45 is_stmt 1      @ ../Libraries/STM32F4xx_StdPeriph_Driver/src/stm32f4xx_tim.c:880:45
	ldrh	r3, [r1, #14]
	movw	r4, #1279
	.loc	3 880 61 is_stmt 0      @ ../Libraries/STM32F4xx_StdPeriph_Driver/src/stm32f4xx_tim.c:880:61
	lsls	r3, r3, #8
	.loc	3 882 13 is_stmt 1      @ ../Libraries/STM32F4xx_StdPeriph_Driver/src/stm32f4xx_tim.c:882:13
	bics	r3, r4
	orrs	r2, r3
.Ltmp158:
	@DEBUG_VALUE: TIM_OC3Init:tmpccer <- $r2
	.loc	3 885 45                @ ../Libraries/STM32F4xx_StdPeriph_Driver/src/stm32f4xx_tim.c:885:45
	ldrh	r3, [r1, #4]
	.loc	3 885 13 is_stmt 0      @ ../Libraries/STM32F4xx_StdPeriph_Driver/src/stm32f4xx_tim.c:885:13
	orr.w	r2, r2, r3, lsl #8
.Ltmp159:
	@DEBUG_VALUE: TIM_OC3Init:tmpccer <- $r2
.LBB17_2:
	@DEBUG_VALUE: TIM_OC3Init:tmpccer <- $r2
	@DEBUG_VALUE: TIM_OC3Init:tmpccmrx <- $r12
	@DEBUG_VALUE: TIM_OC3Init:TIM_OCInitStruct <- $r1
	@DEBUG_VALUE: TIM_OC3Init:TIMx <- $r0
	@DEBUG_VALUE: TIM_OC3Init:tmpccer <- $r2
	@DEBUG_VALUE: TIM_OC3Init:tmpcr2 <- $lr
	.loc	3 895 13 is_stmt 1      @ ../Libraries/STM32F4xx_StdPeriph_Driver/src/stm32f4xx_tim.c:895:13
	strh.w	lr, [r0, #4]
	.loc	3 898 15                @ ../Libraries/STM32F4xx_StdPeriph_Driver/src/stm32f4xx_tim.c:898:15
	strh.w	r12, [r0, #28]
	.loc	3 901 34                @ ../Libraries/STM32F4xx_StdPeriph_Driver/src/stm32f4xx_tim.c:901:34
	ldr	r1, [r1, #8]
.Ltmp160:
	.loc	3 901 14 is_stmt 0      @ ../Libraries/STM32F4xx_StdPeriph_Driver/src/stm32f4xx_tim.c:901:14
	str	r1, [r0, #60]
	.loc	3 904 14 is_stmt 1      @ ../Libraries/STM32F4xx_StdPeriph_Driver/src/stm32f4xx_tim.c:904:14
	strh	r2, [r0, #32]
	.loc	3 905 1                 @ ../Libraries/STM32F4xx_StdPeriph_Driver/src/stm32f4xx_tim.c:905:1
	pop	{r4, pc}
.Ltmp161:
.Lfunc_end17:
	.size	TIM_OC3Init, .Lfunc_end17-TIM_OC3Init
	.cfi_endproc
	.cantunwind
	.fnend
                                        @ -- End function
	.section	.text.TIM_OC4Init,"ax",%progbits
	.hidden	TIM_OC4Init             @ -- Begin function TIM_OC4Init
	.globl	TIM_OC4Init
	.p2align	1
	.type	TIM_OC4Init,%function
	.code	16                      @ @TIM_OC4Init
	.thumb_func
TIM_OC4Init:
.Lfunc_begin18:
	.loc	3 916 0                 @ ../Libraries/STM32F4xx_StdPeriph_Driver/src/stm32f4xx_tim.c:916:0
	.fnstart
	.cfi_startproc
@ %bb.0:
	.save	{r4, lr}
	push	{r4, lr}
	.cfi_def_cfa_offset 8
	.cfi_offset lr, -4
	.cfi_offset r4, -8
	@DEBUG_VALUE: TIM_OC4Init:TIMx <- $r0
	@DEBUG_VALUE: TIM_OC4Init:TIMx <- $r0
	@DEBUG_VALUE: TIM_OC4Init:TIM_OCInitStruct <- $r1
	@DEBUG_VALUE: TIM_OC4Init:TIM_OCInitStruct <- $r1
.Ltmp162:
	@DEBUG_VALUE: TIM_OC4Init:tmpccmrx <- 0
	@DEBUG_VALUE: TIM_OC4Init:tmpccer <- 0
	@DEBUG_VALUE: TIM_OC4Init:tmpcr2 <- 0
	.loc	3 926 14 prologue_end   @ ../Libraries/STM32F4xx_StdPeriph_Driver/src/stm32f4xx_tim.c:926:14
	ldrh	r2, [r0, #32]
	bic	r2, r2, #4096
	strh	r2, [r0, #32]
	.loc	3 929 19                @ ../Libraries/STM32F4xx_StdPeriph_Driver/src/stm32f4xx_tim.c:929:19
	ldrh.w	lr, [r0, #32]
.Ltmp163:
	@DEBUG_VALUE: TIM_OC4Init:tmpccer <- $lr
	.loc	3 931 19                @ ../Libraries/STM32F4xx_StdPeriph_Driver/src/stm32f4xx_tim.c:931:19
	ldrh	r4, [r0, #4]
.Ltmp164:
	@DEBUG_VALUE: TIM_OC4Init:tmpcr2 <- undef
	.loc	3 934 20                @ ../Libraries/STM32F4xx_StdPeriph_Driver/src/stm32f4xx_tim.c:934:20
	ldrh	r3, [r0, #28]
.Ltmp165:
	@DEBUG_VALUE: TIM_OC4Init:tmpccmrx <- [DW_OP_constu 18446744073709522943, DW_OP_and, DW_OP_stack_value] $r3
	@DEBUG_VALUE: TIM_OC4Init:tmpccmrx <- $r3
	.loc	3 941 44                @ ../Libraries/STM32F4xx_StdPeriph_Driver/src/stm32f4xx_tim.c:941:44
	ldrh	r2, [r1]
	.loc	3 938 12                @ ../Libraries/STM32F4xx_StdPeriph_Driver/src/stm32f4xx_tim.c:938:12
	bic	r3, r3, #29440
.Ltmp166:
	@DEBUG_VALUE: TIM_OC4Init:tmpccmrx <- $r3
	.loc	3 941 12                @ ../Libraries/STM32F4xx_StdPeriph_Driver/src/stm32f4xx_tim.c:941:12
	orr.w	r12, r3, r2, lsl #8
.Ltmp167:
	@DEBUG_VALUE: TIM_OC4Init:tmpccmrx <- $r12
	.loc	3 946 43                @ ../Libraries/STM32F4xx_StdPeriph_Driver/src/stm32f4xx_tim.c:946:43
	ldrh	r2, [r1, #12]
	.loc	3 944 11                @ ../Libraries/STM32F4xx_StdPeriph_Driver/src/stm32f4xx_tim.c:944:11
	bic	r3, lr, #8192
.Ltmp168:
	@DEBUG_VALUE: TIM_OC4Init:tmpccer <- $r3
	.loc	3 946 11                @ ../Libraries/STM32F4xx_StdPeriph_Driver/src/stm32f4xx_tim.c:946:11
	orr.w	r2, r3, r2, lsl #12
.Ltmp169:
	@DEBUG_VALUE: TIM_OC4Init:tmpccer <- $r2
	.loc	3 949 43                @ ../Libraries/STM32F4xx_StdPeriph_Driver/src/stm32f4xx_tim.c:949:43
	ldrh	r3, [r1, #2]
	.loc	3 949 11 is_stmt 0      @ ../Libraries/STM32F4xx_StdPeriph_Driver/src/stm32f4xx_tim.c:949:11
	orr.w	lr, r2, r3, lsl #12
.Ltmp170:
	@DEBUG_VALUE: TIM_OC4Init:tmpccer <- $lr
	.loc	3 0 11                  @ ../Libraries/STM32F4xx_StdPeriph_Driver/src/stm32f4xx_tim.c:0:11
	movw	r3, #1024
.Ltmp171:
	.loc	3 951 21 is_stmt 1      @ ../Libraries/STM32F4xx_StdPeriph_Driver/src/stm32f4xx_tim.c:951:21
	orr	r2, r0, #1024
	movt	r3, #16385
	cmp	r2, r3
.Ltmp172:
	.loc	3 957 44                @ ../Libraries/STM32F4xx_StdPeriph_Driver/src/stm32f4xx_tim.c:957:44
	ittt	eq
	ldrheq	r2, [r1, #16]
	.loc	3 955 12                @ ../Libraries/STM32F4xx_StdPeriph_Driver/src/stm32f4xx_tim.c:955:12
	biceq	r3, r4, #16384
.Ltmp173:
	@DEBUG_VALUE: TIM_OC4Init:tmpcr2 <- $r3
	.loc	3 957 12                @ ../Libraries/STM32F4xx_StdPeriph_Driver/src/stm32f4xx_tim.c:957:12
	orreq.w	r4, r3, r2, lsl #6
.Ltmp174:
	@DEBUG_VALUE: TIM_OC4Init:tmpcr2 <- $r4
	.loc	3 960 13                @ ../Libraries/STM32F4xx_StdPeriph_Driver/src/stm32f4xx_tim.c:960:13
	strh	r4, [r0, #4]
	.loc	3 963 15                @ ../Libraries/STM32F4xx_StdPeriph_Driver/src/stm32f4xx_tim.c:963:15
	strh.w	r12, [r0, #28]
	.loc	3 966 34                @ ../Libraries/STM32F4xx_StdPeriph_Driver/src/stm32f4xx_tim.c:966:34
	ldr	r1, [r1, #8]
.Ltmp175:
	.loc	3 966 14 is_stmt 0      @ ../Libraries/STM32F4xx_StdPeriph_Driver/src/stm32f4xx_tim.c:966:14
	str	r1, [r0, #64]
	.loc	3 969 14 is_stmt 1      @ ../Libraries/STM32F4xx_StdPeriph_Driver/src/stm32f4xx_tim.c:969:14
	strh.w	lr, [r0, #32]
	.loc	3 970 1                 @ ../Libraries/STM32F4xx_StdPeriph_Driver/src/stm32f4xx_tim.c:970:1
	pop	{r4, pc}
.Ltmp176:
.Lfunc_end18:
	.size	TIM_OC4Init, .Lfunc_end18-TIM_OC4Init
	.cfi_endproc
	.cantunwind
	.fnend
                                        @ -- End function
	.section	.text.TIM_OCStructInit,"ax",%progbits
	.hidden	TIM_OCStructInit        @ -- Begin function TIM_OCStructInit
	.globl	TIM_OCStructInit
	.p2align	1
	.type	TIM_OCStructInit,%function
	.code	16                      @ @TIM_OCStructInit
	.thumb_func
TIM_OCStructInit:
.Lfunc_begin19:
	.loc	3 979 0                 @ ../Libraries/STM32F4xx_StdPeriph_Driver/src/stm32f4xx_tim.c:979:0
	.fnstart
	.cfi_startproc
@ %bb.0:
	@DEBUG_VALUE: TIM_OCStructInit:TIM_OCInitStruct <- $r0
	movs	r1, #0
	@DEBUG_VALUE: TIM_OCStructInit:TIM_OCInitStruct <- $r0
.Ltmp177:
	.loc	3 983 38 prologue_end   @ ../Libraries/STM32F4xx_StdPeriph_Driver/src/stm32f4xx_tim.c:983:38
	strh	r1, [r0, #4]
	.loc	3 981 32                @ ../Libraries/STM32F4xx_StdPeriph_Driver/src/stm32f4xx_tim.c:981:32
	str	r1, [r0]
	.loc	3 984 31                @ ../Libraries/STM32F4xx_StdPeriph_Driver/src/stm32f4xx_tim.c:984:31
	strd	r1, r1, [r0, #8]
	str	r1, [r0, #16]
	.loc	3 989 1                 @ ../Libraries/STM32F4xx_StdPeriph_Driver/src/stm32f4xx_tim.c:989:1
	bx	lr
.Ltmp178:
.Lfunc_end19:
	.size	TIM_OCStructInit, .Lfunc_end19-TIM_OCStructInit
	.cfi_endproc
	.cantunwind
	.fnend
                                        @ -- End function
	.section	.text.TIM_SelectOCxM,"ax",%progbits
	.hidden	TIM_SelectOCxM          @ -- Begin function TIM_SelectOCxM
	.globl	TIM_SelectOCxM
	.p2align	1
	.type	TIM_SelectOCxM,%function
	.code	16                      @ @TIM_SelectOCxM
	.thumb_func
TIM_SelectOCxM:
.Lfunc_begin20:
	.loc	3 1015 0                @ ../Libraries/STM32F4xx_StdPeriph_Driver/src/stm32f4xx_tim.c:1015:0
	.fnstart
	.cfi_startproc
@ %bb.0:
	.save	{r7, lr}
	push	{r7, lr}
	.cfi_def_cfa_offset 8
	.cfi_offset lr, -4
	.cfi_offset r7, -8
	@DEBUG_VALUE: TIM_SelectOCxM:TIMx <- $r0
	@DEBUG_VALUE: TIM_SelectOCxM:TIM_Channel <- $r1
	@DEBUG_VALUE: TIM_SelectOCxM:TIM_OCMode <- $r2
	movs	r3, #1
	@DEBUG_VALUE: TIM_SelectOCxM:TIM_OCMode <- $r2
	@DEBUG_VALUE: TIM_SelectOCxM:TIM_Channel <- $r1
	@DEBUG_VALUE: TIM_SelectOCxM:TIMx <- $r0
.Ltmp179:
	.loc	3 1027 23 prologue_end  @ ../Libraries/STM32F4xx_StdPeriph_Driver/src/stm32f4xx_tim.c:1027:23
	lsl.w	r12, r3, r1
.Ltmp180:
	@DEBUG_VALUE: TIM_SelectOCxM:tmp1 <- $r12
	.loc	3 1030 14               @ ../Libraries/STM32F4xx_StdPeriph_Driver/src/stm32f4xx_tim.c:1030:14
	ldrh	r3, [r0, #32]
	bic.w	r3, r3, r12
	strh	r3, [r0, #32]
.Ltmp181:
	@DEBUG_VALUE: TIM_SelectOCxM:tmp <- $r0
	@DEBUG_VALUE: TIM_SelectOCxM:tmp1 <- 0
	.loc	3 1032 37               @ ../Libraries/STM32F4xx_StdPeriph_Driver/src/stm32f4xx_tim.c:1032:37
	orr	r3, r1, #8
.Ltmp182:
	.loc	3 1025 7                @ ../Libraries/STM32F4xx_StdPeriph_Driver/src/stm32f4xx_tim.c:1025:7
	adds	r0, #24
.Ltmp183:
	@DEBUG_VALUE: TIM_SelectOCxM:tmp <- $r0
	.loc	3 1032 37               @ ../Libraries/STM32F4xx_StdPeriph_Driver/src/stm32f4xx_tim.c:1032:37
	cmp	r3, #8
	bne	.LBB20_2
.Ltmp184:
@ %bb.1:
	@DEBUG_VALUE: TIM_SelectOCxM:tmp <- $r0
	@DEBUG_VALUE: TIM_SelectOCxM:TIM_OCMode <- $r2
	@DEBUG_VALUE: TIM_SelectOCxM:TIM_Channel <- $r1
	.loc	3 1034 24               @ ../Libraries/STM32F4xx_StdPeriph_Driver/src/stm32f4xx_tim.c:1034:24
	lsr.w	lr, r1, #1
	movw	r3, #65423
	.loc	3 1037 28               @ ../Libraries/STM32F4xx_StdPeriph_Driver/src/stm32f4xx_tim.c:1037:28
	ldr.w	r12, [lr, r0]
	and.w	r3, r3, r12
	str.w	r3, [lr, r0]
	.loc	3 1034 9                @ ../Libraries/STM32F4xx_StdPeriph_Driver/src/stm32f4xx_tim.c:1034:9
	add.w	r0, r0, r1, lsr #1
.Ltmp185:
	@DEBUG_VALUE: TIM_SelectOCxM:tmp <- $r0
	.loc	3 0 9 is_stmt 0         @ ../Libraries/STM32F4xx_StdPeriph_Driver/src/stm32f4xx_tim.c:0:9
	b	.LBB20_3
.Ltmp186:
.LBB20_2:
	@DEBUG_VALUE: TIM_SelectOCxM:tmp <- $r0
	@DEBUG_VALUE: TIM_SelectOCxM:TIM_OCMode <- $r2
	@DEBUG_VALUE: TIM_SelectOCxM:TIM_Channel <- $r1
	.loc	3 1044 35 is_stmt 1     @ ../Libraries/STM32F4xx_StdPeriph_Driver/src/stm32f4xx_tim.c:1044:35
	subs	r1, #4
.Ltmp187:
	.loc	3 1050 53               @ ../Libraries/STM32F4xx_StdPeriph_Driver/src/stm32f4xx_tim.c:1050:53
	lsls	r2, r2, #8
.Ltmp188:
	.loc	3 1044 49               @ ../Libraries/STM32F4xx_StdPeriph_Driver/src/stm32f4xx_tim.c:1044:49
	uxth.w	lr, r1
	movw	r1, #36863
	lsr.w	r3, lr, #1
	.loc	3 1047 28               @ ../Libraries/STM32F4xx_StdPeriph_Driver/src/stm32f4xx_tim.c:1047:28
	ldr.w	r12, [r0, r3]
	and.w	r1, r1, r12
	str	r1, [r0, r3]
	.loc	3 1044 9                @ ../Libraries/STM32F4xx_StdPeriph_Driver/src/stm32f4xx_tim.c:1044:9
	add.w	r0, r0, lr, lsr #1
.Ltmp189:
	@DEBUG_VALUE: TIM_SelectOCxM:tmp <- $r0
.LBB20_3:
	@DEBUG_VALUE: TIM_SelectOCxM:tmp <- $r0
	.loc	3 0 0 is_stmt 0         @ ../Libraries/STM32F4xx_StdPeriph_Driver/src/stm32f4xx_tim.c:0:0
	ldr	r1, [r0]
	uxth	r2, r2
	orrs	r1, r2
	str	r1, [r0]
.Ltmp190:
	.loc	3 1052 1 is_stmt 1      @ ../Libraries/STM32F4xx_StdPeriph_Driver/src/stm32f4xx_tim.c:1052:1
	pop	{r7, pc}
.Ltmp191:
.Lfunc_end20:
	.size	TIM_SelectOCxM, .Lfunc_end20-TIM_SelectOCxM
	.cfi_endproc
	.cantunwind
	.fnend
                                        @ -- End function
	.section	.text.TIM_SetCompare1,"ax",%progbits
	.hidden	TIM_SetCompare1         @ -- Begin function TIM_SetCompare1
	.globl	TIM_SetCompare1
	.p2align	1
	.type	TIM_SetCompare1,%function
	.code	16                      @ @TIM_SetCompare1
	.thumb_func
TIM_SetCompare1:
.Lfunc_begin21:
	.loc	3 1061 0                @ ../Libraries/STM32F4xx_StdPeriph_Driver/src/stm32f4xx_tim.c:1061:0
	.fnstart
	.cfi_startproc
@ %bb.0:
	@DEBUG_VALUE: TIM_SetCompare1:TIMx <- $r0
	@DEBUG_VALUE: TIM_SetCompare1:TIMx <- $r0
	@DEBUG_VALUE: TIM_SetCompare1:Compare1 <- $r1
	@DEBUG_VALUE: TIM_SetCompare1:Compare1 <- $r1
	.loc	3 1066 14 prologue_end  @ ../Libraries/STM32F4xx_StdPeriph_Driver/src/stm32f4xx_tim.c:1066:14
	str	r1, [r0, #52]
	.loc	3 1067 1                @ ../Libraries/STM32F4xx_StdPeriph_Driver/src/stm32f4xx_tim.c:1067:1
	bx	lr
.Ltmp192:
.Lfunc_end21:
	.size	TIM_SetCompare1, .Lfunc_end21-TIM_SetCompare1
	.cfi_endproc
	.cantunwind
	.fnend
                                        @ -- End function
	.section	.text.TIM_SetCompare2,"ax",%progbits
	.hidden	TIM_SetCompare2         @ -- Begin function TIM_SetCompare2
	.globl	TIM_SetCompare2
	.p2align	1
	.type	TIM_SetCompare2,%function
	.code	16                      @ @TIM_SetCompare2
	.thumb_func
TIM_SetCompare2:
.Lfunc_begin22:
	.loc	3 1077 0                @ ../Libraries/STM32F4xx_StdPeriph_Driver/src/stm32f4xx_tim.c:1077:0
	.fnstart
	.cfi_startproc
@ %bb.0:
	@DEBUG_VALUE: TIM_SetCompare2:TIMx <- $r0
	@DEBUG_VALUE: TIM_SetCompare2:TIMx <- $r0
	@DEBUG_VALUE: TIM_SetCompare2:Compare2 <- $r1
	@DEBUG_VALUE: TIM_SetCompare2:Compare2 <- $r1
	.loc	3 1082 14 prologue_end  @ ../Libraries/STM32F4xx_StdPeriph_Driver/src/stm32f4xx_tim.c:1082:14
	str	r1, [r0, #56]
	.loc	3 1083 1                @ ../Libraries/STM32F4xx_StdPeriph_Driver/src/stm32f4xx_tim.c:1083:1
	bx	lr
.Ltmp193:
.Lfunc_end22:
	.size	TIM_SetCompare2, .Lfunc_end22-TIM_SetCompare2
	.cfi_endproc
	.cantunwind
	.fnend
                                        @ -- End function
	.section	.text.TIM_SetCompare3,"ax",%progbits
	.hidden	TIM_SetCompare3         @ -- Begin function TIM_SetCompare3
	.globl	TIM_SetCompare3
	.p2align	1
	.type	TIM_SetCompare3,%function
	.code	16                      @ @TIM_SetCompare3
	.thumb_func
TIM_SetCompare3:
.Lfunc_begin23:
	.loc	3 1092 0                @ ../Libraries/STM32F4xx_StdPeriph_Driver/src/stm32f4xx_tim.c:1092:0
	.fnstart
	.cfi_startproc
@ %bb.0:
	@DEBUG_VALUE: TIM_SetCompare3:TIMx <- $r0
	@DEBUG_VALUE: TIM_SetCompare3:TIMx <- $r0
	@DEBUG_VALUE: TIM_SetCompare3:Compare3 <- $r1
	@DEBUG_VALUE: TIM_SetCompare3:Compare3 <- $r1
	.loc	3 1097 14 prologue_end  @ ../Libraries/STM32F4xx_StdPeriph_Driver/src/stm32f4xx_tim.c:1097:14
	str	r1, [r0, #60]
	.loc	3 1098 1                @ ../Libraries/STM32F4xx_StdPeriph_Driver/src/stm32f4xx_tim.c:1098:1
	bx	lr
.Ltmp194:
.Lfunc_end23:
	.size	TIM_SetCompare3, .Lfunc_end23-TIM_SetCompare3
	.cfi_endproc
	.cantunwind
	.fnend
                                        @ -- End function
	.section	.text.TIM_SetCompare4,"ax",%progbits
	.hidden	TIM_SetCompare4         @ -- Begin function TIM_SetCompare4
	.globl	TIM_SetCompare4
	.p2align	1
	.type	TIM_SetCompare4,%function
	.code	16                      @ @TIM_SetCompare4
	.thumb_func
TIM_SetCompare4:
.Lfunc_begin24:
	.loc	3 1107 0                @ ../Libraries/STM32F4xx_StdPeriph_Driver/src/stm32f4xx_tim.c:1107:0
	.fnstart
	.cfi_startproc
@ %bb.0:
	@DEBUG_VALUE: TIM_SetCompare4:TIMx <- $r0
	@DEBUG_VALUE: TIM_SetCompare4:TIMx <- $r0
	@DEBUG_VALUE: TIM_SetCompare4:Compare4 <- $r1
	@DEBUG_VALUE: TIM_SetCompare4:Compare4 <- $r1
	.loc	3 1112 14 prologue_end  @ ../Libraries/STM32F4xx_StdPeriph_Driver/src/stm32f4xx_tim.c:1112:14
	str	r1, [r0, #64]
	.loc	3 1113 1                @ ../Libraries/STM32F4xx_StdPeriph_Driver/src/stm32f4xx_tim.c:1113:1
	bx	lr
.Ltmp195:
.Lfunc_end24:
	.size	TIM_SetCompare4, .Lfunc_end24-TIM_SetCompare4
	.cfi_endproc
	.cantunwind
	.fnend
                                        @ -- End function
	.section	.text.TIM_ForcedOC1Config,"ax",%progbits
	.hidden	TIM_ForcedOC1Config     @ -- Begin function TIM_ForcedOC1Config
	.globl	TIM_ForcedOC1Config
	.p2align	1
	.type	TIM_ForcedOC1Config,%function
	.code	16                      @ @TIM_ForcedOC1Config
	.thumb_func
TIM_ForcedOC1Config:
.Lfunc_begin25:
	.loc	3 1125 0                @ ../Libraries/STM32F4xx_StdPeriph_Driver/src/stm32f4xx_tim.c:1125:0
	.fnstart
	.cfi_startproc
@ %bb.0:
	@DEBUG_VALUE: TIM_ForcedOC1Config:TIMx <- $r0
	@DEBUG_VALUE: TIM_ForcedOC1Config:TIMx <- $r0
	@DEBUG_VALUE: TIM_ForcedOC1Config:TIM_ForcedAction <- $r1
	@DEBUG_VALUE: TIM_ForcedOC1Config:TIM_ForcedAction <- $r1
	@DEBUG_VALUE: TIM_ForcedOC1Config:tmpccmr1 <- 0
	.loc	3 1131 20 prologue_end  @ ../Libraries/STM32F4xx_StdPeriph_Driver/src/stm32f4xx_tim.c:1131:20
	ldrh	r2, [r0, #24]
.Ltmp196:
	@DEBUG_VALUE: TIM_ForcedOC1Config:tmpccmr1 <- $r2
	.loc	3 1134 12               @ ../Libraries/STM32F4xx_StdPeriph_Driver/src/stm32f4xx_tim.c:1134:12
	bic	r2, r2, #112
.Ltmp197:
	@DEBUG_VALUE: TIM_ForcedOC1Config:tmpccmr1 <- $r2
	.loc	3 1137 12               @ ../Libraries/STM32F4xx_StdPeriph_Driver/src/stm32f4xx_tim.c:1137:12
	orrs	r1, r2
.Ltmp198:
	@DEBUG_VALUE: TIM_ForcedOC1Config:tmpccmr1 <- $r1
	.loc	3 1140 15               @ ../Libraries/STM32F4xx_StdPeriph_Driver/src/stm32f4xx_tim.c:1140:15
	strh	r1, [r0, #24]
	.loc	3 1141 1                @ ../Libraries/STM32F4xx_StdPeriph_Driver/src/stm32f4xx_tim.c:1141:1
	bx	lr
.Ltmp199:
.Lfunc_end25:
	.size	TIM_ForcedOC1Config, .Lfunc_end25-TIM_ForcedOC1Config
	.cfi_endproc
	.cantunwind
	.fnend
                                        @ -- End function
	.section	.text.TIM_ForcedOC2Config,"ax",%progbits
	.hidden	TIM_ForcedOC2Config     @ -- Begin function TIM_ForcedOC2Config
	.globl	TIM_ForcedOC2Config
	.p2align	1
	.type	TIM_ForcedOC2Config,%function
	.code	16                      @ @TIM_ForcedOC2Config
	.thumb_func
TIM_ForcedOC2Config:
.Lfunc_begin26:
	.loc	3 1154 0                @ ../Libraries/STM32F4xx_StdPeriph_Driver/src/stm32f4xx_tim.c:1154:0
	.fnstart
	.cfi_startproc
@ %bb.0:
	@DEBUG_VALUE: TIM_ForcedOC2Config:TIMx <- $r0
	@DEBUG_VALUE: TIM_ForcedOC2Config:TIMx <- $r0
	@DEBUG_VALUE: TIM_ForcedOC2Config:TIM_ForcedAction <- $r1
	@DEBUG_VALUE: TIM_ForcedOC2Config:TIM_ForcedAction <- $r1
	@DEBUG_VALUE: TIM_ForcedOC2Config:tmpccmr1 <- 0
	.loc	3 1160 20 prologue_end  @ ../Libraries/STM32F4xx_StdPeriph_Driver/src/stm32f4xx_tim.c:1160:20
	ldrh	r2, [r0, #24]
.Ltmp200:
	@DEBUG_VALUE: TIM_ForcedOC2Config:tmpccmr1 <- $r2
	.loc	3 1163 12               @ ../Libraries/STM32F4xx_StdPeriph_Driver/src/stm32f4xx_tim.c:1163:12
	bic	r2, r2, #28672
.Ltmp201:
	@DEBUG_VALUE: TIM_ForcedOC2Config:tmpccmr1 <- $r2
	.loc	3 1166 12               @ ../Libraries/STM32F4xx_StdPeriph_Driver/src/stm32f4xx_tim.c:1166:12
	orr.w	r1, r2, r1, lsl #8
.Ltmp202:
	@DEBUG_VALUE: TIM_ForcedOC2Config:tmpccmr1 <- $r1
	.loc	3 1169 15               @ ../Libraries/STM32F4xx_StdPeriph_Driver/src/stm32f4xx_tim.c:1169:15
	strh	r1, [r0, #24]
	.loc	3 1170 1                @ ../Libraries/STM32F4xx_StdPeriph_Driver/src/stm32f4xx_tim.c:1170:1
	bx	lr
.Ltmp203:
.Lfunc_end26:
	.size	TIM_ForcedOC2Config, .Lfunc_end26-TIM_ForcedOC2Config
	.cfi_endproc
	.cantunwind
	.fnend
                                        @ -- End function
	.section	.text.TIM_ForcedOC3Config,"ax",%progbits
	.hidden	TIM_ForcedOC3Config     @ -- Begin function TIM_ForcedOC3Config
	.globl	TIM_ForcedOC3Config
	.p2align	1
	.type	TIM_ForcedOC3Config,%function
	.code	16                      @ @TIM_ForcedOC3Config
	.thumb_func
TIM_ForcedOC3Config:
.Lfunc_begin27:
	.loc	3 1182 0                @ ../Libraries/STM32F4xx_StdPeriph_Driver/src/stm32f4xx_tim.c:1182:0
	.fnstart
	.cfi_startproc
@ %bb.0:
	@DEBUG_VALUE: TIM_ForcedOC3Config:TIMx <- $r0
	@DEBUG_VALUE: TIM_ForcedOC3Config:TIMx <- $r0
	@DEBUG_VALUE: TIM_ForcedOC3Config:TIM_ForcedAction <- $r1
	@DEBUG_VALUE: TIM_ForcedOC3Config:TIM_ForcedAction <- $r1
	@DEBUG_VALUE: TIM_ForcedOC3Config:tmpccmr2 <- 0
	.loc	3 1189 20 prologue_end  @ ../Libraries/STM32F4xx_StdPeriph_Driver/src/stm32f4xx_tim.c:1189:20
	ldrh	r2, [r0, #28]
.Ltmp204:
	@DEBUG_VALUE: TIM_ForcedOC3Config:tmpccmr2 <- $r2
	.loc	3 1192 12               @ ../Libraries/STM32F4xx_StdPeriph_Driver/src/stm32f4xx_tim.c:1192:12
	bic	r2, r2, #112
.Ltmp205:
	@DEBUG_VALUE: TIM_ForcedOC3Config:tmpccmr2 <- $r2
	.loc	3 1195 12               @ ../Libraries/STM32F4xx_StdPeriph_Driver/src/stm32f4xx_tim.c:1195:12
	orrs	r1, r2
.Ltmp206:
	@DEBUG_VALUE: TIM_ForcedOC3Config:tmpccmr2 <- $r1
	.loc	3 1198 15               @ ../Libraries/STM32F4xx_StdPeriph_Driver/src/stm32f4xx_tim.c:1198:15
	strh	r1, [r0, #28]
	.loc	3 1199 1                @ ../Libraries/STM32F4xx_StdPeriph_Driver/src/stm32f4xx_tim.c:1199:1
	bx	lr
.Ltmp207:
.Lfunc_end27:
	.size	TIM_ForcedOC3Config, .Lfunc_end27-TIM_ForcedOC3Config
	.cfi_endproc
	.cantunwind
	.fnend
                                        @ -- End function
	.section	.text.TIM_ForcedOC4Config,"ax",%progbits
	.hidden	TIM_ForcedOC4Config     @ -- Begin function TIM_ForcedOC4Config
	.globl	TIM_ForcedOC4Config
	.p2align	1
	.type	TIM_ForcedOC4Config,%function
	.code	16                      @ @TIM_ForcedOC4Config
	.thumb_func
TIM_ForcedOC4Config:
.Lfunc_begin28:
	.loc	3 1211 0                @ ../Libraries/STM32F4xx_StdPeriph_Driver/src/stm32f4xx_tim.c:1211:0
	.fnstart
	.cfi_startproc
@ %bb.0:
	@DEBUG_VALUE: TIM_ForcedOC4Config:TIMx <- $r0
	@DEBUG_VALUE: TIM_ForcedOC4Config:TIMx <- $r0
	@DEBUG_VALUE: TIM_ForcedOC4Config:TIM_ForcedAction <- $r1
	@DEBUG_VALUE: TIM_ForcedOC4Config:TIM_ForcedAction <- $r1
	@DEBUG_VALUE: TIM_ForcedOC4Config:tmpccmr2 <- 0
	.loc	3 1217 20 prologue_end  @ ../Libraries/STM32F4xx_StdPeriph_Driver/src/stm32f4xx_tim.c:1217:20
	ldrh	r2, [r0, #28]
.Ltmp208:
	@DEBUG_VALUE: TIM_ForcedOC4Config:tmpccmr2 <- $r2
	.loc	3 1220 12               @ ../Libraries/STM32F4xx_StdPeriph_Driver/src/stm32f4xx_tim.c:1220:12
	bic	r2, r2, #28672
.Ltmp209:
	@DEBUG_VALUE: TIM_ForcedOC4Config:tmpccmr2 <- $r2
	.loc	3 1223 12               @ ../Libraries/STM32F4xx_StdPeriph_Driver/src/stm32f4xx_tim.c:1223:12
	orr.w	r1, r2, r1, lsl #8
.Ltmp210:
	@DEBUG_VALUE: TIM_ForcedOC4Config:tmpccmr2 <- $r1
	.loc	3 1226 15               @ ../Libraries/STM32F4xx_StdPeriph_Driver/src/stm32f4xx_tim.c:1226:15
	strh	r1, [r0, #28]
	.loc	3 1227 1                @ ../Libraries/STM32F4xx_StdPeriph_Driver/src/stm32f4xx_tim.c:1227:1
	bx	lr
.Ltmp211:
.Lfunc_end28:
	.size	TIM_ForcedOC4Config, .Lfunc_end28-TIM_ForcedOC4Config
	.cfi_endproc
	.cantunwind
	.fnend
                                        @ -- End function
	.section	.text.TIM_OC1PreloadConfig,"ax",%progbits
	.hidden	TIM_OC1PreloadConfig    @ -- Begin function TIM_OC1PreloadConfig
	.globl	TIM_OC1PreloadConfig
	.p2align	1
	.type	TIM_OC1PreloadConfig,%function
	.code	16                      @ @TIM_OC1PreloadConfig
	.thumb_func
TIM_OC1PreloadConfig:
.Lfunc_begin29:
	.loc	3 1239 0                @ ../Libraries/STM32F4xx_StdPeriph_Driver/src/stm32f4xx_tim.c:1239:0
	.fnstart
	.cfi_startproc
@ %bb.0:
	@DEBUG_VALUE: TIM_OC1PreloadConfig:TIMx <- $r0
	@DEBUG_VALUE: TIM_OC1PreloadConfig:TIMx <- $r0
	@DEBUG_VALUE: TIM_OC1PreloadConfig:TIM_OCPreload <- $r1
	@DEBUG_VALUE: TIM_OC1PreloadConfig:TIM_OCPreload <- $r1
	@DEBUG_VALUE: TIM_OC1PreloadConfig:tmpccmr1 <- 0
	.loc	3 1246 20 prologue_end  @ ../Libraries/STM32F4xx_StdPeriph_Driver/src/stm32f4xx_tim.c:1246:20
	ldrh	r2, [r0, #24]
.Ltmp212:
	@DEBUG_VALUE: TIM_OC1PreloadConfig:tmpccmr1 <- $r2
	.loc	3 1249 12               @ ../Libraries/STM32F4xx_StdPeriph_Driver/src/stm32f4xx_tim.c:1249:12
	bic	r2, r2, #8
.Ltmp213:
	@DEBUG_VALUE: TIM_OC1PreloadConfig:tmpccmr1 <- $r2
	.loc	3 1252 12               @ ../Libraries/STM32F4xx_StdPeriph_Driver/src/stm32f4xx_tim.c:1252:12
	orrs	r1, r2
.Ltmp214:
	@DEBUG_VALUE: TIM_OC1PreloadConfig:tmpccmr1 <- $r1
	.loc	3 1255 15               @ ../Libraries/STM32F4xx_StdPeriph_Driver/src/stm32f4xx_tim.c:1255:15
	strh	r1, [r0, #24]
	.loc	3 1256 1                @ ../Libraries/STM32F4xx_StdPeriph_Driver/src/stm32f4xx_tim.c:1256:1
	bx	lr
.Ltmp215:
.Lfunc_end29:
	.size	TIM_OC1PreloadConfig, .Lfunc_end29-TIM_OC1PreloadConfig
	.cfi_endproc
	.cantunwind
	.fnend
                                        @ -- End function
	.section	.text.TIM_OC2PreloadConfig,"ax",%progbits
	.hidden	TIM_OC2PreloadConfig    @ -- Begin function TIM_OC2PreloadConfig
	.globl	TIM_OC2PreloadConfig
	.p2align	1
	.type	TIM_OC2PreloadConfig,%function
	.code	16                      @ @TIM_OC2PreloadConfig
	.thumb_func
TIM_OC2PreloadConfig:
.Lfunc_begin30:
	.loc	3 1269 0                @ ../Libraries/STM32F4xx_StdPeriph_Driver/src/stm32f4xx_tim.c:1269:0
	.fnstart
	.cfi_startproc
@ %bb.0:
	@DEBUG_VALUE: TIM_OC2PreloadConfig:TIMx <- $r0
	@DEBUG_VALUE: TIM_OC2PreloadConfig:TIMx <- $r0
	@DEBUG_VALUE: TIM_OC2PreloadConfig:TIM_OCPreload <- $r1
	@DEBUG_VALUE: TIM_OC2PreloadConfig:TIM_OCPreload <- $r1
	@DEBUG_VALUE: TIM_OC2PreloadConfig:tmpccmr1 <- 0
	.loc	3 1276 20 prologue_end  @ ../Libraries/STM32F4xx_StdPeriph_Driver/src/stm32f4xx_tim.c:1276:20
	ldrh	r2, [r0, #24]
.Ltmp216:
	@DEBUG_VALUE: TIM_OC2PreloadConfig:tmpccmr1 <- $r2
	.loc	3 1279 12               @ ../Libraries/STM32F4xx_StdPeriph_Driver/src/stm32f4xx_tim.c:1279:12
	bic	r2, r2, #2048
.Ltmp217:
	@DEBUG_VALUE: TIM_OC2PreloadConfig:tmpccmr1 <- $r2
	.loc	3 1282 12               @ ../Libraries/STM32F4xx_StdPeriph_Driver/src/stm32f4xx_tim.c:1282:12
	orr.w	r1, r2, r1, lsl #8
.Ltmp218:
	@DEBUG_VALUE: TIM_OC2PreloadConfig:tmpccmr1 <- $r1
	.loc	3 1285 15               @ ../Libraries/STM32F4xx_StdPeriph_Driver/src/stm32f4xx_tim.c:1285:15
	strh	r1, [r0, #24]
	.loc	3 1286 1                @ ../Libraries/STM32F4xx_StdPeriph_Driver/src/stm32f4xx_tim.c:1286:1
	bx	lr
.Ltmp219:
.Lfunc_end30:
	.size	TIM_OC2PreloadConfig, .Lfunc_end30-TIM_OC2PreloadConfig
	.cfi_endproc
	.cantunwind
	.fnend
                                        @ -- End function
	.section	.text.TIM_OC3PreloadConfig,"ax",%progbits
	.hidden	TIM_OC3PreloadConfig    @ -- Begin function TIM_OC3PreloadConfig
	.globl	TIM_OC3PreloadConfig
	.p2align	1
	.type	TIM_OC3PreloadConfig,%function
	.code	16                      @ @TIM_OC3PreloadConfig
	.thumb_func
TIM_OC3PreloadConfig:
.Lfunc_begin31:
	.loc	3 1298 0                @ ../Libraries/STM32F4xx_StdPeriph_Driver/src/stm32f4xx_tim.c:1298:0
	.fnstart
	.cfi_startproc
@ %bb.0:
	@DEBUG_VALUE: TIM_OC3PreloadConfig:TIMx <- $r0
	@DEBUG_VALUE: TIM_OC3PreloadConfig:TIMx <- $r0
	@DEBUG_VALUE: TIM_OC3PreloadConfig:TIM_OCPreload <- $r1
	@DEBUG_VALUE: TIM_OC3PreloadConfig:TIM_OCPreload <- $r1
	@DEBUG_VALUE: TIM_OC3PreloadConfig:tmpccmr2 <- 0
	.loc	3 1305 20 prologue_end  @ ../Libraries/STM32F4xx_StdPeriph_Driver/src/stm32f4xx_tim.c:1305:20
	ldrh	r2, [r0, #28]
.Ltmp220:
	@DEBUG_VALUE: TIM_OC3PreloadConfig:tmpccmr2 <- $r2
	.loc	3 1308 12               @ ../Libraries/STM32F4xx_StdPeriph_Driver/src/stm32f4xx_tim.c:1308:12
	bic	r2, r2, #8
.Ltmp221:
	@DEBUG_VALUE: TIM_OC3PreloadConfig:tmpccmr2 <- $r2
	.loc	3 1311 12               @ ../Libraries/STM32F4xx_StdPeriph_Driver/src/stm32f4xx_tim.c:1311:12
	orrs	r1, r2
.Ltmp222:
	@DEBUG_VALUE: TIM_OC3PreloadConfig:tmpccmr2 <- $r1
	.loc	3 1314 15               @ ../Libraries/STM32F4xx_StdPeriph_Driver/src/stm32f4xx_tim.c:1314:15
	strh	r1, [r0, #28]
	.loc	3 1315 1                @ ../Libraries/STM32F4xx_StdPeriph_Driver/src/stm32f4xx_tim.c:1315:1
	bx	lr
.Ltmp223:
.Lfunc_end31:
	.size	TIM_OC3PreloadConfig, .Lfunc_end31-TIM_OC3PreloadConfig
	.cfi_endproc
	.cantunwind
	.fnend
                                        @ -- End function
	.section	.text.TIM_OC4PreloadConfig,"ax",%progbits
	.hidden	TIM_OC4PreloadConfig    @ -- Begin function TIM_OC4PreloadConfig
	.globl	TIM_OC4PreloadConfig
	.p2align	1
	.type	TIM_OC4PreloadConfig,%function
	.code	16                      @ @TIM_OC4PreloadConfig
	.thumb_func
TIM_OC4PreloadConfig:
.Lfunc_begin32:
	.loc	3 1327 0                @ ../Libraries/STM32F4xx_StdPeriph_Driver/src/stm32f4xx_tim.c:1327:0
	.fnstart
	.cfi_startproc
@ %bb.0:
	@DEBUG_VALUE: TIM_OC4PreloadConfig:TIMx <- $r0
	@DEBUG_VALUE: TIM_OC4PreloadConfig:TIMx <- $r0
	@DEBUG_VALUE: TIM_OC4PreloadConfig:TIM_OCPreload <- $r1
	@DEBUG_VALUE: TIM_OC4PreloadConfig:TIM_OCPreload <- $r1
	@DEBUG_VALUE: TIM_OC4PreloadConfig:tmpccmr2 <- 0
	.loc	3 1334 20 prologue_end  @ ../Libraries/STM32F4xx_StdPeriph_Driver/src/stm32f4xx_tim.c:1334:20
	ldrh	r2, [r0, #28]
.Ltmp224:
	@DEBUG_VALUE: TIM_OC4PreloadConfig:tmpccmr2 <- $r2
	.loc	3 1337 12               @ ../Libraries/STM32F4xx_StdPeriph_Driver/src/stm32f4xx_tim.c:1337:12
	bic	r2, r2, #2048
.Ltmp225:
	@DEBUG_VALUE: TIM_OC4PreloadConfig:tmpccmr2 <- $r2
	.loc	3 1340 12               @ ../Libraries/STM32F4xx_StdPeriph_Driver/src/stm32f4xx_tim.c:1340:12
	orr.w	r1, r2, r1, lsl #8
.Ltmp226:
	@DEBUG_VALUE: TIM_OC4PreloadConfig:tmpccmr2 <- $r1
	.loc	3 1343 15               @ ../Libraries/STM32F4xx_StdPeriph_Driver/src/stm32f4xx_tim.c:1343:15
	strh	r1, [r0, #28]
	.loc	3 1344 1                @ ../Libraries/STM32F4xx_StdPeriph_Driver/src/stm32f4xx_tim.c:1344:1
	bx	lr
.Ltmp227:
.Lfunc_end32:
	.size	TIM_OC4PreloadConfig, .Lfunc_end32-TIM_OC4PreloadConfig
	.cfi_endproc
	.cantunwind
	.fnend
                                        @ -- End function
	.section	.text.TIM_OC1FastConfig,"ax",%progbits
	.hidden	TIM_OC1FastConfig       @ -- Begin function TIM_OC1FastConfig
	.globl	TIM_OC1FastConfig
	.p2align	1
	.type	TIM_OC1FastConfig,%function
	.code	16                      @ @TIM_OC1FastConfig
	.thumb_func
TIM_OC1FastConfig:
.Lfunc_begin33:
	.loc	3 1356 0                @ ../Libraries/STM32F4xx_StdPeriph_Driver/src/stm32f4xx_tim.c:1356:0
	.fnstart
	.cfi_startproc
@ %bb.0:
	@DEBUG_VALUE: TIM_OC1FastConfig:TIMx <- $r0
	@DEBUG_VALUE: TIM_OC1FastConfig:TIMx <- $r0
	@DEBUG_VALUE: TIM_OC1FastConfig:TIM_OCFast <- $r1
	@DEBUG_VALUE: TIM_OC1FastConfig:TIM_OCFast <- $r1
	@DEBUG_VALUE: TIM_OC1FastConfig:tmpccmr1 <- 0
	.loc	3 1364 20 prologue_end  @ ../Libraries/STM32F4xx_StdPeriph_Driver/src/stm32f4xx_tim.c:1364:20
	ldrh	r2, [r0, #24]
.Ltmp228:
	@DEBUG_VALUE: TIM_OC1FastConfig:tmpccmr1 <- $r2
	.loc	3 1367 12               @ ../Libraries/STM32F4xx_StdPeriph_Driver/src/stm32f4xx_tim.c:1367:12
	bic	r2, r2, #4
.Ltmp229:
	@DEBUG_VALUE: TIM_OC1FastConfig:tmpccmr1 <- $r2
	.loc	3 1370 12               @ ../Libraries/STM32F4xx_StdPeriph_Driver/src/stm32f4xx_tim.c:1370:12
	orrs	r1, r2
.Ltmp230:
	@DEBUG_VALUE: TIM_OC1FastConfig:tmpccmr1 <- $r1
	.loc	3 1373 15               @ ../Libraries/STM32F4xx_StdPeriph_Driver/src/stm32f4xx_tim.c:1373:15
	strh	r1, [r0, #24]
	.loc	3 1374 1                @ ../Libraries/STM32F4xx_StdPeriph_Driver/src/stm32f4xx_tim.c:1374:1
	bx	lr
.Ltmp231:
.Lfunc_end33:
	.size	TIM_OC1FastConfig, .Lfunc_end33-TIM_OC1FastConfig
	.cfi_endproc
	.cantunwind
	.fnend
                                        @ -- End function
	.section	.text.TIM_OC2FastConfig,"ax",%progbits
	.hidden	TIM_OC2FastConfig       @ -- Begin function TIM_OC2FastConfig
	.globl	TIM_OC2FastConfig
	.p2align	1
	.type	TIM_OC2FastConfig,%function
	.code	16                      @ @TIM_OC2FastConfig
	.thumb_func
TIM_OC2FastConfig:
.Lfunc_begin34:
	.loc	3 1387 0                @ ../Libraries/STM32F4xx_StdPeriph_Driver/src/stm32f4xx_tim.c:1387:0
	.fnstart
	.cfi_startproc
@ %bb.0:
	@DEBUG_VALUE: TIM_OC2FastConfig:TIMx <- $r0
	@DEBUG_VALUE: TIM_OC2FastConfig:TIMx <- $r0
	@DEBUG_VALUE: TIM_OC2FastConfig:TIM_OCFast <- $r1
	@DEBUG_VALUE: TIM_OC2FastConfig:TIM_OCFast <- $r1
	@DEBUG_VALUE: TIM_OC2FastConfig:tmpccmr1 <- 0
	.loc	3 1395 20 prologue_end  @ ../Libraries/STM32F4xx_StdPeriph_Driver/src/stm32f4xx_tim.c:1395:20
	ldrh	r2, [r0, #24]
.Ltmp232:
	@DEBUG_VALUE: TIM_OC2FastConfig:tmpccmr1 <- $r2
	.loc	3 1398 12               @ ../Libraries/STM32F4xx_StdPeriph_Driver/src/stm32f4xx_tim.c:1398:12
	bic	r2, r2, #1024
.Ltmp233:
	@DEBUG_VALUE: TIM_OC2FastConfig:tmpccmr1 <- $r2
	.loc	3 1401 12               @ ../Libraries/STM32F4xx_StdPeriph_Driver/src/stm32f4xx_tim.c:1401:12
	orr.w	r1, r2, r1, lsl #8
.Ltmp234:
	@DEBUG_VALUE: TIM_OC2FastConfig:tmpccmr1 <- $r1
	.loc	3 1404 15               @ ../Libraries/STM32F4xx_StdPeriph_Driver/src/stm32f4xx_tim.c:1404:15
	strh	r1, [r0, #24]
	.loc	3 1405 1                @ ../Libraries/STM32F4xx_StdPeriph_Driver/src/stm32f4xx_tim.c:1405:1
	bx	lr
.Ltmp235:
.Lfunc_end34:
	.size	TIM_OC2FastConfig, .Lfunc_end34-TIM_OC2FastConfig
	.cfi_endproc
	.cantunwind
	.fnend
                                        @ -- End function
	.section	.text.TIM_OC3FastConfig,"ax",%progbits
	.hidden	TIM_OC3FastConfig       @ -- Begin function TIM_OC3FastConfig
	.globl	TIM_OC3FastConfig
	.p2align	1
	.type	TIM_OC3FastConfig,%function
	.code	16                      @ @TIM_OC3FastConfig
	.thumb_func
TIM_OC3FastConfig:
.Lfunc_begin35:
	.loc	3 1417 0                @ ../Libraries/STM32F4xx_StdPeriph_Driver/src/stm32f4xx_tim.c:1417:0
	.fnstart
	.cfi_startproc
@ %bb.0:
	@DEBUG_VALUE: TIM_OC3FastConfig:TIMx <- $r0
	@DEBUG_VALUE: TIM_OC3FastConfig:TIMx <- $r0
	@DEBUG_VALUE: TIM_OC3FastConfig:TIM_OCFast <- $r1
	@DEBUG_VALUE: TIM_OC3FastConfig:TIM_OCFast <- $r1
	@DEBUG_VALUE: TIM_OC3FastConfig:tmpccmr2 <- 0
	.loc	3 1425 20 prologue_end  @ ../Libraries/STM32F4xx_StdPeriph_Driver/src/stm32f4xx_tim.c:1425:20
	ldrh	r2, [r0, #28]
.Ltmp236:
	@DEBUG_VALUE: TIM_OC3FastConfig:tmpccmr2 <- $r2
	.loc	3 1428 12               @ ../Libraries/STM32F4xx_StdPeriph_Driver/src/stm32f4xx_tim.c:1428:12
	bic	r2, r2, #4
.Ltmp237:
	@DEBUG_VALUE: TIM_OC3FastConfig:tmpccmr2 <- $r2
	.loc	3 1431 12               @ ../Libraries/STM32F4xx_StdPeriph_Driver/src/stm32f4xx_tim.c:1431:12
	orrs	r1, r2
.Ltmp238:
	@DEBUG_VALUE: TIM_OC3FastConfig:tmpccmr2 <- $r1
	.loc	3 1434 15               @ ../Libraries/STM32F4xx_StdPeriph_Driver/src/stm32f4xx_tim.c:1434:15
	strh	r1, [r0, #28]
	.loc	3 1435 1                @ ../Libraries/STM32F4xx_StdPeriph_Driver/src/stm32f4xx_tim.c:1435:1
	bx	lr
.Ltmp239:
.Lfunc_end35:
	.size	TIM_OC3FastConfig, .Lfunc_end35-TIM_OC3FastConfig
	.cfi_endproc
	.cantunwind
	.fnend
                                        @ -- End function
	.section	.text.TIM_OC4FastConfig,"ax",%progbits
	.hidden	TIM_OC4FastConfig       @ -- Begin function TIM_OC4FastConfig
	.globl	TIM_OC4FastConfig
	.p2align	1
	.type	TIM_OC4FastConfig,%function
	.code	16                      @ @TIM_OC4FastConfig
	.thumb_func
TIM_OC4FastConfig:
.Lfunc_begin36:
	.loc	3 1447 0                @ ../Libraries/STM32F4xx_StdPeriph_Driver/src/stm32f4xx_tim.c:1447:0
	.fnstart
	.cfi_startproc
@ %bb.0:
	@DEBUG_VALUE: TIM_OC4FastConfig:TIMx <- $r0
	@DEBUG_VALUE: TIM_OC4FastConfig:TIMx <- $r0
	@DEBUG_VALUE: TIM_OC4FastConfig:TIM_OCFast <- $r1
	@DEBUG_VALUE: TIM_OC4FastConfig:TIM_OCFast <- $r1
	@DEBUG_VALUE: TIM_OC4FastConfig:tmpccmr2 <- 0
	.loc	3 1455 20 prologue_end  @ ../Libraries/STM32F4xx_StdPeriph_Driver/src/stm32f4xx_tim.c:1455:20
	ldrh	r2, [r0, #28]
.Ltmp240:
	@DEBUG_VALUE: TIM_OC4FastConfig:tmpccmr2 <- $r2
	.loc	3 1458 12               @ ../Libraries/STM32F4xx_StdPeriph_Driver/src/stm32f4xx_tim.c:1458:12
	bic	r2, r2, #1024
.Ltmp241:
	@DEBUG_VALUE: TIM_OC4FastConfig:tmpccmr2 <- $r2
	.loc	3 1461 12               @ ../Libraries/STM32F4xx_StdPeriph_Driver/src/stm32f4xx_tim.c:1461:12
	orr.w	r1, r2, r1, lsl #8
.Ltmp242:
	@DEBUG_VALUE: TIM_OC4FastConfig:tmpccmr2 <- $r1
	.loc	3 1464 15               @ ../Libraries/STM32F4xx_StdPeriph_Driver/src/stm32f4xx_tim.c:1464:15
	strh	r1, [r0, #28]
	.loc	3 1465 1                @ ../Libraries/STM32F4xx_StdPeriph_Driver/src/stm32f4xx_tim.c:1465:1
	bx	lr
.Ltmp243:
.Lfunc_end36:
	.size	TIM_OC4FastConfig, .Lfunc_end36-TIM_OC4FastConfig
	.cfi_endproc
	.cantunwind
	.fnend
                                        @ -- End function
	.section	.text.TIM_ClearOC1Ref,"ax",%progbits
	.hidden	TIM_ClearOC1Ref         @ -- Begin function TIM_ClearOC1Ref
	.globl	TIM_ClearOC1Ref
	.p2align	1
	.type	TIM_ClearOC1Ref,%function
	.code	16                      @ @TIM_ClearOC1Ref
	.thumb_func
TIM_ClearOC1Ref:
.Lfunc_begin37:
	.loc	3 1477 0                @ ../Libraries/STM32F4xx_StdPeriph_Driver/src/stm32f4xx_tim.c:1477:0
	.fnstart
	.cfi_startproc
@ %bb.0:
	@DEBUG_VALUE: TIM_ClearOC1Ref:TIMx <- $r0
	@DEBUG_VALUE: TIM_ClearOC1Ref:TIMx <- $r0
	@DEBUG_VALUE: TIM_ClearOC1Ref:TIM_OCClear <- $r1
	@DEBUG_VALUE: TIM_ClearOC1Ref:TIM_OCClear <- $r1
	@DEBUG_VALUE: TIM_ClearOC1Ref:tmpccmr1 <- 0
	.loc	3 1484 20 prologue_end  @ ../Libraries/STM32F4xx_StdPeriph_Driver/src/stm32f4xx_tim.c:1484:20
	ldrh	r2, [r0, #24]
.Ltmp244:
	@DEBUG_VALUE: TIM_ClearOC1Ref:tmpccmr1 <- $r2
	.loc	3 1487 12               @ ../Libraries/STM32F4xx_StdPeriph_Driver/src/stm32f4xx_tim.c:1487:12
	bic	r2, r2, #128
.Ltmp245:
	@DEBUG_VALUE: TIM_ClearOC1Ref:tmpccmr1 <- $r2
	.loc	3 1490 12               @ ../Libraries/STM32F4xx_StdPeriph_Driver/src/stm32f4xx_tim.c:1490:12
	orrs	r1, r2
.Ltmp246:
	@DEBUG_VALUE: TIM_ClearOC1Ref:tmpccmr1 <- $r1
	.loc	3 1493 15               @ ../Libraries/STM32F4xx_StdPeriph_Driver/src/stm32f4xx_tim.c:1493:15
	strh	r1, [r0, #24]
	.loc	3 1494 1                @ ../Libraries/STM32F4xx_StdPeriph_Driver/src/stm32f4xx_tim.c:1494:1
	bx	lr
.Ltmp247:
.Lfunc_end37:
	.size	TIM_ClearOC1Ref, .Lfunc_end37-TIM_ClearOC1Ref
	.cfi_endproc
	.cantunwind
	.fnend
                                        @ -- End function
	.section	.text.TIM_ClearOC2Ref,"ax",%progbits
	.hidden	TIM_ClearOC2Ref         @ -- Begin function TIM_ClearOC2Ref
	.globl	TIM_ClearOC2Ref
	.p2align	1
	.type	TIM_ClearOC2Ref,%function
	.code	16                      @ @TIM_ClearOC2Ref
	.thumb_func
TIM_ClearOC2Ref:
.Lfunc_begin38:
	.loc	3 1507 0                @ ../Libraries/STM32F4xx_StdPeriph_Driver/src/stm32f4xx_tim.c:1507:0
	.fnstart
	.cfi_startproc
@ %bb.0:
	@DEBUG_VALUE: TIM_ClearOC2Ref:TIMx <- $r0
	@DEBUG_VALUE: TIM_ClearOC2Ref:TIMx <- $r0
	@DEBUG_VALUE: TIM_ClearOC2Ref:TIM_OCClear <- $r1
	@DEBUG_VALUE: TIM_ClearOC2Ref:TIM_OCClear <- $r1
	@DEBUG_VALUE: TIM_ClearOC2Ref:tmpccmr1 <- 0
	.loc	3 1514 20 prologue_end  @ ../Libraries/STM32F4xx_StdPeriph_Driver/src/stm32f4xx_tim.c:1514:20
	ldrh	r2, [r0, #24]
.Ltmp248:
	@DEBUG_VALUE: TIM_ClearOC2Ref:tmpccmr1 <- $r2
	.loc	3 1517 12               @ ../Libraries/STM32F4xx_StdPeriph_Driver/src/stm32f4xx_tim.c:1517:12
	bfc	r2, #15, #17
.Ltmp249:
	@DEBUG_VALUE: TIM_ClearOC2Ref:tmpccmr1 <- $r2
	.loc	3 1520 12               @ ../Libraries/STM32F4xx_StdPeriph_Driver/src/stm32f4xx_tim.c:1520:12
	orr.w	r1, r2, r1, lsl #8
.Ltmp250:
	@DEBUG_VALUE: TIM_ClearOC2Ref:tmpccmr1 <- $r1
	.loc	3 1523 15               @ ../Libraries/STM32F4xx_StdPeriph_Driver/src/stm32f4xx_tim.c:1523:15
	strh	r1, [r0, #24]
	.loc	3 1524 1                @ ../Libraries/STM32F4xx_StdPeriph_Driver/src/stm32f4xx_tim.c:1524:1
	bx	lr
.Ltmp251:
.Lfunc_end38:
	.size	TIM_ClearOC2Ref, .Lfunc_end38-TIM_ClearOC2Ref
	.cfi_endproc
	.cantunwind
	.fnend
                                        @ -- End function
	.section	.text.TIM_ClearOC3Ref,"ax",%progbits
	.hidden	TIM_ClearOC3Ref         @ -- Begin function TIM_ClearOC3Ref
	.globl	TIM_ClearOC3Ref
	.p2align	1
	.type	TIM_ClearOC3Ref,%function
	.code	16                      @ @TIM_ClearOC3Ref
	.thumb_func
TIM_ClearOC3Ref:
.Lfunc_begin39:
	.loc	3 1536 0                @ ../Libraries/STM32F4xx_StdPeriph_Driver/src/stm32f4xx_tim.c:1536:0
	.fnstart
	.cfi_startproc
@ %bb.0:
	@DEBUG_VALUE: TIM_ClearOC3Ref:TIMx <- $r0
	@DEBUG_VALUE: TIM_ClearOC3Ref:TIMx <- $r0
	@DEBUG_VALUE: TIM_ClearOC3Ref:TIM_OCClear <- $r1
	@DEBUG_VALUE: TIM_ClearOC3Ref:TIM_OCClear <- $r1
	@DEBUG_VALUE: TIM_ClearOC3Ref:tmpccmr2 <- 0
	.loc	3 1543 20 prologue_end  @ ../Libraries/STM32F4xx_StdPeriph_Driver/src/stm32f4xx_tim.c:1543:20
	ldrh	r2, [r0, #28]
.Ltmp252:
	@DEBUG_VALUE: TIM_ClearOC3Ref:tmpccmr2 <- $r2
	.loc	3 1546 12               @ ../Libraries/STM32F4xx_StdPeriph_Driver/src/stm32f4xx_tim.c:1546:12
	bic	r2, r2, #128
.Ltmp253:
	@DEBUG_VALUE: TIM_ClearOC3Ref:tmpccmr2 <- $r2
	.loc	3 1549 12               @ ../Libraries/STM32F4xx_StdPeriph_Driver/src/stm32f4xx_tim.c:1549:12
	orrs	r1, r2
.Ltmp254:
	@DEBUG_VALUE: TIM_ClearOC3Ref:tmpccmr2 <- $r1
	.loc	3 1552 15               @ ../Libraries/STM32F4xx_StdPeriph_Driver/src/stm32f4xx_tim.c:1552:15
	strh	r1, [r0, #28]
	.loc	3 1553 1                @ ../Libraries/STM32F4xx_StdPeriph_Driver/src/stm32f4xx_tim.c:1553:1
	bx	lr
.Ltmp255:
.Lfunc_end39:
	.size	TIM_ClearOC3Ref, .Lfunc_end39-TIM_ClearOC3Ref
	.cfi_endproc
	.cantunwind
	.fnend
                                        @ -- End function
	.section	.text.TIM_ClearOC4Ref,"ax",%progbits
	.hidden	TIM_ClearOC4Ref         @ -- Begin function TIM_ClearOC4Ref
	.globl	TIM_ClearOC4Ref
	.p2align	1
	.type	TIM_ClearOC4Ref,%function
	.code	16                      @ @TIM_ClearOC4Ref
	.thumb_func
TIM_ClearOC4Ref:
.Lfunc_begin40:
	.loc	3 1565 0                @ ../Libraries/STM32F4xx_StdPeriph_Driver/src/stm32f4xx_tim.c:1565:0
	.fnstart
	.cfi_startproc
@ %bb.0:
	@DEBUG_VALUE: TIM_ClearOC4Ref:TIMx <- $r0
	@DEBUG_VALUE: TIM_ClearOC4Ref:TIMx <- $r0
	@DEBUG_VALUE: TIM_ClearOC4Ref:TIM_OCClear <- $r1
	@DEBUG_VALUE: TIM_ClearOC4Ref:TIM_OCClear <- $r1
	@DEBUG_VALUE: TIM_ClearOC4Ref:tmpccmr2 <- 0
	.loc	3 1572 20 prologue_end  @ ../Libraries/STM32F4xx_StdPeriph_Driver/src/stm32f4xx_tim.c:1572:20
	ldrh	r2, [r0, #28]
.Ltmp256:
	@DEBUG_VALUE: TIM_ClearOC4Ref:tmpccmr2 <- $r2
	.loc	3 1575 12               @ ../Libraries/STM32F4xx_StdPeriph_Driver/src/stm32f4xx_tim.c:1575:12
	bfc	r2, #15, #17
.Ltmp257:
	@DEBUG_VALUE: TIM_ClearOC4Ref:tmpccmr2 <- $r2
	.loc	3 1578 12               @ ../Libraries/STM32F4xx_StdPeriph_Driver/src/stm32f4xx_tim.c:1578:12
	orr.w	r1, r2, r1, lsl #8
.Ltmp258:
	@DEBUG_VALUE: TIM_ClearOC4Ref:tmpccmr2 <- $r1
	.loc	3 1581 15               @ ../Libraries/STM32F4xx_StdPeriph_Driver/src/stm32f4xx_tim.c:1581:15
	strh	r1, [r0, #28]
	.loc	3 1582 1                @ ../Libraries/STM32F4xx_StdPeriph_Driver/src/stm32f4xx_tim.c:1582:1
	bx	lr
.Ltmp259:
.Lfunc_end40:
	.size	TIM_ClearOC4Ref, .Lfunc_end40-TIM_ClearOC4Ref
	.cfi_endproc
	.cantunwind
	.fnend
                                        @ -- End function
	.section	.text.TIM_OC1PolarityConfig,"ax",%progbits
	.hidden	TIM_OC1PolarityConfig   @ -- Begin function TIM_OC1PolarityConfig
	.globl	TIM_OC1PolarityConfig
	.p2align	1
	.type	TIM_OC1PolarityConfig,%function
	.code	16                      @ @TIM_OC1PolarityConfig
	.thumb_func
TIM_OC1PolarityConfig:
.Lfunc_begin41:
	.loc	3 1594 0                @ ../Libraries/STM32F4xx_StdPeriph_Driver/src/stm32f4xx_tim.c:1594:0
	.fnstart
	.cfi_startproc
@ %bb.0:
	@DEBUG_VALUE: TIM_OC1PolarityConfig:TIMx <- $r0
	@DEBUG_VALUE: TIM_OC1PolarityConfig:TIMx <- $r0
	@DEBUG_VALUE: TIM_OC1PolarityConfig:TIM_OCPolarity <- $r1
	@DEBUG_VALUE: TIM_OC1PolarityConfig:TIM_OCPolarity <- $r1
	@DEBUG_VALUE: TIM_OC1PolarityConfig:tmpccer <- 0
	.loc	3 1601 19 prologue_end  @ ../Libraries/STM32F4xx_StdPeriph_Driver/src/stm32f4xx_tim.c:1601:19
	ldrh	r2, [r0, #32]
.Ltmp260:
	@DEBUG_VALUE: TIM_OC1PolarityConfig:tmpccer <- $r2
	.loc	3 1604 11               @ ../Libraries/STM32F4xx_StdPeriph_Driver/src/stm32f4xx_tim.c:1604:11
	bic	r2, r2, #2
.Ltmp261:
	@DEBUG_VALUE: TIM_OC1PolarityConfig:tmpccer <- $r2
	.loc	3 1605 11               @ ../Libraries/STM32F4xx_StdPeriph_Driver/src/stm32f4xx_tim.c:1605:11
	orrs	r1, r2
.Ltmp262:
	@DEBUG_VALUE: TIM_OC1PolarityConfig:tmpccer <- $r1
	.loc	3 1608 14               @ ../Libraries/STM32F4xx_StdPeriph_Driver/src/stm32f4xx_tim.c:1608:14
	strh	r1, [r0, #32]
	.loc	3 1609 1                @ ../Libraries/STM32F4xx_StdPeriph_Driver/src/stm32f4xx_tim.c:1609:1
	bx	lr
.Ltmp263:
.Lfunc_end41:
	.size	TIM_OC1PolarityConfig, .Lfunc_end41-TIM_OC1PolarityConfig
	.cfi_endproc
	.cantunwind
	.fnend
                                        @ -- End function
	.section	.text.TIM_OC1NPolarityConfig,"ax",%progbits
	.hidden	TIM_OC1NPolarityConfig  @ -- Begin function TIM_OC1NPolarityConfig
	.globl	TIM_OC1NPolarityConfig
	.p2align	1
	.type	TIM_OC1NPolarityConfig,%function
	.code	16                      @ @TIM_OC1NPolarityConfig
	.thumb_func
TIM_OC1NPolarityConfig:
.Lfunc_begin42:
	.loc	3 1621 0                @ ../Libraries/STM32F4xx_StdPeriph_Driver/src/stm32f4xx_tim.c:1621:0
	.fnstart
	.cfi_startproc
@ %bb.0:
	@DEBUG_VALUE: TIM_OC1NPolarityConfig:TIMx <- $r0
	@DEBUG_VALUE: TIM_OC1NPolarityConfig:TIMx <- $r0
	@DEBUG_VALUE: TIM_OC1NPolarityConfig:TIM_OCNPolarity <- $r1
	@DEBUG_VALUE: TIM_OC1NPolarityConfig:TIM_OCNPolarity <- $r1
	@DEBUG_VALUE: TIM_OC1NPolarityConfig:tmpccer <- 0
	.loc	3 1627 19 prologue_end  @ ../Libraries/STM32F4xx_StdPeriph_Driver/src/stm32f4xx_tim.c:1627:19
	ldrh	r2, [r0, #32]
.Ltmp264:
	@DEBUG_VALUE: TIM_OC1NPolarityConfig:tmpccer <- $r2
	.loc	3 1630 11               @ ../Libraries/STM32F4xx_StdPeriph_Driver/src/stm32f4xx_tim.c:1630:11
	bic	r2, r2, #8
.Ltmp265:
	@DEBUG_VALUE: TIM_OC1NPolarityConfig:tmpccer <- $r2
	.loc	3 1631 11               @ ../Libraries/STM32F4xx_StdPeriph_Driver/src/stm32f4xx_tim.c:1631:11
	orrs	r1, r2
.Ltmp266:
	@DEBUG_VALUE: TIM_OC1NPolarityConfig:tmpccer <- $r1
	.loc	3 1634 14               @ ../Libraries/STM32F4xx_StdPeriph_Driver/src/stm32f4xx_tim.c:1634:14
	strh	r1, [r0, #32]
	.loc	3 1635 1                @ ../Libraries/STM32F4xx_StdPeriph_Driver/src/stm32f4xx_tim.c:1635:1
	bx	lr
.Ltmp267:
.Lfunc_end42:
	.size	TIM_OC1NPolarityConfig, .Lfunc_end42-TIM_OC1NPolarityConfig
	.cfi_endproc
	.cantunwind
	.fnend
                                        @ -- End function
	.section	.text.TIM_OC2PolarityConfig,"ax",%progbits
	.hidden	TIM_OC2PolarityConfig   @ -- Begin function TIM_OC2PolarityConfig
	.globl	TIM_OC2PolarityConfig
	.p2align	1
	.type	TIM_OC2PolarityConfig,%function
	.code	16                      @ @TIM_OC2PolarityConfig
	.thumb_func
TIM_OC2PolarityConfig:
.Lfunc_begin43:
	.loc	3 1648 0                @ ../Libraries/STM32F4xx_StdPeriph_Driver/src/stm32f4xx_tim.c:1648:0
	.fnstart
	.cfi_startproc
@ %bb.0:
	@DEBUG_VALUE: TIM_OC2PolarityConfig:TIMx <- $r0
	@DEBUG_VALUE: TIM_OC2PolarityConfig:TIMx <- $r0
	@DEBUG_VALUE: TIM_OC2PolarityConfig:TIM_OCPolarity <- $r1
	@DEBUG_VALUE: TIM_OC2PolarityConfig:TIM_OCPolarity <- $r1
	@DEBUG_VALUE: TIM_OC2PolarityConfig:tmpccer <- 0
	.loc	3 1655 19 prologue_end  @ ../Libraries/STM32F4xx_StdPeriph_Driver/src/stm32f4xx_tim.c:1655:19
	ldrh	r2, [r0, #32]
.Ltmp268:
	@DEBUG_VALUE: TIM_OC2PolarityConfig:tmpccer <- $r2
	.loc	3 1658 11               @ ../Libraries/STM32F4xx_StdPeriph_Driver/src/stm32f4xx_tim.c:1658:11
	bic	r2, r2, #32
.Ltmp269:
	@DEBUG_VALUE: TIM_OC2PolarityConfig:tmpccer <- $r2
	.loc	3 1659 11               @ ../Libraries/STM32F4xx_StdPeriph_Driver/src/stm32f4xx_tim.c:1659:11
	orr.w	r1, r2, r1, lsl #4
.Ltmp270:
	@DEBUG_VALUE: TIM_OC2PolarityConfig:tmpccer <- $r1
	.loc	3 1662 14               @ ../Libraries/STM32F4xx_StdPeriph_Driver/src/stm32f4xx_tim.c:1662:14
	strh	r1, [r0, #32]
	.loc	3 1663 1                @ ../Libraries/STM32F4xx_StdPeriph_Driver/src/stm32f4xx_tim.c:1663:1
	bx	lr
.Ltmp271:
.Lfunc_end43:
	.size	TIM_OC2PolarityConfig, .Lfunc_end43-TIM_OC2PolarityConfig
	.cfi_endproc
	.cantunwind
	.fnend
                                        @ -- End function
	.section	.text.TIM_OC2NPolarityConfig,"ax",%progbits
	.hidden	TIM_OC2NPolarityConfig  @ -- Begin function TIM_OC2NPolarityConfig
	.globl	TIM_OC2NPolarityConfig
	.p2align	1
	.type	TIM_OC2NPolarityConfig,%function
	.code	16                      @ @TIM_OC2NPolarityConfig
	.thumb_func
TIM_OC2NPolarityConfig:
.Lfunc_begin44:
	.loc	3 1675 0                @ ../Libraries/STM32F4xx_StdPeriph_Driver/src/stm32f4xx_tim.c:1675:0
	.fnstart
	.cfi_startproc
@ %bb.0:
	@DEBUG_VALUE: TIM_OC2NPolarityConfig:TIMx <- $r0
	@DEBUG_VALUE: TIM_OC2NPolarityConfig:TIMx <- $r0
	@DEBUG_VALUE: TIM_OC2NPolarityConfig:TIM_OCNPolarity <- $r1
	@DEBUG_VALUE: TIM_OC2NPolarityConfig:TIM_OCNPolarity <- $r1
	@DEBUG_VALUE: TIM_OC2NPolarityConfig:tmpccer <- 0
	.loc	3 1682 19 prologue_end  @ ../Libraries/STM32F4xx_StdPeriph_Driver/src/stm32f4xx_tim.c:1682:19
	ldrh	r2, [r0, #32]
.Ltmp272:
	@DEBUG_VALUE: TIM_OC2NPolarityConfig:tmpccer <- $r2
	.loc	3 1685 11               @ ../Libraries/STM32F4xx_StdPeriph_Driver/src/stm32f4xx_tim.c:1685:11
	bic	r2, r2, #128
.Ltmp273:
	@DEBUG_VALUE: TIM_OC2NPolarityConfig:tmpccer <- $r2
	.loc	3 1686 11               @ ../Libraries/STM32F4xx_StdPeriph_Driver/src/stm32f4xx_tim.c:1686:11
	orr.w	r1, r2, r1, lsl #4
.Ltmp274:
	@DEBUG_VALUE: TIM_OC2NPolarityConfig:tmpccer <- $r1
	.loc	3 1689 14               @ ../Libraries/STM32F4xx_StdPeriph_Driver/src/stm32f4xx_tim.c:1689:14
	strh	r1, [r0, #32]
	.loc	3 1690 1                @ ../Libraries/STM32F4xx_StdPeriph_Driver/src/stm32f4xx_tim.c:1690:1
	bx	lr
.Ltmp275:
.Lfunc_end44:
	.size	TIM_OC2NPolarityConfig, .Lfunc_end44-TIM_OC2NPolarityConfig
	.cfi_endproc
	.cantunwind
	.fnend
                                        @ -- End function
	.section	.text.TIM_OC3PolarityConfig,"ax",%progbits
	.hidden	TIM_OC3PolarityConfig   @ -- Begin function TIM_OC3PolarityConfig
	.globl	TIM_OC3PolarityConfig
	.p2align	1
	.type	TIM_OC3PolarityConfig,%function
	.code	16                      @ @TIM_OC3PolarityConfig
	.thumb_func
TIM_OC3PolarityConfig:
.Lfunc_begin45:
	.loc	3 1702 0                @ ../Libraries/STM32F4xx_StdPeriph_Driver/src/stm32f4xx_tim.c:1702:0
	.fnstart
	.cfi_startproc
@ %bb.0:
	@DEBUG_VALUE: TIM_OC3PolarityConfig:TIMx <- $r0
	@DEBUG_VALUE: TIM_OC3PolarityConfig:TIMx <- $r0
	@DEBUG_VALUE: TIM_OC3PolarityConfig:TIM_OCPolarity <- $r1
	@DEBUG_VALUE: TIM_OC3PolarityConfig:TIM_OCPolarity <- $r1
	@DEBUG_VALUE: TIM_OC3PolarityConfig:tmpccer <- 0
	.loc	3 1709 19 prologue_end  @ ../Libraries/STM32F4xx_StdPeriph_Driver/src/stm32f4xx_tim.c:1709:19
	ldrh	r2, [r0, #32]
.Ltmp276:
	@DEBUG_VALUE: TIM_OC3PolarityConfig:tmpccer <- $r2
	.loc	3 1712 11               @ ../Libraries/STM32F4xx_StdPeriph_Driver/src/stm32f4xx_tim.c:1712:11
	bic	r2, r2, #512
.Ltmp277:
	@DEBUG_VALUE: TIM_OC3PolarityConfig:tmpccer <- $r2
	.loc	3 1713 11               @ ../Libraries/STM32F4xx_StdPeriph_Driver/src/stm32f4xx_tim.c:1713:11
	orr.w	r1, r2, r1, lsl #8
.Ltmp278:
	@DEBUG_VALUE: TIM_OC3PolarityConfig:tmpccer <- $r1
	.loc	3 1716 14               @ ../Libraries/STM32F4xx_StdPeriph_Driver/src/stm32f4xx_tim.c:1716:14
	strh	r1, [r0, #32]
	.loc	3 1717 1                @ ../Libraries/STM32F4xx_StdPeriph_Driver/src/stm32f4xx_tim.c:1717:1
	bx	lr
.Ltmp279:
.Lfunc_end45:
	.size	TIM_OC3PolarityConfig, .Lfunc_end45-TIM_OC3PolarityConfig
	.cfi_endproc
	.cantunwind
	.fnend
                                        @ -- End function
	.section	.text.TIM_OC3NPolarityConfig,"ax",%progbits
	.hidden	TIM_OC3NPolarityConfig  @ -- Begin function TIM_OC3NPolarityConfig
	.globl	TIM_OC3NPolarityConfig
	.p2align	1
	.type	TIM_OC3NPolarityConfig,%function
	.code	16                      @ @TIM_OC3NPolarityConfig
	.thumb_func
TIM_OC3NPolarityConfig:
.Lfunc_begin46:
	.loc	3 1729 0                @ ../Libraries/STM32F4xx_StdPeriph_Driver/src/stm32f4xx_tim.c:1729:0
	.fnstart
	.cfi_startproc
@ %bb.0:
	@DEBUG_VALUE: TIM_OC3NPolarityConfig:TIMx <- $r0
	@DEBUG_VALUE: TIM_OC3NPolarityConfig:TIMx <- $r0
	@DEBUG_VALUE: TIM_OC3NPolarityConfig:TIM_OCNPolarity <- $r1
	@DEBUG_VALUE: TIM_OC3NPolarityConfig:TIM_OCNPolarity <- $r1
	@DEBUG_VALUE: TIM_OC3NPolarityConfig:tmpccer <- 0
	.loc	3 1736 19 prologue_end  @ ../Libraries/STM32F4xx_StdPeriph_Driver/src/stm32f4xx_tim.c:1736:19
	ldrh	r2, [r0, #32]
.Ltmp280:
	@DEBUG_VALUE: TIM_OC3NPolarityConfig:tmpccer <- $r2
	.loc	3 1739 11               @ ../Libraries/STM32F4xx_StdPeriph_Driver/src/stm32f4xx_tim.c:1739:11
	bic	r2, r2, #2048
.Ltmp281:
	@DEBUG_VALUE: TIM_OC3NPolarityConfig:tmpccer <- $r2
	.loc	3 1740 11               @ ../Libraries/STM32F4xx_StdPeriph_Driver/src/stm32f4xx_tim.c:1740:11
	orr.w	r1, r2, r1, lsl #8
.Ltmp282:
	@DEBUG_VALUE: TIM_OC3NPolarityConfig:tmpccer <- $r1
	.loc	3 1743 14               @ ../Libraries/STM32F4xx_StdPeriph_Driver/src/stm32f4xx_tim.c:1743:14
	strh	r1, [r0, #32]
	.loc	3 1744 1                @ ../Libraries/STM32F4xx_StdPeriph_Driver/src/stm32f4xx_tim.c:1744:1
	bx	lr
.Ltmp283:
.Lfunc_end46:
	.size	TIM_OC3NPolarityConfig, .Lfunc_end46-TIM_OC3NPolarityConfig
	.cfi_endproc
	.cantunwind
	.fnend
                                        @ -- End function
	.section	.text.TIM_OC4PolarityConfig,"ax",%progbits
	.hidden	TIM_OC4PolarityConfig   @ -- Begin function TIM_OC4PolarityConfig
	.globl	TIM_OC4PolarityConfig
	.p2align	1
	.type	TIM_OC4PolarityConfig,%function
	.code	16                      @ @TIM_OC4PolarityConfig
	.thumb_func
TIM_OC4PolarityConfig:
.Lfunc_begin47:
	.loc	3 1756 0                @ ../Libraries/STM32F4xx_StdPeriph_Driver/src/stm32f4xx_tim.c:1756:0
	.fnstart
	.cfi_startproc
@ %bb.0:
	@DEBUG_VALUE: TIM_OC4PolarityConfig:TIMx <- $r0
	@DEBUG_VALUE: TIM_OC4PolarityConfig:TIMx <- $r0
	@DEBUG_VALUE: TIM_OC4PolarityConfig:TIM_OCPolarity <- $r1
	@DEBUG_VALUE: TIM_OC4PolarityConfig:TIM_OCPolarity <- $r1
	@DEBUG_VALUE: TIM_OC4PolarityConfig:tmpccer <- 0
	.loc	3 1763 19 prologue_end  @ ../Libraries/STM32F4xx_StdPeriph_Driver/src/stm32f4xx_tim.c:1763:19
	ldrh	r2, [r0, #32]
.Ltmp284:
	@DEBUG_VALUE: TIM_OC4PolarityConfig:tmpccer <- $r2
	.loc	3 1766 11               @ ../Libraries/STM32F4xx_StdPeriph_Driver/src/stm32f4xx_tim.c:1766:11
	bic	r2, r2, #8192
.Ltmp285:
	@DEBUG_VALUE: TIM_OC4PolarityConfig:tmpccer <- $r2
	.loc	3 1767 11               @ ../Libraries/STM32F4xx_StdPeriph_Driver/src/stm32f4xx_tim.c:1767:11
	orr.w	r1, r2, r1, lsl #12
.Ltmp286:
	@DEBUG_VALUE: TIM_OC4PolarityConfig:tmpccer <- $r1
	.loc	3 1770 14               @ ../Libraries/STM32F4xx_StdPeriph_Driver/src/stm32f4xx_tim.c:1770:14
	strh	r1, [r0, #32]
	.loc	3 1771 1                @ ../Libraries/STM32F4xx_StdPeriph_Driver/src/stm32f4xx_tim.c:1771:1
	bx	lr
.Ltmp287:
.Lfunc_end47:
	.size	TIM_OC4PolarityConfig, .Lfunc_end47-TIM_OC4PolarityConfig
	.cfi_endproc
	.cantunwind
	.fnend
                                        @ -- End function
	.section	.text.TIM_CCxCmd,"ax",%progbits
	.hidden	TIM_CCxCmd              @ -- Begin function TIM_CCxCmd
	.globl	TIM_CCxCmd
	.p2align	1
	.type	TIM_CCxCmd,%function
	.code	16                      @ @TIM_CCxCmd
	.thumb_func
TIM_CCxCmd:
.Lfunc_begin48:
	.loc	3 1787 0                @ ../Libraries/STM32F4xx_StdPeriph_Driver/src/stm32f4xx_tim.c:1787:0
	.fnstart
	.cfi_startproc
@ %bb.0:
	@DEBUG_VALUE: TIM_CCxCmd:TIMx <- $r0
	@DEBUG_VALUE: TIM_CCxCmd:TIM_Channel <- $r1
	@DEBUG_VALUE: TIM_CCxCmd:TIM_CCx <- $r2
	movs	r3, #1
.Ltmp288:
	@DEBUG_VALUE: TIM_CCxCmd:tmp <- 0
	@DEBUG_VALUE: TIM_CCxCmd:TIM_CCx <- $r2
	@DEBUG_VALUE: TIM_CCxCmd:TIM_Channel <- $r1
	@DEBUG_VALUE: TIM_CCxCmd:TIMx <- $r0
	.loc	3 1795 22 prologue_end  @ ../Libraries/STM32F4xx_StdPeriph_Driver/src/stm32f4xx_tim.c:1795:22
	lsl.w	r12, r3, r1
.Ltmp289:
	@DEBUG_VALUE: TIM_CCxCmd:tmp <- $r12
	.loc	3 1798 14               @ ../Libraries/STM32F4xx_StdPeriph_Driver/src/stm32f4xx_tim.c:1798:14
	ldrh	r3, [r0, #32]
	.loc	3 1801 37               @ ../Libraries/STM32F4xx_StdPeriph_Driver/src/stm32f4xx_tim.c:1801:37
	lsl.w	r1, r2, r1
.Ltmp290:
	.loc	3 1798 14               @ ../Libraries/STM32F4xx_StdPeriph_Driver/src/stm32f4xx_tim.c:1798:14
	bic.w	r3, r3, r12
	strh	r3, [r0, #32]
	.loc	3 1801 14               @ ../Libraries/STM32F4xx_StdPeriph_Driver/src/stm32f4xx_tim.c:1801:14
	ldrh	r2, [r0, #32]
.Ltmp291:
	orrs	r1, r2
	strh	r1, [r0, #32]
	.loc	3 1802 1                @ ../Libraries/STM32F4xx_StdPeriph_Driver/src/stm32f4xx_tim.c:1802:1
	bx	lr
.Ltmp292:
.Lfunc_end48:
	.size	TIM_CCxCmd, .Lfunc_end48-TIM_CCxCmd
	.cfi_endproc
	.cantunwind
	.fnend
                                        @ -- End function
	.section	.text.TIM_CCxNCmd,"ax",%progbits
	.hidden	TIM_CCxNCmd             @ -- Begin function TIM_CCxNCmd
	.globl	TIM_CCxNCmd
	.p2align	1
	.type	TIM_CCxNCmd,%function
	.code	16                      @ @TIM_CCxNCmd
	.thumb_func
TIM_CCxNCmd:
.Lfunc_begin49:
	.loc	3 1817 0                @ ../Libraries/STM32F4xx_StdPeriph_Driver/src/stm32f4xx_tim.c:1817:0
	.fnstart
	.cfi_startproc
@ %bb.0:
	@DEBUG_VALUE: TIM_CCxNCmd:TIMx <- $r0
	@DEBUG_VALUE: TIM_CCxNCmd:TIM_Channel <- $r1
	@DEBUG_VALUE: TIM_CCxNCmd:TIM_CCxN <- $r2
	movs	r3, #4
.Ltmp293:
	@DEBUG_VALUE: TIM_CCxNCmd:tmp <- 0
	@DEBUG_VALUE: TIM_CCxNCmd:TIM_CCxN <- $r2
	@DEBUG_VALUE: TIM_CCxNCmd:TIM_Channel <- $r1
	@DEBUG_VALUE: TIM_CCxNCmd:TIMx <- $r0
	.loc	3 1825 23 prologue_end  @ ../Libraries/STM32F4xx_StdPeriph_Driver/src/stm32f4xx_tim.c:1825:23
	lsl.w	r12, r3, r1
.Ltmp294:
	@DEBUG_VALUE: TIM_CCxNCmd:tmp <- $r12
	.loc	3 1828 14               @ ../Libraries/STM32F4xx_StdPeriph_Driver/src/stm32f4xx_tim.c:1828:14
	ldrh	r3, [r0, #32]
	.loc	3 1831 38               @ ../Libraries/STM32F4xx_StdPeriph_Driver/src/stm32f4xx_tim.c:1831:38
	lsl.w	r1, r2, r1
.Ltmp295:
	.loc	3 1828 14               @ ../Libraries/STM32F4xx_StdPeriph_Driver/src/stm32f4xx_tim.c:1828:14
	bic.w	r3, r3, r12
	strh	r3, [r0, #32]
	.loc	3 1831 14               @ ../Libraries/STM32F4xx_StdPeriph_Driver/src/stm32f4xx_tim.c:1831:14
	ldrh	r2, [r0, #32]
.Ltmp296:
	orrs	r1, r2
	strh	r1, [r0, #32]
	.loc	3 1832 1                @ ../Libraries/STM32F4xx_StdPeriph_Driver/src/stm32f4xx_tim.c:1832:1
	bx	lr
.Ltmp297:
.Lfunc_end49:
	.size	TIM_CCxNCmd, .Lfunc_end49-TIM_CCxNCmd
	.cfi_endproc
	.cantunwind
	.fnend
                                        @ -- End function
	.section	.text.TIM_ICInit,"ax",%progbits
	.hidden	TIM_ICInit              @ -- Begin function TIM_ICInit
	.globl	TIM_ICInit
	.p2align	1
	.type	TIM_ICInit,%function
	.code	16                      @ @TIM_ICInit
	.thumb_func
TIM_ICInit:
.Lfunc_begin50:
	.loc	3 1901 0                @ ../Libraries/STM32F4xx_StdPeriph_Driver/src/stm32f4xx_tim.c:1901:0
	.fnstart
	.cfi_startproc
@ %bb.0:
	.save	{r4, lr}
	push	{r4, lr}
	.cfi_def_cfa_offset 8
	.cfi_offset lr, -4
	.cfi_offset r4, -8
	@DEBUG_VALUE: TIM_ICInit:TIMx <- $r0
	@DEBUG_VALUE: TIM_ICInit:TIMx <- $r0
	@DEBUG_VALUE: TIM_ICInit:TIM_ICInitStruct <- $r1
	@DEBUG_VALUE: TIM_ICInit:TIM_ICInitStruct <- $r1
.Ltmp298:
	@DEBUG_VALUE: TI2_Config:TIMx <- $r0
	@DEBUG_VALUE: TI2_Config:TIMx <- $r0
	@DEBUG_VALUE: TIM_SetIC2Prescaler:TIMx <- $r0
	@DEBUG_VALUE: TIM_SetIC2Prescaler:TIMx <- $r0
	@DEBUG_VALUE: TI1_Config:TIMx <- $r0
	@DEBUG_VALUE: TI1_Config:TIMx <- $r0
	@DEBUG_VALUE: TIM_SetIC1Prescaler:TIMx <- $r0
	@DEBUG_VALUE: TIM_SetIC1Prescaler:TIMx <- $r0
	@DEBUG_VALUE: TI4_Config:TIMx <- $r0
	@DEBUG_VALUE: TI4_Config:TIMx <- $r0
	@DEBUG_VALUE: TIM_SetIC4Prescaler:TIMx <- $r0
	@DEBUG_VALUE: TIM_SetIC4Prescaler:TIMx <- $r0
	@DEBUG_VALUE: TI3_Config:TIMx <- $r0
	@DEBUG_VALUE: TI3_Config:TIMx <- $r0
	.loc	3 1909 25 prologue_end  @ ../Libraries/STM32F4xx_StdPeriph_Driver/src/stm32f4xx_tim.c:1909:25
	ldrh	r2, [r1]
.Ltmp299:
	.loc	3 1909 7 is_stmt 0      @ ../Libraries/STM32F4xx_StdPeriph_Driver/src/stm32f4xx_tim.c:1909:7
	cmp	r2, #4
	beq	.LBB50_3
.Ltmp300:
@ %bb.1:
	@DEBUG_VALUE: TIM_ICInit:TIM_ICInitStruct <- $r1
	@DEBUG_VALUE: TIM_ICInit:TIMx <- $r0
	cbnz	r2, .LBB50_4
.Ltmp301:
@ %bb.2:
	@DEBUG_VALUE: TIM_ICInit:TIM_ICInitStruct <- $r1
	@DEBUG_VALUE: TIM_ICInit:TIMx <- $r0
	.loc	3 1912 40 is_stmt 1     @ ../Libraries/STM32F4xx_StdPeriph_Driver/src/stm32f4xx_tim.c:1912:40
	ldrh.w	r12, [r1, #2]
	.loc	3 1914 34               @ ../Libraries/STM32F4xx_StdPeriph_Driver/src/stm32f4xx_tim.c:1914:34
	ldrh	r2, [r1, #8]
	.loc	3 1913 34               @ ../Libraries/STM32F4xx_StdPeriph_Driver/src/stm32f4xx_tim.c:1913:34
	ldrh	r4, [r1, #4]
.Ltmp302:
	@DEBUG_VALUE: TI1_Config:tmpccer <- 0
	@DEBUG_VALUE: TI1_Config:tmpccmr1 <- 0
	@DEBUG_VALUE: TI1_Config:TIM_ICSelection <- $r4
	@DEBUG_VALUE: TI1_Config:TIM_ICFilter <- $r2
	@DEBUG_VALUE: TI1_Config:TIM_ICPolarity <- $r12
	.loc	3 3210 14               @ ../Libraries/STM32F4xx_StdPeriph_Driver/src/stm32f4xx_tim.c:3210:14
	ldrh	r3, [r0, #32]
	bic	r3, r3, #1
	strh	r3, [r0, #32]
	.loc	3 3216 42               @ ../Libraries/STM32F4xx_StdPeriph_Driver/src/stm32f4xx_tim.c:3216:42
	orr.w	r3, r4, r2, lsl #4
	.loc	3 3211 20               @ ../Libraries/STM32F4xx_StdPeriph_Driver/src/stm32f4xx_tim.c:3211:20
	mov	r2, r0
.Ltmp303:
	ldrh	r4, [r2, #24]!
.Ltmp304:
	@DEBUG_VALUE: TI1_Config:tmpccmr1 <- $r4
	.loc	3 3215 12               @ ../Libraries/STM32F4xx_StdPeriph_Driver/src/stm32f4xx_tim.c:3215:12
	bic	r4, r4, #243
.Ltmp305:
	@DEBUG_VALUE: TI1_Config:tmpccmr1 <- $r4
	.loc	3 3216 12               @ ../Libraries/STM32F4xx_StdPeriph_Driver/src/stm32f4xx_tim.c:3216:12
	orrs	r3, r4
.Ltmp306:
	@DEBUG_VALUE: TI1_Config:tmpccmr1 <- $r3
	.loc	3 3212 19               @ ../Libraries/STM32F4xx_StdPeriph_Driver/src/stm32f4xx_tim.c:3212:19
	ldrh	r4, [r0, #32]
.Ltmp307:
	@DEBUG_VALUE: TI1_Config:tmpccer <- $r4
	.loc	3 3223 15               @ ../Libraries/STM32F4xx_StdPeriph_Driver/src/stm32f4xx_tim.c:3223:15
	strh	r3, [r2]
	.loc	3 3219 11               @ ../Libraries/STM32F4xx_StdPeriph_Driver/src/stm32f4xx_tim.c:3219:11
	bic	r3, r4, #10
.Ltmp308:
	@DEBUG_VALUE: TI1_Config:tmpccer <- $r3
	.loc	3 3220 11               @ ../Libraries/STM32F4xx_StdPeriph_Driver/src/stm32f4xx_tim.c:3220:11
	orr.w	r3, r3, r12
.Ltmp309:
	orr	r3, r3, #1
	b	.LBB50_6
.Ltmp310:
.LBB50_3:
	@DEBUG_VALUE: TI2_Config:TIMx <- $r0
	@DEBUG_VALUE: TIM_ICInit:TIM_ICInitStruct <- $r1
	@DEBUG_VALUE: TIM_ICInit:TIMx <- $r0
	.loc	3 1922 40               @ ../Libraries/STM32F4xx_StdPeriph_Driver/src/stm32f4xx_tim.c:1922:40
	ldrh.w	r12, [r1, #2]
	.loc	3 1923 34               @ ../Libraries/STM32F4xx_StdPeriph_Driver/src/stm32f4xx_tim.c:1923:34
	ldrh	r2, [r1, #4]
	.loc	3 1924 34               @ ../Libraries/STM32F4xx_StdPeriph_Driver/src/stm32f4xx_tim.c:1924:34
	ldrh	r4, [r1, #8]
.Ltmp311:
	@DEBUG_VALUE: TI2_Config:tmp <- 0
	@DEBUG_VALUE: TI2_Config:tmpccer <- 0
	@DEBUG_VALUE: TI2_Config:tmpccmr1 <- 0
	@DEBUG_VALUE: TI2_Config:TIM_ICFilter <- $r4
	@DEBUG_VALUE: TI2_Config:TIM_ICSelection <- $r2
	@DEBUG_VALUE: TI2_Config:TIM_ICPolarity <- $r12
	.loc	3 3251 14               @ ../Libraries/STM32F4xx_StdPeriph_Driver/src/stm32f4xx_tim.c:3251:14
	ldrh	r3, [r0, #32]
	bic	r3, r3, #16
	strh	r3, [r0, #32]
	.loc	3 3258 39               @ ../Libraries/STM32F4xx_StdPeriph_Driver/src/stm32f4xx_tim.c:3258:39
	lsls	r3, r4, #12
.Ltmp312:
	@DEBUG_VALUE: TI2_Config:tmpccmr1 <- undef
	.loc	3 3258 12 is_stmt 0     @ ../Libraries/STM32F4xx_StdPeriph_Driver/src/stm32f4xx_tim.c:3258:12
	orr.w	lr, r3, r2, lsl #8
	.loc	3 3252 20 is_stmt 1     @ ../Libraries/STM32F4xx_StdPeriph_Driver/src/stm32f4xx_tim.c:3252:20
	mov	r2, r0
.Ltmp313:
	.loc	3 0 20 is_stmt 0        @ ../Libraries/STM32F4xx_StdPeriph_Driver/src/stm32f4xx_tim.c:0:20
	movw	r3, #3327
.Ltmp314:
	@DEBUG_VALUE: TI2_Config:tmp <- undef
	.loc	3 3252 20               @ ../Libraries/STM32F4xx_StdPeriph_Driver/src/stm32f4xx_tim.c:3252:20
	ldrh	r4, [r2, #24]!
.Ltmp315:
	@DEBUG_VALUE: TI2_Config:tmpccmr1 <- $r4
	.loc	3 3257 12 is_stmt 1     @ ../Libraries/STM32F4xx_StdPeriph_Driver/src/stm32f4xx_tim.c:3257:12
	ands	r3, r4
.Ltmp316:
	@DEBUG_VALUE: TI2_Config:tmpccmr1 <- $r3
	.loc	3 3253 19               @ ../Libraries/STM32F4xx_StdPeriph_Driver/src/stm32f4xx_tim.c:3253:19
	ldrh	r4, [r0, #32]
.Ltmp317:
	@DEBUG_VALUE: TI2_Config:tmpccer <- $r4
	.loc	3 3259 12               @ ../Libraries/STM32F4xx_StdPeriph_Driver/src/stm32f4xx_tim.c:3259:12
	orr.w	r3, r3, lr
.Ltmp318:
	@DEBUG_VALUE: TI2_Config:tmpccmr1 <- $r3
	.loc	3 3266 15               @ ../Libraries/STM32F4xx_StdPeriph_Driver/src/stm32f4xx_tim.c:3266:15
	strh	r3, [r2]
	.loc	3 3262 11               @ ../Libraries/STM32F4xx_StdPeriph_Driver/src/stm32f4xx_tim.c:3262:11
	bic	r3, r4, #160
.Ltmp319:
	@DEBUG_VALUE: TI2_Config:tmpccer <- $r3
	.loc	3 3263 11               @ ../Libraries/STM32F4xx_StdPeriph_Driver/src/stm32f4xx_tim.c:3263:11
	orr.w	r3, r3, r12, lsl #4
.Ltmp320:
	orr	r3, r3, #16
	b	.LBB50_8
.Ltmp321:
.LBB50_4:
	@DEBUG_VALUE: TIM_ICInit:TIM_ICInitStruct <- $r1
	@DEBUG_VALUE: TIM_ICInit:TIMx <- $r0
	@DEBUG_VALUE: TI4_Config:TIM_ICSelection <- undef
	@DEBUG_VALUE: TI3_Config:TIM_ICSelection <- undef
	.loc	3 0 0 is_stmt 0         @ ../Libraries/STM32F4xx_StdPeriph_Driver/src/stm32f4xx_tim.c:0:0
	ldrh.w	lr, [r1, #8]
.Ltmp322:
	@DEBUG_VALUE: TI3_Config:TIM_ICPolarity <- undef
	@DEBUG_VALUE: TI4_Config:TIM_ICPolarity <- undef
	ldrh	r3, [r1, #4]
	ldrh.w	r12, [r1, #2]
.Ltmp323:
	@DEBUG_VALUE: TI3_Config:TIM_ICFilter <- undef
	@DEBUG_VALUE: TI4_Config:TIM_ICFilter <- undef
	ldrh	r4, [r0, #32]
.Ltmp324:
	.loc	3 1928 12 is_stmt 1     @ ../Libraries/STM32F4xx_StdPeriph_Driver/src/stm32f4xx_tim.c:1928:12
	cmp	r2, #8
	bne	.LBB50_7
.Ltmp325:
@ %bb.5:
	@DEBUG_VALUE: TIM_ICInit:TIM_ICInitStruct <- $r1
	@DEBUG_VALUE: TIM_ICInit:TIMx <- $r0
	@DEBUG_VALUE: TI3_Config:tmpccmr2 <- 0
	@DEBUG_VALUE: TI3_Config:tmpccer <- 0
	@DEBUG_VALUE: TI3_Config:tmp <- 0
	.loc	3 3293 14               @ ../Libraries/STM32F4xx_StdPeriph_Driver/src/stm32f4xx_tim.c:3293:14
	bic	r2, r4, #256
	.loc	3 3300 42               @ ../Libraries/STM32F4xx_StdPeriph_Driver/src/stm32f4xx_tim.c:3300:42
	orr.w	r3, r3, lr, lsl #4
	.loc	3 3293 14               @ ../Libraries/STM32F4xx_StdPeriph_Driver/src/stm32f4xx_tim.c:3293:14
	strh	r2, [r0, #32]
	.loc	3 3294 20               @ ../Libraries/STM32F4xx_StdPeriph_Driver/src/stm32f4xx_tim.c:3294:20
	mov	r2, r0
	ldrh	r4, [r2, #28]!
.Ltmp326:
	@DEBUG_VALUE: TI3_Config:tmp <- undef
	@DEBUG_VALUE: TI3_Config:tmpccmr2 <- $r4
	.loc	3 3299 12               @ ../Libraries/STM32F4xx_StdPeriph_Driver/src/stm32f4xx_tim.c:3299:12
	bic	r4, r4, #243
.Ltmp327:
	@DEBUG_VALUE: TI3_Config:tmpccmr2 <- $r4
	.loc	3 3300 12               @ ../Libraries/STM32F4xx_StdPeriph_Driver/src/stm32f4xx_tim.c:3300:12
	orrs	r3, r4
.Ltmp328:
	@DEBUG_VALUE: TI3_Config:tmpccmr2 <- $r3
	.loc	3 3295 19               @ ../Libraries/STM32F4xx_StdPeriph_Driver/src/stm32f4xx_tim.c:3295:19
	ldrh	r4, [r0, #32]
.Ltmp329:
	@DEBUG_VALUE: TI3_Config:tmpccer <- $r4
	.loc	3 3307 15               @ ../Libraries/STM32F4xx_StdPeriph_Driver/src/stm32f4xx_tim.c:3307:15
	strh	r3, [r2]
	.loc	3 3303 11               @ ../Libraries/STM32F4xx_StdPeriph_Driver/src/stm32f4xx_tim.c:3303:11
	bic	r3, r4, #2816
.Ltmp330:
	@DEBUG_VALUE: TI3_Config:tmpccer <- $r3
	.loc	3 3304 11               @ ../Libraries/STM32F4xx_StdPeriph_Driver/src/stm32f4xx_tim.c:3304:11
	orr.w	r3, r3, r12, lsl #8
.Ltmp331:
	orr	r3, r3, #256
.Ltmp332:
.LBB50_6:
	@DEBUG_VALUE: TIM_ICInit:TIM_ICInitStruct <- $r1
	@DEBUG_VALUE: TIM_ICInit:TIMx <- $r0
	@DEBUG_VALUE: TI3_Config:tmpccer <- $r3
	.loc	3 0 0 is_stmt 0         @ ../Libraries/STM32F4xx_StdPeriph_Driver/src/stm32f4xx_tim.c:0:0
	strh	r3, [r0, #32]
	ldrh	r0, [r1, #6]
.Ltmp333:
	@DEBUG_VALUE: TIM_SetIC3Prescaler:TIM_ICPSC <- undef
	ldrh	r1, [r2]
.Ltmp334:
	bic	r1, r1, #12
	b	.LBB50_9
.Ltmp335:
.LBB50_7:
	@DEBUG_VALUE: TIM_ICInit:TIM_ICInitStruct <- $r1
	@DEBUG_VALUE: TIM_ICInit:TIMx <- $r0
	@DEBUG_VALUE: TI4_Config:tmpccmr2 <- 0
	@DEBUG_VALUE: TI4_Config:tmpccer <- 0
	@DEBUG_VALUE: TI4_Config:tmp <- 0
	.loc	3 3334 14 is_stmt 1     @ ../Libraries/STM32F4xx_StdPeriph_Driver/src/stm32f4xx_tim.c:3334:14
	bic	r2, r4, #4096
	strh	r2, [r0, #32]
.Ltmp336:
	@DEBUG_VALUE: TI4_Config:tmpccmr2 <- undef
	.loc	3 3342 39               @ ../Libraries/STM32F4xx_StdPeriph_Driver/src/stm32f4xx_tim.c:3342:39
	lsl.w	r2, lr, #12
	.loc	3 3341 12               @ ../Libraries/STM32F4xx_StdPeriph_Driver/src/stm32f4xx_tim.c:3341:12
	orr.w	lr, r2, r3, lsl #8
	.loc	3 3335 20               @ ../Libraries/STM32F4xx_StdPeriph_Driver/src/stm32f4xx_tim.c:3335:20
	mov	r2, r0
	movw	r3, #3327
.Ltmp337:
	@DEBUG_VALUE: TI4_Config:tmp <- undef
	ldrh	r4, [r2, #28]!
.Ltmp338:
	@DEBUG_VALUE: TI4_Config:tmpccmr2 <- $r4
	.loc	3 3340 12               @ ../Libraries/STM32F4xx_StdPeriph_Driver/src/stm32f4xx_tim.c:3340:12
	ands	r3, r4
.Ltmp339:
	@DEBUG_VALUE: TI4_Config:tmpccmr2 <- $r3
	.loc	3 3336 19               @ ../Libraries/STM32F4xx_StdPeriph_Driver/src/stm32f4xx_tim.c:3336:19
	ldrh	r4, [r0, #32]
.Ltmp340:
	@DEBUG_VALUE: TI4_Config:tmpccer <- $r4
	.loc	3 3342 12               @ ../Libraries/STM32F4xx_StdPeriph_Driver/src/stm32f4xx_tim.c:3342:12
	orr.w	r3, r3, lr
.Ltmp341:
	@DEBUG_VALUE: TI4_Config:tmpccmr2 <- $r3
	.loc	3 3349 15               @ ../Libraries/STM32F4xx_StdPeriph_Driver/src/stm32f4xx_tim.c:3349:15
	strh	r3, [r2]
	movw	r3, #20479
.Ltmp342:
	.loc	3 3345 11               @ ../Libraries/STM32F4xx_StdPeriph_Driver/src/stm32f4xx_tim.c:3345:11
	ands	r3, r4
.Ltmp343:
	@DEBUG_VALUE: TI4_Config:tmpccer <- $r3
	.loc	3 3346 11               @ ../Libraries/STM32F4xx_StdPeriph_Driver/src/stm32f4xx_tim.c:3346:11
	orr.w	r3, r3, r12, lsl #12
.Ltmp344:
	orr	r3, r3, #4096
.Ltmp345:
.LBB50_8:
	@DEBUG_VALUE: TIM_ICInit:TIM_ICInitStruct <- $r1
	@DEBUG_VALUE: TIM_ICInit:TIMx <- $r0
	@DEBUG_VALUE: TI4_Config:tmpccer <- $r3
	.loc	3 0 0 is_stmt 0         @ ../Libraries/STM32F4xx_StdPeriph_Driver/src/stm32f4xx_tim.c:0:0
	strh	r3, [r0, #32]
	ldrh	r0, [r1, #6]
.Ltmp346:
	@DEBUG_VALUE: TIM_SetIC4Prescaler:TIM_ICPSC <- $r0
	ldrh	r1, [r2]
.Ltmp347:
	bic	r1, r1, #3072
	lsls	r0, r0, #8
.Ltmp348:
.LBB50_9:
	strh	r1, [r2]
	ldrh	r1, [r2]
	orrs	r0, r1
	strh	r0, [r2]
.Ltmp349:
	.loc	3 1948 1 is_stmt 1      @ ../Libraries/STM32F4xx_StdPeriph_Driver/src/stm32f4xx_tim.c:1948:1
	pop	{r4, pc}
.Ltmp350:
.Lfunc_end50:
	.size	TIM_ICInit, .Lfunc_end50-TIM_ICInit
	.cfi_endproc
	.cantunwind
	.fnend
                                        @ -- End function
	.section	.text.TIM_SetIC1Prescaler,"ax",%progbits
	.hidden	TIM_SetIC1Prescaler     @ -- Begin function TIM_SetIC1Prescaler
	.globl	TIM_SetIC1Prescaler
	.p2align	1
	.type	TIM_SetIC1Prescaler,%function
	.code	16                      @ @TIM_SetIC1Prescaler
	.thumb_func
TIM_SetIC1Prescaler:
.Lfunc_begin51:
	.loc	3 2096 0                @ ../Libraries/STM32F4xx_StdPeriph_Driver/src/stm32f4xx_tim.c:2096:0
	.fnstart
	.cfi_startproc
@ %bb.0:
	@DEBUG_VALUE: TIM_SetIC1Prescaler:TIMx <- $r0
	@DEBUG_VALUE: TIM_SetIC1Prescaler:TIMx <- $r0
	@DEBUG_VALUE: TIM_SetIC1Prescaler:TIM_ICPSC <- $r1
	@DEBUG_VALUE: TIM_SetIC1Prescaler:TIM_ICPSC <- $r1
	.loc	3 2102 15 prologue_end  @ ../Libraries/STM32F4xx_StdPeriph_Driver/src/stm32f4xx_tim.c:2102:15
	ldrh	r2, [r0, #24]
	bic	r2, r2, #12
	strh	r2, [r0, #24]
	.loc	3 2105 15               @ ../Libraries/STM32F4xx_StdPeriph_Driver/src/stm32f4xx_tim.c:2105:15
	ldrh	r2, [r0, #24]
	orrs	r1, r2
.Ltmp351:
	strh	r1, [r0, #24]
	.loc	3 2106 1                @ ../Libraries/STM32F4xx_StdPeriph_Driver/src/stm32f4xx_tim.c:2106:1
	bx	lr
.Ltmp352:
.Lfunc_end51:
	.size	TIM_SetIC1Prescaler, .Lfunc_end51-TIM_SetIC1Prescaler
	.cfi_endproc
	.cantunwind
	.fnend
                                        @ -- End function
	.section	.text.TIM_SetIC2Prescaler,"ax",%progbits
	.hidden	TIM_SetIC2Prescaler     @ -- Begin function TIM_SetIC2Prescaler
	.globl	TIM_SetIC2Prescaler
	.p2align	1
	.type	TIM_SetIC2Prescaler,%function
	.code	16                      @ @TIM_SetIC2Prescaler
	.thumb_func
TIM_SetIC2Prescaler:
.Lfunc_begin52:
	.loc	3 2121 0                @ ../Libraries/STM32F4xx_StdPeriph_Driver/src/stm32f4xx_tim.c:2121:0
	.fnstart
	.cfi_startproc
@ %bb.0:
	@DEBUG_VALUE: TIM_SetIC2Prescaler:TIMx <- $r0
	@DEBUG_VALUE: TIM_SetIC2Prescaler:TIMx <- $r0
	@DEBUG_VALUE: TIM_SetIC2Prescaler:TIM_ICPSC <- $r1
	@DEBUG_VALUE: TIM_SetIC2Prescaler:TIM_ICPSC <- $r1
	.loc	3 2127 15 prologue_end  @ ../Libraries/STM32F4xx_StdPeriph_Driver/src/stm32f4xx_tim.c:2127:15
	ldrh	r2, [r0, #24]
	bic	r2, r2, #3072
	strh	r2, [r0, #24]
	.loc	3 2130 15               @ ../Libraries/STM32F4xx_StdPeriph_Driver/src/stm32f4xx_tim.c:2130:15
	ldrh	r2, [r0, #24]
	orr.w	r1, r2, r1, lsl #8
.Ltmp353:
	strh	r1, [r0, #24]
	.loc	3 2131 1                @ ../Libraries/STM32F4xx_StdPeriph_Driver/src/stm32f4xx_tim.c:2131:1
	bx	lr
.Ltmp354:
.Lfunc_end52:
	.size	TIM_SetIC2Prescaler, .Lfunc_end52-TIM_SetIC2Prescaler
	.cfi_endproc
	.cantunwind
	.fnend
                                        @ -- End function
	.section	.text.TIM_SetIC3Prescaler,"ax",%progbits
	.hidden	TIM_SetIC3Prescaler     @ -- Begin function TIM_SetIC3Prescaler
	.globl	TIM_SetIC3Prescaler
	.p2align	1
	.type	TIM_SetIC3Prescaler,%function
	.code	16                      @ @TIM_SetIC3Prescaler
	.thumb_func
TIM_SetIC3Prescaler:
.Lfunc_begin53:
	.loc	3 2145 0                @ ../Libraries/STM32F4xx_StdPeriph_Driver/src/stm32f4xx_tim.c:2145:0
	.fnstart
	.cfi_startproc
@ %bb.0:
	@DEBUG_VALUE: TIM_SetIC3Prescaler:TIMx <- $r0
	@DEBUG_VALUE: TIM_SetIC3Prescaler:TIMx <- $r0
	@DEBUG_VALUE: TIM_SetIC3Prescaler:TIM_ICPSC <- $r1
	@DEBUG_VALUE: TIM_SetIC3Prescaler:TIM_ICPSC <- $r1
	.loc	3 2151 15 prologue_end  @ ../Libraries/STM32F4xx_StdPeriph_Driver/src/stm32f4xx_tim.c:2151:15
	ldrh	r2, [r0, #28]
	bic	r2, r2, #12
	strh	r2, [r0, #28]
	.loc	3 2154 15               @ ../Libraries/STM32F4xx_StdPeriph_Driver/src/stm32f4xx_tim.c:2154:15
	ldrh	r2, [r0, #28]
	orrs	r1, r2
.Ltmp355:
	strh	r1, [r0, #28]
	.loc	3 2155 1                @ ../Libraries/STM32F4xx_StdPeriph_Driver/src/stm32f4xx_tim.c:2155:1
	bx	lr
.Ltmp356:
.Lfunc_end53:
	.size	TIM_SetIC3Prescaler, .Lfunc_end53-TIM_SetIC3Prescaler
	.cfi_endproc
	.cantunwind
	.fnend
                                        @ -- End function
	.section	.text.TIM_SetIC4Prescaler,"ax",%progbits
	.hidden	TIM_SetIC4Prescaler     @ -- Begin function TIM_SetIC4Prescaler
	.globl	TIM_SetIC4Prescaler
	.p2align	1
	.type	TIM_SetIC4Prescaler,%function
	.code	16                      @ @TIM_SetIC4Prescaler
	.thumb_func
TIM_SetIC4Prescaler:
.Lfunc_begin54:
	.loc	3 2169 0                @ ../Libraries/STM32F4xx_StdPeriph_Driver/src/stm32f4xx_tim.c:2169:0
	.fnstart
	.cfi_startproc
@ %bb.0:
	@DEBUG_VALUE: TIM_SetIC4Prescaler:TIMx <- $r0
	@DEBUG_VALUE: TIM_SetIC4Prescaler:TIMx <- $r0
	@DEBUG_VALUE: TIM_SetIC4Prescaler:TIM_ICPSC <- $r1
	@DEBUG_VALUE: TIM_SetIC4Prescaler:TIM_ICPSC <- $r1
	.loc	3 2175 15 prologue_end  @ ../Libraries/STM32F4xx_StdPeriph_Driver/src/stm32f4xx_tim.c:2175:15
	ldrh	r2, [r0, #28]
	bic	r2, r2, #3072
	strh	r2, [r0, #28]
	.loc	3 2178 15               @ ../Libraries/STM32F4xx_StdPeriph_Driver/src/stm32f4xx_tim.c:2178:15
	ldrh	r2, [r0, #28]
	orr.w	r1, r2, r1, lsl #8
.Ltmp357:
	strh	r1, [r0, #28]
	.loc	3 2179 1                @ ../Libraries/STM32F4xx_StdPeriph_Driver/src/stm32f4xx_tim.c:2179:1
	bx	lr
.Ltmp358:
.Lfunc_end54:
	.size	TIM_SetIC4Prescaler, .Lfunc_end54-TIM_SetIC4Prescaler
	.cfi_endproc
	.cantunwind
	.fnend
                                        @ -- End function
	.section	.text.TIM_ICStructInit,"ax",%progbits
	.hidden	TIM_ICStructInit        @ -- Begin function TIM_ICStructInit
	.globl	TIM_ICStructInit
	.p2align	1
	.type	TIM_ICStructInit,%function
	.code	16                      @ @TIM_ICStructInit
	.thumb_func
TIM_ICStructInit:
.Lfunc_begin55:
	.loc	3 1957 0                @ ../Libraries/STM32F4xx_StdPeriph_Driver/src/stm32f4xx_tim.c:1957:0
	.fnstart
	.cfi_startproc
@ %bb.0:
	@DEBUG_VALUE: TIM_ICStructInit:TIM_ICInitStruct <- $r0
	movs	r1, #0
	@DEBUG_VALUE: TIM_ICStructInit:TIM_ICInitStruct <- $r0
	movs	r2, #1
.Ltmp359:
	.loc	3 1963 34 prologue_end  @ ../Libraries/STM32F4xx_StdPeriph_Driver/src/stm32f4xx_tim.c:1963:34
	strh	r1, [r0, #8]
	.loc	3 1961 37               @ ../Libraries/STM32F4xx_StdPeriph_Driver/src/stm32f4xx_tim.c:1961:37
	str	r2, [r0, #4]
	.loc	3 1959 33               @ ../Libraries/STM32F4xx_StdPeriph_Driver/src/stm32f4xx_tim.c:1959:33
	str	r1, [r0]
	.loc	3 1964 1                @ ../Libraries/STM32F4xx_StdPeriph_Driver/src/stm32f4xx_tim.c:1964:1
	bx	lr
.Ltmp360:
.Lfunc_end55:
	.size	TIM_ICStructInit, .Lfunc_end55-TIM_ICStructInit
	.cfi_endproc
	.cantunwind
	.fnend
                                        @ -- End function
	.section	.text.TIM_PWMIConfig,"ax",%progbits
	.hidden	TIM_PWMIConfig          @ -- Begin function TIM_PWMIConfig
	.globl	TIM_PWMIConfig
	.p2align	1
	.type	TIM_PWMIConfig,%function
	.code	16                      @ @TIM_PWMIConfig
	.thumb_func
TIM_PWMIConfig:
.Lfunc_begin56:
	.loc	3 1976 0                @ ../Libraries/STM32F4xx_StdPeriph_Driver/src/stm32f4xx_tim.c:1976:0
	.fnstart
	.cfi_startproc
@ %bb.0:
	.save	{r4, r5, r6, r7, lr}
	push	{r4, r5, r6, r7, lr}
	.cfi_def_cfa_offset 20
	.cfi_offset lr, -4
	.cfi_offset r7, -8
	.cfi_offset r6, -12
	.cfi_offset r5, -16
	.cfi_offset r4, -20
	@DEBUG_VALUE: TIM_PWMIConfig:TIMx <- $r0
	@DEBUG_VALUE: TIM_PWMIConfig:TIMx <- $r0
	@DEBUG_VALUE: TIM_PWMIConfig:TIM_ICInitStruct <- $r1
	@DEBUG_VALUE: TIM_PWMIConfig:TIM_ICInitStruct <- $r1
.Ltmp361:
	@DEBUG_VALUE: TI2_Config:TIMx <- $r0
	@DEBUG_VALUE: TI2_Config:TIMx <- $r0
	@DEBUG_VALUE: TIM_SetIC2Prescaler:TIMx <- $r0
	@DEBUG_VALUE: TIM_SetIC2Prescaler:TIMx <- $r0
	@DEBUG_VALUE: TIM_SetIC1Prescaler:TIMx <- $r0
	@DEBUG_VALUE: TIM_SetIC1Prescaler:TIMx <- $r0
	@DEBUG_VALUE: TI1_Config:TIMx <- $r0
	@DEBUG_VALUE: TI1_Config:TIMx <- $r0
	@DEBUG_VALUE: TIM_PWMIConfig:icoppositepolarity <- 0
	@DEBUG_VALUE: TIM_PWMIConfig:icoppositeselection <- 1
	.loc	3 1993 25 prologue_end  @ ../Libraries/STM32F4xx_StdPeriph_Driver/src/stm32f4xx_tim.c:1993:25
	ldrh	r2, [r1, #4]
	movs	r7, #1
.Ltmp362:
	@DEBUG_VALUE: TI1_Config:TIM_ICSelection <- undef
	@DEBUG_VALUE: TI2_Config:TIM_ICSelection <- undef
	.loc	3 1993 7 is_stmt 0      @ ../Libraries/STM32F4xx_StdPeriph_Driver/src/stm32f4xx_tim.c:1993:7
	cmp	r2, #1
	it	eq
	moveq	r7, #2
.Ltmp363:
	@DEBUG_VALUE: TI2_Config:TIM_ICSelection <- $r7
	@DEBUG_VALUE: TI1_Config:TIM_ICSelection <- $r7
	@DEBUG_VALUE: TIM_PWMIConfig:icoppositeselection <- $r7
	.loc	3 1984 25 is_stmt 1     @ ../Libraries/STM32F4xx_StdPeriph_Driver/src/stm32f4xx_tim.c:1984:25
	ldrh	r4, [r1, #2]
.Ltmp364:
	@DEBUG_VALUE: TI1_Config:TIM_ICFilter <- undef
	@DEBUG_VALUE: TI2_Config:TIM_ICFilter <- undef
	@DEBUG_VALUE: TI2_Config:TIM_ICFilter <- undef
	@DEBUG_VALUE: TI1_Config:TIM_ICFilter <- undef
	.loc	3 2001 25               @ ../Libraries/STM32F4xx_StdPeriph_Driver/src/stm32f4xx_tim.c:2001:25
	ldrh	r6, [r1]
	.loc	3 0 0 is_stmt 0         @ ../Libraries/STM32F4xx_StdPeriph_Driver/src/stm32f4xx_tim.c:0:0
	ldrh.w	lr, [r1, #8]
	ldrh	r5, [r0, #32]
.Ltmp365:
	.loc	3 1984 25 is_stmt 1     @ ../Libraries/STM32F4xx_StdPeriph_Driver/src/stm32f4xx_tim.c:1984:25
	clz	r3, r4
.Ltmp366:
	.loc	3 2001 7                @ ../Libraries/STM32F4xx_StdPeriph_Driver/src/stm32f4xx_tim.c:2001:7
	cmp	r6, #0
.Ltmp367:
	.loc	3 1984 25               @ ../Libraries/STM32F4xx_StdPeriph_Driver/src/stm32f4xx_tim.c:1984:25
	lsr.w	r3, r3, #5
.Ltmp368:
	@DEBUG_VALUE: TI1_Config:TIM_ICPolarity <- undef
	@DEBUG_VALUE: TI2_Config:TIM_ICPolarity <- undef
	.loc	3 1984 7 is_stmt 0      @ ../Libraries/STM32F4xx_StdPeriph_Driver/src/stm32f4xx_tim.c:1984:7
	lsl.w	r12, r3, #1
.Ltmp369:
	@DEBUG_VALUE: TI2_Config:TIM_ICPolarity <- $r12
	@DEBUG_VALUE: TI1_Config:TIM_ICPolarity <- $r12
	@DEBUG_VALUE: TIM_PWMIConfig:icoppositepolarity <- $r12
	.loc	3 2001 7 is_stmt 1      @ ../Libraries/STM32F4xx_StdPeriph_Driver/src/stm32f4xx_tim.c:2001:7
	beq	.LBB56_2
.Ltmp370:
@ %bb.1:
	@DEBUG_VALUE: TIM_PWMIConfig:icoppositepolarity <- $r12
	@DEBUG_VALUE: TI1_Config:TIM_ICPolarity <- $r12
	@DEBUG_VALUE: TIM_PWMIConfig:icoppositeselection <- $r7
	@DEBUG_VALUE: TI1_Config:TIM_ICSelection <- $r7
	@DEBUG_VALUE: TIM_SetIC1Prescaler:TIMx <- $r0
	@DEBUG_VALUE: TIM_SetIC2Prescaler:TIMx <- $r0
	@DEBUG_VALUE: TI2_Config:TIMx <- $r0
	@DEBUG_VALUE: TIM_PWMIConfig:TIM_ICInitStruct <- $r1
	@DEBUG_VALUE: TIM_PWMIConfig:TIMx <- $r0
	@DEBUG_VALUE: TI2_Config:tmpccmr1 <- 0
	@DEBUG_VALUE: TI2_Config:tmpccer <- 0
	@DEBUG_VALUE: TI2_Config:tmp <- 0
	.loc	3 3251 14               @ ../Libraries/STM32F4xx_StdPeriph_Driver/src/stm32f4xx_tim.c:3251:14
	bic	r3, r5, #16
	movw	r6, #3327
.Ltmp371:
	@DEBUG_VALUE: TI2_Config:tmp <- undef
	strh	r3, [r0, #32]
	.loc	3 3258 39               @ ../Libraries/STM32F4xx_StdPeriph_Driver/src/stm32f4xx_tim.c:3258:39
	lsl.w	r3, lr, #12
.Ltmp372:
	@DEBUG_VALUE: TI2_Config:tmpccmr1 <- undef
	.loc	3 3258 12 is_stmt 0     @ ../Libraries/STM32F4xx_StdPeriph_Driver/src/stm32f4xx_tim.c:3258:12
	orr.w	r3, r3, r2, lsl #8
	.loc	3 3252 20 is_stmt 1     @ ../Libraries/STM32F4xx_StdPeriph_Driver/src/stm32f4xx_tim.c:3252:20
	mov	r2, r0
	ldrh	r5, [r2, #24]!
.Ltmp373:
	@DEBUG_VALUE: TI2_Config:tmpccmr1 <- $r5
	.loc	3 3257 12               @ ../Libraries/STM32F4xx_StdPeriph_Driver/src/stm32f4xx_tim.c:3257:12
	ands	r5, r6
.Ltmp374:
	@DEBUG_VALUE: TI2_Config:tmpccmr1 <- $r5
	.loc	3 3259 12               @ ../Libraries/STM32F4xx_StdPeriph_Driver/src/stm32f4xx_tim.c:3259:12
	orrs	r3, r5
.Ltmp375:
	@DEBUG_VALUE: TI2_Config:tmpccmr1 <- $r3
	.loc	3 3253 19               @ ../Libraries/STM32F4xx_StdPeriph_Driver/src/stm32f4xx_tim.c:3253:19
	ldrh	r5, [r0, #32]
.Ltmp376:
	@DEBUG_VALUE: TI2_Config:tmpccer <- $r5
	.loc	3 3266 15               @ ../Libraries/STM32F4xx_StdPeriph_Driver/src/stm32f4xx_tim.c:3266:15
	strh	r3, [r2]
	.loc	3 3262 11               @ ../Libraries/STM32F4xx_StdPeriph_Driver/src/stm32f4xx_tim.c:3262:11
	bic	r3, r5, #160
.Ltmp377:
	@DEBUG_VALUE: TI2_Config:tmpccer <- $r3
	.loc	3 3263 11               @ ../Libraries/STM32F4xx_StdPeriph_Driver/src/stm32f4xx_tim.c:3263:11
	orr.w	r3, r3, r4, lsl #4
.Ltmp378:
	orr	r3, r3, #16
.Ltmp379:
	@DEBUG_VALUE: TI2_Config:tmpccer <- $r3
	.loc	3 3267 14               @ ../Libraries/STM32F4xx_StdPeriph_Driver/src/stm32f4xx_tim.c:3267:14
	strh	r3, [r0, #32]
.Ltmp380:
	.loc	3 2019 49               @ ../Libraries/STM32F4xx_StdPeriph_Driver/src/stm32f4xx_tim.c:2019:49
	ldrh	r1, [r1, #6]
.Ltmp381:
	@DEBUG_VALUE: TIM_SetIC2Prescaler:TIM_ICPSC <- $r1
	.loc	3 2127 15               @ ../Libraries/STM32F4xx_StdPeriph_Driver/src/stm32f4xx_tim.c:2127:15
	ldrh	r3, [r2]
.Ltmp382:
	bic	r3, r3, #3072
	strh	r3, [r2]
	.loc	3 2130 15               @ ../Libraries/STM32F4xx_StdPeriph_Driver/src/stm32f4xx_tim.c:2130:15
	ldrh	r3, [r2]
	orr.w	r3, r3, r1, lsl #8
	strh	r3, [r2]
.Ltmp383:
	@DEBUG_VALUE: TI1_Config:tmpccer <- 0
	@DEBUG_VALUE: TI1_Config:tmpccmr1 <- 0
	.loc	3 3210 14               @ ../Libraries/STM32F4xx_StdPeriph_Driver/src/stm32f4xx_tim.c:3210:14
	ldrh	r3, [r0, #32]
	bic	r3, r3, #1
	strh	r3, [r0, #32]
	.loc	3 3216 42               @ ../Libraries/STM32F4xx_StdPeriph_Driver/src/stm32f4xx_tim.c:3216:42
	orr.w	r3, r7, lr, lsl #4
	.loc	3 3211 20               @ ../Libraries/STM32F4xx_StdPeriph_Driver/src/stm32f4xx_tim.c:3211:20
	ldrh	r7, [r2]
.Ltmp384:
	@DEBUG_VALUE: TI1_Config:tmpccmr1 <- $r7
	.loc	3 3215 12               @ ../Libraries/STM32F4xx_StdPeriph_Driver/src/stm32f4xx_tim.c:3215:12
	bic	r7, r7, #243
.Ltmp385:
	@DEBUG_VALUE: TI1_Config:tmpccmr1 <- $r7
	.loc	3 3216 12               @ ../Libraries/STM32F4xx_StdPeriph_Driver/src/stm32f4xx_tim.c:3216:12
	orrs	r3, r7
.Ltmp386:
	@DEBUG_VALUE: TI1_Config:tmpccmr1 <- $r3
	.loc	3 3212 19               @ ../Libraries/STM32F4xx_StdPeriph_Driver/src/stm32f4xx_tim.c:3212:19
	ldrh	r7, [r0, #32]
.Ltmp387:
	@DEBUG_VALUE: TI1_Config:tmpccer <- $r7
	.loc	3 3223 15               @ ../Libraries/STM32F4xx_StdPeriph_Driver/src/stm32f4xx_tim.c:3223:15
	strh	r3, [r2]
	.loc	3 3219 11               @ ../Libraries/STM32F4xx_StdPeriph_Driver/src/stm32f4xx_tim.c:3219:11
	bic	r3, r7, #10
.Ltmp388:
	@DEBUG_VALUE: TI1_Config:tmpccer <- $r3
	.loc	3 3220 11               @ ../Libraries/STM32F4xx_StdPeriph_Driver/src/stm32f4xx_tim.c:3220:11
	orr.w	r3, r3, r12
.Ltmp389:
	orr	r3, r3, #1
.Ltmp390:
	@DEBUG_VALUE: TI1_Config:tmpccer <- $r3
	.loc	3 3224 14               @ ../Libraries/STM32F4xx_StdPeriph_Driver/src/stm32f4xx_tim.c:3224:14
	strh	r3, [r0, #32]
.Ltmp391:
	@DEBUG_VALUE: TIM_SetIC1Prescaler:TIM_ICPSC <- $r1
	.loc	3 2102 15               @ ../Libraries/STM32F4xx_StdPeriph_Driver/src/stm32f4xx_tim.c:2102:15
	ldrh	r0, [r2]
.Ltmp392:
	bic	r0, r0, #12
	b	.LBB56_3
.Ltmp393:
.LBB56_2:
	@DEBUG_VALUE: TIM_PWMIConfig:icoppositepolarity <- $r12
	@DEBUG_VALUE: TI2_Config:TIM_ICPolarity <- $r12
	@DEBUG_VALUE: TIM_PWMIConfig:icoppositeselection <- $r7
	@DEBUG_VALUE: TI2_Config:TIM_ICSelection <- $r7
	@DEBUG_VALUE: TI1_Config:TIMx <- $r0
	@DEBUG_VALUE: TIM_PWMIConfig:TIM_ICInitStruct <- $r1
	@DEBUG_VALUE: TIM_PWMIConfig:TIMx <- $r0
	@DEBUG_VALUE: TI1_Config:tmpccmr1 <- 0
	@DEBUG_VALUE: TI1_Config:tmpccer <- 0
	.loc	3 3210 14               @ ../Libraries/STM32F4xx_StdPeriph_Driver/src/stm32f4xx_tim.c:3210:14
	bic	r3, r5, #1
	movw	r6, #3327
.Ltmp394:
	@DEBUG_VALUE: TI2_Config:tmp <- undef
	strh	r3, [r0, #32]
	.loc	3 3216 42               @ ../Libraries/STM32F4xx_StdPeriph_Driver/src/stm32f4xx_tim.c:3216:42
	orr.w	r3, r2, lr, lsl #4
	.loc	3 3211 20               @ ../Libraries/STM32F4xx_StdPeriph_Driver/src/stm32f4xx_tim.c:3211:20
	mov	r2, r0
	ldrh	r5, [r2, #24]!
.Ltmp395:
	@DEBUG_VALUE: TI1_Config:tmpccmr1 <- $r5
	.loc	3 3215 12               @ ../Libraries/STM32F4xx_StdPeriph_Driver/src/stm32f4xx_tim.c:3215:12
	bic	r5, r5, #243
.Ltmp396:
	@DEBUG_VALUE: TI1_Config:tmpccmr1 <- $r5
	.loc	3 3216 12               @ ../Libraries/STM32F4xx_StdPeriph_Driver/src/stm32f4xx_tim.c:3216:12
	orrs	r3, r5
.Ltmp397:
	@DEBUG_VALUE: TI1_Config:tmpccmr1 <- $r3
	.loc	3 3212 19               @ ../Libraries/STM32F4xx_StdPeriph_Driver/src/stm32f4xx_tim.c:3212:19
	ldrh	r5, [r0, #32]
.Ltmp398:
	@DEBUG_VALUE: TI1_Config:tmpccer <- $r5
	.loc	3 3223 15               @ ../Libraries/STM32F4xx_StdPeriph_Driver/src/stm32f4xx_tim.c:3223:15
	strh	r3, [r2]
	.loc	3 3219 11               @ ../Libraries/STM32F4xx_StdPeriph_Driver/src/stm32f4xx_tim.c:3219:11
	bic	r3, r5, #10
.Ltmp399:
	@DEBUG_VALUE: TI1_Config:tmpccer <- $r3
	.loc	3 3220 11               @ ../Libraries/STM32F4xx_StdPeriph_Driver/src/stm32f4xx_tim.c:3220:11
	orrs	r3, r4
.Ltmp400:
	orr	r3, r3, #1
.Ltmp401:
	@DEBUG_VALUE: TI1_Config:tmpccer <- $r3
	.loc	3 3224 14               @ ../Libraries/STM32F4xx_StdPeriph_Driver/src/stm32f4xx_tim.c:3224:14
	strh	r3, [r0, #32]
.Ltmp402:
	.loc	3 2007 49               @ ../Libraries/STM32F4xx_StdPeriph_Driver/src/stm32f4xx_tim.c:2007:49
	ldrh	r1, [r1, #6]
.Ltmp403:
	@DEBUG_VALUE: TIM_SetIC1Prescaler:TIM_ICPSC <- $r1
	.loc	3 2102 15               @ ../Libraries/STM32F4xx_StdPeriph_Driver/src/stm32f4xx_tim.c:2102:15
	ldrh	r3, [r2]
.Ltmp404:
	bic	r3, r3, #12
	strh	r3, [r2]
	.loc	3 2105 15               @ ../Libraries/STM32F4xx_StdPeriph_Driver/src/stm32f4xx_tim.c:2105:15
	ldrh	r3, [r2]
	orrs	r3, r1
.Ltmp405:
	.loc	3 2130 39               @ ../Libraries/STM32F4xx_StdPeriph_Driver/src/stm32f4xx_tim.c:2130:39
	lsls	r1, r1, #8
.Ltmp406:
	.loc	3 2105 15               @ ../Libraries/STM32F4xx_StdPeriph_Driver/src/stm32f4xx_tim.c:2105:15
	strh	r3, [r2]
.Ltmp407:
	@DEBUG_VALUE: TI2_Config:tmp <- 0
	@DEBUG_VALUE: TI2_Config:tmpccer <- 0
	@DEBUG_VALUE: TI2_Config:tmpccmr1 <- 0
	.loc	3 3251 14               @ ../Libraries/STM32F4xx_StdPeriph_Driver/src/stm32f4xx_tim.c:3251:14
	ldrh	r3, [r0, #32]
	bic	r3, r3, #16
	strh	r3, [r0, #32]
	.loc	3 3258 39               @ ../Libraries/STM32F4xx_StdPeriph_Driver/src/stm32f4xx_tim.c:3258:39
	lsl.w	r3, lr, #12
.Ltmp408:
	@DEBUG_VALUE: TI2_Config:tmpccmr1 <- undef
	.loc	3 3258 12 is_stmt 0     @ ../Libraries/STM32F4xx_StdPeriph_Driver/src/stm32f4xx_tim.c:3258:12
	orr.w	r3, r3, r7, lsl #8
	.loc	3 3252 20 is_stmt 1     @ ../Libraries/STM32F4xx_StdPeriph_Driver/src/stm32f4xx_tim.c:3252:20
	ldrh	r7, [r2]
.Ltmp409:
	@DEBUG_VALUE: TI2_Config:tmpccmr1 <- $r7
	.loc	3 3257 12               @ ../Libraries/STM32F4xx_StdPeriph_Driver/src/stm32f4xx_tim.c:3257:12
	ands	r7, r6
.Ltmp410:
	@DEBUG_VALUE: TI2_Config:tmpccmr1 <- $r7
	.loc	3 3259 12               @ ../Libraries/STM32F4xx_StdPeriph_Driver/src/stm32f4xx_tim.c:3259:12
	add	r3, r7
.Ltmp411:
	@DEBUG_VALUE: TI2_Config:tmpccmr1 <- $r3
	.loc	3 3253 19               @ ../Libraries/STM32F4xx_StdPeriph_Driver/src/stm32f4xx_tim.c:3253:19
	ldrh	r7, [r0, #32]
.Ltmp412:
	@DEBUG_VALUE: TI2_Config:tmpccer <- $r7
	.loc	3 3266 15               @ ../Libraries/STM32F4xx_StdPeriph_Driver/src/stm32f4xx_tim.c:3266:15
	strh	r3, [r2]
	.loc	3 3262 11               @ ../Libraries/STM32F4xx_StdPeriph_Driver/src/stm32f4xx_tim.c:3262:11
	bic	r3, r7, #160
.Ltmp413:
	@DEBUG_VALUE: TI2_Config:tmpccer <- $r3
	.loc	3 3263 11               @ ../Libraries/STM32F4xx_StdPeriph_Driver/src/stm32f4xx_tim.c:3263:11
	orr.w	r3, r3, r12, lsl #4
.Ltmp414:
	orr	r3, r3, #16
.Ltmp415:
	@DEBUG_VALUE: TI2_Config:tmpccer <- $r3
	.loc	3 3267 14               @ ../Libraries/STM32F4xx_StdPeriph_Driver/src/stm32f4xx_tim.c:3267:14
	strh	r3, [r0, #32]
.Ltmp416:
	@DEBUG_VALUE: TIM_SetIC2Prescaler:TIM_ICPSC <- $r1
	.loc	3 2127 15               @ ../Libraries/STM32F4xx_StdPeriph_Driver/src/stm32f4xx_tim.c:2127:15
	ldrh	r0, [r2]
.Ltmp417:
	bic	r0, r0, #3072
.Ltmp418:
.LBB56_3:
	@DEBUG_VALUE: TIM_PWMIConfig:icoppositepolarity <- $r12
	.loc	3 0 0 is_stmt 0         @ ../Libraries/STM32F4xx_StdPeriph_Driver/src/stm32f4xx_tim.c:0:0
	strh	r0, [r2]
	ldrh	r0, [r2]
	orrs	r0, r1
	strh	r0, [r2]
.Ltmp419:
	.loc	3 2025 1 is_stmt 1      @ ../Libraries/STM32F4xx_StdPeriph_Driver/src/stm32f4xx_tim.c:2025:1
	pop	{r4, r5, r6, r7, pc}
.Ltmp420:
.Lfunc_end56:
	.size	TIM_PWMIConfig, .Lfunc_end56-TIM_PWMIConfig
	.cfi_endproc
	.cantunwind
	.fnend
                                        @ -- End function
	.section	.text.TIM_GetCapture1,"ax",%progbits
	.hidden	TIM_GetCapture1         @ -- Begin function TIM_GetCapture1
	.globl	TIM_GetCapture1
	.p2align	1
	.type	TIM_GetCapture1,%function
	.code	16                      @ @TIM_GetCapture1
	.thumb_func
TIM_GetCapture1:
.Lfunc_begin57:
	.loc	3 2033 0                @ ../Libraries/STM32F4xx_StdPeriph_Driver/src/stm32f4xx_tim.c:2033:0
	.fnstart
	.cfi_startproc
@ %bb.0:
	@DEBUG_VALUE: TIM_GetCapture1:TIMx <- $r0
	@DEBUG_VALUE: TIM_GetCapture1:TIMx <- $r0
	.loc	3 2038 16 prologue_end  @ ../Libraries/STM32F4xx_StdPeriph_Driver/src/stm32f4xx_tim.c:2038:16
	ldr	r0, [r0, #52]
.Ltmp421:
	.loc	3 2038 3 is_stmt 0      @ ../Libraries/STM32F4xx_StdPeriph_Driver/src/stm32f4xx_tim.c:2038:3
	bx	lr
.Ltmp422:
.Lfunc_end57:
	.size	TIM_GetCapture1, .Lfunc_end57-TIM_GetCapture1
	.cfi_endproc
	.cantunwind
	.fnend
                                        @ -- End function
	.section	.text.TIM_GetCapture2,"ax",%progbits
	.hidden	TIM_GetCapture2         @ -- Begin function TIM_GetCapture2
	.globl	TIM_GetCapture2
	.p2align	1
	.type	TIM_GetCapture2,%function
	.code	16                      @ @TIM_GetCapture2
	.thumb_func
TIM_GetCapture2:
.Lfunc_begin58:
	.loc	3 2048 0 is_stmt 1      @ ../Libraries/STM32F4xx_StdPeriph_Driver/src/stm32f4xx_tim.c:2048:0
	.fnstart
	.cfi_startproc
@ %bb.0:
	@DEBUG_VALUE: TIM_GetCapture2:TIMx <- $r0
	@DEBUG_VALUE: TIM_GetCapture2:TIMx <- $r0
	.loc	3 2053 16 prologue_end  @ ../Libraries/STM32F4xx_StdPeriph_Driver/src/stm32f4xx_tim.c:2053:16
	ldr	r0, [r0, #56]
.Ltmp423:
	.loc	3 2053 3 is_stmt 0      @ ../Libraries/STM32F4xx_StdPeriph_Driver/src/stm32f4xx_tim.c:2053:3
	bx	lr
.Ltmp424:
.Lfunc_end58:
	.size	TIM_GetCapture2, .Lfunc_end58-TIM_GetCapture2
	.cfi_endproc
	.cantunwind
	.fnend
                                        @ -- End function
	.section	.text.TIM_GetCapture3,"ax",%progbits
	.hidden	TIM_GetCapture3         @ -- Begin function TIM_GetCapture3
	.globl	TIM_GetCapture3
	.p2align	1
	.type	TIM_GetCapture3,%function
	.code	16                      @ @TIM_GetCapture3
	.thumb_func
TIM_GetCapture3:
.Lfunc_begin59:
	.loc	3 2062 0 is_stmt 1      @ ../Libraries/STM32F4xx_StdPeriph_Driver/src/stm32f4xx_tim.c:2062:0
	.fnstart
	.cfi_startproc
@ %bb.0:
	@DEBUG_VALUE: TIM_GetCapture3:TIMx <- $r0
	@DEBUG_VALUE: TIM_GetCapture3:TIMx <- $r0
	.loc	3 2067 16 prologue_end  @ ../Libraries/STM32F4xx_StdPeriph_Driver/src/stm32f4xx_tim.c:2067:16
	ldr	r0, [r0, #60]
.Ltmp425:
	.loc	3 2067 3 is_stmt 0      @ ../Libraries/STM32F4xx_StdPeriph_Driver/src/stm32f4xx_tim.c:2067:3
	bx	lr
.Ltmp426:
.Lfunc_end59:
	.size	TIM_GetCapture3, .Lfunc_end59-TIM_GetCapture3
	.cfi_endproc
	.cantunwind
	.fnend
                                        @ -- End function
	.section	.text.TIM_GetCapture4,"ax",%progbits
	.hidden	TIM_GetCapture4         @ -- Begin function TIM_GetCapture4
	.globl	TIM_GetCapture4
	.p2align	1
	.type	TIM_GetCapture4,%function
	.code	16                      @ @TIM_GetCapture4
	.thumb_func
TIM_GetCapture4:
.Lfunc_begin60:
	.loc	3 2076 0 is_stmt 1      @ ../Libraries/STM32F4xx_StdPeriph_Driver/src/stm32f4xx_tim.c:2076:0
	.fnstart
	.cfi_startproc
@ %bb.0:
	@DEBUG_VALUE: TIM_GetCapture4:TIMx <- $r0
	@DEBUG_VALUE: TIM_GetCapture4:TIMx <- $r0
	.loc	3 2081 16 prologue_end  @ ../Libraries/STM32F4xx_StdPeriph_Driver/src/stm32f4xx_tim.c:2081:16
	ldr	r0, [r0, #64]
.Ltmp427:
	.loc	3 2081 3 is_stmt 0      @ ../Libraries/STM32F4xx_StdPeriph_Driver/src/stm32f4xx_tim.c:2081:3
	bx	lr
.Ltmp428:
.Lfunc_end60:
	.size	TIM_GetCapture4, .Lfunc_end60-TIM_GetCapture4
	.cfi_endproc
	.cantunwind
	.fnend
                                        @ -- End function
	.section	.text.TIM_BDTRConfig,"ax",%progbits
	.hidden	TIM_BDTRConfig          @ -- Begin function TIM_BDTRConfig
	.globl	TIM_BDTRConfig
	.p2align	1
	.type	TIM_BDTRConfig,%function
	.code	16                      @ @TIM_BDTRConfig
	.thumb_func
TIM_BDTRConfig:
.Lfunc_begin61:
	.loc	3 2222 0 is_stmt 1      @ ../Libraries/STM32F4xx_StdPeriph_Driver/src/stm32f4xx_tim.c:2222:0
	.fnstart
	.cfi_startproc
@ %bb.0:
	@DEBUG_VALUE: TIM_BDTRConfig:TIMx <- $r0
	@DEBUG_VALUE: TIM_BDTRConfig:TIMx <- $r0
	@DEBUG_VALUE: TIM_BDTRConfig:TIM_BDTRInitStruct <- $r1
	@DEBUG_VALUE: TIM_BDTRConfig:TIM_BDTRInitStruct <- $r1
	.loc	3 2234 46 prologue_end  @ ../Libraries/STM32F4xx_StdPeriph_Driver/src/stm32f4xx_tim.c:2234:46
	ldrh	r2, [r1]
	.loc	3 2234 82 is_stmt 0     @ ../Libraries/STM32F4xx_StdPeriph_Driver/src/stm32f4xx_tim.c:2234:82
	ldrh	r3, [r1, #2]
	.loc	3 2234 60               @ ../Libraries/STM32F4xx_StdPeriph_Driver/src/stm32f4xx_tim.c:2234:60
	orrs	r2, r3
	.loc	3 2235 34 is_stmt 1     @ ../Libraries/STM32F4xx_StdPeriph_Driver/src/stm32f4xx_tim.c:2235:34
	ldrh	r3, [r1, #4]
	.loc	3 2234 96               @ ../Libraries/STM32F4xx_StdPeriph_Driver/src/stm32f4xx_tim.c:2234:96
	orrs	r2, r3
	.loc	3 2235 70               @ ../Libraries/STM32F4xx_StdPeriph_Driver/src/stm32f4xx_tim.c:2235:70
	ldrh	r3, [r1, #6]
	.loc	3 2235 48 is_stmt 0     @ ../Libraries/STM32F4xx_StdPeriph_Driver/src/stm32f4xx_tim.c:2235:48
	orrs	r2, r3
	.loc	3 2236 34 is_stmt 1     @ ../Libraries/STM32F4xx_StdPeriph_Driver/src/stm32f4xx_tim.c:2236:34
	ldrh	r3, [r1, #8]
	.loc	3 2235 83               @ ../Libraries/STM32F4xx_StdPeriph_Driver/src/stm32f4xx_tim.c:2235:83
	orrs	r2, r3
	.loc	3 2236 66               @ ../Libraries/STM32F4xx_StdPeriph_Driver/src/stm32f4xx_tim.c:2236:66
	ldrh	r3, [r1, #10]
	.loc	3 2237 34               @ ../Libraries/STM32F4xx_StdPeriph_Driver/src/stm32f4xx_tim.c:2237:34
	ldrh	r1, [r1, #12]
.Ltmp429:
	.loc	3 2236 44               @ ../Libraries/STM32F4xx_StdPeriph_Driver/src/stm32f4xx_tim.c:2236:44
	orrs	r2, r3
	.loc	3 2236 84 is_stmt 0     @ ../Libraries/STM32F4xx_StdPeriph_Driver/src/stm32f4xx_tim.c:2236:84
	orrs	r1, r2
	.loc	3 2234 14 is_stmt 1     @ ../Libraries/STM32F4xx_StdPeriph_Driver/src/stm32f4xx_tim.c:2234:14
	strh.w	r1, [r0, #68]
	.loc	3 2238 1                @ ../Libraries/STM32F4xx_StdPeriph_Driver/src/stm32f4xx_tim.c:2238:1
	bx	lr
.Ltmp430:
.Lfunc_end61:
	.size	TIM_BDTRConfig, .Lfunc_end61-TIM_BDTRConfig
	.cfi_endproc
	.cantunwind
	.fnend
                                        @ -- End function
	.section	.text.TIM_BDTRStructInit,"ax",%progbits
	.hidden	TIM_BDTRStructInit      @ -- Begin function TIM_BDTRStructInit
	.globl	TIM_BDTRStructInit
	.p2align	1
	.type	TIM_BDTRStructInit,%function
	.code	16                      @ @TIM_BDTRStructInit
	.thumb_func
TIM_BDTRStructInit:
.Lfunc_begin62:
	.loc	3 2247 0                @ ../Libraries/STM32F4xx_StdPeriph_Driver/src/stm32f4xx_tim.c:2247:0
	.fnstart
	.cfi_startproc
@ %bb.0:
	@DEBUG_VALUE: TIM_BDTRStructInit:TIM_BDTRInitStruct <- $r0
	movs	r1, #0
	@DEBUG_VALUE: TIM_BDTRStructInit:TIM_BDTRInitStruct <- $r0
.Ltmp431:
	.loc	3 2250 37 prologue_end  @ ../Libraries/STM32F4xx_StdPeriph_Driver/src/stm32f4xx_tim.c:2250:37
	strh	r1, [r0, #12]
	str	r1, [r0, #8]
	str	r1, [r0, #4]
	str	r1, [r0]
	.loc	3 2256 1                @ ../Libraries/STM32F4xx_StdPeriph_Driver/src/stm32f4xx_tim.c:2256:1
	bx	lr
.Ltmp432:
.Lfunc_end62:
	.size	TIM_BDTRStructInit, .Lfunc_end62-TIM_BDTRStructInit
	.cfi_endproc
	.cantunwind
	.fnend
                                        @ -- End function
	.section	.text.TIM_CtrlPWMOutputs,"ax",%progbits
	.hidden	TIM_CtrlPWMOutputs      @ -- Begin function TIM_CtrlPWMOutputs
	.globl	TIM_CtrlPWMOutputs
	.p2align	1
	.type	TIM_CtrlPWMOutputs,%function
	.code	16                      @ @TIM_CtrlPWMOutputs
	.thumb_func
TIM_CtrlPWMOutputs:
.Lfunc_begin63:
	.loc	3 2266 0                @ ../Libraries/STM32F4xx_StdPeriph_Driver/src/stm32f4xx_tim.c:2266:0
	.fnstart
	.cfi_startproc
@ %bb.0:
	@DEBUG_VALUE: TIM_CtrlPWMOutputs:TIMx <- $r0
	@DEBUG_VALUE: TIM_CtrlPWMOutputs:TIMx <- $r0
	@DEBUG_VALUE: TIM_CtrlPWMOutputs:NewState <- $r1
	@DEBUG_VALUE: TIM_CtrlPWMOutputs:NewState <- $r1
	.loc	3 0 0 prologue_end      @ ../Libraries/STM32F4xx_StdPeriph_Driver/src/stm32f4xx_tim.c:0:0
	ldrh.w	r2, [r0, #68]
.Ltmp433:
	.loc	3 2271 7                @ ../Libraries/STM32F4xx_StdPeriph_Driver/src/stm32f4xx_tim.c:2271:7
	cmp	r1, #0
	mov	r3, r2
	bfc	r3, #15, #17
	it	ne
	orrne	r3, r2, #32768
.Ltmp434:
	.loc	3 0 0 is_stmt 0         @ ../Libraries/STM32F4xx_StdPeriph_Driver/src/stm32f4xx_tim.c:0:0
	strh.w	r3, [r0, #68]
.Ltmp435:
	.loc	3 2281 1 is_stmt 1      @ ../Libraries/STM32F4xx_StdPeriph_Driver/src/stm32f4xx_tim.c:2281:1
	bx	lr
.Ltmp436:
.Lfunc_end63:
	.size	TIM_CtrlPWMOutputs, .Lfunc_end63-TIM_CtrlPWMOutputs
	.cfi_endproc
	.cantunwind
	.fnend
                                        @ -- End function
	.section	.text.TIM_SelectCOM,"ax",%progbits
	.hidden	TIM_SelectCOM           @ -- Begin function TIM_SelectCOM
	.globl	TIM_SelectCOM
	.p2align	1
	.type	TIM_SelectCOM,%function
	.code	16                      @ @TIM_SelectCOM
	.thumb_func
TIM_SelectCOM:
.Lfunc_begin64:
	.loc	3 2291 0                @ ../Libraries/STM32F4xx_StdPeriph_Driver/src/stm32f4xx_tim.c:2291:0
	.fnstart
	.cfi_startproc
@ %bb.0:
	@DEBUG_VALUE: TIM_SelectCOM:TIMx <- $r0
	@DEBUG_VALUE: TIM_SelectCOM:TIMx <- $r0
	@DEBUG_VALUE: TIM_SelectCOM:NewState <- $r1
	@DEBUG_VALUE: TIM_SelectCOM:NewState <- $r1
	.loc	3 0 0 prologue_end      @ ../Libraries/STM32F4xx_StdPeriph_Driver/src/stm32f4xx_tim.c:0:0
	ldrh	r2, [r0, #4]
.Ltmp437:
	.loc	3 2296 7                @ ../Libraries/STM32F4xx_StdPeriph_Driver/src/stm32f4xx_tim.c:2296:7
	cmp	r1, #0
	orr	r3, r2, #4
	it	eq
	biceq	r3, r2, #4
.Ltmp438:
	.loc	3 0 0 is_stmt 0         @ ../Libraries/STM32F4xx_StdPeriph_Driver/src/stm32f4xx_tim.c:0:0
	strh	r3, [r0, #4]
.Ltmp439:
	.loc	3 2306 1 is_stmt 1      @ ../Libraries/STM32F4xx_StdPeriph_Driver/src/stm32f4xx_tim.c:2306:1
	bx	lr
.Ltmp440:
.Lfunc_end64:
	.size	TIM_SelectCOM, .Lfunc_end64-TIM_SelectCOM
	.cfi_endproc
	.cantunwind
	.fnend
                                        @ -- End function
	.section	.text.TIM_CCPreloadControl,"ax",%progbits
	.hidden	TIM_CCPreloadControl    @ -- Begin function TIM_CCPreloadControl
	.globl	TIM_CCPreloadControl
	.p2align	1
	.type	TIM_CCPreloadControl,%function
	.code	16                      @ @TIM_CCPreloadControl
	.thumb_func
TIM_CCPreloadControl:
.Lfunc_begin65:
	.loc	3 2316 0                @ ../Libraries/STM32F4xx_StdPeriph_Driver/src/stm32f4xx_tim.c:2316:0
	.fnstart
	.cfi_startproc
@ %bb.0:
	@DEBUG_VALUE: TIM_CCPreloadControl:TIMx <- $r0
	@DEBUG_VALUE: TIM_CCPreloadControl:TIMx <- $r0
	@DEBUG_VALUE: TIM_CCPreloadControl:NewState <- $r1
	@DEBUG_VALUE: TIM_CCPreloadControl:NewState <- $r1
	.loc	3 0 0 prologue_end      @ ../Libraries/STM32F4xx_StdPeriph_Driver/src/stm32f4xx_tim.c:0:0
	ldrh	r2, [r0, #4]
.Ltmp441:
	.loc	3 2320 7                @ ../Libraries/STM32F4xx_StdPeriph_Driver/src/stm32f4xx_tim.c:2320:7
	cmp	r1, #0
	orr	r3, r2, #1
	it	eq
	biceq	r3, r2, #1
.Ltmp442:
	.loc	3 0 0 is_stmt 0         @ ../Libraries/STM32F4xx_StdPeriph_Driver/src/stm32f4xx_tim.c:0:0
	strh	r3, [r0, #4]
.Ltmp443:
	.loc	3 2330 1 is_stmt 1      @ ../Libraries/STM32F4xx_StdPeriph_Driver/src/stm32f4xx_tim.c:2330:1
	bx	lr
.Ltmp444:
.Lfunc_end65:
	.size	TIM_CCPreloadControl, .Lfunc_end65-TIM_CCPreloadControl
	.cfi_endproc
	.cantunwind
	.fnend
                                        @ -- End function
	.section	.text.TIM_ITConfig,"ax",%progbits
	.hidden	TIM_ITConfig            @ -- Begin function TIM_ITConfig
	.globl	TIM_ITConfig
	.p2align	1
	.type	TIM_ITConfig,%function
	.code	16                      @ @TIM_ITConfig
	.thumb_func
TIM_ITConfig:
.Lfunc_begin66:
	.loc	3 2373 0                @ ../Libraries/STM32F4xx_StdPeriph_Driver/src/stm32f4xx_tim.c:2373:0
	.fnstart
	.cfi_startproc
@ %bb.0:
	@DEBUG_VALUE: TIM_ITConfig:TIMx <- $r0
	@DEBUG_VALUE: TIM_ITConfig:TIMx <- $r0
	@DEBUG_VALUE: TIM_ITConfig:TIM_IT <- $r1
	@DEBUG_VALUE: TIM_ITConfig:TIM_IT <- $r1
	@DEBUG_VALUE: TIM_ITConfig:NewState <- $r2
	@DEBUG_VALUE: TIM_ITConfig:NewState <- $r2
	.loc	3 2379 7 prologue_end   @ ../Libraries/STM32F4xx_StdPeriph_Driver/src/stm32f4xx_tim.c:2379:7
	cmp	r2, #0
.Ltmp445:
	.loc	3 2387 16               @ ../Libraries/STM32F4xx_StdPeriph_Driver/src/stm32f4xx_tim.c:2387:16
	ldrh	r2, [r0, #12]
.Ltmp446:
	ite	eq
	biceq.w	r1, r2, r1
.Ltmp447:
	.loc	3 2382 16               @ ../Libraries/STM32F4xx_StdPeriph_Driver/src/stm32f4xx_tim.c:2382:16
	orrne	r1, r2
.Ltmp448:
	.loc	3 0 0 is_stmt 0         @ ../Libraries/STM32F4xx_StdPeriph_Driver/src/stm32f4xx_tim.c:0:0
	strh	r1, [r0, #12]
.Ltmp449:
	.loc	3 2389 1 is_stmt 1      @ ../Libraries/STM32F4xx_StdPeriph_Driver/src/stm32f4xx_tim.c:2389:1
	bx	lr
.Ltmp450:
.Lfunc_end66:
	.size	TIM_ITConfig, .Lfunc_end66-TIM_ITConfig
	.cfi_endproc
	.cantunwind
	.fnend
                                        @ -- End function
	.section	.text.TIM_GenerateEvent,"ax",%progbits
	.hidden	TIM_GenerateEvent       @ -- Begin function TIM_GenerateEvent
	.globl	TIM_GenerateEvent
	.p2align	1
	.type	TIM_GenerateEvent,%function
	.code	16                      @ @TIM_GenerateEvent
	.thumb_func
TIM_GenerateEvent:
.Lfunc_begin67:
	.loc	3 2411 0                @ ../Libraries/STM32F4xx_StdPeriph_Driver/src/stm32f4xx_tim.c:2411:0
	.fnstart
	.cfi_startproc
@ %bb.0:
	@DEBUG_VALUE: TIM_GenerateEvent:TIMx <- $r0
	@DEBUG_VALUE: TIM_GenerateEvent:TIMx <- $r0
	@DEBUG_VALUE: TIM_GenerateEvent:TIM_EventSource <- $r1
	@DEBUG_VALUE: TIM_GenerateEvent:TIM_EventSource <- $r1
	.loc	3 2417 13 prologue_end  @ ../Libraries/STM32F4xx_StdPeriph_Driver/src/stm32f4xx_tim.c:2417:13
	strh	r1, [r0, #20]
	.loc	3 2418 1                @ ../Libraries/STM32F4xx_StdPeriph_Driver/src/stm32f4xx_tim.c:2418:1
	bx	lr
.Ltmp451:
.Lfunc_end67:
	.size	TIM_GenerateEvent, .Lfunc_end67-TIM_GenerateEvent
	.cfi_endproc
	.cantunwind
	.fnend
                                        @ -- End function
	.section	.text.TIM_GetFlagStatus,"ax",%progbits
	.hidden	TIM_GetFlagStatus       @ -- Begin function TIM_GetFlagStatus
	.globl	TIM_GetFlagStatus
	.p2align	1
	.type	TIM_GetFlagStatus,%function
	.code	16                      @ @TIM_GetFlagStatus
	.thumb_func
TIM_GetFlagStatus:
.Lfunc_begin68:
	.loc	3 2444 0                @ ../Libraries/STM32F4xx_StdPeriph_Driver/src/stm32f4xx_tim.c:2444:0
	.fnstart
	.cfi_startproc
@ %bb.0:
	@DEBUG_VALUE: TIM_GetFlagStatus:TIMx <- $r0
	@DEBUG_VALUE: TIM_GetFlagStatus:TIMx <- $r0
	@DEBUG_VALUE: TIM_GetFlagStatus:TIM_FLAG <- $r1
	@DEBUG_VALUE: TIM_GetFlagStatus:TIM_FLAG <- $r1
	@DEBUG_VALUE: TIM_GetFlagStatus:bitstatus <- 0
	.loc	3 2451 14 prologue_end  @ ../Libraries/STM32F4xx_StdPeriph_Driver/src/stm32f4xx_tim.c:2451:14
	ldrh	r0, [r0, #16]
.Ltmp452:
	.loc	3 2451 17 is_stmt 0     @ ../Libraries/STM32F4xx_StdPeriph_Driver/src/stm32f4xx_tim.c:2451:17
	ands	r0, r1
	.loc	3 2451 29               @ ../Libraries/STM32F4xx_StdPeriph_Driver/src/stm32f4xx_tim.c:2451:29
	it	ne
	movne	r0, #1
.Ltmp453:
	@DEBUG_VALUE: TIM_GetFlagStatus:bitstatus <- undef
	.loc	3 2459 3 is_stmt 1      @ ../Libraries/STM32F4xx_StdPeriph_Driver/src/stm32f4xx_tim.c:2459:3
	bx	lr
.Ltmp454:
.Lfunc_end68:
	.size	TIM_GetFlagStatus, .Lfunc_end68-TIM_GetFlagStatus
	.cfi_endproc
	.cantunwind
	.fnend
                                        @ -- End function
	.section	.text.TIM_ClearFlag,"ax",%progbits
	.hidden	TIM_ClearFlag           @ -- Begin function TIM_ClearFlag
	.globl	TIM_ClearFlag
	.p2align	1
	.type	TIM_ClearFlag,%function
	.code	16                      @ @TIM_ClearFlag
	.thumb_func
TIM_ClearFlag:
.Lfunc_begin69:
	.loc	3 2486 0                @ ../Libraries/STM32F4xx_StdPeriph_Driver/src/stm32f4xx_tim.c:2486:0
	.fnstart
	.cfi_startproc
@ %bb.0:
	@DEBUG_VALUE: TIM_ClearFlag:TIMx <- $r0
	@DEBUG_VALUE: TIM_ClearFlag:TIMx <- $r0
	@DEBUG_VALUE: TIM_ClearFlag:TIM_FLAG <- $r1
	@DEBUG_VALUE: TIM_ClearFlag:TIM_FLAG <- $r1
	.loc	3 2491 24 prologue_end  @ ../Libraries/STM32F4xx_StdPeriph_Driver/src/stm32f4xx_tim.c:2491:24
	mvns	r1, r1
.Ltmp455:
	.loc	3 2491 12 is_stmt 0     @ ../Libraries/STM32F4xx_StdPeriph_Driver/src/stm32f4xx_tim.c:2491:12
	strh	r1, [r0, #16]
	.loc	3 2492 1 is_stmt 1      @ ../Libraries/STM32F4xx_StdPeriph_Driver/src/stm32f4xx_tim.c:2492:1
	bx	lr
.Ltmp456:
.Lfunc_end69:
	.size	TIM_ClearFlag, .Lfunc_end69-TIM_ClearFlag
	.cfi_endproc
	.cantunwind
	.fnend
                                        @ -- End function
	.section	.text.TIM_GetITStatus,"ax",%progbits
	.hidden	TIM_GetITStatus         @ -- Begin function TIM_GetITStatus
	.globl	TIM_GetITStatus
	.p2align	1
	.type	TIM_GetITStatus,%function
	.code	16                      @ @TIM_GetITStatus
	.thumb_func
TIM_GetITStatus:
.Lfunc_begin70:
	.loc	3 2514 0                @ ../Libraries/STM32F4xx_StdPeriph_Driver/src/stm32f4xx_tim.c:2514:0
	.fnstart
	.cfi_startproc
@ %bb.0:
	@DEBUG_VALUE: TIM_GetITStatus:TIMx <- $r0
	@DEBUG_VALUE: TIM_GetITStatus:TIMx <- $r0
	@DEBUG_VALUE: TIM_GetITStatus:TIM_IT <- $r1
	@DEBUG_VALUE: TIM_GetITStatus:TIM_IT <- $r1
	@DEBUG_VALUE: TIM_GetITStatus:bitstatus <- 0
	@DEBUG_VALUE: TIM_GetITStatus:itstatus <- 0
	@DEBUG_VALUE: TIM_GetITStatus:itenable <- 0
	.loc	3 2521 20 prologue_end  @ ../Libraries/STM32F4xx_StdPeriph_Driver/src/stm32f4xx_tim.c:2521:20
	ldrh	r2, [r0, #16]
	.loc	3 2521 23 is_stmt 0     @ ../Libraries/STM32F4xx_StdPeriph_Driver/src/stm32f4xx_tim.c:2521:23
	ands	r2, r1
.Ltmp457:
	.loc	3 2524 17 is_stmt 1     @ ../Libraries/STM32F4xx_StdPeriph_Driver/src/stm32f4xx_tim.c:2524:17
	it	ne
	movne	r2, #1
.Ltmp458:
	@DEBUG_VALUE: TIM_GetITStatus:itstatus <- undef
	.loc	3 2523 20               @ ../Libraries/STM32F4xx_StdPeriph_Driver/src/stm32f4xx_tim.c:2523:20
	ldrh	r0, [r0, #12]
.Ltmp459:
	.loc	3 2523 25 is_stmt 0     @ ../Libraries/STM32F4xx_StdPeriph_Driver/src/stm32f4xx_tim.c:2523:25
	ands	r0, r1
.Ltmp460:
	.loc	3 2524 50 is_stmt 1     @ ../Libraries/STM32F4xx_StdPeriph_Driver/src/stm32f4xx_tim.c:2524:50
	it	ne
	movne	r0, #1
	.loc	3 2524 37 is_stmt 0     @ ../Libraries/STM32F4xx_StdPeriph_Driver/src/stm32f4xx_tim.c:2524:37
	ands	r0, r2
.Ltmp461:
	@DEBUG_VALUE: TIM_GetITStatus:bitstatus <- undef
	.loc	3 2532 3 is_stmt 1      @ ../Libraries/STM32F4xx_StdPeriph_Driver/src/stm32f4xx_tim.c:2532:3
	bx	lr
.Ltmp462:
.Lfunc_end70:
	.size	TIM_GetITStatus, .Lfunc_end70-TIM_GetITStatus
	.cfi_endproc
	.cantunwind
	.fnend
                                        @ -- End function
	.section	.text.TIM_ClearITPendingBit,"ax",%progbits
	.hidden	TIM_ClearITPendingBit   @ -- Begin function TIM_ClearITPendingBit
	.globl	TIM_ClearITPendingBit
	.p2align	1
	.type	TIM_ClearITPendingBit,%function
	.code	16                      @ @TIM_ClearITPendingBit
	.thumb_func
TIM_ClearITPendingBit:
.Lfunc_begin71:
	.loc	3 2555 0                @ ../Libraries/STM32F4xx_StdPeriph_Driver/src/stm32f4xx_tim.c:2555:0
	.fnstart
	.cfi_startproc
@ %bb.0:
	@DEBUG_VALUE: TIM_ClearITPendingBit:TIMx <- $r0
	@DEBUG_VALUE: TIM_ClearITPendingBit:TIMx <- $r0
	@DEBUG_VALUE: TIM_ClearITPendingBit:TIM_IT <- $r1
	@DEBUG_VALUE: TIM_ClearITPendingBit:TIM_IT <- $r1
	.loc	3 2560 24 prologue_end  @ ../Libraries/STM32F4xx_StdPeriph_Driver/src/stm32f4xx_tim.c:2560:24
	mvns	r1, r1
.Ltmp463:
	.loc	3 2560 12 is_stmt 0     @ ../Libraries/STM32F4xx_StdPeriph_Driver/src/stm32f4xx_tim.c:2560:12
	strh	r1, [r0, #16]
	.loc	3 2561 1 is_stmt 1      @ ../Libraries/STM32F4xx_StdPeriph_Driver/src/stm32f4xx_tim.c:2561:1
	bx	lr
.Ltmp464:
.Lfunc_end71:
	.size	TIM_ClearITPendingBit, .Lfunc_end71-TIM_ClearITPendingBit
	.cfi_endproc
	.cantunwind
	.fnend
                                        @ -- End function
	.section	.text.TIM_DMAConfig,"ax",%progbits
	.hidden	TIM_DMAConfig           @ -- Begin function TIM_DMAConfig
	.globl	TIM_DMAConfig
	.p2align	1
	.type	TIM_DMAConfig,%function
	.code	16                      @ @TIM_DMAConfig
	.thumb_func
TIM_DMAConfig:
.Lfunc_begin72:
	.loc	3 2592 0                @ ../Libraries/STM32F4xx_StdPeriph_Driver/src/stm32f4xx_tim.c:2592:0
	.fnstart
	.cfi_startproc
@ %bb.0:
	@DEBUG_VALUE: TIM_DMAConfig:TIMx <- $r0
	@DEBUG_VALUE: TIM_DMAConfig:TIMx <- $r0
	@DEBUG_VALUE: TIM_DMAConfig:TIM_DMABase <- $r1
	@DEBUG_VALUE: TIM_DMAConfig:TIM_DMABase <- $r1
	@DEBUG_VALUE: TIM_DMAConfig:TIM_DMABurstLength <- $r2
	@DEBUG_VALUE: TIM_DMAConfig:TIM_DMABurstLength <- $r2
	.loc	3 2599 27 prologue_end  @ ../Libraries/STM32F4xx_StdPeriph_Driver/src/stm32f4xx_tim.c:2599:27
	orrs	r1, r2
.Ltmp465:
	.loc	3 2599 13 is_stmt 0     @ ../Libraries/STM32F4xx_StdPeriph_Driver/src/stm32f4xx_tim.c:2599:13
	strh.w	r1, [r0, #72]
	.loc	3 2600 1 is_stmt 1      @ ../Libraries/STM32F4xx_StdPeriph_Driver/src/stm32f4xx_tim.c:2600:1
	bx	lr
.Ltmp466:
.Lfunc_end72:
	.size	TIM_DMAConfig, .Lfunc_end72-TIM_DMAConfig
	.cfi_endproc
	.cantunwind
	.fnend
                                        @ -- End function
	.section	.text.TIM_DMACmd,"ax",%progbits
	.hidden	TIM_DMACmd              @ -- Begin function TIM_DMACmd
	.globl	TIM_DMACmd
	.p2align	1
	.type	TIM_DMACmd,%function
	.code	16                      @ @TIM_DMACmd
	.thumb_func
TIM_DMACmd:
.Lfunc_begin73:
	.loc	3 2619 0                @ ../Libraries/STM32F4xx_StdPeriph_Driver/src/stm32f4xx_tim.c:2619:0
	.fnstart
	.cfi_startproc
@ %bb.0:
	@DEBUG_VALUE: TIM_DMACmd:TIMx <- $r0
	@DEBUG_VALUE: TIM_DMACmd:TIMx <- $r0
	@DEBUG_VALUE: TIM_DMACmd:TIM_DMASource <- $r1
	@DEBUG_VALUE: TIM_DMACmd:TIM_DMASource <- $r1
	@DEBUG_VALUE: TIM_DMACmd:NewState <- $r2
	@DEBUG_VALUE: TIM_DMACmd:NewState <- $r2
	.loc	3 2625 7 prologue_end   @ ../Libraries/STM32F4xx_StdPeriph_Driver/src/stm32f4xx_tim.c:2625:7
	cmp	r2, #0
.Ltmp467:
	.loc	3 2633 16               @ ../Libraries/STM32F4xx_StdPeriph_Driver/src/stm32f4xx_tim.c:2633:16
	ldrh	r2, [r0, #12]
.Ltmp468:
	ite	eq
	biceq.w	r1, r2, r1
.Ltmp469:
	.loc	3 2628 16               @ ../Libraries/STM32F4xx_StdPeriph_Driver/src/stm32f4xx_tim.c:2628:16
	orrne	r1, r2
.Ltmp470:
	.loc	3 0 0 is_stmt 0         @ ../Libraries/STM32F4xx_StdPeriph_Driver/src/stm32f4xx_tim.c:0:0
	strh	r1, [r0, #12]
.Ltmp471:
	.loc	3 2635 1 is_stmt 1      @ ../Libraries/STM32F4xx_StdPeriph_Driver/src/stm32f4xx_tim.c:2635:1
	bx	lr
.Ltmp472:
.Lfunc_end73:
	.size	TIM_DMACmd, .Lfunc_end73-TIM_DMACmd
	.cfi_endproc
	.cantunwind
	.fnend
                                        @ -- End function
	.section	.text.TIM_SelectCCDMA,"ax",%progbits
	.hidden	TIM_SelectCCDMA         @ -- Begin function TIM_SelectCCDMA
	.globl	TIM_SelectCCDMA
	.p2align	1
	.type	TIM_SelectCCDMA,%function
	.code	16                      @ @TIM_SelectCCDMA
	.thumb_func
TIM_SelectCCDMA:
.Lfunc_begin74:
	.loc	3 2645 0                @ ../Libraries/STM32F4xx_StdPeriph_Driver/src/stm32f4xx_tim.c:2645:0
	.fnstart
	.cfi_startproc
@ %bb.0:
	@DEBUG_VALUE: TIM_SelectCCDMA:TIMx <- $r0
	@DEBUG_VALUE: TIM_SelectCCDMA:TIMx <- $r0
	@DEBUG_VALUE: TIM_SelectCCDMA:NewState <- $r1
	@DEBUG_VALUE: TIM_SelectCCDMA:NewState <- $r1
	.loc	3 0 0 prologue_end      @ ../Libraries/STM32F4xx_StdPeriph_Driver/src/stm32f4xx_tim.c:0:0
	ldrh	r2, [r0, #4]
.Ltmp473:
	.loc	3 2650 7                @ ../Libraries/STM32F4xx_StdPeriph_Driver/src/stm32f4xx_tim.c:2650:7
	cmp	r1, #0
	orr	r3, r2, #8
	it	eq
	biceq	r3, r2, #8
.Ltmp474:
	.loc	3 0 0 is_stmt 0         @ ../Libraries/STM32F4xx_StdPeriph_Driver/src/stm32f4xx_tim.c:0:0
	strh	r3, [r0, #4]
.Ltmp475:
	.loc	3 2660 1 is_stmt 1      @ ../Libraries/STM32F4xx_StdPeriph_Driver/src/stm32f4xx_tim.c:2660:1
	bx	lr
.Ltmp476:
.Lfunc_end74:
	.size	TIM_SelectCCDMA, .Lfunc_end74-TIM_SelectCCDMA
	.cfi_endproc
	.cantunwind
	.fnend
                                        @ -- End function
	.section	.text.TIM_InternalClockConfig,"ax",%progbits
	.hidden	TIM_InternalClockConfig @ -- Begin function TIM_InternalClockConfig
	.globl	TIM_InternalClockConfig
	.p2align	1
	.type	TIM_InternalClockConfig,%function
	.code	16                      @ @TIM_InternalClockConfig
	.thumb_func
TIM_InternalClockConfig:
.Lfunc_begin75:
	.loc	3 2684 0                @ ../Libraries/STM32F4xx_StdPeriph_Driver/src/stm32f4xx_tim.c:2684:0
	.fnstart
	.cfi_startproc
@ %bb.0:
	@DEBUG_VALUE: TIM_InternalClockConfig:TIMx <- $r0
	@DEBUG_VALUE: TIM_InternalClockConfig:TIMx <- $r0
	.loc	3 2689 14 prologue_end  @ ../Libraries/STM32F4xx_StdPeriph_Driver/src/stm32f4xx_tim.c:2689:14
	ldrh	r1, [r0, #8]
	bic	r1, r1, #7
	strh	r1, [r0, #8]
	.loc	3 2690 1                @ ../Libraries/STM32F4xx_StdPeriph_Driver/src/stm32f4xx_tim.c:2690:1
	bx	lr
.Ltmp477:
.Lfunc_end75:
	.size	TIM_InternalClockConfig, .Lfunc_end75-TIM_InternalClockConfig
	.cfi_endproc
	.cantunwind
	.fnend
                                        @ -- End function
	.section	.text.TIM_ITRxExternalClockConfig,"ax",%progbits
	.hidden	TIM_ITRxExternalClockConfig @ -- Begin function TIM_ITRxExternalClockConfig
	.globl	TIM_ITRxExternalClockConfig
	.p2align	1
	.type	TIM_ITRxExternalClockConfig,%function
	.code	16                      @ @TIM_ITRxExternalClockConfig
	.thumb_func
TIM_ITRxExternalClockConfig:
.Lfunc_begin76:
	.loc	3 2705 0                @ ../Libraries/STM32F4xx_StdPeriph_Driver/src/stm32f4xx_tim.c:2705:0
	.fnstart
	.cfi_startproc
@ %bb.0:
	@DEBUG_VALUE: TIM_ITRxExternalClockConfig:TIMx <- $r0
	@DEBUG_VALUE: TIM_ITRxExternalClockConfig:TIMx <- $r0
	@DEBUG_VALUE: TIM_ITRxExternalClockConfig:TIM_InputTriggerSource <- $r1
	@DEBUG_VALUE: TIM_ITRxExternalClockConfig:TIM_InputTriggerSource <- $r1
	@DEBUG_VALUE: TIM_SelectInputTrigger:TIMx <- $r0
	@DEBUG_VALUE: TIM_SelectInputTrigger:TIMx <- $r0
	@DEBUG_VALUE: TIM_SelectInputTrigger:TIM_InputTriggerSource <- $r1
	@DEBUG_VALUE: TIM_SelectInputTrigger:TIM_InputTriggerSource <- $r1
	@DEBUG_VALUE: TIM_SelectInputTrigger:tmpsmcr <- 0
	.loc	3 2901 19 prologue_end  @ ../Libraries/STM32F4xx_StdPeriph_Driver/src/stm32f4xx_tim.c:2901:19
	ldrh	r2, [r0, #8]
.Ltmp478:
	@DEBUG_VALUE: TIM_SelectInputTrigger:tmpsmcr <- $r2
	.loc	3 2904 11               @ ../Libraries/STM32F4xx_StdPeriph_Driver/src/stm32f4xx_tim.c:2904:11
	bic	r2, r2, #112
.Ltmp479:
	@DEBUG_VALUE: TIM_SelectInputTrigger:tmpsmcr <- $r2
	.loc	3 2907 11               @ ../Libraries/STM32F4xx_StdPeriph_Driver/src/stm32f4xx_tim.c:2907:11
	orrs	r1, r2
.Ltmp480:
	@DEBUG_VALUE: TIM_SelectInputTrigger:tmpsmcr <- $r1
	.loc	3 2910 14               @ ../Libraries/STM32F4xx_StdPeriph_Driver/src/stm32f4xx_tim.c:2910:14
	strh	r1, [r0, #8]
.Ltmp481:
	.loc	3 2714 14               @ ../Libraries/STM32F4xx_StdPeriph_Driver/src/stm32f4xx_tim.c:2714:14
	ldrh	r1, [r0, #8]
.Ltmp482:
	orr	r1, r1, #7
	strh	r1, [r0, #8]
	.loc	3 2715 1                @ ../Libraries/STM32F4xx_StdPeriph_Driver/src/stm32f4xx_tim.c:2715:1
	bx	lr
.Ltmp483:
.Lfunc_end76:
	.size	TIM_ITRxExternalClockConfig, .Lfunc_end76-TIM_ITRxExternalClockConfig
	.cfi_endproc
	.cantunwind
	.fnend
                                        @ -- End function
	.section	.text.TIM_SelectInputTrigger,"ax",%progbits
	.hidden	TIM_SelectInputTrigger  @ -- Begin function TIM_SelectInputTrigger
	.globl	TIM_SelectInputTrigger
	.p2align	1
	.type	TIM_SelectInputTrigger,%function
	.code	16                      @ @TIM_SelectInputTrigger
	.thumb_func
TIM_SelectInputTrigger:
.Lfunc_begin77:
	.loc	3 2893 0                @ ../Libraries/STM32F4xx_StdPeriph_Driver/src/stm32f4xx_tim.c:2893:0
	.fnstart
	.cfi_startproc
@ %bb.0:
	@DEBUG_VALUE: TIM_SelectInputTrigger:TIMx <- $r0
	@DEBUG_VALUE: TIM_SelectInputTrigger:TIMx <- $r0
	@DEBUG_VALUE: TIM_SelectInputTrigger:TIM_InputTriggerSource <- $r1
	@DEBUG_VALUE: TIM_SelectInputTrigger:TIM_InputTriggerSource <- $r1
	@DEBUG_VALUE: TIM_SelectInputTrigger:tmpsmcr <- 0
	.loc	3 2901 19 prologue_end  @ ../Libraries/STM32F4xx_StdPeriph_Driver/src/stm32f4xx_tim.c:2901:19
	ldrh	r2, [r0, #8]
.Ltmp484:
	@DEBUG_VALUE: TIM_SelectInputTrigger:tmpsmcr <- $r2
	.loc	3 2904 11               @ ../Libraries/STM32F4xx_StdPeriph_Driver/src/stm32f4xx_tim.c:2904:11
	bic	r2, r2, #112
.Ltmp485:
	@DEBUG_VALUE: TIM_SelectInputTrigger:tmpsmcr <- $r2
	.loc	3 2907 11               @ ../Libraries/STM32F4xx_StdPeriph_Driver/src/stm32f4xx_tim.c:2907:11
	orrs	r1, r2
.Ltmp486:
	@DEBUG_VALUE: TIM_SelectInputTrigger:tmpsmcr <- $r1
	.loc	3 2910 14               @ ../Libraries/STM32F4xx_StdPeriph_Driver/src/stm32f4xx_tim.c:2910:14
	strh	r1, [r0, #8]
	.loc	3 2911 1                @ ../Libraries/STM32F4xx_StdPeriph_Driver/src/stm32f4xx_tim.c:2911:1
	bx	lr
.Ltmp487:
.Lfunc_end77:
	.size	TIM_SelectInputTrigger, .Lfunc_end77-TIM_SelectInputTrigger
	.cfi_endproc
	.cantunwind
	.fnend
                                        @ -- End function
	.section	.text.TIM_TIxExternalClockConfig,"ax",%progbits
	.hidden	TIM_TIxExternalClockConfig @ -- Begin function TIM_TIxExternalClockConfig
	.globl	TIM_TIxExternalClockConfig
	.p2align	1
	.type	TIM_TIxExternalClockConfig,%function
	.code	16                      @ @TIM_TIxExternalClockConfig
	.thumb_func
TIM_TIxExternalClockConfig:
.Lfunc_begin78:
	.loc	3 2736 0                @ ../Libraries/STM32F4xx_StdPeriph_Driver/src/stm32f4xx_tim.c:2736:0
	.fnstart
	.cfi_startproc
@ %bb.0:
	.save	{r7, lr}
	push	{r7, lr}
	.cfi_def_cfa_offset 8
	.cfi_offset lr, -4
	.cfi_offset r7, -8
	@DEBUG_VALUE: TIM_TIxExternalClockConfig:TIMx <- $r0
	@DEBUG_VALUE: TIM_TIxExternalClockConfig:TIMx <- $r0
	@DEBUG_VALUE: TIM_TIxExternalClockConfig:TIM_TIxExternalCLKSource <- $r1
	@DEBUG_VALUE: TIM_TIxExternalClockConfig:TIM_TIxExternalCLKSource <- $r1
	@DEBUG_VALUE: TIM_TIxExternalClockConfig:TIM_ICPolarity <- $r2
	@DEBUG_VALUE: TIM_TIxExternalClockConfig:TIM_ICPolarity <- $r2
	@DEBUG_VALUE: TIM_TIxExternalClockConfig:ICFilter <- $r3
	@DEBUG_VALUE: TIM_TIxExternalClockConfig:ICFilter <- $r3
.Ltmp488:
	@DEBUG_VALUE: TI1_Config:TIMx <- $r0
	@DEBUG_VALUE: TI1_Config:TIMx <- $r0
	@DEBUG_VALUE: TI2_Config:TIMx <- $r0
	@DEBUG_VALUE: TI2_Config:TIMx <- $r0
	@DEBUG_VALUE: TIM_SelectInputTrigger:TIMx <- $r0
	@DEBUG_VALUE: TIM_SelectInputTrigger:TIMx <- $r0
	.loc	3 0 0 prologue_end      @ ../Libraries/STM32F4xx_StdPeriph_Driver/src/stm32f4xx_tim.c:0:0
	ldrh.w	r12, [r0, #32]
.Ltmp489:
	@DEBUG_VALUE: TIM_SelectInputTrigger:TIM_InputTriggerSource <- $r1
	@DEBUG_VALUE: TI2_Config:TIM_ICPolarity <- $r2
	@DEBUG_VALUE: TI1_Config:TIM_ICPolarity <- $r2
	@DEBUG_VALUE: TI2_Config:TIM_ICFilter <- $r3
	@DEBUG_VALUE: TI1_Config:TIM_ICFilter <- $r3
	.loc	3 2743 7                @ ../Libraries/STM32F4xx_StdPeriph_Driver/src/stm32f4xx_tim.c:2743:7
	cmp	r1, #96
	bne	.LBB78_2
.Ltmp490:
@ %bb.1:
	@DEBUG_VALUE: TI2_Config:TIM_ICFilter <- $r3
	@DEBUG_VALUE: TI2_Config:TIM_ICPolarity <- $r2
	@DEBUG_VALUE: TI2_Config:TIMx <- $r0
	@DEBUG_VALUE: TIM_TIxExternalClockConfig:ICFilter <- $r3
	@DEBUG_VALUE: TIM_TIxExternalClockConfig:TIM_ICPolarity <- $r2
	@DEBUG_VALUE: TIM_TIxExternalClockConfig:TIM_TIxExternalCLKSource <- $r1
	@DEBUG_VALUE: TIM_TIxExternalClockConfig:TIMx <- $r0
	@DEBUG_VALUE: TI2_Config:TIM_ICSelection <- 1
	@DEBUG_VALUE: TI2_Config:tmpccmr1 <- 0
	@DEBUG_VALUE: TI2_Config:tmpccer <- 0
	@DEBUG_VALUE: TI2_Config:tmp <- 0
	.loc	3 3251 14               @ ../Libraries/STM32F4xx_StdPeriph_Driver/src/stm32f4xx_tim.c:3251:14
	bic	r12, r12, #16
	movw	lr, #3327
	strh.w	r12, [r0, #32]
	.loc	3 3252 20               @ ../Libraries/STM32F4xx_StdPeriph_Driver/src/stm32f4xx_tim.c:3252:20
	ldrh.w	r12, [r0, #24]
.Ltmp491:
	@DEBUG_VALUE: TI2_Config:tmpccmr1 <- $r12
	.loc	3 3257 12               @ ../Libraries/STM32F4xx_StdPeriph_Driver/src/stm32f4xx_tim.c:3257:12
	and.w	r12, r12, lr
.Ltmp492:
	@DEBUG_VALUE: TI2_Config:tmpccmr1 <- undef
	.loc	3 3254 35               @ ../Libraries/STM32F4xx_StdPeriph_Driver/src/stm32f4xx_tim.c:3254:35
	lsl.w	lr, r2, #4
.Ltmp493:
	@DEBUG_VALUE: TI2_Config:tmp <- $lr
	.loc	3 3253 19               @ ../Libraries/STM32F4xx_StdPeriph_Driver/src/stm32f4xx_tim.c:3253:19
	ldrh	r2, [r0, #32]
.Ltmp494:
	@DEBUG_VALUE: TI2_Config:tmpccer <- $r2
	.loc	3 3259 12               @ ../Libraries/STM32F4xx_StdPeriph_Driver/src/stm32f4xx_tim.c:3259:12
	orr.w	r3, r12, r3, lsl #12
.Ltmp495:
	add.w	r12, r3, #256
.Ltmp496:
	@DEBUG_VALUE: TI2_Config:tmpccmr1 <- $r12
	.loc	3 3262 11               @ ../Libraries/STM32F4xx_StdPeriph_Driver/src/stm32f4xx_tim.c:3262:11
	bic	r2, r2, #176
.Ltmp497:
	@DEBUG_VALUE: TI2_Config:tmpccer <- $r2
	.loc	3 0 11 is_stmt 0        @ ../Libraries/STM32F4xx_StdPeriph_Driver/src/stm32f4xx_tim.c:0:11
	movs	r3, #16
	b	.LBB78_3
.Ltmp498:
.LBB78_2:
	@DEBUG_VALUE: TI1_Config:TIM_ICFilter <- $r3
	@DEBUG_VALUE: TI1_Config:TIM_ICPolarity <- $r2
	@DEBUG_VALUE: TI1_Config:TIMx <- $r0
	@DEBUG_VALUE: TIM_TIxExternalClockConfig:ICFilter <- $r3
	@DEBUG_VALUE: TIM_TIxExternalClockConfig:TIM_ICPolarity <- $r2
	@DEBUG_VALUE: TIM_TIxExternalClockConfig:TIM_TIxExternalCLKSource <- $r1
	@DEBUG_VALUE: TIM_TIxExternalClockConfig:TIMx <- $r0
	@DEBUG_VALUE: TI1_Config:TIM_ICSelection <- 1
	@DEBUG_VALUE: TI1_Config:tmpccmr1 <- 0
	@DEBUG_VALUE: TI1_Config:tmpccer <- 0
	.loc	3 3210 14 is_stmt 1     @ ../Libraries/STM32F4xx_StdPeriph_Driver/src/stm32f4xx_tim.c:3210:14
	bic	r12, r12, #1
	strh.w	r12, [r0, #32]
	.loc	3 3211 20               @ ../Libraries/STM32F4xx_StdPeriph_Driver/src/stm32f4xx_tim.c:3211:20
	ldrh.w	r12, [r0, #24]
.Ltmp499:
	@DEBUG_VALUE: TI1_Config:tmpccmr1 <- $r12
	.loc	3 3215 12               @ ../Libraries/STM32F4xx_StdPeriph_Driver/src/stm32f4xx_tim.c:3215:12
	bic	r12, r12, #242
.Ltmp500:
	@DEBUG_VALUE: TI1_Config:tmpccmr1 <- $r12
	.loc	3 3216 12               @ ../Libraries/STM32F4xx_StdPeriph_Driver/src/stm32f4xx_tim.c:3216:12
	orr.w	r3, r12, r3, lsl #4
.Ltmp501:
	orr	r12, r3, #1
.Ltmp502:
	@DEBUG_VALUE: TI1_Config:tmpccmr1 <- $r12
	.loc	3 3212 19               @ ../Libraries/STM32F4xx_StdPeriph_Driver/src/stm32f4xx_tim.c:3212:19
	ldrh	r3, [r0, #32]
.Ltmp503:
	@DEBUG_VALUE: TI1_Config:tmpccer <- $r3
	.loc	3 3219 11               @ ../Libraries/STM32F4xx_StdPeriph_Driver/src/stm32f4xx_tim.c:3219:11
	bic	lr, r3, #11
.Ltmp504:
	@DEBUG_VALUE: TI1_Config:tmpccer <- $lr
	.loc	3 0 11 is_stmt 0        @ ../Libraries/STM32F4xx_StdPeriph_Driver/src/stm32f4xx_tim.c:0:11
	movs	r3, #1
.Ltmp505:
.LBB78_3:
	@DEBUG_VALUE: TIM_TIxExternalClockConfig:TIM_TIxExternalCLKSource <- $r1
	@DEBUG_VALUE: TIM_TIxExternalClockConfig:TIMx <- $r0
	@DEBUG_VALUE: TI1_Config:tmpccer <- undef
	orr.w	r2, r2, lr
	strh.w	r12, [r0, #24]
	orrs	r2, r3
	strh	r2, [r0, #32]
.Ltmp506:
	@DEBUG_VALUE: TIM_SelectInputTrigger:tmpsmcr <- 0
	.loc	3 2901 19 is_stmt 1     @ ../Libraries/STM32F4xx_StdPeriph_Driver/src/stm32f4xx_tim.c:2901:19
	ldrh	r2, [r0, #8]
.Ltmp507:
	@DEBUG_VALUE: TIM_SelectInputTrigger:tmpsmcr <- $r2
	.loc	3 2904 11               @ ../Libraries/STM32F4xx_StdPeriph_Driver/src/stm32f4xx_tim.c:2904:11
	bic	r2, r2, #112
.Ltmp508:
	@DEBUG_VALUE: TIM_SelectInputTrigger:tmpsmcr <- $r2
	.loc	3 2907 11               @ ../Libraries/STM32F4xx_StdPeriph_Driver/src/stm32f4xx_tim.c:2907:11
	orrs	r1, r2
.Ltmp509:
	@DEBUG_VALUE: TIM_SelectInputTrigger:tmpsmcr <- $r1
	.loc	3 2910 14               @ ../Libraries/STM32F4xx_StdPeriph_Driver/src/stm32f4xx_tim.c:2910:14
	strh	r1, [r0, #8]
.Ltmp510:
	.loc	3 2754 14               @ ../Libraries/STM32F4xx_StdPeriph_Driver/src/stm32f4xx_tim.c:2754:14
	ldrh	r1, [r0, #8]
.Ltmp511:
	orr	r1, r1, #7
	strh	r1, [r0, #8]
	.loc	3 2755 1                @ ../Libraries/STM32F4xx_StdPeriph_Driver/src/stm32f4xx_tim.c:2755:1
	pop	{r7, pc}
.Ltmp512:
.Lfunc_end78:
	.size	TIM_TIxExternalClockConfig, .Lfunc_end78-TIM_TIxExternalClockConfig
	.cfi_endproc
	.cantunwind
	.fnend
                                        @ -- End function
	.section	.text.TIM_ETRClockMode1Config,"ax",%progbits
	.hidden	TIM_ETRClockMode1Config @ -- Begin function TIM_ETRClockMode1Config
	.globl	TIM_ETRClockMode1Config
	.p2align	1
	.type	TIM_ETRClockMode1Config,%function
	.code	16                      @ @TIM_ETRClockMode1Config
	.thumb_func
TIM_ETRClockMode1Config:
.Lfunc_begin79:
	.loc	3 2776 0                @ ../Libraries/STM32F4xx_StdPeriph_Driver/src/stm32f4xx_tim.c:2776:0
	.fnstart
	.cfi_startproc
@ %bb.0:
	@DEBUG_VALUE: TIM_ETRClockMode1Config:TIMx <- $r0
	@DEBUG_VALUE: TIM_ETRClockMode1Config:TIMx <- $r0
	@DEBUG_VALUE: TIM_ETRClockMode1Config:TIM_ExtTRGPrescaler <- $r1
	@DEBUG_VALUE: TIM_ETRClockMode1Config:TIM_ExtTRGPrescaler <- $r1
	@DEBUG_VALUE: TIM_ETRClockMode1Config:TIM_ExtTRGPolarity <- $r2
	@DEBUG_VALUE: TIM_ETRClockMode1Config:TIM_ExtTRGPolarity <- $r2
	@DEBUG_VALUE: TIM_ETRClockMode1Config:ExtTRGFilter <- $r3
	@DEBUG_VALUE: TIM_ETRClockMode1Config:ExtTRGFilter <- $r3
	@DEBUG_VALUE: TIM_ETRConfig:TIMx <- $r0
	@DEBUG_VALUE: TIM_ETRConfig:TIMx <- $r0
	@DEBUG_VALUE: TIM_ETRConfig:TIM_ExtTRGPrescaler <- $r1
	@DEBUG_VALUE: TIM_ETRConfig:TIM_ExtTRGPrescaler <- $r1
	@DEBUG_VALUE: TIM_ETRConfig:TIM_ExtTRGPolarity <- $r2
	@DEBUG_VALUE: TIM_ETRConfig:TIM_ExtTRGPolarity <- $r2
	@DEBUG_VALUE: TIM_ETRConfig:ExtTRGFilter <- $r3
	@DEBUG_VALUE: TIM_ETRConfig:ExtTRGFilter <- $r3
	@DEBUG_VALUE: TIM_ETRClockMode1Config:tmpsmcr <- 0
	@DEBUG_VALUE: TIM_ETRConfig:tmpsmcr <- 0
	.loc	3 3029 77 prologue_end  @ ../Libraries/STM32F4xx_StdPeriph_Driver/src/stm32f4xx_tim.c:3029:77
	orrs	r1, r2
.Ltmp513:
	.loc	3 3023 19               @ ../Libraries/STM32F4xx_StdPeriph_Driver/src/stm32f4xx_tim.c:3023:19
	ldrh	r2, [r0, #8]
.Ltmp514:
	@DEBUG_VALUE: TIM_ETRConfig:tmpsmcr <- $r2
	.loc	3 3029 45               @ ../Libraries/STM32F4xx_StdPeriph_Driver/src/stm32f4xx_tim.c:3029:45
	orr.w	r1, r1, r3, lsl #8
	.loc	3 3026 11               @ ../Libraries/STM32F4xx_StdPeriph_Driver/src/stm32f4xx_tim.c:3026:11
	uxtb	r2, r2
.Ltmp515:
	@DEBUG_VALUE: TIM_ETRConfig:tmpsmcr <- $r2
	.loc	3 3029 11               @ ../Libraries/STM32F4xx_StdPeriph_Driver/src/stm32f4xx_tim.c:3029:11
	orrs	r1, r2
.Ltmp516:
	@DEBUG_VALUE: TIM_ETRConfig:tmpsmcr <- $r1
	.loc	3 3032 14               @ ../Libraries/STM32F4xx_StdPeriph_Driver/src/stm32f4xx_tim.c:3032:14
	strh	r1, [r0, #8]
.Ltmp517:
	.loc	3 2788 19               @ ../Libraries/STM32F4xx_StdPeriph_Driver/src/stm32f4xx_tim.c:2788:19
	ldrh	r1, [r0, #8]
.Ltmp518:
	@DEBUG_VALUE: TIM_ETRClockMode1Config:tmpsmcr <- [DW_OP_constu 18446744073709551496, DW_OP_and, DW_OP_constu 7, DW_OP_or, DW_OP_stack_value] $r1
	@DEBUG_VALUE: TIM_ETRClockMode1Config:tmpsmcr <- [DW_OP_constu 7, DW_OP_or, DW_OP_stack_value] $r1
	@DEBUG_VALUE: TIM_ETRClockMode1Config:tmpsmcr <- [DW_OP_constu 18446744073709551608, DW_OP_and, DW_OP_stack_value] $r1
	@DEBUG_VALUE: TIM_ETRClockMode1Config:tmpsmcr <- $r1
	.loc	3 2798 11               @ ../Libraries/STM32F4xx_StdPeriph_Driver/src/stm32f4xx_tim.c:2798:11
	orr	r1, r1, #119
.Ltmp519:
	@DEBUG_VALUE: TIM_ETRClockMode1Config:tmpsmcr <- $r1
	.loc	3 2801 14               @ ../Libraries/STM32F4xx_StdPeriph_Driver/src/stm32f4xx_tim.c:2801:14
	strh	r1, [r0, #8]
	.loc	3 2802 1                @ ../Libraries/STM32F4xx_StdPeriph_Driver/src/stm32f4xx_tim.c:2802:1
	bx	lr
.Ltmp520:
.Lfunc_end79:
	.size	TIM_ETRClockMode1Config, .Lfunc_end79-TIM_ETRClockMode1Config
	.cfi_endproc
	.cantunwind
	.fnend
                                        @ -- End function
	.section	.text.TIM_ETRConfig,"ax",%progbits
	.hidden	TIM_ETRConfig           @ -- Begin function TIM_ETRConfig
	.globl	TIM_ETRConfig
	.p2align	1
	.type	TIM_ETRConfig,%function
	.code	16                      @ @TIM_ETRConfig
	.thumb_func
TIM_ETRConfig:
.Lfunc_begin80:
	.loc	3 3014 0                @ ../Libraries/STM32F4xx_StdPeriph_Driver/src/stm32f4xx_tim.c:3014:0
	.fnstart
	.cfi_startproc
@ %bb.0:
	@DEBUG_VALUE: TIM_ETRConfig:TIMx <- $r0
	@DEBUG_VALUE: TIM_ETRConfig:TIMx <- $r0
	@DEBUG_VALUE: TIM_ETRConfig:TIM_ExtTRGPrescaler <- $r1
	@DEBUG_VALUE: TIM_ETRConfig:TIM_ExtTRGPrescaler <- $r1
	@DEBUG_VALUE: TIM_ETRConfig:TIM_ExtTRGPolarity <- $r2
	@DEBUG_VALUE: TIM_ETRConfig:TIM_ExtTRGPolarity <- $r2
	@DEBUG_VALUE: TIM_ETRConfig:ExtTRGFilter <- $r3
	@DEBUG_VALUE: TIM_ETRConfig:ExtTRGFilter <- $r3
	@DEBUG_VALUE: TIM_ETRConfig:tmpsmcr <- 0
	.loc	3 3029 77 prologue_end  @ ../Libraries/STM32F4xx_StdPeriph_Driver/src/stm32f4xx_tim.c:3029:77
	orrs	r1, r2
.Ltmp521:
	.loc	3 3023 19               @ ../Libraries/STM32F4xx_StdPeriph_Driver/src/stm32f4xx_tim.c:3023:19
	ldrh	r2, [r0, #8]
.Ltmp522:
	@DEBUG_VALUE: TIM_ETRConfig:tmpsmcr <- $r2
	.loc	3 3029 45               @ ../Libraries/STM32F4xx_StdPeriph_Driver/src/stm32f4xx_tim.c:3029:45
	orr.w	r1, r1, r3, lsl #8
	.loc	3 3026 11               @ ../Libraries/STM32F4xx_StdPeriph_Driver/src/stm32f4xx_tim.c:3026:11
	uxtb	r2, r2
.Ltmp523:
	@DEBUG_VALUE: TIM_ETRConfig:tmpsmcr <- $r2
	.loc	3 3029 11               @ ../Libraries/STM32F4xx_StdPeriph_Driver/src/stm32f4xx_tim.c:3029:11
	orrs	r1, r2
.Ltmp524:
	@DEBUG_VALUE: TIM_ETRConfig:tmpsmcr <- $r1
	.loc	3 3032 14               @ ../Libraries/STM32F4xx_StdPeriph_Driver/src/stm32f4xx_tim.c:3032:14
	strh	r1, [r0, #8]
	.loc	3 3033 1                @ ../Libraries/STM32F4xx_StdPeriph_Driver/src/stm32f4xx_tim.c:3033:1
	bx	lr
.Ltmp525:
.Lfunc_end80:
	.size	TIM_ETRConfig, .Lfunc_end80-TIM_ETRConfig
	.cfi_endproc
	.cantunwind
	.fnend
                                        @ -- End function
	.section	.text.TIM_ETRClockMode2Config,"ax",%progbits
	.hidden	TIM_ETRClockMode2Config @ -- Begin function TIM_ETRClockMode2Config
	.globl	TIM_ETRClockMode2Config
	.p2align	1
	.type	TIM_ETRClockMode2Config,%function
	.code	16                      @ @TIM_ETRClockMode2Config
	.thumb_func
TIM_ETRClockMode2Config:
.Lfunc_begin81:
	.loc	3 2823 0                @ ../Libraries/STM32F4xx_StdPeriph_Driver/src/stm32f4xx_tim.c:2823:0
	.fnstart
	.cfi_startproc
@ %bb.0:
	@DEBUG_VALUE: TIM_ETRClockMode2Config:TIMx <- $r0
	@DEBUG_VALUE: TIM_ETRClockMode2Config:TIMx <- $r0
	@DEBUG_VALUE: TIM_ETRClockMode2Config:TIM_ExtTRGPrescaler <- $r1
	@DEBUG_VALUE: TIM_ETRClockMode2Config:TIM_ExtTRGPrescaler <- $r1
	@DEBUG_VALUE: TIM_ETRClockMode2Config:TIM_ExtTRGPolarity <- $r2
	@DEBUG_VALUE: TIM_ETRClockMode2Config:TIM_ExtTRGPolarity <- $r2
	@DEBUG_VALUE: TIM_ETRClockMode2Config:ExtTRGFilter <- $r3
	@DEBUG_VALUE: TIM_ETRClockMode2Config:ExtTRGFilter <- $r3
	@DEBUG_VALUE: TIM_ETRConfig:TIMx <- $r0
	@DEBUG_VALUE: TIM_ETRConfig:TIMx <- $r0
	@DEBUG_VALUE: TIM_ETRConfig:TIM_ExtTRGPrescaler <- $r1
	@DEBUG_VALUE: TIM_ETRConfig:TIM_ExtTRGPrescaler <- $r1
	@DEBUG_VALUE: TIM_ETRConfig:TIM_ExtTRGPolarity <- $r2
	@DEBUG_VALUE: TIM_ETRConfig:TIM_ExtTRGPolarity <- $r2
	@DEBUG_VALUE: TIM_ETRConfig:ExtTRGFilter <- $r3
	@DEBUG_VALUE: TIM_ETRConfig:ExtTRGFilter <- $r3
	@DEBUG_VALUE: TIM_ETRConfig:tmpsmcr <- 0
	.loc	3 3029 77 prologue_end  @ ../Libraries/STM32F4xx_StdPeriph_Driver/src/stm32f4xx_tim.c:3029:77
	orrs	r1, r2
.Ltmp526:
	.loc	3 3023 19               @ ../Libraries/STM32F4xx_StdPeriph_Driver/src/stm32f4xx_tim.c:3023:19
	ldrh	r2, [r0, #8]
.Ltmp527:
	@DEBUG_VALUE: TIM_ETRConfig:tmpsmcr <- $r2
	.loc	3 3029 45               @ ../Libraries/STM32F4xx_StdPeriph_Driver/src/stm32f4xx_tim.c:3029:45
	orr.w	r1, r1, r3, lsl #8
	.loc	3 3026 11               @ ../Libraries/STM32F4xx_StdPeriph_Driver/src/stm32f4xx_tim.c:3026:11
	uxtb	r2, r2
.Ltmp528:
	@DEBUG_VALUE: TIM_ETRConfig:tmpsmcr <- $r2
	.loc	3 3029 11               @ ../Libraries/STM32F4xx_StdPeriph_Driver/src/stm32f4xx_tim.c:3029:11
	orrs	r1, r2
.Ltmp529:
	@DEBUG_VALUE: TIM_ETRConfig:tmpsmcr <- $r1
	.loc	3 3032 14               @ ../Libraries/STM32F4xx_StdPeriph_Driver/src/stm32f4xx_tim.c:3032:14
	strh	r1, [r0, #8]
.Ltmp530:
	.loc	3 2834 14               @ ../Libraries/STM32F4xx_StdPeriph_Driver/src/stm32f4xx_tim.c:2834:14
	ldrh	r1, [r0, #8]
.Ltmp531:
	orr	r1, r1, #16384
	strh	r1, [r0, #8]
	.loc	3 2835 1                @ ../Libraries/STM32F4xx_StdPeriph_Driver/src/stm32f4xx_tim.c:2835:1
	bx	lr
.Ltmp532:
.Lfunc_end81:
	.size	TIM_ETRClockMode2Config, .Lfunc_end81-TIM_ETRClockMode2Config
	.cfi_endproc
	.cantunwind
	.fnend
                                        @ -- End function
	.section	.text.TIM_SelectOutputTrigger,"ax",%progbits
	.hidden	TIM_SelectOutputTrigger @ -- Begin function TIM_SelectOutputTrigger
	.globl	TIM_SelectOutputTrigger
	.p2align	1
	.type	TIM_SelectOutputTrigger,%function
	.code	16                      @ @TIM_SelectOutputTrigger
	.thumb_func
TIM_SelectOutputTrigger:
.Lfunc_begin82:
	.loc	3 2936 0                @ ../Libraries/STM32F4xx_StdPeriph_Driver/src/stm32f4xx_tim.c:2936:0
	.fnstart
	.cfi_startproc
@ %bb.0:
	@DEBUG_VALUE: TIM_SelectOutputTrigger:TIMx <- $r0
	@DEBUG_VALUE: TIM_SelectOutputTrigger:TIMx <- $r0
	@DEBUG_VALUE: TIM_SelectOutputTrigger:TIM_TRGOSource <- $r1
	@DEBUG_VALUE: TIM_SelectOutputTrigger:TIM_TRGOSource <- $r1
	.loc	3 2942 13 prologue_end  @ ../Libraries/STM32F4xx_StdPeriph_Driver/src/stm32f4xx_tim.c:2942:13
	ldrh	r2, [r0, #4]
	bic	r2, r2, #112
	strh	r2, [r0, #4]
	.loc	3 2944 13               @ ../Libraries/STM32F4xx_StdPeriph_Driver/src/stm32f4xx_tim.c:2944:13
	ldrh	r2, [r0, #4]
	orrs	r1, r2
.Ltmp533:
	strh	r1, [r0, #4]
	.loc	3 2945 1                @ ../Libraries/STM32F4xx_StdPeriph_Driver/src/stm32f4xx_tim.c:2945:1
	bx	lr
.Ltmp534:
.Lfunc_end82:
	.size	TIM_SelectOutputTrigger, .Lfunc_end82-TIM_SelectOutputTrigger
	.cfi_endproc
	.cantunwind
	.fnend
                                        @ -- End function
	.section	.text.TIM_SelectSlaveMode,"ax",%progbits
	.hidden	TIM_SelectSlaveMode     @ -- Begin function TIM_SelectSlaveMode
	.globl	TIM_SelectSlaveMode
	.p2align	1
	.type	TIM_SelectSlaveMode,%function
	.code	16                      @ @TIM_SelectSlaveMode
	.thumb_func
TIM_SelectSlaveMode:
.Lfunc_begin83:
	.loc	3 2960 0                @ ../Libraries/STM32F4xx_StdPeriph_Driver/src/stm32f4xx_tim.c:2960:0
	.fnstart
	.cfi_startproc
@ %bb.0:
	@DEBUG_VALUE: TIM_SelectSlaveMode:TIMx <- $r0
	@DEBUG_VALUE: TIM_SelectSlaveMode:TIMx <- $r0
	@DEBUG_VALUE: TIM_SelectSlaveMode:TIM_SlaveMode <- $r1
	@DEBUG_VALUE: TIM_SelectSlaveMode:TIM_SlaveMode <- $r1
	.loc	3 2966 14 prologue_end  @ ../Libraries/STM32F4xx_StdPeriph_Driver/src/stm32f4xx_tim.c:2966:14
	ldrh	r2, [r0, #8]
	bic	r2, r2, #7
	strh	r2, [r0, #8]
	.loc	3 2969 14               @ ../Libraries/STM32F4xx_StdPeriph_Driver/src/stm32f4xx_tim.c:2969:14
	ldrh	r2, [r0, #8]
	orrs	r1, r2
.Ltmp535:
	strh	r1, [r0, #8]
	.loc	3 2970 1                @ ../Libraries/STM32F4xx_StdPeriph_Driver/src/stm32f4xx_tim.c:2970:1
	bx	lr
.Ltmp536:
.Lfunc_end83:
	.size	TIM_SelectSlaveMode, .Lfunc_end83-TIM_SelectSlaveMode
	.cfi_endproc
	.cantunwind
	.fnend
                                        @ -- End function
	.section	.text.TIM_SelectMasterSlaveMode,"ax",%progbits
	.hidden	TIM_SelectMasterSlaveMode @ -- Begin function TIM_SelectMasterSlaveMode
	.globl	TIM_SelectMasterSlaveMode
	.p2align	1
	.type	TIM_SelectMasterSlaveMode,%function
	.code	16                      @ @TIM_SelectMasterSlaveMode
	.thumb_func
TIM_SelectMasterSlaveMode:
.Lfunc_begin84:
	.loc	3 2983 0                @ ../Libraries/STM32F4xx_StdPeriph_Driver/src/stm32f4xx_tim.c:2983:0
	.fnstart
	.cfi_startproc
@ %bb.0:
	@DEBUG_VALUE: TIM_SelectMasterSlaveMode:TIMx <- $r0
	@DEBUG_VALUE: TIM_SelectMasterSlaveMode:TIMx <- $r0
	@DEBUG_VALUE: TIM_SelectMasterSlaveMode:TIM_MasterSlaveMode <- $r1
	@DEBUG_VALUE: TIM_SelectMasterSlaveMode:TIM_MasterSlaveMode <- $r1
	.loc	3 2989 14 prologue_end  @ ../Libraries/STM32F4xx_StdPeriph_Driver/src/stm32f4xx_tim.c:2989:14
	ldrh	r2, [r0, #8]
	bic	r2, r2, #128
	strh	r2, [r0, #8]
	.loc	3 2992 14               @ ../Libraries/STM32F4xx_StdPeriph_Driver/src/stm32f4xx_tim.c:2992:14
	ldrh	r2, [r0, #8]
	orrs	r1, r2
.Ltmp537:
	strh	r1, [r0, #8]
	.loc	3 2993 1                @ ../Libraries/STM32F4xx_StdPeriph_Driver/src/stm32f4xx_tim.c:2993:1
	bx	lr
.Ltmp538:
.Lfunc_end84:
	.size	TIM_SelectMasterSlaveMode, .Lfunc_end84-TIM_SelectMasterSlaveMode
	.cfi_endproc
	.cantunwind
	.fnend
                                        @ -- End function
	.section	.text.TIM_EncoderInterfaceConfig,"ax",%progbits
	.hidden	TIM_EncoderInterfaceConfig @ -- Begin function TIM_EncoderInterfaceConfig
	.globl	TIM_EncoderInterfaceConfig
	.p2align	1
	.type	TIM_EncoderInterfaceConfig,%function
	.code	16                      @ @TIM_EncoderInterfaceConfig
	.thumb_func
TIM_EncoderInterfaceConfig:
.Lfunc_begin85:
	.loc	3 3072 0                @ ../Libraries/STM32F4xx_StdPeriph_Driver/src/stm32f4xx_tim.c:3072:0
	.fnstart
	.cfi_startproc
@ %bb.0:
	.save	{r7, lr}
	push	{r7, lr}
	.cfi_def_cfa_offset 8
	.cfi_offset lr, -4
	.cfi_offset r7, -8
	@DEBUG_VALUE: TIM_EncoderInterfaceConfig:TIMx <- $r0
	@DEBUG_VALUE: TIM_EncoderInterfaceConfig:TIMx <- $r0
	@DEBUG_VALUE: TIM_EncoderInterfaceConfig:TIM_EncoderMode <- $r1
	@DEBUG_VALUE: TIM_EncoderInterfaceConfig:TIM_EncoderMode <- $r1
	@DEBUG_VALUE: TIM_EncoderInterfaceConfig:TIM_IC1Polarity <- $r2
	@DEBUG_VALUE: TIM_EncoderInterfaceConfig:TIM_IC1Polarity <- $r2
	@DEBUG_VALUE: TIM_EncoderInterfaceConfig:TIM_IC2Polarity <- $r3
	@DEBUG_VALUE: TIM_EncoderInterfaceConfig:TIM_IC2Polarity <- $r3
.Ltmp539:
	@DEBUG_VALUE: TIM_EncoderInterfaceConfig:tmpsmcr <- 0
	@DEBUG_VALUE: TIM_EncoderInterfaceConfig:tmpccmr1 <- 0
	@DEBUG_VALUE: TIM_EncoderInterfaceConfig:tmpccer <- 0
	.loc	3 3084 19 prologue_end  @ ../Libraries/STM32F4xx_StdPeriph_Driver/src/stm32f4xx_tim.c:3084:19
	ldrh.w	r12, [r0, #8]
.Ltmp540:
	@DEBUG_VALUE: TIM_EncoderInterfaceConfig:tmpsmcr <- $r12
	.loc	3 3093 11               @ ../Libraries/STM32F4xx_StdPeriph_Driver/src/stm32f4xx_tim.c:3093:11
	bic	r12, r12, #7
.Ltmp541:
	@DEBUG_VALUE: TIM_EncoderInterfaceConfig:tmpsmcr <- $r12
	.loc	3 3094 11               @ ../Libraries/STM32F4xx_StdPeriph_Driver/src/stm32f4xx_tim.c:3094:11
	orr.w	r1, r1, r12
.Ltmp542:
	@DEBUG_VALUE: TIM_EncoderInterfaceConfig:tmpsmcr <- $r1
	.loc	3 3087 20               @ ../Libraries/STM32F4xx_StdPeriph_Driver/src/stm32f4xx_tim.c:3087:20
	ldrh.w	r12, [r0, #24]
.Ltmp543:
	@DEBUG_VALUE: TIM_EncoderInterfaceConfig:tmpccmr1 <- $r12
	.loc	3 3090 19               @ ../Libraries/STM32F4xx_StdPeriph_Driver/src/stm32f4xx_tim.c:3090:19
	ldrh.w	lr, [r0, #32]
.Ltmp544:
	@DEBUG_VALUE: TIM_EncoderInterfaceConfig:tmpccer <- $lr
	.loc	3 3105 14               @ ../Libraries/STM32F4xx_StdPeriph_Driver/src/stm32f4xx_tim.c:3105:14
	strh	r1, [r0, #8]
	movw	r1, #64764
.Ltmp545:
	.loc	3 3097 12               @ ../Libraries/STM32F4xx_StdPeriph_Driver/src/stm32f4xx_tim.c:3097:12
	and.w	r1, r1, r12
.Ltmp546:
	@DEBUG_VALUE: TIM_EncoderInterfaceConfig:tmpccmr1 <- $r1
	.loc	3 3098 12               @ ../Libraries/STM32F4xx_StdPeriph_Driver/src/stm32f4xx_tim.c:3098:12
	addw	r1, r1, #257
.Ltmp547:
	@DEBUG_VALUE: TIM_EncoderInterfaceConfig:tmpccmr1 <- $r1
	.loc	3 3108 15               @ ../Libraries/STM32F4xx_StdPeriph_Driver/src/stm32f4xx_tim.c:3108:15
	strh	r1, [r0, #24]
	.loc	3 3102 41               @ ../Libraries/STM32F4xx_StdPeriph_Driver/src/stm32f4xx_tim.c:3102:41
	orr.w	r1, r2, r3, lsl #4
.Ltmp548:
	.loc	3 3101 11               @ ../Libraries/STM32F4xx_StdPeriph_Driver/src/stm32f4xx_tim.c:3101:11
	bic	r2, lr, #34
.Ltmp549:
	@DEBUG_VALUE: TIM_EncoderInterfaceConfig:tmpccer <- $r2
	.loc	3 3102 11               @ ../Libraries/STM32F4xx_StdPeriph_Driver/src/stm32f4xx_tim.c:3102:11
	orrs	r1, r2
.Ltmp550:
	@DEBUG_VALUE: TIM_EncoderInterfaceConfig:tmpccer <- $r1
	.loc	3 3111 14               @ ../Libraries/STM32F4xx_StdPeriph_Driver/src/stm32f4xx_tim.c:3111:14
	strh	r1, [r0, #32]
	.loc	3 3112 1                @ ../Libraries/STM32F4xx_StdPeriph_Driver/src/stm32f4xx_tim.c:3112:1
	pop	{r7, pc}
.Ltmp551:
.Lfunc_end85:
	.size	TIM_EncoderInterfaceConfig, .Lfunc_end85-TIM_EncoderInterfaceConfig
	.cfi_endproc
	.cantunwind
	.fnend
                                        @ -- End function
	.section	.text.TIM_SelectHallSensor,"ax",%progbits
	.hidden	TIM_SelectHallSensor    @ -- Begin function TIM_SelectHallSensor
	.globl	TIM_SelectHallSensor
	.p2align	1
	.type	TIM_SelectHallSensor,%function
	.code	16                      @ @TIM_SelectHallSensor
	.thumb_func
TIM_SelectHallSensor:
.Lfunc_begin86:
	.loc	3 3123 0                @ ../Libraries/STM32F4xx_StdPeriph_Driver/src/stm32f4xx_tim.c:3123:0
	.fnstart
	.cfi_startproc
@ %bb.0:
	@DEBUG_VALUE: TIM_SelectHallSensor:TIMx <- $r0
	@DEBUG_VALUE: TIM_SelectHallSensor:TIMx <- $r0
	@DEBUG_VALUE: TIM_SelectHallSensor:NewState <- $r1
	@DEBUG_VALUE: TIM_SelectHallSensor:NewState <- $r1
	.loc	3 0 0 prologue_end      @ ../Libraries/STM32F4xx_StdPeriph_Driver/src/stm32f4xx_tim.c:0:0
	ldrh	r2, [r0, #4]
.Ltmp552:
	.loc	3 3128 7                @ ../Libraries/STM32F4xx_StdPeriph_Driver/src/stm32f4xx_tim.c:3128:7
	cmp	r1, #0
	orr	r3, r2, #128
	it	eq
	biceq	r3, r2, #128
.Ltmp553:
	.loc	3 0 0 is_stmt 0         @ ../Libraries/STM32F4xx_StdPeriph_Driver/src/stm32f4xx_tim.c:0:0
	strh	r3, [r0, #4]
.Ltmp554:
	.loc	3 3138 1 is_stmt 1      @ ../Libraries/STM32F4xx_StdPeriph_Driver/src/stm32f4xx_tim.c:3138:1
	bx	lr
.Ltmp555:
.Lfunc_end86:
	.size	TIM_SelectHallSensor, .Lfunc_end86-TIM_SelectHallSensor
	.cfi_endproc
	.cantunwind
	.fnend
                                        @ -- End function
	.section	.text.TIM_RemapConfig,"ax",%progbits
	.hidden	TIM_RemapConfig         @ -- Begin function TIM_RemapConfig
	.globl	TIM_RemapConfig
	.p2align	1
	.type	TIM_RemapConfig,%function
	.code	16                      @ @TIM_RemapConfig
	.thumb_func
TIM_RemapConfig:
.Lfunc_begin87:
	.loc	3 3174 0                @ ../Libraries/STM32F4xx_StdPeriph_Driver/src/stm32f4xx_tim.c:3174:0
	.fnstart
	.cfi_startproc
@ %bb.0:
	@DEBUG_VALUE: TIM_RemapConfig:TIMx <- $r0
	@DEBUG_VALUE: TIM_RemapConfig:TIMx <- $r0
	@DEBUG_VALUE: TIM_RemapConfig:TIM_Remap <- $r1
	@DEBUG_VALUE: TIM_RemapConfig:TIM_Remap <- $r1
	.loc	3 3180 12 prologue_end  @ ../Libraries/STM32F4xx_StdPeriph_Driver/src/stm32f4xx_tim.c:3180:12
	strh.w	r1, [r0, #80]
	.loc	3 3181 1                @ ../Libraries/STM32F4xx_StdPeriph_Driver/src/stm32f4xx_tim.c:3181:1
	bx	lr
.Ltmp556:
.Lfunc_end87:
	.size	TIM_RemapConfig, .Lfunc_end87-TIM_RemapConfig
	.cfi_endproc
	.cantunwind
	.fnend
                                        @ -- End function
	.file	4 "F:\\SkyDrive\\OtvoreniProjekti\\HotelSaplast\\fw\\KontrolerHotela\\HC070318\\Project" "../Libraries/STM32F4xx_StdPeriph_Driver/inc\\stm32f4xx_tim.h"
	.section	".note.GNU-stack","",%progbits
	.eabi_attribute	30, 3	@ Tag_ABI_optimization_goals
	.ARM_attribute	16, 1	@ Tag_AV_eba