	.text
	.syntax unified
	.eabi_attribute	67, "2.09"	@ Tag_conformance
	.cpu	cortex-m4
	.eabi_attribute	6, 13	@ Tag_CPU_arch
	.eabi_attribute	7, 77	@ Tag_CPU_arch_profile
	.eabi_attribute	8, 0	@ Tag_ARM_ISA_use
	.eabi_attribute	9, 2	@ Tag_THUMB_ISA_use
	.fpu	fpv4-sp-d16
	.eabi_attribute	27, 1	@ Tag_ABI_HardFP_use
	.eabi_attribute	36, 1	@ Tag_FP_HP_extension
	.eabi_attribute	34, 1	@ Tag_CPU_unaligned_access
	.eabi_attribute	17, 1	@ Tag_ABI_PCS_GOT_use
	.eabi_attribute	20, 2	@ Tag_ABI_FP_denormal
	.eabi_attribute	21, 0	@ Tag_ABI_FP_exceptions
	.eabi_attribute	23, 1	@ Tag_ABI_FP_number_model
	.eabi_attribute	24, 1	@ Tag_ABI_align_needed
	.eabi_attribute	25, 1	@ Tag_ABI_align_preserved
	.eabi_attribute	28, 1	@ Tag_ABI_VFP_args
	.eabi_attribute	38, 1	@ Tag_ABI_FP_16bit_format
	.eabi_attribute	18, 2	@ Tag_ABI_PCS_wchar_t
	.eabi_attribute	26, 1	@ Tag_ABI_enum_size
	.eabi_attribute	14, 0	@ Tag_ABI_PCS_R9_use
	.file	"stm32f4x7_eth.c"
	.file	1 "C:\\Keil\\ARM\\ARMCLANG\\Bin\\..\\include" "stdint.h"
	.file	2 "F:\\SkyDrive\\OtvoreniProjekti\\HotelSaplast\\fw\\KontrolerHotela\\HC070318\\Project" "../User/ETH_driver/stm32f4x7_eth.h"
	.file	3 "F:\\SkyDrive\\OtvoreniProjekti\\HotelSaplast\\fw\\KontrolerHotela\\HC070318\\Project" "../User/ETH_driver/stm32f4x7_eth.c"
	.file	4 "F:\\SkyDrive\\OtvoreniProjekti\\HotelSaplast\\fw\\KontrolerHotela\\HC070318\\Project" "../Libraries/CMSIS/Device/ST/STM32F4xx/Include\\stm32f4xx.h"
	.section	.text.ETH_DeInit,"ax",%progbits
	.hidden	ETH_DeInit              @ -- Begin function ETH_DeInit
	.globl	ETH_DeInit
	.p2align	1
	.type	ETH_DeInit,%function
	.code	16                      @ @ETH_DeInit
	.thumb_func
ETH_DeInit:
.Lfunc_begin0:
	.loc	3 172 0                 @ ../User/ETH_driver/stm32f4x7_eth.c:172:0
	.fnstart
	.cfi_sections .debug_frame
	.cfi_startproc
@ %bb.0:
	.save	{r7, lr}
	push	{r7, lr}
	.cfi_def_cfa_offset 8
	.cfi_offset lr, -4
	.cfi_offset r7, -8
.Ltmp0:
	.loc	3 173 3 prologue_end    @ ../User/ETH_driver/stm32f4x7_eth.c:173:3
	mov.w	r0, #33554432
	movs	r1, #1
	bl	RCC_AHB1PeriphResetCmd
	.loc	3 174 3                 @ ../User/ETH_driver/stm32f4x7_eth.c:174:3
	mov.w	r0, #33554432
	movs	r1, #0
	pop.w	{r7, lr}
	b	RCC_AHB1PeriphResetCmd
.Ltmp1:
.Lfunc_end0:
	.size	ETH_DeInit, .Lfunc_end0-ETH_DeInit
	.cfi_endproc
	.cantunwind
	.fnend
                                        @ -- End function
	.section	.text.ETH_StructInit,"ax",%progbits
	.hidden	ETH_StructInit          @ -- Begin function ETH_StructInit
	.globl	ETH_StructInit
	.p2align	1
	.type	ETH_StructInit,%function
	.code	16                      @ @ETH_StructInit
	.thumb_func
ETH_StructInit:
.Lfunc_begin1:
	.loc	3 184 0                 @ ../User/ETH_driver/stm32f4x7_eth.c:184:0
	.fnstart
	.cfi_startproc
@ %bb.0:
	.save	{r4, r5, r6, lr}
	push	{r4, r5, r6, lr}
	.cfi_def_cfa_offset 16
	.cfi_offset lr, -4
	.cfi_offset r6, -8
	.cfi_offset r5, -12
	.cfi_offset r4, -16
	@DEBUG_VALUE: ETH_StructInit:ETH_InitStruct <- $r0
	mov	r4, r0
	mov.w	r1, #2048
.Ltmp2:
	@DEBUG_VALUE: ETH_StructInit:ETH_InitStruct <- $r4
	movs	r5, #0
	movs	r0, #1
.Ltmp3:
	.loc	3 205 28 prologue_end   @ ../User/ETH_driver/stm32f4x7_eth.c:205:28
	str	r1, [r4, #32]
	mov.w	r1, #16384
	.loc	3 189 39                @ ../User/ETH_driver/stm32f4x7_eth.c:189:39
	strd	r0, r5, [r4]
	.loc	3 193 30                @ ../User/ETH_driver/stm32f4x7_eth.c:193:30
	strd	r5, r5, [r4, #8]
	.loc	3 207 19                @ ../User/ETH_driver/stm32f4x7_eth.c:207:19
	add.w	r0, r4, #36
	.loc	3 193 30                @ ../User/ETH_driver/stm32f4x7_eth.c:193:30
	strd	r5, r1, [r4, #16]
	.loc	3 209 41                @ ../User/ETH_driver/stm32f4x7_eth.c:209:41
	movs	r1, #28
	.loc	3 201 34                @ ../User/ETH_driver/stm32f4x7_eth.c:201:34
	strd	r5, r5, [r4, #24]
	.loc	3 209 41                @ ../User/ETH_driver/stm32f4x7_eth.c:209:41
	bl	__aeabi_memclr4
	movs	r0, #32
	movs	r1, #64
	.loc	3 221 41                @ ../User/ETH_driver/stm32f4x7_eth.c:221:41
	strd	r1, r0, [r4, #64]
	.loc	3 225 19                @ ../User/ETH_driver/stm32f4x7_eth.c:225:19
	add.w	r0, r4, #72
	.loc	3 227 39                @ ../User/ETH_driver/stm32f4x7_eth.c:227:39
	movs	r1, #28
	bl	__aeabi_memclr4
	movs	r0, #128
	.loc	3 239 47                @ ../User/ETH_driver/stm32f4x7_eth.c:239:47
	movs	r1, #24
	.loc	3 237 39                @ ../User/ETH_driver/stm32f4x7_eth.c:237:39
	str	r0, [r4, #100]
	.loc	3 238 19                @ ../User/ETH_driver/stm32f4x7_eth.c:238:19
	add.w	r0, r4, #104
	.loc	3 239 47                @ ../User/ETH_driver/stm32f4x7_eth.c:239:47
	bl	__aeabi_memclr4
	mov.w	r0, #2097152
	mov.w	r6, #33554432
	mov.w	r1, #67108864
	.loc	3 249 51                @ ../User/ETH_driver/stm32f4x7_eth.c:249:51
	strd	r1, r6, [r4, #128]
	.loc	3 253 42                @ ../User/ETH_driver/stm32f4x7_eth.c:253:42
	strd	r5, r0, [r4, #136]
	.loc	3 257 19                @ ../User/ETH_driver/stm32f4x7_eth.c:257:19
	add.w	r0, r4, #144
	.loc	3 259 42                @ ../User/ETH_driver/stm32f4x7_eth.c:259:42
	movs	r1, #20
	bl	__aeabi_memclr4
	mov.w	r2, #65536
	mov.w	r0, #8192
	mov.w	r1, #4194304
	.loc	3 268 43                @ ../User/ETH_driver/stm32f4x7_eth.c:268:43
	strd	r6, r2, [r4, #164]
	.loc	3 272 40                @ ../User/ETH_driver/stm32f4x7_eth.c:272:40
	strd	r1, r0, [r4, #172]
	.loc	3 275 44                @ ../User/ETH_driver/stm32f4x7_eth.c:275:44
	strd	r5, r5, [r4, #180]
	.loc	3 278 1                 @ ../User/ETH_driver/stm32f4x7_eth.c:278:1
	pop	{r4, r5, r6, pc}
.Ltmp4:
.Lfunc_end1:
	.size	ETH_StructInit, .Lfunc_end1-ETH_StructInit
	.cfi_endproc
	.cantunwind
	.fnend
                                        @ -- End function
	.section	.text.ETH_Init,"ax",%progbits
	.hidden	ETH_Init                @ -- Begin function ETH_Init
	.globl	ETH_Init
	.p2align	1
	.type	ETH_Init,%function
	.code	16                      @ @ETH_Init
	.thumb_func
ETH_Init:
.Lfunc_begin2:
	.loc	3 291 0                 @ ../User/ETH_driver/stm32f4x7_eth.c:291:0
	.fnstart
	.cfi_startproc
@ %bb.0:
	.save	{r4, r5, r6, r7, r8, r9, lr}
	push.w	{r4, r5, r6, r7, r8, r9, lr}
	.cfi_def_cfa_offset 28
	.cfi_offset lr, -4
	.cfi_offset r9, -8
	.cfi_offset r8, -12
	.cfi_offset r7, -16
	.cfi_offset r6, -20
	.cfi_offset r5, -24
	.cfi_offset r4, -28
	.pad	#36
	sub	sp, #36
	.cfi_def_cfa_offset 64
	@DEBUG_VALUE: ETH_Init:ETH_InitStruct <- $r0
	@DEBUG_VALUE: ETH_Init:PHYAddress <- $r1
	movw	r8, #32768
	mov	r4, r0
	movs	r0, #0
.Ltmp5:
	@DEBUG_VALUE: ETH_Init:tmpreg <- 0
	@DEBUG_VALUE: ETH_Init:RegValue <- 0
	@DEBUG_VALUE: ETH_Init:PHYAddress <- $r5
	@DEBUG_VALUE: ETH_Init:ETH_InitStruct <- $r4
	mov	r5, r1
.Ltmp6:
	.loc	3 293 17 prologue_end   @ ../User/ETH_driver/stm32f4x7_eth.c:293:17
	str	r0, [sp, #24]
.Ltmp7:
	@DEBUG_VALUE: ETH_Init:hclk <- 60000000
	.loc	3 296 17                @ ../User/ETH_driver/stm32f4x7_eth.c:296:17
	str	r0, [sp, #4]
	movt	r8, #16386
	add	r0, sp, #8
	.loc	3 348 17                @ ../User/ETH_driver/stm32f4x7_eth.c:348:17
	ldr.w	r6, [r8, #16]
.Ltmp8:
	@DEBUG_VALUE: ETH_Init:rcc_clocks <- [DW_OP_plus_uconst 8, DW_OP_deref] $sp
	@DEBUG_VALUE: ETH_Init:tmpreg <- $r6
	.loc	3 352 3                 @ ../User/ETH_driver/stm32f4x7_eth.c:352:3
	bl	RCC_GetClocksFreq
	movw	r0, #54016
	.loc	3 353 21                @ ../User/ETH_driver/stm32f4x7_eth.c:353:21
	ldr	r1, [sp, #12]
.Ltmp9:
	@DEBUG_VALUE: ETH_Init:hclk <- $r1
	.loc	3 0 21 is_stmt 0        @ ../User/ETH_driver/stm32f4x7_eth.c:0:21
	movw	r3, #57791
	movt	r0, #65230
	movt	r3, #228
.Ltmp10:
	.loc	3 356 24 is_stmt 1      @ ../User/ETH_driver/stm32f4x7_eth.c:356:24
	adds	r2, r1, r0
.Ltmp11:
	.loc	3 350 10                @ ../User/ETH_driver/stm32f4x7_eth.c:350:10
	bic	r0, r6, #28
.Ltmp12:
	@DEBUG_VALUE: ETH_Init:tmpreg <- $r0
	.loc	3 356 24                @ ../User/ETH_driver/stm32f4x7_eth.c:356:24
	cmp	r2, r3
	bhi	.LBB2_2
.Ltmp13:
@ %bb.1:
	@DEBUG_VALUE: ETH_Init:tmpreg <- $r0
	@DEBUG_VALUE: ETH_Init:hclk <- $r1
	@DEBUG_VALUE: ETH_Init:rcc_clocks <- [DW_OP_plus_uconst 8, DW_OP_deref] $sp
	@DEBUG_VALUE: ETH_Init:ETH_InitStruct <- $r4
	.loc	3 359 12                @ ../User/ETH_driver/stm32f4x7_eth.c:359:12
	orr	r0, r0, #8
.Ltmp14:
	@DEBUG_VALUE: ETH_Init:tmpreg <- $r0
	.loc	3 0 12 is_stmt 0        @ ../User/ETH_driver/stm32f4x7_eth.c:0:12
	b	.LBB2_6
.Ltmp15:
.LBB2_2:
	@DEBUG_VALUE: ETH_Init:tmpreg <- $r0
	@DEBUG_VALUE: ETH_Init:hclk <- $r1
	@DEBUG_VALUE: ETH_Init:rcc_clocks <- [DW_OP_plus_uconst 8, DW_OP_deref] $sp
	@DEBUG_VALUE: ETH_Init:ETH_InitStruct <- $r4
	movw	r2, #61760
	movw	r3, #30783
	movt	r2, #65001
	movt	r3, #381
.Ltmp16:
	.loc	3 361 29 is_stmt 1      @ ../User/ETH_driver/stm32f4x7_eth.c:361:29
	add	r2, r1
	cmp	r2, r3
	bhi	.LBB2_4
.Ltmp17:
@ %bb.3:
	@DEBUG_VALUE: ETH_Init:tmpreg <- $r0
	@DEBUG_VALUE: ETH_Init:hclk <- $r1
	@DEBUG_VALUE: ETH_Init:rcc_clocks <- [DW_OP_plus_uconst 8, DW_OP_deref] $sp
	@DEBUG_VALUE: ETH_Init:ETH_InitStruct <- $r4
	.loc	3 364 12                @ ../User/ETH_driver/stm32f4x7_eth.c:364:12
	orr	r0, r0, #12
.Ltmp18:
	@DEBUG_VALUE: ETH_Init:tmpreg <- $r0
	.loc	3 0 12 is_stmt 0        @ ../User/ETH_driver/stm32f4x7_eth.c:0:12
	b	.LBB2_6
.Ltmp19:
.LBB2_4:
	@DEBUG_VALUE: ETH_Init:tmpreg <- $r0
	@DEBUG_VALUE: ETH_Init:hclk <- $r1
	@DEBUG_VALUE: ETH_Init:rcc_clocks <- [DW_OP_plus_uconst 8, DW_OP_deref] $sp
	@DEBUG_VALUE: ETH_Init:ETH_InitStruct <- $r4
	movw	r2, #30976
	movw	r3, #23040
	movt	r2, #64620
	movt	r3, #610
.Ltmp20:
	.loc	3 366 29 is_stmt 1      @ ../User/ETH_driver/stm32f4x7_eth.c:366:29
	add	r2, r1
	cmp	r2, r3
	blo	.LBB2_6
.Ltmp21:
@ %bb.5:
	@DEBUG_VALUE: ETH_Init:tmpreg <- $r0
	@DEBUG_VALUE: ETH_Init:hclk <- $r1
	@DEBUG_VALUE: ETH_Init:rcc_clocks <- [DW_OP_plus_uconst 8, DW_OP_deref] $sp
	@DEBUG_VALUE: ETH_Init:ETH_InitStruct <- $r4
	.loc	3 0 29 is_stmt 0        @ ../User/ETH_driver/stm32f4x7_eth.c:0:29
	movw	r2, #7936
	movt	r2, #64010
.Ltmp22:
	.loc	3 371 30 is_stmt 1      @ ../User/ETH_driver/stm32f4x7_eth.c:371:30
	add	r1, r2
.Ltmp23:
	.loc	3 0 30 is_stmt 0        @ ../User/ETH_driver/stm32f4x7_eth.c:0:30
	movw	r2, #61567
	movt	r2, #762
	.loc	3 371 30                @ ../User/ETH_driver/stm32f4x7_eth.c:371:30
	cmp	r1, r2
.Ltmp24:
	.loc	3 379 12 is_stmt 1      @ ../User/ETH_driver/stm32f4x7_eth.c:379:12
	ite	hi
	orrhi	r0, r0, #16
.Ltmp25:
	@DEBUG_VALUE: ETH_Init:tmpreg <- $r0
	.loc	3 374 12                @ ../User/ETH_driver/stm32f4x7_eth.c:374:12
	orrls	r0, r0, #4
.Ltmp26:
	@DEBUG_VALUE: ETH_Init:tmpreg <- $r0
.LBB2_6:
	@DEBUG_VALUE: ETH_Init:tmpreg <- $r0
	@DEBUG_VALUE: ETH_Init:rcc_clocks <- [DW_OP_plus_uconst 8, DW_OP_deref] $sp
	@DEBUG_VALUE: ETH_Init:ETH_InitStruct <- $r4
	@DEBUG_VALUE: ETH_Init:tmpreg <- $r0
	.loc	3 383 17                @ ../User/ETH_driver/stm32f4x7_eth.c:383:17
	str.w	r0, [r8, #16]
.Ltmp27:
	.loc	3 386 8                 @ ../User/ETH_driver/stm32f4x7_eth.c:386:8
	mov	r0, r5
.Ltmp28:
	movs	r1, #0
	mov.w	r2, #32768
	movs	r6, #0
	bl	ETH_WritePHYRegister
.Ltmp29:
	.loc	3 386 6 is_stmt 0       @ ../User/ETH_driver/stm32f4x7_eth.c:386:6
	cmp	r0, #0
	beq.w	.LBB2_28
.Ltmp30:
@ %bb.7:
	@DEBUG_VALUE: ETH_Init:rcc_clocks <- [DW_OP_plus_uconst 8, DW_OP_deref] $sp
	@DEBUG_VALUE: ETH_Init:ETH_InitStruct <- $r4
	.loc	3 0 6                   @ ../User/ETH_driver/stm32f4x7_eth.c:0:6
	movw	r7, #65535
	movt	r7, #4
	add.w	r0, r7, #720896
	str	r0, [sp, #32]
.Ltmp31:
	.loc	3 153 17 is_stmt 1      @ ../User/ETH_driver/stm32f4x7_eth.c:153:17
	str	r6, [sp, #28]
.Ltmp32:
	.loc	3 154 15                @ ../User/ETH_driver/stm32f4x7_eth.c:154:15
	ldr	r0, [sp, #32]
	b	.LBB2_9
.Ltmp33:
	.p2align	2
.LBB2_8:                                @   in Loop: Header=BB2_9 Depth=1
	@DEBUG_VALUE: ETH_Init:rcc_clocks <- [DW_OP_plus_uconst 8, DW_OP_deref] $sp
	@DEBUG_VALUE: ETH_Init:ETH_InitStruct <- $r4
	.loc	3 154 40 is_stmt 0      @ ../User/ETH_driver/stm32f4x7_eth.c:154:40
	ldr	r0, [sp, #28]
	subs	r0, #1
.Ltmp34:
.LBB2_9:                                @ =>This Inner Loop Header: Depth=1
	@DEBUG_VALUE: ETH_Init:rcc_clocks <- [DW_OP_plus_uconst 8, DW_OP_deref] $sp
	@DEBUG_VALUE: ETH_Init:ETH_InitStruct <- $r4
	.loc	3 0 0                   @ ../User/ETH_driver/stm32f4x7_eth.c:0:0
	str	r0, [sp, #28]
.Ltmp35:
	.loc	3 154 23                @ ../User/ETH_driver/stm32f4x7_eth.c:154:23
	ldr	r0, [sp, #28]
.Ltmp36:
	.loc	3 154 3                 @ ../User/ETH_driver/stm32f4x7_eth.c:154:3
	cmp	r0, #0
	bne	.LBB2_8
.Ltmp37:
@ %bb.10:
	@DEBUG_VALUE: ETH_Init:rcc_clocks <- [DW_OP_plus_uconst 8, DW_OP_deref] $sp
	@DEBUG_VALUE: ETH_Init:ETH_InitStruct <- $r4
	.loc	3 395 22 is_stmt 1      @ ../User/ETH_driver/stm32f4x7_eth.c:395:22
	ldr	r0, [r4]
.Ltmp38:
	.loc	3 395 6 is_stmt 0       @ ../User/ETH_driver/stm32f4x7_eth.c:395:6
	cbz	r0, .LBB2_21
.Ltmp39:
	.p2align	2
.LBB2_11:                               @ =>This Inner Loop Header: Depth=1
	@DEBUG_VALUE: ETH_Init:rcc_clocks <- [DW_OP_plus_uconst 8, DW_OP_deref] $sp
	@DEBUG_VALUE: ETH_Init:ETH_InitStruct <- $r4
	.loc	3 400 14 is_stmt 1      @ ../User/ETH_driver/stm32f4x7_eth.c:400:14
	ldr	r0, [sp, #4]
.Ltmp40:
	.loc	3 401 16                @ ../User/ETH_driver/stm32f4x7_eth.c:401:16
	movs	r1, #1
.Ltmp41:
	.loc	3 400 14                @ ../User/ETH_driver/stm32f4x7_eth.c:400:14
	adds	r0, #1
	str	r0, [sp, #4]
.Ltmp42:
	.loc	3 401 16                @ ../User/ETH_driver/stm32f4x7_eth.c:401:16
	mov	r0, r5
	bl	ETH_ReadPHYRegister
	.loc	3 401 78 is_stmt 0      @ ../User/ETH_driver/stm32f4x7_eth.c:401:78
	lsls	r0, r0, #29
	bmi	.LBB2_13
.Ltmp43:
@ %bb.12:                               @   in Loop: Header=BB2_11 Depth=1
	@DEBUG_VALUE: ETH_Init:rcc_clocks <- [DW_OP_plus_uconst 8, DW_OP_deref] $sp
	@DEBUG_VALUE: ETH_Init:ETH_InitStruct <- $r4
	.loc	3 401 82                @ ../User/ETH_driver/stm32f4x7_eth.c:401:82
	ldr	r0, [sp, #4]
.Ltmp44:
	.loc	3 401 5                 @ ../User/ETH_driver/stm32f4x7_eth.c:401:5
	cmp	r0, r7
	blo	.LBB2_11
.Ltmp45:
.LBB2_13:
	@DEBUG_VALUE: ETH_Init:rcc_clocks <- [DW_OP_plus_uconst 8, DW_OP_deref] $sp
	@DEBUG_VALUE: ETH_Init:ETH_InitStruct <- $r4
	.loc	3 404 8 is_stmt 1       @ ../User/ETH_driver/stm32f4x7_eth.c:404:8
	ldr	r0, [sp, #4]
	movs	r6, #0
.Ltmp46:
	.loc	3 404 8 is_stmt 0       @ ../User/ETH_driver/stm32f4x7_eth.c:404:8
	cmp	r0, r7
	beq.w	.LBB2_28
.Ltmp47:
@ %bb.14:
	@DEBUG_VALUE: ETH_Init:rcc_clocks <- [DW_OP_plus_uconst 8, DW_OP_deref] $sp
	@DEBUG_VALUE: ETH_Init:ETH_InitStruct <- $r4
	.loc	3 412 10 is_stmt 1      @ ../User/ETH_driver/stm32f4x7_eth.c:412:10
	mov	r0, r5
	movs	r1, #0
	mov.w	r2, #4096
.Ltmp48:
	.loc	3 410 13                @ ../User/ETH_driver/stm32f4x7_eth.c:410:13
	str	r6, [sp, #4]
.Ltmp49:
	.loc	3 412 10                @ ../User/ETH_driver/stm32f4x7_eth.c:412:10
	bl	ETH_WritePHYRegister
.Ltmp50:
	.loc	3 412 8 is_stmt 0       @ ../User/ETH_driver/stm32f4x7_eth.c:412:8
	cmp	r0, #0
	beq.w	.LBB2_28
.Ltmp51:
	.p2align	2
.LBB2_15:                               @ =>This Inner Loop Header: Depth=1
	@DEBUG_VALUE: ETH_Init:rcc_clocks <- [DW_OP_plus_uconst 8, DW_OP_deref] $sp
	@DEBUG_VALUE: ETH_Init:ETH_InitStruct <- $r4
	.loc	3 421 14 is_stmt 1      @ ../User/ETH_driver/stm32f4x7_eth.c:421:14
	ldr	r0, [sp, #4]
.Ltmp52:
	.loc	3 422 16                @ ../User/ETH_driver/stm32f4x7_eth.c:422:16
	movs	r1, #1
.Ltmp53:
	.loc	3 421 14                @ ../User/ETH_driver/stm32f4x7_eth.c:421:14
	adds	r0, #1
	str	r0, [sp, #4]
.Ltmp54:
	.loc	3 422 16                @ ../User/ETH_driver/stm32f4x7_eth.c:422:16
	mov	r0, r5
	bl	ETH_ReadPHYRegister
	.loc	3 422 82 is_stmt 0      @ ../User/ETH_driver/stm32f4x7_eth.c:422:82
	lsls	r0, r0, #26
	bmi	.LBB2_17
.Ltmp55:
@ %bb.16:                               @   in Loop: Header=BB2_15 Depth=1
	@DEBUG_VALUE: ETH_Init:rcc_clocks <- [DW_OP_plus_uconst 8, DW_OP_deref] $sp
	@DEBUG_VALUE: ETH_Init:ETH_InitStruct <- $r4
	.loc	3 422 86                @ ../User/ETH_driver/stm32f4x7_eth.c:422:86
	ldr	r0, [sp, #4]
.Ltmp56:
	.loc	3 422 5                 @ ../User/ETH_driver/stm32f4x7_eth.c:422:5
	cmp	r0, r7
	blo	.LBB2_15
.Ltmp57:
.LBB2_17:
	@DEBUG_VALUE: ETH_Init:rcc_clocks <- [DW_OP_plus_uconst 8, DW_OP_deref] $sp
	@DEBUG_VALUE: ETH_Init:ETH_InitStruct <- $r4
	.loc	3 425 8 is_stmt 1       @ ../User/ETH_driver/stm32f4x7_eth.c:425:8
	ldr	r0, [sp, #4]
	movs	r6, #0
.Ltmp58:
	.loc	3 425 8 is_stmt 0       @ ../User/ETH_driver/stm32f4x7_eth.c:425:8
	cmp	r0, r7
	beq.w	.LBB2_28
.Ltmp59:
@ %bb.18:
	@DEBUG_VALUE: ETH_Init:rcc_clocks <- [DW_OP_plus_uconst 8, DW_OP_deref] $sp
	@DEBUG_VALUE: ETH_Init:ETH_InitStruct <- $r4
	.loc	3 434 16 is_stmt 1      @ ../User/ETH_driver/stm32f4x7_eth.c:434:16
	mov	r0, r5
	movs	r1, #31
	.loc	3 431 13                @ ../User/ETH_driver/stm32f4x7_eth.c:431:13
	str	r6, [sp, #4]
	.loc	3 434 16                @ ../User/ETH_driver/stm32f4x7_eth.c:434:16
	bl	ETH_ReadPHYRegister
	.loc	3 436 20                @ ../User/ETH_driver/stm32f4x7_eth.c:436:20
	and	r0, r0, #28
	.loc	3 436 3 is_stmt 0       @ ../User/ETH_driver/stm32f4x7_eth.c:436:3
	cmp	r0, #4
	beq	.LBB2_25
.Ltmp60:
@ %bb.19:
	@DEBUG_VALUE: ETH_Init:rcc_clocks <- [DW_OP_plus_uconst 8, DW_OP_deref] $sp
	@DEBUG_VALUE: ETH_Init:ETH_InitStruct <- $r4
	cmp	r0, #8
	bne	.LBB2_27
.Ltmp61:
@ %bb.20:
	@DEBUG_VALUE: ETH_Init:rcc_clocks <- [DW_OP_plus_uconst 8, DW_OP_deref] $sp
	@DEBUG_VALUE: ETH_Init:ETH_InitStruct <- $r4
	.loc	3 0 3                   @ ../User/ETH_driver/stm32f4x7_eth.c:0:3
	mov.w	r0, #16384
.Ltmp62:
	.loc	3 445 31 is_stmt 1      @ ../User/ETH_driver/stm32f4x7_eth.c:445:31
	str	r0, [r4, #20]
	movs	r0, #0
	b	.LBB2_26
.Ltmp63:
.LBB2_21:
	@DEBUG_VALUE: ETH_Init:rcc_clocks <- [DW_OP_plus_uconst 8, DW_OP_deref] $sp
	@DEBUG_VALUE: ETH_Init:ETH_InitStruct <- $r4
	.loc	3 465 79                @ ../User/ETH_driver/stm32f4x7_eth.c:465:79
	ldr	r0, [r4, #20]
	.loc	3 464 79                @ ../User/ETH_driver/stm32f4x7_eth.c:464:79
	ldr	r1, [r4, #32]
	movs	r6, #0
	.loc	3 465 89                @ ../User/ETH_driver/stm32f4x7_eth.c:465:89
	lsrs	r0, r0, #1
	.loc	3 464 94                @ ../User/ETH_driver/stm32f4x7_eth.c:464:94
	orr.w	r0, r0, r1, lsr #3
	.loc	3 464 9 is_stmt 0       @ ../User/ETH_driver/stm32f4x7_eth.c:464:9
	movs	r1, #0
	uxth	r2, r0
	mov	r0, r5
	bl	ETH_WritePHYRegister
.Ltmp64:
	.loc	3 464 8                 @ ../User/ETH_driver/stm32f4x7_eth.c:464:8
	cmp	r0, #0
	beq.w	.LBB2_28
.Ltmp65:
@ %bb.22:
	@DEBUG_VALUE: ETH_Init:rcc_clocks <- [DW_OP_plus_uconst 8, DW_OP_deref] $sp
	@DEBUG_VALUE: ETH_Init:ETH_InitStruct <- $r4
	.loc	3 0 8                   @ ../User/ETH_driver/stm32f4x7_eth.c:0:8
	mvn	r0, #-16777216
	str	r0, [sp, #32]
.Ltmp66:
	.loc	3 153 17 is_stmt 1      @ ../User/ETH_driver/stm32f4x7_eth.c:153:17
	str	r6, [sp, #28]
.Ltmp67:
	.loc	3 154 15                @ ../User/ETH_driver/stm32f4x7_eth.c:154:15
	ldr	r0, [sp, #32]
	b	.LBB2_24
.Ltmp68:
	.p2align	2
.LBB2_23:                               @   in Loop: Header=BB2_24 Depth=1
	@DEBUG_VALUE: ETH_Init:rcc_clocks <- [DW_OP_plus_uconst 8, DW_OP_deref] $sp
	@DEBUG_VALUE: ETH_Init:ETH_InitStruct <- $r4
	.loc	3 154 40 is_stmt 0      @ ../User/ETH_driver/stm32f4x7_eth.c:154:40
	ldr	r0, [sp, #28]
	subs	r0, #1
.Ltmp69:
.LBB2_24:                               @ =>This Inner Loop Header: Depth=1
	@DEBUG_VALUE: ETH_Init:rcc_clocks <- [DW_OP_plus_uconst 8, DW_OP_deref] $sp
	@DEBUG_VALUE: ETH_Init:ETH_InitStruct <- $r4
	.loc	3 0 0                   @ ../User/ETH_driver/stm32f4x7_eth.c:0:0
	str	r0, [sp, #28]
.Ltmp70:
	.loc	3 154 23                @ ../User/ETH_driver/stm32f4x7_eth.c:154:23
	ldr	r0, [sp, #28]
.Ltmp71:
	.loc	3 154 3                 @ ../User/ETH_driver/stm32f4x7_eth.c:154:3
	cmp	r0, #0
	bne	.LBB2_23
	b	.LBB2_27
.Ltmp72:
.LBB2_25:
	@DEBUG_VALUE: ETH_Init:rcc_clocks <- [DW_OP_plus_uconst 8, DW_OP_deref] $sp
	@DEBUG_VALUE: ETH_Init:ETH_InitStruct <- $r4
	.loc	3 0 3                   @ ../User/ETH_driver/stm32f4x7_eth.c:0:3
	movs	r0, #0
.Ltmp73:
	.loc	3 455 31 is_stmt 1      @ ../User/ETH_driver/stm32f4x7_eth.c:455:31
	str	r0, [r4, #20]
.Ltmp74:
.LBB2_26:
	@DEBUG_VALUE: ETH_Init:rcc_clocks <- [DW_OP_plus_uconst 8, DW_OP_deref] $sp
	@DEBUG_VALUE: ETH_Init:ETH_InitStruct <- $r4
	.loc	3 0 0 is_stmt 0         @ ../User/ETH_driver/stm32f4x7_eth.c:0:0
	str	r0, [r4, #32]
.Ltmp75:
.LBB2_27:
	@DEBUG_VALUE: ETH_Init:rcc_clocks <- [DW_OP_plus_uconst 8, DW_OP_deref] $sp
	@DEBUG_VALUE: ETH_Init:ETH_InitStruct <- $r4
	movw	r1, #33039
	.loc	3 476 17 is_stmt 1      @ ../User/ETH_driver/stm32f4x7_eth.c:476:17
	ldr.w	r0, [r8]
.Ltmp76:
	@DEBUG_VALUE: ETH_Init:tmpreg <- $r0
	.loc	3 492 40                @ ../User/ETH_driver/stm32f4x7_eth.c:492:40
	adds	r7, r4, #4
	.loc	3 578 35                @ ../User/ETH_driver/stm32f4x7_eth.c:578:35
	add.w	r9, r4, #148
	movt	r1, #65312
	.loc	3 478 10                @ ../User/ETH_driver/stm32f4x7_eth.c:478:10
	and.w	r12, r0, r1
.Ltmp77:
	@DEBUG_VALUE: ETH_Init:tmpreg <- $r12
	.loc	3 492 40                @ ../User/ETH_driver/stm32f4x7_eth.c:492:40
	ldm	r7, {r1, r2, r3, r7}
	.loc	3 496 35                @ ../User/ETH_driver/stm32f4x7_eth.c:496:35
	ldrd	r6, r5, [r4, #20]
	.loc	3 498 35                @ ../User/ETH_driver/stm32f4x7_eth.c:498:35
	ldrd	r0, lr, [r4, #28]
	.loc	3 492 53                @ ../User/ETH_driver/stm32f4x7_eth.c:492:53
	orr.w	r1, r1, r12
	movw	r12, #36864
.Ltmp78:
	.loc	3 493 46                @ ../User/ETH_driver/stm32f4x7_eth.c:493:46
	orrs	r1, r2
	movt	r12, #16386
	.loc	3 494 53                @ ../User/ETH_driver/stm32f4x7_eth.c:494:53
	orrs	r1, r3
	.loc	3 518 44                @ ../User/ETH_driver/stm32f4x7_eth.c:518:44
	add.w	r3, r4, #56
	.loc	3 495 52                @ ../User/ETH_driver/stm32f4x7_eth.c:495:52
	orrs	r1, r7
	.loc	3 543 41                @ ../User/ETH_driver/stm32f4x7_eth.c:543:41
	add.w	r7, r4, #96
	.loc	3 496 45                @ ../User/ETH_driver/stm32f4x7_eth.c:496:45
	orrs	r1, r6
	.loc	3 497 50                @ ../User/ETH_driver/stm32f4x7_eth.c:497:50
	orrs	r1, r5
	.loc	3 498 52                @ ../User/ETH_driver/stm32f4x7_eth.c:498:52
	orrs	r0, r1
	.loc	3 500 35                @ ../User/ETH_driver/stm32f4x7_eth.c:500:35
	ldr	r1, [r4, #36]
	.loc	3 499 44                @ ../User/ETH_driver/stm32f4x7_eth.c:499:44
	orr.w	r0, r0, lr
	.loc	3 500 55                @ ../User/ETH_driver/stm32f4x7_eth.c:500:55
	orrs	r0, r1
	.loc	3 501 35                @ ../User/ETH_driver/stm32f4x7_eth.c:501:35
	ldr	r1, [r4, #40]
	.loc	3 501 57 is_stmt 0      @ ../User/ETH_driver/stm32f4x7_eth.c:501:57
	orrs	r0, r1
	.loc	3 502 35 is_stmt 1      @ ../User/ETH_driver/stm32f4x7_eth.c:502:35
	ldr	r1, [r4, #44]
	.loc	3 502 60 is_stmt 0      @ ../User/ETH_driver/stm32f4x7_eth.c:502:60
	orrs	r0, r1
	.loc	3 503 35 is_stmt 1      @ ../User/ETH_driver/stm32f4x7_eth.c:503:35
	ldr	r1, [r4, #48]
	.loc	3 503 52 is_stmt 0      @ ../User/ETH_driver/stm32f4x7_eth.c:503:52
	orrs	r0, r1
	.loc	3 504 35 is_stmt 1      @ ../User/ETH_driver/stm32f4x7_eth.c:504:35
	ldr	r1, [r4, #52]
	.loc	3 492 10                @ ../User/ETH_driver/stm32f4x7_eth.c:492:10
	orrs	r0, r1
.Ltmp79:
	@DEBUG_VALUE: ETH_Init:tmpreg <- $r0
	.loc	3 506 14                @ ../User/ETH_driver/stm32f4x7_eth.c:506:14
	str.w	r0, [r8]
	.loc	3 518 44                @ ../User/ETH_driver/stm32f4x7_eth.c:518:44
	ldm	r3, {r0, r1, r2, r3}
.Ltmp80:
	.loc	3 518 59 is_stmt 0      @ ../User/ETH_driver/stm32f4x7_eth.c:518:59
	orrs	r0, r1
	.loc	3 522 43 is_stmt 1      @ ../User/ETH_driver/stm32f4x7_eth.c:522:43
	ldr	r1, [r4, #72]
	.loc	3 519 64                @ ../User/ETH_driver/stm32f4x7_eth.c:519:64
	orrs	r0, r2
	.loc	3 520 65                @ ../User/ETH_driver/stm32f4x7_eth.c:520:65
	orrs	r0, r3
	.loc	3 521 72                @ ../User/ETH_driver/stm32f4x7_eth.c:521:72
	orrs	r0, r1
	.loc	3 523 43                @ ../User/ETH_driver/stm32f4x7_eth.c:523:43
	ldr	r1, [r4, #76]
	.loc	3 522 69                @ ../User/ETH_driver/stm32f4x7_eth.c:522:69
	orrs	r0, r1
	.loc	3 524 43                @ ../User/ETH_driver/stm32f4x7_eth.c:524:43
	ldr	r1, [r4, #80]
	.loc	3 523 63                @ ../User/ETH_driver/stm32f4x7_eth.c:523:63
	orrs	r0, r1
	.loc	3 525 43                @ ../User/ETH_driver/stm32f4x7_eth.c:525:43
	ldr	r1, [r4, #84]
	.loc	3 524 69                @ ../User/ETH_driver/stm32f4x7_eth.c:524:69
	orrs	r0, r1
	movw	r1, #65345
	.loc	3 518 15                @ ../User/ETH_driver/stm32f4x7_eth.c:518:15
	str.w	r0, [r8, #4]
	.loc	3 528 44                @ ../User/ETH_driver/stm32f4x7_eth.c:528:44
	ldr	r0, [r4, #88]
	.loc	3 528 16 is_stmt 0      @ ../User/ETH_driver/stm32f4x7_eth.c:528:16
	str.w	r0, [r8, #8]
	.loc	3 530 44 is_stmt 1      @ ../User/ETH_driver/stm32f4x7_eth.c:530:44
	ldr	r0, [r4, #92]
	.loc	3 530 16 is_stmt 0      @ ../User/ETH_driver/stm32f4x7_eth.c:530:16
	str.w	r0, [r8, #12]
	.loc	3 533 17 is_stmt 1      @ ../User/ETH_driver/stm32f4x7_eth.c:533:17
	ldr.w	r0, [r8, #24]
.Ltmp81:
	@DEBUG_VALUE: ETH_Init:tmpreg <- $r0
	.loc	3 535 10                @ ../User/ETH_driver/stm32f4x7_eth.c:535:10
	ands	r0, r1
.Ltmp82:
	@DEBUG_VALUE: ETH_Init:tmpreg <- $r0
	.loc	3 543 41                @ ../User/ETH_driver/stm32f4x7_eth.c:543:41
	ldm	r7, {r1, r2, r3, r7}
	.loc	3 543 62 is_stmt 0      @ ../User/ETH_driver/stm32f4x7_eth.c:543:62
	orrs	r0, r2
.Ltmp83:
	.loc	3 0 62                  @ ../User/ETH_driver/stm32f4x7_eth.c:0:62
	movw	r2, #16163
	.loc	3 544 56 is_stmt 1      @ ../User/ETH_driver/stm32f4x7_eth.c:544:56
	orr.w	r0, r0, r1, lsl #16
	.loc	3 547 36                @ ../User/ETH_driver/stm32f4x7_eth.c:547:36
	ldr	r1, [r4, #112]
	movt	r2, #63710
	.loc	3 545 58                @ ../User/ETH_driver/stm32f4x7_eth.c:545:58
	orrs	r0, r3
	.loc	3 546 64                @ ../User/ETH_driver/stm32f4x7_eth.c:546:64
	orrs	r0, r7
	.loc	3 573 40                @ ../User/ETH_driver/stm32f4x7_eth.c:573:40
	add.w	r7, r4, #128
	.loc	3 547 59                @ ../User/ETH_driver/stm32f4x7_eth.c:547:59
	orrs	r0, r1
	.loc	3 548 36                @ ../User/ETH_driver/stm32f4x7_eth.c:548:36
	ldr	r1, [r4, #116]
	.loc	3 543 10                @ ../User/ETH_driver/stm32f4x7_eth.c:543:10
	orrs	r0, r1
.Ltmp84:
	@DEBUG_VALUE: ETH_Init:tmpreg <- $r0
	.loc	3 550 15                @ ../User/ETH_driver/stm32f4x7_eth.c:550:15
	str.w	r0, [r8, #24]
	.loc	3 554 47                @ ../User/ETH_driver/stm32f4x7_eth.c:554:47
	ldrd	r0, r1, [r4, #120]
.Ltmp85:
	.loc	3 554 69 is_stmt 0      @ ../User/ETH_driver/stm32f4x7_eth.c:554:69
	orrs	r0, r1
	.loc	3 554 18                @ ../User/ETH_driver/stm32f4x7_eth.c:554:18
	str.w	r0, [r8, #28]
	.loc	3 560 17 is_stmt 1      @ ../User/ETH_driver/stm32f4x7_eth.c:560:17
	ldr.w	r1, [r12, #24]
.Ltmp86:
	@DEBUG_VALUE: ETH_Init:tmpreg <- $r1
	.loc	3 562 10                @ ../User/ETH_driver/stm32f4x7_eth.c:562:10
	and.w	lr, r1, r2
.Ltmp87:
	@DEBUG_VALUE: ETH_Init:tmpreg <- $lr
	.loc	3 573 40                @ ../User/ETH_driver/stm32f4x7_eth.c:573:40
	ldm	r7, {r2, r3, r7}
	.loc	3 576 35                @ ../User/ETH_driver/stm32f4x7_eth.c:576:35
	ldrd	r6, r5, [r4, #140]
	.loc	3 578 35                @ ../User/ETH_driver/stm32f4x7_eth.c:578:35
	ldm.w	r9, {r0, r1, r8, r9}
	.loc	3 573 72                @ ../User/ETH_driver/stm32f4x7_eth.c:573:72
	orr.w	r2, r2, lr
	.loc	3 574 59                @ ../User/ETH_driver/stm32f4x7_eth.c:574:59
	orrs	r2, r3
	.loc	3 575 58                @ ../User/ETH_driver/stm32f4x7_eth.c:575:58
	orrs	r2, r7
	.loc	3 592 44                @ ../User/ETH_driver/stm32f4x7_eth.c:592:44
	add.w	r7, r4, #164
	.loc	3 576 60                @ ../User/ETH_driver/stm32f4x7_eth.c:576:60
	orrs	r2, r6
	.loc	3 577 64                @ ../User/ETH_driver/stm32f4x7_eth.c:577:64
	orrs	r2, r5
	.loc	3 578 58                @ ../User/ETH_driver/stm32f4x7_eth.c:578:58
	orrs	r0, r2
	.loc	3 579 67                @ ../User/ETH_driver/stm32f4x7_eth.c:579:67
	orrs	r0, r1
	.loc	3 580 63                @ ../User/ETH_driver/stm32f4x7_eth.c:580:63
	orr.w	r0, r0, r8
	.loc	3 573 10                @ ../User/ETH_driver/stm32f4x7_eth.c:573:10
	orr.w	r0, r0, r9
.Ltmp88:
	@DEBUG_VALUE: ETH_Init:tmpreg <- $r0
	.loc	3 583 15                @ ../User/ETH_driver/stm32f4x7_eth.c:583:15
	str.w	r0, [r12, #24]
	.loc	3 592 44                @ ../User/ETH_driver/stm32f4x7_eth.c:592:44
	ldm	r7, {r0, r1, r2, r3, r7}
.Ltmp89:
	.loc	3 597 43                @ ../User/ETH_driver/stm32f4x7_eth.c:597:43
	ldr.w	r6, [r4, #184]
	.loc	3 593 58                @ ../User/ETH_driver/stm32f4x7_eth.c:593:58
	orrs	r0, r1
	.loc	3 594 64                @ ../User/ETH_driver/stm32f4x7_eth.c:594:64
	orrs	r0, r2
	.loc	3 595 64                @ ../User/ETH_driver/stm32f4x7_eth.c:595:64
	orrs	r0, r3
	.loc	3 596 74                @ ../User/ETH_driver/stm32f4x7_eth.c:596:74
	orr.w	r0, r0, r7, lsl #2
	.loc	3 597 62                @ ../User/ETH_driver/stm32f4x7_eth.c:597:62
	orrs	r0, r6
	movs	r6, #1
	orr	r0, r0, #8388608
	.loc	3 592 15                @ ../User/ETH_driver/stm32f4x7_eth.c:592:15
	str.w	r0, [r12]
	.loc	3 602 17                @ ../User/ETH_driver/stm32f4x7_eth.c:602:17
	ldr.w	r0, [r12]
	orr	r0, r0, #128
	str.w	r0, [r12]
.Ltmp90:
.LBB2_28:
	@DEBUG_VALUE: ETH_Init:rcc_clocks <- [DW_OP_plus_uconst 8, DW_OP_deref] $sp
	@DEBUG_VALUE: ETH_Init:ETH_InitStruct <- $r4
	.loc	3 607 1                 @ ../User/ETH_driver/stm32f4x7_eth.c:607:1
	mov	r0, r6
	add	sp, #36
.Ltmp91:
	pop.w	{r4, r5, r6, r7, r8, r9, pc}
.Ltmp92:
.Lfunc_end2:
	.size	ETH_Init, .Lfunc_end2-ETH_Init
	.cfi_endproc
	.cantunwind
	.fnend
                                        @ -- End function
	.section	.text.ETH_WritePHYRegister,"ax",%progbits
	.hidden	ETH_WritePHYRegister    @ -- Begin function ETH_WritePHYRegister
	.globl	ETH_WritePHYRegister
	.p2align	1
	.type	ETH_WritePHYRegister,%function
	.code	16                      @ @ETH_WritePHYRegister
	.thumb_func
ETH_WritePHYRegister:
.Lfunc_begin3:
	.loc	3 2247 0                @ ../User/ETH_driver/stm32f4x7_eth.c:2247:0
	.fnstart
	.cfi_startproc
@ %bb.0:
	.pad	#4
	sub	sp, #4
	.cfi_def_cfa_offset 4
	@DEBUG_VALUE: ETH_WritePHYRegister:PHYAddress <- $r0
	@DEBUG_VALUE: ETH_WritePHYRegister:PHYReg <- $r1
	@DEBUG_VALUE: ETH_WritePHYRegister:PHYValue <- $r2
	movs	r3, #0
.Ltmp93:
	@DEBUG_VALUE: ETH_WritePHYRegister:tmpreg <- 0
	@DEBUG_VALUE: ETH_WritePHYRegister:PHYValue <- $r2
	@DEBUG_VALUE: ETH_WritePHYRegister:PHYReg <- $r1
	@DEBUG_VALUE: ETH_WritePHYRegister:PHYAddress <- $r0
	.loc	3 2249 17 prologue_end  @ ../User/ETH_driver/stm32f4x7_eth.c:2249:17
	str	r3, [sp]
	movw	r3, #32784
	movt	r3, #16386
	.loc	3 2255 17               @ ../User/ETH_driver/stm32f4x7_eth.c:2255:17
	ldr.w	r12, [r3]
.Ltmp94:
	@DEBUG_VALUE: ETH_WritePHYRegister:tmpreg <- $r12
	.loc	3 2264 17               @ ../User/ETH_driver/stm32f4x7_eth.c:2264:17
	str	r2, [r3, #4]
	mov.w	r2, #1984
.Ltmp95:
	@DEBUG_VALUE: ETH_WritePHYRegister:tmpreg <- undef
	.loc	3 2260 35               @ ../User/ETH_driver/stm32f4x7_eth.c:2260:35
	and.w	r1, r2, r1, lsl #6
.Ltmp96:
	@DEBUG_VALUE: ETH_WritePHYRegister:tmpreg <- [DW_OP_constu 2, DW_OP_or, DW_OP_stack_value] undef
	@DEBUG_VALUE: ETH_WritePHYRegister:tmpreg <- undef
	.loc	3 2260 10 is_stmt 0     @ ../User/ETH_driver/stm32f4x7_eth.c:2260:10
	bfi	r1, r0, #11, #5
	.loc	3 2257 10 is_stmt 1     @ ../User/ETH_driver/stm32f4x7_eth.c:2257:10
	and	r0, r12, #28
.Ltmp97:
	@DEBUG_VALUE: ETH_WritePHYRegister:tmpreg <- $r0
	.loc	3 2262 10               @ ../User/ETH_driver/stm32f4x7_eth.c:2262:10
	add	r0, r1
.Ltmp98:
	adds	r0, #3
.Ltmp99:
	@DEBUG_VALUE: ETH_WritePHYRegister:tmpreg <- $r0
	.loc	3 2266 17               @ ../User/ETH_driver/stm32f4x7_eth.c:2266:17
	str	r0, [r3]
	movw	r0, #65535
.Ltmp100:
	.loc	3 0 17 is_stmt 0        @ ../User/ETH_driver/stm32f4x7_eth.c:0:17
	movt	r0, #4
	.p2align	2
.LBB3_1:                                @ =>This Inner Loop Header: Depth=1
.Ltmp101:
	.loc	3 2270 12 is_stmt 1     @ ../User/ETH_driver/stm32f4x7_eth.c:2270:12
	ldr	r1, [sp]
	adds	r1, #1
	str	r1, [sp]
	.loc	3 2271 19               @ ../User/ETH_driver/stm32f4x7_eth.c:2271:19
	ldr	r1, [r3]
.Ltmp102:
	@DEBUG_VALUE: ETH_WritePHYRegister:tmpreg <- $r1
	.loc	3 2272 39               @ ../User/ETH_driver/stm32f4x7_eth.c:2272:39
	lsls	r1, r1, #31
.Ltmp103:
	beq	.LBB3_3
@ %bb.2:                                @   in Loop: Header=BB3_1 Depth=1
	.loc	3 2272 43 is_stmt 0     @ ../User/ETH_driver/stm32f4x7_eth.c:2272:43
	ldr	r1, [sp]
.Ltmp104:
	.loc	3 2272 3                @ ../User/ETH_driver/stm32f4x7_eth.c:2272:3
	cmp	r1, r0
	blo	.LBB3_1
.Ltmp105:
.LBB3_3:
	.loc	3 2274 6 is_stmt 1      @ ../User/ETH_driver/stm32f4x7_eth.c:2274:6
	ldr	r1, [sp]
	.loc	3 2274 14 is_stmt 0     @ ../User/ETH_driver/stm32f4x7_eth.c:2274:14
	subs	r0, r1, r0
	it	ne
	movne	r0, #1
.Ltmp106:
	.loc	3 2281 1 is_stmt 1      @ ../User/ETH_driver/stm32f4x7_eth.c:2281:1
	add	sp, #4
	bx	lr
.Ltmp107:
.Lfunc_end3:
	.size	ETH_WritePHYRegister, .Lfunc_end3-ETH_WritePHYRegister
	.cfi_endproc
	.cantunwind
	.fnend
                                        @ -- End function
	.section	.text.ETH_ReadPHYRegister,"ax",%progbits
	.hidden	ETH_ReadPHYRegister     @ -- Begin function ETH_ReadPHYRegister
	.globl	ETH_ReadPHYRegister
	.p2align	1
	.type	ETH_ReadPHYRegister,%function
	.code	16                      @ @ETH_ReadPHYRegister
	.thumb_func
ETH_ReadPHYRegister:
.Lfunc_begin4:
	.loc	3 2200 0                @ ../User/ETH_driver/stm32f4x7_eth.c:2200:0
	.fnstart
	.cfi_startproc
@ %bb.0:
	.pad	#4
	sub	sp, #4
	.cfi_def_cfa_offset 4
	@DEBUG_VALUE: ETH_ReadPHYRegister:PHYAddress <- $r0
	@DEBUG_VALUE: ETH_ReadPHYRegister:PHYReg <- $r1
	movs	r2, #0
.Ltmp108:
	@DEBUG_VALUE: ETH_ReadPHYRegister:tmpreg <- 0
	@DEBUG_VALUE: ETH_ReadPHYRegister:PHYReg <- $r1
	@DEBUG_VALUE: ETH_ReadPHYRegister:PHYAddress <- $r0
	.loc	3 2202 15 prologue_end  @ ../User/ETH_driver/stm32f4x7_eth.c:2202:15
	str	r2, [sp]
	mov.w	r2, #1984
.Ltmp109:
	@DEBUG_VALUE: ETH_ReadPHYRegister:tmpreg <- undef
	.loc	3 2213 35               @ ../User/ETH_driver/stm32f4x7_eth.c:2213:35
	and.w	r1, r2, r1, lsl #6
.Ltmp110:
	@DEBUG_VALUE: ETH_ReadPHYRegister:tmpreg <- undef
	.loc	3 2213 10 is_stmt 0     @ ../User/ETH_driver/stm32f4x7_eth.c:2213:10
	bfi	r1, r0, #11, #5
	movw	r0, #32784
.Ltmp111:
	.loc	3 0 10                  @ ../User/ETH_driver/stm32f4x7_eth.c:0:10
	movt	r0, #16386
	.loc	3 2208 17 is_stmt 1     @ ../User/ETH_driver/stm32f4x7_eth.c:2208:17
	ldr	r2, [r0]
.Ltmp112:
	@DEBUG_VALUE: ETH_ReadPHYRegister:tmpreg <- $r2
	.loc	3 2210 10               @ ../User/ETH_driver/stm32f4x7_eth.c:2210:10
	and	r2, r2, #28
.Ltmp113:
	@DEBUG_VALUE: ETH_ReadPHYRegister:tmpreg <- $r2
	.loc	3 2215 10               @ ../User/ETH_driver/stm32f4x7_eth.c:2215:10
	add	r1, r2
	adds	r1, #1
.Ltmp114:
	@DEBUG_VALUE: ETH_ReadPHYRegister:tmpreg <- $r1
	.loc	3 2217 17               @ ../User/ETH_driver/stm32f4x7_eth.c:2217:17
	str	r1, [r0]
	movw	r1, #65535
.Ltmp115:
	.loc	3 0 17 is_stmt 0        @ ../User/ETH_driver/stm32f4x7_eth.c:0:17
	movt	r1, #4
	.p2align	2
.LBB4_1:                                @ =>This Inner Loop Header: Depth=1
.Ltmp116:
	.loc	3 2221 12 is_stmt 1     @ ../User/ETH_driver/stm32f4x7_eth.c:2221:12
	ldr	r2, [sp]
	adds	r2, #1
	str	r2, [sp]
	.loc	3 2222 19               @ ../User/ETH_driver/stm32f4x7_eth.c:2222:19
	ldr	r2, [r0]
.Ltmp117:
	@DEBUG_VALUE: ETH_ReadPHYRegister:tmpreg <- $r2
	.loc	3 2223 39               @ ../User/ETH_driver/stm32f4x7_eth.c:2223:39
	lsls	r2, r2, #31
.Ltmp118:
	beq	.LBB4_3
@ %bb.2:                                @   in Loop: Header=BB4_1 Depth=1
	.loc	3 2223 43 is_stmt 0     @ ../User/ETH_driver/stm32f4x7_eth.c:2223:43
	ldr	r2, [sp]
.Ltmp119:
	.loc	3 2223 3                @ ../User/ETH_driver/stm32f4x7_eth.c:2223:3
	cmp	r2, r1
	blo	.LBB4_1
.Ltmp120:
.LBB4_3:
	.loc	3 2225 6 is_stmt 1      @ ../User/ETH_driver/stm32f4x7_eth.c:2225:6
	ldr	r2, [sp]
.Ltmp121:
	.loc	3 2225 6 is_stmt 0      @ ../User/ETH_driver/stm32f4x7_eth.c:2225:6
	cmp	r2, r1
	.loc	3 2231 26 is_stmt 1     @ ../User/ETH_driver/stm32f4x7_eth.c:2231:26
	ite	ne
	ldrne	r0, [r0, #4]
	moveq	r0, #0
	.loc	3 2232 1                @ ../User/ETH_driver/stm32f4x7_eth.c:2232:1
	uxth	r0, r0
	add	sp, #4
	bx	lr
.Ltmp122:
.Lfunc_end4:
	.size	ETH_ReadPHYRegister, .Lfunc_end4-ETH_ReadPHYRegister
	.cfi_endproc
	.cantunwind
	.fnend
                                        @ -- End function
	.section	.text.ETH_Start,"ax",%progbits
	.hidden	ETH_Start               @ -- Begin function ETH_Start
	.globl	ETH_Start
	.p2align	1
	.type	ETH_Start,%function
	.code	16                      @ @ETH_Start
	.thumb_func
ETH_Start:
.Lfunc_begin5:
	.loc	3 615 0                 @ ../User/ETH_driver/stm32f4x7_eth.c:615:0
	.fnstart
	.cfi_startproc
@ %bb.0:
	movw	r0, #32768
	movt	r0, #16386
.Ltmp123:
	@DEBUG_VALUE: ETH_MACTransmissionCmd:NewState <- 1
	.loc	3 0 0 prologue_end      @ ../User/ETH_driver/stm32f4x7_eth.c:0:0
	ldr	r1, [r0]
.Ltmp124:
	.loc	3 644 16                @ ../User/ETH_driver/stm32f4x7_eth.c:644:16
	orr	r1, r1, #8
	str	r1, [r0]
	movw	r1, #36888
	movt	r1, #16386
.Ltmp125:
	.loc	3 1996 15               @ ../User/ETH_driver/stm32f4x7_eth.c:1996:15
	ldr	r2, [r1]
	orr	r2, r2, #1048576
	str	r2, [r1]
.Ltmp126:
	@DEBUG_VALUE: ETH_MACReceptionCmd:NewState <- 1
	.loc	3 0 0 is_stmt 0         @ ../User/ETH_driver/stm32f4x7_eth.c:0:0
	ldr	r2, [r0]
.Ltmp127:
	.loc	3 668 16 is_stmt 1      @ ../User/ETH_driver/stm32f4x7_eth.c:668:16
	orr	r2, r2, #4
	str	r2, [r0]
.Ltmp128:
	@DEBUG_VALUE: ETH_DMATransmissionCmd:NewState <- 1
	.loc	3 0 0 is_stmt 0         @ ../User/ETH_driver/stm32f4x7_eth.c:0:0
	ldr	r0, [r1]
.Ltmp129:
	.loc	3 2032 17 is_stmt 1     @ ../User/ETH_driver/stm32f4x7_eth.c:2032:17
	orr	r0, r0, #8192
	str	r0, [r1]
.Ltmp130:
	@DEBUG_VALUE: ETH_DMAReceptionCmd:NewState <- 1
	.loc	3 0 0 is_stmt 0         @ ../User/ETH_driver/stm32f4x7_eth.c:0:0
	ldr	r0, [r1]
.Ltmp131:
	.loc	3 2055 17 is_stmt 1     @ ../User/ETH_driver/stm32f4x7_eth.c:2055:17
	orr	r0, r0, #2
	str	r0, [r1]
.Ltmp132:
	.loc	3 627 1                 @ ../User/ETH_driver/stm32f4x7_eth.c:627:1
	bx	lr
.Ltmp133:
.Lfunc_end5:
	.size	ETH_Start, .Lfunc_end5-ETH_Start
	.cfi_endproc
	.cantunwind
	.fnend
                                        @ -- End function
	.section	.text.ETH_MACTransmissionCmd,"ax",%progbits
	.hidden	ETH_MACTransmissionCmd  @ -- Begin function ETH_MACTransmissionCmd
	.globl	ETH_MACTransmissionCmd
	.p2align	1
	.type	ETH_MACTransmissionCmd,%function
	.code	16                      @ @ETH_MACTransmissionCmd
	.thumb_func
ETH_MACTransmissionCmd:
.Lfunc_begin6:
	.loc	3 637 0                 @ ../User/ETH_driver/stm32f4x7_eth.c:637:0
	.fnstart
	.cfi_startproc
@ %bb.0:
	@DEBUG_VALUE: ETH_MACTransmissionCmd:NewState <- $r0
	movw	r1, #32768
.Ltmp134:
	.loc	3 641 7 prologue_end    @ ../User/ETH_driver/stm32f4x7_eth.c:641:7
	cmp	r0, #0
	movt	r1, #16386
	@DEBUG_VALUE: ETH_MACTransmissionCmd:NewState <- $r0
.Ltmp135:
	.loc	3 0 0 is_stmt 0         @ ../User/ETH_driver/stm32f4x7_eth.c:0:0
	ldr	r2, [r1]
.Ltmp136:
	.loc	3 641 7                 @ ../User/ETH_driver/stm32f4x7_eth.c:641:7
	orr	r3, r2, #8
	it	eq
	biceq	r3, r2, #8
.Ltmp137:
	.loc	3 0 0                   @ ../User/ETH_driver/stm32f4x7_eth.c:0:0
	str	r3, [r1]
.Ltmp138:
	.loc	3 651 1 is_stmt 1       @ ../User/ETH_driver/stm32f4x7_eth.c:651:1
	bx	lr
.Ltmp139:
.Lfunc_end6:
	.size	ETH_MACTransmissionCmd, .Lfunc_end6-ETH_MACTransmissionCmd
	.cfi_endproc
	.cantunwind
	.fnend
                                        @ -- End function
	.section	.text.ETH_FlushTransmitFIFO,"ax",%progbits
	.hidden	ETH_FlushTransmitFIFO   @ -- Begin function ETH_FlushTransmitFIFO
	.globl	ETH_FlushTransmitFIFO
	.p2align	1
	.type	ETH_FlushTransmitFIFO,%function
	.code	16                      @ @ETH_FlushTransmitFIFO
	.thumb_func
ETH_FlushTransmitFIFO:
.Lfunc_begin7:
	.loc	3 1994 0                @ ../User/ETH_driver/stm32f4x7_eth.c:1994:0
	.fnstart
	.cfi_startproc
@ %bb.0:
	movw	r0, #36888
	movt	r0, #16386
.Ltmp140:
	.loc	3 1996 15 prologue_end  @ ../User/ETH_driver/stm32f4x7_eth.c:1996:15
	ldr	r1, [r0]
	orr	r1, r1, #1048576
	str	r1, [r0]
	.loc	3 1997 1                @ ../User/ETH_driver/stm32f4x7_eth.c:1997:1
	bx	lr
.Ltmp141:
.Lfunc_end7:
	.size	ETH_FlushTransmitFIFO, .Lfunc_end7-ETH_FlushTransmitFIFO
	.cfi_endproc
	.cantunwind
	.fnend
                                        @ -- End function
	.section	.text.ETH_MACReceptionCmd,"ax",%progbits
	.hidden	ETH_MACReceptionCmd     @ -- Begin function ETH_MACReceptionCmd
	.globl	ETH_MACReceptionCmd
	.p2align	1
	.type	ETH_MACReceptionCmd,%function
	.code	16                      @ @ETH_MACReceptionCmd
	.thumb_func
ETH_MACReceptionCmd:
.Lfunc_begin8:
	.loc	3 661 0                 @ ../User/ETH_driver/stm32f4x7_eth.c:661:0
	.fnstart
	.cfi_startproc
@ %bb.0:
	@DEBUG_VALUE: ETH_MACReceptionCmd:NewState <- $r0
	movw	r1, #32768
.Ltmp142:
	.loc	3 665 7 prologue_end    @ ../User/ETH_driver/stm32f4x7_eth.c:665:7
	cmp	r0, #0
	movt	r1, #16386
	@DEBUG_VALUE: ETH_MACReceptionCmd:NewState <- $r0
.Ltmp143:
	.loc	3 0 0 is_stmt 0         @ ../User/ETH_driver/stm32f4x7_eth.c:0:0
	ldr	r2, [r1]
.Ltmp144:
	.loc	3 665 7                 @ ../User/ETH_driver/stm32f4x7_eth.c:665:7
	orr	r3, r2, #4
	it	eq
	biceq	r3, r2, #4
.Ltmp145:
	.loc	3 0 0                   @ ../User/ETH_driver/stm32f4x7_eth.c:0:0
	str	r3, [r1]
.Ltmp146:
	.loc	3 675 1 is_stmt 1       @ ../User/ETH_driver/stm32f4x7_eth.c:675:1
	bx	lr
.Ltmp147:
.Lfunc_end8:
	.size	ETH_MACReceptionCmd, .Lfunc_end8-ETH_MACReceptionCmd
	.cfi_endproc
	.cantunwind
	.fnend
                                        @ -- End function
	.section	.text.ETH_DMATransmissionCmd,"ax",%progbits
	.hidden	ETH_DMATransmissionCmd  @ -- Begin function ETH_DMATransmissionCmd
	.globl	ETH_DMATransmissionCmd
	.p2align	1
	.type	ETH_DMATransmissionCmd,%function
	.code	16                      @ @ETH_DMATransmissionCmd
	.thumb_func
ETH_DMATransmissionCmd:
.Lfunc_begin9:
	.loc	3 2025 0                @ ../User/ETH_driver/stm32f4x7_eth.c:2025:0
	.fnstart
	.cfi_startproc
@ %bb.0:
	@DEBUG_VALUE: ETH_DMATransmissionCmd:NewState <- $r0
	movw	r1, #36888
.Ltmp148:
	.loc	3 2029 7 prologue_end   @ ../User/ETH_driver/stm32f4x7_eth.c:2029:7
	cmp	r0, #0
	movt	r1, #16386
	@DEBUG_VALUE: ETH_DMATransmissionCmd:NewState <- $r0
.Ltmp149:
	.loc	3 0 0 is_stmt 0         @ ../User/ETH_driver/stm32f4x7_eth.c:0:0
	ldr	r2, [r1]
.Ltmp150:
	.loc	3 2029 7                @ ../User/ETH_driver/stm32f4x7_eth.c:2029:7
	orr	r3, r2, #8192
	it	eq
	biceq	r3, r2, #8192
.Ltmp151:
	.loc	3 0 0                   @ ../User/ETH_driver/stm32f4x7_eth.c:0:0
	str	r3, [r1]
.Ltmp152:
	.loc	3 2039 1 is_stmt 1      @ ../User/ETH_driver/stm32f4x7_eth.c:2039:1
	bx	lr
.Ltmp153:
.Lfunc_end9:
	.size	ETH_DMATransmissionCmd, .Lfunc_end9-ETH_DMATransmissionCmd
	.cfi_endproc
	.cantunwind
	.fnend
                                        @ -- End function
	.section	.text.ETH_DMAReceptionCmd,"ax",%progbits
	.hidden	ETH_DMAReceptionCmd     @ -- Begin function ETH_DMAReceptionCmd
	.globl	ETH_DMAReceptionCmd
	.p2align	1
	.type	ETH_DMAReceptionCmd,%function
	.code	16                      @ @ETH_DMAReceptionCmd
	.thumb_func
ETH_DMAReceptionCmd:
.Lfunc_begin10:
	.loc	3 2048 0                @ ../User/ETH_driver/stm32f4x7_eth.c:2048:0
	.fnstart
	.cfi_startproc
@ %bb.0:
	@DEBUG_VALUE: ETH_DMAReceptionCmd:NewState <- $r0
	movw	r1, #36888
.Ltmp154:
	.loc	3 2052 7 prologue_end   @ ../User/ETH_driver/stm32f4x7_eth.c:2052:7
	cmp	r0, #0
	movt	r1, #16386
	@DEBUG_VALUE: ETH_DMAReceptionCmd:NewState <- $r0
.Ltmp155:
	.loc	3 0 0 is_stmt 0         @ ../User/ETH_driver/stm32f4x7_eth.c:0:0
	ldr	r2, [r1]
.Ltmp156:
	.loc	3 2052 7                @ ../User/ETH_driver/stm32f4x7_eth.c:2052:7
	orr	r3, r2, #2
	it	eq
	biceq	r3, r2, #2
.Ltmp157:
	.loc	3 0 0                   @ ../User/ETH_driver/stm32f4x7_eth.c:0:0
	str	r3, [r1]
.Ltmp158:
	.loc	3 2062 1 is_stmt 1      @ ../User/ETH_driver/stm32f4x7_eth.c:2062:1
	bx	lr
.Ltmp159:
.Lfunc_end10:
	.size	ETH_DMAReceptionCmd, .Lfunc_end10-ETH_DMAReceptionCmd
	.cfi_endproc
	.cantunwind
	.fnend
                                        @ -- End function
	.section	.text.ETH_GetFlowControlBusyStatus,"ax",%progbits
	.hidden	ETH_GetFlowControlBusyStatus @ -- Begin function ETH_GetFlowControlBusyStatus
	.globl	ETH_GetFlowControlBusyStatus
	.p2align	1
	.type	ETH_GetFlowControlBusyStatus,%function
	.code	16                      @ @ETH_GetFlowControlBusyStatus
	.thumb_func
ETH_GetFlowControlBusyStatus:
.Lfunc_begin11:
	.loc	3 684 0                 @ ../User/ETH_driver/stm32f4x7_eth.c:684:0
	.fnstart
	.cfi_startproc
@ %bb.0:
	movw	r0, #32792
	movt	r0, #16386
.Ltmp160:
	@DEBUG_VALUE: ETH_GetFlowControlBusyStatus:bitstatus <- 0
	.loc	3 687 13 prologue_end   @ ../User/ETH_driver/stm32f4x7_eth.c:687:13
	ldr	r0, [r0]
.Ltmp161:
	@DEBUG_VALUE: ETH_GetFlowControlBusyStatus:bitstatus <- undef
	.loc	3 695 3                 @ ../User/ETH_driver/stm32f4x7_eth.c:695:3
	and	r0, r0, #1
	bx	lr
.Ltmp162:
.Lfunc_end11:
	.size	ETH_GetFlowControlBusyStatus, .Lfunc_end11-ETH_GetFlowControlBusyStatus
	.cfi_endproc
	.cantunwind
	.fnend
                                        @ -- End function
	.section	.text.ETH_InitiatePauseControlFrame,"ax",%progbits
	.hidden	ETH_InitiatePauseControlFrame @ -- Begin function ETH_InitiatePauseControlFrame
	.globl	ETH_InitiatePauseControlFrame
	.p2align	1
	.type	ETH_InitiatePauseControlFrame,%function
	.code	16                      @ @ETH_InitiatePauseControlFrame
	.thumb_func
ETH_InitiatePauseControlFrame:
.Lfunc_begin12:
	.loc	3 705 0                 @ ../User/ETH_driver/stm32f4x7_eth.c:705:0
	.fnstart
	.cfi_startproc
@ %bb.0:
	movw	r0, #32792
	movt	r0, #16386
.Ltmp163:
	.loc	3 707 15 prologue_end   @ ../User/ETH_driver/stm32f4x7_eth.c:707:15
	ldr	r1, [r0]
	orr	r1, r1, #1
	str	r1, [r0]
	.loc	3 708 1                 @ ../User/ETH_driver/stm32f4x7_eth.c:708:1
	bx	lr
.Ltmp164:
.Lfunc_end12:
	.size	ETH_InitiatePauseControlFrame, .Lfunc_end12-ETH_InitiatePauseControlFrame
	.cfi_endproc
	.cantunwind
	.fnend
                                        @ -- End function
	.section	.text.ETH_BackPressureActivationCmd,"ax",%progbits
	.hidden	ETH_BackPressureActivationCmd @ -- Begin function ETH_BackPressureActivationCmd
	.globl	ETH_BackPressureActivationCmd
	.p2align	1
	.type	ETH_BackPressureActivationCmd,%function
	.code	16                      @ @ETH_BackPressureActivationCmd
	.thumb_func
ETH_BackPressureActivationCmd:
.Lfunc_begin13:
	.loc	3 718 0                 @ ../User/ETH_driver/stm32f4x7_eth.c:718:0
	.fnstart
	.cfi_startproc
@ %bb.0:
	@DEBUG_VALUE: ETH_BackPressureActivationCmd:NewState <- $r0
	movw	r1, #32792
.Ltmp165:
	.loc	3 722 7 prologue_end    @ ../User/ETH_driver/stm32f4x7_eth.c:722:7
	cmp	r0, #0
	movt	r1, #16386
	@DEBUG_VALUE: ETH_BackPressureActivationCmd:NewState <- $r0
.Ltmp166:
	.loc	3 0 0 is_stmt 0         @ ../User/ETH_driver/stm32f4x7_eth.c:0:0
	ldr	r2, [r1]
.Ltmp167:
	.loc	3 722 7                 @ ../User/ETH_driver/stm32f4x7_eth.c:722:7
	orr	r3, r2, #1
	it	eq
	biceq	r3, r2, #1
.Ltmp168:
	.loc	3 0 0                   @ ../User/ETH_driver/stm32f4x7_eth.c:0:0
	str	r3, [r1]
.Ltmp169:
	.loc	3 734 1 is_stmt 1       @ ../User/ETH_driver/stm32f4x7_eth.c:734:1
	bx	lr
.Ltmp170:
.Lfunc_end13:
	.size	ETH_BackPressureActivationCmd, .Lfunc_end13-ETH_BackPressureActivationCmd
	.cfi_endproc
	.cantunwind
	.fnend
                                        @ -- End function
	.section	.text.ETH_GetMACFlagStatus,"ax",%progbits
	.hidden	ETH_GetMACFlagStatus    @ -- Begin function ETH_GetMACFlagStatus
	.globl	ETH_GetMACFlagStatus
	.p2align	1
	.type	ETH_GetMACFlagStatus,%function
	.code	16                      @ @ETH_GetMACFlagStatus
	.thumb_func
ETH_GetMACFlagStatus:
.Lfunc_begin14:
	.loc	3 749 0                 @ ../User/ETH_driver/stm32f4x7_eth.c:749:0
	.fnstart
	.cfi_startproc
@ %bb.0:
	@DEBUG_VALUE: ETH_GetMACFlagStatus:ETH_MAC_FLAG <- $r0
	movw	r1, #32824
	movt	r1, #16386
.Ltmp171:
	@DEBUG_VALUE: ETH_GetMACFlagStatus:bitstatus <- 0
	@DEBUG_VALUE: ETH_GetMACFlagStatus:ETH_MAC_FLAG <- $r0
	.loc	3 753 13 prologue_end   @ ../User/ETH_driver/stm32f4x7_eth.c:753:13
	ldr	r1, [r1]
	.loc	3 753 19 is_stmt 0      @ ../User/ETH_driver/stm32f4x7_eth.c:753:19
	ands	r0, r1
.Ltmp172:
	.loc	3 753 35                @ ../User/ETH_driver/stm32f4x7_eth.c:753:35
	it	ne
	movne	r0, #1
.Ltmp173:
	@DEBUG_VALUE: ETH_GetMACFlagStatus:bitstatus <- undef
	.loc	3 761 3 is_stmt 1       @ ../User/ETH_driver/stm32f4x7_eth.c:761:3
	bx	lr
.Ltmp174:
.Lfunc_end14:
	.size	ETH_GetMACFlagStatus, .Lfunc_end14-ETH_GetMACFlagStatus
	.cfi_endproc
	.cantunwind
	.fnend
                                        @ -- End function
	.section	.text.ETH_GetMACITStatus,"ax",%progbits
	.hidden	ETH_GetMACITStatus      @ -- Begin function ETH_GetMACITStatus
	.globl	ETH_GetMACITStatus
	.p2align	1
	.type	ETH_GetMACITStatus,%function
	.code	16                      @ @ETH_GetMACITStatus
	.thumb_func
ETH_GetMACITStatus:
.Lfunc_begin15:
	.loc	3 777 0                 @ ../User/ETH_driver/stm32f4x7_eth.c:777:0
	.fnstart
	.cfi_startproc
@ %bb.0:
	@DEBUG_VALUE: ETH_GetMACITStatus:ETH_MAC_IT <- $r0
	movw	r1, #32824
	movt	r1, #16386
.Ltmp175:
	@DEBUG_VALUE: ETH_GetMACITStatus:bitstatus <- 0
	@DEBUG_VALUE: ETH_GetMACITStatus:ETH_MAC_IT <- $r0
	.loc	3 781 13 prologue_end   @ ../User/ETH_driver/stm32f4x7_eth.c:781:13
	ldr	r1, [r1]
	.loc	3 781 19 is_stmt 0      @ ../User/ETH_driver/stm32f4x7_eth.c:781:19
	ands	r0, r1
.Ltmp176:
	.loc	3 781 33                @ ../User/ETH_driver/stm32f4x7_eth.c:781:33
	it	ne
	movne	r0, #1
.Ltmp177:
	@DEBUG_VALUE: ETH_GetMACITStatus:bitstatus <- undef
	.loc	3 789 3 is_stmt 1       @ ../User/ETH_driver/stm32f4x7_eth.c:789:3
	bx	lr
.Ltmp178:
.Lfunc_end15:
	.size	ETH_GetMACITStatus, .Lfunc_end15-ETH_GetMACITStatus
	.cfi_endproc
	.cantunwind
	.fnend
                                        @ -- End function
	.section	.text.ETH_MACITConfig,"ax",%progbits
	.hidden	ETH_MACITConfig         @ -- Begin function ETH_MACITConfig
	.globl	ETH_MACITConfig
	.p2align	1
	.type	ETH_MACITConfig,%function
	.code	16                      @ @ETH_MACITConfig
	.thumb_func
ETH_MACITConfig:
.Lfunc_begin16:
	.loc	3 805 0                 @ ../User/ETH_driver/stm32f4x7_eth.c:805:0
	.fnstart
	.cfi_startproc
@ %bb.0:
	@DEBUG_VALUE: ETH_MACITConfig:ETH_MAC_IT <- $r0
	@DEBUG_VALUE: ETH_MACITConfig:NewState <- $r1
	movw	r2, #32828
.Ltmp179:
	.loc	3 810 7 prologue_end    @ ../User/ETH_driver/stm32f4x7_eth.c:810:7
	cmp	r1, #0
	movt	r2, #16386
	@DEBUG_VALUE: ETH_MACITConfig:NewState <- $r1
	@DEBUG_VALUE: ETH_MACITConfig:ETH_MAC_IT <- $r0
.Ltmp180:
	.loc	3 818 17                @ ../User/ETH_driver/stm32f4x7_eth.c:818:17
	ldr	r1, [r2]
.Ltmp181:
	ite	eq
	orreq	r0, r1
.Ltmp182:
	.loc	3 813 17                @ ../User/ETH_driver/stm32f4x7_eth.c:813:17
	bicne.w	r0, r1, r0
.Ltmp183:
	.loc	3 0 0 is_stmt 0         @ ../User/ETH_driver/stm32f4x7_eth.c:0:0
	str	r0, [r2]
.Ltmp184:
	.loc	3 820 1 is_stmt 1       @ ../User/ETH_driver/stm32f4x7_eth.c:820:1
	bx	lr
.Ltmp185:
.Lfunc_end16:
	.size	ETH_MACITConfig, .Lfunc_end16-ETH_MACITConfig
	.cfi_endproc
	.cantunwind
	.fnend
                                        @ -- End function
	.section	.text.ETH_MACAddressConfig,"ax",%progbits
	.hidden	ETH_MACAddressConfig    @ -- Begin function ETH_MACAddressConfig
	.globl	ETH_MACAddressConfig
	.p2align	1
	.type	ETH_MACAddressConfig,%function
	.code	16                      @ @ETH_MACAddressConfig
	.thumb_func
ETH_MACAddressConfig:
.Lfunc_begin17:
	.loc	3 835 0                 @ ../User/ETH_driver/stm32f4x7_eth.c:835:0
	.fnstart
	.cfi_startproc
@ %bb.0:
	@DEBUG_VALUE: ETH_MACAddressConfig:MacAddr <- $r0
	@DEBUG_VALUE: ETH_MACAddressConfig:MacAddr <- $r0
	@DEBUG_VALUE: ETH_MACAddressConfig:Addr <- $r1
	@DEBUG_VALUE: ETH_MACAddressConfig:Addr <- $r1
	.loc	3 841 49 prologue_end   @ ../User/ETH_driver/stm32f4x7_eth.c:841:49
	ldrb	r2, [r1, #4]
	.loc	3 841 23 is_stmt 0      @ ../User/ETH_driver/stm32f4x7_eth.c:841:23
	ldrb	r3, [r1, #5]
	.loc	3 841 37                @ ../User/ETH_driver/stm32f4x7_eth.c:841:37
	orr.w	r2, r2, r3, lsl #8
.Ltmp186:
	@DEBUG_VALUE: ETH_MACAddressConfig:tmpreg <- $r2
	.loc	3 0 37                  @ ../User/ETH_driver/stm32f4x7_eth.c:0:37
	movw	r3, #32832
	movt	r3, #16386
	.loc	3 843 55 is_stmt 1      @ ../User/ETH_driver/stm32f4x7_eth.c:843:55
	str	r2, [r0, r3]
	add	r0, r3
.Ltmp187:
	.loc	3 845 93                @ ../User/ETH_driver/stm32f4x7_eth.c:845:93
	ldr	r1, [r1]
.Ltmp188:
	@DEBUG_VALUE: ETH_MACAddressConfig:tmpreg <- $r1
	.loc	3 848 55                @ ../User/ETH_driver/stm32f4x7_eth.c:848:55
	str	r1, [r0, #4]
	.loc	3 849 1                 @ ../User/ETH_driver/stm32f4x7_eth.c:849:1
	bx	lr
.Ltmp189:
.Lfunc_end17:
	.size	ETH_MACAddressConfig, .Lfunc_end17-ETH_MACAddressConfig
	.cfi_endproc
	.cantunwind
	.fnend
                                        @ -- End function
	.section	.text.ETH_GetMACAddress,"ax",%progbits
	.hidden	ETH_GetMACAddress       @ -- Begin function ETH_GetMACAddress
	.globl	ETH_GetMACAddress
	.p2align	1
	.type	ETH_GetMACAddress,%function
	.code	16                      @ @ETH_GetMACAddress
	.thumb_func
ETH_GetMACAddress:
.Lfunc_begin18:
	.loc	3 864 0                 @ ../User/ETH_driver/stm32f4x7_eth.c:864:0
	.fnstart
	.cfi_startproc
@ %bb.0:
	@DEBUG_VALUE: ETH_GetMACAddress:MacAddr <- $r0
	@DEBUG_VALUE: ETH_GetMACAddress:Addr <- $r1
	movw	r2, #32832
	movt	r2, #16386
	@DEBUG_VALUE: ETH_GetMACAddress:Addr <- $r1
	@DEBUG_VALUE: ETH_GetMACAddress:MacAddr <- $r0
.Ltmp190:
	.loc	3 870 12 prologue_end   @ ../User/ETH_driver/stm32f4x7_eth.c:870:12
	ldr	r3, [r0, r2]
.Ltmp191:
	@DEBUG_VALUE: ETH_GetMACAddress:tmpreg <- $r3
	.loc	3 0 12 is_stmt 0        @ ../User/ETH_driver/stm32f4x7_eth.c:0:12
	add	r0, r2
.Ltmp192:
	.loc	3 874 11 is_stmt 1      @ ../User/ETH_driver/stm32f4x7_eth.c:874:11
	strb	r3, [r1, #4]
	.loc	3 873 22                @ ../User/ETH_driver/stm32f4x7_eth.c:873:22
	lsrs	r3, r3, #8
.Ltmp193:
	.loc	3 873 11 is_stmt 0      @ ../User/ETH_driver/stm32f4x7_eth.c:873:11
	strb	r3, [r1, #5]
	.loc	3 876 12 is_stmt 1      @ ../User/ETH_driver/stm32f4x7_eth.c:876:12
	ldr	r0, [r0, #4]
.Ltmp194:
	@DEBUG_VALUE: ETH_GetMACAddress:tmpreg <- $r0
	.loc	3 879 22                @ ../User/ETH_driver/stm32f4x7_eth.c:879:22
	lsrs	r2, r0, #16
	.loc	3 881 11                @ ../User/ETH_driver/stm32f4x7_eth.c:881:11
	strb	r0, [r1]
	.loc	3 879 11                @ ../User/ETH_driver/stm32f4x7_eth.c:879:11
	strb	r2, [r1, #2]
	.loc	3 878 22                @ ../User/ETH_driver/stm32f4x7_eth.c:878:22
	lsrs	r2, r0, #24
	.loc	3 880 22                @ ../User/ETH_driver/stm32f4x7_eth.c:880:22
	lsrs	r0, r0, #8
.Ltmp195:
	.loc	3 878 11                @ ../User/ETH_driver/stm32f4x7_eth.c:878:11
	strb	r2, [r1, #3]
	.loc	3 880 11                @ ../User/ETH_driver/stm32f4x7_eth.c:880:11
	strb	r0, [r1, #1]
	.loc	3 882 1                 @ ../User/ETH_driver/stm32f4x7_eth.c:882:1
	bx	lr
.Ltmp196:
.Lfunc_end18:
	.size	ETH_GetMACAddress, .Lfunc_end18-ETH_GetMACAddress
	.cfi_endproc
	.cantunwind
	.fnend
                                        @ -- End function
	.section	.text.ETH_MACAddressPerfectFilterCmd,"ax",%progbits
	.hidden	ETH_MACAddressPerfectFilterCmd @ -- Begin function ETH_MACAddressPerfectFilterCmd
	.globl	ETH_MACAddressPerfectFilterCmd
	.p2align	1
	.type	ETH_MACAddressPerfectFilterCmd,%function
	.code	16                      @ @ETH_MACAddressPerfectFilterCmd
	.thumb_func
ETH_MACAddressPerfectFilterCmd:
.Lfunc_begin19:
	.loc	3 898 0                 @ ../User/ETH_driver/stm32f4x7_eth.c:898:0
	.fnstart
	.cfi_startproc
@ %bb.0:
	@DEBUG_VALUE: ETH_MACAddressPerfectFilterCmd:MacAddr <- $r0
	@DEBUG_VALUE: ETH_MACAddressPerfectFilterCmd:NewState <- $r1
	movw	r12, #32832
.Ltmp197:
	.loc	3 903 7 prologue_end    @ ../User/ETH_driver/stm32f4x7_eth.c:903:7
	cmp	r1, #0
	movt	r12, #16386
	@DEBUG_VALUE: ETH_MACAddressPerfectFilterCmd:NewState <- $r1
	@DEBUG_VALUE: ETH_MACAddressPerfectFilterCmd:MacAddr <- $r0
.Ltmp198:
	.loc	3 0 0 is_stmt 0         @ ../User/ETH_driver/stm32f4x7_eth.c:0:0
	ldr.w	r3, [r0, r12]
.Ltmp199:
	.loc	3 903 7                 @ ../User/ETH_driver/stm32f4x7_eth.c:903:7
	orr	r2, r3, #-2147483648
	it	eq
	biceq	r2, r3, #-2147483648
.Ltmp200:
	.loc	3 0 0                   @ ../User/ETH_driver/stm32f4x7_eth.c:0:0
	str.w	r2, [r0, r12]
.Ltmp201:
	.loc	3 913 1 is_stmt 1       @ ../User/ETH_driver/stm32f4x7_eth.c:913:1
	bx	lr
.Ltmp202:
.Lfunc_end19:
	.size	ETH_MACAddressPerfectFilterCmd, .Lfunc_end19-ETH_MACAddressPerfectFilterCmd
	.cfi_endproc
	.cantunwind
	.fnend
                                        @ -- End function
	.section	.text.ETH_MACAddressFilterConfig,"ax",%progbits
	.hidden	ETH_MACAddressFilterConfig @ -- Begin function ETH_MACAddressFilterConfig
	.globl	ETH_MACAddressFilterConfig
	.p2align	1
	.type	ETH_MACAddressFilterConfig,%function
	.code	16                      @ @ETH_MACAddressFilterConfig
	.thumb_func
ETH_MACAddressFilterConfig:
.Lfunc_begin20:
	.loc	3 932 0                 @ ../User/ETH_driver/stm32f4x7_eth.c:932:0
	.fnstart
	.cfi_startproc
@ %bb.0:
	@DEBUG_VALUE: ETH_MACAddressFilterConfig:MacAddr <- $r0
	@DEBUG_VALUE: ETH_MACAddressFilterConfig:Filter <- $r1
	movw	r12, #32832
.Ltmp203:
	.loc	3 937 7 prologue_end    @ ../User/ETH_driver/stm32f4x7_eth.c:937:7
	cmp	r1, #8
	movt	r12, #16386
	@DEBUG_VALUE: ETH_MACAddressFilterConfig:Filter <- $r1
	@DEBUG_VALUE: ETH_MACAddressFilterConfig:MacAddr <- $r0
.Ltmp204:
	.loc	3 0 0 is_stmt 0         @ ../User/ETH_driver/stm32f4x7_eth.c:0:0
	ldr.w	r3, [r0, r12]
.Ltmp205:
	.loc	3 937 7                 @ ../User/ETH_driver/stm32f4x7_eth.c:937:7
	orr	r2, r3, #1073741824
	it	eq
	biceq	r2, r3, #1073741824
.Ltmp206:
	.loc	3 0 0                   @ ../User/ETH_driver/stm32f4x7_eth.c:0:0
	str.w	r2, [r0, r12]
.Ltmp207:
	.loc	3 949 1 is_stmt 1       @ ../User/ETH_driver/stm32f4x7_eth.c:949:1
	bx	lr
.Ltmp208:
.Lfunc_end20:
	.size	ETH_MACAddressFilterConfig, .Lfunc_end20-ETH_MACAddressFilterConfig
	.cfi_endproc
	.cantunwind
	.fnend
                                        @ -- End function
	.section	.text.ETH_MACAddressMaskBytesFilterConfig,"ax",%progbits
	.hidden	ETH_MACAddressMaskBytesFilterConfig @ -- Begin function ETH_MACAddressMaskBytesFilterConfig
	.globl	ETH_MACAddressMaskBytesFilterConfig
	.p2align	1
	.type	ETH_MACAddressMaskBytesFilterConfig,%function
	.code	16                      @ @ETH_MACAddressMaskBytesFilterConfig
	.thumb_func
ETH_MACAddressMaskBytesFilterConfig:
.Lfunc_begin21:
	.loc	3 970 0                 @ ../User/ETH_driver/stm32f4x7_eth.c:970:0
	.fnstart
	.cfi_startproc
@ %bb.0:
	@DEBUG_VALUE: ETH_MACAddressMaskBytesFilterConfig:MacAddr <- $r0
	@DEBUG_VALUE: ETH_MACAddressMaskBytesFilterConfig:MaskByte <- $r1
	movw	r2, #32832
	movt	r2, #16386
	@DEBUG_VALUE: ETH_MACAddressMaskBytesFilterConfig:MaskByte <- $r1
	@DEBUG_VALUE: ETH_MACAddressMaskBytesFilterConfig:MacAddr <- $r0
.Ltmp209:
	.loc	3 976 55 prologue_end   @ ../User/ETH_driver/stm32f4x7_eth.c:976:55
	ldr	r3, [r0, r2]
	bic	r3, r3, #1056964608
	str	r3, [r0, r2]
	.loc	3 978 55                @ ../User/ETH_driver/stm32f4x7_eth.c:978:55
	ldr	r3, [r0, r2]
	orrs	r1, r3
.Ltmp210:
	str	r1, [r0, r2]
	.loc	3 979 1                 @ ../User/ETH_driver/stm32f4x7_eth.c:979:1
	bx	lr
.Ltmp211:
.Lfunc_end21:
	.size	ETH_MACAddressMaskBytesFilterConfig, .Lfunc_end21-ETH_MACAddressMaskBytesFilterConfig
	.cfi_endproc
	.cantunwind
	.fnend
                                        @ -- End function
	.section	.text.ETH_Get_Received_Frame,"ax",%progbits
	.hidden	ETH_Get_Received_Frame  @ -- Begin function ETH_Get_Received_Frame
	.globl	ETH_Get_Received_Frame
	.p2align	1
	.type	ETH_Get_Received_Frame,%function
	.code	16                      @ @ETH_Get_Received_Frame
	.thumb_func
ETH_Get_Received_Frame:
.Lfunc_begin22:
	.loc	3 993 0                 @ ../User/ETH_driver/stm32f4x7_eth.c:993:0
	.fnstart
	.cfi_startproc
@ %bb.0:
	@DEBUG_VALUE: ETH_Get_Received_Frame:frame <- [$r0+0]
	.loc	3 998 19 prologue_end   @ ../User/ETH_driver/stm32f4x7_eth.c:998:19
	movw	r12, :lower16:DMARxDescToGet
	movs	r1, #0
.Ltmp212:
	@DEBUG_VALUE: ETH_Get_Received_Frame:framelength <- 0
	@DEBUG_VALUE: ETH_Get_Received_Frame:frame <- [$r0+0]
	.loc	3 995 16                @ ../User/ETH_driver/stm32f4x7_eth.c:995:16
	strd	r1, r1, [r0, #4]
	.loc	3 998 19                @ ../User/ETH_driver/stm32f4x7_eth.c:998:19
	movt	r12, :upper16:DMARxDescToGet
	ldr.w	r2, [r12]
	.loc	3 998 35 is_stmt 0      @ ../User/ETH_driver/stm32f4x7_eth.c:998:35
	ldr	r1, [r2]
	.loc	3 998 62                @ ../User/ETH_driver/stm32f4x7_eth.c:998:62
	ubfx	r1, r1, #16, #14
	.loc	3 998 97                @ ../User/ETH_driver/stm32f4x7_eth.c:998:97
	subs	r1, #4
.Ltmp213:
	@DEBUG_VALUE: ETH_Get_Received_Frame:framelength <- $r1
	.loc	3 999 16 is_stmt 1      @ ../User/ETH_driver/stm32f4x7_eth.c:999:16
	str	r1, [r0]
.Ltmp214:
	.loc	3 1003 7                @ ../User/ETH_driver/stm32f4x7_eth.c:1003:7
	movw	r1, :lower16:DMA_RX_FRAME_infos
.Ltmp215:
	movt	r1, :upper16:DMA_RX_FRAME_infos
	ldr	r3, [r1]
	.loc	3 1003 27 is_stmt 0     @ ../User/ETH_driver/stm32f4x7_eth.c:1003:27
	ldr	r1, [r3, #8]
.Ltmp216:
	.loc	3 1003 7                @ ../User/ETH_driver/stm32f4x7_eth.c:1003:7
	cmp	r1, #2
	mov	r1, r2
.Ltmp217:
	.loc	3 1005 40 is_stmt 1     @ ../User/ETH_driver/stm32f4x7_eth.c:1005:40
	it	hs
	ldrhs	r1, [r3]
.Ltmp218:
	.loc	3 0 0 is_stmt 0         @ ../User/ETH_driver/stm32f4x7_eth.c:0:0
	ldr	r1, [r1, #8]
.Ltmp219:
	.loc	3 1009 18 is_stmt 1     @ ../User/ETH_driver/stm32f4x7_eth.c:1009:18
	strd	r1, r2, [r0, #4]
.Ltmp220:
	.loc	3 1017 59               @ ../User/ETH_driver/stm32f4x7_eth.c:1017:59
	ldr	r0, [r2, #12]
.Ltmp221:
	.loc	3 1017 18 is_stmt 0     @ ../User/ETH_driver/stm32f4x7_eth.c:1017:18
	str.w	r0, [r12]
	.loc	3 1021 1 is_stmt 1      @ ../User/ETH_driver/stm32f4x7_eth.c:1021:1
	bx	lr
.Ltmp222:
.Lfunc_end22:
	.size	ETH_Get_Received_Frame, .Lfunc_end22-ETH_Get_Received_Frame
	.cfi_endproc
	.cantunwind
	.fnend
                                        @ -- End function
	.section	.text.ETH_Get_Received_Frame_interrupt,"ax",%progbits
	.hidden	ETH_Get_Received_Frame_interrupt @ -- Begin function ETH_Get_Received_Frame_interrupt
	.globl	ETH_Get_Received_Frame_interrupt
	.p2align	1
	.type	ETH_Get_Received_Frame_interrupt,%function
	.code	16                      @ @ETH_Get_Received_Frame_interrupt
	.thumb_func
ETH_Get_Received_Frame_interrupt:
.Lfunc_begin23:
	.loc	3 1032 0                @ ../User/ETH_driver/stm32f4x7_eth.c:1032:0
	.fnstart
	.cfi_startproc
@ %bb.0:
	.save	{r4, lr}
	push	{r4, lr}
	.cfi_def_cfa_offset 8
	.cfi_offset lr, -4
	.cfi_offset r4, -8
	.pad	#4
	sub	sp, #4
	.cfi_def_cfa_offset 12
.Ltmp223:
	@DEBUG_VALUE: ETH_Get_Received_Frame_interrupt:frame <- [$r0+0]
	.loc	3 1037 12 prologue_end  @ ../User/ETH_driver/stm32f4x7_eth.c:1037:12
	movw	lr, :lower16:DMARxDescToGet
	movs	r1, #0
	@DEBUG_VALUE: ETH_Get_Received_Frame_interrupt:frame <- [$r0+0]
	.loc	3 1033 16               @ ../User/ETH_driver/stm32f4x7_eth.c:1033:16
	strd	r1, r1, [r0]
	str	r1, [r0, #8]
	.loc	3 1034 17               @ ../User/ETH_driver/stm32f4x7_eth.c:1034:17
	str	r1, [sp]
	.loc	3 1037 12               @ ../User/ETH_driver/stm32f4x7_eth.c:1037:12
	movt	lr, :upper16:DMARxDescToGet
	ldr.w	r2, [lr]
	.loc	3 1037 28 is_stmt 0     @ ../User/ETH_driver/stm32f4x7_eth.c:1037:28
	ldr	r1, [r2]
	.loc	3 1037 75               @ ../User/ETH_driver/stm32f4x7_eth.c:1037:75
	cmp	r1, #0
	blt	.LBB23_10
.Ltmp224:
@ %bb.1:
	@DEBUG_VALUE: ETH_Get_Received_Frame_interrupt:frame <- [$r0+0]
	.loc	3 0 75                  @ ../User/ETH_driver/stm32f4x7_eth.c:0:75
	movw	r3, :lower16:DMA_RX_FRAME_infos
	mov.w	r12, #1
	movt	r3, :upper16:DMA_RX_FRAME_infos
.Ltmp225:
.LBB23_2:                               @ =>This Inner Loop Header: Depth=1
	@DEBUG_VALUE: ETH_Get_Received_Frame_interrupt:frame <- [$r0+0]
	.loc	3 1038 10 is_stmt 1     @ ../User/ETH_driver/stm32f4x7_eth.c:1038:10
	ldr	r1, [sp]
	.loc	3 1037 3                @ ../User/ETH_driver/stm32f4x7_eth.c:1037:3
	cmp	r1, #4
	bhi	.LBB23_10
.Ltmp226:
@ %bb.3:                                @   in Loop: Header=BB23_2 Depth=1
	@DEBUG_VALUE: ETH_Get_Received_Frame_interrupt:frame <- [$r0+0]
	.loc	3 1042 28               @ ../User/ETH_driver/stm32f4x7_eth.c:1042:28
	ldr	r1, [sp]
	adds	r1, #1
	str	r1, [sp]
.Ltmp227:
	.loc	3 1045 26               @ ../User/ETH_driver/stm32f4x7_eth.c:1045:26
	ldr	r1, [r2]
	.loc	3 1045 72 is_stmt 0     @ ../User/ETH_driver/stm32f4x7_eth.c:1045:72
	lsls	r1, r1, #22
	bpl	.LBB23_6
.Ltmp228:
@ %bb.4:                                @   in Loop: Header=BB23_2 Depth=1
	@DEBUG_VALUE: ETH_Get_Received_Frame_interrupt:frame <- [$r0+0]
	.loc	3 1046 25 is_stmt 1     @ ../User/ETH_driver/stm32f4x7_eth.c:1046:25
	ldr	r1, [r2]
.Ltmp229:
	.loc	3 1045 8                @ ../User/ETH_driver/stm32f4x7_eth.c:1045:8
	lsls	r1, r1, #23
	bmi	.LBB23_6
.Ltmp230:
@ %bb.5:                                @   in Loop: Header=BB23_2 Depth=1
	@DEBUG_VALUE: ETH_Get_Received_Frame_interrupt:frame <- [$r0+0]
	.loc	3 1048 7                @ ../User/ETH_driver/stm32f4x7_eth.c:1048:7
	ldr	r1, [r3]
	.loc	3 1048 38 is_stmt 0     @ ../User/ETH_driver/stm32f4x7_eth.c:1048:38
	str	r2, [r1]
	.loc	3 1049 7 is_stmt 1      @ ../User/ETH_driver/stm32f4x7_eth.c:1049:7
	ldr	r1, [r3]
	.loc	3 1049 37 is_stmt 0     @ ../User/ETH_driver/stm32f4x7_eth.c:1049:37
	str.w	r12, [r1, #8]
.Ltmp231:
	.loc	3 0 0                   @ ../User/ETH_driver/stm32f4x7_eth.c:0:0
	ldr.w	r2, [lr]
	b	.LBB23_8
.Ltmp232:
	.p2align	2
.LBB23_6:                               @   in Loop: Header=BB23_2 Depth=1
	@DEBUG_VALUE: ETH_Get_Received_Frame_interrupt:frame <- [$r0+0]
	.loc	3 1054 32 is_stmt 1     @ ../User/ETH_driver/stm32f4x7_eth.c:1054:32
	ldr	r1, [r2]
	.loc	3 1054 78 is_stmt 0     @ ../User/ETH_driver/stm32f4x7_eth.c:1054:78
	lsls	r1, r1, #23
	.loc	3 1055 31 is_stmt 1     @ ../User/ETH_driver/stm32f4x7_eth.c:1055:31
	itt	pl
	ldrpl	r1, [r2]
.Ltmp233:
	.loc	3 1054 14               @ ../User/ETH_driver/stm32f4x7_eth.c:1054:14
	lslspl.w	r1, r1, #22
	bmi	.LBB23_9
.Ltmp234:
@ %bb.7:                                @   in Loop: Header=BB23_2 Depth=1
	@DEBUG_VALUE: ETH_Get_Received_Frame_interrupt:frame <- [$r0+0]
	.loc	3 1057 8                @ ../User/ETH_driver/stm32f4x7_eth.c:1057:8
	ldr	r1, [r3]
	.loc	3 1057 39 is_stmt 0     @ ../User/ETH_driver/stm32f4x7_eth.c:1057:39
	ldr	r4, [r1, #8]
	adds	r4, #1
	str	r4, [r1, #8]
.Ltmp235:
.LBB23_8:                               @   in Loop: Header=BB23_2 Depth=1
	@DEBUG_VALUE: ETH_Get_Received_Frame_interrupt:frame <- [$r0+0]
	.loc	3 0 0                   @ ../User/ETH_driver/stm32f4x7_eth.c:0:0
	ldr	r2, [r2, #12]
	str.w	r2, [lr]
.Ltmp236:
	.loc	3 1037 28 is_stmt 1     @ ../User/ETH_driver/stm32f4x7_eth.c:1037:28
	ldr	r1, [r2]
	.loc	3 1037 75 is_stmt 0     @ ../User/ETH_driver/stm32f4x7_eth.c:1037:75
	cmp.w	r1, #-1
	bgt	.LBB23_2
	b	.LBB23_10
.Ltmp237:
.LBB23_9:
	@DEBUG_VALUE: ETH_Get_Received_Frame_interrupt:frame <- [$r0+0]
	.loc	3 1065 7 is_stmt 1      @ ../User/ETH_driver/stm32f4x7_eth.c:1065:7
	ldr	r1, [r3]
	.loc	3 1065 38 is_stmt 0     @ ../User/ETH_driver/stm32f4x7_eth.c:1065:38
	str	r2, [r1, #4]
	.loc	3 1067 38 is_stmt 1     @ ../User/ETH_driver/stm32f4x7_eth.c:1067:38
	ldr	r4, [r1, #8]
	adds	r4, #1
	str	r4, [r1, #8]
.Ltmp238:
	.loc	3 1070 32               @ ../User/ETH_driver/stm32f4x7_eth.c:1070:32
	ldr	r4, [r1, #8]
.Ltmp239:
	.loc	3 1070 11 is_stmt 0     @ ../User/ETH_driver/stm32f4x7_eth.c:1070:11
	cmp	r4, #1
.Ltmp240:
	.loc	3 1071 40 is_stmt 1     @ ../User/ETH_driver/stm32f4x7_eth.c:1071:40
	ittt	eq
	streq	r2, [r1]
.Ltmp241:
	.loc	3 1074 24               @ ../User/ETH_driver/stm32f4x7_eth.c:1074:24
	ldreq.w	r2, [lr]
.Ltmp242:
	.loc	3 1079 11               @ ../User/ETH_driver/stm32f4x7_eth.c:1079:11
	ldreq	r1, [r3]
.Ltmp243:
	.loc	3 1074 24               @ ../User/ETH_driver/stm32f4x7_eth.c:1074:24
	mov	r3, r2
	.loc	3 1074 40 is_stmt 0     @ ../User/ETH_driver/stm32f4x7_eth.c:1074:40
	ldr	r4, [r2]
	.loc	3 1074 67               @ ../User/ETH_driver/stm32f4x7_eth.c:1074:67
	ubfx	r4, r4, #16, #14
	.loc	3 1074 102              @ ../User/ETH_driver/stm32f4x7_eth.c:1074:102
	subs	r4, #4
	.loc	3 1074 20               @ ../User/ETH_driver/stm32f4x7_eth.c:1074:20
	str	r4, [r0]
.Ltmp244:
	.loc	3 1079 31 is_stmt 1     @ ../User/ETH_driver/stm32f4x7_eth.c:1079:31
	ldr	r4, [r1, #8]
.Ltmp245:
	.loc	3 1079 11 is_stmt 0     @ ../User/ETH_driver/stm32f4x7_eth.c:1079:11
	cmp	r4, #2
.Ltmp246:
	.loc	3 1081 44 is_stmt 1     @ ../User/ETH_driver/stm32f4x7_eth.c:1081:44
	it	hs
	ldrhs	r3, [r1]
.Ltmp247:
	.loc	3 0 0 is_stmt 0         @ ../User/ETH_driver/stm32f4x7_eth.c:0:0
	ldr	r1, [r3, #8]
.Ltmp248:
	.loc	3 1085 22 is_stmt 1     @ ../User/ETH_driver/stm32f4x7_eth.c:1085:22
	strd	r1, r2, [r0, #4]
.Ltmp249:
	.loc	3 1091 63               @ ../User/ETH_driver/stm32f4x7_eth.c:1091:63
	ldr	r0, [r2, #12]
.Ltmp250:
	.loc	3 1091 22 is_stmt 0     @ ../User/ETH_driver/stm32f4x7_eth.c:1091:22
	str.w	r0, [lr]
.Ltmp251:
.LBB23_10:
	.loc	3 1098 1 is_stmt 1      @ ../User/ETH_driver/stm32f4x7_eth.c:1098:1
	add	sp, #4
	pop	{r4, pc}
.Ltmp252:
.Lfunc_end23:
	.size	ETH_Get_Received_Frame_interrupt, .Lfunc_end23-ETH_Get_Received_Frame_interrupt
	.cfi_endproc
	.cantunwind
	.fnend
                                        @ -- End function
	.section	.text.ETH_Prepare_Transmit_Descriptors,"ax",%progbits
	.hidden	ETH_Prepare_Transmit_Descriptors @ -- Begin function ETH_Prepare_Transmit_Descriptors
	.globl	ETH_Prepare_Transmit_Descriptors
	.p2align	1
	.type	ETH_Prepare_Transmit_Descriptors,%function
	.code	16                      @ @ETH_Prepare_Transmit_Descriptors
	.thumb_func
ETH_Prepare_Transmit_Descriptors:
.Lfunc_begin24:
	.loc	3 1107 0                @ ../User/ETH_driver/stm32f4x7_eth.c:1107:0
	.fnstart
	.cfi_startproc
@ %bb.0:
	@DEBUG_VALUE: ETH_Prepare_Transmit_Descriptors:FrameLength <- $r0
	@DEBUG_VALUE: ETH_Prepare_Transmit_Descriptors:FrameLength <- $r0
	@DEBUG_VALUE: ETH_Prepare_Transmit_Descriptors:buf_count <- 0
	@DEBUG_VALUE: ETH_Prepare_Transmit_Descriptors:size <- 0
	@DEBUG_VALUE: ETH_Prepare_Transmit_Descriptors:i <- 0
	.loc	3 1112 7 prologue_end   @ ../User/ETH_driver/stm32f4x7_eth.c:1112:7
	movw	r12, :lower16:DMATxDescToSet
	movt	r12, :upper16:DMATxDescToSet
	ldr.w	r3, [r12]
.Ltmp253:
	@DEBUG_VALUE: ETH_Prepare_Transmit_Descriptors:DMATxNextDesc <- $r3
	.loc	3 1112 23 is_stmt 0     @ ../User/ETH_driver/stm32f4x7_eth.c:1112:23
	ldr	r1, [r3]
.Ltmp254:
	.loc	3 1112 6                @ ../User/ETH_driver/stm32f4x7_eth.c:1112:6
	cmp	r1, #0
	blt	.LBB24_4
.Ltmp255:
@ %bb.1:
	@DEBUG_VALUE: ETH_Prepare_Transmit_Descriptors:DMATxNextDesc <- $r3
	@DEBUG_VALUE: ETH_Prepare_Transmit_Descriptors:FrameLength <- $r0
	.save	{r4, r5, r6, lr}
	push	{r4, r5, r6, lr}
	.cfi_def_cfa_offset 16
	.cfi_offset lr, -4
	.cfi_offset r6, -8
	.cfi_offset r5, -12
	.cfi_offset r4, -16
	movw	r1, #1525
	.loc	3 1120 7 is_stmt 1      @ ../User/ETH_driver/stm32f4x7_eth.c:1120:7
	cmp	r0, r1
	blo	.LBB24_3
.Ltmp256:
@ %bb.2:
	@DEBUG_VALUE: ETH_Prepare_Transmit_Descriptors:DMATxNextDesc <- $r3
	@DEBUG_VALUE: ETH_Prepare_Transmit_Descriptors:FrameLength <- $r0
	.loc	3 0 7 is_stmt 0         @ ../User/ETH_driver/stm32f4x7_eth.c:0:7
	movw	r1, #45067
	movw	lr, #1524
	movt	r1, #44034
.Ltmp257:
	.loc	3 1122 28 is_stmt 1     @ ../User/ETH_driver/stm32f4x7_eth.c:1122:28
	umull	r1, r5, r0, r1
	lsrs	r2, r5, #10
.Ltmp258:
	@DEBUG_VALUE: ETH_Prepare_Transmit_Descriptors:buf_count <- $r2
	.loc	3 0 28 is_stmt 0        @ ../User/ETH_driver/stm32f4x7_eth.c:0:28
	mls	r1, r2, lr, r0
	uxth	r4, r1
.Ltmp259:
	.loc	3 1123 20 is_stmt 1     @ ../User/ETH_driver/stm32f4x7_eth.c:1123:20
	cmp	r4, #0
	it	ne
	movne	r4, #1
.Ltmp260:
	.loc	3 1123 9 is_stmt 0      @ ../User/ETH_driver/stm32f4x7_eth.c:1123:9
	add.w	r1, r4, r5, lsr #10
.Ltmp261:
	@DEBUG_VALUE: ETH_Prepare_Transmit_Descriptors:buf_count <- $r1
	.loc	3 1127 7 is_stmt 1      @ ../User/ETH_driver/stm32f4x7_eth.c:1127:7
	cmp	r1, #1
	bne	.LBB24_5
.Ltmp262:
.LBB24_3:
	@DEBUG_VALUE: ETH_Prepare_Transmit_Descriptors:DMATxNextDesc <- $r3
	@DEBUG_VALUE: ETH_Prepare_Transmit_Descriptors:FrameLength <- $r0
	.loc	3 1130 28               @ ../User/ETH_driver/stm32f4x7_eth.c:1130:28
	ldr	r1, [r3]
	.loc	3 1132 53               @ ../User/ETH_driver/stm32f4x7_eth.c:1132:53
	bfc	r0, #13, #19
.Ltmp263:
	.loc	3 1130 28               @ ../User/ETH_driver/stm32f4x7_eth.c:1130:28
	orr	r1, r1, #805306368
	str	r1, [r3]
	.loc	3 1132 39               @ ../User/ETH_driver/stm32f4x7_eth.c:1132:39
	str	r0, [r3, #4]
	.loc	3 1134 28               @ ../User/ETH_driver/stm32f4x7_eth.c:1134:28
	ldr	r0, [r3]
	orr	r0, r0, #-2147483648
	str	r0, [r3]
	.loc	3 1135 60               @ ../User/ETH_driver/stm32f4x7_eth.c:1135:60
	ldr	r2, [r3, #12]
	b	.LBB24_11
.Ltmp264:
.LBB24_4:
	@DEBUG_VALUE: ETH_Prepare_Transmit_Descriptors:DMATxNextDesc <- $r3
	@DEBUG_VALUE: ETH_Prepare_Transmit_Descriptors:FrameLength <- $r0
	.loc	3 0 60 is_stmt 0        @ ../User/ETH_driver/stm32f4x7_eth.c:0:60
	movs	r0, #0
.Ltmp265:
	.loc	3 1178 1 is_stmt 1      @ ../User/ETH_driver/stm32f4x7_eth.c:1178:1
	bx	lr
.Ltmp266:
.LBB24_5:
	@DEBUG_VALUE: ETH_Prepare_Transmit_Descriptors:buf_count <- $r1
	@DEBUG_VALUE: ETH_Prepare_Transmit_Descriptors:DMATxNextDesc <- $r3
	@DEBUG_VALUE: ETH_Prepare_Transmit_Descriptors:FrameLength <- $r0
	@DEBUG_VALUE: ETH_Prepare_Transmit_Descriptors:i <- 0
	.loc	3 0 1 is_stmt 0         @ ../User/ETH_driver/stm32f4x7_eth.c:0:1
	movw	r5, #64012
.Ltmp267:
	.loc	3 1139 5 is_stmt 1      @ ../User/ETH_driver/stm32f4x7_eth.c:1139:5
	add	r2, r4
	movt	r5, #65535
	subs	r4, r2, #1
	mov	r2, r3
	mla	r0, r1, r5, r0
.Ltmp268:
	.loc	3 0 5 is_stmt 0         @ ../User/ETH_driver/stm32f4x7_eth.c:0:5
	movs	r5, #0
	addw	r0, r0, #1524
.Ltmp269:
	@DEBUG_VALUE: ETH_Prepare_Transmit_Descriptors:size <- $r0
	bfc	r0, #13, #19
.Ltmp270:
	.p2align	2
.LBB24_6:                               @ =>This Inner Loop Header: Depth=1
	@DEBUG_VALUE: ETH_Prepare_Transmit_Descriptors:buf_count <- $r1
	@DEBUG_VALUE: ETH_Prepare_Transmit_Descriptors:DMATxNextDesc <- $r3
	@DEBUG_VALUE: ETH_Prepare_Transmit_Descriptors:i <- $r5
	@DEBUG_VALUE: ETH_Prepare_Transmit_Descriptors:DMATxNextDesc <- $r2
	.loc	3 1141 11 is_stmt 1     @ ../User/ETH_driver/stm32f4x7_eth.c:1141:11
	cbnz	r5, .LBB24_8
.Ltmp271:
@ %bb.7:                                @   in Loop: Header=BB24_6 Depth=1
	@DEBUG_VALUE: ETH_Prepare_Transmit_Descriptors:DMATxNextDesc <- $r2
	@DEBUG_VALUE: ETH_Prepare_Transmit_Descriptors:i <- $r5
	@DEBUG_VALUE: ETH_Prepare_Transmit_Descriptors:buf_count <- $r1
	.loc	3 1144 32               @ ../User/ETH_driver/stm32f4x7_eth.c:1144:32
	ldr	r6, [r3]
	orr	r6, r6, #268435456
	str	r6, [r3]
.Ltmp272:
.LBB24_8:                               @   in Loop: Header=BB24_6 Depth=1
	@DEBUG_VALUE: ETH_Prepare_Transmit_Descriptors:DMATxNextDesc <- $r2
	@DEBUG_VALUE: ETH_Prepare_Transmit_Descriptors:i <- $r5
	@DEBUG_VALUE: ETH_Prepare_Transmit_Descriptors:buf_count <- $r1
	.loc	3 1150 11               @ ../User/ETH_driver/stm32f4x7_eth.c:1150:11
	cmp	r4, r5
	.loc	3 1148 40               @ ../User/ETH_driver/stm32f4x7_eth.c:1148:40
	str.w	lr, [r2, #4]
	.loc	3 1150 11               @ ../User/ETH_driver/stm32f4x7_eth.c:1150:11
	bne	.LBB24_10
.Ltmp273:
@ %bb.9:                                @   in Loop: Header=BB24_6 Depth=1
	@DEBUG_VALUE: ETH_Prepare_Transmit_Descriptors:DMATxNextDesc <- $r2
	@DEBUG_VALUE: ETH_Prepare_Transmit_Descriptors:i <- $r5
	@DEBUG_VALUE: ETH_Prepare_Transmit_Descriptors:buf_count <- $r1
	.loc	3 1153 31               @ ../User/ETH_driver/stm32f4x7_eth.c:1153:31
	ldr	r6, [r2]
	orr	r6, r6, #536870912
	str	r6, [r2]
	.loc	3 1155 42               @ ../User/ETH_driver/stm32f4x7_eth.c:1155:42
	str	r0, [r2, #4]
.Ltmp274:
.LBB24_10:                              @   in Loop: Header=BB24_6 Depth=1
	@DEBUG_VALUE: ETH_Prepare_Transmit_Descriptors:DMATxNextDesc <- $r2
	@DEBUG_VALUE: ETH_Prepare_Transmit_Descriptors:i <- $r5
	@DEBUG_VALUE: ETH_Prepare_Transmit_Descriptors:buf_count <- $r1
	.loc	3 1159 29               @ ../User/ETH_driver/stm32f4x7_eth.c:1159:29
	ldr	r6, [r2]
.Ltmp275:
	.loc	3 1139 30               @ ../User/ETH_driver/stm32f4x7_eth.c:1139:30
	adds	r5, #1
.Ltmp276:
	@DEBUG_VALUE: ETH_Prepare_Transmit_Descriptors:i <- $r5
	.loc	3 1139 5 is_stmt 0      @ ../User/ETH_driver/stm32f4x7_eth.c:1139:5
	cmp	r5, r1
.Ltmp277:
	.loc	3 1159 29 is_stmt 1     @ ../User/ETH_driver/stm32f4x7_eth.c:1159:29
	orr	r6, r6, #-2147483648
	str	r6, [r2]
	@DEBUG_VALUE: ETH_Prepare_Transmit_Descriptors:DMATxNextDesc <- $r2
	.loc	3 1161 61               @ ../User/ETH_driver/stm32f4x7_eth.c:1161:61
	ldr	r2, [r2, #12]
.Ltmp278:
	.loc	3 1139 5                @ ../User/ETH_driver/stm32f4x7_eth.c:1139:5
	blo	.LBB24_6
.Ltmp279:
.LBB24_11:
	.loc	3 0 5 is_stmt 0         @ ../User/ETH_driver/stm32f4x7_eth.c:0:5
	movw	r0, #36868
	str.w	r2, [r12]
	movt	r0, #16386
.Ltmp280:
	.loc	3 1168 13 is_stmt 1     @ ../User/ETH_driver/stm32f4x7_eth.c:1168:13
	ldr	r1, [r0, #16]
.Ltmp281:
	.loc	3 1168 7 is_stmt 0      @ ../User/ETH_driver/stm32f4x7_eth.c:1168:7
	lsls	r1, r1, #29
	pop.w	{r4, r5, r6, lr}
	bpl	.LBB24_13
@ %bb.12:
	.loc	3 0 7                   @ ../User/ETH_driver/stm32f4x7_eth.c:0:7
	movs	r1, #4
.Ltmp282:
	.loc	3 1171 16 is_stmt 1     @ ../User/ETH_driver/stm32f4x7_eth.c:1171:16
	str	r1, [r0, #16]
	movs	r1, #0
	.loc	3 1173 18               @ ../User/ETH_driver/stm32f4x7_eth.c:1173:18
	str	r1, [r0]
.Ltmp283:
.LBB24_13:
	.loc	3 0 18 is_stmt 0        @ ../User/ETH_driver/stm32f4x7_eth.c:0:18
	movs	r0, #1
	.loc	3 1178 1 is_stmt 1      @ ../User/ETH_driver/stm32f4x7_eth.c:1178:1
	bx	lr
.Ltmp284:
.Lfunc_end24:
	.size	ETH_Prepare_Transmit_Descriptors, .Lfunc_end24-ETH_Prepare_Transmit_Descriptors
	.cfi_endproc
	.cantunwind
	.fnend
                                        @ -- End function
	.section	.text.ETH_DMARxDescChainInit,"ax",%progbits
	.hidden	ETH_DMARxDescChainInit  @ -- Begin function ETH_DMARxDescChainInit
	.globl	ETH_DMARxDescChainInit
	.p2align	1
	.type	ETH_DMARxDescChainInit,%function
	.code	16                      @ @ETH_DMARxDescChainInit
	.thumb_func
ETH_DMARxDescChainInit:
.Lfunc_begin25:
	.loc	3 1189 0                @ ../User/ETH_driver/stm32f4x7_eth.c:1189:0
	.fnstart
	.cfi_startproc
@ %bb.0:
	.save	{r4, r5, r6, lr}
	push	{r4, r5, r6, lr}
	.cfi_def_cfa_offset 16
	.cfi_offset lr, -4
	.cfi_offset r6, -8
	.cfi_offset r5, -12
	.cfi_offset r4, -16
	@DEBUG_VALUE: ETH_DMARxDescChainInit:DMARxDescTab <- $r0
	@DEBUG_VALUE: ETH_DMARxDescChainInit:DMARxDescTab <- $r0
	@DEBUG_VALUE: ETH_DMARxDescChainInit:RxBuff <- $r1
	@DEBUG_VALUE: ETH_DMARxDescChainInit:RxBuff <- $r1
	@DEBUG_VALUE: ETH_DMARxDescChainInit:RxBuffCount <- $r2
	@DEBUG_VALUE: ETH_DMARxDescChainInit:RxBuffCount <- $r2
.Ltmp285:
	@DEBUG_VALUE: ETH_DMARxDescChainInit:i <- 0
	.loc	3 1194 18 prologue_end  @ ../User/ETH_driver/stm32f4x7_eth.c:1194:18
	movw	r3, :lower16:DMARxDescToGet
.Ltmp286:
	.loc	3 1196 3                @ ../User/ETH_driver/stm32f4x7_eth.c:1196:3
	cmp	r2, #0
.Ltmp287:
	.loc	3 1194 18               @ ../User/ETH_driver/stm32f4x7_eth.c:1194:18
	movt	r3, :upper16:DMARxDescToGet
	str	r0, [r3]
.Ltmp288:
	.loc	3 1196 3                @ ../User/ETH_driver/stm32f4x7_eth.c:1196:3
	beq	.LBB25_3
.Ltmp289:
@ %bb.1:
	@DEBUG_VALUE: ETH_DMARxDescChainInit:RxBuffCount <- $r2
	@DEBUG_VALUE: ETH_DMARxDescChainInit:RxBuff <- $r1
	@DEBUG_VALUE: ETH_DMARxDescChainInit:DMARxDescTab <- $r0
	add.w	r3, r0, #32
	sub.w	r12, r2, #1
	mov.w	lr, #0
	movw	r4, #17908
	mov.w	r5, #-2147483648
.Ltmp290:
	.p2align	2
.LBB25_2:                               @ =>This Inner Loop Header: Depth=1
	@DEBUG_VALUE: ETH_DMARxDescChainInit:RxBuffCount <- $r2
	@DEBUG_VALUE: ETH_DMARxDescChainInit:RxBuff <- $r1
	@DEBUG_VALUE: ETH_DMARxDescChainInit:DMARxDescTab <- $r0
	@DEBUG_VALUE: ETH_DMARxDescChainInit:i <- $lr
	.loc	3 1209 8                @ ../User/ETH_driver/stm32f4x7_eth.c:1209:8
	cmp	lr, r12
	mov	r6, r0
.Ltmp291:
	.loc	3 1196 30               @ ../User/ETH_driver/stm32f4x7_eth.c:1196:30
	add.w	lr, lr, #1
.Ltmp292:
	@DEBUG_VALUE: ETH_DMARxDescChainInit:i <- $lr
	.loc	3 1201 23               @ ../User/ETH_driver/stm32f4x7_eth.c:1201:23
	str	r5, [r3, #-32]
	.loc	3 1209 8                @ ../User/ETH_driver/stm32f4x7_eth.c:1209:8
	it	lo
	movlo	r6, r3
	.loc	3 1204 34               @ ../User/ETH_driver/stm32f4x7_eth.c:1204:34
	strd	r4, r1, [r3, #-28]
.Ltmp293:
	.loc	3 1212 38               @ ../User/ETH_driver/stm32f4x7_eth.c:1212:38
	str	r6, [r3, #-20]
.Ltmp294:
	.loc	3 1196 14               @ ../User/ETH_driver/stm32f4x7_eth.c:1196:14
	addw	r1, r1, #1524
.Ltmp295:
	adds	r3, #32
.Ltmp296:
	.loc	3 1196 3 is_stmt 0      @ ../User/ETH_driver/stm32f4x7_eth.c:1196:3
	cmp	r2, lr
	bne	.LBB25_2
.Ltmp297:
.LBB25_3:
	@DEBUG_VALUE: ETH_DMARxDescChainInit:RxBuffCount <- $r2
	@DEBUG_VALUE: ETH_DMARxDescChainInit:DMARxDescTab <- $r0
	.loc	3 0 3                   @ ../User/ETH_driver/stm32f4x7_eth.c:0:3
	movw	r1, #36876
	movt	r1, #16386
	.loc	3 1222 17 is_stmt 1     @ ../User/ETH_driver/stm32f4x7_eth.c:1222:17
	str	r0, [r1]
	.loc	3 1225 22               @ ../User/ETH_driver/stm32f4x7_eth.c:1225:22
	movw	r0, :lower16:DMA_RX_FRAME_infos
.Ltmp298:
	movw	r1, :lower16:RX_Frame_Descriptor
	movt	r0, :upper16:DMA_RX_FRAME_infos
	movt	r1, :upper16:RX_Frame_Descriptor
	str	r1, [r0]
	.loc	3 1227 1                @ ../User/ETH_driver/stm32f4x7_eth.c:1227:1
	pop	{r4, r5, r6, pc}
.Ltmp299:
.Lfunc_end25:
	.size	ETH_DMARxDescChainInit, .Lfunc_end25-ETH_DMARxDescChainInit
	.cfi_endproc
	.cantunwind
	.fnend
                                        @ -- End function
	.section	.text.ETH_CheckFrameReceived,"ax",%progbits
	.hidden	ETH_CheckFrameReceived  @ -- Begin function ETH_CheckFrameReceived
	.globl	ETH_CheckFrameReceived
	.p2align	1
	.type	ETH_CheckFrameReceived,%function
	.code	16                      @ @ETH_CheckFrameReceived
	.thumb_func
ETH_CheckFrameReceived:
.Lfunc_begin26:
	.loc	3 1235 0                @ ../User/ETH_driver/stm32f4x7_eth.c:1235:0
	.fnstart
	.cfi_startproc
@ %bb.0:
	.loc	3 1237 8 prologue_end   @ ../User/ETH_driver/stm32f4x7_eth.c:1237:8
	movw	r1, :lower16:DMARxDescToGet
	movt	r1, :upper16:DMARxDescToGet
	ldr	r0, [r1]
	.loc	3 1237 24 is_stmt 0     @ ../User/ETH_driver/stm32f4x7_eth.c:1237:24
	ldr	r2, [r0]
	.loc	3 1237 72               @ ../User/ETH_driver/stm32f4x7_eth.c:1237:72
	cmp	r2, #0
	blt	.LBB26_2
@ %bb.1:
	.loc	3 1238 24 is_stmt 1     @ ../User/ETH_driver/stm32f4x7_eth.c:1238:24
	ldr	r2, [r0]
.Ltmp300:
	.loc	3 1237 6                @ ../User/ETH_driver/stm32f4x7_eth.c:1237:6
	lsls	r2, r2, #23
	bmi	.LBB26_9
.LBB26_2:
.Ltmp301:
	.loc	3 1246 31               @ ../User/ETH_driver/stm32f4x7_eth.c:1246:31
	ldr	r2, [r0]
	.loc	3 1246 79 is_stmt 0     @ ../User/ETH_driver/stm32f4x7_eth.c:1246:79
	cmp	r2, #0
	blt	.LBB26_6
@ %bb.3:
	.loc	3 1247 24 is_stmt 1     @ ../User/ETH_driver/stm32f4x7_eth.c:1247:24
	ldr	r2, [r0]
	.loc	3 1247 70 is_stmt 0     @ ../User/ETH_driver/stm32f4x7_eth.c:1247:70
	lsls	r2, r2, #22
	bpl	.LBB26_6
@ %bb.4:
	.loc	3 1248 24 is_stmt 1     @ ../User/ETH_driver/stm32f4x7_eth.c:1248:24
	ldr	r2, [r0]
.Ltmp302:
	.loc	3 1246 13               @ ../User/ETH_driver/stm32f4x7_eth.c:1246:13
	lsls	r2, r2, #23
	bmi	.LBB26_6
@ %bb.5:
.Ltmp303:
	.loc	3 1250 7                @ ../User/ETH_driver/stm32f4x7_eth.c:1250:7
	movw	r2, :lower16:DMA_RX_FRAME_infos
	movt	r2, :upper16:DMA_RX_FRAME_infos
	ldr	r3, [r2]
	.loc	3 1250 38 is_stmt 0     @ ../User/ETH_driver/stm32f4x7_eth.c:1250:38
	str	r0, [r3]
	movs	r0, #0
	movs	r3, #1
	.loc	3 1251 7 is_stmt 1      @ ../User/ETH_driver/stm32f4x7_eth.c:1251:7
	ldr	r2, [r2]
	.loc	3 1251 38 is_stmt 0     @ ../User/ETH_driver/stm32f4x7_eth.c:1251:38
	str	r0, [r2, #4]
	.loc	3 1252 37 is_stmt 1     @ ../User/ETH_driver/stm32f4x7_eth.c:1252:37
	str	r3, [r2, #8]
	.loc	3 1253 47               @ ../User/ETH_driver/stm32f4x7_eth.c:1253:47
	ldr	r2, [r1]
	.loc	3 1253 63 is_stmt 0     @ ../User/ETH_driver/stm32f4x7_eth.c:1253:63
	ldr	r2, [r2, #12]
	.loc	3 1253 22               @ ../User/ETH_driver/stm32f4x7_eth.c:1253:22
	str	r2, [r1]
.Ltmp304:
	.loc	3 1265 1 is_stmt 1      @ ../User/ETH_driver/stm32f4x7_eth.c:1265:1
	bx	lr
.LBB26_6:
.Ltmp305:
	.loc	3 1257 31               @ ../User/ETH_driver/stm32f4x7_eth.c:1257:31
	ldr	r2, [r0]
	.loc	3 1257 79 is_stmt 0     @ ../User/ETH_driver/stm32f4x7_eth.c:1257:79
	cmp	r2, #0
	blt	.LBB26_8
@ %bb.7:
	.loc	3 1258 24 is_stmt 1     @ ../User/ETH_driver/stm32f4x7_eth.c:1258:24
	ldr	r2, [r0]
	.loc	3 1258 70 is_stmt 0     @ ../User/ETH_driver/stm32f4x7_eth.c:1258:70
	lsls	r2, r2, #22
	.loc	3 1259 24 is_stmt 1     @ ../User/ETH_driver/stm32f4x7_eth.c:1259:24
	itt	pl
	ldrpl	r2, [r0]
.Ltmp306:
	.loc	3 1257 13               @ ../User/ETH_driver/stm32f4x7_eth.c:1257:13
	lslspl.w	r2, r2, #23
	bpl	.LBB26_10
.Ltmp307:
.LBB26_8:
	.loc	3 0 13 is_stmt 0        @ ../User/ETH_driver/stm32f4x7_eth.c:0:13
	movs	r0, #0
	.loc	3 1265 1 is_stmt 1      @ ../User/ETH_driver/stm32f4x7_eth.c:1265:1
	bx	lr
.LBB26_9:
.Ltmp308:
	.loc	3 1240 7                @ ../User/ETH_driver/stm32f4x7_eth.c:1240:7
	movw	r1, :lower16:DMA_RX_FRAME_infos
	movt	r1, :upper16:DMA_RX_FRAME_infos
	ldr	r1, [r1]
	.loc	3 1240 38 is_stmt 0     @ ../User/ETH_driver/stm32f4x7_eth.c:1240:38
	str	r0, [r1, #4]
	.loc	3 1241 36 is_stmt 1     @ ../User/ETH_driver/stm32f4x7_eth.c:1241:36
	ldr	r0, [r1, #8]
	adds	r0, #1
	str	r0, [r1, #8]
	movs	r0, #1
.Ltmp309:
	.loc	3 1265 1                @ ../User/ETH_driver/stm32f4x7_eth.c:1265:1
	bx	lr
.LBB26_10:
.Ltmp310:
	.loc	3 1261 8                @ ../User/ETH_driver/stm32f4x7_eth.c:1261:8
	movw	r2, :lower16:DMA_RX_FRAME_infos
	movt	r2, :upper16:DMA_RX_FRAME_infos
	ldr	r2, [r2]
	.loc	3 1261 39 is_stmt 0     @ ../User/ETH_driver/stm32f4x7_eth.c:1261:39
	ldr	r3, [r2, #8]
	adds	r3, #1
	str	r3, [r2, #8]
	.loc	3 1262 63 is_stmt 1     @ ../User/ETH_driver/stm32f4x7_eth.c:1262:63
	ldr	r0, [r0, #12]
	.loc	3 1262 22 is_stmt 0     @ ../User/ETH_driver/stm32f4x7_eth.c:1262:22
	str	r0, [r1]
	b	.LBB26_8
.Ltmp311:
.Lfunc_end26:
	.size	ETH_CheckFrameReceived, .Lfunc_end26-ETH_CheckFrameReceived
	.cfi_endproc
	.cantunwind
	.fnend
                                        @ -- End function
	.section	.text.ETH_DMATxDescChainInit,"ax",%progbits
	.hidden	ETH_DMATxDescChainInit  @ -- Begin function ETH_DMATxDescChainInit
	.globl	ETH_DMATxDescChainInit
	.p2align	1
	.type	ETH_DMATxDescChainInit,%function
	.code	16                      @ @ETH_DMATxDescChainInit
	.thumb_func
ETH_DMATxDescChainInit:
.Lfunc_begin27:
	.loc	3 1277 0 is_stmt 1      @ ../User/ETH_driver/stm32f4x7_eth.c:1277:0
	.fnstart
	.cfi_startproc
@ %bb.0:
	.save	{r4, r5, r7, lr}
	push	{r4, r5, r7, lr}
	.cfi_def_cfa_offset 16
	.cfi_offset lr, -4
	.cfi_offset r7, -8
	.cfi_offset r5, -12
	.cfi_offset r4, -16
	@DEBUG_VALUE: ETH_DMATxDescChainInit:DMATxDescTab <- $r0
	@DEBUG_VALUE: ETH_DMATxDescChainInit:DMATxDescTab <- $r0
	@DEBUG_VALUE: ETH_DMATxDescChainInit:TxBuff <- $r1
	@DEBUG_VALUE: ETH_DMATxDescChainInit:TxBuff <- $r1
	@DEBUG_VALUE: ETH_DMATxDescChainInit:TxBuffCount <- $r2
	@DEBUG_VALUE: ETH_DMATxDescChainInit:TxBuffCount <- $r2
.Ltmp312:
	@DEBUG_VALUE: ETH_DMATxDescChainInit:i <- 0
	.loc	3 1282 18 prologue_end  @ ../User/ETH_driver/stm32f4x7_eth.c:1282:18
	movw	r3, :lower16:DMATxDescToSet
.Ltmp313:
	.loc	3 1284 3                @ ../User/ETH_driver/stm32f4x7_eth.c:1284:3
	cmp	r2, #0
.Ltmp314:
	.loc	3 1282 18               @ ../User/ETH_driver/stm32f4x7_eth.c:1282:18
	movt	r3, :upper16:DMATxDescToSet
	str	r0, [r3]
.Ltmp315:
	.loc	3 1284 3                @ ../User/ETH_driver/stm32f4x7_eth.c:1284:3
	beq	.LBB27_3
.Ltmp316:
@ %bb.1:
	@DEBUG_VALUE: ETH_DMATxDescChainInit:TxBuffCount <- $r2
	@DEBUG_VALUE: ETH_DMATxDescChainInit:TxBuff <- $r1
	@DEBUG_VALUE: ETH_DMATxDescChainInit:DMATxDescTab <- $r0
	add.w	r3, r0, #32
	sub.w	r12, r2, #1
	mov.w	lr, #0
	mov.w	r4, #1048576
.Ltmp317:
	.p2align	2
.LBB27_2:                               @ =>This Inner Loop Header: Depth=1
	@DEBUG_VALUE: ETH_DMATxDescChainInit:TxBuffCount <- $r2
	@DEBUG_VALUE: ETH_DMATxDescChainInit:TxBuff <- $r1
	@DEBUG_VALUE: ETH_DMATxDescChainInit:DMATxDescTab <- $r0
	@DEBUG_VALUE: ETH_DMATxDescChainInit:i <- $lr
	.loc	3 1295 8                @ ../User/ETH_driver/stm32f4x7_eth.c:1295:8
	cmp	lr, r12
	mov	r5, r0
.Ltmp318:
	.loc	3 1284 30               @ ../User/ETH_driver/stm32f4x7_eth.c:1284:30
	add.w	lr, lr, #1
.Ltmp319:
	@DEBUG_VALUE: ETH_DMATxDescChainInit:i <- $lr
	.loc	3 1289 23               @ ../User/ETH_driver/stm32f4x7_eth.c:1289:23
	str	r4, [r3, #-32]
	.loc	3 1295 8                @ ../User/ETH_driver/stm32f4x7_eth.c:1295:8
	it	lo
	movlo	r5, r3
	.loc	3 1292 28               @ ../User/ETH_driver/stm32f4x7_eth.c:1292:28
	strd	r1, r5, [r3, #-24]
.Ltmp320:
	.loc	3 1284 14               @ ../User/ETH_driver/stm32f4x7_eth.c:1284:14
	addw	r1, r1, #1524
.Ltmp321:
	adds	r3, #32
.Ltmp322:
	.loc	3 1284 3 is_stmt 0      @ ../User/ETH_driver/stm32f4x7_eth.c:1284:3
	cmp	r2, lr
	bne	.LBB27_2
.Ltmp323:
.LBB27_3:
	@DEBUG_VALUE: ETH_DMATxDescChainInit:TxBuffCount <- $r2
	@DEBUG_VALUE: ETH_DMATxDescChainInit:DMATxDescTab <- $r0
	.loc	3 0 3                   @ ../User/ETH_driver/stm32f4x7_eth.c:0:3
	movw	r1, #36880
	movt	r1, #16386
	.loc	3 1308 17 is_stmt 1     @ ../User/ETH_driver/stm32f4x7_eth.c:1308:17
	str	r0, [r1]
	.loc	3 1309 1                @ ../User/ETH_driver/stm32f4x7_eth.c:1309:1
	pop	{r4, r5, r7, pc}
.Ltmp324:
.Lfunc_end27:
	.size	ETH_DMATxDescChainInit, .Lfunc_end27-ETH_DMATxDescChainInit
	.cfi_endproc
	.cantunwind
	.fnend
                                        @ -- End function
	.section	.text.ETH_GetDMATxDescFlagStatus,"ax",%progbits
	.hidden	ETH_GetDMATxDescFlagStatus @ -- Begin function ETH_GetDMATxDescFlagStatus
	.globl	ETH_GetDMATxDescFlagStatus
	.p2align	1
	.type	ETH_GetDMATxDescFlagStatus,%function
	.code	16                      @ @ETH_GetDMATxDescFlagStatus
	.thumb_func
ETH_GetDMATxDescFlagStatus:
.Lfunc_begin28:
	.loc	3 1347 0                @ ../User/ETH_driver/stm32f4x7_eth.c:1347:0
	.fnstart
	.cfi_startproc
@ %bb.0:
	@DEBUG_VALUE: ETH_GetDMATxDescFlagStatus:DMATxDesc <- $r0
	@DEBUG_VALUE: ETH_GetDMATxDescFlagStatus:DMATxDesc <- $r0
	@DEBUG_VALUE: ETH_GetDMATxDescFlagStatus:ETH_DMATxDescFlag <- $r1
	@DEBUG_VALUE: ETH_GetDMATxDescFlagStatus:ETH_DMATxDescFlag <- $r1
	@DEBUG_VALUE: ETH_GetDMATxDescFlagStatus:bitstatus <- 0
	.loc	3 1352 19 prologue_end  @ ../User/ETH_driver/stm32f4x7_eth.c:1352:19
	ldr	r0, [r0]
.Ltmp325:
	.loc	3 1352 26 is_stmt 0     @ ../User/ETH_driver/stm32f4x7_eth.c:1352:26
	ands	r0, r1
	.loc	3 1352 47               @ ../User/ETH_driver/stm32f4x7_eth.c:1352:47
	it	ne
	movne	r0, #1
.Ltmp326:
	@DEBUG_VALUE: ETH_GetDMATxDescFlagStatus:bitstatus <- undef
	.loc	3 1360 3 is_stmt 1      @ ../User/ETH_driver/stm32f4x7_eth.c:1360:3
	bx	lr
.Ltmp327:
.Lfunc_end28:
	.size	ETH_GetDMATxDescFlagStatus, .Lfunc_end28-ETH_GetDMATxDescFlagStatus
	.cfi_endproc
	.cantunwind
	.fnend
                                        @ -- End function
	.section	.text.ETH_GetDMATxDescCollisionCount,"ax",%progbits
	.hidden	ETH_GetDMATxDescCollisionCount @ -- Begin function ETH_GetDMATxDescCollisionCount
	.globl	ETH_GetDMATxDescCollisionCount
	.p2align	1
	.type	ETH_GetDMATxDescCollisionCount,%function
	.code	16                      @ @ETH_GetDMATxDescCollisionCount
	.thumb_func
ETH_GetDMATxDescCollisionCount:
.Lfunc_begin29:
	.loc	3 1369 0                @ ../User/ETH_driver/stm32f4x7_eth.c:1369:0
	.fnstart
	.cfi_startproc
@ %bb.0:
	@DEBUG_VALUE: ETH_GetDMATxDescCollisionCount:DMATxDesc <- $r0
	@DEBUG_VALUE: ETH_GetDMATxDescCollisionCount:DMATxDesc <- $r0
	.loc	3 1371 23 prologue_end  @ ../User/ETH_driver/stm32f4x7_eth.c:1371:23
	ldr	r0, [r0]
.Ltmp328:
	.loc	3 1371 50 is_stmt 0     @ ../User/ETH_driver/stm32f4x7_eth.c:1371:50
	ubfx	r0, r0, #3, #4
	.loc	3 1371 3                @ ../User/ETH_driver/stm32f4x7_eth.c:1371:3
	bx	lr
.Ltmp329:
.Lfunc_end29:
	.size	ETH_GetDMATxDescCollisionCount, .Lfunc_end29-ETH_GetDMATxDescCollisionCount
	.cfi_endproc
	.cantunwind
	.fnend
                                        @ -- End function
	.section	.text.ETH_SetDMATxDescOwnBit,"ax",%progbits
	.hidden	ETH_SetDMATxDescOwnBit  @ -- Begin function ETH_SetDMATxDescOwnBit
	.globl	ETH_SetDMATxDescOwnBit
	.p2align	1
	.type	ETH_SetDMATxDescOwnBit,%function
	.code	16                      @ @ETH_SetDMATxDescOwnBit
	.thumb_func
ETH_SetDMATxDescOwnBit:
.Lfunc_begin30:
	.loc	3 1380 0 is_stmt 1      @ ../User/ETH_driver/stm32f4x7_eth.c:1380:0
	.fnstart
	.cfi_startproc
@ %bb.0:
	@DEBUG_VALUE: ETH_SetDMATxDescOwnBit:DMATxDesc <- $r0
	@DEBUG_VALUE: ETH_SetDMATxDescOwnBit:DMATxDesc <- $r0
	.loc	3 1382 21 prologue_end  @ ../User/ETH_driver/stm32f4x7_eth.c:1382:21
	ldr	r1, [r0]
	orr	r1, r1, #-2147483648
	str	r1, [r0]
	.loc	3 1383 1                @ ../User/ETH_driver/stm32f4x7_eth.c:1383:1
	bx	lr
.Ltmp330:
.Lfunc_end30:
	.size	ETH_SetDMATxDescOwnBit, .Lfunc_end30-ETH_SetDMATxDescOwnBit
	.cfi_endproc
	.cantunwind
	.fnend
                                        @ -- End function
	.section	.text.ETH_DMATxDescTransmitITConfig,"ax",%progbits
	.hidden	ETH_DMATxDescTransmitITConfig @ -- Begin function ETH_DMATxDescTransmitITConfig
	.globl	ETH_DMATxDescTransmitITConfig
	.p2align	1
	.type	ETH_DMATxDescTransmitITConfig,%function
	.code	16                      @ @ETH_DMATxDescTransmitITConfig
	.thumb_func
ETH_DMATxDescTransmitITConfig:
.Lfunc_begin31:
	.loc	3 1393 0                @ ../User/ETH_driver/stm32f4x7_eth.c:1393:0
	.fnstart
	.cfi_startproc
@ %bb.0:
	@DEBUG_VALUE: ETH_DMATxDescTransmitITConfig:DMATxDesc <- $r0
	@DEBUG_VALUE: ETH_DMATxDescTransmitITConfig:DMATxDesc <- $r0
	@DEBUG_VALUE: ETH_DMATxDescTransmitITConfig:NewState <- $r1
	@DEBUG_VALUE: ETH_DMATxDescTransmitITConfig:NewState <- $r1
	.loc	3 0 0 prologue_end      @ ../User/ETH_driver/stm32f4x7_eth.c:0:0
	ldr	r2, [r0]
.Ltmp331:
	.loc	3 1397 7                @ ../User/ETH_driver/stm32f4x7_eth.c:1397:7
	cmp	r1, #0
	orr	r3, r2, #1073741824
	it	eq
	biceq	r3, r2, #1073741824
.Ltmp332:
	.loc	3 0 0 is_stmt 0         @ ../User/ETH_driver/stm32f4x7_eth.c:0:0
	str	r3, [r0]
.Ltmp333:
	.loc	3 1407 1 is_stmt 1      @ ../User/ETH_driver/stm32f4x7_eth.c:1407:1
	bx	lr
.Ltmp334:
.Lfunc_end31:
	.size	ETH_DMATxDescTransmitITConfig, .Lfunc_end31-ETH_DMATxDescTransmitITConfig
	.cfi_endproc
	.cantunwind
	.fnend
                                        @ -- End function
	.section	.text.ETH_DMATxDescFrameSegmentConfig,"ax",%progbits
	.hidden	ETH_DMATxDescFrameSegmentConfig @ -- Begin function ETH_DMATxDescFrameSegmentConfig
	.globl	ETH_DMATxDescFrameSegmentConfig
	.p2align	1
	.type	ETH_DMATxDescFrameSegmentConfig,%function
	.code	16                      @ @ETH_DMATxDescFrameSegmentConfig
	.thumb_func
ETH_DMATxDescFrameSegmentConfig:
.Lfunc_begin32:
	.loc	3 1419 0                @ ../User/ETH_driver/stm32f4x7_eth.c:1419:0
	.fnstart
	.cfi_startproc
@ %bb.0:
	@DEBUG_VALUE: ETH_DMATxDescFrameSegmentConfig:DMATxDesc <- $r0
	@DEBUG_VALUE: ETH_DMATxDescFrameSegmentConfig:DMATxDesc <- $r0
	@DEBUG_VALUE: ETH_DMATxDescFrameSegmentConfig:DMATxDesc_FrameSegment <- $r1
	@DEBUG_VALUE: ETH_DMATxDescFrameSegmentConfig:DMATxDesc_FrameSegment <- $r1
	.loc	3 1424 21 prologue_end  @ ../User/ETH_driver/stm32f4x7_eth.c:1424:21
	ldr	r2, [r0]
	orrs	r1, r2
.Ltmp335:
	str	r1, [r0]
	.loc	3 1425 1                @ ../User/ETH_driver/stm32f4x7_eth.c:1425:1
	bx	lr
.Ltmp336:
.Lfunc_end32:
	.size	ETH_DMATxDescFrameSegmentConfig, .Lfunc_end32-ETH_DMATxDescFrameSegmentConfig
	.cfi_endproc
	.cantunwind
	.fnend
                                        @ -- End function
	.section	.text.ETH_DMATxDescChecksumInsertionConfig,"ax",%progbits
	.hidden	ETH_DMATxDescChecksumInsertionConfig @ -- Begin function ETH_DMATxDescChecksumInsertionConfig
	.globl	ETH_DMATxDescChecksumInsertionConfig
	.p2align	1
	.type	ETH_DMATxDescChecksumInsertionConfig,%function
	.code	16                      @ @ETH_DMATxDescChecksumInsertionConfig
	.thumb_func
ETH_DMATxDescChecksumInsertionConfig:
.Lfunc_begin33:
	.loc	3 1439 0                @ ../User/ETH_driver/stm32f4x7_eth.c:1439:0
	.fnstart
	.cfi_startproc
@ %bb.0:
	@DEBUG_VALUE: ETH_DMATxDescChecksumInsertionConfig:DMATxDesc <- $r0
	@DEBUG_VALUE: ETH_DMATxDescChecksumInsertionConfig:DMATxDesc <- $r0
	@DEBUG_VALUE: ETH_DMATxDescChecksumInsertionConfig:DMATxDesc_Checksum <- $r1
	@DEBUG_VALUE: ETH_DMATxDescChecksumInsertionConfig:DMATxDesc_Checksum <- $r1
	.loc	3 1444 21 prologue_end  @ ../User/ETH_driver/stm32f4x7_eth.c:1444:21
	ldr	r2, [r0]
	orrs	r1, r2
.Ltmp337:
	str	r1, [r0]
	.loc	3 1445 1                @ ../User/ETH_driver/stm32f4x7_eth.c:1445:1
	bx	lr
.Ltmp338:
.Lfunc_end33:
	.size	ETH_DMATxDescChecksumInsertionConfig, .Lfunc_end33-ETH_DMATxDescChecksumInsertionConfig
	.cfi_endproc
	.cantunwind
	.fnend
                                        @ -- End function
	.section	.text.ETH_DMATxDescCRCCmd,"ax",%progbits
	.hidden	ETH_DMATxDescCRCCmd     @ -- Begin function ETH_DMATxDescCRCCmd
	.globl	ETH_DMATxDescCRCCmd
	.p2align	1
	.type	ETH_DMATxDescCRCCmd,%function
	.code	16                      @ @ETH_DMATxDescCRCCmd
	.thumb_func
ETH_DMATxDescCRCCmd:
.Lfunc_begin34:
	.loc	3 1455 0                @ ../User/ETH_driver/stm32f4x7_eth.c:1455:0
	.fnstart
	.cfi_startproc
@ %bb.0:
	@DEBUG_VALUE: ETH_DMATxDescCRCCmd:DMATxDesc <- $r0
	@DEBUG_VALUE: ETH_DMATxDescCRCCmd:DMATxDesc <- $r0
	@DEBUG_VALUE: ETH_DMATxDescCRCCmd:NewState <- $r1
	@DEBUG_VALUE: ETH_DMATxDescCRCCmd:NewState <- $r1
	.loc	3 0 0 prologue_end      @ ../User/ETH_driver/stm32f4x7_eth.c:0:0
	ldr	r2, [r0]
.Ltmp339:
	.loc	3 1459 7                @ ../User/ETH_driver/stm32f4x7_eth.c:1459:7
	cmp	r1, #0
	bic	r3, r2, #134217728
	it	eq
	orreq	r3, r2, #134217728
.Ltmp340:
	.loc	3 0 0 is_stmt 0         @ ../User/ETH_driver/stm32f4x7_eth.c:0:0
	str	r3, [r0]
.Ltmp341:
	.loc	3 1469 1 is_stmt 1      @ ../User/ETH_driver/stm32f4x7_eth.c:1469:1
	bx	lr
.Ltmp342:
.Lfunc_end34:
	.size	ETH_DMATxDescCRCCmd, .Lfunc_end34-ETH_DMATxDescCRCCmd
	.cfi_endproc
	.cantunwind
	.fnend
                                        @ -- End function
	.section	.text.ETH_DMATxDescSecondAddressChainedCmd,"ax",%progbits
	.hidden	ETH_DMATxDescSecondAddressChainedCmd @ -- Begin function ETH_DMATxDescSecondAddressChainedCmd
	.globl	ETH_DMATxDescSecondAddressChainedCmd
	.p2align	1
	.type	ETH_DMATxDescSecondAddressChainedCmd,%function
	.code	16                      @ @ETH_DMATxDescSecondAddressChainedCmd
	.thumb_func
ETH_DMATxDescSecondAddressChainedCmd:
.Lfunc_begin35:
	.loc	3 1480 0                @ ../User/ETH_driver/stm32f4x7_eth.c:1480:0
	.fnstart
	.cfi_startproc
@ %bb.0:
	@DEBUG_VALUE: ETH_DMATxDescSecondAddressChainedCmd:DMATxDesc <- $r0
	@DEBUG_VALUE: ETH_DMATxDescSecondAddressChainedCmd:DMATxDesc <- $r0
	@DEBUG_VALUE: ETH_DMATxDescSecondAddressChainedCmd:NewState <- $r1
	@DEBUG_VALUE: ETH_DMATxDescSecondAddressChainedCmd:NewState <- $r1
	.loc	3 0 0 prologue_end      @ ../User/ETH_driver/stm32f4x7_eth.c:0:0
	ldr	r2, [r0]
.Ltmp343:
	.loc	3 1484 7                @ ../User/ETH_driver/stm32f4x7_eth.c:1484:7
	cmp	r1, #0
	orr	r3, r2, #1048576
	it	eq
	biceq	r3, r2, #1048576
.Ltmp344:
	.loc	3 0 0 is_stmt 0         @ ../User/ETH_driver/stm32f4x7_eth.c:0:0
	str	r3, [r0]
.Ltmp345:
	.loc	3 1494 1 is_stmt 1      @ ../User/ETH_driver/stm32f4x7_eth.c:1494:1
	bx	lr
.Ltmp346:
.Lfunc_end35:
	.size	ETH_DMATxDescSecondAddressChainedCmd, .Lfunc_end35-ETH_DMATxDescSecondAddressChainedCmd
	.cfi_endproc
	.cantunwind
	.fnend
                                        @ -- End function
	.section	.text.ETH_DMATxDescShortFramePaddingCmd,"ax",%progbits
	.hidden	ETH_DMATxDescShortFramePaddingCmd @ -- Begin function ETH_DMATxDescShortFramePaddingCmd
	.globl	ETH_DMATxDescShortFramePaddingCmd
	.p2align	1
	.type	ETH_DMATxDescShortFramePaddingCmd,%function
	.code	16                      @ @ETH_DMATxDescShortFramePaddingCmd
	.thumb_func
ETH_DMATxDescShortFramePaddingCmd:
.Lfunc_begin36:
	.loc	3 1504 0                @ ../User/ETH_driver/stm32f4x7_eth.c:1504:0
	.fnstart
	.cfi_startproc
@ %bb.0:
	@DEBUG_VALUE: ETH_DMATxDescShortFramePaddingCmd:DMATxDesc <- $r0
	@DEBUG_VALUE: ETH_DMATxDescShortFramePaddingCmd:DMATxDesc <- $r0
	@DEBUG_VALUE: ETH_DMATxDescShortFramePaddingCmd:NewState <- $r1
	@DEBUG_VALUE: ETH_DMATxDescShortFramePaddingCmd:NewState <- $r1
	.loc	3 0 0 prologue_end      @ ../User/ETH_driver/stm32f4x7_eth.c:0:0
	ldr	r2, [r0]
.Ltmp347:
	.loc	3 1508 7                @ ../User/ETH_driver/stm32f4x7_eth.c:1508:7
	cmp	r1, #0
	bic	r3, r2, #67108864
	it	eq
	orreq	r3, r2, #67108864
.Ltmp348:
	.loc	3 0 0 is_stmt 0         @ ../User/ETH_driver/stm32f4x7_eth.c:0:0
	str	r3, [r0]
.Ltmp349:
	.loc	3 1518 1 is_stmt 1      @ ../User/ETH_driver/stm32f4x7_eth.c:1518:1
	bx	lr
.Ltmp350:
.Lfunc_end36:
	.size	ETH_DMATxDescShortFramePaddingCmd, .Lfunc_end36-ETH_DMATxDescShortFramePaddingCmd
	.cfi_endproc
	.cantunwind
	.fnend
                                        @ -- End function
	.section	.text.ETH_DMATxDescBufferSizeConfig,"ax",%progbits
	.hidden	ETH_DMATxDescBufferSizeConfig @ -- Begin function ETH_DMATxDescBufferSizeConfig
	.globl	ETH_DMATxDescBufferSizeConfig
	.p2align	1
	.type	ETH_DMATxDescBufferSizeConfig,%function
	.code	16                      @ @ETH_DMATxDescBufferSizeConfig
	.thumb_func
ETH_DMATxDescBufferSizeConfig:
.Lfunc_begin37:
	.loc	3 1529 0                @ ../User/ETH_driver/stm32f4x7_eth.c:1529:0
	.fnstart
	.cfi_startproc
@ %bb.0:
	@DEBUG_VALUE: ETH_DMATxDescBufferSizeConfig:DMATxDesc <- $r0
	@DEBUG_VALUE: ETH_DMATxDescBufferSizeConfig:DMATxDesc <- $r0
	@DEBUG_VALUE: ETH_DMATxDescBufferSizeConfig:BufferSize1 <- $r1
	@DEBUG_VALUE: ETH_DMATxDescBufferSizeConfig:BufferSize1 <- $r1
	@DEBUG_VALUE: ETH_DMATxDescBufferSizeConfig:BufferSize2 <- $r2
	@DEBUG_VALUE: ETH_DMATxDescBufferSizeConfig:BufferSize2 <- $r2
	.loc	3 1535 48 prologue_end  @ ../User/ETH_driver/stm32f4x7_eth.c:1535:48
	orr.w	r1, r1, r2, lsl #16
.Ltmp351:
	.loc	3 1535 32 is_stmt 0     @ ../User/ETH_driver/stm32f4x7_eth.c:1535:32
	ldr	r2, [r0, #4]
.Ltmp352:
	orrs	r1, r2
	str	r1, [r0, #4]
	.loc	3 1536 1 is_stmt 1      @ ../User/ETH_driver/stm32f4x7_eth.c:1536:1
	bx	lr
.Ltmp353:
.Lfunc_end37:
	.size	ETH_DMATxDescBufferSizeConfig, .Lfunc_end37-ETH_DMATxDescBufferSizeConfig
	.cfi_endproc
	.cantunwind
	.fnend
                                        @ -- End function
	.section	.text.ETH_GetDMARxDescFlagStatus,"ax",%progbits
	.hidden	ETH_GetDMARxDescFlagStatus @ -- Begin function ETH_GetDMARxDescFlagStatus
	.globl	ETH_GetDMARxDescFlagStatus
	.p2align	1
	.type	ETH_GetDMARxDescFlagStatus,%function
	.code	16                      @ @ETH_GetDMARxDescFlagStatus
	.thumb_func
ETH_GetDMARxDescFlagStatus:
.Lfunc_begin38:
	.loc	3 1565 0                @ ../User/ETH_driver/stm32f4x7_eth.c:1565:0
	.fnstart
	.cfi_startproc
@ %bb.0:
	@DEBUG_VALUE: ETH_GetDMARxDescFlagStatus:DMARxDesc <- $r0
	@DEBUG_VALUE: ETH_GetDMARxDescFlagStatus:DMARxDesc <- $r0
	@DEBUG_VALUE: ETH_GetDMARxDescFlagStatus:ETH_DMARxDescFlag <- $r1
	@DEBUG_VALUE: ETH_GetDMARxDescFlagStatus:ETH_DMARxDescFlag <- $r1
	@DEBUG_VALUE: ETH_GetDMARxDescFlagStatus:bitstatus <- 0
	.loc	3 1569 19 prologue_end  @ ../User/ETH_driver/stm32f4x7_eth.c:1569:19
	ldr	r0, [r0]
.Ltmp354:
	.loc	3 1569 26 is_stmt 0     @ ../User/ETH_driver/stm32f4x7_eth.c:1569:26
	ands	r0, r1
	.loc	3 1569 47               @ ../User/ETH_driver/stm32f4x7_eth.c:1569:47
	it	ne
	movne	r0, #1
.Ltmp355:
	@DEBUG_VALUE: ETH_GetDMARxDescFlagStatus:bitstatus <- undef
	.loc	3 1577 3 is_stmt 1      @ ../User/ETH_driver/stm32f4x7_eth.c:1577:3
	bx	lr
.Ltmp356:
.Lfunc_end38:
	.size	ETH_GetDMARxDescFlagStatus, .Lfunc_end38-ETH_GetDMARxDescFlagStatus
	.cfi_endproc
	.cantunwind
	.fnend
                                        @ -- End function
	.section	.text.ETH_GetDMAPTPRxDescExtendedFlagStatus,"ax",%progbits
	.hidden	ETH_GetDMAPTPRxDescExtendedFlagStatus @ -- Begin function ETH_GetDMAPTPRxDescExtendedFlagStatus
	.globl	ETH_GetDMAPTPRxDescExtendedFlagStatus
	.p2align	1
	.type	ETH_GetDMAPTPRxDescExtendedFlagStatus,%function
	.code	16                      @ @ETH_GetDMAPTPRxDescExtendedFlagStatus
	.thumb_func
ETH_GetDMAPTPRxDescExtendedFlagStatus:
.Lfunc_begin39:
	.loc	3 1598 0                @ ../User/ETH_driver/stm32f4x7_eth.c:1598:0
	.fnstart
	.cfi_startproc
@ %bb.0:
	@DEBUG_VALUE: ETH_GetDMAPTPRxDescExtendedFlagStatus:DMAPTPRxDesc <- $r0
	@DEBUG_VALUE: ETH_GetDMAPTPRxDescExtendedFlagStatus:DMAPTPRxDesc <- $r0
	@DEBUG_VALUE: ETH_GetDMAPTPRxDescExtendedFlagStatus:ETH_DMAPTPRxDescExtendedFlag <- $r1
	@DEBUG_VALUE: ETH_GetDMAPTPRxDescExtendedFlagStatus:ETH_DMAPTPRxDescExtendedFlag <- $r1
	@DEBUG_VALUE: ETH_GetDMAPTPRxDescExtendedFlagStatus:bitstatus <- 0
	.loc	3 1604 22 prologue_end  @ ../User/ETH_driver/stm32f4x7_eth.c:1604:22
	ldr	r0, [r0, #16]
.Ltmp357:
	.loc	3 1604 37 is_stmt 0     @ ../User/ETH_driver/stm32f4x7_eth.c:1604:37
	ands	r0, r1
	.loc	3 1604 69               @ ../User/ETH_driver/stm32f4x7_eth.c:1604:69
	it	ne
	movne	r0, #1
.Ltmp358:
	@DEBUG_VALUE: ETH_GetDMAPTPRxDescExtendedFlagStatus:bitstatus <- undef
	.loc	3 1612 3 is_stmt 1      @ ../User/ETH_driver/stm32f4x7_eth.c:1612:3
	bx	lr
.Ltmp359:
.Lfunc_end39:
	.size	ETH_GetDMAPTPRxDescExtendedFlagStatus, .Lfunc_end39-ETH_GetDMAPTPRxDescExtendedFlagStatus
	.cfi_endproc
	.cantunwind
	.fnend
                                        @ -- End function
	.section	.text.ETH_SetDMARxDescOwnBit,"ax",%progbits
	.hidden	ETH_SetDMARxDescOwnBit  @ -- Begin function ETH_SetDMARxDescOwnBit
	.globl	ETH_SetDMARxDescOwnBit
	.p2align	1
	.type	ETH_SetDMARxDescOwnBit,%function
	.code	16                      @ @ETH_SetDMARxDescOwnBit
	.thumb_func
ETH_SetDMARxDescOwnBit:
.Lfunc_begin40:
	.loc	3 1622 0                @ ../User/ETH_driver/stm32f4x7_eth.c:1622:0
	.fnstart
	.cfi_startproc
@ %bb.0:
	@DEBUG_VALUE: ETH_SetDMARxDescOwnBit:DMARxDesc <- $r0
	@DEBUG_VALUE: ETH_SetDMARxDescOwnBit:DMARxDesc <- $r0
	.loc	3 1624 21 prologue_end  @ ../User/ETH_driver/stm32f4x7_eth.c:1624:21
	ldr	r1, [r0]
	orr	r1, r1, #-2147483648
	str	r1, [r0]
	.loc	3 1625 1                @ ../User/ETH_driver/stm32f4x7_eth.c:1625:1
	bx	lr
.Ltmp360:
.Lfunc_end40:
	.size	ETH_SetDMARxDescOwnBit, .Lfunc_end40-ETH_SetDMARxDescOwnBit
	.cfi_endproc
	.cantunwind
	.fnend
                                        @ -- End function
	.section	.text.ETH_GetDMARxDescFrameLength,"ax",%progbits
	.hidden	ETH_GetDMARxDescFrameLength @ -- Begin function ETH_GetDMARxDescFrameLength
	.globl	ETH_GetDMARxDescFrameLength
	.p2align	1
	.type	ETH_GetDMARxDescFrameLength,%function
	.code	16                      @ @ETH_GetDMARxDescFrameLength
	.thumb_func
ETH_GetDMARxDescFrameLength:
.Lfunc_begin41:
	.loc	3 1633 0                @ ../User/ETH_driver/stm32f4x7_eth.c:1633:0
	.fnstart
	.cfi_startproc
@ %bb.0:
	@DEBUG_VALUE: ETH_GetDMARxDescFrameLength:DMARxDesc <- $r0
	@DEBUG_VALUE: ETH_GetDMARxDescFrameLength:DMARxDesc <- $r0
	.loc	3 1635 23 prologue_end  @ ../User/ETH_driver/stm32f4x7_eth.c:1635:23
	ldr	r0, [r0]
.Ltmp361:
	.loc	3 1635 50 is_stmt 0     @ ../User/ETH_driver/stm32f4x7_eth.c:1635:50
	ubfx	r0, r0, #16, #14
	.loc	3 1635 3                @ ../User/ETH_driver/stm32f4x7_eth.c:1635:3
	bx	lr
.Ltmp362:
.Lfunc_end41:
	.size	ETH_GetDMARxDescFrameLength, .Lfunc_end41-ETH_GetDMARxDescFrameLength
	.cfi_endproc
	.cantunwind
	.fnend
                                        @ -- End function
	.section	.text.ETH_DMARxDescReceiveITConfig,"ax",%progbits
	.hidden	ETH_DMARxDescReceiveITConfig @ -- Begin function ETH_DMARxDescReceiveITConfig
	.globl	ETH_DMARxDescReceiveITConfig
	.p2align	1
	.type	ETH_DMARxDescReceiveITConfig,%function
	.code	16                      @ @ETH_DMARxDescReceiveITConfig
	.thumb_func
ETH_DMARxDescReceiveITConfig:
.Lfunc_begin42:
	.loc	3 1646 0 is_stmt 1      @ ../User/ETH_driver/stm32f4x7_eth.c:1646:0
	.fnstart
	.cfi_startproc
@ %bb.0:
	@DEBUG_VALUE: ETH_DMARxDescReceiveITConfig:DMARxDesc <- $r0
	@DEBUG_VALUE: ETH_DMARxDescReceiveITConfig:DMARxDesc <- $r0
	@DEBUG_VALUE: ETH_DMARxDescReceiveITConfig:NewState <- $r1
	@DEBUG_VALUE: ETH_DMARxDescReceiveITConfig:NewState <- $r1
	.loc	3 0 0 prologue_end      @ ../User/ETH_driver/stm32f4x7_eth.c:0:0
	ldr	r2, [r0, #4]
.Ltmp363:
	.loc	3 1650 7                @ ../User/ETH_driver/stm32f4x7_eth.c:1650:7
	cmp	r1, #0
	bic	r3, r2, #-2147483648
	it	eq
	orreq	r3, r2, #-2147483648
.Ltmp364:
	.loc	3 0 0 is_stmt 0         @ ../User/ETH_driver/stm32f4x7_eth.c:0:0
	str	r3, [r0, #4]
.Ltmp365:
	.loc	3 1660 1 is_stmt 1      @ ../User/ETH_driver/stm32f4x7_eth.c:1660:1
	bx	lr
.Ltmp366:
.Lfunc_end42:
	.size	ETH_DMARxDescReceiveITConfig, .Lfunc_end42-ETH_DMARxDescReceiveITConfig
	.cfi_endproc
	.cantunwind
	.fnend
                                        @ -- End function
	.section	.text.ETH_GetDMARxDescBufferSize,"ax",%progbits
	.hidden	ETH_GetDMARxDescBufferSize @ -- Begin function ETH_GetDMARxDescBufferSize
	.globl	ETH_GetDMARxDescBufferSize
	.p2align	1
	.type	ETH_GetDMARxDescBufferSize,%function
	.code	16                      @ @ETH_GetDMARxDescBufferSize
	.thumb_func
ETH_GetDMARxDescBufferSize:
.Lfunc_begin43:
	.loc	3 1673 0                @ ../User/ETH_driver/stm32f4x7_eth.c:1673:0
	.fnstart
	.cfi_startproc
@ %bb.0:
	@DEBUG_VALUE: ETH_GetDMARxDescBufferSize:DMARxDesc <- $r0
	@DEBUG_VALUE: ETH_GetDMARxDescBufferSize:DMARxDesc <- $r0
	@DEBUG_VALUE: ETH_GetDMARxDescBufferSize:DMARxDesc_Buffer <- $r1
	@DEBUG_VALUE: ETH_GetDMARxDescBufferSize:DMARxDesc_Buffer <- $r1
	.loc	3 0 0 prologue_end      @ ../User/ETH_driver/stm32f4x7_eth.c:0:0
	ldr	r0, [r0, #4]
.Ltmp367:
	.loc	3 1677 6                @ ../User/ETH_driver/stm32f4x7_eth.c:1677:6
	cmp	r1, #0
	it	ne
	lsrne	r0, r0, #16
.Ltmp368:
	.loc	3 0 0 is_stmt 0         @ ../User/ETH_driver/stm32f4x7_eth.c:0:0
	bfc	r0, #13, #19
.Ltmp369:
	.loc	3 1687 1 is_stmt 1      @ ../User/ETH_driver/stm32f4x7_eth.c:1687:1
	bx	lr
.Ltmp370:
.Lfunc_end43:
	.size	ETH_GetDMARxDescBufferSize, .Lfunc_end43-ETH_GetDMARxDescBufferSize
	.cfi_endproc
	.cantunwind
	.fnend
                                        @ -- End function
	.section	.text.ETH_GetRxPktSize,"ax",%progbits
	.hidden	ETH_GetRxPktSize        @ -- Begin function ETH_GetRxPktSize
	.globl	ETH_GetRxPktSize
	.p2align	1
	.type	ETH_GetRxPktSize,%function
	.code	16                      @ @ETH_GetRxPktSize
	.thumb_func
ETH_GetRxPktSize:
.Lfunc_begin44:
	.loc	3 1696 0                @ ../User/ETH_driver/stm32f4x7_eth.c:1696:0
	.fnstart
	.cfi_startproc
@ %bb.0:
	@DEBUG_VALUE: ETH_GetRxPktSize:DMARxDesc <- $r0
	@DEBUG_VALUE: ETH_GetRxPktSize:DMARxDesc <- $r0
	@DEBUG_VALUE: ETH_GetRxPktSize:frameLength <- 0
	.loc	3 1698 19 prologue_end  @ ../User/ETH_driver/stm32f4x7_eth.c:1698:19
	ldr	r1, [r0]
	.loc	3 1698 67 is_stmt 0     @ ../User/ETH_driver/stm32f4x7_eth.c:1698:67
	cmp	r1, #0
	blt	.LBB44_3
.Ltmp371:
@ %bb.1:
	@DEBUG_VALUE: ETH_GetRxPktSize:DMARxDesc <- $r0
	.loc	3 1699 19 is_stmt 1     @ ../User/ETH_driver/stm32f4x7_eth.c:1699:19
	ldr	r1, [r0]
	.loc	3 1699 66 is_stmt 0     @ ../User/ETH_driver/stm32f4x7_eth.c:1699:66
	lsls	r1, r1, #16
	bmi	.LBB44_3
.Ltmp372:
@ %bb.2:
	@DEBUG_VALUE: ETH_GetRxPktSize:DMARxDesc <- $r0
	.loc	3 1700 19 is_stmt 1     @ ../User/ETH_driver/stm32f4x7_eth.c:1700:19
	ldr	r1, [r0]
.Ltmp373:
	.loc	3 1698 6                @ ../User/ETH_driver/stm32f4x7_eth.c:1698:6
	lsls	r1, r1, #23
.Ltmp374:
	.loc	3 1635 23               @ ../User/ETH_driver/stm32f4x7_eth.c:1635:23
	ittt	mi
	ldrmi	r0, [r0]
.Ltmp375:
	.loc	3 1635 50 is_stmt 0     @ ../User/ETH_driver/stm32f4x7_eth.c:1635:50
	ubfxmi	r0, r0, #16, #14
.Ltmp376:
	@DEBUG_VALUE: ETH_GetRxPktSize:frameLength <- $r0
	@DEBUG_VALUE: ETH_GetRxPktSize:frameLength <- $r0
	.loc	3 1707 3 is_stmt 1      @ ../User/ETH_driver/stm32f4x7_eth.c:1707:3
	bxmi	lr
.Ltmp377:
.LBB44_3:
	.loc	3 0 3 is_stmt 0         @ ../User/ETH_driver/stm32f4x7_eth.c:0:3
	movs	r0, #0
.Ltmp378:
	@DEBUG_VALUE: ETH_GetRxPktSize:frameLength <- $r0
	.loc	3 1707 3                @ ../User/ETH_driver/stm32f4x7_eth.c:1707:3
	bx	lr
.Ltmp379:
.Lfunc_end44:
	.size	ETH_GetRxPktSize, .Lfunc_end44-ETH_GetRxPktSize
	.cfi_endproc
	.cantunwind
	.fnend
                                        @ -- End function
	.section	.text.ETH_EnhancedDescriptorCmd,"ax",%progbits
	.hidden	ETH_EnhancedDescriptorCmd @ -- Begin function ETH_EnhancedDescriptorCmd
	.globl	ETH_EnhancedDescriptorCmd
	.p2align	1
	.type	ETH_EnhancedDescriptorCmd,%function
	.code	16                      @ @ETH_EnhancedDescriptorCmd
	.thumb_func
ETH_EnhancedDescriptorCmd:
.Lfunc_begin45:
	.loc	3 1718 0 is_stmt 1      @ ../User/ETH_driver/stm32f4x7_eth.c:1718:0
	.fnstart
	.cfi_startproc
@ %bb.0:
	@DEBUG_VALUE: ETH_EnhancedDescriptorCmd:NewState <- $r0
	movw	r1, #36864
.Ltmp380:
	.loc	3 1722 7 prologue_end   @ ../User/ETH_driver/stm32f4x7_eth.c:1722:7
	cmp	r0, #0
	movt	r1, #16386
	@DEBUG_VALUE: ETH_EnhancedDescriptorCmd:NewState <- $r0
.Ltmp381:
	.loc	3 0 0 is_stmt 0         @ ../User/ETH_driver/stm32f4x7_eth.c:0:0
	ldr	r2, [r1]
.Ltmp382:
	.loc	3 1722 7                @ ../User/ETH_driver/stm32f4x7_eth.c:1722:7
	orr	r3, r2, #128
	it	eq
	biceq	r3, r2, #128
.Ltmp383:
	.loc	3 0 0                   @ ../User/ETH_driver/stm32f4x7_eth.c:0:0
	str	r3, [r1]
.Ltmp384:
	.loc	3 1732 1 is_stmt 1      @ ../User/ETH_driver/stm32f4x7_eth.c:1732:1
	bx	lr
.Ltmp385:
.Lfunc_end45:
	.size	ETH_EnhancedDescriptorCmd, .Lfunc_end45-ETH_EnhancedDescriptorCmd
	.cfi_endproc
	.cantunwind
	.fnend
                                        @ -- End function
	.section	.text.ETH_SoftwareReset,"ax",%progbits
	.hidden	ETH_SoftwareReset       @ -- Begin function ETH_SoftwareReset
	.globl	ETH_SoftwareReset
	.p2align	1
	.type	ETH_SoftwareReset,%function
	.code	16                      @ @ETH_SoftwareReset
	.thumb_func
ETH_SoftwareReset:
.Lfunc_begin46:
	.loc	3 1744 0                @ ../User/ETH_driver/stm32f4x7_eth.c:1744:0
	.fnstart
	.cfi_startproc
@ %bb.0:
	movw	r0, #36864
	movt	r0, #16386
.Ltmp386:
	.loc	3 1747 15 prologue_end  @ ../User/ETH_driver/stm32f4x7_eth.c:1747:15
	ldr	r1, [r0]
	orr	r1, r1, #1
	str	r1, [r0]
	.loc	3 1748 1                @ ../User/ETH_driver/stm32f4x7_eth.c:1748:1
	bx	lr
.Ltmp387:
.Lfunc_end46:
	.size	ETH_SoftwareReset, .Lfunc_end46-ETH_SoftwareReset
	.cfi_endproc
	.cantunwind
	.fnend
                                        @ -- End function
	.section	.text.ETH_GetSoftwareResetStatus,"ax",%progbits
	.hidden	ETH_GetSoftwareResetStatus @ -- Begin function ETH_GetSoftwareResetStatus
	.globl	ETH_GetSoftwareResetStatus
	.p2align	1
	.type	ETH_GetSoftwareResetStatus,%function
	.code	16                      @ @ETH_GetSoftwareResetStatus
	.thumb_func
ETH_GetSoftwareResetStatus:
.Lfunc_begin47:
	.loc	3 1756 0                @ ../User/ETH_driver/stm32f4x7_eth.c:1756:0
	.fnstart
	.cfi_startproc
@ %bb.0:
	movw	r0, #36864
	movt	r0, #16386
.Ltmp388:
	@DEBUG_VALUE: ETH_GetSoftwareResetStatus:bitstatus <- 0
	.loc	3 1758 12 prologue_end  @ ../User/ETH_driver/stm32f4x7_eth.c:1758:12
	ldr	r0, [r0]
.Ltmp389:
	@DEBUG_VALUE: ETH_GetSoftwareResetStatus:bitstatus <- undef
	.loc	3 1766 3                @ ../User/ETH_driver/stm32f4x7_eth.c:1766:3
	and	r0, r0, #1
	bx	lr
.Ltmp390:
.Lfunc_end47:
	.size	ETH_GetSoftwareResetStatus, .Lfunc_end47-ETH_GetSoftwareResetStatus
	.cfi_endproc
	.cantunwind
	.fnend
                                        @ -- End function
	.section	.text.ETH_GetDMAFlagStatus,"ax",%progbits
	.hidden	ETH_GetDMAFlagStatus    @ -- Begin function ETH_GetDMAFlagStatus
	.globl	ETH_GetDMAFlagStatus
	.p2align	1
	.type	ETH_GetDMAFlagStatus,%function
	.code	16                      @ @ETH_GetDMAFlagStatus
	.thumb_func
ETH_GetDMAFlagStatus:
.Lfunc_begin48:
	.loc	3 1797 0                @ ../User/ETH_driver/stm32f4x7_eth.c:1797:0
	.fnstart
	.cfi_startproc
@ %bb.0:
	@DEBUG_VALUE: ETH_GetDMAFlagStatus:ETH_DMA_FLAG <- $r0
	movw	r1, #36884
	movt	r1, #16386
.Ltmp391:
	@DEBUG_VALUE: ETH_GetDMAFlagStatus:bitstatus <- 0
	@DEBUG_VALUE: ETH_GetDMAFlagStatus:ETH_DMA_FLAG <- $r0
	.loc	3 1801 13 prologue_end  @ ../User/ETH_driver/stm32f4x7_eth.c:1801:13
	ldr	r1, [r1]
	.loc	3 1801 19 is_stmt 0     @ ../User/ETH_driver/stm32f4x7_eth.c:1801:19
	ands	r0, r1
.Ltmp392:
	.loc	3 1801 35               @ ../User/ETH_driver/stm32f4x7_eth.c:1801:35
	it	ne
	movne	r0, #1
.Ltmp393:
	@DEBUG_VALUE: ETH_GetDMAFlagStatus:bitstatus <- undef
	.loc	3 1809 3 is_stmt 1      @ ../User/ETH_driver/stm32f4x7_eth.c:1809:3
	bx	lr
.Ltmp394:
.Lfunc_end48:
	.size	ETH_GetDMAFlagStatus, .Lfunc_end48-ETH_GetDMAFlagStatus
	.cfi_endproc
	.cantunwind
	.fnend
                                        @ -- End function
	.section	.text.ETH_DMAClearFlag,"ax",%progbits
	.hidden	ETH_DMAClearFlag        @ -- Begin function ETH_DMAClearFlag
	.globl	ETH_DMAClearFlag
	.p2align	1
	.type	ETH_DMAClearFlag,%function
	.code	16                      @ @ETH_DMAClearFlag
	.thumb_func
ETH_DMAClearFlag:
.Lfunc_begin49:
	.loc	3 1834 0                @ ../User/ETH_driver/stm32f4x7_eth.c:1834:0
	.fnstart
	.cfi_startproc
@ %bb.0:
	@DEBUG_VALUE: ETH_DMAClearFlag:ETH_DMA_FLAG <- $r0
	movw	r1, #36884
	movt	r1, #16386
	@DEBUG_VALUE: ETH_DMAClearFlag:ETH_DMA_FLAG <- $r0
.Ltmp395:
	.loc	3 1839 14 prologue_end  @ ../User/ETH_driver/stm32f4x7_eth.c:1839:14
	str	r0, [r1]
	.loc	3 1840 1                @ ../User/ETH_driver/stm32f4x7_eth.c:1840:1
	bx	lr
.Ltmp396:
.Lfunc_end49:
	.size	ETH_DMAClearFlag, .Lfunc_end49-ETH_DMAClearFlag
	.cfi_endproc
	.cantunwind
	.fnend
                                        @ -- End function
	.section	.text.ETH_DMAITConfig,"ax",%progbits
	.hidden	ETH_DMAITConfig         @ -- Begin function ETH_DMAITConfig
	.globl	ETH_DMAITConfig
	.p2align	1
	.type	ETH_DMAITConfig,%function
	.code	16                      @ @ETH_DMAITConfig
	.thumb_func
ETH_DMAITConfig:
.Lfunc_begin50:
	.loc	3 1867 0                @ ../User/ETH_driver/stm32f4x7_eth.c:1867:0
	.fnstart
	.cfi_startproc
@ %bb.0:
	@DEBUG_VALUE: ETH_DMAITConfig:ETH_DMA_IT <- $r0
	@DEBUG_VALUE: ETH_DMAITConfig:NewState <- $r1
	movw	r2, #36892
.Ltmp397:
	.loc	3 1872 7 prologue_end   @ ../User/ETH_driver/stm32f4x7_eth.c:1872:7
	cmp	r1, #0
	movt	r2, #16386
	@DEBUG_VALUE: ETH_DMAITConfig:NewState <- $r1
	@DEBUG_VALUE: ETH_DMAITConfig:ETH_DMA_IT <- $r0
.Ltmp398:
	.loc	3 1880 17               @ ../User/ETH_driver/stm32f4x7_eth.c:1880:17
	ldr	r1, [r2]
.Ltmp399:
	ite	eq
	biceq.w	r0, r1, r0
.Ltmp400:
	.loc	3 1875 17               @ ../User/ETH_driver/stm32f4x7_eth.c:1875:17
	orrne	r0, r1
.Ltmp401:
	.loc	3 0 0 is_stmt 0         @ ../User/ETH_driver/stm32f4x7_eth.c:0:0
	str	r0, [r2]
.Ltmp402:
	.loc	3 1882 1 is_stmt 1      @ ../User/ETH_driver/stm32f4x7_eth.c:1882:1
	bx	lr
.Ltmp403:
.Lfunc_end50:
	.size	ETH_DMAITConfig, .Lfunc_end50-ETH_DMAITConfig
	.cfi_endproc
	.cantunwind
	.fnend
                                        @ -- End function
	.section	.text.ETH_GetDMAITStatus,"ax",%progbits
	.hidden	ETH_GetDMAITStatus      @ -- Begin function ETH_GetDMAITStatus
	.globl	ETH_GetDMAITStatus
	.p2align	1
	.type	ETH_GetDMAITStatus,%function
	.code	16                      @ @ETH_GetDMAITStatus
	.thumb_func
ETH_GetDMAITStatus:
.Lfunc_begin51:
	.loc	3 1909 0                @ ../User/ETH_driver/stm32f4x7_eth.c:1909:0
	.fnstart
	.cfi_startproc
@ %bb.0:
	@DEBUG_VALUE: ETH_GetDMAITStatus:ETH_DMA_IT <- $r0
	movw	r1, #36884
	movt	r1, #16386
.Ltmp404:
	@DEBUG_VALUE: ETH_GetDMAITStatus:bitstatus <- 0
	@DEBUG_VALUE: ETH_GetDMAITStatus:ETH_DMA_IT <- $r0
	.loc	3 1913 13 prologue_end  @ ../User/ETH_driver/stm32f4x7_eth.c:1913:13
	ldr	r1, [r1]
	.loc	3 1913 19 is_stmt 0     @ ../User/ETH_driver/stm32f4x7_eth.c:1913:19
	ands	r0, r1
.Ltmp405:
	.loc	3 1913 33               @ ../User/ETH_driver/stm32f4x7_eth.c:1913:33
	it	ne
	movne	r0, #1
.Ltmp406:
	@DEBUG_VALUE: ETH_GetDMAITStatus:bitstatus <- undef
	.loc	3 1921 3 is_stmt 1      @ ../User/ETH_driver/stm32f4x7_eth.c:1921:3
	bx	lr
.Ltmp407:
.Lfunc_end51:
	.size	ETH_GetDMAITStatus, .Lfunc_end51-ETH_GetDMAITStatus
	.cfi_endproc
	.cantunwind
	.fnend
                                        @ -- End function
	.section	.text.ETH_DMAClearITPendingBit,"ax",%progbits
	.hidden	ETH_DMAClearITPendingBit @ -- Begin function ETH_DMAClearITPendingBit
	.globl	ETH_DMAClearITPendingBit
	.p2align	1
	.type	ETH_DMAClearITPendingBit,%function
	.code	16                      @ @ETH_DMAClearITPendingBit
	.thumb_func
ETH_DMAClearITPendingBit:
.Lfunc_begin52:
	.loc	3 1946 0                @ ../User/ETH_driver/stm32f4x7_eth.c:1946:0
	.fnstart
	.cfi_startproc
@ %bb.0:
	@DEBUG_VALUE: ETH_DMAClearITPendingBit:ETH_DMA_IT <- $r0
	movw	r1, #36884
	movt	r1, #16386
	@DEBUG_VALUE: ETH_DMAClearITPendingBit:ETH_DMA_IT <- $r0
.Ltmp408:
	.loc	3 1951 14 prologue_end  @ ../User/ETH_driver/stm32f4x7_eth.c:1951:14
	str	r0, [r1]
	.loc	3 1952 1                @ ../User/ETH_driver/stm32f4x7_eth.c:1952:1
	bx	lr
.Ltmp409:
.Lfunc_end52:
	.size	ETH_DMAClearITPendingBit, .Lfunc_end52-ETH_DMAClearITPendingBit
	.cfi_endproc
	.cantunwind
	.fnend
                                        @ -- End function
	.section	.text.ETH_GetTransmitProcessState,"ax",%progbits
	.hidden	ETH_GetTransmitProcessState @ -- Begin function ETH_GetTransmitProcessState
	.globl	ETH_GetTransmitProcessState
	.p2align	1
	.type	ETH_GetTransmitProcessState,%function
	.code	16                      @ @ETH_GetTransmitProcessState
	.thumb_func
ETH_GetTransmitProcessState:
.Lfunc_begin53:
	.loc	3 1967 0                @ ../User/ETH_driver/stm32f4x7_eth.c:1967:0
	.fnstart
	.cfi_startproc
@ %bb.0:
	movw	r0, #36884
	movt	r0, #16386
.Ltmp410:
	.loc	3 1968 27 prologue_end  @ ../User/ETH_driver/stm32f4x7_eth.c:1968:27
	ldr	r0, [r0]
	.loc	3 1968 33 is_stmt 0     @ ../User/ETH_driver/stm32f4x7_eth.c:1968:33
	and	r0, r0, #1
	.loc	3 1968 3                @ ../User/ETH_driver/stm32f4x7_eth.c:1968:3
	bx	lr
.Ltmp411:
.Lfunc_end53:
	.size	ETH_GetTransmitProcessState, .Lfunc_end53-ETH_GetTransmitProcessState
	.cfi_endproc
	.cantunwind
	.fnend
                                        @ -- End function
	.section	.text.ETH_GetReceiveProcessState,"ax",%progbits
	.hidden	ETH_GetReceiveProcessState @ -- Begin function ETH_GetReceiveProcessState
	.globl	ETH_GetReceiveProcessState
	.p2align	1
	.type	ETH_GetReceiveProcessState,%function
	.code	16                      @ @ETH_GetReceiveProcessState
	.thumb_func
ETH_GetReceiveProcessState:
.Lfunc_begin54:
	.loc	3 1984 0 is_stmt 1      @ ../User/ETH_driver/stm32f4x7_eth.c:1984:0
	.fnstart
	.cfi_startproc
@ %bb.0:
	movw	r0, #36884
	movt	r0, #16386
.Ltmp412:
	.loc	3 1985 27 prologue_end  @ ../User/ETH_driver/stm32f4x7_eth.c:1985:27
	ldr	r0, [r0]
	.loc	3 1985 33 is_stmt 0     @ ../User/ETH_driver/stm32f4x7_eth.c:1985:33
	and	r0, r0, #64
	.loc	3 1985 3                @ ../User/ETH_driver/stm32f4x7_eth.c:1985:3
	bx	lr
.Ltmp413:
.Lfunc_end54:
	.size	ETH_GetReceiveProcessState, .Lfunc_end54-ETH_GetReceiveProcessState
	.cfi_endproc
	.cantunwind
	.fnend
                                        @ -- End function
	.section	.text.ETH_GetFlushTransmitFIFOStatus,"ax",%progbits
	.hidden	ETH_GetFlushTransmitFIFOStatus @ -- Begin function ETH_GetFlushTransmitFIFOStatus
	.globl	ETH_GetFlushTransmitFIFOStatus
	.p2align	1
	.type	ETH_GetFlushTransmitFIFOStatus,%function
	.code	16                      @ @ETH_GetFlushTransmitFIFOStatus
	.thumb_func
ETH_GetFlushTransmitFIFOStatus:
.Lfunc_begin55:
	.loc	3 2005 0 is_stmt 1      @ ../User/ETH_driver/stm32f4x7_eth.c:2005:0
	.fnstart
	.cfi_startproc
@ %bb.0:
	movw	r0, #36888
	movt	r0, #16386
.Ltmp414:
	@DEBUG_VALUE: ETH_GetFlushTransmitFIFOStatus:bitstatus <- 0
	.loc	3 2007 13 prologue_end  @ ../User/ETH_driver/stm32f4x7_eth.c:2007:13
	ldr	r0, [r0]
.Ltmp415:
	@DEBUG_VALUE: ETH_GetFlushTransmitFIFOStatus:bitstatus <- undef
	.loc	3 2015 3                @ ../User/ETH_driver/stm32f4x7_eth.c:2015:3
	ubfx	r0, r0, #20, #1
	bx	lr
.Ltmp416:
.Lfunc_end55:
	.size	ETH_GetFlushTransmitFIFOStatus, .Lfunc_end55-ETH_GetFlushTransmitFIFOStatus
	.cfi_endproc
	.cantunwind
	.fnend
                                        @ -- End function
	.section	.text.ETH_GetDMAOverflowStatus,"ax",%progbits
	.hidden	ETH_GetDMAOverflowStatus @ -- Begin function ETH_GetDMAOverflowStatus
	.globl	ETH_GetDMAOverflowStatus
	.p2align	1
	.type	ETH_GetDMAOverflowStatus,%function
	.code	16                      @ @ETH_GetDMAOverflowStatus
	.thumb_func
ETH_GetDMAOverflowStatus:
.Lfunc_begin56:
	.loc	3 2073 0                @ ../User/ETH_driver/stm32f4x7_eth.c:2073:0
	.fnstart
	.cfi_startproc
@ %bb.0:
	@DEBUG_VALUE: ETH_GetDMAOverflowStatus:ETH_DMA_Overflow <- $r0
	movw	r1, #36896
	movt	r1, #16386
.Ltmp417:
	@DEBUG_VALUE: ETH_GetDMAOverflowStatus:bitstatus <- 0
	@DEBUG_VALUE: ETH_GetDMAOverflowStatus:ETH_DMA_Overflow <- $r0
	.loc	3 2078 13 prologue_end  @ ../User/ETH_driver/stm32f4x7_eth.c:2078:13
	ldr	r1, [r1]
	.loc	3 2078 23 is_stmt 0     @ ../User/ETH_driver/stm32f4x7_eth.c:2078:23
	ands	r0, r1
.Ltmp418:
	.loc	3 2078 43               @ ../User/ETH_driver/stm32f4x7_eth.c:2078:43
	it	ne
	movne	r0, #1
.Ltmp419:
	@DEBUG_VALUE: ETH_GetDMAOverflowStatus:bitstatus <- undef
	.loc	3 2086 3 is_stmt 1      @ ../User/ETH_driver/stm32f4x7_eth.c:2086:3
	bx	lr
.Ltmp420:
.Lfunc_end56:
	.size	ETH_GetDMAOverflowStatus, .Lfunc_end56-ETH_GetDMAOverflowStatus
	.cfi_endproc
	.cantunwind
	.fnend
                                        @ -- End function
	.section	.text.ETH_GetRxOverflowMissedFrameCounter,"ax",%progbits
	.hidden	ETH_GetRxOverflowMissedFrameCounter @ -- Begin function ETH_GetRxOverflowMissedFrameCounter
	.globl	ETH_GetRxOverflowMissedFrameCounter
	.p2align	1
	.type	ETH_GetRxOverflowMissedFrameCounter,%function
	.code	16                      @ @ETH_GetRxOverflowMissedFrameCounter
	.thumb_func
ETH_GetRxOverflowMissedFrameCounter:
.Lfunc_begin57:
	.loc	3 2095 0                @ ../User/ETH_driver/stm32f4x7_eth.c:2095:0
	.fnstart
	.cfi_startproc
@ %bb.0:
	movw	r0, #36896
	movt	r0, #16386
.Ltmp421:
	.loc	3 2096 28 prologue_end  @ ../User/ETH_driver/stm32f4x7_eth.c:2096:28
	ldr	r0, [r0]
	.loc	3 2096 58 is_stmt 0     @ ../User/ETH_driver/stm32f4x7_eth.c:2096:58
	ubfx	r0, r0, #17, #11
	.loc	3 2096 3                @ ../User/ETH_driver/stm32f4x7_eth.c:2096:3
	bx	lr
.Ltmp422:
.Lfunc_end57:
	.size	ETH_GetRxOverflowMissedFrameCounter, .Lfunc_end57-ETH_GetRxOverflowMissedFrameCounter
	.cfi_endproc
	.cantunwind
	.fnend
                                        @ -- End function
	.section	.text.ETH_GetBufferUnavailableMissedFrameCounter,"ax",%progbits
	.hidden	ETH_GetBufferUnavailableMissedFrameCounter @ -- Begin function ETH_GetBufferUnavailableMissedFrameCounter
	.globl	ETH_GetBufferUnavailableMissedFrameCounter
	.p2align	1
	.type	ETH_GetBufferUnavailableMissedFrameCounter,%function
	.code	16                      @ @ETH_GetBufferUnavailableMissedFrameCounter
	.thumb_func
ETH_GetBufferUnavailableMissedFrameCounter:
.Lfunc_begin58:
	.loc	3 2105 0 is_stmt 1      @ ../User/ETH_driver/stm32f4x7_eth.c:2105:0
	.fnstart
	.cfi_startproc
@ %bb.0:
	movw	r0, #36896
	movt	r0, #16386
.Ltmp423:
	.loc	3 2106 27 prologue_end  @ ../User/ETH_driver/stm32f4x7_eth.c:2106:27
	ldr	r0, [r0]
	.loc	3 2106 38 is_stmt 0     @ ../User/ETH_driver/stm32f4x7_eth.c:2106:38
	uxth	r0, r0
	.loc	3 2106 3                @ ../User/ETH_driver/stm32f4x7_eth.c:2106:3
	bx	lr
.Ltmp424:
.Lfunc_end58:
	.size	ETH_GetBufferUnavailableMissedFrameCounter, .Lfunc_end58-ETH_GetBufferUnavailableMissedFrameCounter
	.cfi_endproc
	.cantunwind
	.fnend
                                        @ -- End function
	.section	.text.ETH_GetCurrentTxDescStartAddress,"ax",%progbits
	.hidden	ETH_GetCurrentTxDescStartAddress @ -- Begin function ETH_GetCurrentTxDescStartAddress
	.globl	ETH_GetCurrentTxDescStartAddress
	.p2align	1
	.type	ETH_GetCurrentTxDescStartAddress,%function
	.code	16                      @ @ETH_GetCurrentTxDescStartAddress
	.thumb_func
ETH_GetCurrentTxDescStartAddress:
.Lfunc_begin59:
	.loc	3 2115 0 is_stmt 1      @ ../User/ETH_driver/stm32f4x7_eth.c:2115:0
	.fnstart
	.cfi_startproc
@ %bb.0:
	movw	r0, #36936
	movt	r0, #16386
.Ltmp425:
	.loc	3 2116 27 prologue_end  @ ../User/ETH_driver/stm32f4x7_eth.c:2116:27
	ldr	r0, [r0]
	.loc	3 2116 3 is_stmt 0      @ ../User/ETH_driver/stm32f4x7_eth.c:2116:3
	bx	lr
.Ltmp426:
.Lfunc_end59:
	.size	ETH_GetCurrentTxDescStartAddress, .Lfunc_end59-ETH_GetCurrentTxDescStartAddress
	.cfi_endproc
	.cantunwind
	.fnend
                                        @ -- End function
	.section	.text.ETH_GetCurrentRxDescStartAddress,"ax",%progbits
	.hidden	ETH_GetCurrentRxDescStartAddress @ -- Begin function ETH_GetCurrentRxDescStartAddress
	.globl	ETH_GetCurrentRxDescStartAddress
	.p2align	1
	.type	ETH_GetCurrentRxDescStartAddress,%function
	.code	16                      @ @ETH_GetCurrentRxDescStartAddress
	.thumb_func
ETH_GetCurrentRxDescStartAddress:
.Lfunc_begin60:
	.loc	3 2125 0 is_stmt 1      @ ../User/ETH_driver/stm32f4x7_eth.c:2125:0
	.fnstart
	.cfi_startproc
@ %bb.0:
	movw	r0, #36940
	movt	r0, #16386
.Ltmp427:
	.loc	3 2126 27 prologue_end  @ ../User/ETH_driver/stm32f4x7_eth.c:2126:27
	ldr	r0, [r0]
	.loc	3 2126 3 is_stmt 0      @ ../User/ETH_driver/stm32f4x7_eth.c:2126:3
	bx	lr
.Ltmp428:
.Lfunc_end60:
	.size	ETH_GetCurrentRxDescStartAddress, .Lfunc_end60-ETH_GetCurrentRxDescStartAddress
	.cfi_endproc
	.cantunwind
	.fnend
                                        @ -- End function
	.section	.text.ETH_GetCurrentTxBufferAddress,"ax",%progbits
	.hidden	ETH_GetCurrentTxBufferAddress @ -- Begin function ETH_GetCurrentTxBufferAddress
	.globl	ETH_GetCurrentTxBufferAddress
	.p2align	1
	.type	ETH_GetCurrentTxBufferAddress,%function
	.code	16                      @ @ETH_GetCurrentTxBufferAddress
	.thumb_func
ETH_GetCurrentTxBufferAddress:
.Lfunc_begin61:
	.loc	3 2135 0 is_stmt 1      @ ../User/ETH_driver/stm32f4x7_eth.c:2135:0
	.fnstart
	.cfi_startproc
@ %bb.0:
	movw	r0, #36944
	movt	r0, #16386
.Ltmp429:
	.loc	3 2136 27 prologue_end  @ ../User/ETH_driver/stm32f4x7_eth.c:2136:27
	ldr	r0, [r0]
	.loc	3 2136 3 is_stmt 0      @ ../User/ETH_driver/stm32f4x7_eth.c:2136:3
	bx	lr
.Ltmp430:
.Lfunc_end61:
	.size	ETH_GetCurrentTxBufferAddress, .Lfunc_end61-ETH_GetCurrentTxBufferAddress
	.cfi_endproc
	.cantunwind
	.fnend
                                        @ -- End function
	.section	.text.ETH_GetCurrentRxBufferAddress,"ax",%progbits
	.hidden	ETH_GetCurrentRxBufferAddress @ -- Begin function ETH_GetCurrentRxBufferAddress
	.globl	ETH_GetCurrentRxBufferAddress
	.p2align	1
	.type	ETH_GetCurrentRxBufferAddress,%function
	.code	16                      @ @ETH_GetCurrentRxBufferAddress
	.thumb_func
ETH_GetCurrentRxBufferAddress:
.Lfunc_begin62:
	.loc	3 2145 0 is_stmt 1      @ ../User/ETH_driver/stm32f4x7_eth.c:2145:0
	.fnstart
	.cfi_startproc
@ %bb.0:
	movw	r0, #36948
	movt	r0, #16386
.Ltmp431:
	.loc	3 2146 27 prologue_end  @ ../User/ETH_driver/stm32f4x7_eth.c:2146:27
	ldr	r0, [r0]
	.loc	3 2146 3 is_stmt 0      @ ../User/ETH_driver/stm32f4x7_eth.c:2146:3
	bx	lr
.Ltmp432:
.Lfunc_end62:
	.size	ETH_GetCurrentRxBufferAddress, .Lfunc_end62-ETH_GetCurrentRxBufferAddress
	.cfi_endproc
	.cantunwind
	.fnend
                                        @ -- End function
	.section	.text.ETH_ResumeDMATransmission,"ax",%progbits
	.hidden	ETH_ResumeDMATransmission @ -- Begin function ETH_ResumeDMATransmission
	.globl	ETH_ResumeDMATransmission
	.p2align	1
	.type	ETH_ResumeDMATransmission,%function
	.code	16                      @ @ETH_ResumeDMATransmission
	.thumb_func
ETH_ResumeDMATransmission:
.Lfunc_begin63:
	.loc	3 2156 0 is_stmt 1      @ ../User/ETH_driver/stm32f4x7_eth.c:2156:0
	.fnstart
	.cfi_startproc
@ %bb.0:
	movw	r0, #36868
	movs	r1, #0
	movt	r0, #16386
.Ltmp433:
	.loc	3 2157 16 prologue_end  @ ../User/ETH_driver/stm32f4x7_eth.c:2157:16
	str	r1, [r0]
	.loc	3 2158 1                @ ../User/ETH_driver/stm32f4x7_eth.c:2158:1
	bx	lr
.Ltmp434:
.Lfunc_end63:
	.size	ETH_ResumeDMATransmission, .Lfunc_end63-ETH_ResumeDMATransmission
	.cfi_endproc
	.cantunwind
	.fnend
                                        @ -- End function
	.section	.text.ETH_ResumeDMAReception,"ax",%progbits
	.hidden	ETH_ResumeDMAReception  @ -- Begin function ETH_ResumeDMAReception
	.globl	ETH_ResumeDMAReception
	.p2align	1
	.type	ETH_ResumeDMAReception,%function
	.code	16                      @ @ETH_ResumeDMAReception
	.thumb_func
ETH_ResumeDMAReception:
.Lfunc_begin64:
	.loc	3 2167 0                @ ../User/ETH_driver/stm32f4x7_eth.c:2167:0
	.fnstart
	.cfi_startproc
@ %bb.0:
	movw	r0, #36872
	movs	r1, #0
	movt	r0, #16386
.Ltmp435:
	.loc	3 2168 16 prologue_end  @ ../User/ETH_driver/stm32f4x7_eth.c:2168:16
	str	r1, [r0]
	.loc	3 2169 1                @ ../User/ETH_driver/stm32f4x7_eth.c:2169:1
	bx	lr
.Ltmp436:
.Lfunc_end64:
	.size	ETH_ResumeDMAReception, .Lfunc_end64-ETH_ResumeDMAReception
	.cfi_endproc
	.cantunwind
	.fnend
                                        @ -- End function
	.section	.text.ETH_SetReceiveWatchdogTimer,"ax",%progbits
	.hidden	ETH_SetReceiveWatchdogTimer @ -- Begin function ETH_SetReceiveWatchdogTimer
	.globl	ETH_SetReceiveWatchdogTimer
	.p2align	1
	.type	ETH_SetReceiveWatchdogTimer,%function
	.code	16                      @ @ETH_SetReceiveWatchdogTimer
	.thumb_func
ETH_SetReceiveWatchdogTimer:
.Lfunc_begin65:
	.loc	3 2177 0                @ ../User/ETH_driver/stm32f4x7_eth.c:2177:0
	.fnstart
	.cfi_startproc
@ %bb.0:
	@DEBUG_VALUE: ETH_SetReceiveWatchdogTimer:Value <- $r0
	movw	r1, #36900
	movt	r1, #16386
	@DEBUG_VALUE: ETH_SetReceiveWatchdogTimer:Value <- $r0
.Ltmp437:
	.loc	3 2179 17 prologue_end  @ ../User/ETH_driver/stm32f4x7_eth.c:2179:17
	str	r0, [r1]
	.loc	3 2180 1                @ ../User/ETH_driver/stm32f4x7_eth.c:2180:1
	bx	lr
.Ltmp438:
.Lfunc_end65:
	.size	ETH_SetReceiveWatchdogTimer, .Lfunc_end65-ETH_SetReceiveWatchdogTimer
	.cfi_endproc
	.cantunwind
	.fnend
                                        @ -- End function
	.section	.text.ETH_PHYLoopBackCmd,"ax",%progbits
	.hidden	ETH_PHYLoopBackCmd      @ -- Begin function ETH_PHYLoopBackCmd
	.globl	ETH_PHYLoopBackCmd
	.p2align	1
	.type	ETH_PHYLoopBackCmd,%function
	.code	16                      @ @ETH_PHYLoopBackCmd
	.thumb_func
ETH_PHYLoopBackCmd:
.Lfunc_begin66:
	.loc	3 2294 0                @ ../User/ETH_driver/stm32f4x7_eth.c:2294:0
	.fnstart
	.cfi_startproc
@ %bb.0:
	.save	{r4, r5, r7, lr}
	push	{r4, r5, r7, lr}
	.cfi_def_cfa_offset 16
	.cfi_offset lr, -4
	.cfi_offset r7, -8
	.cfi_offset r5, -12
	.cfi_offset r4, -16
	@DEBUG_VALUE: ETH_PHYLoopBackCmd:PHYAddress <- $r0
	@DEBUG_VALUE: ETH_PHYLoopBackCmd:NewState <- $r1
	mov	r4, r1
.Ltmp439:
	.loc	3 2301 12 prologue_end  @ ../User/ETH_driver/stm32f4x7_eth.c:2301:12
	movs	r1, #0
.Ltmp440:
	.loc	3 0 12 is_stmt 0        @ ../User/ETH_driver/stm32f4x7_eth.c:0:12
	mov	r5, r0
.Ltmp441:
	@DEBUG_VALUE: ETH_PHYLoopBackCmd:tmpreg <- 0
	@DEBUG_VALUE: ETH_PHYLoopBackCmd:NewState <- $r4
	@DEBUG_VALUE: ETH_PHYLoopBackCmd:PHYAddress <- $r5
	.loc	3 2301 12               @ ../User/ETH_driver/stm32f4x7_eth.c:2301:12
	bl	ETH_ReadPHYRegister
.Ltmp442:
	@DEBUG_VALUE: ETH_PHYLoopBackCmd:tmpreg <- $r0
	.loc	3 2303 7 is_stmt 1      @ ../User/ETH_driver/stm32f4x7_eth.c:2303:7
	orr	r2, r0, #16384
	cmp	r4, #0
.Ltmp443:
	.loc	3 2314 6                @ ../User/ETH_driver/stm32f4x7_eth.c:2314:6
	mov.w	r1, #0
.Ltmp444:
	.loc	3 2303 7                @ ../User/ETH_driver/stm32f4x7_eth.c:2303:7
	it	eq
	biceq	r2, r0, #16384
.Ltmp445:
	@DEBUG_VALUE: ETH_PHYLoopBackCmd:tmpreg <- $r2
	.loc	3 2314 6                @ ../User/ETH_driver/stm32f4x7_eth.c:2314:6
	mov	r0, r5
	bl	ETH_WritePHYRegister
.Ltmp446:
	.loc	3 2314 56 is_stmt 0     @ ../User/ETH_driver/stm32f4x7_eth.c:2314:56
	cmp	r0, #0
	it	ne
	movne	r0, #1
.Ltmp447:
	.loc	3 2323 1 is_stmt 1      @ ../User/ETH_driver/stm32f4x7_eth.c:2323:1
	pop	{r4, r5, r7, pc}
.Ltmp448:
.Lfunc_end66:
	.size	ETH_PHYLoopBackCmd, .Lfunc_end66-ETH_PHYLoopBackCmd
	.cfi_endproc
	.cantunwind
	.fnend
                                        @ -- End function
	.section	.text.ETH_ResetWakeUpFrameFilterRegisterPointer,"ax",%progbits
	.hidden	ETH_ResetWakeUpFrameFilterRegisterPointer @ -- Begin function ETH_ResetWakeUpFrameFilterRegisterPointer
	.globl	ETH_ResetWakeUpFrameFilterRegisterPointer
	.p2align	1
	.type	ETH_ResetWakeUpFrameFilterRegisterPointer,%function
	.code	16                      @ @ETH_ResetWakeUpFrameFilterRegisterPointer
	.thumb_func
ETH_ResetWakeUpFrameFilterRegisterPointer:
.Lfunc_begin67:
	.loc	3 2334 0                @ ../User/ETH_driver/stm32f4x7_eth.c:2334:0
	.fnstart
	.cfi_startproc
@ %bb.0:
	movw	r0, #32812
	movt	r0, #16386
.Ltmp449:
	.loc	3 2336 18 prologue_end  @ ../User/ETH_driver/stm32f4x7_eth.c:2336:18
	ldr	r1, [r0]
	orr	r1, r1, #-2147483648
	str	r1, [r0]
	.loc	3 2337 1                @ ../User/ETH_driver/stm32f4x7_eth.c:2337:1
	bx	lr
.Ltmp450:
.Lfunc_end67:
	.size	ETH_ResetWakeUpFrameFilterRegisterPointer, .Lfunc_end67-ETH_ResetWakeUpFrameFilterRegisterPointer
	.cfi_endproc
	.cantunwind
	.fnend
                                        @ -- End function
	.section	.text.ETH_SetWakeUpFrameFilterRegister,"ax",%progbits
	.hidden	ETH_SetWakeUpFrameFilterRegister @ -- Begin function ETH_SetWakeUpFrameFilterRegister
	.globl	ETH_SetWakeUpFrameFilterRegister
	.p2align	1
	.type	ETH_SetWakeUpFrameFilterRegister,%function
	.code	16                      @ @ETH_SetWakeUpFrameFilterRegister
	.thumb_func
ETH_SetWakeUpFrameFilterRegister:
.Lfunc_begin68:
	.loc	3 2345 0                @ ../User/ETH_driver/stm32f4x7_eth.c:2345:0
	.fnstart
	.cfi_startproc
@ %bb.0:
	@DEBUG_VALUE: ETH_SetWakeUpFrameFilterRegister:Buffer <- $r0
	@DEBUG_VALUE: ETH_SetWakeUpFrameFilterRegister:Buffer <- $r0
	movw	r2, #32808
	movs	r1, #0
.Ltmp451:
	@DEBUG_VALUE: ETH_SetWakeUpFrameFilterRegister:i <- 0
	movt	r2, #16386
	.p2align	2
.LBB68_1:                               @ =>This Inner Loop Header: Depth=1
	@DEBUG_VALUE: ETH_SetWakeUpFrameFilterRegister:Buffer <- $r0
.Ltmp452:
	@DEBUG_VALUE: ETH_SetWakeUpFrameFilterRegister:i <- $r1
	.loc	3 2352 22 prologue_end  @ ../User/ETH_driver/stm32f4x7_eth.c:2352:22
	ldr.w	r3, [r0, r1, lsl #2]
.Ltmp453:
	.loc	3 2349 44               @ ../User/ETH_driver/stm32f4x7_eth.c:2349:44
	adds	r1, #1
.Ltmp454:
	@DEBUG_VALUE: ETH_SetWakeUpFrameFilterRegister:i <- $r1
	.loc	3 2349 3 is_stmt 0      @ ../User/ETH_driver/stm32f4x7_eth.c:2349:3
	cmp	r1, #8
.Ltmp455:
	.loc	3 2352 20 is_stmt 1     @ ../User/ETH_driver/stm32f4x7_eth.c:2352:20
	str	r3, [r2]
.Ltmp456:
	.loc	3 2349 3                @ ../User/ETH_driver/stm32f4x7_eth.c:2349:3
	bne	.LBB68_1
.Ltmp457:
@ %bb.2:
	@DEBUG_VALUE: ETH_SetWakeUpFrameFilterRegister:i <- $r1
	@DEBUG_VALUE: ETH_SetWakeUpFrameFilterRegister:Buffer <- $r0
	.loc	3 2354 1                @ ../User/ETH_driver/stm32f4x7_eth.c:2354:1
	bx	lr
.Ltmp458:
.Lfunc_end68:
	.size	ETH_SetWakeUpFrameFilterRegister, .Lfunc_end68-ETH_SetWakeUpFrameFilterRegister
	.cfi_endproc
	.cantunwind
	.fnend
                                        @ -- End function
	.section	.text.ETH_GlobalUnicastWakeUpCmd,"ax",%progbits
	.hidden	ETH_GlobalUnicastWakeUpCmd @ -- Begin function ETH_GlobalUnicastWakeUpCmd
	.globl	ETH_GlobalUnicastWakeUpCmd
	.p2align	1
	.type	ETH_GlobalUnicastWakeUpCmd,%function
	.code	16                      @ @ETH_GlobalUnicastWakeUpCmd
	.thumb_func
ETH_GlobalUnicastWakeUpCmd:
.Lfunc_begin69:
	.loc	3 2364 0                @ ../User/ETH_driver/stm32f4x7_eth.c:2364:0
	.fnstart
	.cfi_startproc
@ %bb.0:
	@DEBUG_VALUE: ETH_GlobalUnicastWakeUpCmd:NewState <- $r0
	movw	r1, #32812
.Ltmp459:
	.loc	3 2368 7 prologue_end   @ ../User/ETH_driver/stm32f4x7_eth.c:2368:7
	cmp	r0, #0
	movt	r1, #16386
	@DEBUG_VALUE: ETH_GlobalUnicastWakeUpCmd:NewState <- $r0
.Ltmp460:
	.loc	3 0 0 is_stmt 0         @ ../User/ETH_driver/stm32f4x7_eth.c:0:0
	ldr	r2, [r1]
.Ltmp461:
	.loc	3 2368 7                @ ../User/ETH_driver/stm32f4x7_eth.c:2368:7
	orr	r3, r2, #512
	it	eq
	biceq	r3, r2, #512
.Ltmp462:
	.loc	3 0 0                   @ ../User/ETH_driver/stm32f4x7_eth.c:0:0
	str	r3, [r1]
.Ltmp463:
	.loc	3 2378 1 is_stmt 1      @ ../User/ETH_driver/stm32f4x7_eth.c:2378:1
	bx	lr
.Ltmp464:
.Lfunc_end69:
	.size	ETH_GlobalUnicastWakeUpCmd, .Lfunc_end69-ETH_GlobalUnicastWakeUpCmd
	.cfi_endproc
	.cantunwind
	.fnend
                                        @ -- End function
	.section	.text.ETH_GetPMTFlagStatus,"ax",%progbits
	.hidden	ETH_GetPMTFlagStatus    @ -- Begin function ETH_GetPMTFlagStatus
	.globl	ETH_GetPMTFlagStatus
	.p2align	1
	.type	ETH_GetPMTFlagStatus,%function
	.code	16                      @ @ETH_GetPMTFlagStatus
	.thumb_func
ETH_GetPMTFlagStatus:
.Lfunc_begin70:
	.loc	3 2390 0                @ ../User/ETH_driver/stm32f4x7_eth.c:2390:0
	.fnstart
	.cfi_startproc
@ %bb.0:
	@DEBUG_VALUE: ETH_GetPMTFlagStatus:ETH_PMT_FLAG <- $r0
	movw	r1, #32812
	movt	r1, #16386
.Ltmp465:
	@DEBUG_VALUE: ETH_GetPMTFlagStatus:bitstatus <- 0
	@DEBUG_VALUE: ETH_GetPMTFlagStatus:ETH_PMT_FLAG <- $r0
	.loc	3 2395 13 prologue_end  @ ../User/ETH_driver/stm32f4x7_eth.c:2395:13
	ldr	r1, [r1]
	.loc	3 2395 23 is_stmt 0     @ ../User/ETH_driver/stm32f4x7_eth.c:2395:23
	ands	r0, r1
.Ltmp466:
	.loc	3 2395 39               @ ../User/ETH_driver/stm32f4x7_eth.c:2395:39
	it	ne
	movne	r0, #1
.Ltmp467:
	@DEBUG_VALUE: ETH_GetPMTFlagStatus:bitstatus <- undef
	.loc	3 2403 3 is_stmt 1      @ ../User/ETH_driver/stm32f4x7_eth.c:2403:3
	bx	lr
.Ltmp468:
.Lfunc_end70:
	.size	ETH_GetPMTFlagStatus, .Lfunc_end70-ETH_GetPMTFlagStatus
	.cfi_endproc
	.cantunwind
	.fnend
                                        @ -- End function
	.section	.text.ETH_WakeUpFrameDetectionCmd,"ax",%progbits
	.hidden	ETH_WakeUpFrameDetectionCmd @ -- Begin function ETH_WakeUpFrameDetectionCmd
	.globl	ETH_WakeUpFrameDetectionCmd
	.p2align	1
	.type	ETH_WakeUpFrameDetectionCmd,%function
	.code	16                      @ @ETH_WakeUpFrameDetectionCmd
	.thumb_func
ETH_WakeUpFrameDetectionCmd:
.Lfunc_begin71:
	.loc	3 2413 0                @ ../User/ETH_driver/stm32f4x7_eth.c:2413:0
	.fnstart
	.cfi_startproc
@ %bb.0:
	@DEBUG_VALUE: ETH_WakeUpFrameDetectionCmd:NewState <- $r0
	movw	r1, #32812
.Ltmp469:
	.loc	3 2417 7 prologue_end   @ ../User/ETH_driver/stm32f4x7_eth.c:2417:7
	cmp	r0, #0
	movt	r1, #16386
	@DEBUG_VALUE: ETH_WakeUpFrameDetectionCmd:NewState <- $r0
.Ltmp470:
	.loc	3 0 0 is_stmt 0         @ ../User/ETH_driver/stm32f4x7_eth.c:0:0
	ldr	r2, [r1]
.Ltmp471:
	.loc	3 2417 7                @ ../User/ETH_driver/stm32f4x7_eth.c:2417:7
	orr	r3, r2, #4
	it	eq
	biceq	r3, r2, #4
.Ltmp472:
	.loc	3 0 0                   @ ../User/ETH_driver/stm32f4x7_eth.c:0:0
	str	r3, [r1]
.Ltmp473:
	.loc	3 2427 1 is_stmt 1      @ ../User/ETH_driver/stm32f4x7_eth.c:2427:1
	bx	lr
.Ltmp474:
.Lfunc_end71:
	.size	ETH_WakeUpFrameDetectionCmd, .Lfunc_end71-ETH_WakeUpFrameDetectionCmd
	.cfi_endproc
	.cantunwind
	.fnend
                                        @ -- End function
	.section	.text.ETH_MagicPacketDetectionCmd,"ax",%progbits
	.hidden	ETH_MagicPacketDetectionCmd @ -- Begin function ETH_MagicPacketDetectionCmd
	.globl	ETH_MagicPacketDetectionCmd
	.p2align	1
	.type	ETH_MagicPacketDetectionCmd,%function
	.code	16                      @ @ETH_MagicPacketDetectionCmd
	.thumb_func
ETH_MagicPacketDetectionCmd:
.Lfunc_begin72:
	.loc	3 2436 0                @ ../User/ETH_driver/stm32f4x7_eth.c:2436:0
	.fnstart
	.cfi_startproc
@ %bb.0:
	@DEBUG_VALUE: ETH_MagicPacketDetectionCmd:NewState <- $r0
	movw	r1, #32812
.Ltmp475:
	.loc	3 2440 7 prologue_end   @ ../User/ETH_driver/stm32f4x7_eth.c:2440:7
	cmp	r0, #0
	movt	r1, #16386
	@DEBUG_VALUE: ETH_MagicPacketDetectionCmd:NewState <- $r0
.Ltmp476:
	.loc	3 0 0 is_stmt 0         @ ../User/ETH_driver/stm32f4x7_eth.c:0:0
	ldr	r2, [r1]
.Ltmp477:
	.loc	3 2440 7                @ ../User/ETH_driver/stm32f4x7_eth.c:2440:7
	orr	r3, r2, #2
	it	eq
	biceq	r3, r2, #2
.Ltmp478:
	.loc	3 0 0                   @ ../User/ETH_driver/stm32f4x7_eth.c:0:0
	str	r3, [r1]
.Ltmp479:
	.loc	3 2450 1 is_stmt 1      @ ../User/ETH_driver/stm32f4x7_eth.c:2450:1
	bx	lr
.Ltmp480:
.Lfunc_end72:
	.size	ETH_MagicPacketDetectionCmd, .Lfunc_end72-ETH_MagicPacketDetectionCmd
	.cfi_endproc
	.cantunwind
	.fnend
                                        @ -- End function
	.section	.text.ETH_PowerDownCmd,"ax",%progbits
	.hidden	ETH_PowerDownCmd        @ -- Begin function ETH_PowerDownCmd
	.globl	ETH_PowerDownCmd
	.p2align	1
	.type	ETH_PowerDownCmd,%function
	.code	16                      @ @ETH_PowerDownCmd
	.thumb_func
ETH_PowerDownCmd:
.Lfunc_begin73:
	.loc	3 2459 0                @ ../User/ETH_driver/stm32f4x7_eth.c:2459:0
	.fnstart
	.cfi_startproc
@ %bb.0:
	@DEBUG_VALUE: ETH_PowerDownCmd:NewState <- $r0
	movw	r1, #32812
.Ltmp481:
	.loc	3 2463 7 prologue_end   @ ../User/ETH_driver/stm32f4x7_eth.c:2463:7
	cmp	r0, #0
	movt	r1, #16386
	@DEBUG_VALUE: ETH_PowerDownCmd:NewState <- $r0
.Ltmp482:
	.loc	3 0 0 is_stmt 0         @ ../User/ETH_driver/stm32f4x7_eth.c:0:0
	ldr	r2, [r1]
.Ltmp483:
	.loc	3 2463 7                @ ../User/ETH_driver/stm32f4x7_eth.c:2463:7
	orr	r3, r2, #1
	it	eq
	biceq	r3, r2, #1
.Ltmp484:
	.loc	3 0 0                   @ ../User/ETH_driver/stm32f4x7_eth.c:0:0
	str	r3, [r1]
.Ltmp485:
	.loc	3 2474 1 is_stmt 1      @ ../User/ETH_driver/stm32f4x7_eth.c:2474:1
	bx	lr
.Ltmp486:
.Lfunc_end73:
	.size	ETH_PowerDownCmd, .Lfunc_end73-ETH_PowerDownCmd
	.cfi_endproc
	.cantunwind
	.fnend
                                        @ -- End function
	.section	.text.ETH_MMCCounterFullPreset,"ax",%progbits
	.hidden	ETH_MMCCounterFullPreset @ -- Begin function ETH_MMCCounterFullPreset
	.globl	ETH_MMCCounterFullPreset
	.p2align	1
	.type	ETH_MMCCounterFullPreset,%function
	.code	16                      @ @ETH_MMCCounterFullPreset
	.thumb_func
ETH_MMCCounterFullPreset:
.Lfunc_begin74:
	.loc	3 2485 0                @ ../User/ETH_driver/stm32f4x7_eth.c:2485:0
	.fnstart
	.cfi_startproc
@ %bb.0:
	movw	r0, #33024
	movt	r0, #16386
.Ltmp487:
	.loc	3 2487 14 prologue_end  @ ../User/ETH_driver/stm32f4x7_eth.c:2487:14
	ldr	r1, [r0]
	orr	r1, r1, #48
	str	r1, [r0]
	.loc	3 2488 1                @ ../User/ETH_driver/stm32f4x7_eth.c:2488:1
	bx	lr
.Ltmp488:
.Lfunc_end74:
	.size	ETH_MMCCounterFullPreset, .Lfunc_end74-ETH_MMCCounterFullPreset
	.cfi_endproc
	.cantunwind
	.fnend
                                        @ -- End function
	.section	.text.ETH_MMCCounterHalfPreset,"ax",%progbits
	.hidden	ETH_MMCCounterHalfPreset @ -- Begin function ETH_MMCCounterHalfPreset
	.globl	ETH_MMCCounterHalfPreset
	.p2align	1
	.type	ETH_MMCCounterHalfPreset,%function
	.code	16                      @ @ETH_MMCCounterHalfPreset
	.thumb_func
ETH_MMCCounterHalfPreset:
.Lfunc_begin75:
	.loc	3 2496 0                @ ../User/ETH_driver/stm32f4x7_eth.c:2496:0
	.fnstart
	.cfi_startproc
@ %bb.0:
	movw	r0, #33024
	movt	r0, #16386
.Ltmp489:
	.loc	3 2498 14 prologue_end  @ ../User/ETH_driver/stm32f4x7_eth.c:2498:14
	ldr	r1, [r0]
	bic	r1, r1, #32
	str	r1, [r0]
	.loc	3 2500 14               @ ../User/ETH_driver/stm32f4x7_eth.c:2500:14
	ldr	r1, [r0]
	orr	r1, r1, #16
	str	r1, [r0]
	.loc	3 2501 1                @ ../User/ETH_driver/stm32f4x7_eth.c:2501:1
	bx	lr
.Ltmp490:
.Lfunc_end75:
	.size	ETH_MMCCounterHalfPreset, .Lfunc_end75-ETH_MMCCounterHalfPreset
	.cfi_endproc
	.cantunwind
	.fnend
                                        @ -- End function
	.section	.text.ETH_MMCCounterFreezeCmd,"ax",%progbits
	.hidden	ETH_MMCCounterFreezeCmd @ -- Begin function ETH_MMCCounterFreezeCmd
	.globl	ETH_MMCCounterFreezeCmd
	.p2align	1
	.type	ETH_MMCCounterFreezeCmd,%function
	.code	16                      @ @ETH_MMCCounterFreezeCmd
	.thumb_func
ETH_MMCCounterFreezeCmd:
.Lfunc_begin76:
	.loc	3 2510 0                @ ../User/ETH_driver/stm32f4x7_eth.c:2510:0
	.fnstart
	.cfi_startproc
@ %bb.0:
	@DEBUG_VALUE: ETH_MMCCounterFreezeCmd:NewState <- $r0
	movw	r1, #33024
.Ltmp491:
	.loc	3 2514 7 prologue_end   @ ../User/ETH_driver/stm32f4x7_eth.c:2514:7
	cmp	r0, #0
	movt	r1, #16386
	@DEBUG_VALUE: ETH_MMCCounterFreezeCmd:NewState <- $r0
.Ltmp492:
	.loc	3 0 0 is_stmt 0         @ ../User/ETH_driver/stm32f4x7_eth.c:0:0
	ldr	r2, [r1]
.Ltmp493:
	.loc	3 2514 7                @ ../User/ETH_driver/stm32f4x7_eth.c:2514:7
	orr	r3, r2, #8
	it	eq
	biceq	r3, r2, #8
.Ltmp494:
	.loc	3 0 0                   @ ../User/ETH_driver/stm32f4x7_eth.c:0:0
	str	r3, [r1]
.Ltmp495:
	.loc	3 2524 1 is_stmt 1      @ ../User/ETH_driver/stm32f4x7_eth.c:2524:1
	bx	lr
.Ltmp496:
.Lfunc_end76:
	.size	ETH_MMCCounterFreezeCmd, .Lfunc_end76-ETH_MMCCounterFreezeCmd
	.cfi_endproc
	.cantunwind
	.fnend
                                        @ -- End function
	.section	.text.ETH_MMCResetOnReadCmd,"ax",%progbits
	.hidden	ETH_MMCResetOnReadCmd   @ -- Begin function ETH_MMCResetOnReadCmd
	.globl	ETH_MMCResetOnReadCmd
	.p2align	1
	.type	ETH_MMCResetOnReadCmd,%function
	.code	16                      @ @ETH_MMCResetOnReadCmd
	.thumb_func
ETH_MMCResetOnReadCmd:
.Lfunc_begin77:
	.loc	3 2533 0                @ ../User/ETH_driver/stm32f4x7_eth.c:2533:0
	.fnstart
	.cfi_startproc
@ %bb.0:
	@DEBUG_VALUE: ETH_MMCResetOnReadCmd:NewState <- $r0
	movw	r1, #33024
.Ltmp497:
	.loc	3 2537 7 prologue_end   @ ../User/ETH_driver/stm32f4x7_eth.c:2537:7
	cmp	r0, #0
	movt	r1, #16386
	@DEBUG_VALUE: ETH_MMCResetOnReadCmd:NewState <- $r0
.Ltmp498:
	.loc	3 0 0 is_stmt 0         @ ../User/ETH_driver/stm32f4x7_eth.c:0:0
	ldr	r2, [r1]
.Ltmp499:
	.loc	3 2537 7                @ ../User/ETH_driver/stm32f4x7_eth.c:2537:7
	orr	r3, r2, #4
	it	eq
	biceq	r3, r2, #4
.Ltmp500:
	.loc	3 0 0                   @ ../User/ETH_driver/stm32f4x7_eth.c:0:0
	str	r3, [r1]
.Ltmp501:
	.loc	3 2547 1 is_stmt 1      @ ../User/ETH_driver/stm32f4x7_eth.c:2547:1
	bx	lr
.Ltmp502:
.Lfunc_end77:
	.size	ETH_MMCResetOnReadCmd, .Lfunc_end77-ETH_MMCResetOnReadCmd
	.cfi_endproc
	.cantunwind
	.fnend
                                        @ -- End function
	.section	.text.ETH_MMCCounterRolloverCmd,"ax",%progbits
	.hidden	ETH_MMCCounterRolloverCmd @ -- Begin function ETH_MMCCounterRolloverCmd
	.globl	ETH_MMCCounterRolloverCmd
	.p2align	1
	.type	ETH_MMCCounterRolloverCmd,%function
	.code	16                      @ @ETH_MMCCounterRolloverCmd
	.thumb_func
ETH_MMCCounterRolloverCmd:
.Lfunc_begin78:
	.loc	3 2556 0                @ ../User/ETH_driver/stm32f4x7_eth.c:2556:0
	.fnstart
	.cfi_startproc
@ %bb.0:
	@DEBUG_VALUE: ETH_MMCCounterRolloverCmd:NewState <- $r0
	movw	r1, #33024
.Ltmp503:
	.loc	3 2560 7 prologue_end   @ ../User/ETH_driver/stm32f4x7_eth.c:2560:7
	cmp	r0, #0
	movt	r1, #16386
	@DEBUG_VALUE: ETH_MMCCounterRolloverCmd:NewState <- $r0
.Ltmp504:
	.loc	3 0 0 is_stmt 0         @ ../User/ETH_driver/stm32f4x7_eth.c:0:0
	ldr	r2, [r1]
.Ltmp505:
	.loc	3 2560 7                @ ../User/ETH_driver/stm32f4x7_eth.c:2560:7
	bic	r3, r2, #2
	it	eq
	orreq	r3, r2, #2
.Ltmp506:
	.loc	3 0 0                   @ ../User/ETH_driver/stm32f4x7_eth.c:0:0
	str	r3, [r1]
.Ltmp507:
	.loc	3 2570 1 is_stmt 1      @ ../User/ETH_driver/stm32f4x7_eth.c:2570:1
	bx	lr
.Ltmp508:
.Lfunc_end78:
	.size	ETH_MMCCounterRolloverCmd, .Lfunc_end78-ETH_MMCCounterRolloverCmd
	.cfi_endproc
	.cantunwind
	.fnend
                                        @ -- End function
	.section	.text.ETH_MMCCountersReset,"ax",%progbits
	.hidden	ETH_MMCCountersReset    @ -- Begin function ETH_MMCCountersReset
	.globl	ETH_MMCCountersReset
	.p2align	1
	.type	ETH_MMCCountersReset,%function
	.code	16                      @ @ETH_MMCCountersReset
	.thumb_func
ETH_MMCCountersReset:
.Lfunc_begin79:
	.loc	3 2578 0                @ ../User/ETH_driver/stm32f4x7_eth.c:2578:0
	.fnstart
	.cfi_startproc
@ %bb.0:
	movw	r0, #33024
	movt	r0, #16386
.Ltmp509:
	.loc	3 2580 14 prologue_end  @ ../User/ETH_driver/stm32f4x7_eth.c:2580:14
	ldr	r1, [r0]
	orr	r1, r1, #1
	str	r1, [r0]
	.loc	3 2581 1                @ ../User/ETH_driver/stm32f4x7_eth.c:2581:1
	bx	lr
.Ltmp510:
.Lfunc_end79:
	.size	ETH_MMCCountersReset, .Lfunc_end79-ETH_MMCCountersReset
	.cfi_endproc
	.cantunwind
	.fnend
                                        @ -- End function
	.section	.text.ETH_MMCITConfig,"ax",%progbits
	.hidden	ETH_MMCITConfig         @ -- Begin function ETH_MMCITConfig
	.globl	ETH_MMCITConfig
	.p2align	1
	.type	ETH_MMCITConfig,%function
	.code	16                      @ @ETH_MMCITConfig
	.thumb_func
ETH_MMCITConfig:
.Lfunc_begin80:
	.loc	3 2599 0                @ ../User/ETH_driver/stm32f4x7_eth.c:2599:0
	.fnstart
	.cfi_startproc
@ %bb.0:
	@DEBUG_VALUE: ETH_MMCITConfig:ETH_MMC_IT <- $r0
	@DEBUG_VALUE: ETH_MMCITConfig:ETH_MMC_IT <- $r0
	@DEBUG_VALUE: ETH_MMCITConfig:NewState <- $r1
	@DEBUG_VALUE: ETH_MMCITConfig:NewState <- $r1
	.loc	3 2604 7 prologue_end   @ ../User/ETH_driver/stm32f4x7_eth.c:2604:7
	lsls	r2, r0, #3
	movw	r2, #33036
	movt	r2, #16386
	bmi	.LBB80_2
.Ltmp511:
@ %bb.1:
	@DEBUG_VALUE: ETH_MMCITConfig:NewState <- $r1
	@DEBUG_VALUE: ETH_MMCITConfig:ETH_MMC_IT <- $r0
	.loc	3 2624 9                @ ../User/ETH_driver/stm32f4x7_eth.c:2624:9
	cmp	r1, #0
.Ltmp512:
	.loc	3 2632 20               @ ../User/ETH_driver/stm32f4x7_eth.c:2632:20
	ldr	r1, [r2, #4]
.Ltmp513:
	ite	eq
	orreq	r0, r1
.Ltmp514:
	.loc	3 2627 20               @ ../User/ETH_driver/stm32f4x7_eth.c:2627:20
	bicne.w	r0, r1, r0
.Ltmp515:
	.loc	3 0 0 is_stmt 0         @ ../User/ETH_driver/stm32f4x7_eth.c:0:0
	str	r0, [r2, #4]
.Ltmp516:
	.loc	3 2635 1 is_stmt 1      @ ../User/ETH_driver/stm32f4x7_eth.c:2635:1
	bx	lr
.LBB80_2:
.Ltmp517:
	@DEBUG_VALUE: ETH_MMCITConfig:NewState <- $r1
	@DEBUG_VALUE: ETH_MMCITConfig:ETH_MMC_IT <- $r0
	.loc	3 2607 16               @ ../User/ETH_driver/stm32f4x7_eth.c:2607:16
	bic	r0, r0, #268435456
.Ltmp518:
	@DEBUG_VALUE: ETH_MMCITConfig:ETH_MMC_IT <- $r0
	.loc	3 2610 9                @ ../User/ETH_driver/stm32f4x7_eth.c:2610:9
	cmp	r1, #0
.Ltmp519:
	.loc	3 2613 20               @ ../User/ETH_driver/stm32f4x7_eth.c:2613:20
	ldr	r1, [r2]
.Ltmp520:
	ite	ne
	bicne.w	r0, r1, r0
.Ltmp521:
	.loc	3 2618 20               @ ../User/ETH_driver/stm32f4x7_eth.c:2618:20
	orreq	r0, r1
	str	r0, [r2]
.Ltmp522:
	.loc	3 2635 1                @ ../User/ETH_driver/stm32f4x7_eth.c:2635:1
	bx	lr
.Ltmp523:
.Lfunc_end80:
	.size	ETH_MMCITConfig, .Lfunc_end80-ETH_MMCITConfig
	.cfi_endproc
	.cantunwind
	.fnend
                                        @ -- End function
	.section	.text.ETH_GetMMCITStatus,"ax",%progbits
	.hidden	ETH_GetMMCITStatus      @ -- Begin function ETH_GetMMCITStatus
	.globl	ETH_GetMMCITStatus
	.p2align	1
	.type	ETH_GetMMCITStatus,%function
	.code	16                      @ @ETH_GetMMCITStatus
	.thumb_func
ETH_GetMMCITStatus:
.Lfunc_begin81:
	.loc	3 2650 0                @ ../User/ETH_driver/stm32f4x7_eth.c:2650:0
	.fnstart
	.cfi_startproc
@ %bb.0:
	@DEBUG_VALUE: ETH_GetMMCITStatus:ETH_MMC_IT <- $r0
	@DEBUG_VALUE: ETH_GetMMCITStatus:ETH_MMC_IT <- $r0
	@DEBUG_VALUE: ETH_GetMMCITStatus:bitstatus <- 0
	.loc	3 2655 7 prologue_end   @ ../User/ETH_driver/stm32f4x7_eth.c:2655:7
	lsls	r1, r0, #3
	movw	r1, #33028
	movt	r1, #16386
.Ltmp524:
	.loc	3 2659 17               @ ../User/ETH_driver/stm32f4x7_eth.c:2659:17
	ite	mi
	ldrmi	r2, [r1]
.Ltmp525:
	.loc	3 2672 17               @ ../User/ETH_driver/stm32f4x7_eth.c:2672:17
	ldrpl	r2, [r1, #4]
.Ltmp526:
	.loc	3 0 0 is_stmt 0         @ ../User/ETH_driver/stm32f4x7_eth.c:0:0
	tst	r2, r0
	beq	.LBB81_2
.Ltmp527:
@ %bb.1:
	@DEBUG_VALUE: ETH_GetMMCITStatus:ETH_MMC_IT <- $r0
	ldr	r1, [r1, #8]
	tst	r1, r0
	itt	eq
	moveq	r0, #1
.Ltmp528:
	@DEBUG_VALUE: ETH_GetMMCITStatus:bitstatus <- $r0
	.loc	3 2682 3 is_stmt 1      @ ../User/ETH_driver/stm32f4x7_eth.c:2682:3
	bxeq	lr
.Ltmp529:
.LBB81_2:
	.loc	3 0 3 is_stmt 0         @ ../User/ETH_driver/stm32f4x7_eth.c:0:3
	movs	r0, #0
.Ltmp530:
	@DEBUG_VALUE: ETH_GetMMCITStatus:bitstatus <- 0
	@DEBUG_VALUE: ETH_GetMMCITStatus:bitstatus <- $r0
	.loc	3 2682 3                @ ../User/ETH_driver/stm32f4x7_eth.c:2682:3
	bx	lr
.Ltmp531:
.Lfunc_end81:
	.size	ETH_GetMMCITStatus, .Lfunc_end81-ETH_GetMMCITStatus
	.cfi_endproc
	.cantunwind
	.fnend
                                        @ -- End function
	.section	.text.ETH_GetMMCRegister,"ax",%progbits
	.hidden	ETH_GetMMCRegister      @ -- Begin function ETH_GetMMCRegister
	.globl	ETH_GetMMCRegister
	.p2align	1
	.type	ETH_GetMMCRegister,%function
	.code	16                      @ @ETH_GetMMCRegister
	.thumb_func
ETH_GetMMCRegister:
.Lfunc_begin82:
	.loc	3 2703 0 is_stmt 1      @ ../User/ETH_driver/stm32f4x7_eth.c:2703:0
	.fnstart
	.cfi_startproc
@ %bb.0:
	@DEBUG_VALUE: ETH_GetMMCRegister:ETH_MMCReg <- $r0
	movw	r1, #32768
	movt	r1, #16386
	@DEBUG_VALUE: ETH_GetMMCRegister:ETH_MMCReg <- $r0
.Ltmp532:
	.loc	3 2708 11 prologue_end  @ ../User/ETH_driver/stm32f4x7_eth.c:2708:11
	ldr	r0, [r0, r1]
.Ltmp533:
	.loc	3 2708 3 is_stmt 0      @ ../User/ETH_driver/stm32f4x7_eth.c:2708:3
	bx	lr
.Ltmp534:
.Lfunc_end82:
	.size	ETH_GetMMCRegister, .Lfunc_end82-ETH_GetMMCRegister
	.cfi_endproc
	.cantunwind
	.fnend
                                        @ -- End function
	.hidden	DMARxDescToGet          @ @DMARxDescToGet
	.type	DMARxDescToGet,%object
	.section	.bss.DMARxDescToGet,"aw",%nobits
	.globl	DMARxDescToGet
	.p2align	2
DMARxDescToGet:
	.long	0
	.size	DMARxDescToGet, 4

	.hidden	DMA_RX_FRAME_infos      @ @DMA_RX_FRAME_infos
	.type	DMA_RX_FRAME_infos,%object
	.section	.bss.DMA_RX_FRAME_infos,"aw",%nobits
	.globl	DMA_RX_FRAME_infos
	.p2align	2
DMA_RX_FRAME_infos:
	.long	0
	.size	DMA_RX_FRAME_infos, 4

	.hidden	DMATxDescToSet          @ @DMATxDescToSet
	.type	DMATxDescToSet,%object
	.section	.bss.DMATxDescToSet,"aw",%nobits
	.globl	DMATxDescToSet
	.p2align	2
DMATxDescToSet:
	.long	0
	.size	DMATxDescToSet, 4

	.hidden	RX_Frame_Descriptor     @ @RX_Frame_Descriptor
	.type	RX_Frame_Descriptor,%object
	.section	.bss.RX_Frame_Descriptor,"aw",%nobits
	.globl	RX_Frame_Descriptor
	.p2align	2
RX_Frame_Descriptor:
	.zero	12
	.size	RX_Frame_Descriptor, 12

	.hidden	DMARxDscrTab            @ @DMARxDscrTab
	.type	DMARxDscrTab,%object
	.section	.bss.DMARxDscrTab,"aw",%nobits
	.globl	DMARxDscrTab
	.p2align	2
DMARxDscrTab:
	.zero	160
	.size	DMARxDscrTab, 160

	.hidden	DMATxDscrTab            @ @DMATxDscrTab
	.type	DMATxDscrTab,%object
	.section	.bss.DMATxDscrTab,"aw",%nobits
	.globl	DMATxDscrTab
	.p2align	2
DMATxDscrTab:
	.zero	160
	.size	DMATxDscrTab, 160

	.hidden	Rx_Buff                 @ @Rx_Buff
	.type	Rx_Buff,%object
	.section	.bss.Rx_Buff,"aw",%nobits
	.globl	Rx_Buff
	.p2align	2
Rx_Buff:
	.zero	7620
	.size	Rx_Buff, 7620

	.hidden	Tx_Buff                 @ @Tx_Buff
	.type	Tx_Buff,%object
	.section	.bss.Tx_Buff,"aw",%nobits
	.globl	Tx_Buff
	.p2align	2
Tx_Buff:
	.zero	7620
	.size	Tx_Buff, 7620

	.hidden	Frame_Rx_index          @ @Frame_Rx_index
	.type	Frame_Rx_index,%object
	.section	.bss.Frame_Rx_index,"aw",%nobits
	.globl	Frame_Rx_index
	.p2align	2
Frame_Rx_index:
	.long	0                       @ 0x0
	.size	Frame_Rx_index, 4

	.file	5 "F:\\SkyDrive\\OtvoreniProjekti\\HotelSaplast\\fw\\KontrolerHotela\\HC070318\\Project" "../Libraries/STM32F4xx_StdPeriph_Driver/inc\\stm32f4xx_rcc.h"
	.section	".note.GNU-stack","",%progbits
	.eabi_attribute	30, 3	@ Tag_ABI_optimization_goals
	.ARM_attribute	16, 1	@ Tag_AV_eba