	.text
	.syntax unified
	.eabi_attribute	67, "2.09"	@ Tag_conformance
	.cpu	cortex-m4
	.eabi_attribute	6, 13	@ Tag_CPU_arch
	.eabi_attribute	7, 77	@ Tag_CPU_arch_profile
	.eabi_attribute	8, 0	@ Tag_ARM_ISA_use
	.eabi_attribute	9, 2	@ Tag_THUMB_ISA_use
	.fpu	fpv4-sp-d16
	.eabi_attribute	27, 1	@ Tag_ABI_HardFP_use
	.eabi_attribute	36, 1	@ Tag_FP_HP_extension
	.eabi_attribute	34, 1	@ Tag_CPU_unaligned_access
	.eabi_attribute	17, 1	@ Tag_ABI_PCS_GOT_use
	.eabi_attribute	20, 2	@ Tag_ABI_FP_denormal
	.eabi_attribute	21, 0	@ Tag_ABI_FP_exceptions
	.eabi_attribute	23, 1	@ Tag_ABI_FP_number_model
	.eabi_attribute	24, 1	@ Tag_ABI_align_needed
	.eabi_attribute	25, 1	@ Tag_ABI_align_preserved
	.eabi_attribute	28, 1	@ Tag_ABI_VFP_args
	.eabi_attribute	38, 1	@ Tag_ABI_FP_16bit_format
	.eabi_attribute	18, 2	@ Tag_ABI_PCS_wchar_t
	.eabi_attribute	26, 1	@ Tag_ABI_enum_size
	.eabi_attribute	14, 0	@ Tag_ABI_PCS_R9_use
	.file	"stm32f4xx_ltdc.c"
	.file	1 "F:\\SkyDrive\\OtvoreniProjekti\\HotelSaplast\\fw\\KontrolerHotela\\HC070318\\Project" "../Libraries/CMSIS/Device/ST/STM32F4xx/Include\\stm32f4xx.h"
	.file	2 "C:\\Keil\\ARM\\ARMCLANG\\Bin\\..\\include" "stdint.h"
	.section	.text.LTDC_DeInit,"ax",%progbits
	.hidden	LTDC_DeInit             @ -- Begin function LTDC_DeInit
	.globl	LTDC_DeInit
	.p2align	1
	.type	LTDC_DeInit,%function
	.code	16                      @ @LTDC_DeInit
	.thumb_func
LTDC_DeInit:
.Lfunc_begin0:
	.file	3 "F:\\SkyDrive\\OtvoreniProjekti\\HotelSaplast\\fw\\KontrolerHotela\\HC070318\\Project" "../Libraries/STM32F4xx_StdPeriph_Driver/src/stm32f4xx_ltdc.c"
	.loc	3 130 0                 @ ../Libraries/STM32F4xx_StdPeriph_Driver/src/stm32f4xx_ltdc.c:130:0
	.fnstart
	.cfi_sections .debug_frame
	.cfi_startproc
@ %bb.0:
	.save	{r7, lr}
	push	{r7, lr}
	.cfi_def_cfa_offset 8
	.cfi_offset lr, -4
	.cfi_offset r7, -8
.Ltmp0:
	.loc	3 132 3 prologue_end    @ ../Libraries/STM32F4xx_StdPeriph_Driver/src/stm32f4xx_ltdc.c:132:3
	mov.w	r0, #67108864
	movs	r1, #1
	bl	RCC_APB2PeriphResetCmd
	.loc	3 134 3                 @ ../Libraries/STM32F4xx_StdPeriph_Driver/src/stm32f4xx_ltdc.c:134:3
	mov.w	r0, #67108864
	movs	r1, #0
	pop.w	{r7, lr}
	b	RCC_APB2PeriphResetCmd
.Ltmp1:
.Lfunc_end0:
	.size	LTDC_DeInit, .Lfunc_end0-LTDC_DeInit
	.cfi_endproc
	.cantunwind
	.fnend
                                        @ -- End function
	.section	.text.LTDC_Init,"ax",%progbits
	.hidden	LTDC_Init               @ -- Begin function LTDC_Init
	.globl	LTDC_Init
	.p2align	1
	.type	LTDC_Init,%function
	.code	16                      @ @LTDC_Init
	.thumb_func
LTDC_Init:
.Lfunc_begin1:
	.loc	3 147 0                 @ ../Libraries/STM32F4xx_StdPeriph_Driver/src/stm32f4xx_ltdc.c:147:0
	.fnstart
	.cfi_startproc
@ %bb.0:
	.save	{r7, lr}
	push	{r7, lr}
	.cfi_def_cfa_offset 8
	.cfi_offset lr, -4
	.cfi_offset r7, -8
	@DEBUG_VALUE: LTDC_Init:LTDC_InitStruct <- $r0
	movw	r1, #26632
	movw	r12, #63488
	movt	r1, #16385
.Ltmp2:
	@DEBUG_VALUE: LTDC_Init:backred <- 0
	@DEBUG_VALUE: LTDC_Init:backgreen <- 0
	@DEBUG_VALUE: LTDC_Init:totalwidth <- 0
	@DEBUG_VALUE: LTDC_Init:accumulatedactiveW <- 0
	@DEBUG_VALUE: LTDC_Init:accumulatedHBP <- 0
	@DEBUG_VALUE: LTDC_Init:horizontalsync <- 0
	@DEBUG_VALUE: LTDC_Init:LTDC_InitStruct <- $r0
	movt	r12, #61440
.Ltmp3:
	.loc	3 173 14 prologue_end   @ ../Libraries/STM32F4xx_StdPeriph_Driver/src/stm32f4xx_ltdc.c:173:14
	ldr	r2, [r1]
	and.w	r2, r2, r12
	str	r2, [r1]
.Ltmp4:
	@DEBUG_VALUE: LTDC_Init:horizontalsync <- undef
	.loc	3 174 38                @ ../Libraries/STM32F4xx_StdPeriph_Driver/src/stm32f4xx_ltdc.c:174:38
	ldrd	lr, r3, [r0, #16]
	.loc	3 175 14                @ ../Libraries/STM32F4xx_StdPeriph_Driver/src/stm32f4xx_ltdc.c:175:14
	ldr	r2, [r1]
	.loc	3 175 33 is_stmt 0      @ ../Libraries/STM32F4xx_StdPeriph_Driver/src/stm32f4xx_ltdc.c:175:33
	orr.w	r3, r3, lr, lsl #16
	.loc	3 175 14                @ ../Libraries/STM32F4xx_StdPeriph_Driver/src/stm32f4xx_ltdc.c:175:14
	orrs	r2, r3
	str	r2, [r1]
	.loc	3 178 14 is_stmt 1      @ ../Libraries/STM32F4xx_StdPeriph_Driver/src/stm32f4xx_ltdc.c:178:14
	ldr	r2, [r1, #4]
	and.w	r2, r2, r12
	str	r2, [r1, #4]
.Ltmp5:
	@DEBUG_VALUE: LTDC_Init:accumulatedHBP <- undef
	.loc	3 179 38                @ ../Libraries/STM32F4xx_StdPeriph_Driver/src/stm32f4xx_ltdc.c:179:38
	ldrd	lr, r3, [r0, #24]
	.loc	3 180 14                @ ../Libraries/STM32F4xx_StdPeriph_Driver/src/stm32f4xx_ltdc.c:180:14
	ldr	r2, [r1, #4]
	.loc	3 180 33 is_stmt 0      @ ../Libraries/STM32F4xx_StdPeriph_Driver/src/stm32f4xx_ltdc.c:180:33
	orr.w	r3, r3, lr, lsl #16
	.loc	3 180 14                @ ../Libraries/STM32F4xx_StdPeriph_Driver/src/stm32f4xx_ltdc.c:180:14
	orrs	r2, r3
	str	r2, [r1, #4]
	.loc	3 183 14 is_stmt 1      @ ../Libraries/STM32F4xx_StdPeriph_Driver/src/stm32f4xx_ltdc.c:183:14
	ldr	r2, [r1, #8]
	and.w	r2, r2, r12
	str	r2, [r1, #8]
.Ltmp6:
	@DEBUG_VALUE: LTDC_Init:accumulatedactiveW <- undef
	.loc	3 184 42                @ ../Libraries/STM32F4xx_StdPeriph_Driver/src/stm32f4xx_ltdc.c:184:42
	ldrd	lr, r3, [r0, #32]
	.loc	3 185 14                @ ../Libraries/STM32F4xx_StdPeriph_Driver/src/stm32f4xx_ltdc.c:185:14
	ldr	r2, [r1, #8]
	.loc	3 185 37 is_stmt 0      @ ../Libraries/STM32F4xx_StdPeriph_Driver/src/stm32f4xx_ltdc.c:185:37
	orr.w	r3, r3, lr, lsl #16
	.loc	3 185 14                @ ../Libraries/STM32F4xx_StdPeriph_Driver/src/stm32f4xx_ltdc.c:185:14
	orrs	r2, r3
	str	r2, [r1, #8]
	.loc	3 188 14 is_stmt 1      @ ../Libraries/STM32F4xx_StdPeriph_Driver/src/stm32f4xx_ltdc.c:188:14
	ldr	r2, [r1, #12]
	and.w	r2, r2, r12
	str	r2, [r1, #12]
.Ltmp7:
	@DEBUG_VALUE: LTDC_Init:totalwidth <- undef
	.loc	3 189 34                @ ../Libraries/STM32F4xx_StdPeriph_Driver/src/stm32f4xx_ltdc.c:189:34
	ldrd	r12, r3, [r0, #40]
	.loc	3 190 14                @ ../Libraries/STM32F4xx_StdPeriph_Driver/src/stm32f4xx_ltdc.c:190:14
	ldr	r2, [r1, #12]
	.loc	3 190 29 is_stmt 0      @ ../Libraries/STM32F4xx_StdPeriph_Driver/src/stm32f4xx_ltdc.c:190:29
	orr.w	r3, r3, r12, lsl #16
	.loc	3 190 14                @ ../Libraries/STM32F4xx_StdPeriph_Driver/src/stm32f4xx_ltdc.c:190:14
	orrs	r2, r3
	movw	r3, #34959
	str	r2, [r1, #12]
	movt	r3, #4094
	.loc	3 192 13 is_stmt 1      @ ../Libraries/STM32F4xx_StdPeriph_Driver/src/stm32f4xx_ltdc.c:192:13
	ldr	r2, [r1, #16]
	ands	r2, r3
	str	r2, [r1, #16]
	.loc	3 193 45                @ ../Libraries/STM32F4xx_StdPeriph_Driver/src/stm32f4xx_ltdc.c:193:45
	ldrd	r12, r3, [r0]
	.loc	3 194 45                @ ../Libraries/STM32F4xx_StdPeriph_Driver/src/stm32f4xx_ltdc.c:194:45
	ldrd	r2, lr, [r0, #8]
	.loc	3 193 61                @ ../Libraries/STM32F4xx_StdPeriph_Driver/src/stm32f4xx_ltdc.c:193:61
	orr.w	r3, r3, r12
	.loc	3 193 96 is_stmt 0      @ ../Libraries/STM32F4xx_StdPeriph_Driver/src/stm32f4xx_ltdc.c:193:96
	orrs	r2, r3
	.loc	3 193 13                @ ../Libraries/STM32F4xx_StdPeriph_Driver/src/stm32f4xx_ltdc.c:193:13
	ldr	r3, [r1, #16]
	.loc	3 194 61 is_stmt 1      @ ../Libraries/STM32F4xx_StdPeriph_Driver/src/stm32f4xx_ltdc.c:194:61
	orr.w	r2, r2, lr
	.loc	3 193 13                @ ../Libraries/STM32F4xx_StdPeriph_Driver/src/stm32f4xx_ltdc.c:193:13
	orrs	r2, r3
	str	r2, [r1, #16]
.Ltmp8:
	@DEBUG_VALUE: LTDC_Init:backgreen <- undef
	.loc	3 198 31                @ ../Libraries/STM32F4xx_StdPeriph_Driver/src/stm32f4xx_ltdc.c:198:31
	ldrd	r12, r3, [r0, #48]
	.loc	3 200 14                @ ../Libraries/STM32F4xx_StdPeriph_Driver/src/stm32f4xx_ltdc.c:200:14
	ldr	r2, [r1, #36]
	and	r2, r2, #-16777216
	str	r2, [r1, #36]
	.loc	3 198 55                @ ../Libraries/STM32F4xx_StdPeriph_Driver/src/stm32f4xx_ltdc.c:198:55
	lsl.w	r2, r12, #16
.Ltmp9:
	@DEBUG_VALUE: LTDC_Init:backred <- $r2
	.loc	3 201 57                @ ../Libraries/STM32F4xx_StdPeriph_Driver/src/stm32f4xx_ltdc.c:201:57
	ldr	r0, [r0, #56]
.Ltmp10:
	.loc	3 201 26 is_stmt 0      @ ../Libraries/STM32F4xx_StdPeriph_Driver/src/stm32f4xx_ltdc.c:201:26
	orr.w	r2, r2, r3, lsl #8
.Ltmp11:
	.loc	3 201 38                @ ../Libraries/STM32F4xx_StdPeriph_Driver/src/stm32f4xx_ltdc.c:201:38
	orrs	r0, r2
	.loc	3 201 14                @ ../Libraries/STM32F4xx_StdPeriph_Driver/src/stm32f4xx_ltdc.c:201:14
	ldr	r2, [r1, #36]
	orrs	r0, r2
	str	r0, [r1, #36]
	.loc	3 202 1 is_stmt 1       @ ../Libraries/STM32F4xx_StdPeriph_Driver/src/stm32f4xx_ltdc.c:202:1
	pop	{r7, pc}
.Ltmp12:
.Lfunc_end1:
	.size	LTDC_Init, .Lfunc_end1-LTDC_Init
	.cfi_endproc
	.cantunwind
	.fnend
                                        @ -- End function
	.section	.text.LTDC_StructInit,"ax",%progbits
	.hidden	LTDC_StructInit         @ -- Begin function LTDC_StructInit
	.globl	LTDC_StructInit
	.p2align	1
	.type	LTDC_StructInit,%function
	.code	16                      @ @LTDC_StructInit
	.thumb_func
LTDC_StructInit:
.Lfunc_begin2:
	.loc	3 212 0                 @ ../Libraries/STM32F4xx_StdPeriph_Driver/src/stm32f4xx_ltdc.c:212:0
	.fnstart
	.cfi_startproc
@ %bb.0:
	.save	{r7, lr}
	push	{r7, lr}
	.cfi_def_cfa_offset 8
	.cfi_offset lr, -4
	.cfi_offset r7, -8
	@DEBUG_VALUE: LTDC_StructInit:LTDC_InitStruct <- $r0
	@DEBUG_VALUE: LTDC_StructInit:LTDC_InitStruct <- $r0
	@DEBUG_VALUE: LTDC_StructInit:LTDC_InitStruct <- $r0
.Ltmp13:
	.loc	3 215 36 prologue_end   @ ../Libraries/STM32F4xx_StdPeriph_Driver/src/stm32f4xx_ltdc.c:215:36
	movs	r1, #60
	bl	__aeabi_memclr4
.Ltmp14:
	.loc	3 229 1                 @ ../Libraries/STM32F4xx_StdPeriph_Driver/src/stm32f4xx_ltdc.c:229:1
	pop	{r7, pc}
.Ltmp15:
.Lfunc_end2:
	.size	LTDC_StructInit, .Lfunc_end2-LTDC_StructInit
	.cfi_endproc
	.cantunwind
	.fnend
                                        @ -- End function
	.section	.text.LTDC_Cmd,"ax",%progbits
	.hidden	LTDC_Cmd                @ -- Begin function LTDC_Cmd
	.globl	LTDC_Cmd
	.p2align	1
	.type	LTDC_Cmd,%function
	.code	16                      @ @LTDC_Cmd
	.thumb_func
LTDC_Cmd:
.Lfunc_begin3:
	.loc	3 239 0                 @ ../Libraries/STM32F4xx_StdPeriph_Driver/src/stm32f4xx_ltdc.c:239:0
	.fnstart
	.cfi_startproc
@ %bb.0:
	@DEBUG_VALUE: LTDC_Cmd:NewState <- $r0
	movw	r1, #26648
.Ltmp16:
	.loc	3 243 7 prologue_end    @ ../Libraries/STM32F4xx_StdPeriph_Driver/src/stm32f4xx_ltdc.c:243:7
	cmp	r0, #0
	movt	r1, #16385
	@DEBUG_VALUE: LTDC_Cmd:NewState <- $r0
.Ltmp17:
	.loc	3 0 0 is_stmt 0         @ ../Libraries/STM32F4xx_StdPeriph_Driver/src/stm32f4xx_ltdc.c:0:0
	ldr	r2, [r1]
.Ltmp18:
	.loc	3 243 7                 @ ../Libraries/STM32F4xx_StdPeriph_Driver/src/stm32f4xx_ltdc.c:243:7
	orr	r3, r2, #1
	it	eq
	biceq	r3, r2, #1
.Ltmp19:
	.loc	3 0 0                   @ ../Libraries/STM32F4xx_StdPeriph_Driver/src/stm32f4xx_ltdc.c:0:0
	str	r3, [r1]
.Ltmp20:
	.loc	3 253 1 is_stmt 1       @ ../Libraries/STM32F4xx_StdPeriph_Driver/src/stm32f4xx_ltdc.c:253:1
	bx	lr
.Ltmp21:
.Lfunc_end3:
	.size	LTDC_Cmd, .Lfunc_end3-LTDC_Cmd
	.cfi_endproc
	.cantunwind
	.fnend
                                        @ -- End function
	.section	.text.LTDC_DitherCmd,"ax",%progbits
	.hidden	LTDC_DitherCmd          @ -- Begin function LTDC_DitherCmd
	.globl	LTDC_DitherCmd
	.p2align	1
	.type	LTDC_DitherCmd,%function
	.code	16                      @ @LTDC_DitherCmd
	.thumb_func
LTDC_DitherCmd:
.Lfunc_begin4:
	.loc	3 263 0                 @ ../Libraries/STM32F4xx_StdPeriph_Driver/src/stm32f4xx_ltdc.c:263:0
	.fnstart
	.cfi_startproc
@ %bb.0:
	@DEBUG_VALUE: LTDC_DitherCmd:NewState <- $r0
	movw	r1, #26648
.Ltmp22:
	.loc	3 267 7 prologue_end    @ ../Libraries/STM32F4xx_StdPeriph_Driver/src/stm32f4xx_ltdc.c:267:7
	cmp	r0, #0
	movt	r1, #16385
	@DEBUG_VALUE: LTDC_DitherCmd:NewState <- $r0
.Ltmp23:
	.loc	3 0 0 is_stmt 0         @ ../Libraries/STM32F4xx_StdPeriph_Driver/src/stm32f4xx_ltdc.c:0:0
	ldr	r2, [r1]
.Ltmp24:
	.loc	3 267 7                 @ ../Libraries/STM32F4xx_StdPeriph_Driver/src/stm32f4xx_ltdc.c:267:7
	orr	r3, r2, #65536
	it	eq
	biceq	r3, r2, #65536
.Ltmp25:
	.loc	3 0 0                   @ ../Libraries/STM32F4xx_StdPeriph_Driver/src/stm32f4xx_ltdc.c:0:0
	str	r3, [r1]
.Ltmp26:
	.loc	3 277 1 is_stmt 1       @ ../Libraries/STM32F4xx_StdPeriph_Driver/src/stm32f4xx_ltdc.c:277:1
	bx	lr
.Ltmp27:
.Lfunc_end4:
	.size	LTDC_DitherCmd, .Lfunc_end4-LTDC_DitherCmd
	.cfi_endproc
	.cantunwind
	.fnend
                                        @ -- End function
	.section	.text.LTDC_GetRGBWidth,"ax",%progbits
	.hidden	LTDC_GetRGBWidth        @ -- Begin function LTDC_GetRGBWidth
	.globl	LTDC_GetRGBWidth
	.p2align	1
	.type	LTDC_GetRGBWidth,%function
	.code	16                      @ @LTDC_GetRGBWidth
	.thumb_func
LTDC_GetRGBWidth:
.Lfunc_begin5:
	.loc	3 287 0                 @ ../Libraries/STM32F4xx_StdPeriph_Driver/src/stm32f4xx_ltdc.c:287:0
	.fnstart
	.cfi_startproc
@ %bb.0:
	@DEBUG_VALUE: LTDC_GetRGBWidth:LTDC_RGB_InitStruct <- [$r0+0]
	movw	r1, #26648
	movw	r3, #34959
	movt	r1, #16385
	@DEBUG_VALUE: LTDC_GetRGBWidth:LTDC_RGB_InitStruct <- [$r0+0]
	movt	r3, #4094
.Ltmp28:
	.loc	3 290 13 prologue_end   @ ../Libraries/STM32F4xx_StdPeriph_Driver/src/stm32f4xx_ltdc.c:290:13
	ldr	r2, [r1]
	ands	r2, r3
	str	r2, [r1]
	.loc	3 292 58                @ ../Libraries/STM32F4xx_StdPeriph_Driver/src/stm32f4xx_ltdc.c:292:58
	ldr	r2, [r1]
	.loc	3 292 68 is_stmt 0      @ ../Libraries/STM32F4xx_StdPeriph_Driver/src/stm32f4xx_ltdc.c:292:68
	ubfx	r2, r2, #4, #3
	.loc	3 292 38                @ ../Libraries/STM32F4xx_StdPeriph_Driver/src/stm32f4xx_ltdc.c:292:38
	str	r2, [r0]
	.loc	3 293 59 is_stmt 1      @ ../Libraries/STM32F4xx_StdPeriph_Driver/src/stm32f4xx_ltdc.c:293:59
	ldr	r2, [r1]
	.loc	3 293 69 is_stmt 0      @ ../Libraries/STM32F4xx_StdPeriph_Driver/src/stm32f4xx_ltdc.c:293:69
	ubfx	r2, r2, #8, #3
	.loc	3 293 39                @ ../Libraries/STM32F4xx_StdPeriph_Driver/src/stm32f4xx_ltdc.c:293:39
	str	r2, [r0, #4]
	.loc	3 294 57 is_stmt 1      @ ../Libraries/STM32F4xx_StdPeriph_Driver/src/stm32f4xx_ltdc.c:294:57
	ldr	r1, [r1]
	.loc	3 294 68 is_stmt 0      @ ../Libraries/STM32F4xx_StdPeriph_Driver/src/stm32f4xx_ltdc.c:294:68
	ubfx	r1, r1, #12, #3
	.loc	3 294 37                @ ../Libraries/STM32F4xx_StdPeriph_Driver/src/stm32f4xx_ltdc.c:294:37
	str	r1, [r0, #8]
	.loc	3 296 3 is_stmt 1       @ ../Libraries/STM32F4xx_StdPeriph_Driver/src/stm32f4xx_ltdc.c:296:3
	bx	lr
.Ltmp29:
.Lfunc_end5:
	.size	LTDC_GetRGBWidth, .Lfunc_end5-LTDC_GetRGBWidth
	.cfi_endproc
	.cantunwind
	.fnend
                                        @ -- End function
	.section	.text.LTDC_RGBStructInit,"ax",%progbits
	.hidden	LTDC_RGBStructInit      @ -- Begin function LTDC_RGBStructInit
	.globl	LTDC_RGBStructInit
	.p2align	1
	.type	LTDC_RGBStructInit,%function
	.code	16                      @ @LTDC_RGBStructInit
	.thumb_func
LTDC_RGBStructInit:
.Lfunc_begin6:
	.loc	3 307 0                 @ ../Libraries/STM32F4xx_StdPeriph_Driver/src/stm32f4xx_ltdc.c:307:0
	.fnstart
	.cfi_startproc
@ %bb.0:
	@DEBUG_VALUE: LTDC_RGBStructInit:LTDC_RGB_InitStruct <- $r0
	movs	r1, #2
	@DEBUG_VALUE: LTDC_RGBStructInit:LTDC_RGB_InitStruct <- $r0
.Ltmp30:
	.loc	3 308 39 prologue_end   @ ../Libraries/STM32F4xx_StdPeriph_Driver/src/stm32f4xx_ltdc.c:308:39
	strd	r1, r1, [r0]
	.loc	3 310 38                @ ../Libraries/STM32F4xx_StdPeriph_Driver/src/stm32f4xx_ltdc.c:310:38
	str	r1, [r0, #8]
	.loc	3 311 1                 @ ../Libraries/STM32F4xx_StdPeriph_Driver/src/stm32f4xx_ltdc.c:311:1
	bx	lr
.Ltmp31:
.Lfunc_end6:
	.size	LTDC_RGBStructInit, .Lfunc_end6-LTDC_RGBStructInit
	.cfi_endproc
	.cantunwind
	.fnend
                                        @ -- End function
	.section	.text.LTDC_LIPConfig,"ax",%progbits
	.hidden	LTDC_LIPConfig          @ -- Begin function LTDC_LIPConfig
	.globl	LTDC_LIPConfig
	.p2align	1
	.type	LTDC_LIPConfig,%function
	.code	16                      @ @LTDC_LIPConfig
	.thumb_func
LTDC_LIPConfig:
.Lfunc_begin7:
	.loc	3 321 0                 @ ../Libraries/STM32F4xx_StdPeriph_Driver/src/stm32f4xx_ltdc.c:321:0
	.fnstart
	.cfi_startproc
@ %bb.0:
	@DEBUG_VALUE: LTDC_LIPConfig:LTDC_LIPositionConfig <- $r0
	movw	r1, #26688
	movt	r1, #16385
	@DEBUG_VALUE: LTDC_LIPConfig:LTDC_LIPositionConfig <- $r0
.Ltmp32:
	.loc	3 326 15 prologue_end   @ ../Libraries/STM32F4xx_StdPeriph_Driver/src/stm32f4xx_ltdc.c:326:15
	str	r0, [r1]
	.loc	3 327 1                 @ ../Libraries/STM32F4xx_StdPeriph_Driver/src/stm32f4xx_ltdc.c:327:1
	bx	lr
.Ltmp33:
.Lfunc_end7:
	.size	LTDC_LIPConfig, .Lfunc_end7-LTDC_LIPConfig
	.cfi_endproc
	.cantunwind
	.fnend
                                        @ -- End function
	.section	.text.LTDC_ReloadConfig,"ax",%progbits
	.hidden	LTDC_ReloadConfig       @ -- Begin function LTDC_ReloadConfig
	.globl	LTDC_ReloadConfig
	.p2align	1
	.type	LTDC_ReloadConfig,%function
	.code	16                      @ @LTDC_ReloadConfig
	.thumb_func
LTDC_ReloadConfig:
.Lfunc_begin8:
	.loc	3 339 0                 @ ../Libraries/STM32F4xx_StdPeriph_Driver/src/stm32f4xx_ltdc.c:339:0
	.fnstart
	.cfi_startproc
@ %bb.0:
	@DEBUG_VALUE: LTDC_ReloadConfig:LTDC_Reload <- $r0
	movw	r1, #26660
	movt	r1, #16385
	@DEBUG_VALUE: LTDC_ReloadConfig:LTDC_Reload <- $r0
.Ltmp34:
	.loc	3 344 14 prologue_end   @ ../Libraries/STM32F4xx_StdPeriph_Driver/src/stm32f4xx_ltdc.c:344:14
	str	r0, [r1]
	.loc	3 345 1                 @ ../Libraries/STM32F4xx_StdPeriph_Driver/src/stm32f4xx_ltdc.c:345:1
	bx	lr
.Ltmp35:
.Lfunc_end8:
	.size	LTDC_ReloadConfig, .Lfunc_end8-LTDC_ReloadConfig
	.cfi_endproc
	.cantunwind
	.fnend
                                        @ -- End function
	.section	.text.LTDC_LayerInit,"ax",%progbits
	.hidden	LTDC_LayerInit          @ -- Begin function LTDC_LayerInit
	.globl	LTDC_LayerInit
	.p2align	1
	.type	LTDC_LayerInit,%function
	.code	16                      @ @LTDC_LayerInit
	.thumb_func
LTDC_LayerInit:
.Lfunc_begin9:
	.loc	3 360 0                 @ ../Libraries/STM32F4xx_StdPeriph_Driver/src/stm32f4xx_ltdc.c:360:0
	.fnstart
	.cfi_startproc
@ %bb.0:
	.save	{r4, lr}
	push	{r4, lr}
	.cfi_def_cfa_offset 8
	.cfi_offset lr, -4
	.cfi_offset r4, -8
	@DEBUG_VALUE: LTDC_LayerInit:LTDC_Layerx <- $r0
	@DEBUG_VALUE: LTDC_LayerInit:LTDC_Layerx <- $r0
	@DEBUG_VALUE: LTDC_LayerInit:LTDC_Layer_InitStruct <- $r1
	@DEBUG_VALUE: LTDC_LayerInit:LTDC_Layer_InitStruct <- $r1
.Ltmp36:
	@DEBUG_VALUE: LTDC_LayerInit:whsppos <- 0
	@DEBUG_VALUE: LTDC_LayerInit:wvsppos <- 0
	@DEBUG_VALUE: LTDC_LayerInit:dcgreen <- 0
	@DEBUG_VALUE: LTDC_LayerInit:dcred <- 0
	@DEBUG_VALUE: LTDC_LayerInit:dcalpha <- 0
	@DEBUG_VALUE: LTDC_LayerInit:cfbp <- 0
	.loc	3 386 36 prologue_end   @ ../Libraries/STM32F4xx_StdPeriph_Driver/src/stm32f4xx_ltdc.c:386:36
	ldr	r2, [r1, #4]
.Ltmp37:
	@DEBUG_VALUE: LTDC_LayerInit:whsppos <- undef
	.loc	3 387 22                @ ../Libraries/STM32F4xx_StdPeriph_Driver/src/stm32f4xx_ltdc.c:387:22
	ldr	r3, [r0, #4]
	movs	r4, #0
	and	r3, r3, #61440
	str	r3, [r0, #4]
	.loc	3 388 48                @ ../Libraries/STM32F4xx_StdPeriph_Driver/src/stm32f4xx_ltdc.c:388:48
	ldr	r3, [r1]
	.loc	3 388 69 is_stmt 0      @ ../Libraries/STM32F4xx_StdPeriph_Driver/src/stm32f4xx_ltdc.c:388:69
	orr.w	r2, r3, r2, lsl #16
	.loc	3 388 22                @ ../Libraries/STM32F4xx_StdPeriph_Driver/src/stm32f4xx_ltdc.c:388:22
	str	r2, [r0, #4]
	.loc	3 391 36 is_stmt 1      @ ../Libraries/STM32F4xx_StdPeriph_Driver/src/stm32f4xx_ltdc.c:391:36
	ldr	r2, [r1, #12]
.Ltmp38:
	@DEBUG_VALUE: LTDC_LayerInit:wvsppos <- undef
	.loc	3 392 22                @ ../Libraries/STM32F4xx_StdPeriph_Driver/src/stm32f4xx_ltdc.c:392:22
	ldr	r3, [r0, #8]
	and	r3, r3, #61440
	str	r3, [r0, #8]
	.loc	3 393 49                @ ../Libraries/STM32F4xx_StdPeriph_Driver/src/stm32f4xx_ltdc.c:393:49
	ldr	r3, [r1, #8]
	.loc	3 393 68 is_stmt 0      @ ../Libraries/STM32F4xx_StdPeriph_Driver/src/stm32f4xx_ltdc.c:393:68
	orr.w	r2, r3, r2, lsl #16
	.loc	3 393 23                @ ../Libraries/STM32F4xx_StdPeriph_Driver/src/stm32f4xx_ltdc.c:393:23
	str	r2, [r0, #8]
	.loc	3 396 21 is_stmt 1      @ ../Libraries/STM32F4xx_StdPeriph_Driver/src/stm32f4xx_ltdc.c:396:21
	ldr	r2, [r0, #16]
	bic	r2, r2, #7
	str	r2, [r0, #16]
	.loc	3 397 47                @ ../Libraries/STM32F4xx_StdPeriph_Driver/src/stm32f4xx_ltdc.c:397:47
	ldr	r2, [r1, #16]
	.loc	3 397 21 is_stmt 0      @ ../Libraries/STM32F4xx_StdPeriph_Driver/src/stm32f4xx_ltdc.c:397:21
	str	r2, [r0, #16]
.Ltmp39:
	@DEBUG_VALUE: LTDC_LayerInit:dcgreen <- undef
	.loc	3 400 37 is_stmt 1      @ ../Libraries/STM32F4xx_StdPeriph_Driver/src/stm32f4xx_ltdc.c:400:37
	ldrd	r12, r3, [r1, #28]
	.loc	3 402 37                @ ../Libraries/STM32F4xx_StdPeriph_Driver/src/stm32f4xx_ltdc.c:402:37
	ldr.w	lr, [r1, #36]
.Ltmp40:
	@DEBUG_VALUE: LTDC_LayerInit:dcalpha <- undef
	.loc	3 403 21                @ ../Libraries/STM32F4xx_StdPeriph_Driver/src/stm32f4xx_ltdc.c:403:21
	ldr	r2, [r0, #24]
	str	r4, [r0, #24]
	.loc	3 404 47                @ ../Libraries/STM32F4xx_StdPeriph_Driver/src/stm32f4xx_ltdc.c:404:47
	ldr	r2, [r1, #24]
	.loc	3 401 56                @ ../Libraries/STM32F4xx_StdPeriph_Driver/src/stm32f4xx_ltdc.c:401:56
	lsls	r3, r3, #16
.Ltmp41:
	@DEBUG_VALUE: LTDC_LayerInit:dcred <- $r3
	.loc	3 404 69                @ ../Libraries/STM32F4xx_StdPeriph_Driver/src/stm32f4xx_ltdc.c:404:69
	orr.w	r3, r3, r12, lsl #8
.Ltmp42:
	.loc	3 404 79 is_stmt 0      @ ../Libraries/STM32F4xx_StdPeriph_Driver/src/stm32f4xx_ltdc.c:404:79
	orr.w	r3, r3, lr, lsl #24
	.loc	3 405 31 is_stmt 1      @ ../Libraries/STM32F4xx_StdPeriph_Driver/src/stm32f4xx_ltdc.c:405:31
	orrs	r2, r3
	movw	r3, #1799
	.loc	3 404 21                @ ../Libraries/STM32F4xx_StdPeriph_Driver/src/stm32f4xx_ltdc.c:404:21
	str	r2, [r0, #24]
	.loc	3 408 21                @ ../Libraries/STM32F4xx_StdPeriph_Driver/src/stm32f4xx_ltdc.c:408:21
	ldr	r2, [r0, #20]
	bic	r2, r2, #255
	str	r2, [r0, #20]
	.loc	3 409 47                @ ../Libraries/STM32F4xx_StdPeriph_Driver/src/stm32f4xx_ltdc.c:409:47
	ldr	r2, [r1, #20]
	.loc	3 409 21 is_stmt 0      @ ../Libraries/STM32F4xx_StdPeriph_Driver/src/stm32f4xx_ltdc.c:409:21
	str	r2, [r0, #20]
	.loc	3 412 21 is_stmt 1      @ ../Libraries/STM32F4xx_StdPeriph_Driver/src/stm32f4xx_ltdc.c:412:21
	ldr	r2, [r0, #28]
	bics	r2, r3
	str	r2, [r0, #28]
	.loc	3 413 47                @ ../Libraries/STM32F4xx_StdPeriph_Driver/src/stm32f4xx_ltdc.c:413:47
	ldrd	r2, r3, [r1, #40]
	.loc	3 413 69 is_stmt 0      @ ../Libraries/STM32F4xx_StdPeriph_Driver/src/stm32f4xx_ltdc.c:413:69
	orrs	r2, r3
	.loc	3 413 21                @ ../Libraries/STM32F4xx_StdPeriph_Driver/src/stm32f4xx_ltdc.c:413:21
	str	r2, [r0, #28]
	.loc	3 416 22 is_stmt 1      @ ../Libraries/STM32F4xx_StdPeriph_Driver/src/stm32f4xx_ltdc.c:416:22
	ldr	r2, [r0, #40]
	str	r4, [r0, #40]
	.loc	3 417 48                @ ../Libraries/STM32F4xx_StdPeriph_Driver/src/stm32f4xx_ltdc.c:417:48
	ldr	r2, [r1, #48]
	.loc	3 417 22 is_stmt 0      @ ../Libraries/STM32F4xx_StdPeriph_Driver/src/stm32f4xx_ltdc.c:417:22
	str	r2, [r0, #40]
	.loc	3 420 34 is_stmt 1      @ ../Libraries/STM32F4xx_StdPeriph_Driver/src/stm32f4xx_ltdc.c:420:34
	ldr	r2, [r1, #56]
.Ltmp43:
	@DEBUG_VALUE: LTDC_LayerInit:cfbp <- undef
	.loc	3 421 23                @ ../Libraries/STM32F4xx_StdPeriph_Driver/src/stm32f4xx_ltdc.c:421:23
	ldr	r3, [r0, #44]
	and	r3, r3, #-536813568
	str	r3, [r0, #44]
	.loc	3 422 49                @ ../Libraries/STM32F4xx_StdPeriph_Driver/src/stm32f4xx_ltdc.c:422:49
	ldr	r3, [r1, #52]
	.loc	3 422 68 is_stmt 0      @ ../Libraries/STM32F4xx_StdPeriph_Driver/src/stm32f4xx_ltdc.c:422:68
	orr.w	r2, r3, r2, lsl #16
	movw	r3, #2047
	.loc	3 422 23                @ ../Libraries/STM32F4xx_StdPeriph_Driver/src/stm32f4xx_ltdc.c:422:23
	str	r2, [r0, #44]
	.loc	3 425 24 is_stmt 1      @ ../Libraries/STM32F4xx_StdPeriph_Driver/src/stm32f4xx_ltdc.c:425:24
	ldr	r2, [r0, #48]
	bics	r2, r3
	str	r2, [r0, #48]
	.loc	3 426 50                @ ../Libraries/STM32F4xx_StdPeriph_Driver/src/stm32f4xx_ltdc.c:426:50
	ldr	r1, [r1, #60]
.Ltmp44:
	.loc	3 426 24 is_stmt 0      @ ../Libraries/STM32F4xx_StdPeriph_Driver/src/stm32f4xx_ltdc.c:426:24
	str	r1, [r0, #48]
	.loc	3 428 1 is_stmt 1       @ ../Libraries/STM32F4xx_StdPeriph_Driver/src/stm32f4xx_ltdc.c:428:1
	pop	{r4, pc}
.Ltmp45:
.Lfunc_end9:
	.size	LTDC_LayerInit, .Lfunc_end9-LTDC_LayerInit
	.cfi_endproc
	.cantunwind
	.fnend
                                        @ -- End function
	.section	.text.LTDC_LayerStructInit,"ax",%progbits
	.hidden	LTDC_LayerStructInit    @ -- Begin function LTDC_LayerStructInit
	.globl	LTDC_LayerStructInit
	.p2align	1
	.type	LTDC_LayerStructInit,%function
	.code	16                      @ @LTDC_LayerStructInit
	.thumb_func
LTDC_LayerStructInit:
.Lfunc_begin10:
	.loc	3 438 0                 @ ../Libraries/STM32F4xx_StdPeriph_Driver/src/stm32f4xx_ltdc.c:438:0
	.fnstart
	.cfi_startproc
@ %bb.0:
	.save	{r4, lr}
	push	{r4, lr}
	.cfi_def_cfa_offset 8
	.cfi_offset lr, -4
	.cfi_offset r4, -8
	@DEBUG_VALUE: LTDC_LayerStructInit:LTDC_Layer_InitStruct <- $r0
.Ltmp46:
	.loc	3 443 46 prologue_end   @ ../Libraries/STM32F4xx_StdPeriph_Driver/src/stm32f4xx_ltdc.c:443:46
	movs	r1, #20
	mov	r4, r0
.Ltmp47:
	@DEBUG_VALUE: LTDC_LayerStructInit:LTDC_Layer_InitStruct <- $r4
	bl	__aeabi_memclr4
	movs	r0, #0
	movs	r1, #255
	movs	r2, #7
	mov.w	r3, #1536
	.loc	3 469 45                @ ../Libraries/STM32F4xx_StdPeriph_Driver/src/stm32f4xx_ltdc.c:469:45
	strd	r0, r0, [r4, #52]
	str	r0, [r4, #60]
	.loc	3 453 45                @ ../Libraries/STM32F4xx_StdPeriph_Driver/src/stm32f4xx_ltdc.c:453:45
	strd	r1, r0, [r4, #20]
	.loc	3 457 49                @ ../Libraries/STM32F4xx_StdPeriph_Driver/src/stm32f4xx_ltdc.c:457:49
	strd	r0, r0, [r4, #28]
	strd	r0, r3, [r4, #36]
	.loc	3 463 48                @ ../Libraries/STM32F4xx_StdPeriph_Driver/src/stm32f4xx_ltdc.c:463:48
	strd	r2, r0, [r4, #44]
	.loc	3 474 1                 @ ../Libraries/STM32F4xx_StdPeriph_Driver/src/stm32f4xx_ltdc.c:474:1
	pop	{r4, pc}
.Ltmp48:
.Lfunc_end10:
	.size	LTDC_LayerStructInit, .Lfunc_end10-LTDC_LayerStructInit
	.cfi_endproc
	.cantunwind
	.fnend
                                        @ -- End function
	.section	.text.LTDC_LayerCmd,"ax",%progbits
	.hidden	LTDC_LayerCmd           @ -- Begin function LTDC_LayerCmd
	.globl	LTDC_LayerCmd
	.p2align	1
	.type	LTDC_LayerCmd,%function
	.code	16                      @ @LTDC_LayerCmd
	.thumb_func
LTDC_LayerCmd:
.Lfunc_begin11:
	.loc	3 487 0                 @ ../Libraries/STM32F4xx_StdPeriph_Driver/src/stm32f4xx_ltdc.c:487:0
	.fnstart
	.cfi_startproc
@ %bb.0:
	@DEBUG_VALUE: LTDC_LayerCmd:LTDC_Layerx <- $r0
	@DEBUG_VALUE: LTDC_LayerCmd:LTDC_Layerx <- $r0
	@DEBUG_VALUE: LTDC_LayerCmd:NewState <- $r1
	@DEBUG_VALUE: LTDC_LayerCmd:NewState <- $r1
	.loc	3 0 0 prologue_end      @ ../Libraries/STM32F4xx_StdPeriph_Driver/src/stm32f4xx_ltdc.c:0:0
	ldr	r2, [r0]
.Ltmp49:
	.loc	3 491 7                 @ ../Libraries/STM32F4xx_StdPeriph_Driver/src/stm32f4xx_ltdc.c:491:7
	cmp	r1, #0
	orr	r3, r2, #1
	it	eq
	biceq	r3, r2, #1
.Ltmp50:
	.loc	3 0 0 is_stmt 0         @ ../Libraries/STM32F4xx_StdPeriph_Driver/src/stm32f4xx_ltdc.c:0:0
	str	r3, [r0]
.Ltmp51:
	.loc	3 501 1 is_stmt 1       @ ../Libraries/STM32F4xx_StdPeriph_Driver/src/stm32f4xx_ltdc.c:501:1
	bx	lr
.Ltmp52:
.Lfunc_end11:
	.size	LTDC_LayerCmd, .Lfunc_end11-LTDC_LayerCmd
	.cfi_endproc
	.cantunwind
	.fnend
                                        @ -- End function
	.section	.text.LTDC_GetPosStatus,"ax",%progbits
	.hidden	LTDC_GetPosStatus       @ -- Begin function LTDC_GetPosStatus
	.globl	LTDC_GetPosStatus
	.p2align	1
	.type	LTDC_GetPosStatus,%function
	.code	16                      @ @LTDC_GetPosStatus
	.thumb_func
LTDC_GetPosStatus:
.Lfunc_begin12:
	.loc	3 512 0                 @ ../Libraries/STM32F4xx_StdPeriph_Driver/src/stm32f4xx_ltdc.c:512:0
	.fnstart
	.cfi_startproc
@ %bb.0:
	@DEBUG_VALUE: LTDC_GetPosStatus:LTDC_Pos_InitStruct <- [$r0+0]
	movw	r1, #26692
	movt	r1, #16385
	@DEBUG_VALUE: LTDC_GetPosStatus:LTDC_Pos_InitStruct <- [$r0+0]
.Ltmp53:
	.loc	3 515 14 prologue_end   @ ../Libraries/STM32F4xx_StdPeriph_Driver/src/stm32f4xx_ltdc.c:515:14
	ldr	r2, [r1]
	movs	r2, #0
	str	r2, [r1]
	.loc	3 517 52                @ ../Libraries/STM32F4xx_StdPeriph_Driver/src/stm32f4xx_ltdc.c:517:52
	ldr	r2, [r1]
	.loc	3 517 57 is_stmt 0      @ ../Libraries/STM32F4xx_StdPeriph_Driver/src/stm32f4xx_ltdc.c:517:57
	lsrs	r2, r2, #16
	.loc	3 517 33                @ ../Libraries/STM32F4xx_StdPeriph_Driver/src/stm32f4xx_ltdc.c:517:33
	str	r2, [r0]
	.loc	3 518 52 is_stmt 1      @ ../Libraries/STM32F4xx_StdPeriph_Driver/src/stm32f4xx_ltdc.c:518:52
	ldr	r1, [r1]
	.loc	3 518 57 is_stmt 0      @ ../Libraries/STM32F4xx_StdPeriph_Driver/src/stm32f4xx_ltdc.c:518:57
	uxth	r1, r1
	.loc	3 518 33                @ ../Libraries/STM32F4xx_StdPeriph_Driver/src/stm32f4xx_ltdc.c:518:33
	str	r1, [r0, #4]
	.loc	3 520 3 is_stmt 1       @ ../Libraries/STM32F4xx_StdPeriph_Driver/src/stm32f4xx_ltdc.c:520:3
	bx	lr
.Ltmp54:
.Lfunc_end12:
	.size	LTDC_GetPosStatus, .Lfunc_end12-LTDC_GetPosStatus
	.cfi_endproc
	.cantunwind
	.fnend
                                        @ -- End function
	.section	.text.LTDC_PosStructInit,"ax",%progbits
	.hidden	LTDC_PosStructInit      @ -- Begin function LTDC_PosStructInit
	.globl	LTDC_PosStructInit
	.p2align	1
	.type	LTDC_PosStructInit,%function
	.code	16                      @ @LTDC_PosStructInit
	.thumb_func
LTDC_PosStructInit:
.Lfunc_begin13:
	.loc	3 531 0                 @ ../Libraries/STM32F4xx_StdPeriph_Driver/src/stm32f4xx_ltdc.c:531:0
	.fnstart
	.cfi_startproc
@ %bb.0:
	@DEBUG_VALUE: LTDC_PosStructInit:LTDC_Pos_InitStruct <- $r0
	movs	r1, #0
	@DEBUG_VALUE: LTDC_PosStructInit:LTDC_Pos_InitStruct <- $r0
.Ltmp55:
	.loc	3 532 34 prologue_end   @ ../Libraries/STM32F4xx_StdPeriph_Driver/src/stm32f4xx_ltdc.c:532:34
	strd	r1, r1, [r0]
	.loc	3 534 1                 @ ../Libraries/STM32F4xx_StdPeriph_Driver/src/stm32f4xx_ltdc.c:534:1
	bx	lr
.Ltmp56:
.Lfunc_end13:
	.size	LTDC_PosStructInit, .Lfunc_end13-LTDC_PosStructInit
	.cfi_endproc
	.cantunwind
	.fnend
                                        @ -- End function
	.section	.text.LTDC_GetCDStatus,"ax",%progbits
	.hidden	LTDC_GetCDStatus        @ -- Begin function LTDC_GetCDStatus
	.globl	LTDC_GetCDStatus
	.p2align	1
	.type	LTDC_GetCDStatus,%function
	.code	16                      @ @LTDC_GetCDStatus
	.thumb_func
LTDC_GetCDStatus:
.Lfunc_begin14:
	.loc	3 548 0                 @ ../Libraries/STM32F4xx_StdPeriph_Driver/src/stm32f4xx_ltdc.c:548:0
	.fnstart
	.cfi_startproc
@ %bb.0:
	@DEBUG_VALUE: LTDC_GetCDStatus:LTDC_CD <- $r0
	movw	r1, #26696
	movt	r1, #16385
	@DEBUG_VALUE: LTDC_GetCDStatus:LTDC_CD <- $r0
.Ltmp57:
	.loc	3 554 14 prologue_end   @ ../Libraries/STM32F4xx_StdPeriph_Driver/src/stm32f4xx_ltdc.c:554:14
	ldr	r1, [r1]
	.loc	3 554 19 is_stmt 0      @ ../Libraries/STM32F4xx_StdPeriph_Driver/src/stm32f4xx_ltdc.c:554:19
	ands	r0, r1
.Ltmp58:
	.loc	3 554 30                @ ../Libraries/STM32F4xx_StdPeriph_Driver/src/stm32f4xx_ltdc.c:554:30
	it	ne
	movne	r0, #1
.Ltmp59:
	@DEBUG_VALUE: LTDC_GetCDStatus:bitstatus <- undef
	.loc	3 562 3 is_stmt 1       @ ../Libraries/STM32F4xx_StdPeriph_Driver/src/stm32f4xx_ltdc.c:562:3
	bx	lr
.Ltmp60:
.Lfunc_end14:
	.size	LTDC_GetCDStatus, .Lfunc_end14-LTDC_GetCDStatus
	.cfi_endproc
	.cantunwind
	.fnend
                                        @ -- End function
	.section	.text.LTDC_ColorKeyingConfig,"ax",%progbits
	.hidden	LTDC_ColorKeyingConfig  @ -- Begin function LTDC_ColorKeyingConfig
	.globl	LTDC_ColorKeyingConfig
	.p2align	1
	.type	LTDC_ColorKeyingConfig,%function
	.code	16                      @ @LTDC_ColorKeyingConfig
	.thumb_func
LTDC_ColorKeyingConfig:
.Lfunc_begin15:
	.loc	3 575 0                 @ ../Libraries/STM32F4xx_StdPeriph_Driver/src/stm32f4xx_ltdc.c:575:0
	.fnstart
	.cfi_startproc
@ %bb.0:
	@DEBUG_VALUE: LTDC_ColorKeyingConfig:LTDC_Layerx <- $r0
	@DEBUG_VALUE: LTDC_ColorKeyingConfig:LTDC_Layerx <- $r0
	@DEBUG_VALUE: LTDC_ColorKeyingConfig:LTDC_colorkeying_InitStruct <- $r1
	@DEBUG_VALUE: LTDC_ColorKeyingConfig:LTDC_colorkeying_InitStruct <- $r1
	@DEBUG_VALUE: LTDC_ColorKeyingConfig:NewState <- $r2
	@DEBUG_VALUE: LTDC_ColorKeyingConfig:NewState <- $r2
	@DEBUG_VALUE: LTDC_ColorKeyingConfig:ckgreen <- 0
	@DEBUG_VALUE: LTDC_ColorKeyingConfig:ckred <- 0
	.loc	3 0 0 prologue_end      @ ../Libraries/STM32F4xx_StdPeriph_Driver/src/stm32f4xx_ltdc.c:0:0
	ldr	r3, [r0]
.Ltmp61:
	.loc	3 585 7                 @ ../Libraries/STM32F4xx_StdPeriph_Driver/src/stm32f4xx_ltdc.c:585:7
	cbz	r2, .LBB15_2
.Ltmp62:
@ %bb.1:
	@DEBUG_VALUE: LTDC_ColorKeyingConfig:NewState <- $r2
	@DEBUG_VALUE: LTDC_ColorKeyingConfig:LTDC_colorkeying_InitStruct <- $r1
	@DEBUG_VALUE: LTDC_ColorKeyingConfig:LTDC_Layerx <- $r0
	.loc	3 588 21                @ ../Libraries/STM32F4xx_StdPeriph_Driver/src/stm32f4xx_ltdc.c:588:21
	orr	r2, r3, #2
.Ltmp63:
	str	r2, [r0]
.Ltmp64:
	@DEBUG_VALUE: LTDC_ColorKeyingConfig:ckgreen <- undef
	.loc	3 591 45                @ ../Libraries/STM32F4xx_StdPeriph_Driver/src/stm32f4xx_ltdc.c:591:45
	ldrd	r12, r3, [r1, #4]
	.loc	3 593 24                @ ../Libraries/STM32F4xx_StdPeriph_Driver/src/stm32f4xx_ltdc.c:593:24
	ldr	r2, [r0, #12]
	and	r2, r2, #-16777216
	str	r2, [r0, #12]
	.loc	3 592 60                @ ../Libraries/STM32F4xx_StdPeriph_Driver/src/stm32f4xx_ltdc.c:592:60
	lsls	r2, r3, #16
.Ltmp65:
	@DEBUG_VALUE: LTDC_ColorKeyingConfig:ckred <- $r2
	.loc	3 594 56                @ ../Libraries/STM32F4xx_StdPeriph_Driver/src/stm32f4xx_ltdc.c:594:56
	ldr	r1, [r1]
.Ltmp66:
	.loc	3 594 74 is_stmt 0      @ ../Libraries/STM32F4xx_StdPeriph_Driver/src/stm32f4xx_ltdc.c:594:74
	orr.w	r2, r2, r12, lsl #8
.Ltmp67:
	.loc	3 594 84                @ ../Libraries/STM32F4xx_StdPeriph_Driver/src/stm32f4xx_ltdc.c:594:84
	orrs	r1, r2
	.loc	3 594 23                @ ../Libraries/STM32F4xx_StdPeriph_Driver/src/stm32f4xx_ltdc.c:594:23
	ldr	r2, [r0, #12]
	orrs	r1, r2
	str	r1, [r0, #12]
	b	.LBB15_3
.Ltmp68:
.LBB15_2:
	@DEBUG_VALUE: LTDC_ColorKeyingConfig:NewState <- $r2
	@DEBUG_VALUE: LTDC_ColorKeyingConfig:LTDC_colorkeying_InitStruct <- $r1
	@DEBUG_VALUE: LTDC_ColorKeyingConfig:LTDC_Layerx <- $r0
	.loc	3 599 21 is_stmt 1      @ ../Libraries/STM32F4xx_StdPeriph_Driver/src/stm32f4xx_ltdc.c:599:21
	bic	r1, r3, #2
.Ltmp69:
	str	r1, [r0]
.Ltmp70:
.LBB15_3:
	@DEBUG_VALUE: LTDC_ColorKeyingConfig:LTDC_Layerx <- $r0
	.loc	3 0 21 is_stmt 0        @ ../Libraries/STM32F4xx_StdPeriph_Driver/src/stm32f4xx_ltdc.c:0:21
	movw	r0, #26660
.Ltmp71:
	movs	r1, #1
	movt	r0, #16385
	.loc	3 603 14 is_stmt 1      @ ../Libraries/STM32F4xx_StdPeriph_Driver/src/stm32f4xx_ltdc.c:603:14
	str	r1, [r0]
	.loc	3 604 1                 @ ../Libraries/STM32F4xx_StdPeriph_Driver/src/stm32f4xx_ltdc.c:604:1
	bx	lr
.Ltmp72:
.Lfunc_end15:
	.size	LTDC_ColorKeyingConfig, .Lfunc_end15-LTDC_ColorKeyingConfig
	.cfi_endproc
	.cantunwind
	.fnend
                                        @ -- End function
	.section	.text.LTDC_ColorKeyingStructInit,"ax",%progbits
	.hidden	LTDC_ColorKeyingStructInit @ -- Begin function LTDC_ColorKeyingStructInit
	.globl	LTDC_ColorKeyingStructInit
	.p2align	1
	.type	LTDC_ColorKeyingStructInit,%function
	.code	16                      @ @LTDC_ColorKeyingStructInit
	.thumb_func
LTDC_ColorKeyingStructInit:
.Lfunc_begin16:
	.loc	3 614 0                 @ ../Libraries/STM32F4xx_StdPeriph_Driver/src/stm32f4xx_ltdc.c:614:0
	.fnstart
	.cfi_startproc
@ %bb.0:
	@DEBUG_VALUE: LTDC_ColorKeyingStructInit:LTDC_colorkeying_InitStruct <- $r0
	movs	r1, #0
	@DEBUG_VALUE: LTDC_ColorKeyingStructInit:LTDC_colorkeying_InitStruct <- $r0
.Ltmp73:
	.loc	3 616 50 prologue_end   @ ../Libraries/STM32F4xx_StdPeriph_Driver/src/stm32f4xx_ltdc.c:616:50
	strd	r1, r1, [r0]
	.loc	3 618 49                @ ../Libraries/STM32F4xx_StdPeriph_Driver/src/stm32f4xx_ltdc.c:618:49
	str	r1, [r0, #8]
	.loc	3 619 1                 @ ../Libraries/STM32F4xx_StdPeriph_Driver/src/stm32f4xx_ltdc.c:619:1
	bx	lr
.Ltmp74:
.Lfunc_end16:
	.size	LTDC_ColorKeyingStructInit, .Lfunc_end16-LTDC_ColorKeyingStructInit
	.cfi_endproc
	.cantunwind
	.fnend
                                        @ -- End function
	.section	.text.LTDC_CLUTCmd,"ax",%progbits
	.hidden	LTDC_CLUTCmd            @ -- Begin function LTDC_CLUTCmd
	.globl	LTDC_CLUTCmd
	.p2align	1
	.type	LTDC_CLUTCmd,%function
	.code	16                      @ @LTDC_CLUTCmd
	.thumb_func
LTDC_CLUTCmd:
.Lfunc_begin17:
	.loc	3 632 0                 @ ../Libraries/STM32F4xx_StdPeriph_Driver/src/stm32f4xx_ltdc.c:632:0
	.fnstart
	.cfi_startproc
@ %bb.0:
	@DEBUG_VALUE: LTDC_CLUTCmd:LTDC_Layerx <- $r0
	@DEBUG_VALUE: LTDC_CLUTCmd:LTDC_Layerx <- $r0
	@DEBUG_VALUE: LTDC_CLUTCmd:NewState <- $r1
	@DEBUG_VALUE: LTDC_CLUTCmd:NewState <- $r1
	.loc	3 0 0 prologue_end      @ ../Libraries/STM32F4xx_StdPeriph_Driver/src/stm32f4xx_ltdc.c:0:0
	ldr	r2, [r0]
.Ltmp75:
	.loc	3 636 7                 @ ../Libraries/STM32F4xx_StdPeriph_Driver/src/stm32f4xx_ltdc.c:636:7
	cmp	r1, #0
	mov.w	r1, #1
.Ltmp76:
	orr	r3, r2, #16
	it	eq
	biceq	r3, r2, #16
.Ltmp77:
	.loc	3 0 0 is_stmt 0         @ ../Libraries/STM32F4xx_StdPeriph_Driver/src/stm32f4xx_ltdc.c:0:0
	str	r3, [r0]
	movw	r0, #26660
.Ltmp78:
	movt	r0, #16385
.Ltmp79:
	.loc	3 648 14 is_stmt 1      @ ../Libraries/STM32F4xx_StdPeriph_Driver/src/stm32f4xx_ltdc.c:648:14
	str	r1, [r0]
	.loc	3 649 1                 @ ../Libraries/STM32F4xx_StdPeriph_Driver/src/stm32f4xx_ltdc.c:649:1
	bx	lr
.Ltmp80:
.Lfunc_end17:
	.size	LTDC_CLUTCmd, .Lfunc_end17-LTDC_CLUTCmd
	.cfi_endproc
	.cantunwind
	.fnend
                                        @ -- End function
	.section	.text.LTDC_CLUTInit,"ax",%progbits
	.hidden	LTDC_CLUTInit           @ -- Begin function LTDC_CLUTInit
	.globl	LTDC_CLUTInit
	.p2align	1
	.type	LTDC_CLUTInit,%function
	.code	16                      @ @LTDC_CLUTInit
	.thumb_func
LTDC_CLUTInit:
.Lfunc_begin18:
	.loc	3 661 0                 @ ../Libraries/STM32F4xx_StdPeriph_Driver/src/stm32f4xx_ltdc.c:661:0
	.fnstart
	.cfi_startproc
@ %bb.0:
	@DEBUG_VALUE: LTDC_CLUTInit:LTDC_Layerx <- $r0
	@DEBUG_VALUE: LTDC_CLUTInit:LTDC_Layerx <- $r0
	@DEBUG_VALUE: LTDC_CLUTInit:LTDC_CLUT_InitStruct <- $r1
	@DEBUG_VALUE: LTDC_CLUTInit:LTDC_CLUT_InitStruct <- $r1
	@DEBUG_VALUE: LTDC_CLUTInit:green <- undef
	@DEBUG_VALUE: LTDC_CLUTInit:red <- 0
	@DEBUG_VALUE: LTDC_CLUTInit:clutadd <- undef
	.loc	3 675 36 prologue_end   @ ../Libraries/STM32F4xx_StdPeriph_Driver/src/stm32f4xx_ltdc.c:675:36
	ldrd	r12, r3, [r1]
	.loc	3 673 34                @ ../Libraries/STM32F4xx_StdPeriph_Driver/src/stm32f4xx_ltdc.c:673:34
	ldrd	r2, r1, [r1, #8]
.Ltmp81:
	.loc	3 674 46                @ ../Libraries/STM32F4xx_StdPeriph_Driver/src/stm32f4xx_ltdc.c:674:46
	lsls	r1, r1, #16
.Ltmp82:
	@DEBUG_VALUE: LTDC_CLUTInit:red <- $r1
	.loc	3 676 35                @ ../Libraries/STM32F4xx_StdPeriph_Driver/src/stm32f4xx_ltdc.c:676:35
	orr.w	r1, r1, r2, lsl #8
.Ltmp83:
	.loc	3 676 74 is_stmt 0      @ ../Libraries/STM32F4xx_StdPeriph_Driver/src/stm32f4xx_ltdc.c:676:74
	orrs	r1, r3
	.loc	3 677 37 is_stmt 1      @ ../Libraries/STM32F4xx_StdPeriph_Driver/src/stm32f4xx_ltdc.c:677:37
	orr.w	r1, r1, r12, lsl #24
	.loc	3 676 24                @ ../Libraries/STM32F4xx_StdPeriph_Driver/src/stm32f4xx_ltdc.c:676:24
	str	r1, [r0, #64]
	.loc	3 678 1                 @ ../Libraries/STM32F4xx_StdPeriph_Driver/src/stm32f4xx_ltdc.c:678:1
	bx	lr
.Ltmp84:
.Lfunc_end18:
	.size	LTDC_CLUTInit, .Lfunc_end18-LTDC_CLUTInit
	.cfi_endproc
	.cantunwind
	.fnend
                                        @ -- End function
	.section	.text.LTDC_CLUTStructInit,"ax",%progbits
	.hidden	LTDC_CLUTStructInit     @ -- Begin function LTDC_CLUTStructInit
	.globl	LTDC_CLUTStructInit
	.p2align	1
	.type	LTDC_CLUTStructInit,%function
	.code	16                      @ @LTDC_CLUTStructInit
	.thumb_func
LTDC_CLUTStructInit:
.Lfunc_begin19:
	.loc	3 688 0                 @ ../Libraries/STM32F4xx_StdPeriph_Driver/src/stm32f4xx_ltdc.c:688:0
	.fnstart
	.cfi_startproc
@ %bb.0:
	@DEBUG_VALUE: LTDC_CLUTStructInit:LTDC_CLUT_InitStruct <- $r0
	movs	r1, #0
	@DEBUG_VALUE: LTDC_CLUTStructInit:LTDC_CLUT_InitStruct <- $r0
.Ltmp85:
	.loc	3 691 40 prologue_end   @ ../Libraries/STM32F4xx_StdPeriph_Driver/src/stm32f4xx_ltdc.c:691:40
	strd	r1, r1, [r0]
	strd	r1, r1, [r0, #8]
	.loc	3 694 1                 @ ../Libraries/STM32F4xx_StdPeriph_Driver/src/stm32f4xx_ltdc.c:694:1
	bx	lr
.Ltmp86:
.Lfunc_end19:
	.size	LTDC_CLUTStructInit, .Lfunc_end19-LTDC_CLUTStructInit
	.cfi_endproc
	.cantunwind
	.fnend
                                        @ -- End function
	.section	.text.LTDC_LayerPosition,"ax",%progbits
	.hidden	LTDC_LayerPosition      @ -- Begin function LTDC_LayerPosition
	.globl	LTDC_LayerPosition
	.p2align	1
	.type	LTDC_LayerPosition,%function
	.code	16                      @ @LTDC_LayerPosition
	.thumb_func
LTDC_LayerPosition:
.Lfunc_begin20:
	.loc	3 708 0                 @ ../Libraries/STM32F4xx_StdPeriph_Driver/src/stm32f4xx_ltdc.c:708:0
	.fnstart
	.cfi_startproc
@ %bb.0:
	@DEBUG_VALUE: LTDC_LayerPosition:LTDC_Layerx <- $r0
	@DEBUG_VALUE: LTDC_LayerPosition:LTDC_Layerx <- $r0
	@DEBUG_VALUE: LTDC_LayerPosition:OffsetX <- $r1
	@DEBUG_VALUE: LTDC_LayerPosition:OffsetX <- $r1
	@DEBUG_VALUE: LTDC_LayerPosition:OffsetY <- $r2
	@DEBUG_VALUE: LTDC_LayerPosition:OffsetY <- $r2
	.loc	3 716 22 prologue_end   @ ../Libraries/STM32F4xx_StdPeriph_Driver/src/stm32f4xx_ltdc.c:716:22
	ldr	r3, [r0, #4]
	and	r3, r3, #61440
	str	r3, [r0, #4]
	.loc	3 717 22                @ ../Libraries/STM32F4xx_StdPeriph_Driver/src/stm32f4xx_ltdc.c:717:22
	ldr	r3, [r0, #8]
	and	r3, r3, #61440
	str	r3, [r0, #8]
	movw	r3, #26636
	movt	r3, #16385
	.loc	3 720 19                @ ../Libraries/STM32F4xx_StdPeriph_Driver/src/stm32f4xx_ltdc.c:720:19
	ldr	r3, [r3]
.Ltmp87:
	@DEBUG_VALUE: LTDC_LayerPosition:tempreg <- $r3
	.loc	3 721 38                @ ../Libraries/STM32F4xx_StdPeriph_Driver/src/stm32f4xx_ltdc.c:721:38
	add.w	r1, r1, r3, lsr #16
.Ltmp88:
	.loc	3 722 39                @ ../Libraries/STM32F4xx_StdPeriph_Driver/src/stm32f4xx_ltdc.c:722:39
	uxtah	r2, r2, r3
.Ltmp89:
	.loc	3 727 26                @ ../Libraries/STM32F4xx_StdPeriph_Driver/src/stm32f4xx_ltdc.c:727:26
	ldr	r3, [r0, #16]
.Ltmp90:
	@DEBUG_VALUE: LTDC_LayerPosition:tempreg <- $r3
	.loc	3 722 43                @ ../Libraries/STM32F4xx_StdPeriph_Driver/src/stm32f4xx_ltdc.c:722:43
	add.w	r12, r2, #1
.Ltmp91:
	@DEBUG_VALUE: LTDC_LayerPosition:vertical_start <- $r12
	.loc	3 721 42                @ ../Libraries/STM32F4xx_StdPeriph_Driver/src/stm32f4xx_ltdc.c:721:42
	adds	r1, #1
.Ltmp92:
	@DEBUG_VALUE: LTDC_LayerPosition:horizontal_start <- $r1
	.loc	3 729 7                 @ ../Libraries/STM32F4xx_StdPeriph_Driver/src/stm32f4xx_ltdc.c:729:7
	cmp	r3, #7
	iteee	hi
	movhi	r3, #1
.Ltmp93:
	movwls	r2, :lower16:.Lswitch.table.LTDC_LayerPixelFormat
	movtls	r2, :upper16:.Lswitch.table.LTDC_LayerPixelFormat
	ldrls.w	r3, [r2, r3, lsl #2]
.Ltmp94:
	@DEBUG_VALUE: LTDC_LayerPosition:temp <- $r3
	.loc	3 749 26                @ ../Libraries/STM32F4xx_StdPeriph_Driver/src/stm32f4xx_ltdc.c:749:26
	ldr	r2, [r0, #44]
.Ltmp95:
	@DEBUG_VALUE: LTDC_LayerPosition:tempreg <- $r2
	.loc	3 750 32                @ ../Libraries/STM32F4xx_StdPeriph_Driver/src/stm32f4xx_ltdc.c:750:32
	bfc	r2, #13, #19
.Ltmp96:
	.loc	3 750 42 is_stmt 0      @ ../Libraries/STM32F4xx_StdPeriph_Driver/src/stm32f4xx_ltdc.c:750:42
	subs	r2, #3
	.loc	3 750 46                @ ../Libraries/STM32F4xx_StdPeriph_Driver/src/stm32f4xx_ltdc.c:750:46
	udiv	r2, r2, r3
	movs	r3, #0
.Ltmp97:
	.loc	3 750 53                @ ../Libraries/STM32F4xx_StdPeriph_Driver/src/stm32f4xx_ltdc.c:750:53
	add	r2, r1
.Ltmp98:
	@DEBUG_VALUE: LTDC_LayerPosition:horizontal_stop <- [DW_OP_plus_uconst 65535, DW_OP_stack_value] $r2
	.loc	3 0 53                  @ ../Libraries/STM32F4xx_StdPeriph_Driver/src/stm32f4xx_ltdc.c:0:53
	movt	r3, #65535
	.loc	3 755 60 is_stmt 1      @ ../Libraries/STM32F4xx_StdPeriph_Driver/src/stm32f4xx_ltdc.c:755:60
	add.w	r2, r3, r2, lsl #16
.Ltmp99:
	.loc	3 755 41 is_stmt 0      @ ../Libraries/STM32F4xx_StdPeriph_Driver/src/stm32f4xx_ltdc.c:755:41
	orrs	r1, r2
.Ltmp100:
	.loc	3 752 26 is_stmt 1      @ ../Libraries/STM32F4xx_StdPeriph_Driver/src/stm32f4xx_ltdc.c:752:26
	ldr	r2, [r0, #48]
.Ltmp101:
	@DEBUG_VALUE: LTDC_LayerPosition:tempreg <- $r2
	.loc	3 755 22                @ ../Libraries/STM32F4xx_StdPeriph_Driver/src/stm32f4xx_ltdc.c:755:22
	str	r1, [r0, #4]
	.loc	3 753 28                @ ../Libraries/STM32F4xx_StdPeriph_Driver/src/stm32f4xx_ltdc.c:753:28
	bfc	r2, #11, #21
.Ltmp102:
	.loc	3 753 37 is_stmt 0      @ ../Libraries/STM32F4xx_StdPeriph_Driver/src/stm32f4xx_ltdc.c:753:37
	add.w	r1, r2, r12
.Ltmp103:
	@DEBUG_VALUE: LTDC_LayerPosition:vertical_stop <- [DW_OP_plus_uconst 65535, DW_OP_stack_value] $r1
	.loc	3 756 56 is_stmt 1      @ ../Libraries/STM32F4xx_StdPeriph_Driver/src/stm32f4xx_ltdc.c:756:56
	add.w	r1, r3, r1, lsl #16
.Ltmp104:
	.loc	3 756 39 is_stmt 0      @ ../Libraries/STM32F4xx_StdPeriph_Driver/src/stm32f4xx_ltdc.c:756:39
	orr.w	r1, r1, r12
	.loc	3 756 22                @ ../Libraries/STM32F4xx_StdPeriph_Driver/src/stm32f4xx_ltdc.c:756:22
	str	r1, [r0, #8]
	.loc	3 757 1 is_stmt 1       @ ../Libraries/STM32F4xx_StdPeriph_Driver/src/stm32f4xx_ltdc.c:757:1
	bx	lr
.Ltmp105:
.Lfunc_end20:
	.size	LTDC_LayerPosition, .Lfunc_end20-LTDC_LayerPosition
	.cfi_endproc
	.cantunwind
	.fnend
                                        @ -- End function
	.section	.text.LTDC_LayerAlpha,"ax",%progbits
	.hidden	LTDC_LayerAlpha         @ -- Begin function LTDC_LayerAlpha
	.globl	LTDC_LayerAlpha
	.p2align	1
	.type	LTDC_LayerAlpha,%function
	.code	16                      @ @LTDC_LayerAlpha
	.thumb_func
LTDC_LayerAlpha:
.Lfunc_begin21:
	.loc	3 769 0                 @ ../Libraries/STM32F4xx_StdPeriph_Driver/src/stm32f4xx_ltdc.c:769:0
	.fnstart
	.cfi_startproc
@ %bb.0:
	@DEBUG_VALUE: LTDC_LayerAlpha:LTDC_Layerx <- $r0
	@DEBUG_VALUE: LTDC_LayerAlpha:LTDC_Layerx <- $r0
	@DEBUG_VALUE: LTDC_LayerAlpha:ConstantAlpha <- $r1
	@DEBUG_VALUE: LTDC_LayerAlpha:ConstantAlpha <- $r1
	.loc	3 771 21 prologue_end   @ ../Libraries/STM32F4xx_StdPeriph_Driver/src/stm32f4xx_ltdc.c:771:21
	str	r1, [r0, #20]
	.loc	3 772 1                 @ ../Libraries/STM32F4xx_StdPeriph_Driver/src/stm32f4xx_ltdc.c:772:1
	bx	lr
.Ltmp106:
.Lfunc_end21:
	.size	LTDC_LayerAlpha, .Lfunc_end21-LTDC_LayerAlpha
	.cfi_endproc
	.cantunwind
	.fnend
                                        @ -- End function
	.section	.text.LTDC_LayerAddress,"ax",%progbits
	.hidden	LTDC_LayerAddress       @ -- Begin function LTDC_LayerAddress
	.globl	LTDC_LayerAddress
	.p2align	1
	.type	LTDC_LayerAddress,%function
	.code	16                      @ @LTDC_LayerAddress
	.thumb_func
LTDC_LayerAddress:
.Lfunc_begin22:
	.loc	3 784 0                 @ ../Libraries/STM32F4xx_StdPeriph_Driver/src/stm32f4xx_ltdc.c:784:0
	.fnstart
	.cfi_startproc
@ %bb.0:
	@DEBUG_VALUE: LTDC_LayerAddress:LTDC_Layerx <- $r0
	@DEBUG_VALUE: LTDC_LayerAddress:LTDC_Layerx <- $r0
	@DEBUG_VALUE: LTDC_LayerAddress:Address <- $r1
	@DEBUG_VALUE: LTDC_LayerAddress:Address <- $r1
	.loc	3 786 22 prologue_end   @ ../Libraries/STM32F4xx_StdPeriph_Driver/src/stm32f4xx_ltdc.c:786:22
	str	r1, [r0, #40]
	.loc	3 787 1                 @ ../Libraries/STM32F4xx_StdPeriph_Driver/src/stm32f4xx_ltdc.c:787:1
	bx	lr
.Ltmp107:
.Lfunc_end22:
	.size	LTDC_LayerAddress, .Lfunc_end22-LTDC_LayerAddress
	.cfi_endproc
	.cantunwind
	.fnend
                                        @ -- End function
	.section	.text.LTDC_LayerSize,"ax",%progbits
	.hidden	LTDC_LayerSize          @ -- Begin function LTDC_LayerSize
	.globl	LTDC_LayerSize
	.p2align	1
	.type	LTDC_LayerSize,%function
	.code	16                      @ @LTDC_LayerSize
	.thumb_func
LTDC_LayerSize:
.Lfunc_begin23:
	.loc	3 800 0                 @ ../Libraries/STM32F4xx_StdPeriph_Driver/src/stm32f4xx_ltdc.c:800:0
	.fnstart
	.cfi_startproc
@ %bb.0:
	@DEBUG_VALUE: LTDC_LayerSize:LTDC_Layerx <- $r0
	@DEBUG_VALUE: LTDC_LayerSize:LTDC_Layerx <- $r0
	@DEBUG_VALUE: LTDC_LayerSize:Width <- $r1
	@DEBUG_VALUE: LTDC_LayerSize:Width <- $r1
	@DEBUG_VALUE: LTDC_LayerSize:Height <- $r2
	@DEBUG_VALUE: LTDC_LayerSize:Height <- $r2
	.loc	3 809 26 prologue_end   @ ../Libraries/STM32F4xx_StdPeriph_Driver/src/stm32f4xx_ltdc.c:809:26
	ldr.w	r12, [r0, #16]
.Ltmp108:
	@DEBUG_VALUE: LTDC_LayerSize:tempreg <- $r12
	.loc	3 811 7                 @ ../Libraries/STM32F4xx_StdPeriph_Driver/src/stm32f4xx_ltdc.c:811:7
	cmp.w	r12, #7
	iteee	hi
	movhi.w	r12, #1
.Ltmp109:
	movwls	r3, :lower16:.Lswitch.table.LTDC_LayerPixelFormat
	movtls	r3, :upper16:.Lswitch.table.LTDC_LayerPixelFormat
	ldrls.w	r12, [r3, r12, lsl #2]
	.save	{r4, r5, r7, lr}
	push	{r4, r5, r7, lr}
	.cfi_def_cfa_offset 16
	.cfi_offset lr, -4
	.cfi_offset r7, -8
	.cfi_offset r5, -12
	.cfi_offset r4, -16
	.loc	3 832 26                @ ../Libraries/STM32F4xx_StdPeriph_Driver/src/stm32f4xx_ltdc.c:832:26
	ldr	r3, [r0, #4]
.Ltmp110:
	@DEBUG_VALUE: LTDC_LayerSize:tempreg <- $r3
	.loc	3 0 26 is_stmt 0        @ ../Libraries/STM32F4xx_StdPeriph_Driver/src/stm32f4xx_ltdc.c:0:26
	movs	r5, #0
	movt	r5, #65535
	.loc	3 833 31 is_stmt 1      @ ../Libraries/STM32F4xx_StdPeriph_Driver/src/stm32f4xx_ltdc.c:833:31
	bfc	r3, #13, #19
.Ltmp111:
	@DEBUG_VALUE: LTDC_LayerSize:horizontal_start <- $r3
	.loc	3 834 27                @ ../Libraries/STM32F4xx_StdPeriph_Driver/src/stm32f4xx_ltdc.c:834:27
	add.w	lr, r3, r1
.Ltmp112:
	@DEBUG_VALUE: LTDC_LayerSize:horizontal_stop <- [DW_OP_plus_uconst 65535, DW_OP_stack_value] $lr
	.loc	3 844 33                @ ../Libraries/STM32F4xx_StdPeriph_Driver/src/stm32f4xx_ltdc.c:844:33
	mul	r1, r12, r1
.Ltmp113:
	.loc	3 840 60                @ ../Libraries/STM32F4xx_StdPeriph_Driver/src/stm32f4xx_ltdc.c:840:60
	add.w	r4, r5, lr, lsl #16
	.loc	3 840 41 is_stmt 0      @ ../Libraries/STM32F4xx_StdPeriph_Driver/src/stm32f4xx_ltdc.c:840:41
	add	r3, r4
.Ltmp114:
	.loc	3 836 26 is_stmt 1      @ ../Libraries/STM32F4xx_StdPeriph_Driver/src/stm32f4xx_ltdc.c:836:26
	ldr	r4, [r0, #8]
.Ltmp115:
	@DEBUG_VALUE: LTDC_LayerSize:tempreg <- $r4
	.loc	3 840 22                @ ../Libraries/STM32F4xx_StdPeriph_Driver/src/stm32f4xx_ltdc.c:840:22
	str	r3, [r0, #4]
	.loc	3 837 29                @ ../Libraries/STM32F4xx_StdPeriph_Driver/src/stm32f4xx_ltdc.c:837:29
	bfc	r4, #13, #19
.Ltmp116:
	@DEBUG_VALUE: LTDC_LayerSize:vertical_start <- $r4
	.loc	3 838 26                @ ../Libraries/STM32F4xx_StdPeriph_Driver/src/stm32f4xx_ltdc.c:838:26
	adds	r3, r4, r2
.Ltmp117:
	@DEBUG_VALUE: LTDC_LayerSize:vertical_stop <- [DW_OP_plus_uconst 65535, DW_OP_stack_value] $r3
	.loc	3 841 56                @ ../Libraries/STM32F4xx_StdPeriph_Driver/src/stm32f4xx_ltdc.c:841:56
	add.w	r3, r5, r3, lsl #16
.Ltmp118:
	.loc	3 841 39 is_stmt 0      @ ../Libraries/STM32F4xx_StdPeriph_Driver/src/stm32f4xx_ltdc.c:841:39
	add	r3, r4
	.loc	3 841 22                @ ../Libraries/STM32F4xx_StdPeriph_Driver/src/stm32f4xx_ltdc.c:841:22
	str	r3, [r0, #8]
	.loc	3 844 66 is_stmt 1      @ ../Libraries/STM32F4xx_StdPeriph_Driver/src/stm32f4xx_ltdc.c:844:66
	adds	r3, r1, #3
	.loc	3 844 48 is_stmt 0      @ ../Libraries/STM32F4xx_StdPeriph_Driver/src/stm32f4xx_ltdc.c:844:48
	orr.w	r1, r3, r1, lsl #16
	.loc	3 844 23                @ ../Libraries/STM32F4xx_StdPeriph_Driver/src/stm32f4xx_ltdc.c:844:23
	str	r1, [r0, #44]
	.loc	3 847 24 is_stmt 1      @ ../Libraries/STM32F4xx_StdPeriph_Driver/src/stm32f4xx_ltdc.c:847:24
	str	r2, [r0, #48]
	.loc	3 849 1                 @ ../Libraries/STM32F4xx_StdPeriph_Driver/src/stm32f4xx_ltdc.c:849:1
	pop	{r4, r5, r7, pc}
.Ltmp119:
.Lfunc_end23:
	.size	LTDC_LayerSize, .Lfunc_end23-LTDC_LayerSize
	.cfi_endproc
	.cantunwind
	.fnend
                                        @ -- End function
	.section	.text.LTDC_LayerPixelFormat,"ax",%progbits
	.hidden	LTDC_LayerPixelFormat   @ -- Begin function LTDC_LayerPixelFormat
	.globl	LTDC_LayerPixelFormat
	.p2align	2
	.type	LTDC_LayerPixelFormat,%function
	.code	16                      @ @LTDC_LayerPixelFormat
	.thumb_func
LTDC_LayerPixelFormat:
.Lfunc_begin24:
	.loc	3 862 0                 @ ../Libraries/STM32F4xx_StdPeriph_Driver/src/stm32f4xx_ltdc.c:862:0
	.fnstart
	.cfi_startproc
@ %bb.0:
	@DEBUG_VALUE: LTDC_LayerPixelFormat:LTDC_Layerx <- $r0
	@DEBUG_VALUE: LTDC_LayerPixelFormat:LTDC_Layerx <- $r0
	@DEBUG_VALUE: LTDC_LayerPixelFormat:PixelFormat <- $r1
	@DEBUG_VALUE: LTDC_LayerPixelFormat:PixelFormat <- $r1
	.loc	3 867 26 prologue_end   @ ../Libraries/STM32F4xx_StdPeriph_Driver/src/stm32f4xx_ltdc.c:867:26
	ldr	r3, [r0, #16]
.Ltmp120:
	@DEBUG_VALUE: LTDC_LayerPixelFormat:tempreg <- $r3
	.loc	3 869 7                 @ ../Libraries/STM32F4xx_StdPeriph_Driver/src/stm32f4xx_ltdc.c:869:7
	cmp	r3, #7
	bhi	.LBB24_5
.Ltmp121:
@ %bb.1:
	@DEBUG_VALUE: LTDC_LayerPixelFormat:tempreg <- $r3
	@DEBUG_VALUE: LTDC_LayerPixelFormat:PixelFormat <- $r1
	@DEBUG_VALUE: LTDC_LayerPixelFormat:LTDC_Layerx <- $r0
	.loc	3 0 7 is_stmt 0         @ ../Libraries/STM32F4xx_StdPeriph_Driver/src/stm32f4xx_ltdc.c:0:7
	mov.w	r12, #4
.LCPI24_0:
	tbb	[pc, r3]
.Ltmp122:
@ %bb.2:
.LJTI24_0:
	.byte	(.LBB24_6-(.LCPI24_0+4))/2
	.byte	(.LBB24_4-(.LCPI24_0+4))/2
	.byte	(.LBB24_3-(.LCPI24_0+4))/2
	.byte	(.LBB24_3-(.LCPI24_0+4))/2
	.byte	(.LBB24_3-(.LCPI24_0+4))/2
	.byte	(.LBB24_5-(.LCPI24_0+4))/2
	.byte	(.LBB24_5-(.LCPI24_0+4))/2
	.byte	(.LBB24_3-(.LCPI24_0+4))/2
	.p2align	1
.LBB24_3:
.Ltmp123:
	@DEBUG_VALUE: LTDC_LayerPixelFormat:tempreg <- $r3
	@DEBUG_VALUE: LTDC_LayerPixelFormat:PixelFormat <- $r1
	@DEBUG_VALUE: LTDC_LayerPixelFormat:LTDC_Layerx <- $r0
	mov.w	r12, #2
	b	.LBB24_6
.Ltmp124:
.LBB24_4:
	@DEBUG_VALUE: LTDC_LayerPixelFormat:tempreg <- $r3
	@DEBUG_VALUE: LTDC_LayerPixelFormat:PixelFormat <- $r1
	@DEBUG_VALUE: LTDC_LayerPixelFormat:LTDC_Layerx <- $r0
	mov.w	r12, #3
	b	.LBB24_6
.Ltmp125:
.LBB24_5:
	@DEBUG_VALUE: LTDC_LayerPixelFormat:tempreg <- $r3
	@DEBUG_VALUE: LTDC_LayerPixelFormat:PixelFormat <- $r1
	@DEBUG_VALUE: LTDC_LayerPixelFormat:LTDC_Layerx <- $r0
	mov.w	r12, #1
.Ltmp126:
	@DEBUG_VALUE: LTDC_LayerPixelFormat:temp <- 1
.LBB24_6:
	@DEBUG_VALUE: LTDC_LayerPixelFormat:tempreg <- $r3
	@DEBUG_VALUE: LTDC_LayerPixelFormat:PixelFormat <- $r1
	@DEBUG_VALUE: LTDC_LayerPixelFormat:LTDC_Layerx <- $r0
	.loc	3 889 27 is_stmt 1      @ ../Libraries/STM32F4xx_StdPeriph_Driver/src/stm32f4xx_ltdc.c:889:27
	ldr	r2, [r0, #44]
	.loc	3 892 7                 @ ../Libraries/STM32F4xx_StdPeriph_Driver/src/stm32f4xx_ltdc.c:892:7
	cmp	r1, #7
	iteee	hi
	movhi	r3, #1
.Ltmp127:
	movwls	r3, :lower16:.Lswitch.table.LTDC_LayerPixelFormat
	movtls	r3, :upper16:.Lswitch.table.LTDC_LayerPixelFormat
	ldrls.w	r3, [r3, r1, lsl #2]
	.loc	3 889 33                @ ../Libraries/STM32F4xx_StdPeriph_Driver/src/stm32f4xx_ltdc.c:889:33
	lsrs	r2, r2, #16
.Ltmp128:
	@DEBUG_VALUE: LTDC_LayerPixelFormat:tempreg <- $r2
	.loc	3 890 22                @ ../Libraries/STM32F4xx_StdPeriph_Driver/src/stm32f4xx_ltdc.c:890:22
	udiv	r2, r2, r12
.Ltmp129:
	@DEBUG_VALUE: LTDC_LayerPixelFormat:tempreg <- $r2
	.loc	3 913 35                @ ../Libraries/STM32F4xx_StdPeriph_Driver/src/stm32f4xx_ltdc.c:913:35
	muls	r2, r3, r2
.Ltmp130:
	.loc	3 913 70 is_stmt 0      @ ../Libraries/STM32F4xx_StdPeriph_Driver/src/stm32f4xx_ltdc.c:913:70
	adds	r3, r2, #3
	.loc	3 913 50                @ ../Libraries/STM32F4xx_StdPeriph_Driver/src/stm32f4xx_ltdc.c:913:50
	orr.w	r2, r3, r2, lsl #16
	.loc	3 913 23                @ ../Libraries/STM32F4xx_StdPeriph_Driver/src/stm32f4xx_ltdc.c:913:23
	str	r2, [r0, #44]
	.loc	3 916 21 is_stmt 1      @ ../Libraries/STM32F4xx_StdPeriph_Driver/src/stm32f4xx_ltdc.c:916:21
	str	r1, [r0, #16]
	.loc	3 918 1                 @ ../Libraries/STM32F4xx_StdPeriph_Driver/src/stm32f4xx_ltdc.c:918:1
	bx	lr
.Ltmp131:
.Lfunc_end24:
	.size	LTDC_LayerPixelFormat, .Lfunc_end24-LTDC_LayerPixelFormat
	.cfi_endproc
	.cantunwind
	.fnend
                                        @ -- End function
	.section	.text.LTDC_ITConfig,"ax",%progbits
	.hidden	LTDC_ITConfig           @ -- Begin function LTDC_ITConfig
	.globl	LTDC_ITConfig
	.p2align	1
	.type	LTDC_ITConfig,%function
	.code	16                      @ @LTDC_ITConfig
	.thumb_func
LTDC_ITConfig:
.Lfunc_begin25:
	.loc	3 976 0                 @ ../Libraries/STM32F4xx_StdPeriph_Driver/src/stm32f4xx_ltdc.c:976:0
	.fnstart
	.cfi_startproc
@ %bb.0:
	@DEBUG_VALUE: LTDC_ITConfig:LTDC_IT <- $r0
	@DEBUG_VALUE: LTDC_ITConfig:NewState <- $r1
	movw	r2, #26676
.Ltmp132:
	.loc	3 981 7 prologue_end    @ ../Libraries/STM32F4xx_StdPeriph_Driver/src/stm32f4xx_ltdc.c:981:7
	cmp	r1, #0
	movt	r2, #16385
	@DEBUG_VALUE: LTDC_ITConfig:NewState <- $r1
	@DEBUG_VALUE: LTDC_ITConfig:LTDC_IT <- $r0
.Ltmp133:
	.loc	3 987 15                @ ../Libraries/STM32F4xx_StdPeriph_Driver/src/stm32f4xx_ltdc.c:987:15
	ldr	r1, [r2]
.Ltmp134:
	ite	eq
	biceq.w	r0, r1, r0
.Ltmp135:
	.loc	3 983 15                @ ../Libraries/STM32F4xx_StdPeriph_Driver/src/stm32f4xx_ltdc.c:983:15
	orrne	r0, r1
.Ltmp136:
	.loc	3 0 0 is_stmt 0         @ ../Libraries/STM32F4xx_StdPeriph_Driver/src/stm32f4xx_ltdc.c:0:0
	str	r0, [r2]
.Ltmp137:
	.loc	3 989 1 is_stmt 1       @ ../Libraries/STM32F4xx_StdPeriph_Driver/src/stm32f4xx_ltdc.c:989:1
	bx	lr
.Ltmp138:
.Lfunc_end25:
	.size	LTDC_ITConfig, .Lfunc_end25-LTDC_ITConfig
	.cfi_endproc
	.cantunwind
	.fnend
                                        @ -- End function
	.section	.text.LTDC_GetFlagStatus,"ax",%progbits
	.hidden	LTDC_GetFlagStatus      @ -- Begin function LTDC_GetFlagStatus
	.globl	LTDC_GetFlagStatus
	.p2align	1
	.type	LTDC_GetFlagStatus,%function
	.code	16                      @ @LTDC_GetFlagStatus
	.thumb_func
LTDC_GetFlagStatus:
.Lfunc_begin26:
	.loc	3 1002 0                @ ../Libraries/STM32F4xx_StdPeriph_Driver/src/stm32f4xx_ltdc.c:1002:0
	.fnstart
	.cfi_startproc
@ %bb.0:
	@DEBUG_VALUE: LTDC_GetFlagStatus:LTDC_FLAG <- $r0
	movw	r1, #26680
	movt	r1, #16385
.Ltmp139:
	@DEBUG_VALUE: LTDC_GetFlagStatus:bitstatus <- 0
	@DEBUG_VALUE: LTDC_GetFlagStatus:LTDC_FLAG <- $r0
	.loc	3 1008 14 prologue_end  @ ../Libraries/STM32F4xx_StdPeriph_Driver/src/stm32f4xx_ltdc.c:1008:14
	ldr	r1, [r1]
	.loc	3 1008 18 is_stmt 0     @ ../Libraries/STM32F4xx_StdPeriph_Driver/src/stm32f4xx_ltdc.c:1008:18
	ands	r0, r1
.Ltmp140:
	.loc	3 1008 31               @ ../Libraries/STM32F4xx_StdPeriph_Driver/src/stm32f4xx_ltdc.c:1008:31
	it	ne
	movne	r0, #1
.Ltmp141:
	@DEBUG_VALUE: LTDC_GetFlagStatus:bitstatus <- undef
	.loc	3 1016 3 is_stmt 1      @ ../Libraries/STM32F4xx_StdPeriph_Driver/src/stm32f4xx_ltdc.c:1016:3
	bx	lr
.Ltmp142:
.Lfunc_end26:
	.size	LTDC_GetFlagStatus, .Lfunc_end26-LTDC_GetFlagStatus
	.cfi_endproc
	.cantunwind
	.fnend
                                        @ -- End function
	.section	.text.LTDC_ClearFlag,"ax",%progbits
	.hidden	LTDC_ClearFlag          @ -- Begin function LTDC_ClearFlag
	.globl	LTDC_ClearFlag
	.p2align	1
	.type	LTDC_ClearFlag,%function
	.code	16                      @ @LTDC_ClearFlag
	.thumb_func
LTDC_ClearFlag:
.Lfunc_begin27:
	.loc	3 1030 0                @ ../Libraries/STM32F4xx_StdPeriph_Driver/src/stm32f4xx_ltdc.c:1030:0
	.fnstart
	.cfi_startproc
@ %bb.0:
	@DEBUG_VALUE: LTDC_ClearFlag:LTDC_FLAG <- $r0
	movw	r1, #26684
	movt	r1, #16385
	@DEBUG_VALUE: LTDC_ClearFlag:LTDC_FLAG <- $r0
.Ltmp143:
	.loc	3 1035 13 prologue_end  @ ../Libraries/STM32F4xx_StdPeriph_Driver/src/stm32f4xx_ltdc.c:1035:13
	str	r0, [r1]
	.loc	3 1036 1                @ ../Libraries/STM32F4xx_StdPeriph_Driver/src/stm32f4xx_ltdc.c:1036:1
	bx	lr
.Ltmp144:
.Lfunc_end27:
	.size	LTDC_ClearFlag, .Lfunc_end27-LTDC_ClearFlag
	.cfi_endproc
	.cantunwind
	.fnend
                                        @ -- End function
	.section	.text.LTDC_GetITStatus,"ax",%progbits
	.hidden	LTDC_GetITStatus        @ -- Begin function LTDC_GetITStatus
	.globl	LTDC_GetITStatus
	.p2align	1
	.type	LTDC_GetITStatus,%function
	.code	16                      @ @LTDC_GetITStatus
	.thumb_func
LTDC_GetITStatus:
.Lfunc_begin28:
	.loc	3 1049 0                @ ../Libraries/STM32F4xx_StdPeriph_Driver/src/stm32f4xx_ltdc.c:1049:0
	.fnstart
	.cfi_startproc
@ %bb.0:
	@DEBUG_VALUE: LTDC_GetITStatus:LTDC_IT <- $r0
	movw	r1, #26676
	movt	r1, #16385
.Ltmp145:
	@DEBUG_VALUE: LTDC_GetITStatus:bitstatus <- 0
	@DEBUG_VALUE: LTDC_GetITStatus:LTDC_IT <- $r0
	.loc	3 1055 14 prologue_end  @ ../Libraries/STM32F4xx_StdPeriph_Driver/src/stm32f4xx_ltdc.c:1055:14
	ldr	r2, [r1, #4]
	.loc	3 1055 18 is_stmt 0     @ ../Libraries/STM32F4xx_StdPeriph_Driver/src/stm32f4xx_ltdc.c:1055:18
	ands	r2, r0
	.loc	3 1055 29               @ ../Libraries/STM32F4xx_StdPeriph_Driver/src/stm32f4xx_ltdc.c:1055:29
	it	ne
	movne	r2, #1
.Ltmp146:
	.loc	3 1064 15 is_stmt 1     @ ../Libraries/STM32F4xx_StdPeriph_Driver/src/stm32f4xx_ltdc.c:1064:15
	ldr	r1, [r1]
	.loc	3 1064 19 is_stmt 0     @ ../Libraries/STM32F4xx_StdPeriph_Driver/src/stm32f4xx_ltdc.c:1064:19
	ands	r0, r1
.Ltmp147:
	.loc	3 1064 30               @ ../Libraries/STM32F4xx_StdPeriph_Driver/src/stm32f4xx_ltdc.c:1064:30
	it	ne
	movne	r0, #1
	.loc	3 1064 50               @ ../Libraries/STM32F4xx_StdPeriph_Driver/src/stm32f4xx_ltdc.c:1064:50
	ands	r0, r2
.Ltmp148:
	@DEBUG_VALUE: LTDC_GetITStatus:bitstatus <- undef
	.loc	3 1072 3 is_stmt 1      @ ../Libraries/STM32F4xx_StdPeriph_Driver/src/stm32f4xx_ltdc.c:1072:3
	bx	lr
.Ltmp149:
.Lfunc_end28:
	.size	LTDC_GetITStatus, .Lfunc_end28-LTDC_GetITStatus
	.cfi_endproc
	.cantunwind
	.fnend
                                        @ -- End function
	.section	.text.LTDC_ClearITPendingBit,"ax",%progbits
	.hidden	LTDC_ClearITPendingBit  @ -- Begin function LTDC_ClearITPendingBit
	.globl	LTDC_ClearITPendingBit
	.p2align	1
	.type	LTDC_ClearITPendingBit,%function
	.code	16                      @ @LTDC_ClearITPendingBit
	.thumb_func
LTDC_ClearITPendingBit:
.Lfunc_begin29:
	.loc	3 1087 0                @ ../Libraries/STM32F4xx_StdPeriph_Driver/src/stm32f4xx_ltdc.c:1087:0
	.fnstart
	.cfi_startproc
@ %bb.0:
	@DEBUG_VALUE: LTDC_ClearITPendingBit:LTDC_IT <- $r0
	movw	r1, #26684
	movt	r1, #16385
	@DEBUG_VALUE: LTDC_ClearITPendingBit:LTDC_IT <- $r0
.Ltmp150:
	.loc	3 1092 13 prologue_end  @ ../Libraries/STM32F4xx_StdPeriph_Driver/src/stm32f4xx_ltdc.c:1092:13
	str	r0, [r1]
	.loc	3 1093 1                @ ../Libraries/STM32F4xx_StdPeriph_Driver/src/stm32f4xx_ltdc.c:1093:1
	bx	lr
.Ltmp151:
.Lfunc_end29:
	.size	LTDC_ClearITPendingBit, .Lfunc_end29-LTDC_ClearITPendingBit
	.cfi_endproc
	.cantunwind
	.fnend
                                        @ -- End function
	.type	.Lswitch.table.LTDC_LayerPixelFormat,%object @ @switch.table.LTDC_LayerPixelFormat
	.section	.rodata.cst32,"aM",%progbits,32
	.p2align	2
.Lswitch.table.LTDC_LayerPixelFormat:
	.long	4                       @ 0x4
	.long	3                       @ 0x3
	.long	2                       @ 0x2
	.long	2                       @ 0x2
	.long	2                       @ 0x2
	.long	1                       @ 0x1
	.long	1                       @ 0x1
	.long	2                       @ 0x2
	.size	.Lswitch.table.LTDC_LayerPixelFormat, 32

	.file	4 "F:\\SkyDrive\\OtvoreniProjekti\\HotelSaplast\\fw\\KontrolerHotela\\HC070318\\Project" "../Libraries/STM32F4xx_StdPeriph_Driver/inc\\stm32f4xx_ltdc.h"
	.section	".note.GNU-stack","",%progbits
	.eabi_attribute	30, 3	@ Tag_ABI_optimization_goals
	.ARM_attribute	16, 1	@ Tag_AV_eba