	.text
	.syntax unified
	.eabi_attribute	67, "2.09"	@ Tag_conformance
	.cpu	cortex-m4
	.eabi_attribute	6, 13	@ Tag_CPU_arch
	.eabi_attribute	7, 77	@ Tag_CPU_arch_profile
	.eabi_attribute	8, 0	@ Tag_ARM_ISA_use
	.eabi_attribute	9, 2	@ Tag_THUMB_ISA_use
	.fpu	fpv4-sp-d16
	.eabi_attribute	27, 1	@ Tag_ABI_HardFP_use
	.eabi_attribute	36, 1	@ Tag_FP_HP_extension
	.eabi_attribute	34, 1	@ Tag_CPU_unaligned_access
	.eabi_attribute	17, 1	@ Tag_ABI_PCS_GOT_use
	.eabi_attribute	20, 2	@ Tag_ABI_FP_denormal
	.eabi_attribute	21, 0	@ Tag_ABI_FP_exceptions
	.eabi_attribute	23, 1	@ Tag_ABI_FP_number_model
	.eabi_attribute	24, 1	@ Tag_ABI_align_needed
	.eabi_attribute	25, 1	@ Tag_ABI_align_preserved
	.eabi_attribute	28, 1	@ Tag_ABI_VFP_args
	.eabi_attribute	38, 1	@ Tag_ABI_FP_16bit_format
	.eabi_attribute	18, 2	@ Tag_ABI_PCS_wchar_t
	.eabi_attribute	26, 1	@ Tag_ABI_enum_size
	.eabi_attribute	14, 0	@ Tag_ABI_PCS_R9_use
	.file	"stm32f4xx_adc.c"
	.file	1 "F:\\SkyDrive\\OtvoreniProjekti\\HotelSaplast\\fw\\KontrolerHotela\\HC070318\\Project" "../Libraries/CMSIS/Device/ST/STM32F4xx/Include\\stm32f4xx.h"
	.file	2 "C:\\Keil\\ARM\\ARMCLANG\\Bin\\..\\include" "stdint.h"
	.section	.text.ADC_DeInit,"ax",%progbits
	.hidden	ADC_DeInit              @ -- Begin function ADC_DeInit
	.globl	ADC_DeInit
	.p2align	1
	.type	ADC_DeInit,%function
	.code	16                      @ @ADC_DeInit
	.thumb_func
ADC_DeInit:
.Lfunc_begin0:
	.file	3 "F:\\SkyDrive\\OtvoreniProjekti\\HotelSaplast\\fw\\KontrolerHotela\\HC070318\\Project" "../Libraries/STM32F4xx_StdPeriph_Driver/src/stm32f4xx_adc.c"
	.loc	3 214 0                 @ ../Libraries/STM32F4xx_StdPeriph_Driver/src/stm32f4xx_adc.c:214:0
	.fnstart
	.cfi_sections .debug_frame
	.cfi_startproc
@ %bb.0:
	.save	{r7, lr}
	push	{r7, lr}
	.cfi_def_cfa_offset 8
	.cfi_offset lr, -4
	.cfi_offset r7, -8
.Ltmp0:
	.loc	3 216 3 prologue_end    @ ../Libraries/STM32F4xx_StdPeriph_Driver/src/stm32f4xx_adc.c:216:3
	mov.w	r0, #256
	movs	r1, #1
	bl	RCC_APB2PeriphResetCmd
	.loc	3 219 3                 @ ../Libraries/STM32F4xx_StdPeriph_Driver/src/stm32f4xx_adc.c:219:3
	mov.w	r0, #256
	movs	r1, #0
	pop.w	{r7, lr}
	b	RCC_APB2PeriphResetCmd
.Ltmp1:
.Lfunc_end0:
	.size	ADC_DeInit, .Lfunc_end0-ADC_DeInit
	.cfi_endproc
	.cantunwind
	.fnend
                                        @ -- End function
	.section	.text.ADC_Init,"ax",%progbits
	.hidden	ADC_Init                @ -- Begin function ADC_Init
	.globl	ADC_Init
	.p2align	1
	.type	ADC_Init,%function
	.code	16                      @ @ADC_Init
	.thumb_func
ADC_Init:
.Lfunc_begin1:
	.loc	3 236 0                 @ ../Libraries/STM32F4xx_StdPeriph_Driver/src/stm32f4xx_adc.c:236:0
	.fnstart
	.cfi_startproc
@ %bb.0:
	.save	{r7, lr}
	push	{r7, lr}
	.cfi_def_cfa_offset 8
	.cfi_offset lr, -4
	.cfi_offset r7, -8
	@DEBUG_VALUE: ADC_Init:ADCx <- $r0
	@DEBUG_VALUE: ADC_Init:ADCx <- $r0
	@DEBUG_VALUE: ADC_Init:ADC_InitStruct <- $r1
	@DEBUG_VALUE: ADC_Init:ADC_InitStruct <- $r1
.Ltmp2:
	@DEBUG_VALUE: ADC_Init:tmpreg1 <- 0
	@DEBUG_VALUE: ADC_Init:tmpreg2 <- 0
	movw	r3, #65279
.Ltmp3:
	.loc	3 251 19 prologue_end   @ ../Libraries/STM32F4xx_StdPeriph_Driver/src/stm32f4xx_adc.c:251:19
	ldr	r2, [r0, #4]
.Ltmp4:
	@DEBUG_VALUE: ADC_Init:tmpreg1 <- $r2
	.loc	3 0 19 is_stmt 0        @ ../Libraries/STM32F4xx_StdPeriph_Driver/src/stm32f4xx_adc.c:0:19
	movt	r3, #64767
	.loc	3 254 11 is_stmt 1      @ ../Libraries/STM32F4xx_StdPeriph_Driver/src/stm32f4xx_adc.c:254:11
	ands	r2, r3
.Ltmp5:
	@DEBUG_VALUE: ADC_Init:tmpreg1 <- $r2
	.loc	3 260 52                @ ../Libraries/STM32F4xx_StdPeriph_Driver/src/stm32f4xx_adc.c:260:52
	ldr	r3, [r1]
	.loc	3 259 75                @ ../Libraries/STM32F4xx_StdPeriph_Driver/src/stm32f4xx_adc.c:259:75
	orrs	r2, r3
.Ltmp6:
	.loc	3 259 52 is_stmt 0      @ ../Libraries/STM32F4xx_StdPeriph_Driver/src/stm32f4xx_adc.c:259:52
	ldrb	r3, [r1, #4]
	.loc	3 259 11                @ ../Libraries/STM32F4xx_StdPeriph_Driver/src/stm32f4xx_adc.c:259:11
	orr.w	r2, r2, r3, lsl #8
.Ltmp7:
	@DEBUG_VALUE: ADC_Init:tmpreg1 <- $r2
	.loc	3 0 11                  @ ../Libraries/STM32F4xx_StdPeriph_Driver/src/stm32f4xx_adc.c:0:11
	movw	r3, #63485
	.loc	3 262 13 is_stmt 1      @ ../Libraries/STM32F4xx_StdPeriph_Driver/src/stm32f4xx_adc.c:262:13
	str	r2, [r0, #4]
	movt	r3, #49407
	.loc	3 265 19                @ ../Libraries/STM32F4xx_StdPeriph_Driver/src/stm32f4xx_adc.c:265:19
	ldr	r2, [r0, #8]
.Ltmp8:
	@DEBUG_VALUE: ADC_Init:tmpreg1 <- $r2
	.loc	3 268 11                @ ../Libraries/STM32F4xx_StdPeriph_Driver/src/stm32f4xx_adc.c:268:11
	and.w	lr, r2, r3
.Ltmp9:
	@DEBUG_VALUE: ADC_Init:tmpreg1 <- $lr
	.loc	3 278 41                @ ../Libraries/STM32F4xx_StdPeriph_Driver/src/stm32f4xx_adc.c:278:41
	ldrd	r12, r3, [r1, #8]
	.loc	3 276 41                @ ../Libraries/STM32F4xx_StdPeriph_Driver/src/stm32f4xx_adc.c:276:41
	ldr	r2, [r1, #16]
	.loc	3 276 55 is_stmt 0      @ ../Libraries/STM32F4xx_StdPeriph_Driver/src/stm32f4xx_adc.c:276:55
	orr.w	r2, r2, lr
	.loc	3 277 62 is_stmt 1      @ ../Libraries/STM32F4xx_StdPeriph_Driver/src/stm32f4xx_adc.c:277:62
	orrs	r2, r3
	.loc	3 279 52                @ ../Libraries/STM32F4xx_StdPeriph_Driver/src/stm32f4xx_adc.c:279:52
	ldrb	r3, [r1, #5]
	.loc	3 278 66                @ ../Libraries/STM32F4xx_StdPeriph_Driver/src/stm32f4xx_adc.c:278:66
	orr.w	r2, r2, r12
	.loc	3 276 11                @ ../Libraries/STM32F4xx_StdPeriph_Driver/src/stm32f4xx_adc.c:276:11
	orr.w	r2, r2, r3, lsl #1
.Ltmp10:
	@DEBUG_VALUE: ADC_Init:tmpreg1 <- $r2
	.loc	3 282 13                @ ../Libraries/STM32F4xx_StdPeriph_Driver/src/stm32f4xx_adc.c:282:13
	str	r2, [r0, #8]
	.loc	3 285 19                @ ../Libraries/STM32F4xx_StdPeriph_Driver/src/stm32f4xx_adc.c:285:19
	ldr	r2, [r0, #44]
.Ltmp11:
	@DEBUG_VALUE: ADC_Init:tmpreg1 <- $r2
	.loc	3 292 40                @ ../Libraries/STM32F4xx_StdPeriph_Driver/src/stm32f4xx_adc.c:292:40
	ldrb	r1, [r1, #20]
.Ltmp12:
	.loc	3 292 60 is_stmt 0      @ ../Libraries/STM32F4xx_StdPeriph_Driver/src/stm32f4xx_adc.c:292:60
	subs	r1, #1
.Ltmp13:
	@DEBUG_VALUE: ADC_Init:tmpreg2 <- $r1
	.loc	3 288 11 is_stmt 1      @ ../Libraries/STM32F4xx_StdPeriph_Driver/src/stm32f4xx_adc.c:288:11
	bic	r2, r2, #15728640
.Ltmp14:
	@DEBUG_VALUE: ADC_Init:tmpreg1 <- $r2
	.loc	3 292 14                @ ../Libraries/STM32F4xx_StdPeriph_Driver/src/stm32f4xx_adc.c:292:14
	uxtb	r1, r1
.Ltmp15:
	.loc	3 293 11                @ ../Libraries/STM32F4xx_StdPeriph_Driver/src/stm32f4xx_adc.c:293:11
	orr.w	r1, r2, r1, lsl #20
.Ltmp16:
	@DEBUG_VALUE: ADC_Init:tmpreg1 <- $r1
	.loc	3 296 14                @ ../Libraries/STM32F4xx_StdPeriph_Driver/src/stm32f4xx_adc.c:296:14
	str	r1, [r0, #44]
	.loc	3 297 1                 @ ../Libraries/STM32F4xx_StdPeriph_Driver/src/stm32f4xx_adc.c:297:1
	pop	{r7, pc}
.Ltmp17:
.Lfunc_end1:
	.size	ADC_Init, .Lfunc_end1-ADC_Init
	.cfi_endproc
	.cantunwind
	.fnend
                                        @ -- End function
	.section	.text.ADC_StructInit,"ax",%progbits
	.hidden	ADC_StructInit          @ -- Begin function ADC_StructInit
	.globl	ADC_StructInit
	.p2align	1
	.type	ADC_StructInit,%function
	.code	16                      @ @ADC_StructInit
	.thumb_func
ADC_StructInit:
.Lfunc_begin2:
	.loc	3 311 0                 @ ../Libraries/STM32F4xx_StdPeriph_Driver/src/stm32f4xx_adc.c:311:0
	.fnstart
	.cfi_startproc
@ %bb.0:
	@DEBUG_VALUE: ADC_StructInit:ADC_InitStruct <- $r0
	movs	r1, #1
	@DEBUG_VALUE: ADC_StructInit:ADC_InitStruct <- $r0
.Ltmp18:
	.loc	3 331 39 prologue_end   @ ../Libraries/STM32F4xx_StdPeriph_Driver/src/stm32f4xx_adc.c:331:39
	strb	r1, [r0, #20]
	movs	r1, #0
	.loc	3 322 44                @ ../Libraries/STM32F4xx_StdPeriph_Driver/src/stm32f4xx_adc.c:322:44
	strd	r1, r1, [r0, #8]
	.loc	3 328 33                @ ../Libraries/STM32F4xx_StdPeriph_Driver/src/stm32f4xx_adc.c:328:33
	str	r1, [r0, #16]
	.loc	3 316 36                @ ../Libraries/STM32F4xx_StdPeriph_Driver/src/stm32f4xx_adc.c:316:36
	strh	r1, [r0, #4]
	.loc	3 313 34                @ ../Libraries/STM32F4xx_StdPeriph_Driver/src/stm32f4xx_adc.c:313:34
	str	r1, [r0]
	.loc	3 332 1                 @ ../Libraries/STM32F4xx_StdPeriph_Driver/src/stm32f4xx_adc.c:332:1
	bx	lr
.Ltmp19:
.Lfunc_end2:
	.size	ADC_StructInit, .Lfunc_end2-ADC_StructInit
	.cfi_endproc
	.cantunwind
	.fnend
                                        @ -- End function
	.section	.text.ADC_CommonInit,"ax",%progbits
	.hidden	ADC_CommonInit          @ -- Begin function ADC_CommonInit
	.globl	ADC_CommonInit
	.p2align	1
	.type	ADC_CommonInit,%function
	.code	16                      @ @ADC_CommonInit
	.thumb_func
ADC_CommonInit:
.Lfunc_begin3:
	.loc	3 342 0                 @ ../Libraries/STM32F4xx_StdPeriph_Driver/src/stm32f4xx_adc.c:342:0
	.fnstart
	.cfi_startproc
@ %bb.0:
	.save	{r7, lr}
	push	{r7, lr}
	.cfi_def_cfa_offset 8
	.cfi_offset lr, -4
	.cfi_offset r7, -8
	@DEBUG_VALUE: ADC_CommonInit:ADC_CommonInitStruct <- $r0
	movw	r12, #8964
	movw	r3, #12512
	movt	r12, #16385
.Ltmp20:
	@DEBUG_VALUE: ADC_CommonInit:tmpreg1 <- 0
	@DEBUG_VALUE: ADC_CommonInit:ADC_CommonInitStruct <- $r0
	movt	r3, #65532
.Ltmp21:
	.loc	3 351 18 prologue_end   @ ../Libraries/STM32F4xx_StdPeriph_Driver/src/stm32f4xx_adc.c:351:18
	ldr.w	r2, [r12]
.Ltmp22:
	@DEBUG_VALUE: ADC_CommonInit:tmpreg1 <- $r2
	.loc	3 354 11                @ ../Libraries/STM32F4xx_StdPeriph_Driver/src/stm32f4xx_adc.c:354:11
	and.w	lr, r2, r3
.Ltmp23:
	@DEBUG_VALUE: ADC_CommonInit:tmpreg1 <- $lr
	.loc	3 362 47                @ ../Libraries/STM32F4xx_StdPeriph_Driver/src/stm32f4xx_adc.c:362:47
	ldrd	r3, r1, [r0]
	.loc	3 364 47                @ ../Libraries/STM32F4xx_StdPeriph_Driver/src/stm32f4xx_adc.c:364:47
	ldrd	r2, r0, [r0, #8]
.Ltmp24:
	.loc	3 362 56                @ ../Libraries/STM32F4xx_StdPeriph_Driver/src/stm32f4xx_adc.c:362:56
	orr.w	r3, r3, lr
	.loc	3 363 61                @ ../Libraries/STM32F4xx_StdPeriph_Driver/src/stm32f4xx_adc.c:363:61
	orrs	r1, r3
	.loc	3 364 65                @ ../Libraries/STM32F4xx_StdPeriph_Driver/src/stm32f4xx_adc.c:364:65
	orrs	r1, r2
	.loc	3 362 11                @ ../Libraries/STM32F4xx_StdPeriph_Driver/src/stm32f4xx_adc.c:362:11
	orrs	r0, r1
.Ltmp25:
	@DEBUG_VALUE: ADC_CommonInit:tmpreg1 <- $r0
	.loc	3 368 12                @ ../Libraries/STM32F4xx_StdPeriph_Driver/src/stm32f4xx_adc.c:368:12
	str.w	r0, [r12]
	.loc	3 369 1                 @ ../Libraries/STM32F4xx_StdPeriph_Driver/src/stm32f4xx_adc.c:369:1
	pop	{r7, pc}
.Ltmp26:
.Lfunc_end3:
	.size	ADC_CommonInit, .Lfunc_end3-ADC_CommonInit
	.cfi_endproc
	.cantunwind
	.fnend
                                        @ -- End function
	.section	.text.ADC_CommonStructInit,"ax",%progbits
	.hidden	ADC_CommonStructInit    @ -- Begin function ADC_CommonStructInit
	.globl	ADC_CommonStructInit
	.p2align	1
	.type	ADC_CommonStructInit,%function
	.code	16                      @ @ADC_CommonStructInit
	.thumb_func
ADC_CommonStructInit:
.Lfunc_begin4:
	.loc	3 378 0                 @ ../Libraries/STM32F4xx_StdPeriph_Driver/src/stm32f4xx_adc.c:378:0
	.fnstart
	.cfi_startproc
@ %bb.0:
	@DEBUG_VALUE: ADC_CommonStructInit:ADC_CommonInitStruct <- $r0
	movs	r1, #0
	@DEBUG_VALUE: ADC_CommonStructInit:ADC_CommonInitStruct <- $r0
.Ltmp27:
	.loc	3 383 39 prologue_end   @ ../Libraries/STM32F4xx_StdPeriph_Driver/src/stm32f4xx_adc.c:383:39
	strd	r1, r1, [r0]
	strd	r1, r1, [r0, #8]
	.loc	3 390 1                 @ ../Libraries/STM32F4xx_StdPeriph_Driver/src/stm32f4xx_adc.c:390:1
	bx	lr
.Ltmp28:
.Lfunc_end4:
	.size	ADC_CommonStructInit, .Lfunc_end4-ADC_CommonStructInit
	.cfi_endproc
	.cantunwind
	.fnend
                                        @ -- End function
	.section	.text.ADC_Cmd,"ax",%progbits
	.hidden	ADC_Cmd                 @ -- Begin function ADC_Cmd
	.globl	ADC_Cmd
	.p2align	1
	.type	ADC_Cmd,%function
	.code	16                      @ @ADC_Cmd
	.thumb_func
ADC_Cmd:
.Lfunc_begin5:
	.loc	3 400 0                 @ ../Libraries/STM32F4xx_StdPeriph_Driver/src/stm32f4xx_adc.c:400:0
	.fnstart
	.cfi_startproc
@ %bb.0:
	@DEBUG_VALUE: ADC_Cmd:ADCx <- $r0
	@DEBUG_VALUE: ADC_Cmd:ADCx <- $r0
	@DEBUG_VALUE: ADC_Cmd:NewState <- $r1
	@DEBUG_VALUE: ADC_Cmd:NewState <- $r1
	.loc	3 0 0 prologue_end      @ ../Libraries/STM32F4xx_StdPeriph_Driver/src/stm32f4xx_adc.c:0:0
	ldr	r2, [r0, #8]
.Ltmp29:
	.loc	3 404 7                 @ ../Libraries/STM32F4xx_StdPeriph_Driver/src/stm32f4xx_adc.c:404:7
	cmp	r1, #0
	orr	r3, r2, #1
	it	eq
	biceq	r3, r2, #1
.Ltmp30:
	.loc	3 0 0 is_stmt 0         @ ../Libraries/STM32F4xx_StdPeriph_Driver/src/stm32f4xx_adc.c:0:0
	str	r3, [r0, #8]
.Ltmp31:
	.loc	3 414 1 is_stmt 1       @ ../Libraries/STM32F4xx_StdPeriph_Driver/src/stm32f4xx_adc.c:414:1
	bx	lr
.Ltmp32:
.Lfunc_end5:
	.size	ADC_Cmd, .Lfunc_end5-ADC_Cmd
	.cfi_endproc
	.cantunwind
	.fnend
                                        @ -- End function
	.section	.text.ADC_AnalogWatchdogCmd,"ax",%progbits
	.hidden	ADC_AnalogWatchdogCmd   @ -- Begin function ADC_AnalogWatchdogCmd
	.globl	ADC_AnalogWatchdogCmd
	.p2align	1
	.type	ADC_AnalogWatchdogCmd,%function
	.code	16                      @ @ADC_AnalogWatchdogCmd
	.thumb_func
ADC_AnalogWatchdogCmd:
.Lfunc_begin6:
	.loc	3 456 0                 @ ../Libraries/STM32F4xx_StdPeriph_Driver/src/stm32f4xx_adc.c:456:0
	.fnstart
	.cfi_startproc
@ %bb.0:
	@DEBUG_VALUE: ADC_AnalogWatchdogCmd:ADCx <- $r0
	@DEBUG_VALUE: ADC_AnalogWatchdogCmd:ADCx <- $r0
	@DEBUG_VALUE: ADC_AnalogWatchdogCmd:ADC_AnalogWatchdog <- $r1
	@DEBUG_VALUE: ADC_AnalogWatchdogCmd:ADC_AnalogWatchdog <- $r1
	@DEBUG_VALUE: ADC_AnalogWatchdogCmd:tmpreg <- 0
	movw	r3, #65023
.Ltmp33:
	.loc	3 463 18 prologue_end   @ ../Libraries/STM32F4xx_StdPeriph_Driver/src/stm32f4xx_adc.c:463:18
	ldr	r2, [r0, #4]
.Ltmp34:
	@DEBUG_VALUE: ADC_AnalogWatchdogCmd:tmpreg <- $r2
	.loc	3 0 18 is_stmt 0        @ ../Libraries/STM32F4xx_StdPeriph_Driver/src/stm32f4xx_adc.c:0:18
	movt	r3, #65343
	.loc	3 466 10 is_stmt 1      @ ../Libraries/STM32F4xx_StdPeriph_Driver/src/stm32f4xx_adc.c:466:10
	ands	r2, r3
.Ltmp35:
	@DEBUG_VALUE: ADC_AnalogWatchdogCmd:tmpreg <- $r2
	.loc	3 469 10                @ ../Libraries/STM32F4xx_StdPeriph_Driver/src/stm32f4xx_adc.c:469:10
	orrs	r1, r2
.Ltmp36:
	@DEBUG_VALUE: ADC_AnalogWatchdogCmd:tmpreg <- $r1
	.loc	3 472 13                @ ../Libraries/STM32F4xx_StdPeriph_Driver/src/stm32f4xx_adc.c:472:13
	str	r1, [r0, #4]
	.loc	3 473 1                 @ ../Libraries/STM32F4xx_StdPeriph_Driver/src/stm32f4xx_adc.c:473:1
	bx	lr
.Ltmp37:
.Lfunc_end6:
	.size	ADC_AnalogWatchdogCmd, .Lfunc_end6-ADC_AnalogWatchdogCmd
	.cfi_endproc
	.cantunwind
	.fnend
                                        @ -- End function
	.section	.text.ADC_AnalogWatchdogThresholdsConfig,"ax",%progbits
	.hidden	ADC_AnalogWatchdogThresholdsConfig @ -- Begin function ADC_AnalogWatchdogThresholdsConfig
	.globl	ADC_AnalogWatchdogThresholdsConfig
	.p2align	1
	.type	ADC_AnalogWatchdogThresholdsConfig,%function
	.code	16                      @ @ADC_AnalogWatchdogThresholdsConfig
	.thumb_func
ADC_AnalogWatchdogThresholdsConfig:
.Lfunc_begin7:
	.loc	3 486 0                 @ ../Libraries/STM32F4xx_StdPeriph_Driver/src/stm32f4xx_adc.c:486:0
	.fnstart
	.cfi_startproc
@ %bb.0:
	@DEBUG_VALUE: ADC_AnalogWatchdogThresholdsConfig:ADCx <- $r0
	@DEBUG_VALUE: ADC_AnalogWatchdogThresholdsConfig:ADCx <- $r0
	@DEBUG_VALUE: ADC_AnalogWatchdogThresholdsConfig:HighThreshold <- $r1
	@DEBUG_VALUE: ADC_AnalogWatchdogThresholdsConfig:HighThreshold <- $r1
	@DEBUG_VALUE: ADC_AnalogWatchdogThresholdsConfig:LowThreshold <- $r2
	@DEBUG_VALUE: ADC_AnalogWatchdogThresholdsConfig:LowThreshold <- $r2
	.loc	3 493 13 prologue_end   @ ../Libraries/STM32F4xx_StdPeriph_Driver/src/stm32f4xx_adc.c:493:13
	str	r1, [r0, #36]
	.loc	3 496 13                @ ../Libraries/STM32F4xx_StdPeriph_Driver/src/stm32f4xx_adc.c:496:13
	str	r2, [r0, #40]
	.loc	3 497 1                 @ ../Libraries/STM32F4xx_StdPeriph_Driver/src/stm32f4xx_adc.c:497:1
	bx	lr
.Ltmp38:
.Lfunc_end7:
	.size	ADC_AnalogWatchdogThresholdsConfig, .Lfunc_end7-ADC_AnalogWatchdogThresholdsConfig
	.cfi_endproc
	.cantunwind
	.fnend
                                        @ -- End function
	.section	.text.ADC_AnalogWatchdogSingleChannelConfig,"ax",%progbits
	.hidden	ADC_AnalogWatchdogSingleChannelConfig @ -- Begin function ADC_AnalogWatchdogSingleChannelConfig
	.globl	ADC_AnalogWatchdogSingleChannelConfig
	.p2align	1
	.type	ADC_AnalogWatchdogSingleChannelConfig,%function
	.code	16                      @ @ADC_AnalogWatchdogSingleChannelConfig
	.thumb_func
ADC_AnalogWatchdogSingleChannelConfig:
.Lfunc_begin8:
	.loc	3 526 0                 @ ../Libraries/STM32F4xx_StdPeriph_Driver/src/stm32f4xx_adc.c:526:0
	.fnstart
	.cfi_startproc
@ %bb.0:
	@DEBUG_VALUE: ADC_AnalogWatchdogSingleChannelConfig:ADCx <- $r0
	@DEBUG_VALUE: ADC_AnalogWatchdogSingleChannelConfig:ADCx <- $r0
	@DEBUG_VALUE: ADC_AnalogWatchdogSingleChannelConfig:ADC_Channel <- $r1
	@DEBUG_VALUE: ADC_AnalogWatchdogSingleChannelConfig:ADC_Channel <- $r1
	@DEBUG_VALUE: ADC_AnalogWatchdogSingleChannelConfig:tmpreg <- 0
	.loc	3 533 18 prologue_end   @ ../Libraries/STM32F4xx_StdPeriph_Driver/src/stm32f4xx_adc.c:533:18
	ldr	r2, [r0, #4]
.Ltmp39:
	@DEBUG_VALUE: ADC_AnalogWatchdogSingleChannelConfig:tmpreg <- $r2
	.loc	3 536 10                @ ../Libraries/STM32F4xx_StdPeriph_Driver/src/stm32f4xx_adc.c:536:10
	bic	r2, r2, #31
.Ltmp40:
	@DEBUG_VALUE: ADC_AnalogWatchdogSingleChannelConfig:tmpreg <- $r2
	.loc	3 539 10                @ ../Libraries/STM32F4xx_StdPeriph_Driver/src/stm32f4xx_adc.c:539:10
	orrs	r1, r2
.Ltmp41:
	@DEBUG_VALUE: ADC_AnalogWatchdogSingleChannelConfig:tmpreg <- $r1
	.loc	3 542 13                @ ../Libraries/STM32F4xx_StdPeriph_Driver/src/stm32f4xx_adc.c:542:13
	str	r1, [r0, #4]
	.loc	3 543 1                 @ ../Libraries/STM32F4xx_StdPeriph_Driver/src/stm32f4xx_adc.c:543:1
	bx	lr
.Ltmp42:
.Lfunc_end8:
	.size	ADC_AnalogWatchdogSingleChannelConfig, .Lfunc_end8-ADC_AnalogWatchdogSingleChannelConfig
	.cfi_endproc
	.cantunwind
	.fnend
                                        @ -- End function
	.section	.text.ADC_TempSensorVrefintCmd,"ax",%progbits
	.hidden	ADC_TempSensorVrefintCmd @ -- Begin function ADC_TempSensorVrefintCmd
	.globl	ADC_TempSensorVrefintCmd
	.p2align	1
	.type	ADC_TempSensorVrefintCmd,%function
	.code	16                      @ @ADC_TempSensorVrefintCmd
	.thumb_func
ADC_TempSensorVrefintCmd:
.Lfunc_begin9:
	.loc	3 590 0                 @ ../Libraries/STM32F4xx_StdPeriph_Driver/src/stm32f4xx_adc.c:590:0
	.fnstart
	.cfi_startproc
@ %bb.0:
	@DEBUG_VALUE: ADC_TempSensorVrefintCmd:NewState <- $r0
	movw	r1, #8964
.Ltmp43:
	.loc	3 593 7 prologue_end    @ ../Libraries/STM32F4xx_StdPeriph_Driver/src/stm32f4xx_adc.c:593:7
	cmp	r0, #0
	movt	r1, #16385
	@DEBUG_VALUE: ADC_TempSensorVrefintCmd:NewState <- $r0
.Ltmp44:
	.loc	3 0 0 is_stmt 0         @ ../Libraries/STM32F4xx_StdPeriph_Driver/src/stm32f4xx_adc.c:0:0
	ldr	r2, [r1]
.Ltmp45:
	.loc	3 593 7                 @ ../Libraries/STM32F4xx_StdPeriph_Driver/src/stm32f4xx_adc.c:593:7
	orr	r3, r2, #8388608
	it	eq
	biceq	r3, r2, #8388608
.Ltmp46:
	.loc	3 0 0                   @ ../Libraries/STM32F4xx_StdPeriph_Driver/src/stm32f4xx_adc.c:0:0
	str	r3, [r1]
.Ltmp47:
	.loc	3 603 1 is_stmt 1       @ ../Libraries/STM32F4xx_StdPeriph_Driver/src/stm32f4xx_adc.c:603:1
	bx	lr
.Ltmp48:
.Lfunc_end9:
	.size	ADC_TempSensorVrefintCmd, .Lfunc_end9-ADC_TempSensorVrefintCmd
	.cfi_endproc
	.cantunwind
	.fnend
                                        @ -- End function
	.section	.text.ADC_VBATCmd,"ax",%progbits
	.hidden	ADC_VBATCmd             @ -- Begin function ADC_VBATCmd
	.globl	ADC_VBATCmd
	.p2align	1
	.type	ADC_VBATCmd,%function
	.code	16                      @ @ADC_VBATCmd
	.thumb_func
ADC_VBATCmd:
.Lfunc_begin10:
	.loc	3 616 0                 @ ../Libraries/STM32F4xx_StdPeriph_Driver/src/stm32f4xx_adc.c:616:0
	.fnstart
	.cfi_startproc
@ %bb.0:
	@DEBUG_VALUE: ADC_VBATCmd:NewState <- $r0
	movw	r1, #8964
.Ltmp49:
	.loc	3 619 7 prologue_end    @ ../Libraries/STM32F4xx_StdPeriph_Driver/src/stm32f4xx_adc.c:619:7
	cmp	r0, #0
	movt	r1, #16385
	@DEBUG_VALUE: ADC_VBATCmd:NewState <- $r0
.Ltmp50:
	.loc	3 0 0 is_stmt 0         @ ../Libraries/STM32F4xx_StdPeriph_Driver/src/stm32f4xx_adc.c:0:0
	ldr	r2, [r1]
.Ltmp51:
	.loc	3 619 7                 @ ../Libraries/STM32F4xx_StdPeriph_Driver/src/stm32f4xx_adc.c:619:7
	orr	r3, r2, #4194304
	it	eq
	biceq	r3, r2, #4194304
.Ltmp52:
	.loc	3 0 0                   @ ../Libraries/STM32F4xx_StdPeriph_Driver/src/stm32f4xx_adc.c:0:0
	str	r3, [r1]
.Ltmp53:
	.loc	3 629 1 is_stmt 1       @ ../Libraries/STM32F4xx_StdPeriph_Driver/src/stm32f4xx_adc.c:629:1
	bx	lr
.Ltmp54:
.Lfunc_end10:
	.size	ADC_VBATCmd, .Lfunc_end10-ADC_VBATCmd
	.cfi_endproc
	.cantunwind
	.fnend
                                        @ -- End function
	.section	.text.ADC_RegularChannelConfig,"ax",%progbits
	.hidden	ADC_RegularChannelConfig @ -- Begin function ADC_RegularChannelConfig
	.globl	ADC_RegularChannelConfig
	.p2align	1
	.type	ADC_RegularChannelConfig,%function
	.code	16                      @ @ADC_RegularChannelConfig
	.thumb_func
ADC_RegularChannelConfig:
.Lfunc_begin11:
	.loc	3 716 0                 @ ../Libraries/STM32F4xx_StdPeriph_Driver/src/stm32f4xx_adc.c:716:0
	.fnstart
	.cfi_startproc
@ %bb.0:
	.save	{r4, lr}
	push	{r4, lr}
	.cfi_def_cfa_offset 8
	.cfi_offset lr, -4
	.cfi_offset r4, -8
	@DEBUG_VALUE: ADC_RegularChannelConfig:ADCx <- $r0
	@DEBUG_VALUE: ADC_RegularChannelConfig:ADCx <- $r0
	@DEBUG_VALUE: ADC_RegularChannelConfig:ADC_Channel <- $r1
	@DEBUG_VALUE: ADC_RegularChannelConfig:ADC_Channel <- $r1
	@DEBUG_VALUE: ADC_RegularChannelConfig:Rank <- $r2
	@DEBUG_VALUE: ADC_RegularChannelConfig:Rank <- $r2
	@DEBUG_VALUE: ADC_RegularChannelConfig:ADC_SampleTime <- $r3
	@DEBUG_VALUE: ADC_RegularChannelConfig:ADC_SampleTime <- $r3
.Ltmp55:
	.loc	3 725 7 prologue_end    @ ../Libraries/STM32F4xx_StdPeriph_Driver/src/stm32f4xx_adc.c:725:7
	add.w	r12, r1, r1, lsl #1
	cmp	r1, #9
	it	hi
	subhi.w	r12, r12, #30
.Ltmp56:
	.loc	3 0 0 is_stmt 0         @ ../Libraries/STM32F4xx_StdPeriph_Driver/src/stm32f4xx_adc.c:0:0
	lsl.w	lr, r3, r12
	movs	r3, #7
.Ltmp57:
	.loc	3 725 7                 @ ../Libraries/STM32F4xx_StdPeriph_Driver/src/stm32f4xx_adc.c:725:7
	cmp	r1, #9
.Ltmp58:
	.loc	3 0 0                   @ ../Libraries/STM32F4xx_StdPeriph_Driver/src/stm32f4xx_adc.c:0:0
	lsl.w	r12, r3, r12
	mov.w	r3, #16
.Ltmp59:
	.loc	3 725 7                 @ ../Libraries/STM32F4xx_StdPeriph_Driver/src/stm32f4xx_adc.c:725:7
	it	hi
	movhi	r3, #12
.Ltmp60:
	.loc	3 0 0                   @ ../Libraries/STM32F4xx_StdPeriph_Driver/src/stm32f4xx_adc.c:0:0
	ldr	r4, [r0, r3]
.Ltmp61:
	.loc	3 766 7 is_stmt 1       @ ../Libraries/STM32F4xx_StdPeriph_Driver/src/stm32f4xx_adc.c:766:7
	cmp	r2, #6
.Ltmp62:
	.loc	3 0 0 is_stmt 0         @ ../Libraries/STM32F4xx_StdPeriph_Driver/src/stm32f4xx_adc.c:0:0
	bic.w	r4, r4, r12
	orr.w	r4, r4, lr
	str	r4, [r0, r3]
.Ltmp63:
	@DEBUG_VALUE: ADC_RegularChannelConfig:tmpreg2 <- 0
	@DEBUG_VALUE: ADC_RegularChannelConfig:tmpreg1 <- 0
	.loc	3 766 7                 @ ../Libraries/STM32F4xx_StdPeriph_Driver/src/stm32f4xx_adc.c:766:7
	bhi	.LBB11_2
.Ltmp64:
@ %bb.1:
	@DEBUG_VALUE: ADC_RegularChannelConfig:Rank <- $r2
	@DEBUG_VALUE: ADC_RegularChannelConfig:ADC_Channel <- $r1
	@DEBUG_VALUE: ADC_RegularChannelConfig:ADCx <- $r0
	.loc	3 769 21 is_stmt 1      @ ../Libraries/STM32F4xx_StdPeriph_Driver/src/stm32f4xx_adc.c:769:21
	adds	r0, #52
.Ltmp65:
	.loc	3 0 21 is_stmt 0        @ ../Libraries/STM32F4xx_StdPeriph_Driver/src/stm32f4xx_adc.c:0:21
	mvn	r3, #4
	b	.LBB11_3
.Ltmp66:
.LBB11_2:
	@DEBUG_VALUE: ADC_RegularChannelConfig:Rank <- $r2
	@DEBUG_VALUE: ADC_RegularChannelConfig:ADC_Channel <- $r1
	@DEBUG_VALUE: ADC_RegularChannelConfig:ADCx <- $r0
	.loc	3 787 12 is_stmt 1      @ ../Libraries/STM32F4xx_StdPeriph_Driver/src/stm32f4xx_adc.c:787:12
	cmp	r2, #12
.Ltmp67:
	.loc	3 811 21                @ ../Libraries/STM32F4xx_StdPeriph_Driver/src/stm32f4xx_adc.c:811:21
	ittee	hi
	addhi	r0, #44
.Ltmp68:
	.loc	3 0 21 is_stmt 0        @ ../Libraries/STM32F4xx_StdPeriph_Driver/src/stm32f4xx_adc.c:0:21
	mvnhi	r3, #64
.Ltmp69:
	.loc	3 790 21 is_stmt 1      @ ../Libraries/STM32F4xx_StdPeriph_Driver/src/stm32f4xx_adc.c:790:21
	addls	r0, #48
	mvnls	r3, #34
.Ltmp70:
.LBB11_3:
	@DEBUG_VALUE: ADC_RegularChannelConfig:Rank <- $r2
	@DEBUG_VALUE: ADC_RegularChannelConfig:ADC_Channel <- $r1
	.loc	3 0 0 is_stmt 0         @ ../Libraries/STM32F4xx_StdPeriph_Driver/src/stm32f4xx_adc.c:0:0
	add.w	r2, r2, r2, lsl #2
.Ltmp71:
	add	r2, r3
	movs	r3, #31
	lsls	r1, r2
.Ltmp72:
	@DEBUG_VALUE: ADC_RegularChannelConfig:tmpreg2 <- $r1
	lsl.w	r2, r3, r2
.Ltmp73:
	@DEBUG_VALUE: ADC_RegularChannelConfig:tmpreg2 <- $r2
	ldr	r3, [r0]
.Ltmp74:
	@DEBUG_VALUE: ADC_RegularChannelConfig:tmpreg1 <- $r3
	bic.w	r2, r3, r2
.Ltmp75:
	@DEBUG_VALUE: ADC_RegularChannelConfig:tmpreg1 <- $r2
	orrs	r1, r2
.Ltmp76:
	@DEBUG_VALUE: ADC_RegularChannelConfig:tmpreg1 <- $r1
	str	r1, [r0]
.Ltmp77:
	.loc	3 828 1 is_stmt 1       @ ../Libraries/STM32F4xx_StdPeriph_Driver/src/stm32f4xx_adc.c:828:1
	pop	{r4, pc}
.Ltmp78:
.Lfunc_end11:
	.size	ADC_RegularChannelConfig, .Lfunc_end11-ADC_RegularChannelConfig
	.cfi_endproc
	.cantunwind
	.fnend
                                        @ -- End function
	.section	.text.ADC_SoftwareStartConv,"ax",%progbits
	.hidden	ADC_SoftwareStartConv   @ -- Begin function ADC_SoftwareStartConv
	.globl	ADC_SoftwareStartConv
	.p2align	1
	.type	ADC_SoftwareStartConv,%function
	.code	16                      @ @ADC_SoftwareStartConv
	.thumb_func
ADC_SoftwareStartConv:
.Lfunc_begin12:
	.loc	3 836 0                 @ ../Libraries/STM32F4xx_StdPeriph_Driver/src/stm32f4xx_adc.c:836:0
	.fnstart
	.cfi_startproc
@ %bb.0:
	@DEBUG_VALUE: ADC_SoftwareStartConv:ADCx <- $r0
	@DEBUG_VALUE: ADC_SoftwareStartConv:ADCx <- $r0
	.loc	3 841 13 prologue_end   @ ../Libraries/STM32F4xx_StdPeriph_Driver/src/stm32f4xx_adc.c:841:13
	ldr	r1, [r0, #8]
	orr	r1, r1, #1073741824
	str	r1, [r0, #8]
	.loc	3 842 1                 @ ../Libraries/STM32F4xx_StdPeriph_Driver/src/stm32f4xx_adc.c:842:1
	bx	lr
.Ltmp79:
.Lfunc_end12:
	.size	ADC_SoftwareStartConv, .Lfunc_end12-ADC_SoftwareStartConv
	.cfi_endproc
	.cantunwind
	.fnend
                                        @ -- End function
	.section	.text.ADC_GetSoftwareStartConvStatus,"ax",%progbits
	.hidden	ADC_GetSoftwareStartConvStatus @ -- Begin function ADC_GetSoftwareStartConvStatus
	.globl	ADC_GetSoftwareStartConvStatus
	.p2align	1
	.type	ADC_GetSoftwareStartConvStatus,%function
	.code	16                      @ @ADC_GetSoftwareStartConvStatus
	.thumb_func
ADC_GetSoftwareStartConvStatus:
.Lfunc_begin13:
	.loc	3 850 0                 @ ../Libraries/STM32F4xx_StdPeriph_Driver/src/stm32f4xx_adc.c:850:0
	.fnstart
	.cfi_startproc
@ %bb.0:
	@DEBUG_VALUE: ADC_GetSoftwareStartConvStatus:ADCx <- $r0
	@DEBUG_VALUE: ADC_GetSoftwareStartConvStatus:ADCx <- $r0
	@DEBUG_VALUE: ADC_GetSoftwareStartConvStatus:bitstatus <- 0
	.loc	3 856 14 prologue_end   @ ../Libraries/STM32F4xx_StdPeriph_Driver/src/stm32f4xx_adc.c:856:14
	ldr	r0, [r0, #8]
.Ltmp80:
	@DEBUG_VALUE: ADC_GetSoftwareStartConvStatus:bitstatus <- undef
	.loc	3 868 3                 @ ../Libraries/STM32F4xx_StdPeriph_Driver/src/stm32f4xx_adc.c:868:3
	ubfx	r0, r0, #30, #1
	bx	lr
.Ltmp81:
.Lfunc_end13:
	.size	ADC_GetSoftwareStartConvStatus, .Lfunc_end13-ADC_GetSoftwareStartConvStatus
	.cfi_endproc
	.cantunwind
	.fnend
                                        @ -- End function
	.section	.text.ADC_EOCOnEachRegularChannelCmd,"ax",%progbits
	.hidden	ADC_EOCOnEachRegularChannelCmd @ -- Begin function ADC_EOCOnEachRegularChannelCmd
	.globl	ADC_EOCOnEachRegularChannelCmd
	.p2align	1
	.type	ADC_EOCOnEachRegularChannelCmd,%function
	.code	16                      @ @ADC_EOCOnEachRegularChannelCmd
	.thumb_func
ADC_EOCOnEachRegularChannelCmd:
.Lfunc_begin14:
	.loc	3 880 0                 @ ../Libraries/STM32F4xx_StdPeriph_Driver/src/stm32f4xx_adc.c:880:0
	.fnstart
	.cfi_startproc
@ %bb.0:
	@DEBUG_VALUE: ADC_EOCOnEachRegularChannelCmd:ADCx <- $r0
	@DEBUG_VALUE: ADC_EOCOnEachRegularChannelCmd:ADCx <- $r0
	@DEBUG_VALUE: ADC_EOCOnEachRegularChannelCmd:NewState <- $r1
	@DEBUG_VALUE: ADC_EOCOnEachRegularChannelCmd:NewState <- $r1
	.loc	3 0 0 prologue_end      @ ../Libraries/STM32F4xx_StdPeriph_Driver/src/stm32f4xx_adc.c:0:0
	ldr	r2, [r0, #8]
.Ltmp82:
	.loc	3 885 7                 @ ../Libraries/STM32F4xx_StdPeriph_Driver/src/stm32f4xx_adc.c:885:7
	cmp	r1, #0
	orr	r3, r2, #1024
	it	eq
	biceq	r3, r2, #1024
.Ltmp83:
	.loc	3 0 0 is_stmt 0         @ ../Libraries/STM32F4xx_StdPeriph_Driver/src/stm32f4xx_adc.c:0:0
	str	r3, [r0, #8]
.Ltmp84:
	.loc	3 895 1 is_stmt 1       @ ../Libraries/STM32F4xx_StdPeriph_Driver/src/stm32f4xx_adc.c:895:1
	bx	lr
.Ltmp85:
.Lfunc_end14:
	.size	ADC_EOCOnEachRegularChannelCmd, .Lfunc_end14-ADC_EOCOnEachRegularChannelCmd
	.cfi_endproc
	.cantunwind
	.fnend
                                        @ -- End function
	.section	.text.ADC_ContinuousModeCmd,"ax",%progbits
	.hidden	ADC_ContinuousModeCmd   @ -- Begin function ADC_ContinuousModeCmd
	.globl	ADC_ContinuousModeCmd
	.p2align	1
	.type	ADC_ContinuousModeCmd,%function
	.code	16                      @ @ADC_ContinuousModeCmd
	.thumb_func
ADC_ContinuousModeCmd:
.Lfunc_begin15:
	.loc	3 905 0                 @ ../Libraries/STM32F4xx_StdPeriph_Driver/src/stm32f4xx_adc.c:905:0
	.fnstart
	.cfi_startproc
@ %bb.0:
	@DEBUG_VALUE: ADC_ContinuousModeCmd:ADCx <- $r0
	@DEBUG_VALUE: ADC_ContinuousModeCmd:ADCx <- $r0
	@DEBUG_VALUE: ADC_ContinuousModeCmd:NewState <- $r1
	@DEBUG_VALUE: ADC_ContinuousModeCmd:NewState <- $r1
	.loc	3 0 0 prologue_end      @ ../Libraries/STM32F4xx_StdPeriph_Driver/src/stm32f4xx_adc.c:0:0
	ldr	r2, [r0, #8]
.Ltmp86:
	.loc	3 910 7                 @ ../Libraries/STM32F4xx_StdPeriph_Driver/src/stm32f4xx_adc.c:910:7
	cmp	r1, #0
	orr	r3, r2, #2
	it	eq
	biceq	r3, r2, #2
.Ltmp87:
	.loc	3 0 0 is_stmt 0         @ ../Libraries/STM32F4xx_StdPeriph_Driver/src/stm32f4xx_adc.c:0:0
	str	r3, [r0, #8]
.Ltmp88:
	.loc	3 920 1 is_stmt 1       @ ../Libraries/STM32F4xx_StdPeriph_Driver/src/stm32f4xx_adc.c:920:1
	bx	lr
.Ltmp89:
.Lfunc_end15:
	.size	ADC_ContinuousModeCmd, .Lfunc_end15-ADC_ContinuousModeCmd
	.cfi_endproc
	.cantunwind
	.fnend
                                        @ -- End function
	.section	.text.ADC_DiscModeChannelCountConfig,"ax",%progbits
	.hidden	ADC_DiscModeChannelCountConfig @ -- Begin function ADC_DiscModeChannelCountConfig
	.globl	ADC_DiscModeChannelCountConfig
	.p2align	1
	.type	ADC_DiscModeChannelCountConfig,%function
	.code	16                      @ @ADC_DiscModeChannelCountConfig
	.thumb_func
ADC_DiscModeChannelCountConfig:
.Lfunc_begin16:
	.loc	3 931 0                 @ ../Libraries/STM32F4xx_StdPeriph_Driver/src/stm32f4xx_adc.c:931:0
	.fnstart
	.cfi_startproc
@ %bb.0:
	@DEBUG_VALUE: ADC_DiscModeChannelCountConfig:ADCx <- $r0
	@DEBUG_VALUE: ADC_DiscModeChannelCountConfig:Number <- $r1
	movw	r2, #57344
	movt	r2, #65535
.Ltmp90:
	@DEBUG_VALUE: ADC_DiscModeChannelCountConfig:tmpreg2 <- [DW_OP_plus_uconst 524287, DW_OP_stack_value] $r1
	@DEBUG_VALUE: ADC_DiscModeChannelCountConfig:tmpreg2 <- 0
	@DEBUG_VALUE: ADC_DiscModeChannelCountConfig:tmpreg1 <- 0
	@DEBUG_VALUE: ADC_DiscModeChannelCountConfig:Number <- $r1
	@DEBUG_VALUE: ADC_DiscModeChannelCountConfig:ADCx <- $r0
	.loc	3 947 22 prologue_end   @ ../Libraries/STM32F4xx_StdPeriph_Driver/src/stm32f4xx_adc.c:947:22
	add.w	r1, r2, r1, lsl #13
.Ltmp91:
	.loc	3 940 19                @ ../Libraries/STM32F4xx_StdPeriph_Driver/src/stm32f4xx_adc.c:940:19
	ldr	r2, [r0, #4]
.Ltmp92:
	@DEBUG_VALUE: ADC_DiscModeChannelCountConfig:tmpreg1 <- $r2
	.loc	3 943 11                @ ../Libraries/STM32F4xx_StdPeriph_Driver/src/stm32f4xx_adc.c:943:11
	bic	r2, r2, #57344
.Ltmp93:
	@DEBUG_VALUE: ADC_DiscModeChannelCountConfig:tmpreg1 <- $r2
	.loc	3 947 11                @ ../Libraries/STM32F4xx_StdPeriph_Driver/src/stm32f4xx_adc.c:947:11
	orrs	r1, r2
.Ltmp94:
	@DEBUG_VALUE: ADC_DiscModeChannelCountConfig:tmpreg1 <- $r1
	.loc	3 950 13                @ ../Libraries/STM32F4xx_StdPeriph_Driver/src/stm32f4xx_adc.c:950:13
	str	r1, [r0, #4]
	.loc	3 951 1                 @ ../Libraries/STM32F4xx_StdPeriph_Driver/src/stm32f4xx_adc.c:951:1
	bx	lr
.Ltmp95:
.Lfunc_end16:
	.size	ADC_DiscModeChannelCountConfig, .Lfunc_end16-ADC_DiscModeChannelCountConfig
	.cfi_endproc
	.cantunwind
	.fnend
                                        @ -- End function
	.section	.text.ADC_DiscModeCmd,"ax",%progbits
	.hidden	ADC_DiscModeCmd         @ -- Begin function ADC_DiscModeCmd
	.globl	ADC_DiscModeCmd
	.p2align	1
	.type	ADC_DiscModeCmd,%function
	.code	16                      @ @ADC_DiscModeCmd
	.thumb_func
ADC_DiscModeCmd:
.Lfunc_begin17:
	.loc	3 963 0                 @ ../Libraries/STM32F4xx_StdPeriph_Driver/src/stm32f4xx_adc.c:963:0
	.fnstart
	.cfi_startproc
@ %bb.0:
	@DEBUG_VALUE: ADC_DiscModeCmd:ADCx <- $r0
	@DEBUG_VALUE: ADC_DiscModeCmd:ADCx <- $r0
	@DEBUG_VALUE: ADC_DiscModeCmd:NewState <- $r1
	@DEBUG_VALUE: ADC_DiscModeCmd:NewState <- $r1
	.loc	3 0 0 prologue_end      @ ../Libraries/STM32F4xx_StdPeriph_Driver/src/stm32f4xx_adc.c:0:0
	ldr	r2, [r0, #4]
.Ltmp96:
	.loc	3 968 7                 @ ../Libraries/STM32F4xx_StdPeriph_Driver/src/stm32f4xx_adc.c:968:7
	cmp	r1, #0
	orr	r3, r2, #2048
	it	eq
	biceq	r3, r2, #2048
.Ltmp97:
	.loc	3 0 0 is_stmt 0         @ ../Libraries/STM32F4xx_StdPeriph_Driver/src/stm32f4xx_adc.c:0:0
	str	r3, [r0, #4]
.Ltmp98:
	.loc	3 978 1 is_stmt 1       @ ../Libraries/STM32F4xx_StdPeriph_Driver/src/stm32f4xx_adc.c:978:1
	bx	lr
.Ltmp99:
.Lfunc_end17:
	.size	ADC_DiscModeCmd, .Lfunc_end17-ADC_DiscModeCmd
	.cfi_endproc
	.cantunwind
	.fnend
                                        @ -- End function
	.section	.text.ADC_GetConversionValue,"ax",%progbits
	.hidden	ADC_GetConversionValue  @ -- Begin function ADC_GetConversionValue
	.globl	ADC_GetConversionValue
	.p2align	1
	.type	ADC_GetConversionValue,%function
	.code	16                      @ @ADC_GetConversionValue
	.thumb_func
ADC_GetConversionValue:
.Lfunc_begin18:
	.loc	3 986 0                 @ ../Libraries/STM32F4xx_StdPeriph_Driver/src/stm32f4xx_adc.c:986:0
	.fnstart
	.cfi_startproc
@ %bb.0:
	@DEBUG_VALUE: ADC_GetConversionValue:ADCx <- $r0
	@DEBUG_VALUE: ADC_GetConversionValue:ADCx <- $r0
	.loc	3 991 27 prologue_end   @ ../Libraries/STM32F4xx_StdPeriph_Driver/src/stm32f4xx_adc.c:991:27
	ldr	r0, [r0, #76]
.Ltmp100:
	.loc	3 991 3 is_stmt 0       @ ../Libraries/STM32F4xx_StdPeriph_Driver/src/stm32f4xx_adc.c:991:3
	uxth	r0, r0
	bx	lr
.Ltmp101:
.Lfunc_end18:
	.size	ADC_GetConversionValue, .Lfunc_end18-ADC_GetConversionValue
	.cfi_endproc
	.cantunwind
	.fnend
                                        @ -- End function
	.section	.text.ADC_GetMultiModeConversionValue,"ax",%progbits
	.hidden	ADC_GetMultiModeConversionValue @ -- Begin function ADC_GetMultiModeConversionValue
	.globl	ADC_GetMultiModeConversionValue
	.p2align	1
	.type	ADC_GetMultiModeConversionValue,%function
	.code	16                      @ @ADC_GetMultiModeConversionValue
	.thumb_func
ADC_GetMultiModeConversionValue:
.Lfunc_begin19:
	.loc	3 1007 0 is_stmt 1      @ ../Libraries/STM32F4xx_StdPeriph_Driver/src/stm32f4xx_adc.c:1007:0
	.fnstart
	.cfi_startproc
@ %bb.0:
	movw	r0, #8968
	movt	r0, #16385
.Ltmp102:
	.loc	3 1009 11 prologue_end  @ ../Libraries/STM32F4xx_StdPeriph_Driver/src/stm32f4xx_adc.c:1009:11
	ldr	r0, [r0]
	.loc	3 1009 3 is_stmt 0      @ ../Libraries/STM32F4xx_StdPeriph_Driver/src/stm32f4xx_adc.c:1009:3
	bx	lr
.Ltmp103:
.Lfunc_end19:
	.size	ADC_GetMultiModeConversionValue, .Lfunc_end19-ADC_GetMultiModeConversionValue
	.cfi_endproc
	.cantunwind
	.fnend
                                        @ -- End function
	.section	.text.ADC_DMACmd,"ax",%progbits
	.hidden	ADC_DMACmd              @ -- Begin function ADC_DMACmd
	.globl	ADC_DMACmd
	.p2align	1
	.type	ADC_DMACmd,%function
	.code	16                      @ @ADC_DMACmd
	.thumb_func
ADC_DMACmd:
.Lfunc_begin20:
	.loc	3 1053 0 is_stmt 1      @ ../Libraries/STM32F4xx_StdPeriph_Driver/src/stm32f4xx_adc.c:1053:0
	.fnstart
	.cfi_startproc
@ %bb.0:
	@DEBUG_VALUE: ADC_DMACmd:ADCx <- $r0
	@DEBUG_VALUE: ADC_DMACmd:ADCx <- $r0
	@DEBUG_VALUE: ADC_DMACmd:NewState <- $r1
	@DEBUG_VALUE: ADC_DMACmd:NewState <- $r1
	.loc	3 0 0 prologue_end      @ ../Libraries/STM32F4xx_StdPeriph_Driver/src/stm32f4xx_adc.c:0:0
	ldr	r2, [r0, #8]
.Ltmp104:
	.loc	3 1057 7                @ ../Libraries/STM32F4xx_StdPeriph_Driver/src/stm32f4xx_adc.c:1057:7
	cmp	r1, #0
	orr	r3, r2, #256
	it	eq
	biceq	r3, r2, #256
.Ltmp105:
	.loc	3 0 0 is_stmt 0         @ ../Libraries/STM32F4xx_StdPeriph_Driver/src/stm32f4xx_adc.c:0:0
	str	r3, [r0, #8]
.Ltmp106:
	.loc	3 1067 1 is_stmt 1      @ ../Libraries/STM32F4xx_StdPeriph_Driver/src/stm32f4xx_adc.c:1067:1
	bx	lr
.Ltmp107:
.Lfunc_end20:
	.size	ADC_DMACmd, .Lfunc_end20-ADC_DMACmd
	.cfi_endproc
	.cantunwind
	.fnend
                                        @ -- End function
	.section	.text.ADC_DMARequestAfterLastTransferCmd,"ax",%progbits
	.hidden	ADC_DMARequestAfterLastTransferCmd @ -- Begin function ADC_DMARequestAfterLastTransferCmd
	.globl	ADC_DMARequestAfterLastTransferCmd
	.p2align	1
	.type	ADC_DMARequestAfterLastTransferCmd,%function
	.code	16                      @ @ADC_DMARequestAfterLastTransferCmd
	.thumb_func
ADC_DMARequestAfterLastTransferCmd:
.Lfunc_begin21:
	.loc	3 1077 0                @ ../Libraries/STM32F4xx_StdPeriph_Driver/src/stm32f4xx_adc.c:1077:0
	.fnstart
	.cfi_startproc
@ %bb.0:
	@DEBUG_VALUE: ADC_DMARequestAfterLastTransferCmd:ADCx <- $r0
	@DEBUG_VALUE: ADC_DMARequestAfterLastTransferCmd:ADCx <- $r0
	@DEBUG_VALUE: ADC_DMARequestAfterLastTransferCmd:NewState <- $r1
	@DEBUG_VALUE: ADC_DMARequestAfterLastTransferCmd:NewState <- $r1
	.loc	3 0 0 prologue_end      @ ../Libraries/STM32F4xx_StdPeriph_Driver/src/stm32f4xx_adc.c:0:0
	ldr	r2, [r0, #8]
.Ltmp108:
	.loc	3 1081 7                @ ../Libraries/STM32F4xx_StdPeriph_Driver/src/stm32f4xx_adc.c:1081:7
	cmp	r1, #0
	orr	r3, r2, #512
	it	eq
	biceq	r3, r2, #512
.Ltmp109:
	.loc	3 0 0 is_stmt 0         @ ../Libraries/STM32F4xx_StdPeriph_Driver/src/stm32f4xx_adc.c:0:0
	str	r3, [r0, #8]
.Ltmp110:
	.loc	3 1091 1 is_stmt 1      @ ../Libraries/STM32F4xx_StdPeriph_Driver/src/stm32f4xx_adc.c:1091:1
	bx	lr
.Ltmp111:
.Lfunc_end21:
	.size	ADC_DMARequestAfterLastTransferCmd, .Lfunc_end21-ADC_DMARequestAfterLastTransferCmd
	.cfi_endproc
	.cantunwind
	.fnend
                                        @ -- End function
	.section	.text.ADC_MultiModeDMARequestAfterLastTransferCmd,"ax",%progbits
	.hidden	ADC_MultiModeDMARequestAfterLastTransferCmd @ -- Begin function ADC_MultiModeDMARequestAfterLastTransferCmd
	.globl	ADC_MultiModeDMARequestAfterLastTransferCmd
	.p2align	1
	.type	ADC_MultiModeDMARequestAfterLastTransferCmd,%function
	.code	16                      @ @ADC_MultiModeDMARequestAfterLastTransferCmd
	.thumb_func
ADC_MultiModeDMARequestAfterLastTransferCmd:
.Lfunc_begin22:
	.loc	3 1104 0                @ ../Libraries/STM32F4xx_StdPeriph_Driver/src/stm32f4xx_adc.c:1104:0
	.fnstart
	.cfi_startproc
@ %bb.0:
	@DEBUG_VALUE: ADC_MultiModeDMARequestAfterLastTransferCmd:NewState <- $r0
	movw	r1, #8964
.Ltmp112:
	.loc	3 1107 7 prologue_end   @ ../Libraries/STM32F4xx_StdPeriph_Driver/src/stm32f4xx_adc.c:1107:7
	cmp	r0, #0
	movt	r1, #16385
	@DEBUG_VALUE: ADC_MultiModeDMARequestAfterLastTransferCmd:NewState <- $r0
.Ltmp113:
	.loc	3 0 0 is_stmt 0         @ ../Libraries/STM32F4xx_StdPeriph_Driver/src/stm32f4xx_adc.c:0:0
	ldr	r2, [r1]
.Ltmp114:
	.loc	3 1107 7                @ ../Libraries/STM32F4xx_StdPeriph_Driver/src/stm32f4xx_adc.c:1107:7
	orr	r3, r2, #8192
	it	eq
	biceq	r3, r2, #8192
.Ltmp115:
	.loc	3 0 0                   @ ../Libraries/STM32F4xx_StdPeriph_Driver/src/stm32f4xx_adc.c:0:0
	str	r3, [r1]
.Ltmp116:
	.loc	3 1117 1 is_stmt 1      @ ../Libraries/STM32F4xx_StdPeriph_Driver/src/stm32f4xx_adc.c:1117:1
	bx	lr
.Ltmp117:
.Lfunc_end22:
	.size	ADC_MultiModeDMARequestAfterLastTransferCmd, .Lfunc_end22-ADC_MultiModeDMARequestAfterLastTransferCmd
	.cfi_endproc
	.cantunwind
	.fnend
                                        @ -- End function
	.section	.text.ADC_InjectedChannelConfig,"ax",%progbits
	.hidden	ADC_InjectedChannelConfig @ -- Begin function ADC_InjectedChannelConfig
	.globl	ADC_InjectedChannelConfig
	.p2align	1
	.type	ADC_InjectedChannelConfig,%function
	.code	16                      @ @ADC_InjectedChannelConfig
	.thumb_func
ADC_InjectedChannelConfig:
.Lfunc_begin23:
	.loc	3 1191 0                @ ../Libraries/STM32F4xx_StdPeriph_Driver/src/stm32f4xx_adc.c:1191:0
	.fnstart
	.cfi_startproc
@ %bb.0:
	.save	{r4, lr}
	push	{r4, lr}
	.cfi_def_cfa_offset 8
	.cfi_offset lr, -4
	.cfi_offset r4, -8
	@DEBUG_VALUE: ADC_InjectedChannelConfig:ADCx <- $r0
	@DEBUG_VALUE: ADC_InjectedChannelConfig:ADCx <- $r0
	@DEBUG_VALUE: ADC_InjectedChannelConfig:ADC_Channel <- $r1
	@DEBUG_VALUE: ADC_InjectedChannelConfig:ADC_Channel <- $r1
	@DEBUG_VALUE: ADC_InjectedChannelConfig:Rank <- $r2
	@DEBUG_VALUE: ADC_InjectedChannelConfig:Rank <- $r2
	@DEBUG_VALUE: ADC_InjectedChannelConfig:ADC_SampleTime <- $r3
	@DEBUG_VALUE: ADC_InjectedChannelConfig:ADC_SampleTime <- $r3
.Ltmp118:
	@DEBUG_VALUE: ADC_InjectedChannelConfig:tmpreg1 <- 0
	@DEBUG_VALUE: ADC_InjectedChannelConfig:tmpreg2 <- 0
	@DEBUG_VALUE: ADC_InjectedChannelConfig:tmpreg3 <- 0
	.loc	3 1199 7 prologue_end   @ ../Libraries/STM32F4xx_StdPeriph_Driver/src/stm32f4xx_adc.c:1199:7
	add.w	r12, r1, r1, lsl #1
	cmp	r1, #9
	it	hi
	subhi.w	r12, r12, #30
.Ltmp119:
	.loc	3 0 0 is_stmt 0         @ ../Libraries/STM32F4xx_StdPeriph_Driver/src/stm32f4xx_adc.c:0:0
	lsl.w	lr, r3, r12
	movs	r3, #7
.Ltmp120:
	.loc	3 1199 7                @ ../Libraries/STM32F4xx_StdPeriph_Driver/src/stm32f4xx_adc.c:1199:7
	cmp	r1, #9
.Ltmp121:
	.loc	3 0 0                   @ ../Libraries/STM32F4xx_StdPeriph_Driver/src/stm32f4xx_adc.c:0:0
	lsl.w	r12, r3, r12
	mov.w	r3, #16
.Ltmp122:
	.loc	3 1199 7                @ ../Libraries/STM32F4xx_StdPeriph_Driver/src/stm32f4xx_adc.c:1199:7
	it	hi
	movhi	r3, #12
.Ltmp123:
	.loc	3 0 0                   @ ../Libraries/STM32F4xx_StdPeriph_Driver/src/stm32f4xx_adc.c:0:0
	ldr	r4, [r0, r3]
	bic.w	r4, r4, r12
	orr.w	r4, r4, lr
	str	r4, [r0, r3]
	movs	r4, #252
.Ltmp124:
	.loc	3 1231 19 is_stmt 1     @ ../Libraries/STM32F4xx_StdPeriph_Driver/src/stm32f4xx_adc.c:1231:19
	ldr	r3, [r0, #56]
.Ltmp125:
	@DEBUG_VALUE: ADC_InjectedChannelConfig:tmpreg1 <- $r3
	.loc	3 1235 55               @ ../Libraries/STM32F4xx_StdPeriph_Driver/src/stm32f4xx_adc.c:1235:55
	orn	r4, r4, r3, lsr #20
.Ltmp126:
	@DEBUG_VALUE: ADC_InjectedChannelConfig:tmpreg3 <- undef
	.loc	3 1235 50 is_stmt 0     @ ../Libraries/STM32F4xx_StdPeriph_Driver/src/stm32f4xx_adc.c:1235:50
	add	r2, r4
.Ltmp127:
	.loc	3 1235 55               @ ../Libraries/STM32F4xx_StdPeriph_Driver/src/stm32f4xx_adc.c:1235:55
	adds	r2, #3
	.loc	3 1235 34               @ ../Libraries/STM32F4xx_StdPeriph_Driver/src/stm32f4xx_adc.c:1235:34
	uxtb	r4, r2
	.loc	3 1235 32               @ ../Libraries/STM32F4xx_StdPeriph_Driver/src/stm32f4xx_adc.c:1235:32
	lsls	r4, r4, #2
	uxtab	r2, r4, r2
	movs	r4, #31
	.loc	3 1239 35 is_stmt 1     @ ../Libraries/STM32F4xx_StdPeriph_Driver/src/stm32f4xx_adc.c:1239:35
	lsls	r1, r2
.Ltmp128:
	@DEBUG_VALUE: ADC_InjectedChannelConfig:tmpreg2 <- $r1
	.loc	3 1235 26               @ ../Libraries/STM32F4xx_StdPeriph_Driver/src/stm32f4xx_adc.c:1235:26
	lsl.w	r2, r4, r2
.Ltmp129:
	@DEBUG_VALUE: ADC_InjectedChannelConfig:tmpreg2 <- $r2
	.loc	3 1237 11               @ ../Libraries/STM32F4xx_StdPeriph_Driver/src/stm32f4xx_adc.c:1237:11
	bic.w	r2, r3, r2
.Ltmp130:
	@DEBUG_VALUE: ADC_InjectedChannelConfig:tmpreg1 <- $r2
	.loc	3 1241 11               @ ../Libraries/STM32F4xx_StdPeriph_Driver/src/stm32f4xx_adc.c:1241:11
	orrs	r1, r2
.Ltmp131:
	@DEBUG_VALUE: ADC_InjectedChannelConfig:tmpreg1 <- $r1
	.loc	3 1243 14               @ ../Libraries/STM32F4xx_StdPeriph_Driver/src/stm32f4xx_adc.c:1243:14
	str	r1, [r0, #56]
	.loc	3 1244 1                @ ../Libraries/STM32F4xx_StdPeriph_Driver/src/stm32f4xx_adc.c:1244:1
	pop	{r4, pc}
.Ltmp132:
.Lfunc_end23:
	.size	ADC_InjectedChannelConfig, .Lfunc_end23-ADC_InjectedChannelConfig
	.cfi_endproc
	.cantunwind
	.fnend
                                        @ -- End function
	.section	.text.ADC_InjectedSequencerLengthConfig,"ax",%progbits
	.hidden	ADC_InjectedSequencerLengthConfig @ -- Begin function ADC_InjectedSequencerLengthConfig
	.globl	ADC_InjectedSequencerLengthConfig
	.p2align	1
	.type	ADC_InjectedSequencerLengthConfig,%function
	.code	16                      @ @ADC_InjectedSequencerLengthConfig
	.thumb_func
ADC_InjectedSequencerLengthConfig:
.Lfunc_begin24:
	.loc	3 1254 0                @ ../Libraries/STM32F4xx_StdPeriph_Driver/src/stm32f4xx_adc.c:1254:0
	.fnstart
	.cfi_startproc
@ %bb.0:
	@DEBUG_VALUE: ADC_InjectedSequencerLengthConfig:ADCx <- $r0
	@DEBUG_VALUE: ADC_InjectedSequencerLengthConfig:Length <- $r1
	movs	r2, #0
	movt	r2, #65520
.Ltmp133:
	@DEBUG_VALUE: ADC_InjectedSequencerLengthConfig:tmpreg2 <- [DW_OP_plus_uconst 4095, DW_OP_stack_value] $r1
	@DEBUG_VALUE: ADC_InjectedSequencerLengthConfig:tmpreg2 <- 0
	@DEBUG_VALUE: ADC_InjectedSequencerLengthConfig:tmpreg1 <- 0
	@DEBUG_VALUE: ADC_InjectedSequencerLengthConfig:Length <- $r1
	@DEBUG_VALUE: ADC_InjectedSequencerLengthConfig:ADCx <- $r0
	.loc	3 1269 22 prologue_end  @ ../Libraries/STM32F4xx_StdPeriph_Driver/src/stm32f4xx_adc.c:1269:22
	add.w	r1, r2, r1, lsl #20
.Ltmp134:
	.loc	3 1262 19               @ ../Libraries/STM32F4xx_StdPeriph_Driver/src/stm32f4xx_adc.c:1262:19
	ldr	r2, [r0, #56]
.Ltmp135:
	@DEBUG_VALUE: ADC_InjectedSequencerLengthConfig:tmpreg1 <- $r2
	.loc	3 1265 11               @ ../Libraries/STM32F4xx_StdPeriph_Driver/src/stm32f4xx_adc.c:1265:11
	bic	r2, r2, #3145728
.Ltmp136:
	@DEBUG_VALUE: ADC_InjectedSequencerLengthConfig:tmpreg1 <- $r2
	.loc	3 1269 11               @ ../Libraries/STM32F4xx_StdPeriph_Driver/src/stm32f4xx_adc.c:1269:11
	orrs	r1, r2
.Ltmp137:
	@DEBUG_VALUE: ADC_InjectedSequencerLengthConfig:tmpreg1 <- $r1
	.loc	3 1272 14               @ ../Libraries/STM32F4xx_StdPeriph_Driver/src/stm32f4xx_adc.c:1272:14
	str	r1, [r0, #56]
	.loc	3 1273 1                @ ../Libraries/STM32F4xx_StdPeriph_Driver/src/stm32f4xx_adc.c:1273:1
	bx	lr
.Ltmp138:
.Lfunc_end24:
	.size	ADC_InjectedSequencerLengthConfig, .Lfunc_end24-ADC_InjectedSequencerLengthConfig
	.cfi_endproc
	.cantunwind
	.fnend
                                        @ -- End function
	.section	.text.ADC_SetInjectedOffset,"ax",%progbits
	.hidden	ADC_SetInjectedOffset   @ -- Begin function ADC_SetInjectedOffset
	.globl	ADC_SetInjectedOffset
	.p2align	1
	.type	ADC_SetInjectedOffset,%function
	.code	16                      @ @ADC_SetInjectedOffset
	.thumb_func
ADC_SetInjectedOffset:
.Lfunc_begin25:
	.loc	3 1289 0                @ ../Libraries/STM32F4xx_StdPeriph_Driver/src/stm32f4xx_adc.c:1289:0
	.fnstart
	.cfi_startproc
@ %bb.0:
	.pad	#4
	sub	sp, #4
	.cfi_def_cfa_offset 4
	@DEBUG_VALUE: ADC_SetInjectedOffset:ADCx <- $r0
	@DEBUG_VALUE: ADC_SetInjectedOffset:ADC_InjectedChannel <- $r1
	@DEBUG_VALUE: ADC_SetInjectedOffset:Offset <- $r2
	movs	r3, #0
	@DEBUG_VALUE: ADC_SetInjectedOffset:Offset <- $r2
	@DEBUG_VALUE: ADC_SetInjectedOffset:ADC_InjectedChannel <- $r1
	@DEBUG_VALUE: ADC_SetInjectedOffset:ADCx <- $r0
.Ltmp139:
	.loc	3 1290 19 prologue_end  @ ../Libraries/STM32F4xx_StdPeriph_Driver/src/stm32f4xx_adc.c:1290:19
	str	r3, [sp]
	.loc	3 1296 7                @ ../Libraries/STM32F4xx_StdPeriph_Driver/src/stm32f4xx_adc.c:1296:7
	str	r0, [sp]
	.loc	3 1297 7                @ ../Libraries/STM32F4xx_StdPeriph_Driver/src/stm32f4xx_adc.c:1297:7
	ldr	r0, [sp]
.Ltmp140:
	add	r0, r1
	str	r0, [sp]
	.loc	3 1300 21               @ ../Libraries/STM32F4xx_StdPeriph_Driver/src/stm32f4xx_adc.c:1300:21
	ldr	r0, [sp]
	.loc	3 1300 25 is_stmt 0     @ ../Libraries/STM32F4xx_StdPeriph_Driver/src/stm32f4xx_adc.c:1300:25
	str	r2, [r0]
	.loc	3 1301 1 is_stmt 1      @ ../Libraries/STM32F4xx_StdPeriph_Driver/src/stm32f4xx_adc.c:1301:1
	add	sp, #4
	bx	lr
.Ltmp141:
.Lfunc_end25:
	.size	ADC_SetInjectedOffset, .Lfunc_end25-ADC_SetInjectedOffset
	.cfi_endproc
	.cantunwind
	.fnend
                                        @ -- End function
	.section	.text.ADC_ExternalTrigInjectedConvConfig,"ax",%progbits
	.hidden	ADC_ExternalTrigInjectedConvConfig @ -- Begin function ADC_ExternalTrigInjectedConvConfig
	.globl	ADC_ExternalTrigInjectedConvConfig
	.p2align	1
	.type	ADC_ExternalTrigInjectedConvConfig,%function
	.code	16                      @ @ADC_ExternalTrigInjectedConvConfig
	.thumb_func
ADC_ExternalTrigInjectedConvConfig:
.Lfunc_begin26:
	.loc	3 1327 0                @ ../Libraries/STM32F4xx_StdPeriph_Driver/src/stm32f4xx_adc.c:1327:0
	.fnstart
	.cfi_startproc
@ %bb.0:
	@DEBUG_VALUE: ADC_ExternalTrigInjectedConvConfig:ADCx <- $r0
	@DEBUG_VALUE: ADC_ExternalTrigInjectedConvConfig:ADCx <- $r0
	@DEBUG_VALUE: ADC_ExternalTrigInjectedConvConfig:ADC_ExternalTrigInjecConv <- $r1
	@DEBUG_VALUE: ADC_ExternalTrigInjectedConvConfig:ADC_ExternalTrigInjecConv <- $r1
	@DEBUG_VALUE: ADC_ExternalTrigInjectedConvConfig:tmpreg <- 0
	.loc	3 1334 18 prologue_end  @ ../Libraries/STM32F4xx_StdPeriph_Driver/src/stm32f4xx_adc.c:1334:18
	ldr	r2, [r0, #8]
.Ltmp142:
	@DEBUG_VALUE: ADC_ExternalTrigInjectedConvConfig:tmpreg <- $r2
	.loc	3 1337 10               @ ../Libraries/STM32F4xx_StdPeriph_Driver/src/stm32f4xx_adc.c:1337:10
	bic	r2, r2, #983040
.Ltmp143:
	@DEBUG_VALUE: ADC_ExternalTrigInjectedConvConfig:tmpreg <- $r2
	.loc	3 1340 10               @ ../Libraries/STM32F4xx_StdPeriph_Driver/src/stm32f4xx_adc.c:1340:10
	orrs	r1, r2
.Ltmp144:
	@DEBUG_VALUE: ADC_ExternalTrigInjectedConvConfig:tmpreg <- $r1
	.loc	3 1343 13               @ ../Libraries/STM32F4xx_StdPeriph_Driver/src/stm32f4xx_adc.c:1343:13
	str	r1, [r0, #8]
	.loc	3 1344 1                @ ../Libraries/STM32F4xx_StdPeriph_Driver/src/stm32f4xx_adc.c:1344:1
	bx	lr
.Ltmp145:
.Lfunc_end26:
	.size	ADC_ExternalTrigInjectedConvConfig, .Lfunc_end26-ADC_ExternalTrigInjectedConvConfig
	.cfi_endproc
	.cantunwind
	.fnend
                                        @ -- End function
	.section	.text.ADC_ExternalTrigInjectedConvEdgeConfig,"ax",%progbits
	.hidden	ADC_ExternalTrigInjectedConvEdgeConfig @ -- Begin function ADC_ExternalTrigInjectedConvEdgeConfig
	.globl	ADC_ExternalTrigInjectedConvEdgeConfig
	.p2align	1
	.type	ADC_ExternalTrigInjectedConvEdgeConfig,%function
	.code	16                      @ @ADC_ExternalTrigInjectedConvEdgeConfig
	.thumb_func
ADC_ExternalTrigInjectedConvEdgeConfig:
.Lfunc_begin27:
	.loc	3 1361 0                @ ../Libraries/STM32F4xx_StdPeriph_Driver/src/stm32f4xx_adc.c:1361:0
	.fnstart
	.cfi_startproc
@ %bb.0:
	@DEBUG_VALUE: ADC_ExternalTrigInjectedConvEdgeConfig:ADCx <- $r0
	@DEBUG_VALUE: ADC_ExternalTrigInjectedConvEdgeConfig:ADCx <- $r0
	@DEBUG_VALUE: ADC_ExternalTrigInjectedConvEdgeConfig:ADC_ExternalTrigInjecConvEdge <- $r1
	@DEBUG_VALUE: ADC_ExternalTrigInjectedConvEdgeConfig:ADC_ExternalTrigInjecConvEdge <- $r1
	@DEBUG_VALUE: ADC_ExternalTrigInjectedConvEdgeConfig:tmpreg <- 0
	.loc	3 1367 18 prologue_end  @ ../Libraries/STM32F4xx_StdPeriph_Driver/src/stm32f4xx_adc.c:1367:18
	ldr	r2, [r0, #8]
.Ltmp146:
	@DEBUG_VALUE: ADC_ExternalTrigInjectedConvEdgeConfig:tmpreg <- $r2
	.loc	3 1369 10               @ ../Libraries/STM32F4xx_StdPeriph_Driver/src/stm32f4xx_adc.c:1369:10
	bic	r2, r2, #3145728
.Ltmp147:
	@DEBUG_VALUE: ADC_ExternalTrigInjectedConvEdgeConfig:tmpreg <- $r2
	.loc	3 1371 10               @ ../Libraries/STM32F4xx_StdPeriph_Driver/src/stm32f4xx_adc.c:1371:10
	orrs	r1, r2
.Ltmp148:
	@DEBUG_VALUE: ADC_ExternalTrigInjectedConvEdgeConfig:tmpreg <- $r1
	.loc	3 1373 13               @ ../Libraries/STM32F4xx_StdPeriph_Driver/src/stm32f4xx_adc.c:1373:13
	str	r1, [r0, #8]
	.loc	3 1374 1                @ ../Libraries/STM32F4xx_StdPeriph_Driver/src/stm32f4xx_adc.c:1374:1
	bx	lr
.Ltmp149:
.Lfunc_end27:
	.size	ADC_ExternalTrigInjectedConvEdgeConfig, .Lfunc_end27-ADC_ExternalTrigInjectedConvEdgeConfig
	.cfi_endproc
	.cantunwind
	.fnend
                                        @ -- End function
	.section	.text.ADC_SoftwareStartInjectedConv,"ax",%progbits
	.hidden	ADC_SoftwareStartInjectedConv @ -- Begin function ADC_SoftwareStartInjectedConv
	.globl	ADC_SoftwareStartInjectedConv
	.p2align	1
	.type	ADC_SoftwareStartInjectedConv,%function
	.code	16                      @ @ADC_SoftwareStartInjectedConv
	.thumb_func
ADC_SoftwareStartInjectedConv:
.Lfunc_begin28:
	.loc	3 1382 0                @ ../Libraries/STM32F4xx_StdPeriph_Driver/src/stm32f4xx_adc.c:1382:0
	.fnstart
	.cfi_startproc
@ %bb.0:
	@DEBUG_VALUE: ADC_SoftwareStartInjectedConv:ADCx <- $r0
	@DEBUG_VALUE: ADC_SoftwareStartInjectedConv:ADCx <- $r0
	.loc	3 1386 13 prologue_end  @ ../Libraries/STM32F4xx_StdPeriph_Driver/src/stm32f4xx_adc.c:1386:13
	ldr	r1, [r0, #8]
	orr	r1, r1, #4194304
	str	r1, [r0, #8]
	.loc	3 1387 1                @ ../Libraries/STM32F4xx_StdPeriph_Driver/src/stm32f4xx_adc.c:1387:1
	bx	lr
.Ltmp150:
.Lfunc_end28:
	.size	ADC_SoftwareStartInjectedConv, .Lfunc_end28-ADC_SoftwareStartInjectedConv
	.cfi_endproc
	.cantunwind
	.fnend
                                        @ -- End function
	.section	.text.ADC_GetSoftwareStartInjectedConvCmdStatus,"ax",%progbits
	.hidden	ADC_GetSoftwareStartInjectedConvCmdStatus @ -- Begin function ADC_GetSoftwareStartInjectedConvCmdStatus
	.globl	ADC_GetSoftwareStartInjectedConvCmdStatus
	.p2align	1
	.type	ADC_GetSoftwareStartInjectedConvCmdStatus,%function
	.code	16                      @ @ADC_GetSoftwareStartInjectedConvCmdStatus
	.thumb_func
ADC_GetSoftwareStartInjectedConvCmdStatus:
.Lfunc_begin29:
	.loc	3 1395 0                @ ../Libraries/STM32F4xx_StdPeriph_Driver/src/stm32f4xx_adc.c:1395:0
	.fnstart
	.cfi_startproc
@ %bb.0:
	@DEBUG_VALUE: ADC_GetSoftwareStartInjectedConvCmdStatus:ADCx <- $r0
	@DEBUG_VALUE: ADC_GetSoftwareStartInjectedConvCmdStatus:ADCx <- $r0
	@DEBUG_VALUE: ADC_GetSoftwareStartInjectedConvCmdStatus:bitstatus <- 0
	.loc	3 1401 14 prologue_end  @ ../Libraries/STM32F4xx_StdPeriph_Driver/src/stm32f4xx_adc.c:1401:14
	ldr	r0, [r0, #8]
.Ltmp151:
	@DEBUG_VALUE: ADC_GetSoftwareStartInjectedConvCmdStatus:bitstatus <- undef
	.loc	3 1412 3                @ ../Libraries/STM32F4xx_StdPeriph_Driver/src/stm32f4xx_adc.c:1412:3
	ubfx	r0, r0, #22, #1
	bx	lr
.Ltmp152:
.Lfunc_end29:
	.size	ADC_GetSoftwareStartInjectedConvCmdStatus, .Lfunc_end29-ADC_GetSoftwareStartInjectedConvCmdStatus
	.cfi_endproc
	.cantunwind
	.fnend
                                        @ -- End function
	.section	.text.ADC_AutoInjectedConvCmd,"ax",%progbits
	.hidden	ADC_AutoInjectedConvCmd @ -- Begin function ADC_AutoInjectedConvCmd
	.globl	ADC_AutoInjectedConvCmd
	.p2align	1
	.type	ADC_AutoInjectedConvCmd,%function
	.code	16                      @ @ADC_AutoInjectedConvCmd
	.thumb_func
ADC_AutoInjectedConvCmd:
.Lfunc_begin30:
	.loc	3 1424 0                @ ../Libraries/STM32F4xx_StdPeriph_Driver/src/stm32f4xx_adc.c:1424:0
	.fnstart
	.cfi_startproc
@ %bb.0:
	@DEBUG_VALUE: ADC_AutoInjectedConvCmd:ADCx <- $r0
	@DEBUG_VALUE: ADC_AutoInjectedConvCmd:ADCx <- $r0
	@DEBUG_VALUE: ADC_AutoInjectedConvCmd:NewState <- $r1
	@DEBUG_VALUE: ADC_AutoInjectedConvCmd:NewState <- $r1
	.loc	3 0 0 prologue_end      @ ../Libraries/STM32F4xx_StdPeriph_Driver/src/stm32f4xx_adc.c:0:0
	ldr	r2, [r0, #4]
.Ltmp153:
	.loc	3 1428 7                @ ../Libraries/STM32F4xx_StdPeriph_Driver/src/stm32f4xx_adc.c:1428:7
	cmp	r1, #0
	orr	r3, r2, #1024
	it	eq
	biceq	r3, r2, #1024
.Ltmp154:
	.loc	3 0 0 is_stmt 0         @ ../Libraries/STM32F4xx_StdPeriph_Driver/src/stm32f4xx_adc.c:0:0
	str	r3, [r0, #4]
.Ltmp155:
	.loc	3 1438 1 is_stmt 1      @ ../Libraries/STM32F4xx_StdPeriph_Driver/src/stm32f4xx_adc.c:1438:1
	bx	lr
.Ltmp156:
.Lfunc_end30:
	.size	ADC_AutoInjectedConvCmd, .Lfunc_end30-ADC_AutoInjectedConvCmd
	.cfi_endproc
	.cantunwind
	.fnend
                                        @ -- End function
	.section	.text.ADC_InjectedDiscModeCmd,"ax",%progbits
	.hidden	ADC_InjectedDiscModeCmd @ -- Begin function ADC_InjectedDiscModeCmd
	.globl	ADC_InjectedDiscModeCmd
	.p2align	1
	.type	ADC_InjectedDiscModeCmd,%function
	.code	16                      @ @ADC_InjectedDiscModeCmd
	.thumb_func
ADC_InjectedDiscModeCmd:
.Lfunc_begin31:
	.loc	3 1450 0                @ ../Libraries/STM32F4xx_StdPeriph_Driver/src/stm32f4xx_adc.c:1450:0
	.fnstart
	.cfi_startproc
@ %bb.0:
	@DEBUG_VALUE: ADC_InjectedDiscModeCmd:ADCx <- $r0
	@DEBUG_VALUE: ADC_InjectedDiscModeCmd:ADCx <- $r0
	@DEBUG_VALUE: ADC_InjectedDiscModeCmd:NewState <- $r1
	@DEBUG_VALUE: ADC_InjectedDiscModeCmd:NewState <- $r1
	.loc	3 0 0 prologue_end      @ ../Libraries/STM32F4xx_StdPeriph_Driver/src/stm32f4xx_adc.c:0:0
	ldr	r2, [r0, #4]
.Ltmp157:
	.loc	3 1454 7                @ ../Libraries/STM32F4xx_StdPeriph_Driver/src/stm32f4xx_adc.c:1454:7
	cmp	r1, #0
	orr	r3, r2, #4096
	it	eq
	biceq	r3, r2, #4096
.Ltmp158:
	.loc	3 0 0 is_stmt 0         @ ../Libraries/STM32F4xx_StdPeriph_Driver/src/stm32f4xx_adc.c:0:0
	str	r3, [r0, #4]
.Ltmp159:
	.loc	3 1464 1 is_stmt 1      @ ../Libraries/STM32F4xx_StdPeriph_Driver/src/stm32f4xx_adc.c:1464:1
	bx	lr
.Ltmp160:
.Lfunc_end31:
	.size	ADC_InjectedDiscModeCmd, .Lfunc_end31-ADC_InjectedDiscModeCmd
	.cfi_endproc
	.cantunwind
	.fnend
                                        @ -- End function
	.section	.text.ADC_GetInjectedConversionValue,"ax",%progbits
	.hidden	ADC_GetInjectedConversionValue @ -- Begin function ADC_GetInjectedConversionValue
	.globl	ADC_GetInjectedConversionValue
	.p2align	1
	.type	ADC_GetInjectedConversionValue,%function
	.code	16                      @ @ADC_GetInjectedConversionValue
	.thumb_func
ADC_GetInjectedConversionValue:
.Lfunc_begin32:
	.loc	3 1478 0                @ ../Libraries/STM32F4xx_StdPeriph_Driver/src/stm32f4xx_adc.c:1478:0
	.fnstart
	.cfi_startproc
@ %bb.0:
	.pad	#4
	sub	sp, #4
	.cfi_def_cfa_offset 4
	@DEBUG_VALUE: ADC_GetInjectedConversionValue:ADCx <- $r0
	@DEBUG_VALUE: ADC_GetInjectedConversionValue:ADC_InjectedChannel <- $r1
	movs	r2, #0
	@DEBUG_VALUE: ADC_GetInjectedConversionValue:ADC_InjectedChannel <- $r1
	@DEBUG_VALUE: ADC_GetInjectedConversionValue:ADCx <- $r0
.Ltmp161:
	.loc	3 1479 17 prologue_end  @ ../Libraries/STM32F4xx_StdPeriph_Driver/src/stm32f4xx_adc.c:1479:17
	str	r2, [sp]
	.loc	3 1485 7                @ ../Libraries/STM32F4xx_StdPeriph_Driver/src/stm32f4xx_adc.c:1485:7
	str	r0, [sp]
	.loc	3 1486 7                @ ../Libraries/STM32F4xx_StdPeriph_Driver/src/stm32f4xx_adc.c:1486:7
	ldr	r0, [sp]
.Ltmp162:
	.loc	3 1486 30 is_stmt 0     @ ../Libraries/STM32F4xx_StdPeriph_Driver/src/stm32f4xx_adc.c:1486:30
	add	r0, r1
	.loc	3 1486 7                @ ../Libraries/STM32F4xx_StdPeriph_Driver/src/stm32f4xx_adc.c:1486:7
	adds	r0, #40
	str	r0, [sp]
	.loc	3 1489 41 is_stmt 1     @ ../Libraries/STM32F4xx_StdPeriph_Driver/src/stm32f4xx_adc.c:1489:41
	ldr	r0, [sp]
	.loc	3 1489 22 is_stmt 0     @ ../Libraries/STM32F4xx_StdPeriph_Driver/src/stm32f4xx_adc.c:1489:22
	ldr	r0, [r0]
	.loc	3 1489 3                @ ../Libraries/STM32F4xx_StdPeriph_Driver/src/stm32f4xx_adc.c:1489:3
	uxth	r0, r0
	add	sp, #4
	bx	lr
.Ltmp163:
.Lfunc_end32:
	.size	ADC_GetInjectedConversionValue, .Lfunc_end32-ADC_GetInjectedConversionValue
	.cfi_endproc
	.cantunwind
	.fnend
                                        @ -- End function
	.section	.text.ADC_ITConfig,"ax",%progbits
	.hidden	ADC_ITConfig            @ -- Begin function ADC_ITConfig
	.globl	ADC_ITConfig
	.p2align	1
	.type	ADC_ITConfig,%function
	.code	16                      @ @ADC_ITConfig
	.thumb_func
ADC_ITConfig:
.Lfunc_begin33:
	.loc	3 1585 0 is_stmt 1      @ ../Libraries/STM32F4xx_StdPeriph_Driver/src/stm32f4xx_adc.c:1585:0
	.fnstart
	.cfi_startproc
@ %bb.0:
	@DEBUG_VALUE: ADC_ITConfig:ADCx <- $r0
	@DEBUG_VALUE: ADC_ITConfig:ADCx <- $r0
	@DEBUG_VALUE: ADC_ITConfig:ADC_IT <- $r1
	@DEBUG_VALUE: ADC_ITConfig:ADC_IT <- $r1
	@DEBUG_VALUE: ADC_ITConfig:NewState <- $r2
	@DEBUG_VALUE: ADC_ITConfig:NewState <- $r2
	@DEBUG_VALUE: ADC_ITConfig:itmask <- 0
	.loc	3 1593 12 prologue_end  @ ../Libraries/STM32F4xx_StdPeriph_Driver/src/stm32f4xx_adc.c:1593:12
	uxtb	r1, r1
.Ltmp164:
	@DEBUG_VALUE: ADC_ITConfig:itmask <- $r1
	.loc	3 0 12 is_stmt 0        @ ../Libraries/STM32F4xx_StdPeriph_Driver/src/stm32f4xx_adc.c:0:12
	movs	r3, #1
	.loc	3 1596 7 is_stmt 1      @ ../Libraries/STM32F4xx_StdPeriph_Driver/src/stm32f4xx_adc.c:1596:7
	cmp	r2, #0
.Ltmp165:
	.loc	3 1604 15               @ ../Libraries/STM32F4xx_StdPeriph_Driver/src/stm32f4xx_adc.c:1604:15
	ldr	r2, [r0, #4]
.Ltmp166:
	.loc	3 1594 27               @ ../Libraries/STM32F4xx_StdPeriph_Driver/src/stm32f4xx_adc.c:1594:27
	lsl.w	r1, r3, r1
.Ltmp167:
	@DEBUG_VALUE: ADC_ITConfig:itmask <- $r1
	.loc	3 1604 15               @ ../Libraries/STM32F4xx_StdPeriph_Driver/src/stm32f4xx_adc.c:1604:15
	ite	eq
	biceq.w	r1, r2, r1
.Ltmp168:
	.loc	3 1599 15               @ ../Libraries/STM32F4xx_StdPeriph_Driver/src/stm32f4xx_adc.c:1599:15
	orrne	r1, r2
.Ltmp169:
	.loc	3 0 0 is_stmt 0         @ ../Libraries/STM32F4xx_StdPeriph_Driver/src/stm32f4xx_adc.c:0:0
	str	r1, [r0, #4]
.Ltmp170:
	.loc	3 1606 1 is_stmt 1      @ ../Libraries/STM32F4xx_StdPeriph_Driver/src/stm32f4xx_adc.c:1606:1
	bx	lr
.Ltmp171:
.Lfunc_end33:
	.size	ADC_ITConfig, .Lfunc_end33-ADC_ITConfig
	.cfi_endproc
	.cantunwind
	.fnend
                                        @ -- End function
	.section	.text.ADC_GetFlagStatus,"ax",%progbits
	.hidden	ADC_GetFlagStatus       @ -- Begin function ADC_GetFlagStatus
	.globl	ADC_GetFlagStatus
	.p2align	1
	.type	ADC_GetFlagStatus,%function
	.code	16                      @ @ADC_GetFlagStatus
	.thumb_func
ADC_GetFlagStatus:
.Lfunc_begin34:
	.loc	3 1622 0                @ ../Libraries/STM32F4xx_StdPeriph_Driver/src/stm32f4xx_adc.c:1622:0
	.fnstart
	.cfi_startproc
@ %bb.0:
	@DEBUG_VALUE: ADC_GetFlagStatus:ADCx <- $r0
	@DEBUG_VALUE: ADC_GetFlagStatus:ADCx <- $r0
	@DEBUG_VALUE: ADC_GetFlagStatus:ADC_FLAG <- $r1
	@DEBUG_VALUE: ADC_GetFlagStatus:ADC_FLAG <- $r1
	@DEBUG_VALUE: ADC_GetFlagStatus:bitstatus <- 0
	.loc	3 1629 14 prologue_end  @ ../Libraries/STM32F4xx_StdPeriph_Driver/src/stm32f4xx_adc.c:1629:14
	ldr	r0, [r0]
.Ltmp172:
	.loc	3 1629 17 is_stmt 0     @ ../Libraries/STM32F4xx_StdPeriph_Driver/src/stm32f4xx_adc.c:1629:17
	ands	r0, r1
	.loc	3 1629 29               @ ../Libraries/STM32F4xx_StdPeriph_Driver/src/stm32f4xx_adc.c:1629:29
	it	ne
	movne	r0, #1
.Ltmp173:
	@DEBUG_VALUE: ADC_GetFlagStatus:bitstatus <- undef
	.loc	3 1640 3 is_stmt 1      @ ../Libraries/STM32F4xx_StdPeriph_Driver/src/stm32f4xx_adc.c:1640:3
	bx	lr
.Ltmp174:
.Lfunc_end34:
	.size	ADC_GetFlagStatus, .Lfunc_end34-ADC_GetFlagStatus
	.cfi_endproc
	.cantunwind
	.fnend
                                        @ -- End function
	.section	.text.ADC_ClearFlag,"ax",%progbits
	.hidden	ADC_ClearFlag           @ -- Begin function ADC_ClearFlag
	.globl	ADC_ClearFlag
	.p2align	1
	.type	ADC_ClearFlag,%function
	.code	16                      @ @ADC_ClearFlag
	.thumb_func
ADC_ClearFlag:
.Lfunc_begin35:
	.loc	3 1657 0                @ ../Libraries/STM32F4xx_StdPeriph_Driver/src/stm32f4xx_adc.c:1657:0
	.fnstart
	.cfi_startproc
@ %bb.0:
	@DEBUG_VALUE: ADC_ClearFlag:ADCx <- $r0
	@DEBUG_VALUE: ADC_ClearFlag:ADCx <- $r0
	@DEBUG_VALUE: ADC_ClearFlag:ADC_FLAG <- $r1
	@DEBUG_VALUE: ADC_ClearFlag:ADC_FLAG <- $r1
	.loc	3 1663 14 prologue_end  @ ../Libraries/STM32F4xx_StdPeriph_Driver/src/stm32f4xx_adc.c:1663:14
	mvns	r1, r1
.Ltmp175:
	.loc	3 1663 12 is_stmt 0     @ ../Libraries/STM32F4xx_StdPeriph_Driver/src/stm32f4xx_adc.c:1663:12
	str	r1, [r0]
	.loc	3 1664 1 is_stmt 1      @ ../Libraries/STM32F4xx_StdPeriph_Driver/src/stm32f4xx_adc.c:1664:1
	bx	lr
.Ltmp176:
.Lfunc_end35:
	.size	ADC_ClearFlag, .Lfunc_end35-ADC_ClearFlag
	.cfi_endproc
	.cantunwind
	.fnend
                                        @ -- End function
	.section	.text.ADC_GetITStatus,"ax",%progbits
	.hidden	ADC_GetITStatus         @ -- Begin function ADC_GetITStatus
	.globl	ADC_GetITStatus
	.p2align	1
	.type	ADC_GetITStatus,%function
	.code	16                      @ @ADC_GetITStatus
	.thumb_func
ADC_GetITStatus:
.Lfunc_begin36:
	.loc	3 1678 0                @ ../Libraries/STM32F4xx_StdPeriph_Driver/src/stm32f4xx_adc.c:1678:0
	.fnstart
	.cfi_startproc
@ %bb.0:
	@DEBUG_VALUE: ADC_GetITStatus:ADCx <- $r0
	@DEBUG_VALUE: ADC_GetITStatus:ADCx <- $r0
	@DEBUG_VALUE: ADC_GetITStatus:ADC_IT <- $r1
	@DEBUG_VALUE: ADC_GetITStatus:ADC_IT <- $r1
	@DEBUG_VALUE: ADC_GetITStatus:bitstatus <- 0
	@DEBUG_VALUE: ADC_GetITStatus:itmask <- undef
	@DEBUG_VALUE: ADC_GetITStatus:enablestatus <- 0
	.loc	3 1690 50 prologue_end  @ ../Libraries/STM32F4xx_StdPeriph_Driver/src/stm32f4xx_adc.c:1690:50
	uxtb	r2, r1
	movs	r3, #1
	.loc	3 1690 47 is_stmt 0     @ ../Libraries/STM32F4xx_StdPeriph_Driver/src/stm32f4xx_adc.c:1690:47
	lsl.w	r2, r3, r2
	.loc	3 1690 25               @ ../Libraries/STM32F4xx_StdPeriph_Driver/src/stm32f4xx_adc.c:1690:25
	ldr	r3, [r0, #4]
	.loc	3 1690 29               @ ../Libraries/STM32F4xx_StdPeriph_Driver/src/stm32f4xx_adc.c:1690:29
	ands	r2, r3
.Ltmp177:
	@DEBUG_VALUE: ADC_GetITStatus:enablestatus <- $r2
	.loc	3 1693 51 is_stmt 1     @ ../Libraries/STM32F4xx_StdPeriph_Driver/src/stm32f4xx_adc.c:1693:51
	it	ne
	movne	r2, #1
.Ltmp178:
	.loc	3 1693 15 is_stmt 0     @ ../Libraries/STM32F4xx_StdPeriph_Driver/src/stm32f4xx_adc.c:1693:15
	ldr	r0, [r0]
.Ltmp179:
	.loc	3 1693 18               @ ../Libraries/STM32F4xx_StdPeriph_Driver/src/stm32f4xx_adc.c:1693:18
	and.w	r0, r0, r1, lsr #8
	.loc	3 1693 28               @ ../Libraries/STM32F4xx_StdPeriph_Driver/src/stm32f4xx_adc.c:1693:28
	cmp	r0, #0
	it	ne
	movne	r0, #1
	.loc	3 1693 48               @ ../Libraries/STM32F4xx_StdPeriph_Driver/src/stm32f4xx_adc.c:1693:48
	ands	r0, r2
.Ltmp180:
	@DEBUG_VALUE: ADC_GetITStatus:bitstatus <- undef
	.loc	3 1704 3 is_stmt 1      @ ../Libraries/STM32F4xx_StdPeriph_Driver/src/stm32f4xx_adc.c:1704:3
	bx	lr
.Ltmp181:
.Lfunc_end36:
	.size	ADC_GetITStatus, .Lfunc_end36-ADC_GetITStatus
	.cfi_endproc
	.cantunwind
	.fnend
                                        @ -- End function
	.section	.text.ADC_ClearITPendingBit,"ax",%progbits
	.hidden	ADC_ClearITPendingBit   @ -- Begin function ADC_ClearITPendingBit
	.globl	ADC_ClearITPendingBit
	.p2align	1
	.type	ADC_ClearITPendingBit,%function
	.code	16                      @ @ADC_ClearITPendingBit
	.thumb_func
ADC_ClearITPendingBit:
.Lfunc_begin37:
	.loc	3 1719 0                @ ../Libraries/STM32F4xx_StdPeriph_Driver/src/stm32f4xx_adc.c:1719:0
	.fnstart
	.cfi_startproc
@ %bb.0:
	@DEBUG_VALUE: ADC_ClearITPendingBit:ADCx <- $r0
	@DEBUG_VALUE: ADC_ClearITPendingBit:ADCx <- $r0
	@DEBUG_VALUE: ADC_ClearITPendingBit:ADC_IT <- $r1
	@DEBUG_VALUE: ADC_ClearITPendingBit:ADC_IT <- $r1
	@DEBUG_VALUE: ADC_ClearITPendingBit:itmask <- undef
	.loc	3 1727 14 prologue_end  @ ../Libraries/STM32F4xx_StdPeriph_Driver/src/stm32f4xx_adc.c:1727:14
	mvn.w	r1, r1, lsr #8
.Ltmp182:
	.loc	3 1727 12 is_stmt 0     @ ../Libraries/STM32F4xx_StdPeriph_Driver/src/stm32f4xx_adc.c:1727:12
	str	r1, [r0]
	.loc	3 1728 1 is_stmt 1      @ ../Libraries/STM32F4xx_StdPeriph_Driver/src/stm32f4xx_adc.c:1728:1
	bx	lr
.Ltmp183:
.Lfunc_end37:
	.size	ADC_ClearITPendingBit, .Lfunc_end37-ADC_ClearITPendingBit
	.cfi_endproc
	.cantunwind
	.fnend
                                        @ -- End function
	.file	4 "F:\\SkyDrive\\OtvoreniProjekti\\HotelSaplast\\fw\\KontrolerHotela\\HC070318\\Project" "../Libraries/STM32F4xx_StdPeriph_Driver/inc\\stm32f4xx_adc.h"
	.section	".note.GNU-stack","",%progbits
	.eabi_attribute	30, 3	@ Tag_ABI_optimization_goals
	.ARM_attribute	16, 1	@ Tag_AV_eba