	.text
	.syntax unified
	.eabi_attribute	67, "2.09"	@ Tag_conformance
	.cpu	cortex-m4
	.eabi_attribute	6, 13	@ Tag_CPU_arch
	.eabi_attribute	7, 77	@ Tag_CPU_arch_profile
	.eabi_attribute	8, 0	@ Tag_ARM_ISA_use
	.eabi_attribute	9, 2	@ Tag_THUMB_ISA_use
	.fpu	fpv4-sp-d16
	.eabi_attribute	27, 1	@ Tag_ABI_HardFP_use
	.eabi_attribute	36, 1	@ Tag_FP_HP_extension
	.eabi_attribute	34, 1	@ Tag_CPU_unaligned_access
	.eabi_attribute	17, 1	@ Tag_ABI_PCS_GOT_use
	.eabi_attribute	20, 2	@ Tag_ABI_FP_denormal
	.eabi_attribute	21, 0	@ Tag_ABI_FP_exceptions
	.eabi_attribute	23, 1	@ Tag_ABI_FP_number_model
	.eabi_attribute	24, 1	@ Tag_ABI_align_needed
	.eabi_attribute	25, 1	@ Tag_ABI_align_preserved
	.eabi_attribute	28, 1	@ Tag_ABI_VFP_args
	.eabi_attribute	38, 1	@ Tag_ABI_FP_16bit_format
	.eabi_attribute	18, 2	@ Tag_ABI_PCS_wchar_t
	.eabi_attribute	26, 1	@ Tag_ABI_enum_size
	.eabi_attribute	14, 0	@ Tag_ABI_PCS_R9_use
	.file	"tcp.c"
	.file	1 "F:\\SkyDrive\\OtvoreniProjekti\\HotelSaplast\\fw\\KontrolerHotela\\HC070318\\Project" "../Libraries/lwip-1.4.1/src/core/tcp.c"
	.file	2 "F:\\SkyDrive\\OtvoreniProjekti\\HotelSaplast\\fw\\KontrolerHotela\\HC070318\\Project" "../Libraries/lwip-1.4.1/port/arch\\cc.h"
	.file	3 "F:\\SkyDrive\\OtvoreniProjekti\\HotelSaplast\\fw\\KontrolerHotela\\HC070318\\Project" "../Libraries/lwip-1.4.1/src/include/ipv4\\lwip/ip_addr.h"
	.file	4 "F:\\SkyDrive\\OtvoreniProjekti\\HotelSaplast\\fw\\KontrolerHotela\\HC070318\\Project" "../Libraries/lwip-1.4.1/src/include\\lwip/tcp.h"
	.file	5 "F:\\SkyDrive\\OtvoreniProjekti\\HotelSaplast\\fw\\KontrolerHotela\\HC070318\\Project" "../Libraries/lwip-1.4.1/src/include\\lwip/err.h"
	.file	6 "F:\\SkyDrive\\OtvoreniProjekti\\HotelSaplast\\fw\\KontrolerHotela\\HC070318\\Project" "../Libraries/lwip-1.4.1/src/include\\lwip/tcp_impl.h"
	.file	7 "F:\\SkyDrive\\OtvoreniProjekti\\HotelSaplast\\fw\\KontrolerHotela\\HC070318\\Project" "../Libraries/lwip-1.4.1/src/include\\lwip/pbuf.h"
	.file	8 "F:\\SkyDrive\\OtvoreniProjekti\\HotelSaplast\\fw\\KontrolerHotela\\HC070318\\Project" "../Libraries/lwip-1.4.1/src/include\\lwip/memp.h"
	.section	.text.tcp_init,"ax",%progbits
	.hidden	tcp_init                @ -- Begin function tcp_init
	.globl	tcp_init
	.p2align	1
	.type	tcp_init,%function
	.code	16                      @ @tcp_init
	.thumb_func
tcp_init:
.Lfunc_begin0:
	.loc	1 130 0                 @ ../Libraries/lwip-1.4.1/src/core/tcp.c:130:0
	.fnstart
	.cfi_sections .debug_frame
	.cfi_startproc
@ %bb.0:
	.loc	1 134 1 prologue_end    @ ../Libraries/lwip-1.4.1/src/core/tcp.c:134:1
	bx	lr
.Ltmp0:
.Lfunc_end0:
	.size	tcp_init, .Lfunc_end0-tcp_init
	.cfi_endproc
	.cantunwind
	.fnend
                                        @ -- End function
	.section	.text.tcp_tmr,"ax",%progbits
	.hidden	tcp_tmr                 @ -- Begin function tcp_tmr
	.globl	tcp_tmr
	.p2align	1
	.type	tcp_tmr,%function
	.code	16                      @ @tcp_tmr
	.thumb_func
tcp_tmr:
.Lfunc_begin1:
	.loc	1 141 0                 @ ../Libraries/lwip-1.4.1/src/core/tcp.c:141:0
	.fnstart
	.cfi_startproc
@ %bb.0:
	.save	{r7, lr}
	push	{r7, lr}
	.cfi_def_cfa_offset 8
	.cfi_offset lr, -4
	.cfi_offset r7, -8
.Ltmp1:
	.loc	1 143 5 prologue_end    @ ../Libraries/lwip-1.4.1/src/core/tcp.c:143:5
	bl	tcp_fasttmr
.Ltmp2:
	.loc	1 145 9                 @ ../Libraries/lwip-1.4.1/src/core/tcp.c:145:9
	movw	r0, :lower16:tcp_timer
	movt	r0, :upper16:tcp_timer
	ldrb	r1, [r0]
	adds	r1, #1
	strb	r1, [r0]
.Ltmp3:
	.loc	1 145 9 is_stmt 0       @ ../Libraries/lwip-1.4.1/src/core/tcp.c:145:9
	lsls	r0, r1, #31
.Ltmp4:
	.loc	1 149 9 is_stmt 1       @ ../Libraries/lwip-1.4.1/src/core/tcp.c:149:9
	ite	ne
	popne.w	{r7, lr}
.Ltmp5:
	.loc	1 151 1                 @ ../Libraries/lwip-1.4.1/src/core/tcp.c:151:1
	popeq	{r7, pc}
.Ltmp6:
	.loc	1 149 9                 @ ../Libraries/lwip-1.4.1/src/core/tcp.c:149:9
	b	tcp_slowtmr
.Ltmp7:
.Lfunc_end1:
	.size	tcp_tmr, .Lfunc_end1-tcp_tmr
	.cfi_endproc
	.cantunwind
	.fnend
                                        @ -- End function
	.section	.text.tcp_fasttmr,"ax",%progbits
	.hidden	tcp_fasttmr             @ -- Begin function tcp_fasttmr
	.globl	tcp_fasttmr
	.p2align	1
	.type	tcp_fasttmr,%function
	.code	16                      @ @tcp_fasttmr
	.thumb_func
tcp_fasttmr:
.Lfunc_begin2:
	.loc	1 1158 0                @ ../Libraries/lwip-1.4.1/src/core/tcp.c:1158:0
	.fnstart
	.cfi_startproc
@ %bb.0:
	.save	{r4, r5, r6, r7, r8, r9, lr}
	push.w	{r4, r5, r6, r7, r8, r9, lr}
	.cfi_def_cfa_offset 28
	.cfi_offset lr, -4
	.cfi_offset r9, -8
	.cfi_offset r8, -12
	.cfi_offset r7, -16
	.cfi_offset r6, -20
	.cfi_offset r5, -24
	.cfi_offset r4, -28
	.pad	#4
	sub	sp, #4
	.cfi_def_cfa_offset 32
	@DEBUG_LABEL: tcp_fasttmr:tcp_fasttmr_start
.Ltmp8:
	.loc	1 1161 5 prologue_end   @ ../Libraries/lwip-1.4.1/src/core/tcp.c:1161:5
	movw	r5, :lower16:tcp_timer_ctr
	.loc	1 1164 11               @ ../Libraries/lwip-1.4.1/src/core/tcp.c:1164:11
	movw	r8, :lower16:tcp_active_pcbs
	.loc	1 1161 5                @ ../Libraries/lwip-1.4.1/src/core/tcp.c:1161:5
	movt	r5, :upper16:tcp_timer_ctr
	.loc	1 1164 11               @ ../Libraries/lwip-1.4.1/src/core/tcp.c:1164:11
	movt	r8, :upper16:tcp_active_pcbs
	.loc	1 1161 5                @ ../Libraries/lwip-1.4.1/src/core/tcp.c:1161:5
	ldrb	r0, [r5]
	.loc	1 1164 11               @ ../Libraries/lwip-1.4.1/src/core/tcp.c:1164:11
	ldr.w	r4, [r8]
.Ltmp9:
	@DEBUG_VALUE: tcp_fasttmr:pcb <- $r4
	.loc	1 1161 5                @ ../Libraries/lwip-1.4.1/src/core/tcp.c:1161:5
	adds	r0, #1
	.loc	1 1166 5                @ ../Libraries/lwip-1.4.1/src/core/tcp.c:1166:5
	cmp	r4, #0
	.loc	1 1161 5                @ ../Libraries/lwip-1.4.1/src/core/tcp.c:1161:5
	strb	r0, [r5]
	.loc	1 1166 5                @ ../Libraries/lwip-1.4.1/src/core/tcp.c:1166:5
	beq	.LBB2_9
.Ltmp10:
@ %bb.1:
	@DEBUG_VALUE: tcp_fasttmr:pcb <- $r4
	.loc	1 0 5 is_stmt 0         @ ../Libraries/lwip-1.4.1/src/core/tcp.c:0:5
	movw	r7, :lower16:tcp_active_pcbs_changed
	mov.w	r9, #0
	movt	r7, :upper16:tcp_active_pcbs_changed
.Ltmp11:
	.p2align	2
.LBB2_2:                                @ =>This Inner Loop Header: Depth=1
	@DEBUG_VALUE: tcp_fasttmr:pcb <- $r4
	@DEBUG_VALUE: tcp_fasttmr:pcb <- $r4
	.loc	1 1168 32 is_stmt 1     @ ../Libraries/lwip-1.4.1/src/core/tcp.c:1168:32
	ldrb	r0, [r5]
	.loc	1 1168 18 is_stmt 0     @ ../Libraries/lwip-1.4.1/src/core/tcp.c:1168:18
	ldrb.w	r1, [r4, #33]
.Ltmp12:
	.loc	1 1168 13               @ ../Libraries/lwip-1.4.1/src/core/tcp.c:1168:13
	cmp	r1, r0
	beq	.LBB2_8
.Ltmp13:
@ %bb.3:                                @   in Loop: Header=BB2_2 Depth=1
	@DEBUG_VALUE: tcp_fasttmr:pcb <- $r4
	.loc	1 1171 29 is_stmt 1     @ ../Libraries/lwip-1.4.1/src/core/tcp.c:1171:29
	strb.w	r0, [r4, #33]
.Ltmp14:
	.loc	1 1173 22               @ ../Libraries/lwip-1.4.1/src/core/tcp.c:1173:22
	ldrb	r0, [r4, #30]
.Ltmp15:
	.loc	1 1173 17 is_stmt 0     @ ../Libraries/lwip-1.4.1/src/core/tcp.c:1173:17
	lsls	r1, r0, #31
	beq	.LBB2_5
.Ltmp16:
@ %bb.4:                                @   in Loop: Header=BB2_2 Depth=1
	@DEBUG_VALUE: tcp_fasttmr:pcb <- $r4
	.loc	1 1176 17 is_stmt 1     @ ../Libraries/lwip-1.4.1/src/core/tcp.c:1176:17
	orr	r0, r0, #2
	strb	r0, [r4, #30]
.Ltmp17:
	.loc	1 1177 17               @ ../Libraries/lwip-1.4.1/src/core/tcp.c:1177:17
	mov	r0, r4
	bl	tcp_output
	.loc	1 1178 28               @ ../Libraries/lwip-1.4.1/src/core/tcp.c:1178:28
	ldrb	r0, [r4, #30]
	and	r0, r0, #252
	strb	r0, [r4, #30]
.Ltmp18:
.LBB2_5:                                @   in Loop: Header=BB2_2 Depth=1
	@DEBUG_VALUE: tcp_fasttmr:pcb <- $r4
	.loc	1 1184 22               @ ../Libraries/lwip-1.4.1/src/core/tcp.c:1184:22
	ldr	r0, [r4, #120]
.Ltmp19:
	.loc	1 1181 25               @ ../Libraries/lwip-1.4.1/src/core/tcp.c:1181:25
	ldr	r6, [r4, #12]
.Ltmp20:
	@DEBUG_VALUE: next <- $r6
	.loc	1 1184 17               @ ../Libraries/lwip-1.4.1/src/core/tcp.c:1184:17
	cbz	r0, .LBB2_7
.Ltmp21:
@ %bb.6:                                @   in Loop: Header=BB2_2 Depth=1
	@DEBUG_VALUE: next <- $r6
	@DEBUG_VALUE: tcp_fasttmr:pcb <- $r4
	.loc	1 1187 17               @ ../Libraries/lwip-1.4.1/src/core/tcp.c:1187:17
	mov	r0, r4
	.loc	1 1186 41               @ ../Libraries/lwip-1.4.1/src/core/tcp.c:1186:41
	strb.w	r9, [r7]
	.loc	1 1187 17               @ ../Libraries/lwip-1.4.1/src/core/tcp.c:1187:17
	bl	tcp_process_refused_data
.Ltmp22:
	@DEBUG_LABEL: tcp_fasttmr:tcp_fasttmr_start
	.loc	1 1188 21               @ ../Libraries/lwip-1.4.1/src/core/tcp.c:1188:21
	ldrb	r0, [r7]
.Ltmp23:
	.loc	1 1164 9                @ ../Libraries/lwip-1.4.1/src/core/tcp.c:1164:9
	mov	r4, r6
.Ltmp24:
	@DEBUG_VALUE: next <- $r4
	.loc	1 1188 21               @ ../Libraries/lwip-1.4.1/src/core/tcp.c:1188:21
	cmp	r0, #0
.Ltmp25:
	.loc	1 1164 11               @ ../Libraries/lwip-1.4.1/src/core/tcp.c:1164:11
	it	ne
	ldrne.w	r4, [r8]
.Ltmp26:
	.loc	1 0 11 is_stmt 0        @ ../Libraries/lwip-1.4.1/src/core/tcp.c:0:11
	b	.LBB2_8
.LBB2_7:                                @   in Loop: Header=BB2_2 Depth=1
.Ltmp27:
	@DEBUG_VALUE: tcp_fasttmr:pcb <- $r4
	.loc	1 1164 9                @ ../Libraries/lwip-1.4.1/src/core/tcp.c:1164:9
	mov	r4, r6
.Ltmp28:
	.p2align	2
.LBB2_8:                                @   in Loop: Header=BB2_2 Depth=1
	@DEBUG_VALUE: tcp_fasttmr:pcb <- $r4
	.loc	1 1166 5 is_stmt 1      @ ../Libraries/lwip-1.4.1/src/core/tcp.c:1166:5
	cmp	r4, #0
	bne	.LBB2_2
.Ltmp29:
.LBB2_9:
	@DEBUG_VALUE: tcp_fasttmr:pcb <- $r4
	.loc	1 1197 1                @ ../Libraries/lwip-1.4.1/src/core/tcp.c:1197:1
	add	sp, #4
	pop.w	{r4, r5, r6, r7, r8, r9, pc}
.Ltmp30:
.Lfunc_end2:
	.size	tcp_fasttmr, .Lfunc_end2-tcp_fasttmr
	.cfi_endproc
	.cantunwind
	.fnend
                                        @ -- End function
	.section	.text.tcp_slowtmr,"ax",%progbits
	.hidden	tcp_slowtmr             @ -- Begin function tcp_slowtmr
	.globl	tcp_slowtmr
	.p2align	1
	.type	tcp_slowtmr,%function
	.code	16                      @ @tcp_slowtmr
	.thumb_func
tcp_slowtmr:
.Lfunc_begin3:
	.loc	1 856 0                 @ ../Libraries/lwip-1.4.1/src/core/tcp.c:856:0
	.fnstart
	.cfi_startproc
@ %bb.0:
	.save	{r4, r5, r6, r7, r8, r9, r10, r11, lr}
	push.w	{r4, r5, r6, r7, r8, r9, r10, r11, lr}
	.cfi_def_cfa_offset 36
	.cfi_offset lr, -4
	.cfi_offset r11, -8
	.cfi_offset r10, -12
	.cfi_offset r9, -16
	.cfi_offset r8, -20
	.cfi_offset r7, -24
	.cfi_offset r6, -28
	.cfi_offset r5, -32
	.cfi_offset r4, -36
	.pad	#12
	sub	sp, #12
	.cfi_def_cfa_offset 48
	@DEBUG_LABEL: tcp_slowtmr:tcp_slowtmr_start
.Ltmp31:
	@DEBUG_VALUE: tcp_slowtmr:prev <- 0
	@DEBUG_VALUE: tcp_slowtmr:err <- 0
	.loc	1 865 5 prologue_end    @ ../Libraries/lwip-1.4.1/src/core/tcp.c:865:5
	movw	r8, :lower16:tcp_ticks
	.loc	1 866 5                 @ ../Libraries/lwip-1.4.1/src/core/tcp.c:866:5
	movw	r10, :lower16:tcp_timer_ctr
	.loc	1 871 11                @ ../Libraries/lwip-1.4.1/src/core/tcp.c:871:11
	movw	r7, :lower16:tcp_active_pcbs
	.loc	1 865 5                 @ ../Libraries/lwip-1.4.1/src/core/tcp.c:865:5
	movt	r8, :upper16:tcp_ticks
	.loc	1 871 11                @ ../Libraries/lwip-1.4.1/src/core/tcp.c:871:11
	movt	r7, :upper16:tcp_active_pcbs
	.loc	1 866 5                 @ ../Libraries/lwip-1.4.1/src/core/tcp.c:866:5
	movt	r10, :upper16:tcp_timer_ctr
	.loc	1 865 5                 @ ../Libraries/lwip-1.4.1/src/core/tcp.c:865:5
	ldr.w	r0, [r8]
	.loc	1 871 11                @ ../Libraries/lwip-1.4.1/src/core/tcp.c:871:11
	ldr	r4, [r7]
.Ltmp32:
	@DEBUG_VALUE: tcp_slowtmr:pcb <- $r4
	.loc	1 865 5                 @ ../Libraries/lwip-1.4.1/src/core/tcp.c:865:5
	adds	r0, #1
	.loc	1 876 5                 @ ../Libraries/lwip-1.4.1/src/core/tcp.c:876:5
	cmp	r4, #0
	.loc	1 865 5                 @ ../Libraries/lwip-1.4.1/src/core/tcp.c:865:5
	str.w	r0, [r8]
	.loc	1 866 5                 @ ../Libraries/lwip-1.4.1/src/core/tcp.c:866:5
	ldrb.w	r0, [r10]
	add.w	r0, r0, #1
	strb.w	r0, [r10]
	.loc	1 876 5                 @ ../Libraries/lwip-1.4.1/src/core/tcp.c:876:5
	beq.w	.LBB3_53
.Ltmp33:
@ %bb.1:
	@DEBUG_VALUE: tcp_slowtmr:pcb <- $r4
	.loc	1 0 5 is_stmt 0         @ ../Libraries/lwip-1.4.1/src/core/tcp.c:0:5
	movw	r9, #19923
	movs	r6, #0
	movt	r9, #4194
	b	.LBB3_7
.Ltmp34:
.LBB3_2:                                @   in Loop: Header=BB3_7 Depth=1
	@DEBUG_VALUE: tcp_slowtmr:pcb <- $r5
	@DEBUG_VALUE: tcp_slowtmr:pcb_reset <- $r10
	@DEBUG_VALUE: tcp_slowtmr:prev <- $r4
	.loc	1 1089 41 is_stmt 1     @ ../Libraries/lwip-1.4.1/src/core/tcp.c:1089:41
	movw	r1, :lower16:tcp_active_pcbs_changed
	movs	r0, #0
	movw	r10, :lower16:tcp_timer_ctr
.Ltmp35:
	.loc	1 0 41 is_stmt 0        @ ../Libraries/lwip-1.4.1/src/core/tcp.c:0:41
	movw	r9, #19923
	.loc	1 1089 41               @ ../Libraries/lwip-1.4.1/src/core/tcp.c:1089:41
	movt	r1, :upper16:tcp_active_pcbs_changed
	.loc	1 1087 31 is_stmt 1     @ ../Libraries/lwip-1.4.1/src/core/tcp.c:1087:31
	strb	r0, [r4, #31]
	movt	r10, :upper16:tcp_timer_ctr
	movt	r9, #4194
	.loc	1 1089 41               @ ../Libraries/lwip-1.4.1/src/core/tcp.c:1089:41
	strb	r0, [r1]
.Ltmp36:
	.loc	1 1090 17               @ ../Libraries/lwip-1.4.1/src/core/tcp.c:1090:17
	ldr.w	r2, [r4, #136]
.Ltmp37:
	.loc	1 1090 17 is_stmt 0     @ ../Libraries/lwip-1.4.1/src/core/tcp.c:1090:17
	cbz	r2, .LBB3_5
.Ltmp38:
@ %bb.3:                                @   in Loop: Header=BB3_7 Depth=1
	@DEBUG_VALUE: tcp_slowtmr:pcb <- $r5
	@DEBUG_VALUE: tcp_slowtmr:prev <- $r4
	.loc	1 1090 17               @ ../Libraries/lwip-1.4.1/src/core/tcp.c:1090:17
	ldr	r0, [r4, #16]
	mov	r1, r4
	blx	r2
.Ltmp39:
	@DEBUG_VALUE: tcp_slowtmr:err <- undef
	.loc	1 1091 21 is_stmt 1     @ ../Libraries/lwip-1.4.1/src/core/tcp.c:1091:21
	movw	r1, :lower16:tcp_active_pcbs_changed
	movt	r1, :upper16:tcp_active_pcbs_changed
	ldrb	r1, [r1]
.Ltmp40:
	.loc	1 1091 21 is_stmt 0     @ ../Libraries/lwip-1.4.1/src/core/tcp.c:1091:21
	cmp	r1, #0
	bne.w	.LBB3_47
.Ltmp41:
@ %bb.4:                                @   in Loop: Header=BB3_7 Depth=1
	@DEBUG_VALUE: tcp_slowtmr:pcb <- $r5
	@DEBUG_VALUE: tcp_slowtmr:prev <- $r4
	.loc	1 1096 21 is_stmt 1     @ ../Libraries/lwip-1.4.1/src/core/tcp.c:1096:21
	cbnz	r0, .LBB3_6
.Ltmp42:
.LBB3_5:                                @   in Loop: Header=BB3_7 Depth=1
	@DEBUG_VALUE: tcp_slowtmr:pcb <- $r5
	@DEBUG_VALUE: tcp_slowtmr:prev <- $r4
	.loc	1 1098 21               @ ../Libraries/lwip-1.4.1/src/core/tcp.c:1098:21
	mov	r0, r4
	bl	tcp_output
.Ltmp43:
.LBB3_6:                                @   in Loop: Header=BB3_7 Depth=1
	@DEBUG_VALUE: tcp_slowtmr:pcb <- $r5
	@DEBUG_VALUE: tcp_slowtmr:prev <- $r4
	.loc	1 0 0 is_stmt 0         @ ../Libraries/lwip-1.4.1/src/core/tcp.c:0:0
	mov	r6, r4
.Ltmp44:
	@DEBUG_VALUE: tcp_slowtmr:prev <- $r6
	mov	r4, r5
.Ltmp45:
	@DEBUG_VALUE: tcp_slowtmr:pcb <- $r4
	b	.LBB3_52
.Ltmp46:
	.p2align	2
.LBB3_7:                                @ =>This Loop Header: Depth=1
                                        @     Child Loop BB3_8 Depth 2
                                        @     Child Loop BB3_36 Depth 2
	@DEBUG_VALUE: tcp_slowtmr:pcb <- $r4
	@DEBUG_VALUE: tcp_slowtmr:prev <- $r6
	@DEBUG_VALUE: tcp_slowtmr:pcb <- $r4
	ldrb.w	r0, [r10]
.Ltmp47:
	.p2align	2
.LBB3_8:                                @   Parent Loop BB3_7 Depth=1
                                        @ =>  This Inner Loop Header: Depth=2
	@DEBUG_VALUE: tcp_slowtmr:prev <- $r6
	@DEBUG_VALUE: tcp_slowtmr:pcb <- $r4
	@DEBUG_VALUE: tcp_slowtmr:prev <- $r4
	@DEBUG_VALUE: tcp_slowtmr:pcb <- $r4
	@DEBUG_VALUE: pcb2 <- $r4
	.loc	1 882 18 is_stmt 1      @ ../Libraries/lwip-1.4.1/src/core/tcp.c:882:18
	ldrb.w	r1, [r4, #33]
.Ltmp48:
	.loc	1 882 13 is_stmt 0      @ ../Libraries/lwip-1.4.1/src/core/tcp.c:882:13
	cmp	r1, r0
	bne	.LBB3_10
.Ltmp49:
@ %bb.9:                                @   in Loop: Header=BB3_8 Depth=2
	@DEBUG_VALUE: tcp_slowtmr:prev <- $r4
	@DEBUG_VALUE: tcp_slowtmr:pcb <- $r4
	.loc	1 885 24 is_stmt 1      @ ../Libraries/lwip-1.4.1/src/core/tcp.c:885:24
	ldr	r4, [r4, #12]
.Ltmp50:
	@DEBUG_VALUE: tcp_slowtmr:pcb <- $r4
	.loc	1 876 5                 @ ../Libraries/lwip-1.4.1/src/core/tcp.c:876:5
	cmp	r4, #0
	bne	.LBB3_8
	b	.LBB3_53
.Ltmp51:
	.p2align	2
.LBB3_10:                               @   in Loop: Header=BB3_7 Depth=1
	@DEBUG_VALUE: tcp_slowtmr:prev <- $r4
	@DEBUG_VALUE: tcp_slowtmr:pcb <- $r4
	.loc	1 888 25                @ ../Libraries/lwip-1.4.1/src/core/tcp.c:888:25
	strb.w	r0, [r4, #33]
.Ltmp52:
	@DEBUG_VALUE: tcp_slowtmr:pcb_reset <- 0
	@DEBUG_VALUE: tcp_slowtmr:pcb_remove <- 0
	.loc	1 0 25 is_stmt 0        @ ../Libraries/lwip-1.4.1/src/core/tcp.c:0:25
	movs	r5, #1
.Ltmp53:
	.loc	1 893 18 is_stmt 1      @ ../Libraries/lwip-1.4.1/src/core/tcp.c:893:18
	ldrb	r1, [r4, #24]
	.loc	1 0 0 is_stmt 0         @ ../Libraries/lwip-1.4.1/src/core/tcp.c:0:0
	ldrb.w	r0, [r4, #70]
	eor	r2, r0, #6
	.loc	1 893 18                @ ../Libraries/lwip-1.4.1/src/core/tcp.c:893:18
	eor	r3, r1, #2
	.loc	1 893 36                @ ../Libraries/lwip-1.4.1/src/core/tcp.c:893:36
	orrs	r2, r3
	it	ne
	cmpne	r0, #12
	beq	.LBB3_22
.Ltmp54:
@ %bb.11:                               @   in Loop: Header=BB3_7 Depth=1
	@DEBUG_VALUE: tcp_slowtmr:prev <- $r4
	@DEBUG_VALUE: tcp_slowtmr:pcb <- $r4
	.loc	1 905 22 is_stmt 1      @ ../Libraries/lwip-1.4.1/src/core/tcp.c:905:22
	ldrb.w	r2, [r4, #149]
.Ltmp55:
	.loc	1 905 17 is_stmt 0      @ ../Libraries/lwip-1.4.1/src/core/tcp.c:905:17
	cbz	r2, .LBB3_14
.Ltmp56:
@ %bb.12:                               @   in Loop: Header=BB3_7 Depth=1
	@DEBUG_VALUE: tcp_slowtmr:prev <- $r4
	@DEBUG_VALUE: tcp_slowtmr:pcb <- $r4
	.loc	1 910 41 is_stmt 1      @ ../Libraries/lwip-1.4.1/src/core/tcp.c:910:41
	movw	r1, :lower16:tcp_persist_backoff
.Ltmp57:
	.loc	1 909 33                @ ../Libraries/lwip-1.4.1/src/core/tcp.c:909:33
	ldrb.w	r0, [r4, #148]
.Ltmp58:
	.loc	1 910 41                @ ../Libraries/lwip-1.4.1/src/core/tcp.c:910:41
	movt	r1, :upper16:tcp_persist_backoff
	add	r1, r2
.Ltmp59:
	.loc	1 909 33                @ ../Libraries/lwip-1.4.1/src/core/tcp.c:909:33
	adds	r0, #1
.Ltmp60:
	.loc	1 910 41                @ ../Libraries/lwip-1.4.1/src/core/tcp.c:910:41
	ldrb	r1, [r1, #-1]
.Ltmp61:
	.loc	1 909 33                @ ../Libraries/lwip-1.4.1/src/core/tcp.c:909:33
	strb.w	r0, [r4, #148]
	uxtb	r0, r0
	.loc	1 910 21                @ ../Libraries/lwip-1.4.1/src/core/tcp.c:910:21
	cmp	r0, r1
	blo	.LBB3_21
.Ltmp62:
@ %bb.13:                               @   in Loop: Header=BB3_7 Depth=1
	@DEBUG_VALUE: tcp_slowtmr:prev <- $r4
	@DEBUG_VALUE: tcp_slowtmr:pcb <- $r4
	.loc	1 912 38                @ ../Libraries/lwip-1.4.1/src/core/tcp.c:912:38
	movs	r0, #0
	.loc	1 913 25                @ ../Libraries/lwip-1.4.1/src/core/tcp.c:913:25
	cmp	r2, #6
	.loc	1 912 38                @ ../Libraries/lwip-1.4.1/src/core/tcp.c:912:38
	strb.w	r0, [r4, #148]
.Ltmp63:
	.loc	1 915 45                @ ../Libraries/lwip-1.4.1/src/core/tcp.c:915:45
	itt	ls
	addls	r0, r2, #1
	strbls.w	r0, [r4, #149]
.Ltmp64:
	.loc	1 917 21                @ ../Libraries/lwip-1.4.1/src/core/tcp.c:917:21
	mov	r0, r4
	bl	tcp_zero_window_probe
	b	.LBB3_21
.Ltmp65:
.LBB3_14:                               @   in Loop: Header=BB3_7 Depth=1
	@DEBUG_VALUE: tcp_slowtmr:prev <- $r4
	@DEBUG_VALUE: tcp_slowtmr:pcb <- $r4
	.loc	1 923 26                @ ../Libraries/lwip-1.4.1/src/core/tcp.c:923:26
	ldrsh.w	r2, [r4, #52]
.Ltmp66:
	.loc	1 923 21 is_stmt 0      @ ../Libraries/lwip-1.4.1/src/core/tcp.c:923:21
	cmp	r2, #0
	blt	.LBB3_16
.Ltmp67:
@ %bb.15:                               @   in Loop: Header=BB3_7 Depth=1
	@DEBUG_VALUE: tcp_slowtmr:prev <- $r4
	@DEBUG_VALUE: tcp_slowtmr:pcb <- $r4
	.loc	1 925 21 is_stmt 1      @ ../Libraries/lwip-1.4.1/src/core/tcp.c:925:21
	adds	r2, #1
	strh	r2, [r4, #52]
.Ltmp68:
.LBB3_16:                               @   in Loop: Header=BB3_7 Depth=1
	@DEBUG_VALUE: tcp_slowtmr:prev <- $r4
	@DEBUG_VALUE: tcp_slowtmr:pcb <- $r4
	.loc	1 928 26                @ ../Libraries/lwip-1.4.1/src/core/tcp.c:928:26
	ldr	r3, [r4, #112]
	.loc	1 928 42 is_stmt 0      @ ../Libraries/lwip-1.4.1/src/core/tcp.c:928:42
	cbz	r3, .LBB3_21
.Ltmp69:
@ %bb.17:                               @   in Loop: Header=BB3_7 Depth=1
	@DEBUG_VALUE: tcp_slowtmr:prev <- $r4
	@DEBUG_VALUE: tcp_slowtmr:pcb <- $r4
	.loc	1 928 64                @ ../Libraries/lwip-1.4.1/src/core/tcp.c:928:64
	ldrsh.w	r3, [r4, #68]
	.loc	1 928 56                @ ../Libraries/lwip-1.4.1/src/core/tcp.c:928:56
	sxth	r2, r2
.Ltmp70:
	.loc	1 928 21                @ ../Libraries/lwip-1.4.1/src/core/tcp.c:928:21
	cmp	r2, r3
	blt	.LBB3_21
.Ltmp71:
@ %bb.18:                               @   in Loop: Header=BB3_7 Depth=1
	@DEBUG_VALUE: tcp_slowtmr:prev <- $r4
	@DEBUG_VALUE: tcp_slowtmr:pcb <- $r4
	.loc	1 937 25 is_stmt 1      @ ../Libraries/lwip-1.4.1/src/core/tcp.c:937:25
	cmp	r1, #2
	beq	.LBB3_20
.Ltmp72:
@ %bb.19:                               @   in Loop: Header=BB3_7 Depth=1
	@DEBUG_VALUE: tcp_slowtmr:prev <- $r4
	@DEBUG_VALUE: tcp_slowtmr:pcb <- $r4
	.loc	1 939 66                @ ../Libraries/lwip-1.4.1/src/core/tcp.c:939:66
	movw	r1, :lower16:tcp_backoff
	.loc	1 939 59 is_stmt 0      @ ../Libraries/lwip-1.4.1/src/core/tcp.c:939:59
	ldrsh.w	r2, [r4, #66]
	.loc	1 939 66                @ ../Libraries/lwip-1.4.1/src/core/tcp.c:939:66
	movt	r1, :upper16:tcp_backoff
	ldrb	r0, [r1, r0]
	.loc	1 939 43                @ ../Libraries/lwip-1.4.1/src/core/tcp.c:939:43
	ldrsh.w	r1, [r4, #64]
	.loc	1 939 52                @ ../Libraries/lwip-1.4.1/src/core/tcp.c:939:52
	add.w	r1, r2, r1, asr #3
	.loc	1 939 63                @ ../Libraries/lwip-1.4.1/src/core/tcp.c:939:63
	lsl.w	r0, r1, r0
	.loc	1 939 34                @ ../Libraries/lwip-1.4.1/src/core/tcp.c:939:34
	strh.w	r0, [r4, #68]
.Ltmp73:
.LBB3_20:                               @   in Loop: Header=BB3_7 Depth=1
	@DEBUG_VALUE: tcp_slowtmr:prev <- $r4
	@DEBUG_VALUE: tcp_slowtmr:pcb <- $r4
	.loc	1 943 32 is_stmt 1      @ ../Libraries/lwip-1.4.1/src/core/tcp.c:943:32
	movs	r0, #0
	strh	r0, [r4, #52]
	.loc	1 946 31                @ ../Libraries/lwip-1.4.1/src/core/tcp.c:946:31
	ldrh.w	r0, [r4, #76]
	ldrh.w	r2, [r4, #96]
	cmp	r0, r2
	it	lo
	movlo	r2, r0
.Ltmp74:
	@DEBUG_VALUE: tcp_slowtmr:eff_wnd <- $r2
	.loc	1 947 45                @ ../Libraries/lwip-1.4.1/src/core/tcp.c:947:45
	lsrs	r0, r2, #1
	.loc	1 947 35 is_stmt 0      @ ../Libraries/lwip-1.4.1/src/core/tcp.c:947:35
	strh.w	r0, [r4, #78]
.Ltmp75:
	.loc	1 948 47 is_stmt 1      @ ../Libraries/lwip-1.4.1/src/core/tcp.c:948:47
	ldrh	r0, [r4, #54]
	.loc	1 948 51 is_stmt 0      @ ../Libraries/lwip-1.4.1/src/core/tcp.c:948:51
	lsls	r1, r0, #1
.Ltmp76:
	.loc	1 948 25                @ ../Libraries/lwip-1.4.1/src/core/tcp.c:948:25
	cmp.w	r1, r2, lsr #1
.Ltmp77:
	.loc	1 950 39 is_stmt 1      @ ../Libraries/lwip-1.4.1/src/core/tcp.c:950:39
	it	hi
	strhhi.w	r1, [r4, #78]
.Ltmp78:
	.loc	1 952 31                @ ../Libraries/lwip-1.4.1/src/core/tcp.c:952:31
	strh.w	r0, [r4, #76]
	.loc	1 959 21                @ ../Libraries/lwip-1.4.1/src/core/tcp.c:959:21
	mov	r0, r4
	bl	tcp_rexmit_rto
.Ltmp79:
.LBB3_21:                               @   in Loop: Header=BB3_7 Depth=1
	@DEBUG_VALUE: tcp_slowtmr:prev <- $r4
	@DEBUG_VALUE: tcp_slowtmr:pcb <- $r4
	.loc	1 0 21 is_stmt 0        @ ../Libraries/lwip-1.4.1/src/core/tcp.c:0:21
	movs	r5, #0
.Ltmp80:
.LBB3_22:                               @   in Loop: Header=BB3_7 Depth=1
	@DEBUG_VALUE: tcp_slowtmr:prev <- $r4
	@DEBUG_VALUE: tcp_slowtmr:pcb <- $r4
	@DEBUG_VALUE: tcp_slowtmr:pcb_remove <- $r5
	.loc	1 964 18 is_stmt 1      @ ../Libraries/lwip-1.4.1/src/core/tcp.c:964:18
	ldrb	r0, [r4, #24]
.Ltmp81:
	.loc	1 964 13 is_stmt 0      @ ../Libraries/lwip-1.4.1/src/core/tcp.c:964:13
	cmp	r0, #6
	bne	.LBB3_25
.Ltmp82:
@ %bb.23:                               @   in Loop: Header=BB3_7 Depth=1
	@DEBUG_VALUE: tcp_slowtmr:pcb_remove <- $r5
	@DEBUG_VALUE: tcp_slowtmr:prev <- $r4
	@DEBUG_VALUE: tcp_slowtmr:pcb <- $r4
	.loc	1 967 22 is_stmt 1      @ ../Libraries/lwip-1.4.1/src/core/tcp.c:967:22
	ldrb	r1, [r4, #30]
.Ltmp83:
	.loc	1 967 17 is_stmt 0      @ ../Libraries/lwip-1.4.1/src/core/tcp.c:967:17
	lsls	r1, r1, #27
	bpl	.LBB3_25
.Ltmp84:
@ %bb.24:                               @   in Loop: Header=BB3_7 Depth=1
	@DEBUG_VALUE: tcp_slowtmr:pcb_remove <- $r5
	@DEBUG_VALUE: tcp_slowtmr:prev <- $r4
	@DEBUG_VALUE: tcp_slowtmr:pcb <- $r4
	.loc	1 971 47 is_stmt 1      @ ../Libraries/lwip-1.4.1/src/core/tcp.c:971:47
	ldr	r1, [r4, #36]
	.loc	1 971 30 is_stmt 0      @ ../Libraries/lwip-1.4.1/src/core/tcp.c:971:30
	ldr.w	r2, [r8]
	.loc	1 971 40                @ ../Libraries/lwip-1.4.1/src/core/tcp.c:971:40
	subs	r1, r2, r1
.Ltmp85:
	.loc	1 971 21                @ ../Libraries/lwip-1.4.1/src/core/tcp.c:971:21
	cmp	r1, #40
	it	hi
	addhi	r5, #1
.Ltmp86:
.LBB3_25:                               @   in Loop: Header=BB3_7 Depth=1
	@DEBUG_VALUE: tcp_slowtmr:prev <- $r4
	@DEBUG_VALUE: tcp_slowtmr:pcb <- $r4
	@DEBUG_VALUE: tcp_slowtmr:pcb_remove <- $r5
	.loc	1 981 13 is_stmt 1      @ ../Libraries/lwip-1.4.1/src/core/tcp.c:981:13
	ldrb	r1, [r4, #8]
	.loc	1 981 47 is_stmt 0      @ ../Libraries/lwip-1.4.1/src/core/tcp.c:981:47
	lsls	r1, r1, #28
	bpl	.LBB3_32
.Ltmp87:
@ %bb.26:                               @   in Loop: Header=BB3_7 Depth=1
	@DEBUG_VALUE: tcp_slowtmr:pcb_remove <- $r5
	@DEBUG_VALUE: tcp_slowtmr:prev <- $r4
	@DEBUG_VALUE: tcp_slowtmr:pcb <- $r4
	.loc	1 982 46 is_stmt 1      @ ../Libraries/lwip-1.4.1/src/core/tcp.c:982:46
	cmp	r0, #7
	beq	.LBB3_28
.Ltmp88:
@ %bb.27:                               @   in Loop: Header=BB3_7 Depth=1
	@DEBUG_VALUE: tcp_slowtmr:pcb_remove <- $r5
	@DEBUG_VALUE: tcp_slowtmr:prev <- $r4
	@DEBUG_VALUE: tcp_slowtmr:pcb <- $r4
	cmp	r0, #4
	bne	.LBB3_32
.Ltmp89:
.LBB3_28:                               @   in Loop: Header=BB3_7 Depth=1
	@DEBUG_VALUE: tcp_slowtmr:pcb_remove <- $r5
	@DEBUG_VALUE: tcp_slowtmr:prev <- $r4
	@DEBUG_VALUE: tcp_slowtmr:pcb <- $r4
	.loc	1 985 43                @ ../Libraries/lwip-1.4.1/src/core/tcp.c:985:43
	ldr	r1, [r4, #36]
	.loc	1 985 26 is_stmt 0      @ ../Libraries/lwip-1.4.1/src/core/tcp.c:985:26
	ldr.w	r2, [r8]
	.loc	1 986 27 is_stmt 1      @ ../Libraries/lwip-1.4.1/src/core/tcp.c:986:27
	ldr.w	r0, [r4, #144]
	.loc	1 985 36                @ ../Libraries/lwip-1.4.1/src/core/tcp.c:985:36
	subs	r1, r2, r1
	.loc	1 986 37                @ ../Libraries/lwip-1.4.1/src/core/tcp.c:986:37
	movw	r2, #19640
	movt	r2, #10
	add	r2, r0
	.loc	1 986 58 is_stmt 0      @ ../Libraries/lwip-1.4.1/src/core/tcp.c:986:58
	umull	r2, r3, r2, r9
.Ltmp90:
	.loc	1 985 17 is_stmt 1      @ ../Libraries/lwip-1.4.1/src/core/tcp.c:985:17
	cmp.w	r1, r3, lsr #5
	bls	.LBB3_30
.Ltmp91:
@ %bb.29:                               @   in Loop: Header=BB3_7 Depth=1
	@DEBUG_VALUE: tcp_slowtmr:pcb_remove <- $r5
	@DEBUG_VALUE: tcp_slowtmr:prev <- $r4
	@DEBUG_VALUE: tcp_slowtmr:pcb <- $r4
	.loc	1 992 17                @ ../Libraries/lwip-1.4.1/src/core/tcp.c:992:17
	adds	r5, #1
.Ltmp92:
	@DEBUG_VALUE: tcp_slowtmr:pcb_remove <- $r5
	.loc	1 0 17 is_stmt 0        @ ../Libraries/lwip-1.4.1/src/core/tcp.c:0:17
	mov.w	r10, #1
.Ltmp93:
	@DEBUG_VALUE: tcp_slowtmr:pcb_reset <- 1
	b	.LBB3_33
.Ltmp94:
.LBB3_30:                               @   in Loop: Header=BB3_7 Depth=1
	@DEBUG_VALUE: tcp_slowtmr:pcb_remove <- $r5
	@DEBUG_VALUE: tcp_slowtmr:prev <- $r4
	@DEBUG_VALUE: tcp_slowtmr:pcb <- $r4
	.loc	1 996 44 is_stmt 1      @ ../Libraries/lwip-1.4.1/src/core/tcp.c:996:44
	ldrb.w	r2, [r4, #150]
	.loc	1 996 58 is_stmt 0      @ ../Libraries/lwip-1.4.1/src/core/tcp.c:996:58
	movw	r3, #9375
	muls	r2, r3, r2
	.loc	1 996 37                @ ../Libraries/lwip-1.4.1/src/core/tcp.c:996:37
	add.w	r0, r0, r2, lsl #3
	.loc	1 997 21 is_stmt 1      @ ../Libraries/lwip-1.4.1/src/core/tcp.c:997:21
	umull	r0, r2, r0, r9
.Ltmp95:
	.loc	1 995 22                @ ../Libraries/lwip-1.4.1/src/core/tcp.c:995:22
	cmp.w	r1, r2, lsr #5
	bls	.LBB3_32
.Ltmp96:
@ %bb.31:                               @   in Loop: Header=BB3_7 Depth=1
	@DEBUG_VALUE: tcp_slowtmr:pcb_remove <- $r5
	@DEBUG_VALUE: tcp_slowtmr:prev <- $r4
	@DEBUG_VALUE: tcp_slowtmr:pcb <- $r4
	.loc	1 999 17                @ ../Libraries/lwip-1.4.1/src/core/tcp.c:999:17
	mov	r0, r4
	bl	tcp_keepalive
	.loc	1 1000 35               @ ../Libraries/lwip-1.4.1/src/core/tcp.c:1000:35
	ldrb.w	r0, [r4, #150]
	adds	r0, #1
	strb.w	r0, [r4, #150]
.Ltmp97:
	.p2align	2
.LBB3_32:                               @   in Loop: Header=BB3_7 Depth=1
	@DEBUG_VALUE: tcp_slowtmr:pcb_remove <- $r5
	@DEBUG_VALUE: tcp_slowtmr:prev <- $r4
	@DEBUG_VALUE: tcp_slowtmr:pcb <- $r4
	.loc	1 0 35 is_stmt 0        @ ../Libraries/lwip-1.4.1/src/core/tcp.c:0:35
	mov.w	r10, #0
.Ltmp98:
.LBB3_33:                               @   in Loop: Header=BB3_7 Depth=1
	@DEBUG_VALUE: tcp_slowtmr:pcb_remove <- $r5
	@DEBUG_VALUE: tcp_slowtmr:prev <- $r4
	@DEBUG_VALUE: tcp_slowtmr:pcb <- $r4
	@DEBUG_VALUE: tcp_slowtmr:pcb_remove <- $r5
	@DEBUG_VALUE: tcp_slowtmr:pcb_reset <- $r10
	.loc	1 1008 18 is_stmt 1     @ ../Libraries/lwip-1.4.1/src/core/tcp.c:1008:18
	ldr	r0, [r4, #116]
	.loc	1 1008 32 is_stmt 0     @ ../Libraries/lwip-1.4.1/src/core/tcp.c:1008:32
	cbz	r0, .LBB3_38
.Ltmp99:
@ %bb.34:                               @   in Loop: Header=BB3_7 Depth=1
	@DEBUG_VALUE: tcp_slowtmr:pcb_reset <- $r10
	@DEBUG_VALUE: tcp_slowtmr:pcb_remove <- $r5
	@DEBUG_VALUE: tcp_slowtmr:prev <- $r4
	@DEBUG_VALUE: tcp_slowtmr:pcb <- $r4
	.loc	1 1009 42 is_stmt 1     @ ../Libraries/lwip-1.4.1/src/core/tcp.c:1009:42
	ldr	r1, [r4, #36]
	.loc	1 1009 25 is_stmt 0     @ ../Libraries/lwip-1.4.1/src/core/tcp.c:1009:25
	ldr.w	r2, [r8]
	.loc	1 1009 35               @ ../Libraries/lwip-1.4.1/src/core/tcp.c:1009:35
	subs	r1, r2, r1
	.loc	1 1009 54               @ ../Libraries/lwip-1.4.1/src/core/tcp.c:1009:54
	ldrsh.w	r2, [r4, #68]
	.loc	1 1009 58               @ ../Libraries/lwip-1.4.1/src/core/tcp.c:1009:58
	add.w	r2, r2, r2, lsl #1
.Ltmp100:
	.loc	1 1008 13 is_stmt 1     @ ../Libraries/lwip-1.4.1/src/core/tcp.c:1008:13
	cmp.w	r1, r2, lsl #1
	blo	.LBB3_38
.Ltmp101:
@ %bb.35:                               @   in Loop: Header=BB3_7 Depth=1
	@DEBUG_VALUE: tcp_slowtmr:pcb_reset <- $r10
	@DEBUG_VALUE: tcp_slowtmr:pcb_remove <- $r5
	@DEBUG_VALUE: tcp_slowtmr:prev <- $r4
	@DEBUG_VALUE: tcp_slowtmr:pcb <- $r4
	.loc	1 0 13 is_stmt 0        @ ../Libraries/lwip-1.4.1/src/core/tcp.c:0:13
	mov	r9, r7
	mov	r7, r6
.Ltmp102:
	.p2align	2
.LBB3_36:                               @   Parent Loop BB3_7 Depth=1
                                        @ =>  This Inner Loop Header: Depth=2
	@DEBUG_VALUE: tcp_slowtmr:pcb_reset <- $r10
	@DEBUG_VALUE: tcp_slowtmr:pcb_remove <- $r5
	@DEBUG_VALUE: tcp_slowtmr:prev <- $r4
	@DEBUG_VALUE: tcp_slowtmr:pcb <- $r4
	@DEBUG_VALUE: tcp_segs_free:seg <- $r0
	.loc	1 1256 37 is_stmt 1     @ ../Libraries/lwip-1.4.1/src/core/tcp.c:1256:37
	ldr	r6, [r0]
.Ltmp103:
	@DEBUG_VALUE: next <- $r6
	@DEBUG_VALUE: tcp_segs_free:seg <- $r6
	.loc	1 1257 9                @ ../Libraries/lwip-1.4.1/src/core/tcp.c:1257:9
	bl	tcp_seg_free
.Ltmp104:
	.loc	1 1254 5                @ ../Libraries/lwip-1.4.1/src/core/tcp.c:1254:5
	cmp	r6, #0
	mov	r0, r6
.Ltmp105:
	@DEBUG_VALUE: next <- $r0
	@DEBUG_VALUE: tcp_segs_free:seg <- $r0
	bne	.LBB3_36
.Ltmp106:
@ %bb.37:                               @   in Loop: Header=BB3_7 Depth=1
	@DEBUG_VALUE: tcp_slowtmr:pcb_reset <- $r10
	@DEBUG_VALUE: tcp_slowtmr:pcb_remove <- $r5
	@DEBUG_VALUE: tcp_slowtmr:prev <- $r4
	@DEBUG_VALUE: tcp_slowtmr:pcb <- $r4
	.loc	1 1012 24               @ ../Libraries/lwip-1.4.1/src/core/tcp.c:1012:24
	movs	r0, #0
	mov	r6, r7
	mov	r7, r9
	str	r0, [r4, #116]
.Ltmp107:
.LBB3_38:                               @   in Loop: Header=BB3_7 Depth=1
	@DEBUG_VALUE: tcp_slowtmr:pcb_reset <- $r10
	@DEBUG_VALUE: tcp_slowtmr:pcb_remove <- $r5
	@DEBUG_VALUE: tcp_slowtmr:prev <- $r4
	@DEBUG_VALUE: tcp_slowtmr:pcb <- $r4
	.loc	1 1018 18               @ ../Libraries/lwip-1.4.1/src/core/tcp.c:1018:18
	ldrb	r0, [r4, #24]
.Ltmp108:
	.loc	1 1018 13 is_stmt 0     @ ../Libraries/lwip-1.4.1/src/core/tcp.c:1018:13
	cmp	r0, #9
	beq	.LBB3_41
.Ltmp109:
@ %bb.39:                               @   in Loop: Header=BB3_7 Depth=1
	@DEBUG_VALUE: tcp_slowtmr:pcb_reset <- $r10
	@DEBUG_VALUE: tcp_slowtmr:pcb_remove <- $r5
	@DEBUG_VALUE: tcp_slowtmr:prev <- $r4
	@DEBUG_VALUE: tcp_slowtmr:pcb <- $r4
	cmp	r0, #3
	bne	.LBB3_42
.Ltmp110:
@ %bb.40:                               @   in Loop: Header=BB3_7 Depth=1
	@DEBUG_VALUE: tcp_slowtmr:pcb_reset <- $r10
	@DEBUG_VALUE: tcp_slowtmr:pcb_remove <- $r5
	@DEBUG_VALUE: tcp_slowtmr:prev <- $r4
	@DEBUG_VALUE: tcp_slowtmr:pcb <- $r4
	.loc	1 1020 43 is_stmt 1     @ ../Libraries/lwip-1.4.1/src/core/tcp.c:1020:43
	ldr	r0, [r4, #36]
	.loc	1 1020 26 is_stmt 0     @ ../Libraries/lwip-1.4.1/src/core/tcp.c:1020:26
	ldr.w	r1, [r8]
	.loc	1 1020 36               @ ../Libraries/lwip-1.4.1/src/core/tcp.c:1020:36
	subs	r0, r1, r0
.Ltmp111:
	.loc	1 1020 17               @ ../Libraries/lwip-1.4.1/src/core/tcp.c:1020:17
	cmp	r0, #40
	it	hi
	addhi	r5, #1
.Ltmp112:
	.loc	1 0 17                  @ ../Libraries/lwip-1.4.1/src/core/tcp.c:0:17
	b	.LBB3_42
.Ltmp113:
.LBB3_41:                               @   in Loop: Header=BB3_7 Depth=1
	@DEBUG_VALUE: tcp_slowtmr:pcb_reset <- $r10
	@DEBUG_VALUE: tcp_slowtmr:pcb_remove <- $r5
	@DEBUG_VALUE: tcp_slowtmr:prev <- $r4
	@DEBUG_VALUE: tcp_slowtmr:pcb <- $r4
	.loc	1 1031 43 is_stmt 1     @ ../Libraries/lwip-1.4.1/src/core/tcp.c:1031:43
	ldr	r0, [r4, #36]
	.loc	1 1031 26 is_stmt 0     @ ../Libraries/lwip-1.4.1/src/core/tcp.c:1031:26
	ldr.w	r1, [r8]
	.loc	1 1031 36               @ ../Libraries/lwip-1.4.1/src/core/tcp.c:1031:36
	subs	r0, r1, r0
.Ltmp114:
	.loc	1 1031 17               @ ../Libraries/lwip-1.4.1/src/core/tcp.c:1031:17
	cmp	r0, #240
	bhi	.LBB3_43
.Ltmp115:
	.p2align	2
.LBB3_42:                               @   in Loop: Header=BB3_7 Depth=1
	@DEBUG_VALUE: tcp_slowtmr:pcb_reset <- $r10
	@DEBUG_VALUE: tcp_slowtmr:prev <- $r4
	@DEBUG_VALUE: tcp_slowtmr:pcb <- $r4
	.loc	1 1039 13 is_stmt 1     @ ../Libraries/lwip-1.4.1/src/core/tcp.c:1039:13
	cbz	r5, .LBB3_48
.Ltmp116:
.LBB3_43:                               @   in Loop: Header=BB3_7 Depth=1
	@DEBUG_VALUE: tcp_slowtmr:pcb_reset <- $r10
	@DEBUG_VALUE: tcp_slowtmr:prev <- $r4
	@DEBUG_VALUE: tcp_slowtmr:pcb <- $r4
	.loc	1 1044 13               @ ../Libraries/lwip-1.4.1/src/core/tcp.c:1044:13
	mov	r0, r4
	bl	tcp_pcb_purge
	.loc	1 1046 17               @ ../Libraries/lwip-1.4.1/src/core/tcp.c:1046:17
	mov	r0, r7
	cmp	r6, #0
	mov	r9, r7
	mov	r11, r6
	it	ne
	addne.w	r0, r6, #12
.Ltmp117:
	.loc	1 0 0 is_stmt 0         @ ../Libraries/lwip-1.4.1/src/core/tcp.c:0:0
	ldr	r1, [r4, #12]
.Ltmp118:
	.loc	1 1058 17 is_stmt 1     @ ../Libraries/lwip-1.4.1/src/core/tcp.c:1058:17
	cmp.w	r10, #0
.Ltmp119:
	.loc	1 0 0 is_stmt 0         @ ../Libraries/lwip-1.4.1/src/core/tcp.c:0:0
	str	r1, [r0]
.Ltmp120:
	.loc	1 1058 17               @ ../Libraries/lwip-1.4.1/src/core/tcp.c:1058:17
	beq	.LBB3_45
.Ltmp121:
@ %bb.44:                               @   in Loop: Header=BB3_7 Depth=1
	@DEBUG_VALUE: tcp_slowtmr:pcb_reset <- $r10
	@DEBUG_VALUE: tcp_slowtmr:prev <- $r4
	@DEBUG_VALUE: tcp_slowtmr:pcb <- $r4
	.loc	1 1061 30 is_stmt 1     @ ../Libraries/lwip-1.4.1/src/core/tcp.c:1061:30
	ldrh	r2, [r4, #26]
	.loc	1 1061 47 is_stmt 0     @ ../Libraries/lwip-1.4.1/src/core/tcp.c:1061:47
	ldrh	r3, [r4, #28]
	.loc	1 1060 44 is_stmt 1     @ ../Libraries/lwip-1.4.1/src/core/tcp.c:1060:44
	ldr	r1, [r4, #40]
	.loc	1 1060 30 is_stmt 0     @ ../Libraries/lwip-1.4.1/src/core/tcp.c:1060:30
	ldr	r0, [r4, #80]
	.loc	1 1060 17               @ ../Libraries/lwip-1.4.1/src/core/tcp.c:1060:17
	strd	r2, r3, [sp]
	.loc	1 1060 75               @ ../Libraries/lwip-1.4.1/src/core/tcp.c:1060:75
	adds	r3, r4, #4
	.loc	1 1060 17               @ ../Libraries/lwip-1.4.1/src/core/tcp.c:1060:17
	mov	r2, r4
	bl	tcp_rst
.Ltmp122:
.LBB3_45:                               @   in Loop: Header=BB3_7 Depth=1
	@DEBUG_VALUE: tcp_slowtmr:pcb_reset <- $r10
	@DEBUG_VALUE: tcp_slowtmr:prev <- $r4
	@DEBUG_VALUE: tcp_slowtmr:pcb <- $r4
	@DEBUG_VALUE: tcp_slowtmr:pcb <- undef
	@DEBUG_VALUE: err_arg <- undef
	.loc	1 1067 24 is_stmt 1     @ ../Libraries/lwip-1.4.1/src/core/tcp.c:1067:24
	ldrd	r7, r5, [r4, #12]
	.loc	1 1064 27               @ ../Libraries/lwip-1.4.1/src/core/tcp.c:1064:27
	ldr.w	r6, [r4, #140]
.Ltmp123:
	@DEBUG_VALUE: err_fn <- $r6
	.loc	1 1068 13               @ ../Libraries/lwip-1.4.1/src/core/tcp.c:1068:13
	movs	r0, #2
	mov	r1, r4
	bl	memp_free
	movw	r4, :lower16:tcp_active_pcbs_changed
.Ltmp124:
	.loc	1 0 13 is_stmt 0        @ ../Libraries/lwip-1.4.1/src/core/tcp.c:0:13
	movw	r10, :lower16:tcp_timer_ctr
.Ltmp125:
	.loc	1 1070 37 is_stmt 1     @ ../Libraries/lwip-1.4.1/src/core/tcp.c:1070:37
	movs	r0, #0
.Ltmp126:
	.loc	1 1071 13               @ ../Libraries/lwip-1.4.1/src/core/tcp.c:1071:13
	cmp	r6, #0
	movt	r4, :upper16:tcp_active_pcbs_changed
	movt	r10, :upper16:tcp_timer_ctr
.Ltmp127:
	.loc	1 1070 37               @ ../Libraries/lwip-1.4.1/src/core/tcp.c:1070:37
	strb	r0, [r4]
.Ltmp128:
	.loc	1 1071 13               @ ../Libraries/lwip-1.4.1/src/core/tcp.c:1071:13
	beq	.LBB3_50
.Ltmp129:
@ %bb.46:                               @   in Loop: Header=BB3_7 Depth=1
	@DEBUG_VALUE: err_fn <- $r6
	.loc	1 1071 13 is_stmt 0     @ ../Libraries/lwip-1.4.1/src/core/tcp.c:1071:13
	mov	r0, r5
	mvn	r1, #9
	blx	r6
.Ltmp130:
	.loc	1 1072 17 is_stmt 1     @ ../Libraries/lwip-1.4.1/src/core/tcp.c:1072:17
	ldrb	r0, [r4]
.Ltmp131:
	.loc	1 0 0 is_stmt 0         @ ../Libraries/lwip-1.4.1/src/core/tcp.c:0:0
	mov	r4, r7
	mov	r7, r9
	movw	r9, #19923
	mov	r6, r11
.Ltmp132:
	movt	r9, #4194
.Ltmp133:
	.loc	1 1072 17               @ ../Libraries/lwip-1.4.1/src/core/tcp.c:1072:17
	cbz	r0, .LBB3_52
.Ltmp134:
.LBB3_47:                               @   in Loop: Header=BB3_7 Depth=1
	@DEBUG_LABEL: tcp_slowtmr:tcp_slowtmr_start
	@DEBUG_VALUE: tcp_slowtmr:prev <- 0
	.loc	1 871 11 is_stmt 1      @ ../Libraries/lwip-1.4.1/src/core/tcp.c:871:11
	ldr	r4, [r7]
.Ltmp135:
	@DEBUG_VALUE: tcp_slowtmr:pcb <- $r4
	.loc	1 0 11 is_stmt 0        @ ../Libraries/lwip-1.4.1/src/core/tcp.c:0:11
	movs	r6, #0
	b	.LBB3_52
.Ltmp136:
.LBB3_48:                               @   in Loop: Header=BB3_7 Depth=1
	@DEBUG_VALUE: tcp_slowtmr:pcb_reset <- $r10
	@DEBUG_VALUE: tcp_slowtmr:prev <- $r4
	@DEBUG_VALUE: tcp_slowtmr:pcb <- $r4
	.loc	1 1084 13 is_stmt 1     @ ../Libraries/lwip-1.4.1/src/core/tcp.c:1084:13
	ldrb	r0, [r4, #31]
	adds	r0, #1
	strb	r0, [r4, #31]
	uxtb	r0, r0
.Ltmp137:
	.loc	1 1085 40               @ ../Libraries/lwip-1.4.1/src/core/tcp.c:1085:40
	ldrb.w	r1, [r4, #32]
.Ltmp138:
	.loc	1 1081 24               @ ../Libraries/lwip-1.4.1/src/core/tcp.c:1081:24
	ldr	r5, [r4, #12]
.Ltmp139:
	@DEBUG_VALUE: tcp_slowtmr:pcb <- $r5
	.loc	1 1085 17               @ ../Libraries/lwip-1.4.1/src/core/tcp.c:1085:17
	cmp	r0, r1
	bhs.w	.LBB3_2
.Ltmp140:
@ %bb.49:                               @   in Loop: Header=BB3_7 Depth=1
	@DEBUG_VALUE: tcp_slowtmr:pcb <- $r5
	@DEBUG_VALUE: tcp_slowtmr:pcb_reset <- $r10
	@DEBUG_VALUE: tcp_slowtmr:prev <- $r4
	.loc	1 0 17 is_stmt 0        @ ../Libraries/lwip-1.4.1/src/core/tcp.c:0:17
	movw	r10, :lower16:tcp_timer_ctr
.Ltmp141:
	movw	r9, #19923
	mov	r6, r4
.Ltmp142:
	@DEBUG_VALUE: tcp_slowtmr:prev <- $r6
	mov	r4, r5
.Ltmp143:
	@DEBUG_VALUE: tcp_slowtmr:pcb <- $r4
	movt	r10, :upper16:tcp_timer_ctr
	b	.LBB3_51
.Ltmp144:
.LBB3_50:                               @   in Loop: Header=BB3_7 Depth=1
	@DEBUG_VALUE: err_fn <- $r6
	mov	r4, r7
	mov	r7, r9
	movw	r9, #19923
	mov	r6, r11
.Ltmp145:
.LBB3_51:                               @   in Loop: Header=BB3_7 Depth=1
	movt	r9, #4194
.LBB3_52:                               @   in Loop: Header=BB3_7 Depth=1
	.loc	1 876 5 is_stmt 1       @ ../Libraries/lwip-1.4.1/src/core/tcp.c:876:5
	cmp	r4, #0
	bne.w	.LBB3_7
.LBB3_53:
.Ltmp146:
	@DEBUG_VALUE: tcp_slowtmr:prev <- 0
	.loc	1 1107 11               @ ../Libraries/lwip-1.4.1/src/core/tcp.c:1107:11
	movw	r5, :lower16:tcp_tw_pcbs
	movt	r5, :upper16:tcp_tw_pcbs
	ldr	r4, [r5]
.Ltmp147:
	@DEBUG_VALUE: tcp_slowtmr:pcb <- $r4
	.loc	1 0 11 is_stmt 0        @ ../Libraries/lwip-1.4.1/src/core/tcp.c:0:11
	cbz	r4, .LBB3_59
.Ltmp148:
@ %bb.54:
	@DEBUG_VALUE: tcp_slowtmr:pcb <- $r4
	movs	r7, #0
.Ltmp149:
	.p2align	2
.LBB3_55:                               @ =>This Inner Loop Header: Depth=1
	@DEBUG_VALUE: tcp_slowtmr:pcb <- $r4
	@DEBUG_VALUE: tcp_slowtmr:prev <- $r7
	@DEBUG_VALUE: tcp_slowtmr:pcb <- $r4
	@DEBUG_VALUE: tcp_slowtmr:pcb_remove <- 0
	.loc	1 1114 39 is_stmt 1     @ ../Libraries/lwip-1.4.1/src/core/tcp.c:1114:39
	ldr	r0, [r4, #36]
	.loc	1 1114 22 is_stmt 0     @ ../Libraries/lwip-1.4.1/src/core/tcp.c:1114:22
	ldr.w	r1, [r8]
	.loc	1 1114 32               @ ../Libraries/lwip-1.4.1/src/core/tcp.c:1114:32
	subs	r0, r1, r0
.Ltmp150:
	.loc	1 1114 13               @ ../Libraries/lwip-1.4.1/src/core/tcp.c:1114:13
	cmp	r0, #241
	blo	.LBB3_57
.Ltmp151:
@ %bb.56:                               @   in Loop: Header=BB3_55 Depth=1
	@DEBUG_VALUE: tcp_slowtmr:prev <- $r7
	@DEBUG_VALUE: tcp_slowtmr:pcb <- $r4
	@DEBUG_VALUE: tcp_slowtmr:pcb_remove <- 1
	.loc	1 1125 13 is_stmt 1     @ ../Libraries/lwip-1.4.1/src/core/tcp.c:1125:13
	mov	r0, r4
	bl	tcp_pcb_purge
.Ltmp152:
	.loc	1 0 0 is_stmt 0         @ ../Libraries/lwip-1.4.1/src/core/tcp.c:0:0
	ldr	r6, [r4, #12]
.Ltmp153:
	.loc	1 1127 17 is_stmt 1     @ ../Libraries/lwip-1.4.1/src/core/tcp.c:1127:17
	cmp	r7, #0
	.loc	1 1140 13               @ ../Libraries/lwip-1.4.1/src/core/tcp.c:1140:13
	mov.w	r0, #2
	mov	r1, r4
.Ltmp154:
	.loc	1 1136 29               @ ../Libraries/lwip-1.4.1/src/core/tcp.c:1136:29
	itee	eq
	streq	r6, [r5]
.Ltmp155:
	.loc	1 1130 28               @ ../Libraries/lwip-1.4.1/src/core/tcp.c:1130:28
	strne	r6, [r7, #12]
.Ltmp156:
	.loc	1 1139 24               @ ../Libraries/lwip-1.4.1/src/core/tcp.c:1139:24
	ldrne	r6, [r4, #12]
.Ltmp157:
	@DEBUG_VALUE: tcp_slowtmr:pcb <- $r6
	@DEBUG_VALUE: pcb2 <- undef
	.loc	1 1140 13               @ ../Libraries/lwip-1.4.1/src/core/tcp.c:1140:13
	bl	memp_free
	mov	r4, r6
.Ltmp158:
	@DEBUG_VALUE: tcp_slowtmr:pcb <- $r4
	@DEBUG_VALUE: tcp_slowtmr:pcb <- $r4
	.loc	1 0 13 is_stmt 0        @ ../Libraries/lwip-1.4.1/src/core/tcp.c:0:13
	b	.LBB3_58
.Ltmp159:
	.p2align	2
.LBB3_57:                               @   in Loop: Header=BB3_55 Depth=1
	@DEBUG_VALUE: tcp_slowtmr:prev <- $r7
	@DEBUG_VALUE: tcp_slowtmr:pcb <- $r4
	.loc	1 1145 24 is_stmt 1     @ ../Libraries/lwip-1.4.1/src/core/tcp.c:1145:24
	ldr	r0, [r4, #12]
.Ltmp160:
	@DEBUG_VALUE: tcp_slowtmr:pcb <- $r0
	.loc	1 0 0 is_stmt 0         @ ../Libraries/lwip-1.4.1/src/core/tcp.c:0:0
	mov	r7, r4
.Ltmp161:
	mov	r4, r0
.Ltmp162:
	@DEBUG_VALUE: tcp_slowtmr:pcb <- $r4
	@DEBUG_VALUE: tcp_slowtmr:pcb <- $r4
.LBB3_58:                               @   in Loop: Header=BB3_55 Depth=1
	@DEBUG_VALUE: tcp_slowtmr:pcb <- $r4
	@DEBUG_VALUE: tcp_slowtmr:prev <- $r7
	@DEBUG_VALUE: tcp_slowtmr:pcb <- $r4
	.loc	1 1108 5 is_stmt 1      @ ../Libraries/lwip-1.4.1/src/core/tcp.c:1108:5
	cmp	r4, #0
	bne	.LBB3_55
.Ltmp163:
.LBB3_59:
	@DEBUG_VALUE: tcp_slowtmr:pcb <- $r4
	.loc	1 1148 1                @ ../Libraries/lwip-1.4.1/src/core/tcp.c:1148:1
	add	sp, #12
	pop.w	{r4, r5, r6, r7, r8, r9, r10, r11, pc}
.Ltmp164:
.Lfunc_end3:
	.size	tcp_slowtmr, .Lfunc_end3-tcp_slowtmr
	.cfi_endproc
	.cantunwind
	.fnend
                                        @ -- End function
	.section	.text.tcp_close,"ax",%progbits
	.hidden	tcp_close               @ -- Begin function tcp_close
	.globl	tcp_close
	.p2align	1
	.type	tcp_close,%function
	.code	16                      @ @tcp_close
	.thumb_func
tcp_close:
.Lfunc_begin4:
	.loc	1 297 0                 @ ../Libraries/lwip-1.4.1/src/core/tcp.c:297:0
	.fnstart
	.cfi_startproc
@ %bb.0:
	@DEBUG_VALUE: tcp_close:pcb <- $r0
	@DEBUG_VALUE: tcp_close:pcb <- $r0
	.loc	1 303 14 prologue_end   @ ../Libraries/lwip-1.4.1/src/core/tcp.c:303:14
	ldrb	r1, [r0, #24]
.Ltmp165:
	.loc	1 303 9 is_stmt 0       @ ../Libraries/lwip-1.4.1/src/core/tcp.c:303:9
	cmp	r1, #1
.Ltmp166:
	.loc	1 306 20 is_stmt 1      @ ../Libraries/lwip-1.4.1/src/core/tcp.c:306:20
	ittt	ne
	ldrbne	r1, [r0, #30]
	orrne	r1, r1, #16
	strbne	r1, [r0, #30]
.Ltmp167:
	.loc	1 309 12                @ ../Libraries/lwip-1.4.1/src/core/tcp.c:309:12
	movs	r1, #1
	b	tcp_close_shutdown
.Ltmp168:
.Lfunc_end4:
	.size	tcp_close, .Lfunc_end4-tcp_close
	.cfi_endproc
	.cantunwind
	.fnend
                                        @ -- End function
	.section	.text.tcp_close_shutdown,"ax",%progbits
	.p2align	2               @ -- Begin function tcp_close_shutdown
	.type	tcp_close_shutdown,%function
	.code	16                      @ @tcp_close_shutdown
	.thumb_func
tcp_close_shutdown:
.Lfunc_begin5:
	.loc	1 171 0                 @ ../Libraries/lwip-1.4.1/src/core/tcp.c:171:0
	.fnstart
	.cfi_startproc
@ %bb.0:
	.save	{r4, lr}
	push	{r4, lr}
	.cfi_def_cfa_offset 8
	.cfi_offset lr, -4
	.cfi_offset r4, -8
	.pad	#8
	sub	sp, #8
	.cfi_def_cfa_offset 16
	@DEBUG_VALUE: tcp_close_shutdown:pcb <- $r0
	@DEBUG_VALUE: tcp_close_shutdown:rst_on_unacked_data <- $r1
.Ltmp169:
	.loc	1 0 0 prologue_end      @ ../Libraries/lwip-1.4.1/src/core/tcp.c:0:0
	ldrb	r2, [r0, #24]
	mov	r4, r0
	@DEBUG_VALUE: tcp_close_shutdown:rst_on_unacked_data <- $r1
.Ltmp170:
	@DEBUG_VALUE: tcp_close_shutdown:pcb <- $r4
	.loc	1 174 29                @ ../Libraries/lwip-1.4.1/src/core/tcp.c:174:29
	cbz	r1, .LBB5_5
.Ltmp171:
@ %bb.1:
	@DEBUG_VALUE: tcp_close_shutdown:pcb <- $r4
	@DEBUG_VALUE: tcp_close_shutdown:rst_on_unacked_data <- $r1
	.loc	1 174 61 is_stmt 0      @ ../Libraries/lwip-1.4.1/src/core/tcp.c:174:61
	cmp	r2, #7
	beq	.LBB5_3
.Ltmp172:
@ %bb.2:
	@DEBUG_VALUE: tcp_close_shutdown:pcb <- $r4
	@DEBUG_VALUE: tcp_close_shutdown:rst_on_unacked_data <- $r1
	cmp	r2, #4
	bne	.LBB5_5
.Ltmp173:
.LBB5_3:
	@DEBUG_VALUE: tcp_close_shutdown:pcb <- $r4
	@DEBUG_VALUE: tcp_close_shutdown:rst_on_unacked_data <- $r1
	.loc	1 176 19 is_stmt 1      @ ../Libraries/lwip-1.4.1/src/core/tcp.c:176:19
	ldr	r0, [r4, #120]
	.loc	1 176 41 is_stmt 0      @ ../Libraries/lwip-1.4.1/src/core/tcp.c:176:41
	cbnz	r0, .LBB5_10
.Ltmp174:
@ %bb.4:
	@DEBUG_VALUE: tcp_close_shutdown:pcb <- $r4
	@DEBUG_VALUE: tcp_close_shutdown:rst_on_unacked_data <- $r1
	.loc	1 176 50                @ ../Libraries/lwip-1.4.1/src/core/tcp.c:176:50
	ldrh	r0, [r4, #44]
	movw	r1, #5840
.Ltmp175:
	.loc	1 176 13                @ ../Libraries/lwip-1.4.1/src/core/tcp.c:176:13
	cmp	r0, r1
	bne	.LBB5_10
.Ltmp176:
.LBB5_5:
	@DEBUG_VALUE: tcp_close_shutdown:pcb <- $r4
	.loc	1 0 13                  @ ../Libraries/lwip-1.4.1/src/core/tcp.c:0:13
	movs	r0, #0
	.loc	1 204 5 is_stmt 1       @ ../Libraries/lwip-1.4.1/src/core/tcp.c:204:5
	cmp	r2, #7
	bhi.w	.LBB5_36
.Ltmp177:
@ %bb.6:
	@DEBUG_VALUE: tcp_close_shutdown:pcb <- $r4
	.loc	1 0 5 is_stmt 0         @ ../Libraries/lwip-1.4.1/src/core/tcp.c:0:5
.LCPI5_0:
	tbb	[pc, r2]
.Ltmp178:
@ %bb.7:
.LJTI5_0:
	.byte	(.LBB5_19-(.LCPI5_0+4))/2
	.byte	(.LBB5_24-(.LCPI5_0+4))/2
	.byte	(.LBB5_25-(.LCPI5_0+4))/2
	.byte	(.LBB5_8-(.LCPI5_0+4))/2
	.byte	(.LBB5_8-(.LCPI5_0+4))/2
	.byte	(.LBB5_36-(.LCPI5_0+4))/2
	.byte	(.LBB5_36-(.LCPI5_0+4))/2
	.byte	(.LBB5_26-(.LCPI5_0+4))/2
	.p2align	1
.LBB5_8:
.Ltmp179:
	@DEBUG_VALUE: tcp_close_shutdown:pcb <- $r4
	mov	r0, r4
	bl	tcp_send_fin
.Ltmp180:
	@DEBUG_VALUE: tcp_close_shutdown:err <- $r0
	cmp	r0, #0
	bne.w	.LBB5_36
.Ltmp181:
@ %bb.9:
	@DEBUG_VALUE: tcp_close_shutdown:err <- $r0
	@DEBUG_VALUE: tcp_close_shutdown:pcb <- $r4
	movs	r0, #5
.Ltmp182:
	b	.LBB5_28
.Ltmp183:
.LBB5_10:
	@DEBUG_VALUE: tcp_close_shutdown:pcb <- $r4
	.loc	1 185 26 is_stmt 1      @ ../Libraries/lwip-1.4.1/src/core/tcp.c:185:26
	ldrh	r2, [r4, #26]
	.loc	1 185 43 is_stmt 0      @ ../Libraries/lwip-1.4.1/src/core/tcp.c:185:43
	ldrh	r3, [r4, #28]
	.loc	1 184 40 is_stmt 1      @ ../Libraries/lwip-1.4.1/src/core/tcp.c:184:40
	ldr	r1, [r4, #40]
	.loc	1 184 26 is_stmt 0      @ ../Libraries/lwip-1.4.1/src/core/tcp.c:184:26
	ldr	r0, [r4, #80]
	.loc	1 184 13                @ ../Libraries/lwip-1.4.1/src/core/tcp.c:184:13
	strd	r2, r3, [sp]
	.loc	1 184 71                @ ../Libraries/lwip-1.4.1/src/core/tcp.c:184:71
	adds	r3, r4, #4
	.loc	1 184 13                @ ../Libraries/lwip-1.4.1/src/core/tcp.c:184:13
	mov	r2, r4
	bl	tcp_rst
	.loc	1 187 13 is_stmt 1      @ ../Libraries/lwip-1.4.1/src/core/tcp.c:187:13
	mov	r0, r4
	bl	tcp_pcb_purge
.Ltmp184:
	.loc	1 188 13                @ ../Libraries/lwip-1.4.1/src/core/tcp.c:188:13
	movw	r0, :lower16:tcp_active_pcbs
	movt	r0, :upper16:tcp_active_pcbs
	ldr	r1, [r0]
.Ltmp185:
	.loc	1 188 13 is_stmt 0      @ ../Libraries/lwip-1.4.1/src/core/tcp.c:188:13
	cmp	r1, r4
	beq	.LBB5_14
.Ltmp186:
	.p2align	2
.LBB5_11:                               @ =>This Inner Loop Header: Depth=1
	@DEBUG_VALUE: tcp_close_shutdown:pcb <- $r4
	.loc	1 188 13                @ ../Libraries/lwip-1.4.1/src/core/tcp.c:188:13
	cbz	r1, .LBB5_15
.Ltmp187:
@ %bb.12:                               @   in Loop: Header=BB5_11 Depth=1
	@DEBUG_VALUE: tcp_close_shutdown:pcb <- $r4
	.loc	1 0 0                   @ ../Libraries/lwip-1.4.1/src/core/tcp.c:0:0
	mov	r0, r1
.Ltmp188:
	.loc	1 188 13                @ ../Libraries/lwip-1.4.1/src/core/tcp.c:188:13
	ldr	r1, [r1, #12]
.Ltmp189:
	.loc	1 188 13                @ ../Libraries/lwip-1.4.1/src/core/tcp.c:188:13
	cmp	r1, r4
	bne	.LBB5_11
.Ltmp190:
@ %bb.13:
	@DEBUG_VALUE: tcp_close_shutdown:pcb <- $r4
	.loc	1 0 0                   @ ../Libraries/lwip-1.4.1/src/core/tcp.c:0:0
	movw	r1, :lower16:tcp_tmp_pcb
	movt	r1, :upper16:tcp_tmp_pcb
	str	r0, [r1]
.Ltmp191:
	.loc	1 188 13                @ ../Libraries/lwip-1.4.1/src/core/tcp.c:188:13
	ldr	r1, [r4, #12]
	str	r1, [r0, #12]
	b	.LBB5_17
.Ltmp192:
.LBB5_14:
	@DEBUG_VALUE: tcp_close_shutdown:pcb <- $r4
	.loc	1 188 13                @ ../Libraries/lwip-1.4.1/src/core/tcp.c:188:13
	ldr	r1, [r4, #12]
	b	.LBB5_16
.Ltmp193:
.LBB5_15:
	@DEBUG_VALUE: tcp_close_shutdown:pcb <- $r4
	.loc	1 0 0                   @ ../Libraries/lwip-1.4.1/src/core/tcp.c:0:0
	movw	r0, :lower16:tcp_tmp_pcb
	movs	r1, #0
	movt	r0, :upper16:tcp_tmp_pcb
.Ltmp194:
.LBB5_16:
	@DEBUG_VALUE: tcp_close_shutdown:pcb <- $r4
	str	r1, [r0]
.Ltmp195:
.LBB5_17:
	@DEBUG_VALUE: tcp_close_shutdown:pcb <- $r4
	movs	r0, #0
	movs	r1, #1
	.loc	1 188 13                @ ../Libraries/lwip-1.4.1/src/core/tcp.c:188:13
	str	r0, [r4, #12]
.Ltmp196:
	.loc	1 188 13                @ ../Libraries/lwip-1.4.1/src/core/tcp.c:188:13
	movw	r0, :lower16:tcp_active_pcbs_changed
	movt	r0, :upper16:tcp_active_pcbs_changed
	strb	r1, [r0]
.Ltmp197:
	.loc	1 189 22 is_stmt 1      @ ../Libraries/lwip-1.4.1/src/core/tcp.c:189:22
	ldrb	r0, [r4, #24]
.Ltmp198:
	.loc	1 189 17 is_stmt 0      @ ../Libraries/lwip-1.4.1/src/core/tcp.c:189:17
	cmp	r0, #4
	bne	.LBB5_33
.Ltmp199:
@ %bb.18:
	@DEBUG_VALUE: tcp_close_shutdown:pcb <- $r4
	.loc	1 0 17                  @ ../Libraries/lwip-1.4.1/src/core/tcp.c:0:17
	movs	r0, #10
.Ltmp200:
	.loc	1 192 28 is_stmt 1      @ ../Libraries/lwip-1.4.1/src/core/tcp.c:192:28
	strb	r0, [r4, #24]
.Ltmp201:
	.loc	1 193 17                @ ../Libraries/lwip-1.4.1/src/core/tcp.c:193:17
	movw	r0, :lower16:tcp_tw_pcbs
	movt	r0, :upper16:tcp_tw_pcbs
	ldr	r1, [r0]
	str	r1, [r4, #12]
	str	r4, [r0]
	bl	tcp_timer_needed
	b	.LBB5_35
.Ltmp202:
.LBB5_19:
	@DEBUG_VALUE: tcp_close_shutdown:pcb <- $r4
	@DEBUG_VALUE: tcp_close_shutdown:err <- 0
	.loc	1 215 18                @ ../Libraries/lwip-1.4.1/src/core/tcp.c:215:18
	ldrh	r0, [r4, #26]
.Ltmp203:
	.loc	1 215 13 is_stmt 0      @ ../Libraries/lwip-1.4.1/src/core/tcp.c:215:13
	cmp	r0, #0
	beq	.LBB5_33
.Ltmp204:
@ %bb.20:
	@DEBUG_VALUE: tcp_close_shutdown:pcb <- $r4
	.loc	1 217 13 is_stmt 1      @ ../Libraries/lwip-1.4.1/src/core/tcp.c:217:13
	movw	r0, :lower16:tcp_bound_pcbs
	movt	r0, :upper16:tcp_bound_pcbs
	ldr	r1, [r0]
.Ltmp205:
	.loc	1 217 13 is_stmt 0      @ ../Libraries/lwip-1.4.1/src/core/tcp.c:217:13
	cmp	r1, r4
	beq	.LBB5_29
.Ltmp206:
	.p2align	2
.LBB5_21:                               @ =>This Inner Loop Header: Depth=1
	@DEBUG_VALUE: tcp_close_shutdown:pcb <- $r4
	.loc	1 217 13                @ ../Libraries/lwip-1.4.1/src/core/tcp.c:217:13
	cbz	r1, .LBB5_30
.Ltmp207:
@ %bb.22:                               @   in Loop: Header=BB5_21 Depth=1
	@DEBUG_VALUE: tcp_close_shutdown:pcb <- $r4
	.loc	1 0 0                   @ ../Libraries/lwip-1.4.1/src/core/tcp.c:0:0
	mov	r0, r1
.Ltmp208:
	.loc	1 217 13                @ ../Libraries/lwip-1.4.1/src/core/tcp.c:217:13
	ldr	r1, [r1, #12]
.Ltmp209:
	.loc	1 217 13                @ ../Libraries/lwip-1.4.1/src/core/tcp.c:217:13
	cmp	r1, r4
	bne	.LBB5_21
.Ltmp210:
@ %bb.23:
	@DEBUG_VALUE: tcp_close_shutdown:pcb <- $r4
	.loc	1 0 0                   @ ../Libraries/lwip-1.4.1/src/core/tcp.c:0:0
	movw	r1, :lower16:tcp_tmp_pcb
	movt	r1, :upper16:tcp_tmp_pcb
	str	r0, [r1]
.Ltmp211:
	.loc	1 217 13                @ ../Libraries/lwip-1.4.1/src/core/tcp.c:217:13
	ldr	r1, [r4, #12]
	str	r1, [r0, #12]
	b	.LBB5_32
.Ltmp212:
.LBB5_24:
	@DEBUG_VALUE: tcp_close_shutdown:pcb <- $r4
	@DEBUG_VALUE: tcp_close_shutdown:err <- 0
	.loc	1 224 9 is_stmt 1       @ ../Libraries/lwip-1.4.1/src/core/tcp.c:224:9
	movw	r0, :lower16:tcp_listen_pcbs
	mov	r1, r4
	movt	r0, :upper16:tcp_listen_pcbs
	bl	tcp_pcb_remove
	.loc	1 225 9                 @ ../Libraries/lwip-1.4.1/src/core/tcp.c:225:9
	movs	r0, #3
	b	.LBB5_34
.Ltmp213:
.LBB5_25:
	@DEBUG_VALUE: tcp_close_shutdown:pcb <- $r4
	@DEBUG_VALUE: tcp_close_shutdown:err <- 0
	.loc	1 230 9                 @ ../Libraries/lwip-1.4.1/src/core/tcp.c:230:9
	movw	r0, :lower16:tcp_active_pcbs
	mov	r1, r4
	movt	r0, :upper16:tcp_active_pcbs
	bl	tcp_pcb_remove
	movw	r0, :lower16:tcp_active_pcbs_changed
	movs	r1, #1
	movt	r0, :upper16:tcp_active_pcbs_changed
	strb	r1, [r0]
	b	.LBB5_33
.Ltmp214:
.LBB5_26:
	@DEBUG_VALUE: tcp_close_shutdown:pcb <- $r4
	.loc	1 252 15                @ ../Libraries/lwip-1.4.1/src/core/tcp.c:252:15
	mov	r0, r4
	bl	tcp_send_fin
.Ltmp215:
	@DEBUG_VALUE: tcp_close_shutdown:err <- $r0
	.loc	1 253 13                @ ../Libraries/lwip-1.4.1/src/core/tcp.c:253:13
	cbnz	r0, .LBB5_36
.Ltmp216:
@ %bb.27:
	@DEBUG_VALUE: tcp_close_shutdown:err <- $r0
	@DEBUG_VALUE: tcp_close_shutdown:pcb <- $r4
	.loc	1 0 13 is_stmt 0        @ ../Libraries/lwip-1.4.1/src/core/tcp.c:0:13
	movs	r0, #9
.Ltmp217:
.LBB5_28:
	@DEBUG_VALUE: tcp_close_shutdown:pcb <- $r4
	strb	r0, [r4, #24]
.Ltmp218:
	.loc	1 276 9 is_stmt 1       @ ../Libraries/lwip-1.4.1/src/core/tcp.c:276:9
	mov	r0, r4
	bl	tcp_output
	b	.LBB5_35
.Ltmp219:
.LBB5_29:
	@DEBUG_VALUE: tcp_close_shutdown:pcb <- $r4
	.loc	1 217 13                @ ../Libraries/lwip-1.4.1/src/core/tcp.c:217:13
	ldr	r1, [r4, #12]
	b	.LBB5_31
.Ltmp220:
.LBB5_30:
	@DEBUG_VALUE: tcp_close_shutdown:pcb <- $r4
	.loc	1 0 0 is_stmt 0         @ ../Libraries/lwip-1.4.1/src/core/tcp.c:0:0
	movw	r0, :lower16:tcp_tmp_pcb
	movs	r1, #0
	movt	r0, :upper16:tcp_tmp_pcb
.Ltmp221:
.LBB5_31:
	@DEBUG_VALUE: tcp_close_shutdown:pcb <- $r4
	str	r1, [r0]
.Ltmp222:
.LBB5_32:
	@DEBUG_VALUE: tcp_close_shutdown:pcb <- $r4
	movs	r0, #0
	.loc	1 217 13                @ ../Libraries/lwip-1.4.1/src/core/tcp.c:217:13
	str	r0, [r4, #12]
.Ltmp223:
.LBB5_33:
	@DEBUG_VALUE: tcp_close_shutdown:pcb <- $r4
	.loc	1 0 0                   @ ../Libraries/lwip-1.4.1/src/core/tcp.c:0:0
	movs	r0, #2
.Ltmp224:
.LBB5_34:
	@DEBUG_VALUE: tcp_close_shutdown:pcb <- $r4
	mov	r1, r4
	bl	memp_free
.Ltmp225:
.LBB5_35:
	@DEBUG_VALUE: tcp_close_shutdown:pcb <- $r4
	movs	r0, #0
.Ltmp226:
.LBB5_36:
	@DEBUG_VALUE: tcp_close_shutdown:pcb <- $r4
	.loc	1 279 1 is_stmt 1       @ ../Libraries/lwip-1.4.1/src/core/tcp.c:279:1
	add	sp, #8
	pop	{r4, pc}
.Ltmp227:
.Lfunc_end5:
	.size	tcp_close_shutdown, .Lfunc_end5-tcp_close_shutdown
	.cfi_endproc
	.cantunwind
	.fnend
                                        @ -- End function
	.section	.text.tcp_shutdown,"ax",%progbits
	.hidden	tcp_shutdown            @ -- Begin function tcp_shutdown
	.globl	tcp_shutdown
	.p2align	1
	.type	tcp_shutdown,%function
	.code	16                      @ @tcp_shutdown
	.thumb_func
tcp_shutdown:
.Lfunc_begin6:
	.loc	1 326 0                 @ ../Libraries/lwip-1.4.1/src/core/tcp.c:326:0
	.fnstart
	.cfi_startproc
@ %bb.0:
	.save	{r4, r5, r7, lr}
	push	{r4, r5, r7, lr}
	.cfi_def_cfa_offset 16
	.cfi_offset lr, -4
	.cfi_offset r7, -8
	.cfi_offset r5, -12
	.cfi_offset r4, -16
	@DEBUG_VALUE: tcp_shutdown:pcb <- $r0
	@DEBUG_VALUE: tcp_shutdown:shut_rx <- $r1
	@DEBUG_VALUE: tcp_shutdown:shut_tx <- $r2
	mov	r4, r0
	@DEBUG_VALUE: tcp_shutdown:shut_tx <- $r2
	@DEBUG_VALUE: tcp_shutdown:shut_rx <- $r1
.Ltmp228:
	@DEBUG_VALUE: tcp_shutdown:pcb <- $r4
	.loc	1 327 14 prologue_end   @ ../Libraries/lwip-1.4.1/src/core/tcp.c:327:14
	ldrb	r0, [r0, #24]
.Ltmp229:
	.loc	1 327 9 is_stmt 0       @ ../Libraries/lwip-1.4.1/src/core/tcp.c:327:9
	cmp	r0, #1
	bne	.LBB6_3
.Ltmp230:
@ %bb.1:
	@DEBUG_VALUE: tcp_shutdown:pcb <- $r4
	@DEBUG_VALUE: tcp_shutdown:shut_tx <- $r2
	@DEBUG_VALUE: tcp_shutdown:shut_rx <- $r1
	.loc	1 0 9                   @ ../Libraries/lwip-1.4.1/src/core/tcp.c:0:9
	movs	r5, #243
.Ltmp231:
.LBB6_2:
	@DEBUG_VALUE: tcp_shutdown:pcb <- $r4
	.loc	1 364 1 is_stmt 1       @ ../Libraries/lwip-1.4.1/src/core/tcp.c:364:1
	sxtb	r0, r5
	pop	{r4, r5, r7, pc}
.Ltmp232:
.LBB6_3:
	@DEBUG_VALUE: tcp_shutdown:pcb <- $r4
	@DEBUG_VALUE: tcp_shutdown:shut_tx <- $r2
	@DEBUG_VALUE: tcp_shutdown:shut_rx <- $r1
	.loc	1 331 9                 @ ../Libraries/lwip-1.4.1/src/core/tcp.c:331:9
	cbz	r1, .LBB6_6
.Ltmp233:
@ %bb.4:
	@DEBUG_VALUE: tcp_shutdown:pcb <- $r4
	@DEBUG_VALUE: tcp_shutdown:shut_tx <- $r2
	@DEBUG_VALUE: tcp_shutdown:shut_rx <- $r1
	.loc	1 334 20                @ ../Libraries/lwip-1.4.1/src/core/tcp.c:334:20
	ldrb	r0, [r4, #30]
	.loc	1 335 13                @ ../Libraries/lwip-1.4.1/src/core/tcp.c:335:13
	cmp	r2, #0
	.loc	1 334 20                @ ../Libraries/lwip-1.4.1/src/core/tcp.c:334:20
	orr	r0, r0, #16
	strb	r0, [r4, #30]
	.loc	1 335 13                @ ../Libraries/lwip-1.4.1/src/core/tcp.c:335:13
	beq	.LBB6_10
.Ltmp234:
@ %bb.5:
	@DEBUG_VALUE: tcp_shutdown:pcb <- $r4
	@DEBUG_VALUE: tcp_shutdown:shut_tx <- $r2
	@DEBUG_VALUE: tcp_shutdown:shut_rx <- $r1
	.loc	1 338 20                @ ../Libraries/lwip-1.4.1/src/core/tcp.c:338:20
	mov	r0, r4
	movs	r1, #1
.Ltmp235:
	pop.w	{r4, r5, r7, lr}
.Ltmp236:
	b	tcp_close_shutdown
.Ltmp237:
.LBB6_6:
	@DEBUG_VALUE: tcp_shutdown:pcb <- $r4
	@DEBUG_VALUE: tcp_shutdown:shut_tx <- $r2
	@DEBUG_VALUE: tcp_shutdown:shut_rx <- $r1
	.loc	1 347 9                 @ ../Libraries/lwip-1.4.1/src/core/tcp.c:347:9
	cbz	r2, .LBB6_12
.Ltmp238:
@ %bb.7:
	@DEBUG_VALUE: tcp_shutdown:pcb <- $r4
	@DEBUG_VALUE: tcp_shutdown:shut_tx <- $r2
	@DEBUG_VALUE: tcp_shutdown:shut_rx <- $r1
	.loc	1 0 9 is_stmt 0         @ ../Libraries/lwip-1.4.1/src/core/tcp.c:0:9
	movs	r5, #243
.Ltmp239:
	.loc	1 351 9 is_stmt 1       @ ../Libraries/lwip-1.4.1/src/core/tcp.c:351:9
	cmp	r0, #7
	bhi	.LBB6_2
.Ltmp240:
@ %bb.8:
	@DEBUG_VALUE: tcp_shutdown:pcb <- $r4
	@DEBUG_VALUE: tcp_shutdown:shut_tx <- $r2
	@DEBUG_VALUE: tcp_shutdown:shut_rx <- $r1
	.loc	1 0 9 is_stmt 0         @ ../Libraries/lwip-1.4.1/src/core/tcp.c:0:9
	movs	r1, #1
.Ltmp241:
	lsl.w	r0, r1, r0
	tst.w	r0, #152
	beq	.LBB6_2
.Ltmp242:
@ %bb.9:
	@DEBUG_VALUE: tcp_shutdown:pcb <- $r4
	@DEBUG_VALUE: tcp_shutdown:shut_tx <- $r2
	.loc	1 356 20 is_stmt 1      @ ../Libraries/lwip-1.4.1/src/core/tcp.c:356:20
	mov	r0, r4
	movs	r1, #0
	pop.w	{r4, r5, r7, lr}
.Ltmp243:
	b	tcp_close_shutdown
.Ltmp244:
.LBB6_10:
	@DEBUG_VALUE: tcp_shutdown:pcb <- $r4
	@DEBUG_VALUE: tcp_shutdown:shut_tx <- $r2
	@DEBUG_VALUE: tcp_shutdown:shut_rx <- $r1
	.loc	1 341 18                @ ../Libraries/lwip-1.4.1/src/core/tcp.c:341:18
	ldr	r0, [r4, #120]
	movs	r5, #0
.Ltmp245:
	.loc	1 341 13 is_stmt 0      @ ../Libraries/lwip-1.4.1/src/core/tcp.c:341:13
	cmp	r0, #0
	beq	.LBB6_2
.Ltmp246:
@ %bb.11:
	@DEBUG_VALUE: tcp_shutdown:pcb <- $r4
	@DEBUG_VALUE: tcp_shutdown:shut_tx <- $r2
	@DEBUG_VALUE: tcp_shutdown:shut_rx <- $r1
	.loc	1 343 13 is_stmt 1      @ ../Libraries/lwip-1.4.1/src/core/tcp.c:343:13
	bl	pbuf_free
.Ltmp247:
	.loc	1 344 31                @ ../Libraries/lwip-1.4.1/src/core/tcp.c:344:31
	str	r5, [r4, #120]
	b	.LBB6_2
.Ltmp248:
.LBB6_12:
	@DEBUG_VALUE: tcp_shutdown:pcb <- $r4
	@DEBUG_VALUE: tcp_shutdown:shut_tx <- $r2
	@DEBUG_VALUE: tcp_shutdown:shut_rx <- $r1
	.loc	1 0 31 is_stmt 0        @ ../Libraries/lwip-1.4.1/src/core/tcp.c:0:31
	movs	r5, #0
	b	.LBB6_2
.Lfunc_end6:
	.size	tcp_shutdown, .Lfunc_end6-tcp_shutdown
	.cfi_endproc
	.cantunwind
	.fnend
                                        @ -- End function
	.section	.text.tcp_abandon,"ax",%progbits
	.hidden	tcp_abandon             @ -- Begin function tcp_abandon
	.globl	tcp_abandon
	.p2align	1
	.type	tcp_abandon,%function
	.code	16                      @ @tcp_abandon
	.thumb_func
tcp_abandon:
.Lfunc_begin7:
	.loc	1 376 0 is_stmt 1       @ ../Libraries/lwip-1.4.1/src/core/tcp.c:376:0
	.fnstart
	.cfi_startproc
@ %bb.0:
	.save	{r4, r5, r6, r7, r8, r9, r10, lr}
	push.w	{r4, r5, r6, r7, r8, r9, r10, lr}
	.cfi_def_cfa_offset 32
	.cfi_offset lr, -4
	.cfi_offset r10, -8
	.cfi_offset r9, -12
	.cfi_offset r8, -16
	.cfi_offset r7, -20
	.cfi_offset r6, -24
	.cfi_offset r5, -28
	.cfi_offset r4, -32
	.pad	#8
	sub	sp, #8
	.cfi_def_cfa_offset 40
	@DEBUG_VALUE: tcp_abandon:pcb <- $r0
	@DEBUG_VALUE: tcp_abandon:reset <- $r1
	mov	r4, r0
.Ltmp249:
	@DEBUG_VALUE: tcp_abandon:pcb <- $r4
	.loc	1 384 5 prologue_end    @ ../Libraries/lwip-1.4.1/src/core/tcp.c:384:5
	ldrb	r0, [r0, #24]
.Ltmp250:
	.loc	1 389 9                 @ ../Libraries/lwip-1.4.1/src/core/tcp.c:389:9
	cmp	r0, #10
	bne	.LBB7_2
.Ltmp251:
@ %bb.1:
	@DEBUG_VALUE: tcp_abandon:pcb <- $r4
	@DEBUG_VALUE: tcp_abandon:reset <- $r1
	.loc	1 391 9                 @ ../Libraries/lwip-1.4.1/src/core/tcp.c:391:9
	movw	r0, :lower16:tcp_tw_pcbs
	mov	r1, r4
.Ltmp252:
	movt	r0, :upper16:tcp_tw_pcbs
	bl	tcp_pcb_remove
	.loc	1 392 9                 @ ../Libraries/lwip-1.4.1/src/core/tcp.c:392:9
	movs	r0, #2
	mov	r1, r4
	add	sp, #8
	pop.w	{r4, r5, r6, r7, r8, r9, r10, lr}
.Ltmp253:
	b	memp_free
.Ltmp254:
.LBB7_2:
	@DEBUG_VALUE: tcp_abandon:pcb <- $r4
	@DEBUG_VALUE: tcp_abandon:reset <- $r1
	.loc	1 402 9                 @ ../Libraries/lwip-1.4.1/src/core/tcp.c:402:9
	movw	r0, :lower16:tcp_active_pcbs
	mov	r5, r1
.Ltmp255:
	@DEBUG_VALUE: tcp_abandon:reset <- $r5
	@DEBUG_VALUE: tcp_abandon:reset <- $r5
	.loc	1 401 25                @ ../Libraries/lwip-1.4.1/src/core/tcp.c:401:25
	ldr.w	r8, [r4, #16]
.Ltmp256:
	@DEBUG_VALUE: tcp_abandon:errf_arg <- $r8
	.loc	1 397 22                @ ../Libraries/lwip-1.4.1/src/core/tcp.c:397:22
	ldr.w	r9, [r4, #40]
.Ltmp257:
	@DEBUG_VALUE: tcp_abandon:ackno <- $r9
	.loc	1 396 22                @ ../Libraries/lwip-1.4.1/src/core/tcp.c:396:22
	ldr.w	r10, [r4, #80]
.Ltmp258:
	@DEBUG_VALUE: tcp_abandon:seqno <- $r10
	.loc	1 399 21                @ ../Libraries/lwip-1.4.1/src/core/tcp.c:399:21
	ldr.w	r7, [r4, #140]
.Ltmp259:
	@DEBUG_VALUE: tcp_abandon:errf <- $r7
	@DEBUG_VALUE: tcp_abandon:errf <- $r7
	.loc	1 402 9                 @ ../Libraries/lwip-1.4.1/src/core/tcp.c:402:9
	mov	r1, r4
	movt	r0, :upper16:tcp_active_pcbs
	bl	tcp_pcb_remove
	movw	r0, :lower16:tcp_active_pcbs_changed
	movs	r1, #1
	movt	r0, :upper16:tcp_active_pcbs_changed
	strb	r1, [r0]
.Ltmp260:
	.loc	1 403 18                @ ../Libraries/lwip-1.4.1/src/core/tcp.c:403:18
	ldr	r0, [r4, #112]
.Ltmp261:
	.loc	1 403 13 is_stmt 0      @ ../Libraries/lwip-1.4.1/src/core/tcp.c:403:13
	cbz	r0, .LBB7_4
.Ltmp262:
	.p2align	2
.LBB7_3:                                @ =>This Inner Loop Header: Depth=1
	@DEBUG_VALUE: tcp_abandon:errf <- $r7
	@DEBUG_VALUE: tcp_abandon:seqno <- $r10
	@DEBUG_VALUE: tcp_abandon:ackno <- $r9
	@DEBUG_VALUE: tcp_abandon:errf_arg <- $r8
	@DEBUG_VALUE: tcp_abandon:reset <- $r5
	@DEBUG_VALUE: tcp_abandon:pcb <- $r4
	@DEBUG_VALUE: tcp_segs_free:seg <- $r0
	.loc	1 1256 37 is_stmt 1     @ ../Libraries/lwip-1.4.1/src/core/tcp.c:1256:37
	ldr	r6, [r0]
.Ltmp263:
	@DEBUG_VALUE: next <- $r6
	@DEBUG_VALUE: tcp_segs_free:seg <- $r6
	.loc	1 1257 9                @ ../Libraries/lwip-1.4.1/src/core/tcp.c:1257:9
	bl	tcp_seg_free
.Ltmp264:
	.loc	1 1254 5                @ ../Libraries/lwip-1.4.1/src/core/tcp.c:1254:5
	cmp	r6, #0
	mov	r0, r6
.Ltmp265:
	@DEBUG_VALUE: next <- $r0
	@DEBUG_VALUE: tcp_segs_free:seg <- $r0
	bne	.LBB7_3
.Ltmp266:
.LBB7_4:
	@DEBUG_VALUE: tcp_abandon:errf <- $r7
	@DEBUG_VALUE: tcp_abandon:seqno <- $r10
	@DEBUG_VALUE: tcp_abandon:ackno <- $r9
	@DEBUG_VALUE: tcp_abandon:errf_arg <- $r8
	@DEBUG_VALUE: tcp_abandon:reset <- $r5
	@DEBUG_VALUE: tcp_abandon:pcb <- $r4
	.loc	1 407 18                @ ../Libraries/lwip-1.4.1/src/core/tcp.c:407:18
	ldr	r0, [r4, #108]
.Ltmp267:
	.loc	1 407 13 is_stmt 0      @ ../Libraries/lwip-1.4.1/src/core/tcp.c:407:13
	cbz	r0, .LBB7_6
.Ltmp268:
	.p2align	2
.LBB7_5:                                @ =>This Inner Loop Header: Depth=1
	@DEBUG_VALUE: tcp_abandon:errf <- $r7
	@DEBUG_VALUE: tcp_abandon:seqno <- $r10
	@DEBUG_VALUE: tcp_abandon:ackno <- $r9
	@DEBUG_VALUE: tcp_abandon:errf_arg <- $r8
	@DEBUG_VALUE: tcp_abandon:reset <- $r5
	@DEBUG_VALUE: tcp_abandon:pcb <- $r4
	@DEBUG_VALUE: tcp_segs_free:seg <- $r0
	.loc	1 1256 37 is_stmt 1     @ ../Libraries/lwip-1.4.1/src/core/tcp.c:1256:37
	ldr	r6, [r0]
.Ltmp269:
	@DEBUG_VALUE: next <- $r6
	@DEBUG_VALUE: tcp_segs_free:seg <- $r6
	.loc	1 1257 9                @ ../Libraries/lwip-1.4.1/src/core/tcp.c:1257:9
	bl	tcp_seg_free
.Ltmp270:
	.loc	1 1254 5                @ ../Libraries/lwip-1.4.1/src/core/tcp.c:1254:5
	cmp	r6, #0
	mov	r0, r6
.Ltmp271:
	@DEBUG_VALUE: next <- $r0
	@DEBUG_VALUE: tcp_segs_free:seg <- $r0
	bne	.LBB7_5
.Ltmp272:
.LBB7_6:
	@DEBUG_VALUE: tcp_abandon:errf <- $r7
	@DEBUG_VALUE: tcp_abandon:seqno <- $r10
	@DEBUG_VALUE: tcp_abandon:ackno <- $r9
	@DEBUG_VALUE: tcp_abandon:errf_arg <- $r8
	@DEBUG_VALUE: tcp_abandon:reset <- $r5
	@DEBUG_VALUE: tcp_abandon:pcb <- $r4
	.loc	1 412 18                @ ../Libraries/lwip-1.4.1/src/core/tcp.c:412:18
	ldr	r0, [r4, #116]
.Ltmp273:
	.loc	1 412 13 is_stmt 0      @ ../Libraries/lwip-1.4.1/src/core/tcp.c:412:13
	cbz	r0, .LBB7_8
.Ltmp274:
	.p2align	2
.LBB7_7:                                @ =>This Inner Loop Header: Depth=1
	@DEBUG_VALUE: tcp_abandon:errf <- $r7
	@DEBUG_VALUE: tcp_abandon:seqno <- $r10
	@DEBUG_VALUE: tcp_abandon:ackno <- $r9
	@DEBUG_VALUE: tcp_abandon:errf_arg <- $r8
	@DEBUG_VALUE: tcp_abandon:reset <- $r5
	@DEBUG_VALUE: tcp_abandon:pcb <- $r4
	@DEBUG_VALUE: tcp_segs_free:seg <- $r0
	.loc	1 1256 37 is_stmt 1     @ ../Libraries/lwip-1.4.1/src/core/tcp.c:1256:37
	ldr	r6, [r0]
.Ltmp275:
	@DEBUG_VALUE: next <- $r6
	@DEBUG_VALUE: tcp_segs_free:seg <- $r6
	.loc	1 1257 9                @ ../Libraries/lwip-1.4.1/src/core/tcp.c:1257:9
	bl	tcp_seg_free
.Ltmp276:
	.loc	1 1254 5                @ ../Libraries/lwip-1.4.1/src/core/tcp.c:1254:5
	cmp	r6, #0
	mov	r0, r6
.Ltmp277:
	@DEBUG_VALUE: next <- $r0
	@DEBUG_VALUE: tcp_segs_free:seg <- $r0
	bne	.LBB7_7
.Ltmp278:
.LBB7_8:
	@DEBUG_VALUE: tcp_abandon:errf <- $r7
	@DEBUG_VALUE: tcp_abandon:seqno <- $r10
	@DEBUG_VALUE: tcp_abandon:ackno <- $r9
	@DEBUG_VALUE: tcp_abandon:errf_arg <- $r8
	@DEBUG_VALUE: tcp_abandon:reset <- $r5
	@DEBUG_VALUE: tcp_abandon:pcb <- $r4
	.loc	1 417 13                @ ../Libraries/lwip-1.4.1/src/core/tcp.c:417:13
	cbz	r5, .LBB7_10
.Ltmp279:
@ %bb.9:
	@DEBUG_VALUE: tcp_abandon:errf <- $r7
	@DEBUG_VALUE: tcp_abandon:seqno <- $r10
	@DEBUG_VALUE: tcp_abandon:ackno <- $r9
	@DEBUG_VALUE: tcp_abandon:errf_arg <- $r8
	@DEBUG_VALUE: tcp_abandon:reset <- $r5
	@DEBUG_VALUE: tcp_abandon:pcb <- $r4
	.loc	1 420 73                @ ../Libraries/lwip-1.4.1/src/core/tcp.c:420:73
	ldrh	r0, [r4, #26]
	.loc	1 420 90 is_stmt 0      @ ../Libraries/lwip-1.4.1/src/core/tcp.c:420:90
	ldrh	r1, [r4, #28]
	.loc	1 420 57                @ ../Libraries/lwip-1.4.1/src/core/tcp.c:420:57
	adds	r3, r4, #4
	.loc	1 420 13                @ ../Libraries/lwip-1.4.1/src/core/tcp.c:420:13
	mov	r2, r4
	strd	r0, r1, [sp]
	mov	r0, r10
	mov	r1, r9
	bl	tcp_rst
.Ltmp280:
.LBB7_10:
	@DEBUG_VALUE: tcp_abandon:errf <- $r7
	@DEBUG_VALUE: tcp_abandon:seqno <- $r10
	@DEBUG_VALUE: tcp_abandon:ackno <- $r9
	@DEBUG_VALUE: tcp_abandon:errf_arg <- $r8
	@DEBUG_VALUE: tcp_abandon:reset <- $r5
	@DEBUG_VALUE: tcp_abandon:pcb <- $r4
	.loc	1 422 9 is_stmt 1       @ ../Libraries/lwip-1.4.1/src/core/tcp.c:422:9
	movs	r0, #2
	mov	r1, r4
	bl	memp_free
.Ltmp281:
	.loc	1 423 9                 @ ../Libraries/lwip-1.4.1/src/core/tcp.c:423:9
	cbz	r7, .LBB7_12
.Ltmp282:
@ %bb.11:
	@DEBUG_VALUE: tcp_abandon:errf <- $r7
	@DEBUG_VALUE: tcp_abandon:seqno <- $r10
	@DEBUG_VALUE: tcp_abandon:ackno <- $r9
	@DEBUG_VALUE: tcp_abandon:errf_arg <- $r8
	@DEBUG_VALUE: tcp_abandon:reset <- $r5
	@DEBUG_VALUE: tcp_abandon:pcb <- $r4
	.loc	1 0 9 is_stmt 0         @ ../Libraries/lwip-1.4.1/src/core/tcp.c:0:9
	mov	r2, r7
.Ltmp283:
	.loc	1 423 9                 @ ../Libraries/lwip-1.4.1/src/core/tcp.c:423:9
	mov	r0, r8
	mvn	r1, #9
	add	sp, #8
	pop.w	{r4, r5, r6, r7, r8, r9, r10, lr}
.Ltmp284:
	bx	r2
.Ltmp285:
.LBB7_12:
	@DEBUG_VALUE: tcp_abandon:errf <- $r7
	@DEBUG_VALUE: tcp_abandon:seqno <- $r10
	@DEBUG_VALUE: tcp_abandon:ackno <- $r9
	@DEBUG_VALUE: tcp_abandon:errf_arg <- $r8
	@DEBUG_VALUE: tcp_abandon:reset <- $r5
	@DEBUG_VALUE: tcp_abandon:pcb <- $r4
	.loc	1 425 1 is_stmt 1       @ ../Libraries/lwip-1.4.1/src/core/tcp.c:425:1
	add	sp, #8
	pop.w	{r4, r5, r6, r7, r8, r9, r10, pc}
.Ltmp286:
.Lfunc_end7:
	.size	tcp_abandon, .Lfunc_end7-tcp_abandon
	.cfi_endproc
	.cantunwind
	.fnend
                                        @ -- End function
	.section	.text.tcp_pcb_remove,"ax",%progbits
	.hidden	tcp_pcb_remove          @ -- Begin function tcp_pcb_remove
	.globl	tcp_pcb_remove
	.p2align	1
	.type	tcp_pcb_remove,%function
	.code	16                      @ @tcp_pcb_remove
	.thumb_func
tcp_pcb_remove:
.Lfunc_begin8:
	.loc	1 1690 0                @ ../Libraries/lwip-1.4.1/src/core/tcp.c:1690:0
	.fnstart
	.cfi_startproc
@ %bb.0:
	.save	{r4, r5, r7, lr}
	push	{r4, r5, r7, lr}
	.cfi_def_cfa_offset 16
	.cfi_offset lr, -4
	.cfi_offset r7, -8
	.cfi_offset r5, -12
	.cfi_offset r4, -16
	@DEBUG_VALUE: tcp_pcb_remove:pcblist <- $r0
	@DEBUG_VALUE: tcp_pcb_remove:pcb <- $r1
	mov	r4, r1
.Ltmp287:
	@DEBUG_VALUE: tcp_pcb_remove:pcb <- $r4
	@DEBUG_VALUE: tcp_pcb_remove:pcblist <- $r0
	.loc	1 1691 5 prologue_end   @ ../Libraries/lwip-1.4.1/src/core/tcp.c:1691:5
	ldr	r1, [r0]
.Ltmp288:
	.loc	1 1691 5 is_stmt 0      @ ../Libraries/lwip-1.4.1/src/core/tcp.c:1691:5
	cmp	r1, r4
	beq	.LBB8_4
.Ltmp289:
	.p2align	2
.LBB8_1:                                @ =>This Inner Loop Header: Depth=1
	@DEBUG_VALUE: tcp_pcb_remove:pcb <- $r4
	@DEBUG_VALUE: tcp_pcb_remove:pcblist <- $r0
	.loc	1 1691 5                @ ../Libraries/lwip-1.4.1/src/core/tcp.c:1691:5
	cbz	r1, .LBB8_5
.Ltmp290:
@ %bb.2:                                @   in Loop: Header=BB8_1 Depth=1
	@DEBUG_VALUE: tcp_pcb_remove:pcb <- $r4
	@DEBUG_VALUE: tcp_pcb_remove:pcblist <- $r0
	.loc	1 0 0                   @ ../Libraries/lwip-1.4.1/src/core/tcp.c:0:0
	mov	r0, r1
.Ltmp291:
	.loc	1 1691 5                @ ../Libraries/lwip-1.4.1/src/core/tcp.c:1691:5
	ldr	r1, [r1, #12]
.Ltmp292:
	.loc	1 1691 5                @ ../Libraries/lwip-1.4.1/src/core/tcp.c:1691:5
	cmp	r1, r4
	bne	.LBB8_1
.Ltmp293:
@ %bb.3:
	@DEBUG_VALUE: tcp_pcb_remove:pcb <- $r4
	.loc	1 0 0                   @ ../Libraries/lwip-1.4.1/src/core/tcp.c:0:0
	movw	r1, :lower16:tcp_tmp_pcb
	movt	r1, :upper16:tcp_tmp_pcb
	str	r0, [r1]
.Ltmp294:
	.loc	1 1691 5                @ ../Libraries/lwip-1.4.1/src/core/tcp.c:1691:5
	ldr	r1, [r4, #12]
	str	r1, [r0, #12]
	b	.LBB8_7
.Ltmp295:
.LBB8_4:
	@DEBUG_VALUE: tcp_pcb_remove:pcb <- $r4
	@DEBUG_VALUE: tcp_pcb_remove:pcblist <- $r0
	.loc	1 1691 5                @ ../Libraries/lwip-1.4.1/src/core/tcp.c:1691:5
	ldr	r1, [r4, #12]
	b	.LBB8_6
.Ltmp296:
.LBB8_5:
	@DEBUG_VALUE: tcp_pcb_remove:pcb <- $r4
	@DEBUG_VALUE: tcp_pcb_remove:pcblist <- $r0
	.loc	1 0 0                   @ ../Libraries/lwip-1.4.1/src/core/tcp.c:0:0
	movw	r0, :lower16:tcp_tmp_pcb
.Ltmp297:
	movs	r1, #0
	movt	r0, :upper16:tcp_tmp_pcb
.Ltmp298:
.LBB8_6:
	@DEBUG_VALUE: tcp_pcb_remove:pcb <- $r4
	str	r1, [r0]
.Ltmp299:
.LBB8_7:
	@DEBUG_VALUE: tcp_pcb_remove:pcb <- $r4
	movs	r5, #0
	.loc	1 1693 5 is_stmt 1      @ ../Libraries/lwip-1.4.1/src/core/tcp.c:1693:5
	mov	r0, r4
.Ltmp300:
	.loc	1 1691 5                @ ../Libraries/lwip-1.4.1/src/core/tcp.c:1691:5
	str	r5, [r4, #12]
.Ltmp301:
	.loc	1 1693 5                @ ../Libraries/lwip-1.4.1/src/core/tcp.c:1693:5
	bl	tcp_pcb_purge
.Ltmp302:
	.loc	1 1696 14               @ ../Libraries/lwip-1.4.1/src/core/tcp.c:1696:14
	ldrb	r0, [r4, #24]
	.loc	1 1696 33 is_stmt 0     @ ../Libraries/lwip-1.4.1/src/core/tcp.c:1696:33
	cmp	r0, #1
	beq	.LBB8_9
.Ltmp303:
@ %bb.8:
	@DEBUG_VALUE: tcp_pcb_remove:pcb <- $r4
	cmp	r0, #10
	.loc	1 1698 18 is_stmt 1     @ ../Libraries/lwip-1.4.1/src/core/tcp.c:1698:18
	itt	ne
	ldrbne	r0, [r4, #30]
.Ltmp304:
	.loc	1 1696 9                @ ../Libraries/lwip-1.4.1/src/core/tcp.c:1696:9
	lslsne.w	r1, r0, #31
	bne	.LBB8_10
.Ltmp305:
.LBB8_9:
	@DEBUG_VALUE: tcp_pcb_remove:pcb <- $r4
	.loc	1 1713 16               @ ../Libraries/lwip-1.4.1/src/core/tcp.c:1713:16
	strb	r5, [r4, #24]
	.loc	1 1716 1                @ ../Libraries/lwip-1.4.1/src/core/tcp.c:1716:1
	pop	{r4, r5, r7, pc}
.Ltmp306:
.LBB8_10:
	@DEBUG_VALUE: tcp_pcb_remove:pcb <- $r4
	.loc	1 1700 20               @ ../Libraries/lwip-1.4.1/src/core/tcp.c:1700:20
	orr	r0, r0, #2
	strb	r0, [r4, #30]
	.loc	1 1701 9                @ ../Libraries/lwip-1.4.1/src/core/tcp.c:1701:9
	mov	r0, r4
	bl	tcp_output
	b	.LBB8_9
.Ltmp307:
.Lfunc_end8:
	.size	tcp_pcb_remove, .Lfunc_end8-tcp_pcb_remove
	.cfi_endproc
	.cantunwind
	.fnend
                                        @ -- End function
	.section	.text.tcp_segs_free,"ax",%progbits
	.hidden	tcp_segs_free           @ -- Begin function tcp_segs_free
	.globl	tcp_segs_free
	.p2align	1
	.type	tcp_segs_free,%function
	.code	16                      @ @tcp_segs_free
	.thumb_func
tcp_segs_free:
.Lfunc_begin9:
	.loc	1 1253 0                @ ../Libraries/lwip-1.4.1/src/core/tcp.c:1253:0
	.fnstart
	.cfi_startproc
@ %bb.0:
	.save	{r4, lr}
	push	{r4, lr}
	.cfi_def_cfa_offset 8
	.cfi_offset lr, -4
	.cfi_offset r4, -8
	@DEBUG_VALUE: tcp_segs_free:seg <- $r0
	@DEBUG_VALUE: tcp_segs_free:seg <- $r0
.Ltmp308:
	.loc	1 1254 5 prologue_end   @ ../Libraries/lwip-1.4.1/src/core/tcp.c:1254:5
	cbz	r0, .LBB9_2
.Ltmp309:
	.p2align	2
.LBB9_1:                                @ =>This Inner Loop Header: Depth=1
	@DEBUG_VALUE: tcp_segs_free:seg <- $r0
	@DEBUG_VALUE: tcp_segs_free:seg <- $r0
	.loc	1 1256 37               @ ../Libraries/lwip-1.4.1/src/core/tcp.c:1256:37
	ldr	r4, [r0]
.Ltmp310:
	@DEBUG_VALUE: next <- $r4
	@DEBUG_VALUE: tcp_segs_free:seg <- $r4
	.loc	1 1257 9                @ ../Libraries/lwip-1.4.1/src/core/tcp.c:1257:9
	bl	tcp_seg_free
.Ltmp311:
	.loc	1 1254 5                @ ../Libraries/lwip-1.4.1/src/core/tcp.c:1254:5
	cmp	r4, #0
	mov	r0, r4
.Ltmp312:
	@DEBUG_VALUE: next <- $r0
	@DEBUG_VALUE: tcp_segs_free:seg <- $r0
	bne	.LBB9_1
.Ltmp313:
.LBB9_2:
	@DEBUG_VALUE: tcp_segs_free:seg <- $r0
	.loc	1 1260 1                @ ../Libraries/lwip-1.4.1/src/core/tcp.c:1260:1
	pop	{r4, pc}
.Ltmp314:
.Lfunc_end9:
	.size	tcp_segs_free, .Lfunc_end9-tcp_segs_free
	.cfi_endproc
	.cantunwind
	.fnend
                                        @ -- End function
	.section	.text.tcp_abort,"ax",%progbits
	.hidden	tcp_abort               @ -- Begin function tcp_abort
	.globl	tcp_abort
	.p2align	1
	.type	tcp_abort,%function
	.code	16                      @ @tcp_abort
	.thumb_func
tcp_abort:
.Lfunc_begin10:
	.loc	1 439 0                 @ ../Libraries/lwip-1.4.1/src/core/tcp.c:439:0
	.fnstart
	.cfi_startproc
@ %bb.0:
	@DEBUG_VALUE: tcp_abort:pcb <- $r0
	@DEBUG_VALUE: tcp_abort:pcb <- $r0
	@DEBUG_VALUE: tcp_abort:pcb <- $r0
	.loc	1 440 5 prologue_end    @ ../Libraries/lwip-1.4.1/src/core/tcp.c:440:5
	movs	r1, #1
	b	tcp_abandon
.Ltmp315:
.Lfunc_end10:
	.size	tcp_abort, .Lfunc_end10-tcp_abort
	.cfi_endproc
	.cantunwind
	.fnend
                                        @ -- End function
	.section	.text.tcp_bind,"ax",%progbits
	.hidden	tcp_bind                @ -- Begin function tcp_bind
	.globl	tcp_bind
	.p2align	1
	.type	tcp_bind,%function
	.code	16                      @ @tcp_bind
	.thumb_func
tcp_bind:
.Lfunc_begin11:
	.loc	1 459 0                 @ ../Libraries/lwip-1.4.1/src/core/tcp.c:459:0
	.fnstart
	.cfi_startproc
@ %bb.0:
	.save	{r4, r5, r6, r7, lr}
	push	{r4, r5, r6, r7, lr}
	.cfi_def_cfa_offset 20
	.cfi_offset lr, -4
	.cfi_offset r7, -8
	.cfi_offset r6, -12
	.cfi_offset r5, -16
	.cfi_offset r4, -20
	.pad	#4
	sub	sp, #4
	.cfi_def_cfa_offset 24
	@DEBUG_VALUE: tcp_bind:pcb <- $r0
	@DEBUG_VALUE: tcp_bind:ipaddr <- $r1
	@DEBUG_VALUE: tcp_bind:port <- $r2
	mov	r7, r0
.Ltmp316:
	@DEBUG_VALUE: tcp_bind:max_pcb_list <- 4
	@DEBUG_VALUE: tcp_bind:port <- $r2
	@DEBUG_VALUE: tcp_bind:pcb <- $r7
	.loc	1 464 5 prologue_end    @ ../Libraries/lwip-1.4.1/src/core/tcp.c:464:5
	ldrb	r0, [r0, #24]
.Ltmp317:
	.loc	1 464 5 is_stmt 0       @ ../Libraries/lwip-1.4.1/src/core/tcp.c:464:5
	cbz	r0, .LBB11_3
.Ltmp318:
@ %bb.1:
	@DEBUG_VALUE: tcp_bind:pcb <- $r7
	@DEBUG_VALUE: tcp_bind:port <- $r2
	@DEBUG_VALUE: tcp_bind:ipaddr <- $r1
	.loc	1 0 5                   @ ../Libraries/lwip-1.4.1/src/core/tcp.c:0:5
	movs	r1, #250
.Ltmp319:
.LBB11_2:
	@DEBUG_VALUE: tcp_bind:pcb <- $r7
	.loc	1 521 1 is_stmt 1       @ ../Libraries/lwip-1.4.1/src/core/tcp.c:521:1
	sxtb	r0, r1
	add	sp, #4
	pop	{r4, r5, r6, r7, pc}
.Ltmp320:
.LBB11_3:
	@DEBUG_VALUE: tcp_bind:pcb <- $r7
	@DEBUG_VALUE: tcp_bind:port <- $r2
	@DEBUG_VALUE: tcp_bind:ipaddr <- $r1
	.loc	1 0 1 is_stmt 0         @ ../Libraries/lwip-1.4.1/src/core/tcp.c:0:1
	mov	r5, r1
.Ltmp321:
	@DEBUG_VALUE: tcp_bind:ipaddr <- $r5
	@DEBUG_VALUE: tcp_bind:ipaddr <- $r5
	.loc	1 478 9 is_stmt 1       @ ../Libraries/lwip-1.4.1/src/core/tcp.c:478:9
	cbnz	r2, .LBB11_5
.Ltmp322:
@ %bb.4:
	@DEBUG_VALUE: tcp_bind:ipaddr <- $r5
	@DEBUG_VALUE: tcp_bind:pcb <- $r7
	@DEBUG_VALUE: tcp_bind:port <- $r2
	.loc	1 480 16                @ ../Libraries/lwip-1.4.1/src/core/tcp.c:480:16
	bl	tcp_new_port
.Ltmp323:
	mov	r2, r0
.Ltmp324:
	@DEBUG_VALUE: tcp_bind:port <- $r2
	.loc	1 481 13                @ ../Libraries/lwip-1.4.1/src/core/tcp.c:481:13
	cbz	r0, .LBB11_19
.Ltmp325:
.LBB11_5:
	@DEBUG_VALUE: tcp_bind:ipaddr <- $r5
	@DEBUG_VALUE: tcp_bind:pcb <- $r7
	@DEBUG_VALUE: tcp_bind:port <- $r2
	.loc	1 0 13 is_stmt 0        @ ../Libraries/lwip-1.4.1/src/core/tcp.c:0:13
	movw	r12, :lower16:tcp_pcb_lists
	movs	r0, #0
.Ltmp326:
	@DEBUG_VALUE: tcp_bind:i <- 0
	@DEBUG_VALUE: tcp_bind:port <- $r2
	movt	r12, :upper16:tcp_pcb_lists
.Ltmp327:
.LBB11_6:                               @ =>This Loop Header: Depth=1
                                        @     Child Loop BB11_13 Depth 2
	@DEBUG_VALUE: tcp_bind:ipaddr <- $r5
	@DEBUG_VALUE: tcp_bind:pcb <- $r7
	@DEBUG_VALUE: tcp_bind:port <- $r2
	@DEBUG_VALUE: tcp_bind:i <- $r0
	.loc	1 490 22 is_stmt 1      @ ../Libraries/lwip-1.4.1/src/core/tcp.c:490:22
	ldr.w	r1, [r12, r0, lsl #2]
.Ltmp328:
	@DEBUG_VALUE: tcp_bind:cpcb <- [DW_OP_deref] $r1
	.loc	1 0 0 is_stmt 0         @ ../Libraries/lwip-1.4.1/src/core/tcp.c:0:0
	ldr	r3, [r1]
	b	.LBB11_13
.Ltmp329:
	.p2align	2
.LBB11_7:                               @   in Loop: Header=BB11_13 Depth=2
	@DEBUG_VALUE: tcp_bind:cpcb <- [DW_OP_plus_uconst 12, DW_OP_deref, DW_OP_stack_value] $r3
	@DEBUG_VALUE: tcp_bind:i <- $r0
	@DEBUG_VALUE: tcp_bind:ipaddr <- $r5
	@DEBUG_VALUE: tcp_bind:pcb <- $r7
	@DEBUG_VALUE: tcp_bind:port <- $r2
	.loc	1 492 23 is_stmt 1      @ ../Libraries/lwip-1.4.1/src/core/tcp.c:492:23
	ldrh	r1, [r3, #26]
.Ltmp330:
	.loc	1 492 17 is_stmt 0      @ ../Libraries/lwip-1.4.1/src/core/tcp.c:492:17
	cmp	r1, r2
	bne	.LBB11_12
.Ltmp331:
@ %bb.8:                                @   in Loop: Header=BB11_13 Depth=2
	@DEBUG_VALUE: tcp_bind:cpcb <- [DW_OP_plus_uconst 12, DW_OP_deref, DW_OP_stack_value] $r3
	@DEBUG_VALUE: tcp_bind:i <- $r0
	@DEBUG_VALUE: tcp_bind:ipaddr <- $r5
	@DEBUG_VALUE: tcp_bind:pcb <- $r7
	@DEBUG_VALUE: tcp_bind:port <- $r2
	.loc	1 0 17                  @ ../Libraries/lwip-1.4.1/src/core/tcp.c:0:17
	movs	r1, #248
.Ltmp332:
	.loc	1 502 58 is_stmt 1      @ ../Libraries/lwip-1.4.1/src/core/tcp.c:502:58
	cmp	r5, #0
	beq	.LBB11_2
.Ltmp333:
@ %bb.9:                                @   in Loop: Header=BB11_13 Depth=2
	@DEBUG_VALUE: tcp_bind:cpcb <- [DW_OP_plus_uconst 12, DW_OP_deref, DW_OP_stack_value] $r3
	@DEBUG_VALUE: tcp_bind:i <- $r0
	@DEBUG_VALUE: tcp_bind:ipaddr <- $r5
	@DEBUG_VALUE: tcp_bind:pcb <- $r7
	@DEBUG_VALUE: tcp_bind:port <- $r2
	.loc	1 0 0 is_stmt 0         @ ../Libraries/lwip-1.4.1/src/core/tcp.c:0:0
	ldr	r4, [r3]
	.loc	1 502 58                @ ../Libraries/lwip-1.4.1/src/core/tcp.c:502:58
	cmp	r4, #0
	beq	.LBB11_2
.Ltmp334:
@ %bb.10:                               @   in Loop: Header=BB11_13 Depth=2
	@DEBUG_VALUE: tcp_bind:cpcb <- [DW_OP_plus_uconst 12, DW_OP_deref, DW_OP_stack_value] $r3
	@DEBUG_VALUE: tcp_bind:i <- $r0
	@DEBUG_VALUE: tcp_bind:ipaddr <- $r5
	@DEBUG_VALUE: tcp_bind:pcb <- $r7
	@DEBUG_VALUE: tcp_bind:port <- $r2
	.loc	1 503 29 is_stmt 1      @ ../Libraries/lwip-1.4.1/src/core/tcp.c:503:29
	ldr	r6, [r5]
	movs	r1, #248
	.loc	1 503 51 is_stmt 0      @ ../Libraries/lwip-1.4.1/src/core/tcp.c:503:51
	cmp	r6, #0
	beq	.LBB11_2
.Ltmp335:
@ %bb.11:                               @   in Loop: Header=BB11_13 Depth=2
	@DEBUG_VALUE: tcp_bind:cpcb <- [DW_OP_plus_uconst 12, DW_OP_deref, DW_OP_stack_value] $r3
	@DEBUG_VALUE: tcp_bind:i <- $r0
	@DEBUG_VALUE: tcp_bind:ipaddr <- $r5
	@DEBUG_VALUE: tcp_bind:pcb <- $r7
	@DEBUG_VALUE: tcp_bind:port <- $r2
	cmp	r4, r6
	beq	.LBB11_2
.Ltmp336:
.LBB11_12:                              @   in Loop: Header=BB11_13 Depth=2
	@DEBUG_VALUE: tcp_bind:cpcb <- [DW_OP_plus_uconst 12, DW_OP_deref, DW_OP_stack_value] $r3
	@DEBUG_VALUE: tcp_bind:i <- $r0
	@DEBUG_VALUE: tcp_bind:ipaddr <- $r5
	@DEBUG_VALUE: tcp_bind:pcb <- $r7
	@DEBUG_VALUE: tcp_bind:port <- $r2
	@DEBUG_VALUE: tcp_bind:cpcb <- [DW_OP_plus_uconst 12, DW_OP_deref, DW_OP_stack_value] $r3
	.loc	1 0 0                   @ ../Libraries/lwip-1.4.1/src/core/tcp.c:0:0
	ldr	r3, [r3, #12]
.Ltmp337:
.LBB11_13:                              @   Parent Loop BB11_6 Depth=1
                                        @ =>  This Inner Loop Header: Depth=2
	@DEBUG_VALUE: tcp_bind:cpcb <- [DW_OP_deref] $r1
	@DEBUG_VALUE: tcp_bind:i <- $r0
	@DEBUG_VALUE: tcp_bind:ipaddr <- $r5
	@DEBUG_VALUE: tcp_bind:pcb <- $r7
	@DEBUG_VALUE: tcp_bind:port <- $r2
	@DEBUG_VALUE: tcp_bind:cpcb <- $r3
	.loc	1 490 9 is_stmt 1       @ ../Libraries/lwip-1.4.1/src/core/tcp.c:490:9
	cmp	r3, #0
	bne	.LBB11_7
.Ltmp338:
@ %bb.14:                               @   in Loop: Header=BB11_6 Depth=1
	@DEBUG_VALUE: tcp_bind:cpcb <- [DW_OP_plus_uconst 12, DW_OP_deref, DW_OP_stack_value] $r3
	@DEBUG_VALUE: tcp_bind:i <- $r0
	@DEBUG_VALUE: tcp_bind:ipaddr <- $r5
	@DEBUG_VALUE: tcp_bind:pcb <- $r7
	@DEBUG_VALUE: tcp_bind:port <- $r2
	.loc	1 488 36                @ ../Libraries/lwip-1.4.1/src/core/tcp.c:488:36
	adds	r0, #1
.Ltmp339:
	@DEBUG_VALUE: tcp_bind:i <- $r0
	.loc	1 488 5 is_stmt 0       @ ../Libraries/lwip-1.4.1/src/core/tcp.c:488:5
	cmp	r0, #4
	blo	.LBB11_6
.Ltmp340:
@ %bb.15:
	@DEBUG_VALUE: tcp_bind:cpcb <- [DW_OP_plus_uconst 12, DW_OP_deref, DW_OP_stack_value] $r3
	@DEBUG_VALUE: tcp_bind:i <- $r0
	@DEBUG_VALUE: tcp_bind:ipaddr <- $r5
	@DEBUG_VALUE: tcp_bind:pcb <- $r7
	@DEBUG_VALUE: tcp_bind:port <- $r2
	.loc	1 513 10 is_stmt 1      @ ../Libraries/lwip-1.4.1/src/core/tcp.c:513:10
	cbz	r5, .LBB11_18
.Ltmp341:
@ %bb.16:
	@DEBUG_VALUE: tcp_bind:cpcb <- [DW_OP_plus_uconst 12, DW_OP_deref, DW_OP_stack_value] $r3
	@DEBUG_VALUE: tcp_bind:i <- $r0
	@DEBUG_VALUE: tcp_bind:ipaddr <- $r5
	@DEBUG_VALUE: tcp_bind:pcb <- $r7
	@DEBUG_VALUE: tcp_bind:port <- $r2
	ldr	r0, [r5]
.Ltmp342:
	.loc	1 513 9 is_stmt 0       @ ../Libraries/lwip-1.4.1/src/core/tcp.c:513:9
	cbz	r0, .LBB11_18
.Ltmp343:
@ %bb.17:
	@DEBUG_VALUE: tcp_bind:cpcb <- [DW_OP_plus_uconst 12, DW_OP_deref, DW_OP_stack_value] $r3
	@DEBUG_VALUE: tcp_bind:ipaddr <- $r5
	@DEBUG_VALUE: tcp_bind:pcb <- $r7
	@DEBUG_VALUE: tcp_bind:port <- $r2
	.loc	1 515 25 is_stmt 1      @ ../Libraries/lwip-1.4.1/src/core/tcp.c:515:25
	str	r0, [r7]
.Ltmp344:
.LBB11_18:
	@DEBUG_VALUE: tcp_bind:cpcb <- [DW_OP_plus_uconst 12, DW_OP_deref, DW_OP_stack_value] $r3
	@DEBUG_VALUE: tcp_bind:ipaddr <- $r5
	@DEBUG_VALUE: tcp_bind:pcb <- $r7
	@DEBUG_VALUE: tcp_bind:port <- $r2
	.loc	1 518 5                 @ ../Libraries/lwip-1.4.1/src/core/tcp.c:518:5
	movw	r0, :lower16:tcp_bound_pcbs
.Ltmp345:
	.loc	1 517 21                @ ../Libraries/lwip-1.4.1/src/core/tcp.c:517:21
	strh	r2, [r7, #26]
.Ltmp346:
	.loc	1 518 5                 @ ../Libraries/lwip-1.4.1/src/core/tcp.c:518:5
	movt	r0, :upper16:tcp_bound_pcbs
	ldr	r1, [r0]
	str	r1, [r7, #12]
	str	r7, [r0]
	bl	tcp_timer_needed
.Ltmp347:
	.loc	1 0 5 is_stmt 0         @ ../Libraries/lwip-1.4.1/src/core/tcp.c:0:5
	movs	r1, #0
	b	.LBB11_2
.Ltmp348:
.LBB11_19:
	@DEBUG_VALUE: tcp_bind:ipaddr <- $r5
	@DEBUG_VALUE: tcp_bind:pcb <- $r7
	@DEBUG_VALUE: tcp_bind:port <- $r2
	movs	r1, #254
	b	.LBB11_2
.Lfunc_end11:
	.size	tcp_bind, .Lfunc_end11-tcp_bind
	.cfi_endproc
	.cantunwind
	.fnend
                                        @ -- End function
	.section	.text.tcp_new_port,"ax",%progbits
	.p2align	1               @ -- Begin function tcp_new_port
	.type	tcp_new_port,%function
	.code	16                      @ @tcp_new_port
	.thumb_func
tcp_new_port:
.Lfunc_begin12:
	.loc	1 697 0 is_stmt 1       @ ../Libraries/lwip-1.4.1/src/core/tcp.c:697:0
	.fnstart
	.cfi_startproc
@ %bb.0:
	.save	{r4, r5, r6, r7, lr}
	push	{r4, r5, r6, r7, lr}
	.cfi_def_cfa_offset 20
	.cfi_offset lr, -4
	.cfi_offset r7, -8
	.cfi_offset r6, -12
	.cfi_offset r5, -16
	.cfi_offset r4, -20
.Ltmp349:
	@DEBUG_VALUE: tcp_new_port:n <- 0
	.loc	1 0 0 prologue_end      @ ../Libraries/lwip-1.4.1/src/core/tcp.c:0:0
	movw	r12, :lower16:tcp_port
	movw	r0, :lower16:tcp_pcb_lists
	movs	r2, #0
	movw	r3, #65535
	movw	lr, #16382
	movt	r12, :upper16:tcp_port
	movt	r0, :upper16:tcp_pcb_lists
	ldrh.w	r1, [r12]
	.p2align	2
.LBB12_1:                               @ =>This Loop Header: Depth=1
                                        @     Child Loop BB12_2 Depth 2
                                        @       Child Loop BB12_4 Depth 3
.Ltmp350:
	@DEBUG_LABEL: tcp_new_port:again
	@DEBUG_VALUE: tcp_new_port:n <- $r2
	.loc	1 703 17                @ ../Libraries/lwip-1.4.1/src/core/tcp.c:703:17
	uxth	r4, r1
	adds	r1, #1
.Ltmp351:
	.loc	1 703 9 is_stmt 0       @ ../Libraries/lwip-1.4.1/src/core/tcp.c:703:9
	cmp	r4, r3
	mov.w	r4, #0
.Ltmp352:
	@DEBUG_VALUE: tcp_new_port:i <- 0
	itt	eq
	movweq	r1, #49152
	movteq	r1, #65535
.Ltmp353:
.LBB12_2:                               @   Parent Loop BB12_1 Depth=1
                                        @ =>  This Loop Header: Depth=2
                                        @       Child Loop BB12_4 Depth 3
	@DEBUG_VALUE: tcp_new_port:n <- $r2
	@DEBUG_VALUE: tcp_new_port:i <- $r4
	.loc	1 710 21 is_stmt 1      @ ../Libraries/lwip-1.4.1/src/core/tcp.c:710:21
	ldr.w	r5, [r0, r4, lsl #2]
.Ltmp354:
	@DEBUG_VALUE: tcp_new_port:pcb <- [DW_OP_deref] $r5
	.loc	1 0 0 is_stmt 0         @ ../Libraries/lwip-1.4.1/src/core/tcp.c:0:0
	ldr	r5, [r5]
.Ltmp355:
	b	.LBB12_4
.Ltmp356:
	.p2align	2
.LBB12_3:                               @   in Loop: Header=BB12_4 Depth=3
	@DEBUG_VALUE: tcp_new_port:pcb <- [DW_OP_deref] $r5
	@DEBUG_VALUE: tcp_new_port:i <- $r4
	@DEBUG_VALUE: tcp_new_port:n <- $r2
	@DEBUG_VALUE: tcp_new_port:pcb <- [DW_OP_plus_uconst 12, DW_OP_deref, DW_OP_stack_value] $r5
	ldr	r5, [r5, #12]
.Ltmp357:
.LBB12_4:                               @   Parent Loop BB12_1 Depth=1
                                        @     Parent Loop BB12_2 Depth=2
                                        @ =>    This Inner Loop Header: Depth=3
	@DEBUG_VALUE: tcp_new_port:i <- $r4
	@DEBUG_VALUE: tcp_new_port:n <- $r2
	@DEBUG_VALUE: tcp_new_port:pcb <- $r5
	.loc	1 710 9                 @ ../Libraries/lwip-1.4.1/src/core/tcp.c:710:9
	cbz	r5, .LBB12_6
.Ltmp358:
@ %bb.5:                                @   in Loop: Header=BB12_4 Depth=3
	@DEBUG_VALUE: tcp_new_port:pcb <- [DW_OP_deref] $r5
	@DEBUG_VALUE: tcp_new_port:i <- $r4
	@DEBUG_VALUE: tcp_new_port:n <- $r2
	.loc	1 712 22 is_stmt 1      @ ../Libraries/lwip-1.4.1/src/core/tcp.c:712:22
	ldrh	r6, [r5, #26]
	.loc	1 712 33 is_stmt 0      @ ../Libraries/lwip-1.4.1/src/core/tcp.c:712:33
	uxth	r7, r1
.Ltmp359:
	.loc	1 712 17                @ ../Libraries/lwip-1.4.1/src/core/tcp.c:712:17
	cmp	r6, r7
	bne	.LBB12_3
	b	.LBB12_7
.Ltmp360:
	.p2align	2
.LBB12_6:                               @   in Loop: Header=BB12_2 Depth=2
	@DEBUG_VALUE: tcp_new_port:pcb <- [DW_OP_deref] $r5
	@DEBUG_VALUE: tcp_new_port:i <- $r4
	@DEBUG_VALUE: tcp_new_port:n <- $r2
	.loc	1 708 41 is_stmt 1      @ ../Libraries/lwip-1.4.1/src/core/tcp.c:708:41
	adds	r4, #1
.Ltmp361:
	@DEBUG_VALUE: tcp_new_port:i <- [DW_OP_plus_uconst 1, DW_OP_stack_value] undef
	.loc	1 708 5 is_stmt 0       @ ../Libraries/lwip-1.4.1/src/core/tcp.c:708:5
	cmp	r4, #4
	blo	.LBB12_2
	b	.LBB12_9
.Ltmp362:
	.p2align	2
.LBB12_7:                               @   in Loop: Header=BB12_1 Depth=1
	@DEBUG_VALUE: tcp_new_port:pcb <- [DW_OP_deref] $r5
	@DEBUG_VALUE: tcp_new_port:i <- $r4
	@DEBUG_VALUE: tcp_new_port:n <- $r2
	.loc	1 714 21 is_stmt 1      @ ../Libraries/lwip-1.4.1/src/core/tcp.c:714:21
	adds	r4, r2, #1
.Ltmp363:
	@DEBUG_VALUE: tcp_new_port:n <- $r4
	.loc	1 714 21 is_stmt 0      @ ../Libraries/lwip-1.4.1/src/core/tcp.c:714:21
	cmp	r2, lr
.Ltmp364:
	.loc	1 0 0                   @ ../Libraries/lwip-1.4.1/src/core/tcp.c:0:0
	mov	r2, r4
.Ltmp365:
	@DEBUG_VALUE: tcp_new_port:n <- $r2
	.loc	1 714 21                @ ../Libraries/lwip-1.4.1/src/core/tcp.c:714:21
	bls	.LBB12_1
.Ltmp366:
@ %bb.8:
	@DEBUG_VALUE: tcp_new_port:pcb <- [DW_OP_deref] $r5
	@DEBUG_VALUE: tcp_new_port:n <- $r2
	.loc	1 0 21                  @ ../Libraries/lwip-1.4.1/src/core/tcp.c:0:21
	movs	r0, #0
	b	.LBB12_10
.Ltmp367:
.LBB12_9:
	@DEBUG_VALUE: tcp_new_port:pcb <- [DW_OP_deref] $r5
	@DEBUG_VALUE: tcp_new_port:n <- $r2
	mov	r0, r1
.Ltmp368:
.LBB12_10:
	@DEBUG_VALUE: tcp_new_port:pcb <- [DW_OP_deref] $r5
	@DEBUG_VALUE: tcp_new_port:n <- $r2
	.loc	1 723 1 is_stmt 1       @ ../Libraries/lwip-1.4.1/src/core/tcp.c:723:1
	uxth	r0, r0
	.loc	1 0 0 is_stmt 0         @ ../Libraries/lwip-1.4.1/src/core/tcp.c:0:0
	strh.w	r1, [r12]
	.loc	1 723 1                 @ ../Libraries/lwip-1.4.1/src/core/tcp.c:723:1
	pop	{r4, r5, r6, r7, pc}
.Ltmp369:
.Lfunc_end12:
	.size	tcp_new_port, .Lfunc_end12-tcp_new_port
	.cfi_endproc
	.cantunwind
	.fnend
                                        @ -- End function
	.section	.text.tcp_listen_with_backlog,"ax",%progbits
	.hidden	tcp_listen_with_backlog @ -- Begin function tcp_listen_with_backlog
	.globl	tcp_listen_with_backlog
	.p2align	1
	.type	tcp_listen_with_backlog,%function
	.code	16                      @ @tcp_listen_with_backlog
	.thumb_func
tcp_listen_with_backlog:
.Lfunc_begin13:
	.loc	1 554 0 is_stmt 1       @ ../Libraries/lwip-1.4.1/src/core/tcp.c:554:0
	.fnstart
	.cfi_startproc
@ %bb.0:
	.save	{r4, r5, r7, lr}
	push	{r4, r5, r7, lr}
	.cfi_def_cfa_offset 16
	.cfi_offset lr, -4
	.cfi_offset r7, -8
	.cfi_offset r5, -12
	.cfi_offset r4, -16
	@DEBUG_VALUE: tcp_listen_with_backlog:pcb <- $r0
	@DEBUG_VALUE: tcp_listen_with_backlog:backlog <- $r1
	mov	r5, r0
.Ltmp370:
	@DEBUG_VALUE: tcp_listen_with_backlog:pcb <- $r5
	.loc	1 558 5 prologue_end    @ ../Libraries/lwip-1.4.1/src/core/tcp.c:558:5
	ldrb	r0, [r0, #24]
.Ltmp371:
	.loc	1 558 5 is_stmt 0       @ ../Libraries/lwip-1.4.1/src/core/tcp.c:558:5
	cbz	r0, .LBB13_2
.Ltmp372:
.LBB13_1:
	@DEBUG_VALUE: tcp_listen_with_backlog:pcb <- $r5
	.loc	1 0 5                   @ ../Libraries/lwip-1.4.1/src/core/tcp.c:0:5
	movs	r4, #0
	b	.LBB13_13
.Ltmp373:
.LBB13_2:
	@DEBUG_VALUE: tcp_listen_with_backlog:pcb <- $r5
	@DEBUG_VALUE: tcp_listen_with_backlog:backlog <- $r1
	.loc	1 584 38 is_stmt 1      @ ../Libraries/lwip-1.4.1/src/core/tcp.c:584:38
	movs	r0, #3
	bl	memp_malloc
.Ltmp374:
	.loc	1 585 9                 @ ../Libraries/lwip-1.4.1/src/core/tcp.c:585:9
	cmp	r0, #0
	beq	.LBB13_1
.Ltmp375:
@ %bb.3:
	@DEBUG_VALUE: tcp_listen_with_backlog:pcb <- $r5
	.loc	1 0 0 is_stmt 0         @ ../Libraries/lwip-1.4.1/src/core/tcp.c:0:0
	mov	r4, r0
.Ltmp376:
	@DEBUG_VALUE: tcp_listen_with_backlog:lpcb <- $r4
	.loc	1 589 31 is_stmt 1      @ ../Libraries/lwip-1.4.1/src/core/tcp.c:589:31
	ldr	r0, [r5, #16]
	movs	r1, #1
	.loc	1 589 24 is_stmt 0      @ ../Libraries/lwip-1.4.1/src/core/tcp.c:589:24
	str	r0, [r4, #16]
	.loc	1 590 29 is_stmt 1      @ ../Libraries/lwip-1.4.1/src/core/tcp.c:590:29
	ldrh	r0, [r5, #26]
	.loc	1 591 17                @ ../Libraries/lwip-1.4.1/src/core/tcp.c:591:17
	strb	r1, [r4, #24]
	.loc	1 590 22                @ ../Libraries/lwip-1.4.1/src/core/tcp.c:590:22
	strh	r0, [r4, #26]
	.loc	1 598 9                 @ ../Libraries/lwip-1.4.1/src/core/tcp.c:598:9
	cmp	r0, #0
	.loc	1 592 23                @ ../Libraries/lwip-1.4.1/src/core/tcp.c:592:23
	ldrb	r1, [r5, #25]
	.loc	1 592 16 is_stmt 0      @ ../Libraries/lwip-1.4.1/src/core/tcp.c:592:16
	strb	r1, [r4, #25]
	.loc	1 593 29 is_stmt 1      @ ../Libraries/lwip-1.4.1/src/core/tcp.c:593:29
	ldrb	r1, [r5, #8]
	.loc	1 594 5                 @ ../Libraries/lwip-1.4.1/src/core/tcp.c:594:5
	orr	r1, r1, #2
	strb	r1, [r4, #8]
	.loc	1 595 22                @ ../Libraries/lwip-1.4.1/src/core/tcp.c:595:22
	ldrb	r1, [r5, #10]
	.loc	1 595 15 is_stmt 0      @ ../Libraries/lwip-1.4.1/src/core/tcp.c:595:15
	strb	r1, [r4, #10]
	.loc	1 596 22 is_stmt 1      @ ../Libraries/lwip-1.4.1/src/core/tcp.c:596:22
	ldrb	r1, [r5, #9]
	.loc	1 596 15 is_stmt 0      @ ../Libraries/lwip-1.4.1/src/core/tcp.c:596:15
	strb	r1, [r4, #9]
	.loc	1 597 5 is_stmt 1       @ ../Libraries/lwip-1.4.1/src/core/tcp.c:597:5
	ldr	r1, [r5]
	str	r1, [r4]
	.loc	1 598 9                 @ ../Libraries/lwip-1.4.1/src/core/tcp.c:598:9
	beq	.LBB13_12
.Ltmp377:
@ %bb.4:
	@DEBUG_VALUE: tcp_listen_with_backlog:lpcb <- $r4
	@DEBUG_VALUE: tcp_listen_with_backlog:pcb <- $r5
	.loc	1 600 9                 @ ../Libraries/lwip-1.4.1/src/core/tcp.c:600:9
	movw	r0, :lower16:tcp_bound_pcbs
	movt	r0, :upper16:tcp_bound_pcbs
	ldr	r1, [r0]
.Ltmp378:
	.loc	1 600 9 is_stmt 0       @ ../Libraries/lwip-1.4.1/src/core/tcp.c:600:9
	cmp	r1, r5
	beq	.LBB13_8
.Ltmp379:
	.p2align	2
.LBB13_5:                               @ =>This Inner Loop Header: Depth=1
	@DEBUG_VALUE: tcp_listen_with_backlog:lpcb <- $r4
	@DEBUG_VALUE: tcp_listen_with_backlog:pcb <- $r5
	.loc	1 600 9                 @ ../Libraries/lwip-1.4.1/src/core/tcp.c:600:9
	cbz	r1, .LBB13_9
.Ltmp380:
@ %bb.6:                                @   in Loop: Header=BB13_5 Depth=1
	@DEBUG_VALUE: tcp_listen_with_backlog:lpcb <- $r4
	@DEBUG_VALUE: tcp_listen_with_backlog:pcb <- $r5
	.loc	1 0 0                   @ ../Libraries/lwip-1.4.1/src/core/tcp.c:0:0
	mov	r0, r1
.Ltmp381:
	.loc	1 600 9                 @ ../Libraries/lwip-1.4.1/src/core/tcp.c:600:9
	ldr	r1, [r1, #12]
.Ltmp382:
	.loc	1 600 9                 @ ../Libraries/lwip-1.4.1/src/core/tcp.c:600:9
	cmp	r1, r5
	bne	.LBB13_5
.Ltmp383:
@ %bb.7:
	@DEBUG_VALUE: tcp_listen_with_backlog:lpcb <- $r4
	@DEBUG_VALUE: tcp_listen_with_backlog:pcb <- $r5
	.loc	1 0 0                   @ ../Libraries/lwip-1.4.1/src/core/tcp.c:0:0
	movw	r1, :lower16:tcp_tmp_pcb
	movt	r1, :upper16:tcp_tmp_pcb
	str	r0, [r1]
.Ltmp384:
	.loc	1 600 9                 @ ../Libraries/lwip-1.4.1/src/core/tcp.c:600:9
	ldr	r1, [r5, #12]
	str	r1, [r0, #12]
	b	.LBB13_11
.Ltmp385:
.LBB13_8:
	@DEBUG_VALUE: tcp_listen_with_backlog:lpcb <- $r4
	@DEBUG_VALUE: tcp_listen_with_backlog:pcb <- $r5
	.loc	1 600 9                 @ ../Libraries/lwip-1.4.1/src/core/tcp.c:600:9
	ldr	r1, [r5, #12]
	b	.LBB13_10
.Ltmp386:
.LBB13_9:
	@DEBUG_VALUE: tcp_listen_with_backlog:lpcb <- $r4
	@DEBUG_VALUE: tcp_listen_with_backlog:pcb <- $r5
	.loc	1 0 0                   @ ../Libraries/lwip-1.4.1/src/core/tcp.c:0:0
	movw	r0, :lower16:tcp_tmp_pcb
	movs	r1, #0
	movt	r0, :upper16:tcp_tmp_pcb
.Ltmp387:
.LBB13_10:
	@DEBUG_VALUE: tcp_listen_with_backlog:lpcb <- $r4
	@DEBUG_VALUE: tcp_listen_with_backlog:pcb <- $r5
	str	r1, [r0]
.Ltmp388:
.LBB13_11:
	@DEBUG_VALUE: tcp_listen_with_backlog:lpcb <- $r4
	@DEBUG_VALUE: tcp_listen_with_backlog:pcb <- $r5
	movs	r0, #0
	.loc	1 600 9                 @ ../Libraries/lwip-1.4.1/src/core/tcp.c:600:9
	str	r0, [r5, #12]
.Ltmp389:
.LBB13_12:
	@DEBUG_VALUE: tcp_listen_with_backlog:lpcb <- $r4
	@DEBUG_VALUE: tcp_listen_with_backlog:pcb <- $r5
	.loc	1 602 5 is_stmt 1       @ ../Libraries/lwip-1.4.1/src/core/tcp.c:602:5
	movs	r0, #2
	mov	r1, r5
	bl	memp_free
	.loc	1 604 18                @ ../Libraries/lwip-1.4.1/src/core/tcp.c:604:18
	movw	r0, :lower16:tcp_accept_null
	movt	r0, :upper16:tcp_accept_null
	str	r0, [r4, #20]
.Ltmp390:
	.loc	1 610 5                 @ ../Libraries/lwip-1.4.1/src/core/tcp.c:610:5
	movw	r0, :lower16:tcp_listen_pcbs
	movt	r0, :upper16:tcp_listen_pcbs
	ldr	r1, [r0]
	str	r1, [r4, #12]
	str	r4, [r0]
	bl	tcp_timer_needed
.Ltmp391:
.LBB13_13:
	@DEBUG_VALUE: tcp_listen_with_backlog:pcb <- $r5
	.loc	1 612 1                 @ ../Libraries/lwip-1.4.1/src/core/tcp.c:612:1
	mov	r0, r4
	pop	{r4, r5, r7, pc}
.Ltmp392:
.Lfunc_end13:
	.size	tcp_listen_with_backlog, .Lfunc_end13-tcp_listen_with_backlog
	.cfi_endproc
	.cantunwind
	.fnend
                                        @ -- End function
	.section	.text.tcp_accept_null,"ax",%progbits
	.p2align	1               @ -- Begin function tcp_accept_null
	.type	tcp_accept_null,%function
	.code	16                      @ @tcp_accept_null
	.thumb_func
tcp_accept_null:
.Lfunc_begin14:
	.loc	1 529 0                 @ ../Libraries/lwip-1.4.1/src/core/tcp.c:529:0
	.fnstart
	.cfi_startproc
@ %bb.0:
	@DEBUG_VALUE: tcp_accept_null:arg <- $r0
	@DEBUG_VALUE: tcp_accept_null:pcb <- $r1
	@DEBUG_VALUE: tcp_accept_null:err <- $r2
	.loc	1 534 5 prologue_end    @ ../Libraries/lwip-1.4.1/src/core/tcp.c:534:5
	mvn	r0, #9
	bx	lr
.Ltmp393:
.Lfunc_end14:
	.size	tcp_accept_null, .Lfunc_end14-tcp_accept_null
	.cfi_endproc
	.cantunwind
	.fnend
                                        @ -- End function
	.section	.text.tcp_update_rcv_ann_wnd,"ax",%progbits
	.hidden	tcp_update_rcv_ann_wnd  @ -- Begin function tcp_update_rcv_ann_wnd
	.globl	tcp_update_rcv_ann_wnd
	.p2align	1
	.type	tcp_update_rcv_ann_wnd,%function
	.code	16                      @ @tcp_update_rcv_ann_wnd
	.thumb_func
tcp_update_rcv_ann_wnd:
.Lfunc_begin15:
	.loc	1 621 0                 @ ../Libraries/lwip-1.4.1/src/core/tcp.c:621:0
	.fnstart
	.cfi_startproc
@ %bb.0:
	.save	{r7, lr}
	push	{r7, lr}
	.cfi_def_cfa_offset 8
	.cfi_offset lr, -4
	.cfi_offset r7, -8
	@DEBUG_VALUE: tcp_update_rcv_ann_wnd:pcb <- $r0
	@DEBUG_VALUE: tcp_update_rcv_ann_wnd:pcb <- $r0
.Ltmp394:
	.loc	1 624 9 prologue_end    @ ../Libraries/lwip-1.4.1/src/core/tcp.c:624:9
	ldrh	r1, [r0, #54]
	movw	r3, #2920
	cmp	r1, r3
	it	lo
	movlo	r3, r1
.Ltmp395:
	.loc	1 622 48                @ ../Libraries/lwip-1.4.1/src/core/tcp.c:622:48
	ldrh.w	r12, [r0, #44]
	.loc	1 622 33 is_stmt 0      @ ../Libraries/lwip-1.4.1/src/core/tcp.c:622:33
	ldr.w	lr, [r0, #40]
.Ltmp396:
	.loc	1 624 9 is_stmt 1       @ ../Libraries/lwip-1.4.1/src/core/tcp.c:624:9
	ldr	r2, [r0, #48]
.Ltmp397:
	.loc	1 622 41                @ ../Libraries/lwip-1.4.1/src/core/tcp.c:622:41
	add.w	r1, lr, r12
.Ltmp398:
	@DEBUG_VALUE: tcp_update_rcv_ann_wnd:new_right_edge <- $r1
	.loc	1 624 9                 @ ../Libraries/lwip-1.4.1/src/core/tcp.c:624:9
	subs	r1, r1, r2
.Ltmp399:
	subs	r3, r1, r3
.Ltmp400:
	.loc	1 624 9 is_stmt 0       @ ../Libraries/lwip-1.4.1/src/core/tcp.c:624:9
	cmp.w	r3, #-1
	bgt	.LBB15_2
@ %bb.1:
	@DEBUG_VALUE: tcp_update_rcv_ann_wnd:pcb <- $r0
.Ltmp401:
	.loc	1 632 13 is_stmt 1      @ ../Libraries/lwip-1.4.1/src/core/tcp.c:632:13
	sub.w	r1, lr, r2
.Ltmp402:
	.loc	1 632 13 is_stmt 0      @ ../Libraries/lwip-1.4.1/src/core/tcp.c:632:13
	cmp	r1, #0
	mov.w	r1, #0
.Ltmp403:
	.loc	1 641 61 is_stmt 1      @ ../Libraries/lwip-1.4.1/src/core/tcp.c:641:61
	ite	le
	suble.w	r12, r2, lr
	movgt.w	r12, #0
.Ltmp404:
	@DEBUG_VALUE: new_rcv_ann_wnd <- $r12
.LBB15_2:
	@DEBUG_VALUE: tcp_update_rcv_ann_wnd:pcb <- $r0
	.loc	1 0 0 is_stmt 0         @ ../Libraries/lwip-1.4.1/src/core/tcp.c:0:0
	strh.w	r12, [r0, #46]
.Ltmp405:
	.loc	1 647 1 is_stmt 1       @ ../Libraries/lwip-1.4.1/src/core/tcp.c:647:1
	mov	r0, r1
	pop	{r7, pc}
.Ltmp406:
.Lfunc_end15:
	.size	tcp_update_rcv_ann_wnd, .Lfunc_end15-tcp_update_rcv_ann_wnd
	.cfi_endproc
	.cantunwind
	.fnend
                                        @ -- End function
	.section	.text.tcp_recved,"ax",%progbits
	.hidden	tcp_recved              @ -- Begin function tcp_recved
	.globl	tcp_recved
	.p2align	1
	.type	tcp_recved,%function
	.code	16                      @ @tcp_recved
	.thumb_func
tcp_recved:
.Lfunc_begin16:
	.loc	1 659 0                 @ ../Libraries/lwip-1.4.1/src/core/tcp.c:659:0
	.fnstart
	.cfi_startproc
@ %bb.0:
	.save	{r4, lr}
	push	{r4, lr}
	.cfi_def_cfa_offset 8
	.cfi_offset lr, -4
	.cfi_offset r4, -8
	@DEBUG_VALUE: tcp_recved:pcb <- $r0
	@DEBUG_VALUE: tcp_recved:len <- $r1
	mov	r4, r0
	@DEBUG_VALUE: tcp_recved:len <- $r1
.Ltmp407:
	@DEBUG_VALUE: tcp_recved:pcb <- $r4
	.loc	1 665 5 prologue_end    @ ../Libraries/lwip-1.4.1/src/core/tcp.c:665:5
	ldrh	r0, [r0, #44]
	movw	r2, #5840
.Ltmp408:
	.loc	1 668 18                @ ../Libraries/lwip-1.4.1/src/core/tcp.c:668:18
	add	r0, r1
	uxth	r1, r0
.Ltmp409:
	.loc	1 669 9                 @ ../Libraries/lwip-1.4.1/src/core/tcp.c:669:9
	cmp	r1, r2
	it	lo
	movlo	r2, r0
	.loc	1 674 21                @ ../Libraries/lwip-1.4.1/src/core/tcp.c:674:21
	mov	r0, r4
	.loc	1 0 0 is_stmt 0         @ ../Libraries/lwip-1.4.1/src/core/tcp.c:0:0
	strh	r2, [r4, #44]
	.loc	1 674 21                @ ../Libraries/lwip-1.4.1/src/core/tcp.c:674:21
	bl	tcp_update_rcv_ann_wnd
.Ltmp410:
	@DEBUG_VALUE: tcp_recved:wnd_inflation <- $r0
	.loc	1 0 21                  @ ../Libraries/lwip-1.4.1/src/core/tcp.c:0:21
	movw	r1, #1460
	.loc	1 680 9 is_stmt 1       @ ../Libraries/lwip-1.4.1/src/core/tcp.c:680:9
	cmp	r0, r1
	.loc	1 688 1                 @ ../Libraries/lwip-1.4.1/src/core/tcp.c:688:1
	it	lt
	poplt	{r4, pc}
.Ltmp411:
	.loc	1 682 9                 @ ../Libraries/lwip-1.4.1/src/core/tcp.c:682:9
	ldrb	r0, [r4, #30]
.Ltmp412:
	orr	r0, r0, #2
	strb	r0, [r4, #30]
.Ltmp413:
	.loc	1 683 9                 @ ../Libraries/lwip-1.4.1/src/core/tcp.c:683:9
	mov	r0, r4
	pop.w	{r4, lr}
	b	tcp_output
.Ltmp414:
.Lfunc_end16:
	.size	tcp_recved, .Lfunc_end16-tcp_recved
	.cfi_endproc
	.cantunwind
	.fnend
                                        @ -- End function
	.section	.text.tcp_connect,"ax",%progbits
	.hidden	tcp_connect             @ -- Begin function tcp_connect
	.globl	tcp_connect
	.p2align	1
	.type	tcp_connect,%function
	.code	16                      @ @tcp_connect
	.thumb_func
tcp_connect:
.Lfunc_begin17:
	.loc	1 740 0                 @ ../Libraries/lwip-1.4.1/src/core/tcp.c:740:0
	.fnstart
	.cfi_startproc
@ %bb.0:
	.save	{r4, r5, r6, r7, r8, lr}
	push.w	{r4, r5, r6, r7, r8, lr}
	.cfi_def_cfa_offset 24
	.cfi_offset lr, -4
	.cfi_offset r8, -8
	.cfi_offset r7, -12
	.cfi_offset r6, -16
	.cfi_offset r5, -20
	.cfi_offset r4, -24
	@DEBUG_VALUE: tcp_connect:pcb <- $r0
	@DEBUG_VALUE: tcp_connect:ipaddr <- $r1
	@DEBUG_VALUE: tcp_connect:port <- $r2
	@DEBUG_VALUE: tcp_connect:connected <- $r3
.Ltmp415:
	@DEBUG_VALUE: tcp_eff_send_mss:addr <- $r1
	mov	r4, r0
	@DEBUG_VALUE: tcp_connect:port <- $r2
.Ltmp416:
	@DEBUG_VALUE: tcp_connect:pcb <- $r4
	.loc	1 745 5 prologue_end    @ ../Libraries/lwip-1.4.1/src/core/tcp.c:745:5
	ldrb	r0, [r0, #24]
.Ltmp417:
	.loc	1 745 5 is_stmt 0       @ ../Libraries/lwip-1.4.1/src/core/tcp.c:745:5
	cbz	r0, .LBB17_3
.Ltmp418:
@ %bb.1:
	@DEBUG_VALUE: tcp_connect:pcb <- $r4
	@DEBUG_VALUE: tcp_eff_send_mss:addr <- $r1
	@DEBUG_VALUE: tcp_connect:connected <- $r3
	@DEBUG_VALUE: tcp_connect:port <- $r2
	@DEBUG_VALUE: tcp_connect:ipaddr <- $r1
	.loc	1 0 5                   @ ../Libraries/lwip-1.4.1/src/core/tcp.c:0:5
	movs	r0, #247
.Ltmp419:
.LBB17_2:
	@DEBUG_VALUE: tcp_connect:pcb <- $r4
	.loc	1 845 1 is_stmt 1       @ ../Libraries/lwip-1.4.1/src/core/tcp.c:845:1
	sxtb	r0, r0
	pop.w	{r4, r5, r6, r7, r8, pc}
.Ltmp420:
.LBB17_3:
	@DEBUG_VALUE: tcp_connect:pcb <- $r4
	@DEBUG_VALUE: tcp_eff_send_mss:addr <- $r1
	@DEBUG_VALUE: tcp_connect:connected <- $r3
	@DEBUG_VALUE: tcp_connect:port <- $r2
	@DEBUG_VALUE: tcp_connect:ipaddr <- $r1
	.loc	1 0 1 is_stmt 0         @ ../Libraries/lwip-1.4.1/src/core/tcp.c:0:1
	mov	r6, r1
.Ltmp421:
	@DEBUG_VALUE: tcp_connect:ipaddr <- $r6
	@DEBUG_VALUE: tcp_eff_send_mss:addr <- $r6
	.loc	1 748 9 is_stmt 1       @ ../Libraries/lwip-1.4.1/src/core/tcp.c:748:9
	cmp	r1, #0
	beq	.LBB17_18
.Ltmp422:
@ %bb.4:
	@DEBUG_VALUE: tcp_connect:ipaddr <- $r6
	@DEBUG_VALUE: tcp_connect:pcb <- $r4
	@DEBUG_VALUE: tcp_connect:connected <- $r3
	@DEBUG_VALUE: tcp_connect:port <- $r2
	.loc	1 750 26                @ ../Libraries/lwip-1.4.1/src/core/tcp.c:750:26
	ldr	r1, [r6]
	mov	r0, r4
.Ltmp423:
	.loc	1 756 22                @ ../Libraries/lwip-1.4.1/src/core/tcp.c:756:22
	strh	r2, [r4, #28]
	mov	r5, r3
.Ltmp424:
	@DEBUG_VALUE: tcp_connect:connected <- $r5
	@DEBUG_VALUE: tcp_connect:connected <- $r5
	@DEBUG_VALUE: tcp_connect:port <- $r2
	.loc	1 750 26                @ ../Libraries/lwip-1.4.1/src/core/tcp.c:750:26
	str	r1, [r0, #4]!
.Ltmp425:
	.loc	1 759 9                 @ ../Libraries/lwip-1.4.1/src/core/tcp.c:759:9
	ldr	r1, [r4]
.Ltmp426:
	.loc	1 759 9 is_stmt 0       @ ../Libraries/lwip-1.4.1/src/core/tcp.c:759:9
	cbnz	r1, .LBB17_7
.Ltmp427:
@ %bb.5:
	@DEBUG_VALUE: tcp_connect:connected <- $r5
	@DEBUG_VALUE: tcp_connect:ipaddr <- $r6
	@DEBUG_VALUE: tcp_connect:pcb <- $r4
	@DEBUG_VALUE: tcp_connect:port <- $r2
	.loc	1 762 31 is_stmt 1      @ ../Libraries/lwip-1.4.1/src/core/tcp.c:762:31
	bl	ip_route
.Ltmp428:
	@DEBUG_VALUE: netif <- $r0
	.loc	1 763 13                @ ../Libraries/lwip-1.4.1/src/core/tcp.c:763:13
	cmp	r0, #0
	beq	.LBB17_19
.Ltmp429:
@ %bb.6:
	@DEBUG_VALUE: netif <- $r0
	@DEBUG_VALUE: tcp_connect:connected <- $r5
	@DEBUG_VALUE: tcp_connect:ipaddr <- $r6
	@DEBUG_VALUE: tcp_connect:pcb <- $r4
	.loc	1 770 9                 @ ../Libraries/lwip-1.4.1/src/core/tcp.c:770:9
	ldr	r0, [r0, #4]
.Ltmp430:
	str	r0, [r4]
.Ltmp431:
.LBB17_7:
	@DEBUG_VALUE: tcp_connect:connected <- $r5
	@DEBUG_VALUE: tcp_connect:ipaddr <- $r6
	@DEBUG_VALUE: tcp_connect:pcb <- $r4
	.loc	1 773 27                @ ../Libraries/lwip-1.4.1/src/core/tcp.c:773:27
	ldrh.w	r8, [r4, #26]
.Ltmp432:
	@DEBUG_VALUE: tcp_connect:old_local_port <- undef
	.loc	1 774 9                 @ ../Libraries/lwip-1.4.1/src/core/tcp.c:774:9
	cmp.w	r8, #0
	bne	.LBB17_9
.Ltmp433:
@ %bb.8:
	@DEBUG_VALUE: tcp_connect:connected <- $r5
	@DEBUG_VALUE: tcp_connect:ipaddr <- $r6
	@DEBUG_VALUE: tcp_connect:pcb <- $r4
	.loc	1 776 27                @ ../Libraries/lwip-1.4.1/src/core/tcp.c:776:27
	bl	tcp_new_port
	.loc	1 777 13                @ ../Libraries/lwip-1.4.1/src/core/tcp.c:777:13
	cmp	r0, #0
	.loc	1 776 25                @ ../Libraries/lwip-1.4.1/src/core/tcp.c:776:25
	strh	r0, [r4, #26]
	.loc	1 777 13                @ ../Libraries/lwip-1.4.1/src/core/tcp.c:777:13
	beq	.LBB17_20
.Ltmp434:
.LBB17_9:
	@DEBUG_VALUE: tcp_connect:connected <- $r5
	@DEBUG_VALUE: tcp_connect:ipaddr <- $r6
	@DEBUG_VALUE: tcp_connect:pcb <- $r4
	.loc	1 1728 12               @ ../Libraries/lwip-1.4.1/src/core/tcp.c:1728:12
	movw	r0, :lower16:tcp_ticks
	.loc	1 1728 9 is_stmt 0      @ ../Libraries/lwip-1.4.1/src/core/tcp.c:1728:9
	movw	r1, :lower16:tcp_next_iss.iss
	mov.w	r7, #536
	.loc	1 1728 12               @ ../Libraries/lwip-1.4.1/src/core/tcp.c:1728:12
	movt	r0, :upper16:tcp_ticks
	.loc	1 1728 9                @ ../Libraries/lwip-1.4.1/src/core/tcp.c:1728:9
	movt	r1, :upper16:tcp_next_iss.iss
	.loc	1 1728 12               @ ../Libraries/lwip-1.4.1/src/core/tcp.c:1728:12
	ldr	r0, [r0]
	.loc	1 1728 9                @ ../Libraries/lwip-1.4.1/src/core/tcp.c:1728:9
	ldr	r2, [r1]
	add	r0, r2
.Ltmp435:
	@DEBUG_VALUE: tcp_connect:iss <- $r0
	str	r0, [r1]
.Ltmp436:
	.loc	1 808 18 is_stmt 1      @ ../Libraries/lwip-1.4.1/src/core/tcp.c:808:18
	str	r0, [r4, #80]
	.loc	1 809 24                @ ../Libraries/lwip-1.4.1/src/core/tcp.c:809:24
	subs	r0, #1
.Ltmp437:
	.loc	1 0 24 is_stmt 0        @ ../Libraries/lwip-1.4.1/src/core/tcp.c:0:24
	movs	r1, #0
	.loc	1 810 18 is_stmt 1      @ ../Libraries/lwip-1.4.1/src/core/tcp.c:810:18
	str	r0, [r4, #92]
	.loc	1 809 18                @ ../Libraries/lwip-1.4.1/src/core/tcp.c:809:18
	str	r0, [r4, #72]
	movw	r0, #5840
	.loc	1 814 18                @ ../Libraries/lwip-1.4.1/src/core/tcp.c:814:18
	strh.w	r0, [r4, #96]
	movw	r0, #5840
	movt	r0, #5840
	.loc	1 807 18                @ ../Libraries/lwip-1.4.1/src/core/tcp.c:807:18
	strd	r1, r0, [r4, #40]
.Ltmp438:
	.loc	1 1745 13               @ ../Libraries/lwip-1.4.1/src/core/tcp.c:1745:13
	mov	r0, r6
.Ltmp439:
	.loc	1 813 29                @ ../Libraries/lwip-1.4.1/src/core/tcp.c:813:29
	str	r1, [r4, #48]
	.loc	1 817 14                @ ../Libraries/lwip-1.4.1/src/core/tcp.c:817:14
	strh	r7, [r4, #54]
.Ltmp440:
	@DEBUG_VALUE: tcp_eff_send_mss:sendmss <- 536
	.loc	1 1745 13               @ ../Libraries/lwip-1.4.1/src/core/tcp.c:1745:13
	bl	ip_route
.Ltmp441:
	@DEBUG_VALUE: tcp_eff_send_mss:outif <- $r0
	.loc	1 1746 25               @ ../Libraries/lwip-1.4.1/src/core/tcp.c:1746:25
	cbz	r0, .LBB17_12
.Ltmp442:
@ %bb.10:
	@DEBUG_VALUE: tcp_eff_send_mss:outif <- $r0
	@DEBUG_VALUE: tcp_connect:connected <- $r5
	@DEBUG_VALUE: tcp_connect:ipaddr <- $r6
	@DEBUG_VALUE: tcp_connect:pcb <- $r4
	.loc	1 1746 36 is_stmt 0     @ ../Libraries/lwip-1.4.1/src/core/tcp.c:1746:36
	ldrh	r0, [r0, #36]
.Ltmp443:
	.loc	1 0 36                  @ ../Libraries/lwip-1.4.1/src/core/tcp.c:0:36
	mov.w	r7, #536
.Ltmp444:
	.loc	1 1746 9                @ ../Libraries/lwip-1.4.1/src/core/tcp.c:1746:9
	cbz	r0, .LBB17_12
.Ltmp445:
@ %bb.11:
	@DEBUG_VALUE: tcp_connect:connected <- $r5
	@DEBUG_VALUE: tcp_connect:ipaddr <- $r6
	@DEBUG_VALUE: tcp_connect:pcb <- $r4
	.loc	1 1748 38 is_stmt 1     @ ../Libraries/lwip-1.4.1/src/core/tcp.c:1748:38
	subs	r0, #40
.Ltmp446:
	@DEBUG_VALUE: tcp_eff_send_mss:mss_s <- $r0
	uxth	r1, r0
	.loc	1 1753 19               @ ../Libraries/lwip-1.4.1/src/core/tcp.c:1753:19
	cmp.w	r1, #536
	it	lo
	movlo	r7, r0
.Ltmp447:
	@DEBUG_VALUE: tcp_eff_send_mss:mss_s <- $r7
	@DEBUG_VALUE: tcp_eff_send_mss:sendmss <- $r7
.LBB17_12:
	@DEBUG_VALUE: tcp_connect:connected <- $r5
	@DEBUG_VALUE: tcp_connect:ipaddr <- $r6
	@DEBUG_VALUE: tcp_connect:pcb <- $r4
	.loc	1 0 19 is_stmt 0        @ ../Libraries/lwip-1.4.1/src/core/tcp.c:0:19
	movs	r0, #1
	.loc	1 824 20 is_stmt 1      @ ../Libraries/lwip-1.4.1/src/core/tcp.c:824:20
	str.w	r5, [r4, #132]
	.loc	1 830 11                @ ../Libraries/lwip-1.4.1/src/core/tcp.c:830:11
	movs	r1, #2
	movs	r5, #2
.Ltmp448:
	.loc	1 821 15                @ ../Libraries/lwip-1.4.1/src/core/tcp.c:821:15
	strh.w	r0, [r4, #76]
	.loc	1 822 30                @ ../Libraries/lwip-1.4.1/src/core/tcp.c:822:30
	add.w	r0, r7, r7, lsl #2
	.loc	1 819 14                @ ../Libraries/lwip-1.4.1/src/core/tcp.c:819:14
	strh	r7, [r4, #54]
	.loc	1 822 30                @ ../Libraries/lwip-1.4.1/src/core/tcp.c:822:30
	lsls	r0, r0, #1
	.loc	1 822 19 is_stmt 0      @ ../Libraries/lwip-1.4.1/src/core/tcp.c:822:19
	strh.w	r0, [r4, #78]
	.loc	1 830 11 is_stmt 1      @ ../Libraries/lwip-1.4.1/src/core/tcp.c:830:11
	mov	r0, r4
	bl	tcp_enqueue_flags
.Ltmp449:
	@DEBUG_VALUE: tcp_connect:ret <- $r0
	.loc	1 831 9                 @ ../Libraries/lwip-1.4.1/src/core/tcp.c:831:9
	cmp	r0, #0
	bne	.LBB17_2
.Ltmp450:
@ %bb.13:
	@DEBUG_VALUE: tcp_connect:ret <- $r0
	@DEBUG_VALUE: tcp_connect:ipaddr <- $r6
	@DEBUG_VALUE: tcp_connect:pcb <- $r4
	.loc	1 835 13                @ ../Libraries/lwip-1.4.1/src/core/tcp.c:835:13
	cmp.w	r8, #0
	.loc	1 834 20                @ ../Libraries/lwip-1.4.1/src/core/tcp.c:834:20
	strb	r5, [r4, #24]
	.loc	1 835 13                @ ../Libraries/lwip-1.4.1/src/core/tcp.c:835:13
	beq	.LBB17_25
.Ltmp451:
@ %bb.14:
	@DEBUG_VALUE: tcp_connect:ret <- $r0
	@DEBUG_VALUE: tcp_connect:ipaddr <- $r6
	@DEBUG_VALUE: tcp_connect:pcb <- $r4
	.loc	1 837 13                @ ../Libraries/lwip-1.4.1/src/core/tcp.c:837:13
	movw	r0, :lower16:tcp_bound_pcbs
.Ltmp452:
	movt	r0, :upper16:tcp_bound_pcbs
	ldr	r1, [r0]
.Ltmp453:
	.loc	1 837 13 is_stmt 0      @ ../Libraries/lwip-1.4.1/src/core/tcp.c:837:13
	cmp	r1, r4
	beq	.LBB17_21
.Ltmp454:
	.p2align	2
.LBB17_15:                              @ =>This Inner Loop Header: Depth=1
	@DEBUG_VALUE: tcp_connect:ipaddr <- $r6
	@DEBUG_VALUE: tcp_connect:pcb <- $r4
	.loc	1 837 13                @ ../Libraries/lwip-1.4.1/src/core/tcp.c:837:13
	cbz	r1, .LBB17_22
.Ltmp455:
@ %bb.16:                               @   in Loop: Header=BB17_15 Depth=1
	@DEBUG_VALUE: tcp_connect:ipaddr <- $r6
	@DEBUG_VALUE: tcp_connect:pcb <- $r4
	.loc	1 0 0                   @ ../Libraries/lwip-1.4.1/src/core/tcp.c:0:0
	mov	r0, r1
.Ltmp456:
	.loc	1 837 13                @ ../Libraries/lwip-1.4.1/src/core/tcp.c:837:13
	ldr	r1, [r1, #12]
.Ltmp457:
	.loc	1 837 13                @ ../Libraries/lwip-1.4.1/src/core/tcp.c:837:13
	cmp	r1, r4
	bne	.LBB17_15
.Ltmp458:
@ %bb.17:
	@DEBUG_VALUE: tcp_connect:ipaddr <- $r6
	@DEBUG_VALUE: tcp_connect:pcb <- $r4
	.loc	1 0 0                   @ ../Libraries/lwip-1.4.1/src/core/tcp.c:0:0
	movw	r1, :lower16:tcp_tmp_pcb
	movt	r1, :upper16:tcp_tmp_pcb
	str	r0, [r1]
.Ltmp459:
	.loc	1 837 13                @ ../Libraries/lwip-1.4.1/src/core/tcp.c:837:13
	ldr	r1, [r4, #12]
	str	r1, [r0, #12]
	b	.LBB17_24
.Ltmp460:
.LBB17_18:
	@DEBUG_VALUE: tcp_eff_send_mss:addr <- $r6
	@DEBUG_VALUE: tcp_connect:ipaddr <- $r6
	@DEBUG_VALUE: tcp_connect:pcb <- $r4
	@DEBUG_VALUE: tcp_connect:connected <- $r3
	@DEBUG_VALUE: tcp_connect:port <- $r2
	.loc	1 0 13                  @ ../Libraries/lwip-1.4.1/src/core/tcp.c:0:13
	movs	r0, #250
	b	.LBB17_2
.Ltmp461:
.LBB17_19:
	@DEBUG_VALUE: netif <- $r0
	@DEBUG_VALUE: tcp_connect:connected <- $r5
	@DEBUG_VALUE: tcp_connect:ipaddr <- $r6
	@DEBUG_VALUE: tcp_connect:pcb <- $r4
	movs	r0, #252
.Ltmp462:
	b	.LBB17_2
.Ltmp463:
.LBB17_20:
	@DEBUG_VALUE: tcp_connect:connected <- $r5
	@DEBUG_VALUE: tcp_connect:ipaddr <- $r6
	@DEBUG_VALUE: tcp_connect:pcb <- $r4
	movs	r0, #254
	b	.LBB17_2
.Ltmp464:
.LBB17_21:
	@DEBUG_VALUE: tcp_connect:ipaddr <- $r6
	@DEBUG_VALUE: tcp_connect:pcb <- $r4
	.loc	1 837 13                @ ../Libraries/lwip-1.4.1/src/core/tcp.c:837:13
	ldr	r1, [r4, #12]
	b	.LBB17_23
.Ltmp465:
.LBB17_22:
	@DEBUG_VALUE: tcp_connect:ipaddr <- $r6
	@DEBUG_VALUE: tcp_connect:pcb <- $r4
	.loc	1 0 0                   @ ../Libraries/lwip-1.4.1/src/core/tcp.c:0:0
	movw	r0, :lower16:tcp_tmp_pcb
	movs	r1, #0
	movt	r0, :upper16:tcp_tmp_pcb
.Ltmp466:
.LBB17_23:
	@DEBUG_VALUE: tcp_connect:ipaddr <- $r6
	@DEBUG_VALUE: tcp_connect:pcb <- $r4
	str	r1, [r0]
.Ltmp467:
.LBB17_24:
	@DEBUG_VALUE: tcp_connect:ipaddr <- $r6
	@DEBUG_VALUE: tcp_connect:pcb <- $r4
	movs	r0, #0
	.loc	1 837 13                @ ../Libraries/lwip-1.4.1/src/core/tcp.c:837:13
	str	r0, [r4, #12]
.Ltmp468:
.LBB17_25:
	@DEBUG_VALUE: tcp_connect:ipaddr <- $r6
	@DEBUG_VALUE: tcp_connect:pcb <- $r4
	.loc	1 839 9 is_stmt 1       @ ../Libraries/lwip-1.4.1/src/core/tcp.c:839:9
	movw	r0, :lower16:tcp_active_pcbs
	movt	r0, :upper16:tcp_active_pcbs
	ldr	r1, [r0]
	str	r1, [r4, #12]
	str	r4, [r0]
	bl	tcp_timer_needed
.Ltmp469:
	.loc	1 839 9 is_stmt 0       @ ../Libraries/lwip-1.4.1/src/core/tcp.c:839:9
	movw	r0, :lower16:tcp_active_pcbs_changed
	movs	r1, #1
	movt	r0, :upper16:tcp_active_pcbs_changed
	strb	r1, [r0]
.Ltmp470:
	.loc	1 842 9 is_stmt 1       @ ../Libraries/lwip-1.4.1/src/core/tcp.c:842:9
	mov	r0, r4
	bl	tcp_output
	movs	r0, #0
	b	.LBB17_2
.Ltmp471:
.Lfunc_end17:
	.size	tcp_connect, .Lfunc_end17-tcp_connect
	.cfi_endproc
	.file	9 "F:\\SkyDrive\\OtvoreniProjekti\\HotelSaplast\\fw\\KontrolerHotela\\HC070318\\Project" "../Libraries/lwip-1.4.1/src/include\\lwip/netif.h"
	.cantunwind
	.fnend
                                        @ -- End function
	.section	.text.tcp_next_iss,"ax",%progbits
	.hidden	tcp_next_iss            @ -- Begin function tcp_next_iss
	.globl	tcp_next_iss
	.p2align	1
	.type	tcp_next_iss,%function
	.code	16                      @ @tcp_next_iss
	.thumb_func
tcp_next_iss:
.Lfunc_begin18:
	.loc	1 1725 0                @ ../Libraries/lwip-1.4.1/src/core/tcp.c:1725:0
	.fnstart
	.cfi_startproc
@ %bb.0:
	.loc	1 1728 12 prologue_end  @ ../Libraries/lwip-1.4.1/src/core/tcp.c:1728:12
	movw	r0, :lower16:tcp_ticks
	.loc	1 1728 9 is_stmt 0      @ ../Libraries/lwip-1.4.1/src/core/tcp.c:1728:9
	movw	r1, :lower16:tcp_next_iss.iss
	.loc	1 1728 12               @ ../Libraries/lwip-1.4.1/src/core/tcp.c:1728:12
	movt	r0, :upper16:tcp_ticks
	.loc	1 1728 9                @ ../Libraries/lwip-1.4.1/src/core/tcp.c:1728:9
	movt	r1, :upper16:tcp_next_iss.iss
	.loc	1 1728 12               @ ../Libraries/lwip-1.4.1/src/core/tcp.c:1728:12
	ldr	r0, [r0]
	.loc	1 1728 9                @ ../Libraries/lwip-1.4.1/src/core/tcp.c:1728:9
	ldr	r2, [r1]
	add	r0, r2
	str	r0, [r1]
	.loc	1 1729 5 is_stmt 1      @ ../Libraries/lwip-1.4.1/src/core/tcp.c:1729:5
	bx	lr
.Ltmp472:
.Lfunc_end18:
	.size	tcp_next_iss, .Lfunc_end18-tcp_next_iss
	.cfi_endproc
	.cantunwind
	.fnend
                                        @ -- End function
	.section	.text.tcp_eff_send_mss,"ax",%progbits
	.hidden	tcp_eff_send_mss        @ -- Begin function tcp_eff_send_mss
	.globl	tcp_eff_send_mss
	.p2align	1
	.type	tcp_eff_send_mss,%function
	.code	16                      @ @tcp_eff_send_mss
	.thumb_func
tcp_eff_send_mss:
.Lfunc_begin19:
	.loc	1 1741 0                @ ../Libraries/lwip-1.4.1/src/core/tcp.c:1741:0
	.fnstart
	.cfi_startproc
@ %bb.0:
	.save	{r4, lr}
	push	{r4, lr}
	.cfi_def_cfa_offset 8
	.cfi_offset lr, -4
	.cfi_offset r4, -8
	@DEBUG_VALUE: tcp_eff_send_mss:sendmss <- $r0
	@DEBUG_VALUE: tcp_eff_send_mss:addr <- $r1
	mov	r4, r0
	@DEBUG_VALUE: tcp_eff_send_mss:addr <- $r1
.Ltmp473:
	@DEBUG_VALUE: tcp_eff_send_mss:sendmss <- $r4
	.loc	1 1745 13 prologue_end  @ ../Libraries/lwip-1.4.1/src/core/tcp.c:1745:13
	mov	r0, r1
.Ltmp474:
	@DEBUG_VALUE: tcp_eff_send_mss:addr <- $r0
	bl	ip_route
.Ltmp475:
	@DEBUG_VALUE: tcp_eff_send_mss:outif <- $r0
	.loc	1 1746 25               @ ../Libraries/lwip-1.4.1/src/core/tcp.c:1746:25
	cbz	r0, .LBB19_3
.Ltmp476:
@ %bb.1:
	@DEBUG_VALUE: tcp_eff_send_mss:outif <- $r0
	@DEBUG_VALUE: tcp_eff_send_mss:sendmss <- $r4
	.loc	1 1746 36 is_stmt 0     @ ../Libraries/lwip-1.4.1/src/core/tcp.c:1746:36
	ldrh	r0, [r0, #36]
.Ltmp477:
	.loc	1 1746 9                @ ../Libraries/lwip-1.4.1/src/core/tcp.c:1746:9
	cbz	r0, .LBB19_3
.Ltmp478:
@ %bb.2:
	@DEBUG_VALUE: tcp_eff_send_mss:sendmss <- $r4
	.loc	1 1748 38 is_stmt 1     @ ../Libraries/lwip-1.4.1/src/core/tcp.c:1748:38
	subs	r0, #40
.Ltmp479:
	@DEBUG_VALUE: tcp_eff_send_mss:mss_s <- $r4
	uxth	r1, r0
	.loc	1 1753 19               @ ../Libraries/lwip-1.4.1/src/core/tcp.c:1753:19
	cmp	r1, r4
	it	ls
	movls	r4, r0
.Ltmp480:
	@DEBUG_VALUE: tcp_eff_send_mss:sendmss <- $r4
.LBB19_3:
	@DEBUG_VALUE: tcp_eff_send_mss:sendmss <- $r4
	@DEBUG_VALUE: tcp_eff_send_mss:sendmss <- $r4
	.loc	1 1755 5                @ ../Libraries/lwip-1.4.1/src/core/tcp.c:1755:5
	uxth	r0, r4
	pop	{r4, pc}
.Ltmp481:
.Lfunc_end19:
	.size	tcp_eff_send_mss, .Lfunc_end19-tcp_eff_send_mss
	.cfi_endproc
	.cantunwind
	.fnend
                                        @ -- End function
	.section	.text.tcp_pcb_purge,"ax",%progbits
	.hidden	tcp_pcb_purge           @ -- Begin function tcp_pcb_purge
	.globl	tcp_pcb_purge
	.p2align	1
	.type	tcp_pcb_purge,%function
	.code	16                      @ @tcp_pcb_purge
	.thumb_func
tcp_pcb_purge:
.Lfunc_begin20:
	.loc	1 1614 0                @ ../Libraries/lwip-1.4.1/src/core/tcp.c:1614:0
	.fnstart
	.cfi_startproc
@ %bb.0:
	.save	{r4, r5, r7, lr}
	push	{r4, r5, r7, lr}
	.cfi_def_cfa_offset 16
	.cfi_offset lr, -4
	.cfi_offset r7, -8
	.cfi_offset r5, -12
	.cfi_offset r4, -16
	@DEBUG_VALUE: tcp_pcb_purge:pcb <- $r0
	mov	r4, r0
.Ltmp482:
	@DEBUG_VALUE: tcp_pcb_purge:pcb <- $r4
	.loc	1 1615 14 prologue_end  @ ../Libraries/lwip-1.4.1/src/core/tcp.c:1615:14
	ldrb	r0, [r0, #24]
	.loc	1 1615 30 is_stmt 0     @ ../Libraries/lwip-1.4.1/src/core/tcp.c:1615:30
	cmp	r0, #10
	bhi	.LBB20_2
.Ltmp483:
@ %bb.1:
	@DEBUG_VALUE: tcp_pcb_purge:pcb <- $r4
	.loc	1 0 30                  @ ../Libraries/lwip-1.4.1/src/core/tcp.c:0:30
	movs	r1, #1
	lsl.w	r0, r1, r0
	movw	r1, #1027
	tst	r0, r1
	.loc	1 1680 1 is_stmt 1      @ ../Libraries/lwip-1.4.1/src/core/tcp.c:1680:1
	it	ne
	popne	{r4, r5, r7, pc}
.Ltmp484:
.LBB20_2:
	.loc	1 1646 18               @ ../Libraries/lwip-1.4.1/src/core/tcp.c:1646:18
	ldr	r0, [r4, #120]
.Ltmp485:
	.loc	1 1646 13 is_stmt 0     @ ../Libraries/lwip-1.4.1/src/core/tcp.c:1646:13
	cbz	r0, .LBB20_4
@ %bb.3:
.Ltmp486:
	.loc	1 1649 13 is_stmt 1     @ ../Libraries/lwip-1.4.1/src/core/tcp.c:1649:13
	bl	pbuf_free
	movs	r0, #0
	.loc	1 1650 31               @ ../Libraries/lwip-1.4.1/src/core/tcp.c:1650:31
	str	r0, [r4, #120]
.Ltmp487:
.LBB20_4:
	.loc	1 1661 18               @ ../Libraries/lwip-1.4.1/src/core/tcp.c:1661:18
	ldr	r0, [r4, #116]
.Ltmp488:
	@DEBUG_VALUE: tcp_segs_free:seg <- $r0
	.loc	1 1254 5                @ ../Libraries/lwip-1.4.1/src/core/tcp.c:1254:5
	cbz	r0, .LBB20_6
.Ltmp489:
	.p2align	2
.LBB20_5:                               @ =>This Inner Loop Header: Depth=1
	@DEBUG_VALUE: tcp_segs_free:seg <- $r0
	@DEBUG_VALUE: tcp_segs_free:seg <- $r0
	.loc	1 1256 37               @ ../Libraries/lwip-1.4.1/src/core/tcp.c:1256:37
	ldr	r5, [r0]
.Ltmp490:
	@DEBUG_VALUE: next <- $r5
	@DEBUG_VALUE: tcp_segs_free:seg <- $r5
	.loc	1 1257 9                @ ../Libraries/lwip-1.4.1/src/core/tcp.c:1257:9
	bl	tcp_seg_free
.Ltmp491:
	.loc	1 1254 5                @ ../Libraries/lwip-1.4.1/src/core/tcp.c:1254:5
	cmp	r5, #0
	mov	r0, r5
.Ltmp492:
	@DEBUG_VALUE: next <- $r0
	@DEBUG_VALUE: tcp_segs_free:seg <- $r0
	bne	.LBB20_5
.Ltmp493:
.LBB20_6:
	.loc	1 0 5 is_stmt 0         @ ../Libraries/lwip-1.4.1/src/core/tcp.c:0:5
	movw	r0, #65535
	.loc	1 1671 20 is_stmt 1     @ ../Libraries/lwip-1.4.1/src/core/tcp.c:1671:20
	strh	r0, [r4, #52]
	movs	r0, #0
	.loc	1 1666 20               @ ../Libraries/lwip-1.4.1/src/core/tcp.c:1666:20
	str	r0, [r4, #116]
	.loc	1 1673 28               @ ../Libraries/lwip-1.4.1/src/core/tcp.c:1673:28
	ldr	r0, [r4, #108]
.Ltmp494:
	@DEBUG_VALUE: tcp_segs_free:seg <- $r0
	.loc	1 1254 5                @ ../Libraries/lwip-1.4.1/src/core/tcp.c:1254:5
	cbz	r0, .LBB20_8
.Ltmp495:
	.p2align	2
.LBB20_7:                               @ =>This Inner Loop Header: Depth=1
	@DEBUG_VALUE: tcp_segs_free:seg <- $r0
	@DEBUG_VALUE: tcp_segs_free:seg <- $r0
	.loc	1 1256 37               @ ../Libraries/lwip-1.4.1/src/core/tcp.c:1256:37
	ldr	r5, [r0]
.Ltmp496:
	@DEBUG_VALUE: next <- $r5
	@DEBUG_VALUE: tcp_segs_free:seg <- $r5
	.loc	1 1257 9                @ ../Libraries/lwip-1.4.1/src/core/tcp.c:1257:9
	bl	tcp_seg_free
.Ltmp497:
	.loc	1 1254 5                @ ../Libraries/lwip-1.4.1/src/core/tcp.c:1254:5
	cmp	r5, #0
	mov	r0, r5
.Ltmp498:
	@DEBUG_VALUE: next <- $r0
	@DEBUG_VALUE: tcp_segs_free:seg <- $r0
	bne	.LBB20_7
.Ltmp499:
.LBB20_8:
	.loc	1 1674 28               @ ../Libraries/lwip-1.4.1/src/core/tcp.c:1674:28
	ldr	r0, [r4, #112]
.Ltmp500:
	@DEBUG_VALUE: tcp_segs_free:seg <- $r0
	.loc	1 1254 5                @ ../Libraries/lwip-1.4.1/src/core/tcp.c:1254:5
	cbz	r0, .LBB20_10
.Ltmp501:
	.p2align	2
.LBB20_9:                               @ =>This Inner Loop Header: Depth=1
	@DEBUG_VALUE: tcp_segs_free:seg <- $r0
	@DEBUG_VALUE: tcp_segs_free:seg <- $r0
	.loc	1 1256 37               @ ../Libraries/lwip-1.4.1/src/core/tcp.c:1256:37
	ldr	r5, [r0]
.Ltmp502:
	@DEBUG_VALUE: next <- $r5
	@DEBUG_VALUE: tcp_segs_free:seg <- $r5
	.loc	1 1257 9                @ ../Libraries/lwip-1.4.1/src/core/tcp.c:1257:9
	bl	tcp_seg_free
.Ltmp503:
	.loc	1 1254 5                @ ../Libraries/lwip-1.4.1/src/core/tcp.c:1254:5
	cmp	r5, #0
	mov	r0, r5
.Ltmp504:
	@DEBUG_VALUE: next <- $r0
	@DEBUG_VALUE: tcp_segs_free:seg <- $r0
	bne	.LBB20_9
.Ltmp505:
.LBB20_10:
	.loc	1 0 5 is_stmt 0         @ ../Libraries/lwip-1.4.1/src/core/tcp.c:0:5
	movs	r0, #0
	.loc	1 1675 36 is_stmt 1     @ ../Libraries/lwip-1.4.1/src/core/tcp.c:1675:36
	strd	r0, r0, [r4, #108]
	.loc	1 1677 30               @ ../Libraries/lwip-1.4.1/src/core/tcp.c:1677:30
	strh.w	r0, [r4, #106]
.Ltmp506:
	.loc	1 1680 1                @ ../Libraries/lwip-1.4.1/src/core/tcp.c:1680:1
	pop	{r4, r5, r7, pc}
.Ltmp507:
.Lfunc_end20:
	.size	tcp_pcb_purge, .Lfunc_end20-tcp_pcb_purge
	.cfi_endproc
	.cantunwind
	.fnend
                                        @ -- End function
	.section	.text.tcp_process_refused_data,"ax",%progbits
	.hidden	tcp_process_refused_data @ -- Begin function tcp_process_refused_data
	.globl	tcp_process_refused_data
	.p2align	1
	.type	tcp_process_refused_data,%function
	.code	16                      @ @tcp_process_refused_data
	.thumb_func
tcp_process_refused_data:
.Lfunc_begin21:
	.loc	1 1202 0                @ ../Libraries/lwip-1.4.1/src/core/tcp.c:1202:0
	.fnstart
	.cfi_startproc
@ %bb.0:
	.save	{r4, r5, r6, r7, lr}
	push	{r4, r5, r6, r7, lr}
	.cfi_def_cfa_offset 20
	.cfi_offset lr, -4
	.cfi_offset r7, -8
	.cfi_offset r6, -12
	.cfi_offset r5, -16
	.cfi_offset r4, -20
	.pad	#4
	sub	sp, #4
	.cfi_def_cfa_offset 24
	@DEBUG_VALUE: tcp_process_refused_data:pcb <- $r0
.Ltmp508:
	.loc	1 1204 31 prologue_end  @ ../Libraries/lwip-1.4.1/src/core/tcp.c:1204:31
	ldr	r5, [r0, #120]
.Ltmp509:
	@DEBUG_VALUE: tcp_process_refused_data:refused_data <- $r5
	.loc	1 1211 5                @ ../Libraries/lwip-1.4.1/src/core/tcp.c:1211:5
	ldr.w	r6, [r0, #128]
	mov	r4, r0
.Ltmp510:
	@DEBUG_VALUE: tcp_process_refused_data:pcb <- $r4
	.loc	1 0 5 is_stmt 0         @ ../Libraries/lwip-1.4.1/src/core/tcp.c:0:5
	movs	r0, #0
.Ltmp511:
	.loc	1 1204 45 is_stmt 1     @ ../Libraries/lwip-1.4.1/src/core/tcp.c:1204:45
	ldrb	r7, [r5, #13]
.Ltmp512:
	.loc	1 1211 5                @ ../Libraries/lwip-1.4.1/src/core/tcp.c:1211:5
	cmp	r6, #0
.Ltmp513:
	.loc	1 1208 23               @ ../Libraries/lwip-1.4.1/src/core/tcp.c:1208:23
	str	r0, [r4, #120]
.Ltmp514:
	@DEBUG_VALUE: tcp_process_refused_data:refused_flags <- undef
	.loc	1 1211 5                @ ../Libraries/lwip-1.4.1/src/core/tcp.c:1211:5
	beq	.LBB21_2
.Ltmp515:
@ %bb.1:
	@DEBUG_VALUE: tcp_process_refused_data:pcb <- $r4
	@DEBUG_VALUE: tcp_process_refused_data:refused_data <- $r5
	.loc	1 1211 5 is_stmt 0      @ ../Libraries/lwip-1.4.1/src/core/tcp.c:1211:5
	ldr	r0, [r4, #16]
	mov	r1, r4
	mov	r2, r5
	movs	r3, #0
	blx	r6
.Ltmp516:
	@DEBUG_VALUE: tcp_process_refused_data:err <- undef
	.loc	1 0 5                   @ ../Libraries/lwip-1.4.1/src/core/tcp.c:0:5
	b	.LBB21_3
.Ltmp517:
.LBB21_2:
	@DEBUG_VALUE: tcp_process_refused_data:pcb <- $r4
	@DEBUG_VALUE: tcp_process_refused_data:refused_data <- $r5
	.loc	1 1211 5                @ ../Libraries/lwip-1.4.1/src/core/tcp.c:1211:5
	mov	r1, r4
	mov	r2, r5
	movs	r3, #0
	bl	tcp_recv_null
.Ltmp518:
	@DEBUG_VALUE: tcp_process_refused_data:err <- undef
.LBB21_3:
	@DEBUG_VALUE: tcp_process_refused_data:pcb <- $r4
	@DEBUG_VALUE: tcp_process_refused_data:refused_data <- $r5
	@DEBUG_VALUE: tcp_process_refused_data:err <- $r0
	.loc	1 1212 9 is_stmt 1      @ ../Libraries/lwip-1.4.1/src/core/tcp.c:1212:9
	adds.w	r1, r0, #10
	beq	.LBB21_11
.Ltmp519:
@ %bb.4:
	@DEBUG_VALUE: tcp_process_refused_data:err <- $r0
	@DEBUG_VALUE: tcp_process_refused_data:pcb <- $r4
	@DEBUG_VALUE: tcp_process_refused_data:refused_data <- $r5
	uxtb	r0, r0
.Ltmp520:
	cbnz	r0, .LBB21_9
.Ltmp521:
@ %bb.5:
	@DEBUG_VALUE: tcp_process_refused_data:pcb <- $r4
	@DEBUG_VALUE: tcp_process_refused_data:refused_data <- $r5
	.loc	1 1215 13               @ ../Libraries/lwip-1.4.1/src/core/tcp.c:1215:13
	lsls	r0, r7, #26
	bpl	.LBB21_10
.Ltmp522:
@ %bb.6:
	@DEBUG_VALUE: tcp_process_refused_data:pcb <- $r4
	@DEBUG_VALUE: tcp_process_refused_data:refused_data <- $r5
	.loc	1 1219 22               @ ../Libraries/lwip-1.4.1/src/core/tcp.c:1219:22
	ldrh	r0, [r4, #44]
	movw	r1, #5840
.Ltmp523:
	.loc	1 1219 17 is_stmt 0     @ ../Libraries/lwip-1.4.1/src/core/tcp.c:1219:17
	cmp	r0, r1
.Ltmp524:
	.loc	1 1221 29 is_stmt 1     @ ../Libraries/lwip-1.4.1/src/core/tcp.c:1221:29
	itt	ne
	addne	r0, #1
	strhne	r0, [r4, #44]
.Ltmp525:
	.loc	1 1223 13               @ ../Libraries/lwip-1.4.1/src/core/tcp.c:1223:13
	ldr.w	r7, [r4, #128]
.Ltmp526:
	.loc	1 1223 13 is_stmt 0     @ ../Libraries/lwip-1.4.1/src/core/tcp.c:1223:13
	cbz	r7, .LBB21_10
.Ltmp527:
@ %bb.7:
	@DEBUG_VALUE: tcp_process_refused_data:pcb <- $r4
	@DEBUG_VALUE: tcp_process_refused_data:refused_data <- $r5
	.loc	1 1223 13               @ ../Libraries/lwip-1.4.1/src/core/tcp.c:1223:13
	ldr	r0, [r4, #16]
	mov	r1, r4
	movs	r2, #0
	movs	r3, #0
	blx	r7
.Ltmp528:
	@DEBUG_VALUE: tcp_process_refused_data:err <- $r0
	.loc	1 1224 17 is_stmt 1     @ ../Libraries/lwip-1.4.1/src/core/tcp.c:1224:17
	adds	r0, #10
.Ltmp529:
	bne	.LBB21_10
.Ltmp530:
@ %bb.8:
	@DEBUG_VALUE: tcp_process_refused_data:pcb <- $r4
	@DEBUG_VALUE: tcp_process_refused_data:refused_data <- $r5
	.loc	1 0 17 is_stmt 0        @ ../Libraries/lwip-1.4.1/src/core/tcp.c:0:17
	movs	r0, #246
	b	.LBB21_11
.Ltmp531:
.LBB21_9:
	@DEBUG_VALUE: tcp_process_refused_data:pcb <- $r4
	@DEBUG_VALUE: tcp_process_refused_data:refused_data <- $r5
	.loc	1 1241 27 is_stmt 1     @ ../Libraries/lwip-1.4.1/src/core/tcp.c:1241:27
	str	r5, [r4, #120]
.Ltmp532:
.LBB21_10:
	@DEBUG_VALUE: tcp_process_refused_data:pcb <- $r4
	@DEBUG_VALUE: tcp_process_refused_data:refused_data <- $r5
	.loc	1 0 27 is_stmt 0        @ ../Libraries/lwip-1.4.1/src/core/tcp.c:0:27
	movs	r0, #0
.Ltmp533:
.LBB21_11:
	@DEBUG_VALUE: tcp_process_refused_data:pcb <- $r4
	@DEBUG_VALUE: tcp_process_refused_data:refused_data <- $r5
	.loc	1 1244 1 is_stmt 1      @ ../Libraries/lwip-1.4.1/src/core/tcp.c:1244:1
	sxtb	r0, r0
	add	sp, #4
	pop	{r4, r5, r6, r7, pc}
.Ltmp534:
.Lfunc_end21:
	.size	tcp_process_refused_data, .Lfunc_end21-tcp_process_refused_data
	.cfi_endproc
	.cantunwind
	.fnend
                                        @ -- End function
	.section	.text.tcp_recv_null,"ax",%progbits
	.hidden	tcp_recv_null           @ -- Begin function tcp_recv_null
	.globl	tcp_recv_null
	.p2align	1
	.type	tcp_recv_null,%function
	.code	16                      @ @tcp_recv_null
	.thumb_func
tcp_recv_null:
.Lfunc_begin22:
	.loc	1 1328 0                @ ../Libraries/lwip-1.4.1/src/core/tcp.c:1328:0
	.fnstart
	.cfi_startproc
@ %bb.0:
	@DEBUG_VALUE: tcp_recv_null:pcb <- $r1
	@DEBUG_VALUE: tcp_recv_null:p <- $r2
	@DEBUG_VALUE: tcp_recv_null:err <- $r3
	@DEBUG_VALUE: tcp_close:pcb <- $r1
	@DEBUG_VALUE: tcp_recv_null:arg <- undef
	@DEBUG_VALUE: tcp_close:pcb <- $r1
	@DEBUG_VALUE: tcp_recv_null:err <- $r3
	@DEBUG_VALUE: tcp_recv_null:pcb <- $r1
	.loc	1 1330 9 prologue_end   @ ../Libraries/lwip-1.4.1/src/core/tcp.c:1330:9
	cbz	r2, .LBB22_2
.Ltmp535:
@ %bb.1:
	@DEBUG_VALUE: tcp_recv_null:err <- $r3
	@DEBUG_VALUE: tcp_recv_null:p <- $r2
	@DEBUG_VALUE: tcp_recv_null:pcb <- $r1
	.save	{r4, lr}
	push	{r4, lr}
	.cfi_def_cfa_offset 8
	.cfi_offset lr, -4
	.cfi_offset r4, -8
	mov	r4, r2
.Ltmp536:
	@DEBUG_VALUE: tcp_recv_null:p <- $r4
	.loc	1 1332 28               @ ../Libraries/lwip-1.4.1/src/core/tcp.c:1332:28
	ldrh	r2, [r2, #8]
	.loc	1 1332 9 is_stmt 0      @ ../Libraries/lwip-1.4.1/src/core/tcp.c:1332:9
	mov	r0, r1
	mov	r1, r2
.Ltmp537:
	bl	tcp_recved
.Ltmp538:
	.loc	1 1333 9 is_stmt 1      @ ../Libraries/lwip-1.4.1/src/core/tcp.c:1333:9
	mov	r0, r4
	bl	pbuf_free
	.loc	1 1334 5                @ ../Libraries/lwip-1.4.1/src/core/tcp.c:1334:5
	pop.w	{r4, lr}
.Ltmp539:
	.loc	1 0 5 is_stmt 0         @ ../Libraries/lwip-1.4.1/src/core/tcp.c:0:5
	b	.LBB22_3
.Ltmp540:
.LBB22_2:
	@DEBUG_VALUE: tcp_recv_null:err <- $r3
	@DEBUG_VALUE: tcp_recv_null:p <- $r2
	@DEBUG_VALUE: tcp_recv_null:pcb <- $r1
	.loc	1 1335 14 is_stmt 1     @ ../Libraries/lwip-1.4.1/src/core/tcp.c:1335:14
	cbz	r3, .LBB22_4
.Ltmp541:
.LBB22_3:
	.loc	1 1340 1                @ ../Libraries/lwip-1.4.1/src/core/tcp.c:1340:1
	movs	r0, #0
	bx	lr
.LBB22_4:
.Ltmp542:
	@DEBUG_VALUE: tcp_recv_null:err <- $r3
	@DEBUG_VALUE: tcp_recv_null:p <- $r2
	@DEBUG_VALUE: tcp_recv_null:pcb <- $r1
	.loc	1 303 14                @ ../Libraries/lwip-1.4.1/src/core/tcp.c:303:14
	ldrb	r0, [r1, #24]
.Ltmp543:
	.loc	1 303 9 is_stmt 0       @ ../Libraries/lwip-1.4.1/src/core/tcp.c:303:9
	cmp	r0, #1
.Ltmp544:
	.loc	1 306 20 is_stmt 1      @ ../Libraries/lwip-1.4.1/src/core/tcp.c:306:20
	ittt	ne
	ldrbne	r0, [r1, #30]
	orrne	r0, r0, #16
	strbne	r0, [r1, #30]
.Ltmp545:
	.loc	1 309 12                @ ../Libraries/lwip-1.4.1/src/core/tcp.c:309:12
	mov	r0, r1
	movs	r1, #1
.Ltmp546:
	b	tcp_close_shutdown
.Ltmp547:
.Lfunc_end22:
	.size	tcp_recv_null, .Lfunc_end22-tcp_recv_null
	.cfi_endproc
	.cantunwind
	.fnend
                                        @ -- End function
	.section	.text.tcp_seg_free,"ax",%progbits
	.hidden	tcp_seg_free            @ -- Begin function tcp_seg_free
	.globl	tcp_seg_free
	.p2align	1
	.type	tcp_seg_free,%function
	.code	16                      @ @tcp_seg_free
	.thumb_func
tcp_seg_free:
.Lfunc_begin23:
	.loc	1 1269 0                @ ../Libraries/lwip-1.4.1/src/core/tcp.c:1269:0
	.fnstart
	.cfi_startproc
@ %bb.0:
	@DEBUG_VALUE: tcp_seg_free:seg <- $r0
	.loc	1 1270 9 prologue_end   @ ../Libraries/lwip-1.4.1/src/core/tcp.c:1270:9
	cbz	r0, .LBB23_4
.Ltmp548:
@ %bb.1:
	@DEBUG_VALUE: tcp_seg_free:seg <- $r0
	.save	{r4, lr}
	push	{r4, lr}
	.cfi_def_cfa_offset 8
	.cfi_offset lr, -4
	.cfi_offset r4, -8
	mov	r4, r0
.Ltmp549:
	@DEBUG_VALUE: tcp_seg_free:seg <- $r4
	.loc	1 1272 18               @ ../Libraries/lwip-1.4.1/src/core/tcp.c:1272:18
	ldr	r0, [r0, #4]
.Ltmp550:
	.loc	1 1272 13 is_stmt 0     @ ../Libraries/lwip-1.4.1/src/core/tcp.c:1272:13
	cbz	r0, .LBB23_3
.Ltmp551:
@ %bb.2:
	@DEBUG_VALUE: tcp_seg_free:seg <- $r4
	.loc	1 1274 13 is_stmt 1     @ ../Libraries/lwip-1.4.1/src/core/tcp.c:1274:13
	bl	pbuf_free
.Ltmp552:
.LBB23_3:
	@DEBUG_VALUE: tcp_seg_free:seg <- $r4
	.loc	1 1279 9                @ ../Libraries/lwip-1.4.1/src/core/tcp.c:1279:9
	movs	r0, #4
	mov	r1, r4
	pop.w	{r4, lr}
.Ltmp553:
	b	memp_free
.Ltmp554:
.LBB23_4:
	@DEBUG_VALUE: tcp_seg_free:seg <- $r0
	.loc	1 1281 1                @ ../Libraries/lwip-1.4.1/src/core/tcp.c:1281:1
	bx	lr
.Ltmp555:
.Lfunc_end23:
	.size	tcp_seg_free, .Lfunc_end23-tcp_seg_free
	.cfi_endproc
	.cantunwind
	.fnend
                                        @ -- End function
	.section	.text.tcp_setprio,"ax",%progbits
	.hidden	tcp_setprio             @ -- Begin function tcp_setprio
	.globl	tcp_setprio
	.p2align	1
	.type	tcp_setprio,%function
	.code	16                      @ @tcp_setprio
	.thumb_func
tcp_setprio:
.Lfunc_begin24:
	.loc	1 1291 0                @ ../Libraries/lwip-1.4.1/src/core/tcp.c:1291:0
	.fnstart
	.cfi_startproc
@ %bb.0:
	@DEBUG_VALUE: tcp_setprio:pcb <- $r0
	@DEBUG_VALUE: tcp_setprio:pcb <- $r0
	@DEBUG_VALUE: tcp_setprio:prio <- $r1
	@DEBUG_VALUE: tcp_setprio:prio <- $r1
	.loc	1 1292 15 prologue_end  @ ../Libraries/lwip-1.4.1/src/core/tcp.c:1292:15
	strb	r1, [r0, #25]
	.loc	1 1293 1                @ ../Libraries/lwip-1.4.1/src/core/tcp.c:1293:1
	bx	lr
.Ltmp556:
.Lfunc_end24:
	.size	tcp_setprio, .Lfunc_end24-tcp_setprio
	.cfi_endproc
	.cantunwind
	.fnend
                                        @ -- End function
	.section	.text.tcp_seg_copy,"ax",%progbits
	.hidden	tcp_seg_copy            @ -- Begin function tcp_seg_copy
	.globl	tcp_seg_copy
	.p2align	1
	.type	tcp_seg_copy,%function
	.code	16                      @ @tcp_seg_copy
	.thumb_func
tcp_seg_copy:
.Lfunc_begin25:
	.loc	1 1306 0                @ ../Libraries/lwip-1.4.1/src/core/tcp.c:1306:0
	.fnstart
	.cfi_startproc
@ %bb.0:
	.save	{r4, r5, r7, lr}
	push	{r4, r5, r7, lr}
	.cfi_def_cfa_offset 16
	.cfi_offset lr, -4
	.cfi_offset r7, -8
	.cfi_offset r5, -12
	.cfi_offset r4, -16
	@DEBUG_VALUE: tcp_seg_copy:seg <- $r0
	mov	r5, r0
.Ltmp557:
	@DEBUG_VALUE: tcp_seg_copy:seg <- $r5
	.loc	1 1309 31 prologue_end  @ ../Libraries/lwip-1.4.1/src/core/tcp.c:1309:31
	movs	r0, #4
	bl	memp_malloc
	.loc	1 1310 9                @ ../Libraries/lwip-1.4.1/src/core/tcp.c:1310:9
	cbz	r0, .LBB25_2
.Ltmp558:
@ %bb.1:
	@DEBUG_VALUE: tcp_seg_copy:seg <- $r5
	.loc	1 1314 5                @ ../Libraries/lwip-1.4.1/src/core/tcp.c:1314:5
	mov	r1, r5
	movs	r2, #20
	.loc	1 0 0 is_stmt 0         @ ../Libraries/lwip-1.4.1/src/core/tcp.c:0:0
	mov	r4, r0
.Ltmp559:
	@DEBUG_VALUE: tcp_seg_copy:cseg <- $r4
	.loc	1 1314 5                @ ../Libraries/lwip-1.4.1/src/core/tcp.c:1314:5
	bl	__aeabi_memcpy
	.loc	1 1315 20 is_stmt 1     @ ../Libraries/lwip-1.4.1/src/core/tcp.c:1315:20
	ldr	r0, [r4, #4]
	.loc	1 1315 5 is_stmt 0      @ ../Libraries/lwip-1.4.1/src/core/tcp.c:1315:5
	bl	pbuf_ref
	b	.LBB25_3
.Ltmp560:
.LBB25_2:
	@DEBUG_VALUE: tcp_seg_copy:seg <- $r5
	.loc	1 0 5                   @ ../Libraries/lwip-1.4.1/src/core/tcp.c:0:5
	movs	r4, #0
.Ltmp561:
.LBB25_3:
	@DEBUG_VALUE: tcp_seg_copy:seg <- $r5
	.loc	1 1317 1 is_stmt 1      @ ../Libraries/lwip-1.4.1/src/core/tcp.c:1317:1
	mov	r0, r4
	pop	{r4, r5, r7, pc}
.Ltmp562:
.Lfunc_end25:
	.size	tcp_seg_copy, .Lfunc_end25-tcp_seg_copy
	.cfi_endproc
	.cantunwind
	.fnend
                                        @ -- End function
	.section	.text.tcp_alloc,"ax",%progbits
	.hidden	tcp_alloc               @ -- Begin function tcp_alloc
	.globl	tcp_alloc
	.p2align	1
	.type	tcp_alloc,%function
	.code	16                      @ @tcp_alloc
	.thumb_func
tcp_alloc:
.Lfunc_begin26:
	.loc	1 1418 0                @ ../Libraries/lwip-1.4.1/src/core/tcp.c:1418:0
	.fnstart
	.cfi_startproc
@ %bb.0:
	.save	{r4, r5, r6, lr}
	push	{r4, r5, r6, lr}
	.cfi_def_cfa_offset 16
	.cfi_offset lr, -4
	.cfi_offset r6, -8
	.cfi_offset r5, -12
	.cfi_offset r4, -16
	@DEBUG_VALUE: tcp_alloc:prio <- $r0
	mov	r6, r0
.Ltmp563:
	@DEBUG_VALUE: tcp_alloc:prio <- $r6
	.loc	1 1422 30 prologue_end  @ ../Libraries/lwip-1.4.1/src/core/tcp.c:1422:30
	movs	r0, #2
	bl	memp_malloc
	mov	r5, r0
.Ltmp564:
	@DEBUG_VALUE: tcp_kill_prio:prio <- $r6
	@DEBUG_VALUE: tcp_alloc:pcb <- $r5
	.loc	1 1423 9                @ ../Libraries/lwip-1.4.1/src/core/tcp.c:1423:9
	cmp	r0, #0
	bne	.LBB26_16
.Ltmp565:
@ %bb.1:
	@DEBUG_VALUE: tcp_alloc:pcb <- $r5
	@DEBUG_VALUE: tcp_alloc:prio <- $r6
	@DEBUG_VALUE: tcp_kill_timewait:inactivity <- 0
	@DEBUG_VALUE: tcp_kill_timewait:inactive <- 0
	.loc	1 0 0 is_stmt 0         @ ../Libraries/lwip-1.4.1/src/core/tcp.c:0:0
	movw	r0, :lower16:tcp_tw_pcbs
	movt	r0, :upper16:tcp_tw_pcbs
.Ltmp566:
	@DEBUG_VALUE: tcp_kill_timewait:pcb <- [DW_OP_deref] $r0
	ldr	r2, [r0]
.Ltmp567:
	@DEBUG_VALUE: tcp_kill_timewait:pcb <- $r2
	.loc	1 1394 5 is_stmt 1      @ ../Libraries/lwip-1.4.1/src/core/tcp.c:1394:5
	cbz	r2, .LBB26_6
.Ltmp568:
@ %bb.2:
	@DEBUG_VALUE: tcp_kill_timewait:pcb <- $r2
	@DEBUG_VALUE: tcp_alloc:pcb <- $r5
	@DEBUG_VALUE: tcp_alloc:prio <- $r6
	.loc	1 0 5 is_stmt 0         @ ../Libraries/lwip-1.4.1/src/core/tcp.c:0:5
	movw	r0, :lower16:tcp_ticks
	movs	r3, #0
	movt	r0, :upper16:tcp_ticks
	ldr	r1, [r0]
	movs	r0, #0
.Ltmp569:
	.p2align	2
.LBB26_3:                               @ =>This Inner Loop Header: Depth=1
	@DEBUG_VALUE: tcp_kill_timewait:pcb <- $r2
	@DEBUG_VALUE: tcp_alloc:pcb <- $r5
	@DEBUG_VALUE: tcp_alloc:prio <- $r6
	@DEBUG_VALUE: tcp_kill_timewait:inactivity <- $r3
	@DEBUG_VALUE: tcp_kill_timewait:inactive <- $r0
	@DEBUG_VALUE: tcp_kill_timewait:pcb <- [DW_OP_plus_uconst 12, DW_OP_deref, DW_OP_stack_value] $r2
	.loc	1 1396 39 is_stmt 1     @ ../Libraries/lwip-1.4.1/src/core/tcp.c:1396:39
	ldr	r4, [r2, #36]
.Ltmp570:
	.loc	1 0 0 is_stmt 0         @ ../Libraries/lwip-1.4.1/src/core/tcp.c:0:0
	ldr	r5, [r2, #12]
.Ltmp571:
	@DEBUG_VALUE: tcp_kill_timewait:pcb <- $r5
	.loc	1 1396 32               @ ../Libraries/lwip-1.4.1/src/core/tcp.c:1396:32
	subs	r4, r1, r4
.Ltmp572:
	.loc	1 1396 13               @ ../Libraries/lwip-1.4.1/src/core/tcp.c:1396:13
	cmp	r4, r3
	itt	hs
	movhs	r0, r2
.Ltmp573:
	@DEBUG_VALUE: tcp_abort:pcb <- $r0
	@DEBUG_VALUE: tcp_kill_timewait:inactive <- $r0
	movhs	r3, r4
.Ltmp574:
	@DEBUG_VALUE: tcp_kill_timewait:inactivity <- $r3
	.loc	1 0 13                  @ ../Libraries/lwip-1.4.1/src/core/tcp.c:0:13
	mov	r2, r5
.Ltmp575:
	@DEBUG_VALUE: tcp_kill_timewait:pcb <- $r2
	.loc	1 1394 5 is_stmt 1      @ ../Libraries/lwip-1.4.1/src/core/tcp.c:1394:5
	cmp	r5, #0
	bne	.LBB26_3
.Ltmp576:
@ %bb.4:
	@DEBUG_VALUE: tcp_kill_timewait:inactive <- $r0
	@DEBUG_VALUE: tcp_kill_timewait:inactivity <- $r3
	@DEBUG_VALUE: tcp_kill_timewait:pcb <- $r2
	@DEBUG_VALUE: tcp_alloc:prio <- $r6
	.loc	1 1402 9                @ ../Libraries/lwip-1.4.1/src/core/tcp.c:1402:9
	cbz	r0, .LBB26_6
.Ltmp577:
@ %bb.5:
	@DEBUG_VALUE: tcp_kill_timewait:inactive <- $r0
	@DEBUG_VALUE: tcp_kill_timewait:inactivity <- $r3
	@DEBUG_VALUE: tcp_kill_timewait:pcb <- $r2
	@DEBUG_VALUE: tcp_alloc:prio <- $r6
	.loc	1 440 5                 @ ../Libraries/lwip-1.4.1/src/core/tcp.c:440:5
	movs	r1, #1
	bl	tcp_abandon
.Ltmp578:
.LBB26_6:
	@DEBUG_VALUE: tcp_alloc:prio <- $r6
	.loc	1 1429 34               @ ../Libraries/lwip-1.4.1/src/core/tcp.c:1429:34
	movs	r0, #2
	bl	memp_malloc
	mov	r5, r0
.Ltmp579:
	@DEBUG_VALUE: tcp_alloc:pcb <- $r5
	.loc	1 1430 13               @ ../Libraries/lwip-1.4.1/src/core/tcp.c:1430:13
	cbnz	r0, .LBB26_16
.Ltmp580:
@ %bb.7:
	@DEBUG_VALUE: tcp_alloc:pcb <- $r5
	@DEBUG_VALUE: tcp_alloc:prio <- $r6
	@DEBUG_VALUE: tcp_kill_prio:mprio <- 127
	@DEBUG_VALUE: tcp_kill_prio:inactivity <- 0
	@DEBUG_VALUE: tcp_kill_prio:inactive <- 0
	.loc	1 0 0 is_stmt 0         @ ../Libraries/lwip-1.4.1/src/core/tcp.c:0:0
	movw	r0, :lower16:tcp_active_pcbs
	movt	r0, :upper16:tcp_active_pcbs
.Ltmp581:
	@DEBUG_VALUE: tcp_kill_prio:pcb <- [DW_OP_deref] $r0
	ldr	r1, [r0]
.Ltmp582:
	@DEBUG_VALUE: tcp_kill_prio:pcb <- $r1
	.loc	1 1362 5 is_stmt 1      @ ../Libraries/lwip-1.4.1/src/core/tcp.c:1362:5
	cbz	r1, .LBB26_15
.Ltmp583:
@ %bb.8:
	@DEBUG_VALUE: tcp_kill_prio:pcb <- $r1
	@DEBUG_VALUE: tcp_alloc:pcb <- $r5
	@DEBUG_VALUE: tcp_alloc:prio <- $r6
	.loc	1 0 5 is_stmt 0         @ ../Libraries/lwip-1.4.1/src/core/tcp.c:0:5
	movw	r0, :lower16:tcp_ticks
	movs	r3, #0
	movs	r5, #127
.Ltmp584:
	movt	r0, :upper16:tcp_ticks
	ldr.w	r12, [r0]
	movs	r0, #0
.Ltmp585:
	.p2align	2
.LBB26_9:                               @ =>This Inner Loop Header: Depth=1
	@DEBUG_VALUE: tcp_kill_prio:pcb <- $r1
	@DEBUG_VALUE: tcp_alloc:prio <- $r6
	@DEBUG_VALUE: tcp_kill_prio:mprio <- $r5
	@DEBUG_VALUE: tcp_kill_prio:inactivity <- $r3
	@DEBUG_VALUE: tcp_kill_prio:inactive <- $r0
	.loc	1 1364 18 is_stmt 1     @ ../Libraries/lwip-1.4.1/src/core/tcp.c:1364:18
	ldrb	r2, [r1, #25]
	.loc	1 1364 31 is_stmt 0     @ ../Libraries/lwip-1.4.1/src/core/tcp.c:1364:31
	cmp	r2, r6
	bhi	.LBB26_12
.Ltmp586:
@ %bb.10:                               @   in Loop: Header=BB26_9 Depth=1
	@DEBUG_VALUE: tcp_kill_prio:inactive <- $r0
	@DEBUG_VALUE: tcp_kill_prio:inactivity <- $r3
	@DEBUG_VALUE: tcp_kill_prio:mprio <- $r5
	@DEBUG_VALUE: tcp_kill_prio:pcb <- $r1
	@DEBUG_VALUE: tcp_alloc:prio <- $r6
	.loc	1 0 31                  @ ../Libraries/lwip-1.4.1/src/core/tcp.c:0:31
	uxtb	r4, r5
	.loc	1 1364 31               @ ../Libraries/lwip-1.4.1/src/core/tcp.c:1364:31
	cmp	r2, r4
	bhi	.LBB26_12
.Ltmp587:
@ %bb.11:                               @   in Loop: Header=BB26_9 Depth=1
	@DEBUG_VALUE: tcp_kill_prio:inactive <- $r0
	@DEBUG_VALUE: tcp_kill_prio:inactivity <- $r3
	@DEBUG_VALUE: tcp_kill_prio:mprio <- $r5
	@DEBUG_VALUE: tcp_kill_prio:pcb <- $r1
	@DEBUG_VALUE: tcp_alloc:prio <- $r6
	.loc	1 1366 43 is_stmt 1     @ ../Libraries/lwip-1.4.1/src/core/tcp.c:1366:43
	ldr	r4, [r1, #36]
	.loc	1 1366 36 is_stmt 0     @ ../Libraries/lwip-1.4.1/src/core/tcp.c:1366:36
	sub.w	r4, r12, r4
.Ltmp588:
	.loc	1 1364 13 is_stmt 1     @ ../Libraries/lwip-1.4.1/src/core/tcp.c:1364:13
	cmp	r4, r3
	ittt	hs
	movhs	r5, r2
.Ltmp589:
	movhs	r0, r1
.Ltmp590:
	movhs	r3, r4
.Ltmp591:
.LBB26_12:                              @   in Loop: Header=BB26_9 Depth=1
	@DEBUG_VALUE: tcp_kill_prio:pcb <- $r1
	@DEBUG_VALUE: tcp_alloc:prio <- $r6
	@DEBUG_VALUE: tcp_kill_prio:mprio <- $r5
	@DEBUG_VALUE: tcp_kill_prio:inactivity <- $r3
	@DEBUG_VALUE: tcp_kill_prio:inactive <- $r0
	@DEBUG_VALUE: tcp_abort:pcb <- $r0
	@DEBUG_VALUE: tcp_kill_prio:pcb <- [DW_OP_plus_uconst 12, DW_OP_deref, DW_OP_stack_value] $r1
	.loc	1 0 0 is_stmt 0         @ ../Libraries/lwip-1.4.1/src/core/tcp.c:0:0
	ldr	r1, [r1, #12]
.Ltmp592:
	@DEBUG_VALUE: tcp_kill_prio:pcb <- $r1
	.loc	1 1362 5 is_stmt 1      @ ../Libraries/lwip-1.4.1/src/core/tcp.c:1362:5
	cmp	r1, #0
	bne	.LBB26_9
.Ltmp593:
@ %bb.13:
	@DEBUG_VALUE: tcp_kill_prio:inactive <- $r0
	@DEBUG_VALUE: tcp_kill_prio:inactivity <- $r3
	@DEBUG_VALUE: tcp_kill_prio:mprio <- $r5
	@DEBUG_VALUE: tcp_kill_prio:pcb <- $r1
	@DEBUG_VALUE: tcp_alloc:prio <- $r6
	.loc	1 1373 9                @ ../Libraries/lwip-1.4.1/src/core/tcp.c:1373:9
	cbz	r0, .LBB26_15
.Ltmp594:
@ %bb.14:
	@DEBUG_VALUE: tcp_kill_prio:inactive <- $r0
	@DEBUG_VALUE: tcp_kill_prio:inactivity <- $r3
	@DEBUG_VALUE: tcp_kill_prio:mprio <- $r5
	@DEBUG_VALUE: tcp_kill_prio:pcb <- $r1
	@DEBUG_VALUE: tcp_alloc:prio <- $r6
	.loc	1 440 5                 @ ../Libraries/lwip-1.4.1/src/core/tcp.c:440:5
	movs	r1, #1
.Ltmp595:
	bl	tcp_abandon
.Ltmp596:
.LBB26_15:
	@DEBUG_VALUE: tcp_alloc:prio <- $r6
	.loc	1 1436 38               @ ../Libraries/lwip-1.4.1/src/core/tcp.c:1436:38
	movs	r0, #2
	bl	memp_malloc
	mov	r5, r0
.Ltmp597:
	@DEBUG_VALUE: tcp_alloc:pcb <- $r5
	.loc	1 1449 9                @ ../Libraries/lwip-1.4.1/src/core/tcp.c:1449:9
	cmp	r0, #0
	beq	.LBB26_17
.Ltmp598:
.LBB26_16:
	@DEBUG_VALUE: tcp_alloc:pcb <- $r5
	@DEBUG_VALUE: tcp_alloc:prio <- $r6
	.loc	1 1451 9                @ ../Libraries/lwip-1.4.1/src/core/tcp.c:1451:9
	mov	r0, r5
	movs	r1, #152
	bl	__aeabi_memclr4
	movw	r0, #2920
.Ltmp599:
	.loc	1 1728 9                @ ../Libraries/lwip-1.4.1/src/core/tcp.c:1728:9
	movw	r1, :lower16:tcp_next_iss.iss
.Ltmp600:
	.loc	1 1453 22               @ ../Libraries/lwip-1.4.1/src/core/tcp.c:1453:22
	str.w	r0, [r5, #102]
	movw	r0, #5840
	.loc	1 1452 19               @ ../Libraries/lwip-1.4.1/src/core/tcp.c:1452:19
	strb	r6, [r5, #25]
.Ltmp601:
	.loc	1 1728 9                @ ../Libraries/lwip-1.4.1/src/core/tcp.c:1728:9
	movt	r1, :upper16:tcp_next_iss.iss
	movt	r0, #5840
.Ltmp602:
	.loc	1 1455 22               @ ../Libraries/lwip-1.4.1/src/core/tcp.c:1455:22
	str	r0, [r5, #44]
	movs	r0, #6
	.loc	1 1462 18               @ ../Libraries/lwip-1.4.1/src/core/tcp.c:1462:18
	strh.w	r0, [r5, #68]
	mov.w	r0, #65280
	.loc	1 1457 18               @ ../Libraries/lwip-1.4.1/src/core/tcp.c:1457:18
	strh.w	r0, [r5, #9]
	mov.w	r0, #393216
	.loc	1 1463 17               @ ../Libraries/lwip-1.4.1/src/core/tcp.c:1463:17
	str	r0, [r5, #64]
	movs	r0, #1
	.loc	1 1466 19               @ ../Libraries/lwip-1.4.1/src/core/tcp.c:1466:19
	strh.w	r0, [r5, #76]
	movw	r0, #65535
	movt	r0, #536
	.loc	1 1465 20               @ ../Libraries/lwip-1.4.1/src/core/tcp.c:1465:20
	str	r0, [r5, #52]
.Ltmp603:
	.loc	1 1728 12               @ ../Libraries/lwip-1.4.1/src/core/tcp.c:1728:12
	movw	r0, :lower16:tcp_ticks
	movt	r0, :upper16:tcp_ticks
	.loc	1 1728 9 is_stmt 0      @ ../Libraries/lwip-1.4.1/src/core/tcp.c:1728:9
	ldr	r2, [r1]
	.loc	1 1728 12               @ ../Libraries/lwip-1.4.1/src/core/tcp.c:1728:12
	ldr	r0, [r0]
	.loc	1 1728 9                @ ../Libraries/lwip-1.4.1/src/core/tcp.c:1728:9
	add	r2, r0
.Ltmp604:
	@DEBUG_VALUE: tcp_alloc:iss <- $r2
	str	r2, [r1]
.Ltmp605:
	.loc	1 1470 22 is_stmt 1     @ ../Libraries/lwip-1.4.1/src/core/tcp.c:1470:22
	str	r2, [r5, #72]
	.loc	1 1469 22               @ ../Libraries/lwip-1.4.1/src/core/tcp.c:1469:22
	str	r2, [r5, #80]
	.loc	1 1468 22               @ ../Libraries/lwip-1.4.1/src/core/tcp.c:1468:22
	strd	r2, r2, [r5, #88]
	movw	r2, #56576
.Ltmp606:
	.loc	1 1472 18               @ ../Libraries/lwip-1.4.1/src/core/tcp.c:1472:18
	str	r0, [r5, #36]
	.loc	1 1473 27               @ ../Libraries/lwip-1.4.1/src/core/tcp.c:1473:27
	movw	r0, :lower16:tcp_timer_ctr
	movs	r1, #0
	movt	r0, :upper16:tcp_timer_ctr
	movt	r2, #109
	ldrb	r0, [r0]
	.loc	1 1489 28               @ ../Libraries/lwip-1.4.1/src/core/tcp.c:1489:28
	strb.w	r1, [r5, #150]
	.loc	1 1482 24               @ ../Libraries/lwip-1.4.1/src/core/tcp.c:1482:24
	str.w	r2, [r5, #144]
	.loc	1 1478 19               @ ../Libraries/lwip-1.4.1/src/core/tcp.c:1478:19
	movw	r2, :lower16:tcp_recv_null
	movt	r2, :upper16:tcp_recv_null
	str.w	r2, [r5, #128]
	.loc	1 1475 22               @ ../Libraries/lwip-1.4.1/src/core/tcp.c:1475:22
	strb	r1, [r5, #31]
	.loc	1 1473 25               @ ../Libraries/lwip-1.4.1/src/core/tcp.c:1473:25
	strb.w	r0, [r5, #33]
.Ltmp607:
.LBB26_17:
	@DEBUG_VALUE: tcp_alloc:pcb <- $r5
	@DEBUG_VALUE: tcp_alloc:prio <- $r6
	.loc	1 1491 5                @ ../Libraries/lwip-1.4.1/src/core/tcp.c:1491:5
	mov	r0, r5
	pop	{r4, r5, r6, pc}
.Ltmp608:
.Lfunc_end26:
	.size	tcp_alloc, .Lfunc_end26-tcp_alloc
	.cfi_endproc
	.cantunwind
	.fnend
                                        @ -- End function
	.section	.text.tcp_new,"ax",%progbits
	.hidden	tcp_new                 @ -- Begin function tcp_new
	.globl	tcp_new
	.p2align	1
	.type	tcp_new,%function
	.code	16                      @ @tcp_new
	.thumb_func
tcp_new:
.Lfunc_begin27:
	.loc	1 1508 0                @ ../Libraries/lwip-1.4.1/src/core/tcp.c:1508:0
	.fnstart
	.cfi_startproc
@ %bb.0:
	.loc	1 1509 12 prologue_end  @ ../Libraries/lwip-1.4.1/src/core/tcp.c:1509:12
	movs	r0, #64
	b	tcp_alloc
.Ltmp609:
.Lfunc_end27:
	.size	tcp_new, .Lfunc_end27-tcp_new
	.cfi_endproc
	.cantunwind
	.fnend
                                        @ -- End function
	.section	.text.tcp_arg,"ax",%progbits
	.hidden	tcp_arg                 @ -- Begin function tcp_arg
	.globl	tcp_arg
	.p2align	1
	.type	tcp_arg,%function
	.code	16                      @ @tcp_arg
	.thumb_func
tcp_arg:
.Lfunc_begin28:
	.loc	1 1521 0                @ ../Libraries/lwip-1.4.1/src/core/tcp.c:1521:0
	.fnstart
	.cfi_startproc
@ %bb.0:
	@DEBUG_VALUE: tcp_arg:pcb <- $r0
	@DEBUG_VALUE: tcp_arg:pcb <- $r0
	@DEBUG_VALUE: tcp_arg:arg <- $r1
	@DEBUG_VALUE: tcp_arg:arg <- $r1
	.loc	1 1524 23 prologue_end  @ ../Libraries/lwip-1.4.1/src/core/tcp.c:1524:23
	str	r1, [r0, #16]
	.loc	1 1525 1                @ ../Libraries/lwip-1.4.1/src/core/tcp.c:1525:1
	bx	lr
.Ltmp610:
.Lfunc_end28:
	.size	tcp_arg, .Lfunc_end28-tcp_arg
	.cfi_endproc
	.cantunwind
	.fnend
                                        @ -- End function
	.section	.text.tcp_recv,"ax",%progbits
	.hidden	tcp_recv                @ -- Begin function tcp_recv
	.globl	tcp_recv
	.p2align	1
	.type	tcp_recv,%function
	.code	16                      @ @tcp_recv
	.thumb_func
tcp_recv:
.Lfunc_begin29:
	.loc	1 1537 0                @ ../Libraries/lwip-1.4.1/src/core/tcp.c:1537:0
	.fnstart
	.cfi_startproc
@ %bb.0:
	@DEBUG_VALUE: tcp_recv:pcb <- $r0
	@DEBUG_VALUE: tcp_recv:pcb <- $r0
	@DEBUG_VALUE: tcp_recv:recv <- $r1
	@DEBUG_VALUE: tcp_recv:recv <- $r1
	.loc	1 1539 15 prologue_end  @ ../Libraries/lwip-1.4.1/src/core/tcp.c:1539:15
	str.w	r1, [r0, #128]
	.loc	1 1540 1                @ ../Libraries/lwip-1.4.1/src/core/tcp.c:1540:1
	bx	lr
.Ltmp611:
.Lfunc_end29:
	.size	tcp_recv, .Lfunc_end29-tcp_recv
	.cfi_endproc
	.cantunwind
	.fnend
                                        @ -- End function
	.section	.text.tcp_sent,"ax",%progbits
	.hidden	tcp_sent                @ -- Begin function tcp_sent
	.globl	tcp_sent
	.p2align	1
	.type	tcp_sent,%function
	.code	16                      @ @tcp_sent
	.thumb_func
tcp_sent:
.Lfunc_begin30:
	.loc	1 1551 0                @ ../Libraries/lwip-1.4.1/src/core/tcp.c:1551:0
	.fnstart
	.cfi_startproc
@ %bb.0:
	@DEBUG_VALUE: tcp_sent:pcb <- $r0
	@DEBUG_VALUE: tcp_sent:pcb <- $r0
	@DEBUG_VALUE: tcp_sent:sent <- $r1
	@DEBUG_VALUE: tcp_sent:sent <- $r1
	.loc	1 1553 15 prologue_end  @ ../Libraries/lwip-1.4.1/src/core/tcp.c:1553:15
	str	r1, [r0, #124]
	.loc	1 1554 1                @ ../Libraries/lwip-1.4.1/src/core/tcp.c:1554:1
	bx	lr
.Ltmp612:
.Lfunc_end30:
	.size	tcp_sent, .Lfunc_end30-tcp_sent
	.cfi_endproc
	.cantunwind
	.fnend
                                        @ -- End function
	.section	.text.tcp_err,"ax",%progbits
	.hidden	tcp_err                 @ -- Begin function tcp_err
	.globl	tcp_err
	.p2align	1
	.type	tcp_err,%function
	.code	16                      @ @tcp_err
	.thumb_func
tcp_err:
.Lfunc_begin31:
	.loc	1 1566 0                @ ../Libraries/lwip-1.4.1/src/core/tcp.c:1566:0
	.fnstart
	.cfi_startproc
@ %bb.0:
	@DEBUG_VALUE: tcp_err:pcb <- $r0
	@DEBUG_VALUE: tcp_err:pcb <- $r0
	@DEBUG_VALUE: tcp_err:err <- $r1
	@DEBUG_VALUE: tcp_err:err <- $r1
	.loc	1 1568 15 prologue_end  @ ../Libraries/lwip-1.4.1/src/core/tcp.c:1568:15
	str.w	r1, [r0, #140]
	.loc	1 1569 1                @ ../Libraries/lwip-1.4.1/src/core/tcp.c:1569:1
	bx	lr
.Ltmp613:
.Lfunc_end31:
	.size	tcp_err, .Lfunc_end31-tcp_err
	.cfi_endproc
	.cantunwind
	.fnend
                                        @ -- End function
	.section	.text.tcp_accept,"ax",%progbits
	.hidden	tcp_accept              @ -- Begin function tcp_accept
	.globl	tcp_accept
	.p2align	1
	.type	tcp_accept,%function
	.code	16                      @ @tcp_accept
	.thumb_func
tcp_accept:
.Lfunc_begin32:
	.loc	1 1581 0                @ ../Libraries/lwip-1.4.1/src/core/tcp.c:1581:0
	.fnstart
	.cfi_startproc
@ %bb.0:
	@DEBUG_VALUE: tcp_accept:pcb <- $r0
	@DEBUG_VALUE: tcp_accept:pcb <- $r0
	@DEBUG_VALUE: tcp_accept:accept <- $r1
	@DEBUG_VALUE: tcp_accept:accept <- $r1
	.loc	1 1584 17 prologue_end  @ ../Libraries/lwip-1.4.1/src/core/tcp.c:1584:17
	str	r1, [r0, #20]
	.loc	1 1585 1                @ ../Libraries/lwip-1.4.1/src/core/tcp.c:1585:1
	bx	lr
.Ltmp614:
.Lfunc_end32:
	.size	tcp_accept, .Lfunc_end32-tcp_accept
	.cfi_endproc
	.cantunwind
	.fnend
                                        @ -- End function
	.section	.text.tcp_poll,"ax",%progbits
	.hidden	tcp_poll                @ -- Begin function tcp_poll
	.globl	tcp_poll
	.p2align	1
	.type	tcp_poll,%function
	.code	16                      @ @tcp_poll
	.thumb_func
tcp_poll:
.Lfunc_begin33:
	.loc	1 1596 0                @ ../Libraries/lwip-1.4.1/src/core/tcp.c:1596:0
	.fnstart
	.cfi_startproc
@ %bb.0:
	@DEBUG_VALUE: tcp_poll:pcb <- $r0
	@DEBUG_VALUE: tcp_poll:pcb <- $r0
	@DEBUG_VALUE: tcp_poll:poll <- $r1
	@DEBUG_VALUE: tcp_poll:poll <- $r1
	@DEBUG_VALUE: tcp_poll:interval <- $r2
	@DEBUG_VALUE: tcp_poll:interval <- $r2
	.loc	1 1603 23 prologue_end  @ ../Libraries/lwip-1.4.1/src/core/tcp.c:1603:23
	strb.w	r2, [r0, #32]
	.loc	1 1599 15               @ ../Libraries/lwip-1.4.1/src/core/tcp.c:1599:15
	str.w	r1, [r0, #136]
	.loc	1 1604 1                @ ../Libraries/lwip-1.4.1/src/core/tcp.c:1604:1
	bx	lr
.Ltmp615:
.Lfunc_end33:
	.size	tcp_poll, .Lfunc_end33-tcp_poll
	.cfi_endproc
	.cantunwind
	.fnend
                                        @ -- End function
	.section	.text.tcp_debug_state_str,"ax",%progbits
	.hidden	tcp_debug_state_str     @ -- Begin function tcp_debug_state_str
	.globl	tcp_debug_state_str
	.p2align	1
	.type	tcp_debug_state_str,%function
	.code	16                      @ @tcp_debug_state_str
	.thumb_func
tcp_debug_state_str:
.Lfunc_begin34:
	.loc	1 1761 0                @ ../Libraries/lwip-1.4.1/src/core/tcp.c:1761:0
	.fnstart
	.cfi_startproc
@ %bb.0:
	@DEBUG_VALUE: tcp_debug_state_str:s <- $r0
	@DEBUG_VALUE: tcp_debug_state_str:s <- $r0
	.loc	1 1762 12 prologue_end  @ ../Libraries/lwip-1.4.1/src/core/tcp.c:1762:12
	movw	r1, :lower16:tcp_state_str
	movt	r1, :upper16:tcp_state_str
	ldr.w	r0, [r1, r0, lsl #2]
.Ltmp616:
	.loc	1 1762 5 is_stmt 0      @ ../Libraries/lwip-1.4.1/src/core/tcp.c:1762:5
	bx	lr
.Ltmp617:
.Lfunc_end34:
	.size	tcp_debug_state_str, .Lfunc_end34-tcp_debug_state_str
	.cfi_endproc
	.cantunwind
	.fnend
                                        @ -- End function
	.type	.L.str,%object          @ @.str
	.section	.rodata.str1.1,"aMS",%progbits,1
.L.str:
	.asciz	"CLOSED"
	.size	.L.str, 7

	.type	.L.str.1,%object        @ @.str.1
.L.str.1:
	.asciz	"LISTEN"
	.size	.L.str.1, 7

	.type	.L.str.2,%object        @ @.str.2
.L.str.2:
	.asciz	"SYN_SENT"
	.size	.L.str.2, 9

	.type	.L.str.3,%object        @ @.str.3
.L.str.3:
	.asciz	"SYN_RCVD"
	.size	.L.str.3, 9

	.type	.L.str.4,%object        @ @.str.4
.L.str.4:
	.asciz	"ESTABLISHED"
	.size	.L.str.4, 12

	.type	.L.str.5,%object        @ @.str.5
.L.str.5:
	.asciz	"FIN_WAIT_1"
	.size	.L.str.5, 11

	.type	.L.str.6,%object        @ @.str.6
.L.str.6:
	.asciz	"FIN_WAIT_2"
	.size	.L.str.6, 11

	.type	.L.str.7,%object        @ @.str.7
.L.str.7:
	.asciz	"CLOSE_WAIT"
	.size	.L.str.7, 11

	.type	.L.str.8,%object        @ @.str.8
.L.str.8:
	.asciz	"CLOSING"
	.size	.L.str.8, 8

	.type	.L.str.9,%object        @ @.str.9
.L.str.9:
	.asciz	"LAST_ACK"
	.size	.L.str.9, 9

	.type	.L.str.10,%object       @ @.str.10
.L.str.10:
	.asciz	"TIME_WAIT"
	.size	.L.str.10, 10

	.hidden	tcp_state_str           @ @tcp_state_str
	.type	tcp_state_str,%object
	.section	.rodata.tcp_state_str,"a",%progbits
	.globl	tcp_state_str
	.p2align	2
tcp_state_str:
	.long	.L.str
	.long	.L.str.1
	.long	.L.str.2
	.long	.L.str.3
	.long	.L.str.4
	.long	.L.str.5
	.long	.L.str.6
	.long	.L.str.7
	.long	.L.str.8
	.long	.L.str.9
	.long	.L.str.10
	.size	tcp_state_str, 44

	.hidden	tcp_backoff             @ @tcp_backoff
	.type	tcp_backoff,%object
	.section	.rodata.tcp_backoff,"a",%progbits
	.globl	tcp_backoff
tcp_backoff:
	.ascii	"\001\002\003\004\005\006\007\007\007\007\007\007\007"
	.size	tcp_backoff, 13

	.hidden	tcp_persist_backoff     @ @tcp_persist_backoff
	.type	tcp_persist_backoff,%object
	.section	.rodata.tcp_persist_backoff,"a",%progbits
	.globl	tcp_persist_backoff
tcp_persist_backoff:
	.ascii	"\003\006\f\0300`x"
	.size	tcp_persist_backoff, 7

	.hidden	tcp_listen_pcbs         @ @tcp_listen_pcbs
	.type	tcp_listen_pcbs,%object
	.section	.bss.tcp_listen_pcbs,"aw",%nobits
	.globl	tcp_listen_pcbs
	.p2align	2
tcp_listen_pcbs:
	.zero	4
	.size	tcp_listen_pcbs, 4

	.hidden	tcp_bound_pcbs          @ @tcp_bound_pcbs
	.type	tcp_bound_pcbs,%object
	.section	.bss.tcp_bound_pcbs,"aw",%nobits
	.globl	tcp_bound_pcbs
	.p2align	2
tcp_bound_pcbs:
	.long	0
	.size	tcp_bound_pcbs, 4

	.hidden	tcp_active_pcbs         @ @tcp_active_pcbs
	.type	tcp_active_pcbs,%object
	.section	.bss.tcp_active_pcbs,"aw",%nobits
	.globl	tcp_active_pcbs
	.p2align	2
tcp_active_pcbs:
	.long	0
	.size	tcp_active_pcbs, 4

	.hidden	tcp_tw_pcbs             @ @tcp_tw_pcbs
	.type	tcp_tw_pcbs,%object
	.section	.bss.tcp_tw_pcbs,"aw",%nobits
	.globl	tcp_tw_pcbs
	.p2align	2
tcp_tw_pcbs:
	.long	0
	.size	tcp_tw_pcbs, 4

	.hidden	tcp_pcb_lists           @ @tcp_pcb_lists
	.type	tcp_pcb_lists,%object
	.section	.rodata.tcp_pcb_lists,"a",%progbits
	.globl	tcp_pcb_lists
	.p2align	2
tcp_pcb_lists:
	.long	tcp_listen_pcbs
	.long	tcp_bound_pcbs
	.long	tcp_active_pcbs
	.long	tcp_tw_pcbs
	.size	tcp_pcb_lists, 16

	.type	tcp_timer,%object       @ @tcp_timer
	.section	.bss.tcp_timer,"aw",%nobits
tcp_timer:
	.byte	0                       @ 0x0
	.size	tcp_timer, 1

	.hidden	tcp_active_pcbs_changed @ @tcp_active_pcbs_changed
	.type	tcp_active_pcbs_changed,%object
	.section	.bss.tcp_active_pcbs_changed,"aw",%nobits
	.globl	tcp_active_pcbs_changed
tcp_active_pcbs_changed:
	.byte	0                       @ 0x0
	.size	tcp_active_pcbs_changed, 1

	.hidden	tcp_tmp_pcb             @ @tcp_tmp_pcb
	.type	tcp_tmp_pcb,%object
	.section	.bss.tcp_tmp_pcb,"aw",%nobits
	.globl	tcp_tmp_pcb
	.p2align	2
tcp_tmp_pcb:
	.long	0
	.size	tcp_tmp_pcb, 4

	.hidden	tcp_ticks               @ @tcp_ticks
	.type	tcp_ticks,%object
	.section	.bss.tcp_ticks,"aw",%nobits
	.globl	tcp_ticks
	.p2align	2
tcp_ticks:
	.long	0                       @ 0x0
	.size	tcp_ticks, 4

	.type	tcp_timer_ctr,%object   @ @tcp_timer_ctr
	.section	.bss.tcp_timer_ctr,"aw",%nobits
tcp_timer_ctr:
	.byte	0                       @ 0x0
	.size	tcp_timer_ctr, 1

	.type	tcp_next_iss.iss,%object @ @tcp_next_iss.iss
	.section	.data.tcp_next_iss.iss,"aw",%progbits
	.p2align	2
tcp_next_iss.iss:
	.long	6510                    @ 0x196e
	.size	tcp_next_iss.iss, 4

	.type	tcp_port,%object        @ @tcp_port
	.section	.data.tcp_port,"aw",%progbits
	.p2align	1
tcp_port:
	.short	49152                   @ 0xc000
	.size	tcp_port, 2

	.section	".note.GNU-stack","",%progbits
	.eabi_attribute	30, 3	@ Tag_ABI_optimization_goals
	.ARM_attribute	16, 1	@ Tag_AV_eba