	.text
	.syntax unified
	.eabi_attribute	67, "2.09"	@ Tag_conformance
	.cpu	cortex-m4
	.eabi_attribute	6, 13	@ Tag_CPU_arch
	.eabi_attribute	7, 77	@ Tag_CPU_arch_profile
	.eabi_attribute	8, 0	@ Tag_ARM_ISA_use
	.eabi_attribute	9, 2	@ Tag_THUMB_ISA_use
	.fpu	fpv4-sp-d16
	.eabi_attribute	27, 1	@ Tag_ABI_HardFP_use
	.eabi_attribute	36, 1	@ Tag_FP_HP_extension
	.eabi_attribute	34, 1	@ Tag_CPU_unaligned_access
	.eabi_attribute	17, 1	@ Tag_ABI_PCS_GOT_use
	.eabi_attribute	20, 2	@ Tag_ABI_FP_denormal
	.eabi_attribute	21, 0	@ Tag_ABI_FP_exceptions
	.eabi_attribute	23, 1	@ Tag_ABI_FP_number_model
	.eabi_attribute	24, 1	@ Tag_ABI_align_needed
	.eabi_attribute	25, 1	@ Tag_ABI_align_preserved
	.eabi_attribute	28, 1	@ Tag_ABI_VFP_args
	.eabi_attribute	38, 1	@ Tag_ABI_FP_16bit_format
	.eabi_attribute	18, 2	@ Tag_ABI_PCS_wchar_t
	.eabi_attribute	26, 1	@ Tag_ABI_enum_size
	.eabi_attribute	14, 0	@ Tag_ABI_PCS_R9_use
	.file	"tcp_out.c"
	.file	1 "F:\\SkyDrive\\OtvoreniProjekti\\HotelSaplast\\fw\\KontrolerHotela\\HC070318\\Project" "../Libraries/lwip-1.4.1/src/include\\lwip/tcp.h"
	.file	2 "F:\\SkyDrive\\OtvoreniProjekti\\HotelSaplast\\fw\\KontrolerHotela\\HC070318\\Project" "../Libraries/lwip-1.4.1/src/include\\lwip/pbuf.h"
	.file	3 "F:\\SkyDrive\\OtvoreniProjekti\\HotelSaplast\\fw\\KontrolerHotela\\HC070318\\Project" "../Libraries/lwip-1.4.1/src/include\\lwip/memp.h"
	.file	4 "F:\\SkyDrive\\OtvoreniProjekti\\HotelSaplast\\fw\\KontrolerHotela\\HC070318\\Project" "../Libraries/lwip-1.4.1/port/arch\\cc.h"
	.file	5 "F:\\SkyDrive\\OtvoreniProjekti\\HotelSaplast\\fw\\KontrolerHotela\\HC070318\\Project" "../Libraries/lwip-1.4.1/src/include\\lwip/tcp_impl.h"
	.section	.text.tcp_send_fin,"ax",%progbits
	.hidden	tcp_send_fin            @ -- Begin function tcp_send_fin
	.globl	tcp_send_fin
	.p2align	1
	.type	tcp_send_fin,%function
	.code	16                      @ @tcp_send_fin
	.thumb_func
tcp_send_fin:
.Lfunc_begin0:
	.file	6 "F:\\SkyDrive\\OtvoreniProjekti\\HotelSaplast\\fw\\KontrolerHotela\\HC070318\\Project" "../Libraries/lwip-1.4.1/src/core/tcp_out.c"
	.loc	6 127 0                 @ ../Libraries/lwip-1.4.1/src/core/tcp_out.c:127:0
	.fnstart
	.cfi_sections .debug_frame
	.cfi_startproc
@ %bb.0:
	.save	{r4, r5, r6, lr}
	push	{r4, r5, r6, lr}
	.cfi_def_cfa_offset 16
	.cfi_offset lr, -4
	.cfi_offset r6, -8
	.cfi_offset r5, -12
	.cfi_offset r4, -16
	@DEBUG_VALUE: tcp_send_fin:pcb <- $r0
	mov	r4, r0
.Ltmp0:
	@DEBUG_VALUE: tcp_send_fin:pcb <- $r4
	.loc	6 129 14 prologue_end   @ ../Libraries/lwip-1.4.1/src/core/tcp_out.c:129:14
	ldr	r0, [r0, #108]
.Ltmp1:
	.loc	6 129 9 is_stmt 0       @ ../Libraries/lwip-1.4.1/src/core/tcp_out.c:129:9
	cbz	r0, .LBB0_3
.Ltmp2:
	.p2align	2
.LBB0_1:                                @ =>This Inner Loop Header: Depth=1
	@DEBUG_VALUE: tcp_send_fin:pcb <- $r4
	.loc	6 0 0                   @ ../Libraries/lwip-1.4.1/src/core/tcp_out.c:0:0
	mov	r5, r0
.Ltmp3:
	@DEBUG_VALUE: last_unsent <- $r5
	.loc	6 132 54 is_stmt 1      @ ../Libraries/lwip-1.4.1/src/core/tcp_out.c:132:54
	ldr	r0, [r0]
.Ltmp4:
	.loc	6 132 9 is_stmt 0       @ ../Libraries/lwip-1.4.1/src/core/tcp_out.c:132:9
	cmp	r0, #0
	bne	.LBB0_1
.Ltmp5:
@ %bb.2:
	@DEBUG_VALUE: last_unsent <- $r5
	@DEBUG_VALUE: tcp_send_fin:pcb <- $r4
	.loc	6 135 14 is_stmt 1      @ ../Libraries/lwip-1.4.1/src/core/tcp_out.c:135:14
	ldr	r0, [r5, #16]
	ldrh	r0, [r0, #12]
	bl	lwip_ntohs
.Ltmp6:
	.loc	6 135 13 is_stmt 0      @ ../Libraries/lwip-1.4.1/src/core/tcp_out.c:135:13
	lsls	r0, r0, #29
	beq	.LBB0_4
.Ltmp7:
.LBB0_3:
	@DEBUG_VALUE: tcp_send_fin:pcb <- $r4
	.loc	6 144 12 is_stmt 1      @ ../Libraries/lwip-1.4.1/src/core/tcp_out.c:144:12
	mov	r0, r4
	movs	r1, #1
	pop.w	{r4, r5, r6, lr}
.Ltmp8:
	b	tcp_enqueue_flags
.LBB0_4:
.Ltmp9:
	@DEBUG_VALUE: last_unsent <- $r5
	@DEBUG_VALUE: tcp_send_fin:pcb <- $r4
	.loc	6 138 13                @ ../Libraries/lwip-1.4.1/src/core/tcp_out.c:138:13
	ldr	r0, [r5, #16]
	ldrh	r6, [r0, #12]
	movs	r0, #1
	bl	lwip_htons
	ldr	r1, [r5, #16]
	orrs	r0, r6
	strh	r0, [r1, #12]
	.loc	6 139 24                @ ../Libraries/lwip-1.4.1/src/core/tcp_out.c:139:24
	ldrb	r0, [r4, #30]
	orr	r0, r0, #32
	strb	r0, [r4, #30]
.Ltmp10:
	.loc	6 145 1                 @ ../Libraries/lwip-1.4.1/src/core/tcp_out.c:145:1
	movs	r0, #0
	pop	{r4, r5, r6, pc}
.Ltmp11:
.Lfunc_end0:
	.size	tcp_send_fin, .Lfunc_end0-tcp_send_fin
	.cfi_endproc
	.cantunwind
	.fnend
                                        @ -- End function
	.section	.text.tcp_enqueue_flags,"ax",%progbits
	.hidden	tcp_enqueue_flags       @ -- Begin function tcp_enqueue_flags
	.globl	tcp_enqueue_flags
	.p2align	1
	.type	tcp_enqueue_flags,%function
	.code	16                      @ @tcp_enqueue_flags
	.thumb_func
tcp_enqueue_flags:
.Lfunc_begin1:
	.loc	6 779 0                 @ ../Libraries/lwip-1.4.1/src/core/tcp_out.c:779:0
	.fnstart
	.cfi_startproc
@ %bb.0:
	.save	{r4, r5, r6, lr}
	push	{r4, r5, r6, lr}
	.cfi_def_cfa_offset 16
	.cfi_offset lr, -4
	.cfi_offset r6, -8
	.cfi_offset r5, -12
	.cfi_offset r4, -16
	.pad	#8
	sub	sp, #8
	.cfi_def_cfa_offset 24
	@DEBUG_VALUE: tcp_enqueue_flags:pcb <- $r0
	@DEBUG_VALUE: tcp_enqueue_flags:flags <- $r1
	mov	r4, r0
.Ltmp12:
	@DEBUG_VALUE: tcp_enqueue_flags:pcb <- $r4
	.loc	6 791 15 prologue_end   @ ../Libraries/lwip-1.4.1/src/core/tcp_out.c:791:15
	ldrh.w	r0, [r0, #104]
.Ltmp13:
	@DEBUG_VALUE: tcp_enqueue_flags:optlen <- 0
	@DEBUG_VALUE: tcp_enqueue_flags:optflags <- 0
	.loc	6 791 49 is_stmt 0      @ ../Libraries/lwip-1.4.1/src/core/tcp_out.c:791:49
	cmp	r0, #8
	blo	.LBB1_2
.Ltmp14:
.LBB1_1:
	@DEBUG_VALUE: tcp_enqueue_flags:pcb <- $r4
	.loc	6 0 0                   @ ../Libraries/lwip-1.4.1/src/core/tcp_out.c:0:0
	ldrb	r0, [r4, #30]
	orr	r0, r0, #128
	strb	r0, [r4, #30]
	b	.LBB1_13
.Ltmp15:
.LBB1_2:
	@DEBUG_VALUE: tcp_enqueue_flags:pcb <- $r4
	@DEBUG_VALUE: tcp_enqueue_flags:flags <- $r1
	.loc	6 800 9 is_stmt 1       @ ../Libraries/lwip-1.4.1/src/core/tcp_out.c:800:9
	ubfx	r6, r1, #1, #1
.Ltmp16:
	@DEBUG_VALUE: tcp_enqueue_flags:optflags <- $r6
	.loc	6 816 14                @ ../Libraries/lwip-1.4.1/src/core/tcp_out.c:816:14
	ldrh.w	r0, [r4, #102]
	mov	r5, r1
.Ltmp17:
	@DEBUG_VALUE: tcp_enqueue_flags:flags <- $r5
	@DEBUG_VALUE: tcp_enqueue_flags:flags <- $r5
	.loc	6 816 9 is_stmt 0       @ ../Libraries/lwip-1.4.1/src/core/tcp_out.c:816:9
	cbz	r0, .LBB1_13
.Ltmp18:
@ %bb.3:
	@DEBUG_VALUE: tcp_enqueue_flags:flags <- $r5
	@DEBUG_VALUE: tcp_enqueue_flags:optflags <- $r6
	@DEBUG_VALUE: tcp_enqueue_flags:pcb <- $r4
	.loc	6 810 14 is_stmt 1      @ ../Libraries/lwip-1.4.1/src/core/tcp_out.c:810:14
	lsls	r1, r6, #2
.Ltmp19:
	@DEBUG_VALUE: tcp_enqueue_flags:optlen <- $r1
	.loc	6 824 14                @ ../Libraries/lwip-1.4.1/src/core/tcp_out.c:824:14
	movs	r0, #0
	movs	r2, #0
	bl	pbuf_alloc
.Ltmp20:
	.loc	6 824 9 is_stmt 0       @ ../Libraries/lwip-1.4.1/src/core/tcp_out.c:824:9
	cmp	r0, #0
	beq	.LBB1_1
.Ltmp21:
@ %bb.4:
	@DEBUG_VALUE: tcp_enqueue_flags:flags <- $r5
	@DEBUG_VALUE: tcp_enqueue_flags:optflags <- $r6
	@DEBUG_VALUE: tcp_enqueue_flags:pcb <- $r4
	.loc	6 834 55 is_stmt 1      @ ../Libraries/lwip-1.4.1/src/core/tcp_out.c:834:55
	ldr	r3, [r4, #92]
.Ltmp22:
	.loc	6 0 0 is_stmt 0         @ ../Libraries/lwip-1.4.1/src/core/tcp_out.c:0:0
	mov	r1, r0
.Ltmp23:
	@DEBUG_VALUE: tcp_enqueue_flags:p <- $r1
	.loc	6 834 16                @ ../Libraries/lwip-1.4.1/src/core/tcp_out.c:834:16
	mov	r0, r4
	mov	r2, r5
	str	r6, [sp]
	bl	tcp_create_segment
.Ltmp24:
	@DEBUG_VALUE: tcp_enqueue_flags:seg <- $r0
	.loc	6 834 9                 @ ../Libraries/lwip-1.4.1/src/core/tcp_out.c:834:9
	cmp	r0, #0
	beq	.LBB1_1
.Ltmp25:
@ %bb.5:
	@DEBUG_VALUE: tcp_enqueue_flags:seg <- $r0
	@DEBUG_VALUE: tcp_enqueue_flags:flags <- $r5
	@DEBUG_VALUE: tcp_enqueue_flags:optflags <- $r6
	@DEBUG_VALUE: tcp_enqueue_flags:pcb <- $r4
	.loc	6 850 14 is_stmt 1      @ ../Libraries/lwip-1.4.1/src/core/tcp_out.c:850:14
	mov	r1, r4
	ldr	r2, [r1, #108]!
	b	.LBB1_7
.Ltmp26:
	.p2align	2
.LBB1_6:                                @   in Loop: Header=BB1_7 Depth=1
	@DEBUG_VALUE: tcp_enqueue_flags:seg <- $r0
	@DEBUG_VALUE: tcp_enqueue_flags:flags <- $r5
	@DEBUG_VALUE: tcp_enqueue_flags:optflags <- $r6
	@DEBUG_VALUE: tcp_enqueue_flags:pcb <- $r4
	.loc	6 0 0 is_stmt 0         @ ../Libraries/lwip-1.4.1/src/core/tcp_out.c:0:0
	mov	r1, r2
.Ltmp27:
	@DEBUG_VALUE: useg <- $r1
	.loc	6 857 40 is_stmt 1      @ ../Libraries/lwip-1.4.1/src/core/tcp_out.c:857:40
	ldr	r2, [r2]
.Ltmp28:
.LBB1_7:                                @ =>This Inner Loop Header: Depth=1
	@DEBUG_VALUE: tcp_enqueue_flags:seg <- $r0
	@DEBUG_VALUE: tcp_enqueue_flags:flags <- $r5
	@DEBUG_VALUE: tcp_enqueue_flags:optflags <- $r6
	@DEBUG_VALUE: tcp_enqueue_flags:pcb <- $r4
	.loc	6 0 0 is_stmt 0         @ ../Libraries/lwip-1.4.1/src/core/tcp_out.c:0:0
	cmp	r2, #0
	bne	.LBB1_6
.Ltmp29:
@ %bb.8:
	@DEBUG_VALUE: tcp_enqueue_flags:seg <- $r0
	@DEBUG_VALUE: tcp_enqueue_flags:flags <- $r5
	@DEBUG_VALUE: tcp_enqueue_flags:optflags <- $r6
	@DEBUG_VALUE: tcp_enqueue_flags:pcb <- $r4
	str	r0, [r1]
	movs	r1, #0
.Ltmp30:
	.loc	6 866 27 is_stmt 1      @ ../Libraries/lwip-1.4.1/src/core/tcp_out.c:866:27
	lsls	r2, r5, #30
.Ltmp31:
	.loc	6 862 26                @ ../Libraries/lwip-1.4.1/src/core/tcp_out.c:862:26
	strh.w	r1, [r4, #106]
.Ltmp32:
	.loc	6 866 37                @ ../Libraries/lwip-1.4.1/src/core/tcp_out.c:866:37
	and	r1, r5, #1
	.loc	6 866 27 is_stmt 0      @ ../Libraries/lwip-1.4.1/src/core/tcp_out.c:866:27
	beq	.LBB1_10
.Ltmp33:
@ %bb.9:
	@DEBUG_VALUE: tcp_enqueue_flags:seg <- $r0
	@DEBUG_VALUE: tcp_enqueue_flags:flags <- $r5
	@DEBUG_VALUE: tcp_enqueue_flags:optflags <- $r6
	@DEBUG_VALUE: tcp_enqueue_flags:pcb <- $r4
	.loc	6 868 21 is_stmt 1      @ ../Libraries/lwip-1.4.1/src/core/tcp_out.c:868:21
	ldr	r2, [r4, #92]
	adds	r2, #1
	str	r2, [r4, #92]
	.loc	6 870 21                @ ../Libraries/lwip-1.4.1/src/core/tcp_out.c:870:21
	ldrh.w	r2, [r4, #102]
	subs	r2, #1
	strh.w	r2, [r4, #102]
.Ltmp34:
.LBB1_10:
	@DEBUG_VALUE: tcp_enqueue_flags:seg <- $r0
	@DEBUG_VALUE: tcp_enqueue_flags:flags <- $r5
	@DEBUG_VALUE: tcp_enqueue_flags:optflags <- $r6
	@DEBUG_VALUE: tcp_enqueue_flags:pcb <- $r4
	.loc	6 872 9                 @ ../Libraries/lwip-1.4.1/src/core/tcp_out.c:872:9
	cbz	r1, .LBB1_12
.Ltmp35:
@ %bb.11:
	@DEBUG_VALUE: tcp_enqueue_flags:seg <- $r0
	@DEBUG_VALUE: tcp_enqueue_flags:flags <- $r5
	@DEBUG_VALUE: tcp_enqueue_flags:optflags <- $r6
	@DEBUG_VALUE: tcp_enqueue_flags:pcb <- $r4
	.loc	6 874 20                @ ../Libraries/lwip-1.4.1/src/core/tcp_out.c:874:20
	ldrb	r1, [r4, #30]
	orr	r1, r1, #32
	strb	r1, [r4, #30]
.Ltmp36:
.LBB1_12:
	@DEBUG_VALUE: tcp_enqueue_flags:seg <- $r0
	@DEBUG_VALUE: tcp_enqueue_flags:flags <- $r5
	@DEBUG_VALUE: tcp_enqueue_flags:optflags <- $r6
	@DEBUG_VALUE: tcp_enqueue_flags:pcb <- $r4
	.loc	6 878 41                @ ../Libraries/lwip-1.4.1/src/core/tcp_out.c:878:41
	ldr	r0, [r0, #4]
.Ltmp37:
	.loc	6 878 26 is_stmt 0      @ ../Libraries/lwip-1.4.1/src/core/tcp_out.c:878:26
	bl	pbuf_clen
	.loc	6 878 23                @ ../Libraries/lwip-1.4.1/src/core/tcp_out.c:878:23
	ldrh.w	r1, [r4, #104]
	add	r0, r1
	strh.w	r0, [r4, #104]
	movs	r0, #0
	b	.LBB1_14
.Ltmp38:
.LBB1_13:
	@DEBUG_VALUE: tcp_enqueue_flags:pcb <- $r4
	.loc	6 0 23                  @ ../Libraries/lwip-1.4.1/src/core/tcp_out.c:0:23
	movs	r0, #255
.Ltmp39:
.LBB1_14:
	@DEBUG_VALUE: tcp_enqueue_flags:pcb <- $r4
	.loc	6 887 1 is_stmt 1       @ ../Libraries/lwip-1.4.1/src/core/tcp_out.c:887:1
	sxtb	r0, r0
	add	sp, #8
	pop	{r4, r5, r6, pc}
.Ltmp40:
.Lfunc_end1:
	.size	tcp_enqueue_flags, .Lfunc_end1-tcp_enqueue_flags
	.cfi_endproc
	.cantunwind
	.fnend
                                        @ -- End function
	.section	.text.tcp_write,"ax",%progbits
	.hidden	tcp_write               @ -- Begin function tcp_write
	.globl	tcp_write
	.p2align	1
	.type	tcp_write,%function
	.code	16                      @ @tcp_write
	.thumb_func
tcp_write:
.Lfunc_begin2:
	.loc	6 374 0                 @ ../Libraries/lwip-1.4.1/src/core/tcp_out.c:374:0
	.fnstart
	.cfi_startproc
@ %bb.0:
	.save	{r4, r5, r6, r7, r8, r9, r10, r11, lr}
	push.w	{r4, r5, r6, r7, r8, r9, r10, r11, lr}
	.cfi_def_cfa_offset 36
	.cfi_offset lr, -4
	.cfi_offset r11, -8
	.cfi_offset r10, -12
	.cfi_offset r9, -16
	.cfi_offset r8, -20
	.cfi_offset r7, -24
	.cfi_offset r6, -28
	.cfi_offset r5, -32
	.cfi_offset r4, -36
	.pad	#76
	sub	sp, #76
	.cfi_def_cfa_offset 112
	@DEBUG_VALUE: tcp_write:pcb <- $r0
	@DEBUG_VALUE: tcp_write:arg <- $r1
	@DEBUG_VALUE: tcp_write:len <- $r2
	@DEBUG_VALUE: tcp_write:apiflags <- $r3
.Ltmp41:
	@DEBUG_VALUE: tcp_write_checks:pcb <- $r0
	mov	r5, r0
.Ltmp42:
	@DEBUG_VALUE: tcp_write_checks:pcb <- $r5
	movs	r0, #0
.Ltmp43:
	@DEBUG_VALUE: tcp_write:oversize <- 0
	@DEBUG_VALUE: tcp_write:optflags <- 0
	@DEBUG_VALUE: tcp_write:optlen <- 0
	@DEBUG_VALUE: tcp_write:pos <- 0
	@DEBUG_VALUE: tcp_write:queue <- 0
	@DEBUG_VALUE: tcp_write:prev_seg <- 0
	@DEBUG_VALUE: tcp_write:seg <- 0
	@DEBUG_VALUE: tcp_write:last_unsent <- 0
	@DEBUG_VALUE: tcp_write:concat_p <- 0
	@DEBUG_VALUE: tcp_write:len <- $r7
	@DEBUG_VALUE: tcp_write:arg <- $r1
	@DEBUG_VALUE: tcp_write:pcb <- $r5
	mov	r7, r2
.Ltmp44:
	.loc	6 382 11 prologue_end   @ ../Libraries/lwip-1.4.1/src/core/tcp_out.c:382:11
	strh.w	r0, [sp, #74]
.Ltmp45:
	@DEBUG_VALUE: tcp_write:concat_chksummed <- 0
	@DEBUG_VALUE: tcp_write:concat_chksum_swapped <- 0
	@DEBUG_VALUE: tcp_write:concat_chksum <- 0
	@DEBUG_VALUE: tcp_write:oversize_used <- 0
	.loc	6 392 23                @ ../Libraries/lwip-1.4.1/src/core/tcp_out.c:392:23
	ldrh	r2, [r5, #54]
	ldrh.w	r0, [r5, #98]
	cmp.w	r2, r0, lsr #1
	it	hs
	lsrhs	r2, r0, #1
.Ltmp46:
	@DEBUG_VALUE: tcp_write_checks:len <- $r7
	@DEBUG_VALUE: tcp_write:mss_local <- $r2
	@DEBUG_VALUE: max_len <- $r2
	.loc	6 0 23 is_stmt 0        @ ../Libraries/lwip-1.4.1/src/core/tcp_out.c:0:23
	str	r1, [sp, #68]           @ 4-byte Spill
.Ltmp47:
	@DEBUG_VALUE: tcp_write:arg <- [DW_OP_plus_uconst 68] [$sp+0]
	.loc	6 401 5 is_stmt 1       @ ../Libraries/lwip-1.4.1/src/core/tcp_out.c:401:5
	cbz	r1, .LBB2_7
.Ltmp48:
@ %bb.1:
	@DEBUG_VALUE: tcp_write:arg <- [DW_OP_plus_uconst 68] [$sp+0]
	@DEBUG_VALUE: tcp_write:mss_local <- $r2
	@DEBUG_VALUE: tcp_write_checks:len <- $r7
	@DEBUG_VALUE: tcp_write:pcb <- $r5
	@DEBUG_VALUE: tcp_write_checks:pcb <- $r5
	@DEBUG_VALUE: tcp_write:apiflags <- $r3
	.loc	6 308 15                @ ../Libraries/lwip-1.4.1/src/core/tcp_out.c:308:15
	ldrb	r1, [r5, #24]
	movs	r0, #243
	.loc	6 308 37 is_stmt 0      @ ../Libraries/lwip-1.4.1/src/core/tcp_out.c:308:37
	cmp	r1, #7
	bhi.w	.LBB2_68
.Ltmp49:
@ %bb.2:
	@DEBUG_VALUE: tcp_write:arg <- [DW_OP_plus_uconst 68] [$sp+0]
	@DEBUG_VALUE: tcp_write:mss_local <- $r2
	@DEBUG_VALUE: tcp_write:pcb <- $r5
	@DEBUG_VALUE: tcp_write:apiflags <- $r3
	.loc	6 0 37                  @ ../Libraries/lwip-1.4.1/src/core/tcp_out.c:0:37
	mov	r6, r3
.Ltmp50:
	@DEBUG_VALUE: tcp_write:apiflags <- $r6
	@DEBUG_VALUE: tcp_write:apiflags <- $r6
	movs	r3, #1
	lsl.w	r1, r3, r1
	tst.w	r1, #156
	beq.w	.LBB2_68
.Ltmp51:
@ %bb.3:
	@DEBUG_VALUE: tcp_write:apiflags <- $r6
	@DEBUG_VALUE: tcp_write:arg <- [DW_OP_plus_uconst 68] [$sp+0]
	@DEBUG_VALUE: tcp_write:mss_local <- $r2
	@DEBUG_VALUE: tcp_write:pcb <- $r5
	.loc	6 316 14 is_stmt 1      @ ../Libraries/lwip-1.4.1/src/core/tcp_out.c:316:14
	cbz	r7, .LBB2_8
.Ltmp52:
@ %bb.4:
	@DEBUG_VALUE: tcp_write:apiflags <- $r6
	@DEBUG_VALUE: tcp_write:arg <- [DW_OP_plus_uconst 68] [$sp+0]
	@DEBUG_VALUE: tcp_write:mss_local <- $r2
	@DEBUG_VALUE: tcp_write:pcb <- $r5
	.loc	6 322 20                @ ../Libraries/lwip-1.4.1/src/core/tcp_out.c:322:20
	ldrh.w	r0, [r5, #102]
.Ltmp53:
	.loc	6 322 9 is_stmt 0       @ ../Libraries/lwip-1.4.1/src/core/tcp_out.c:322:9
	cmp	r0, r7
	blo	.LBB2_6
.Ltmp54:
@ %bb.5:
	@DEBUG_VALUE: tcp_write:apiflags <- $r6
	@DEBUG_VALUE: tcp_write:arg <- [DW_OP_plus_uconst 68] [$sp+0]
	@DEBUG_VALUE: tcp_write:mss_local <- $r2
	@DEBUG_VALUE: tcp_write:pcb <- $r5
	.loc	6 335 15 is_stmt 1      @ ../Libraries/lwip-1.4.1/src/core/tcp_out.c:335:15
	ldrh.w	r9, [r5, #104]
	.loc	6 335 49 is_stmt 0      @ ../Libraries/lwip-1.4.1/src/core/tcp_out.c:335:49
	cmp.w	r9, #8
	blo	.LBB2_9
.Ltmp55:
.LBB2_6:
	@DEBUG_VALUE: tcp_write:apiflags <- $r6
	@DEBUG_VALUE: tcp_write:arg <- [DW_OP_plus_uconst 68] [$sp+0]
	@DEBUG_VALUE: tcp_write:pcb <- $r5
	.loc	6 0 0                   @ ../Libraries/lwip-1.4.1/src/core/tcp_out.c:0:0
	ldrb	r0, [r5, #30]
	orr	r0, r0, #128
	strb	r0, [r5, #30]
	b	.LBB2_67
.Ltmp56:
.LBB2_7:
	@DEBUG_VALUE: tcp_write:arg <- [DW_OP_plus_uconst 68] [$sp+0]
	@DEBUG_VALUE: max_len <- $r2
	@DEBUG_VALUE: tcp_write:mss_local <- $r2
	@DEBUG_VALUE: tcp_write_checks:len <- $r7
	@DEBUG_VALUE: tcp_write:pcb <- $r5
	@DEBUG_VALUE: tcp_write_checks:pcb <- $r5
	@DEBUG_VALUE: tcp_write:apiflags <- $r3
	movs	r0, #242
	b	.LBB2_68
.Ltmp57:
.LBB2_8:
	@DEBUG_VALUE: tcp_write:apiflags <- $r6
	@DEBUG_VALUE: tcp_write:arg <- [DW_OP_plus_uconst 68] [$sp+0]
	@DEBUG_VALUE: tcp_write:mss_local <- $r2
	@DEBUG_VALUE: tcp_write:pcb <- $r5
	.loc	6 409 21 is_stmt 1      @ ../Libraries/lwip-1.4.1/src/core/tcp_out.c:409:21
	ldrh.w	r9, [r5, #104]
.Ltmp58:
.LBB2_9:
	@DEBUG_VALUE: tcp_write:apiflags <- $r6
	@DEBUG_VALUE: tcp_write:arg <- [DW_OP_plus_uconst 68] [$sp+0]
	@DEBUG_VALUE: tcp_write:mss_local <- $r2
	@DEBUG_VALUE: tcp_write:pcb <- $r5
	@DEBUG_VALUE: tcp_write:err <- 0
	@DEBUG_VALUE: tcp_write:queuelen <- $r9
	.loc	6 443 14                @ ../Libraries/lwip-1.4.1/src/core/tcp_out.c:443:14
	mov	r1, r5
	str	r2, [sp, #44]           @ 4-byte Spill
.Ltmp59:
	.loc	6 443 9 is_stmt 0       @ ../Libraries/lwip-1.4.1/src/core/tcp_out.c:443:9
	str	r5, [sp, #60]           @ 4-byte Spill
.Ltmp60:
	.loc	6 443 14                @ ../Libraries/lwip-1.4.1/src/core/tcp_out.c:443:14
	ldr	r0, [r1, #108]!
.Ltmp61:
	.loc	6 443 9                 @ ../Libraries/lwip-1.4.1/src/core/tcp_out.c:443:9
	cmp	r0, #0
	str	r1, [sp, #20]           @ 4-byte Spill
	beq	.LBB2_13
.Ltmp62:
	.p2align	2
.LBB2_10:                               @ =>This Inner Loop Header: Depth=1
	@DEBUG_VALUE: tcp_write:queuelen <- $r9
	@DEBUG_VALUE: tcp_write:apiflags <- $r6
	@DEBUG_VALUE: tcp_write:arg <- [DW_OP_plus_uconst 68] [$sp+0]
	@DEBUG_VALUE: tcp_write:mss_local <- $r2
	@DEBUG_VALUE: tcp_write:pcb <- $r5
	.loc	6 0 0                   @ ../Libraries/lwip-1.4.1/src/core/tcp_out.c:0:0
	mov	r10, r0
.Ltmp63:
	@DEBUG_VALUE: tcp_write:seg <- $r10
	@DEBUG_VALUE: tcp_write:last_unsent <- $r10
	.loc	6 449 54 is_stmt 1      @ ../Libraries/lwip-1.4.1/src/core/tcp_out.c:449:54
	ldr	r0, [r0]
.Ltmp64:
	.loc	6 449 9 is_stmt 0       @ ../Libraries/lwip-1.4.1/src/core/tcp_out.c:449:9
	cmp	r0, #0
	bne	.LBB2_10
.Ltmp65:
@ %bb.11:
	@DEBUG_VALUE: tcp_write:last_unsent <- $r10
	@DEBUG_VALUE: tcp_write:seg <- $r10
	@DEBUG_VALUE: tcp_write:queuelen <- $r9
	@DEBUG_VALUE: tcp_write:apiflags <- $r6
	@DEBUG_VALUE: tcp_write:arg <- [DW_OP_plus_uconst 68] [$sp+0]
	@DEBUG_VALUE: tcp_write:mss_local <- $r2
	@DEBUG_VALUE: tcp_write:pcb <- $r5
	.loc	6 453 25 is_stmt 1      @ ../Libraries/lwip-1.4.1/src/core/tcp_out.c:453:25
	ldrb.w	r1, [r10, #13]
	movs	r3, #4
	.loc	6 454 43                @ ../Libraries/lwip-1.4.1/src/core/tcp_out.c:454:43
	ldrh.w	r0, [r10, #8]
	.loc	6 469 25                @ ../Libraries/lwip-1.4.1/src/core/tcp_out.c:469:25
	ldrh.w	r4, [r5, #106]
.Ltmp66:
	@DEBUG_VALUE: tcp_write:oversize <- $r4
	.loc	6 453 25                @ ../Libraries/lwip-1.4.1/src/core/tcp_out.c:453:25
	and.w	r3, r3, r1, lsl #2
	lsls	r1, r1, #30
	.loc	6 469 18                @ ../Libraries/lwip-1.4.1/src/core/tcp_out.c:469:18
	strh.w	r4, [sp, #74]
	.loc	6 454 17                @ ../Libraries/lwip-1.4.1/src/core/tcp_out.c:454:17
	sub.w	r1, r2, r0
	.loc	6 453 25                @ ../Libraries/lwip-1.4.1/src/core/tcp_out.c:453:25
	it	mi
	addmi	r3, #12
	.loc	6 470 13                @ ../Libraries/lwip-1.4.1/src/core/tcp_out.c:470:13
	cmp	r4, #0
	.loc	6 454 17                @ ../Libraries/lwip-1.4.1/src/core/tcp_out.c:454:17
	sub.w	r1, r1, r3
.Ltmp67:
	@DEBUG_VALUE: space <- $r1
	.loc	6 470 13                @ ../Libraries/lwip-1.4.1/src/core/tcp_out.c:470:13
	beq	.LBB2_14
.Ltmp68:
@ %bb.12:
	@DEBUG_VALUE: space <- $r1
	@DEBUG_VALUE: tcp_write:oversize <- $r4
	@DEBUG_VALUE: tcp_write:last_unsent <- $r10
	@DEBUG_VALUE: tcp_write:seg <- $r10
	@DEBUG_VALUE: tcp_write:queuelen <- $r9
	@DEBUG_VALUE: tcp_write:apiflags <- $r6
	@DEBUG_VALUE: tcp_write:arg <- [DW_OP_plus_uconst 68] [$sp+0]
	@DEBUG_VALUE: tcp_write:mss_local <- $r2
	@DEBUG_VALUE: tcp_write:pcb <- $r5
	.loc	6 474 29                @ ../Libraries/lwip-1.4.1/src/core/tcp_out.c:474:29
	mov	r8, r7
	cmp	r4, r7
	it	lo
	movlo	r8, r4
.Ltmp69:
	@DEBUG_VALUE: tcp_write:oversize_used <- $r8
	@DEBUG_VALUE: tcp_write:pos <- $r8
	.loc	6 476 22                @ ../Libraries/lwip-1.4.1/src/core/tcp_out.c:476:22
	sub.w	r3, r4, r8
.Ltmp70:
	@DEBUG_VALUE: tcp_write:oversize <- $r3
	.loc	6 477 19                @ ../Libraries/lwip-1.4.1/src/core/tcp_out.c:477:19
	sub.w	r1, r1, r8
.Ltmp71:
	@DEBUG_VALUE: space <- $r1
	.loc	6 0 0 is_stmt 0         @ ../Libraries/lwip-1.4.1/src/core/tcp_out.c:0:0
	mov	r4, r10
.Ltmp72:
	.loc	6 476 22 is_stmt 1      @ ../Libraries/lwip-1.4.1/src/core/tcp_out.c:476:22
	strh.w	r3, [sp, #74]
	b	.LBB2_15
.Ltmp73:
.LBB2_13:
	@DEBUG_VALUE: tcp_write:queuelen <- $r9
	@DEBUG_VALUE: tcp_write:apiflags <- $r6
	@DEBUG_VALUE: tcp_write:arg <- [DW_OP_plus_uconst 68] [$sp+0]
	@DEBUG_VALUE: tcp_write:mss_local <- $r2
	@DEBUG_VALUE: tcp_write:pcb <- $r5
	.loc	6 0 22 is_stmt 0        @ ../Libraries/lwip-1.4.1/src/core/tcp_out.c:0:22
	movs	r0, #0
	mov.w	r8, #0
	movs	r4, #0
	mov.w	r10, #0
	str	r0, [sp, #16]           @ 4-byte Spill
	movs	r0, #0
	.loc	6 388 11 is_stmt 1      @ ../Libraries/lwip-1.4.1/src/core/tcp_out.c:388:11
	str	r0, [sp, #32]           @ 4-byte Spill
	b	.LBB2_24
.Ltmp74:
.LBB2_14:
	@DEBUG_VALUE: space <- $r1
	@DEBUG_VALUE: tcp_write:oversize <- $r4
	@DEBUG_VALUE: tcp_write:last_unsent <- $r10
	@DEBUG_VALUE: tcp_write:seg <- $r10
	@DEBUG_VALUE: tcp_write:queuelen <- $r9
	@DEBUG_VALUE: tcp_write:apiflags <- $r6
	@DEBUG_VALUE: tcp_write:arg <- [DW_OP_plus_uconst 68] [$sp+0]
	@DEBUG_VALUE: tcp_write:mss_local <- $r2
	@DEBUG_VALUE: tcp_write:pcb <- $r5
	.loc	6 0 11 is_stmt 0        @ ../Libraries/lwip-1.4.1/src/core/tcp_out.c:0:11
	mov.w	r8, #0
	movs	r4, #0
.Ltmp75:
.LBB2_15:
	@DEBUG_VALUE: space <- $r1
	@DEBUG_VALUE: tcp_write:last_unsent <- $r10
	@DEBUG_VALUE: tcp_write:seg <- $r10
	@DEBUG_VALUE: tcp_write:queuelen <- $r9
	@DEBUG_VALUE: tcp_write:apiflags <- $r6
	@DEBUG_VALUE: tcp_write:arg <- [DW_OP_plus_uconst 68] [$sp+0]
	@DEBUG_VALUE: tcp_write:mss_local <- $r2
	@DEBUG_VALUE: tcp_write:pcb <- $r5
	@DEBUG_VALUE: tcp_write:seg <- $r4
	@DEBUG_VALUE: tcp_write:pos <- $r8
	@DEBUG_VALUE: tcp_write:oversize_used <- $r8
	@DEBUG_VALUE: tcp_write:oversize <- [DW_OP_plus_uconst 74, DW_OP_deref] $sp
	.loc	6 490 25 is_stmt 1      @ ../Libraries/lwip-1.4.1/src/core/tcp_out.c:490:25
	cmp	r8, r7
	@DEBUG_VALUE: space <- $r1
	str.w	r8, [sp, #32]           @ 4-byte Spill
	bhs	.LBB2_21
.Ltmp76:
@ %bb.16:
	@DEBUG_VALUE: tcp_write:oversize <- [DW_OP_plus_uconst 74, DW_OP_deref] $sp
	@DEBUG_VALUE: tcp_write:seg <- $r4
	@DEBUG_VALUE: tcp_write:pos <- $r8
	@DEBUG_VALUE: tcp_write:oversize_used <- $r8
	@DEBUG_VALUE: space <- $r1
	@DEBUG_VALUE: tcp_write:last_unsent <- $r10
	@DEBUG_VALUE: tcp_write:queuelen <- $r9
	@DEBUG_VALUE: tcp_write:apiflags <- $r6
	@DEBUG_VALUE: tcp_write:arg <- [DW_OP_plus_uconst 68] [$sp+0]
	@DEBUG_VALUE: tcp_write:mss_local <- $r2
	@DEBUG_VALUE: tcp_write:pcb <- $r5
	.loc	6 490 40 is_stmt 0      @ ../Libraries/lwip-1.4.1/src/core/tcp_out.c:490:40
	cbz	r0, .LBB2_22
.Ltmp77:
@ %bb.17:
	@DEBUG_VALUE: tcp_write:oversize <- [DW_OP_plus_uconst 74, DW_OP_deref] $sp
	@DEBUG_VALUE: tcp_write:seg <- $r4
	@DEBUG_VALUE: tcp_write:pos <- $r8
	@DEBUG_VALUE: tcp_write:oversize_used <- $r8
	@DEBUG_VALUE: space <- $r1
	@DEBUG_VALUE: tcp_write:last_unsent <- $r10
	@DEBUG_VALUE: tcp_write:queuelen <- $r9
	@DEBUG_VALUE: tcp_write:apiflags <- $r6
	@DEBUG_VALUE: tcp_write:arg <- [DW_OP_plus_uconst 68] [$sp+0]
	@DEBUG_VALUE: tcp_write:mss_local <- $r2
	@DEBUG_VALUE: tcp_write:pcb <- $r5
	lsls	r0, r1, #16
	beq	.LBB2_22
.Ltmp78:
@ %bb.18:
	@DEBUG_VALUE: tcp_write:oversize <- [DW_OP_plus_uconst 74, DW_OP_deref] $sp
	@DEBUG_VALUE: tcp_write:seg <- $r4
	@DEBUG_VALUE: tcp_write:pos <- $r8
	@DEBUG_VALUE: tcp_write:oversize_used <- $r8
	@DEBUG_VALUE: space <- $r1
	@DEBUG_VALUE: tcp_write:last_unsent <- $r10
	@DEBUG_VALUE: tcp_write:queuelen <- $r9
	@DEBUG_VALUE: tcp_write:apiflags <- $r6
	@DEBUG_VALUE: tcp_write:arg <- [DW_OP_plus_uconst 68] [$sp+0]
	@DEBUG_VALUE: tcp_write:mss_local <- $r2
	@DEBUG_VALUE: tcp_write:pcb <- $r5
	.loc	6 492 40 is_stmt 1      @ ../Libraries/lwip-1.4.1/src/core/tcp_out.c:492:40
	ldr	r0, [sp, #32]           @ 4-byte Reload
.Ltmp79:
	.loc	6 0 0 is_stmt 0         @ ../Libraries/lwip-1.4.1/src/core/tcp_out.c:0:0
	uxth	r2, r1
.Ltmp80:
	.loc	6 492 40                @ ../Libraries/lwip-1.4.1/src/core/tcp_out.c:492:40
	subs	r4, r7, r0
.Ltmp81:
	.loc	6 492 28                @ ../Libraries/lwip-1.4.1/src/core/tcp_out.c:492:28
	cmp	r4, r2
	it	gt
	movgt	r4, r2
	.loc	6 498 17 is_stmt 1      @ ../Libraries/lwip-1.4.1/src/core/tcp_out.c:498:17
	lsls	r0, r6, #31
	bne.w	.LBB2_59
.Ltmp82:
@ %bb.19:
	@DEBUG_VALUE: tcp_write:oversize <- [DW_OP_plus_uconst 74, DW_OP_deref] $sp
	@DEBUG_VALUE: tcp_write:pos <- $r8
	@DEBUG_VALUE: tcp_write:oversize_used <- $r8
	@DEBUG_VALUE: space <- $r1
	@DEBUG_VALUE: tcp_write:last_unsent <- $r10
	@DEBUG_VALUE: tcp_write:queuelen <- $r9
	@DEBUG_VALUE: tcp_write:apiflags <- $r6
	@DEBUG_VALUE: tcp_write:arg <- [DW_OP_plus_uconst 68] [$sp+0]
	@DEBUG_VALUE: tcp_write:pcb <- $r5
	.loc	6 519 33                @ ../Libraries/lwip-1.4.1/src/core/tcp_out.c:519:33
	uxth.w	r8, r4
.Ltmp83:
	movs	r0, #3
	movs	r2, #1
	mov	r1, r8
.Ltmp84:
	bl	pbuf_alloc
.Ltmp85:
	.loc	6 519 21 is_stmt 0      @ ../Libraries/lwip-1.4.1/src/core/tcp_out.c:519:21
	cmp	r0, #0
	beq	.LBB2_6
.Ltmp86:
@ %bb.20:
	@DEBUG_VALUE: tcp_write:oversize <- [DW_OP_plus_uconst 74, DW_OP_deref] $sp
	@DEBUG_VALUE: tcp_write:last_unsent <- $r10
	@DEBUG_VALUE: tcp_write:queuelen <- $r9
	@DEBUG_VALUE: tcp_write:apiflags <- $r6
	@DEBUG_VALUE: tcp_write:arg <- [DW_OP_plus_uconst 68] [$sp+0]
	@DEBUG_VALUE: tcp_write:pcb <- $r5
	.loc	6 0 0                   @ ../Libraries/lwip-1.4.1/src/core/tcp_out.c:0:0
	mov	r11, r0
.Ltmp87:
	@DEBUG_VALUE: tcp_write:concat_p <- $r11
	.loc	6 527 61 is_stmt 1      @ ../Libraries/lwip-1.4.1/src/core/tcp_out.c:527:61
	ldr	r0, [sp, #68]           @ 4-byte Reload
	ldr	r5, [sp, #32]           @ 4-byte Reload
.Ltmp88:
	.loc	6 527 37 is_stmt 0      @ ../Libraries/lwip-1.4.1/src/core/tcp_out.c:527:37
	mov	r1, r8
	.loc	6 527 61                @ ../Libraries/lwip-1.4.1/src/core/tcp_out.c:527:61
	add	r0, r5
	.loc	6 527 37                @ ../Libraries/lwip-1.4.1/src/core/tcp_out.c:527:37
	str	r0, [sp, #64]           @ 4-byte Spill
	bl	inet_chksum
	.loc	6 532 35 is_stmt 1      @ ../Libraries/lwip-1.4.1/src/core/tcp_out.c:532:35
	ldr	r1, [sp, #64]           @ 4-byte Reload
	.loc	6 527 36                @ ../Libraries/lwip-1.4.1/src/core/tcp_out.c:527:36
	mvns	r2, r0
	rev	r0, r2
.Ltmp89:
	@DEBUG_VALUE: tcp_seg_add_chksum:chksum <- $r2
	.loc	6 532 35                @ ../Libraries/lwip-1.4.1/src/core/tcp_out.c:532:35
	str.w	r1, [r11, #4]
.Ltmp90:
	.loc	6 289 9                 @ ../Libraries/lwip-1.4.1/src/core/tcp_out.c:289:9
	lsls	r1, r4, #31
	it	ne
	lsrne	r2, r0, #16
.Ltmp91:
	@DEBUG_VALUE: tcp_seg_add_chksum:chksum <- $r2
	.loc	6 0 9 is_stmt 0         @ ../Libraries/lwip-1.4.1/src/core/tcp_out.c:0:9
	str	r2, [sp, #16]           @ 4-byte Spill
.Ltmp92:
	@DEBUG_VALUE: tcp_seg_add_chksum:chksum <- [DW_OP_plus_uconst 16] [$sp+0]
	@DEBUG_VALUE: tcp_seg_add_chksum:chksum <- [DW_OP_plus_uconst 16] [$sp+0]
	b	.LBB2_61
.Ltmp93:
.LBB2_21:
	@DEBUG_VALUE: tcp_write:oversize <- [DW_OP_plus_uconst 74, DW_OP_deref] $sp
	@DEBUG_VALUE: tcp_write:seg <- $r4
	@DEBUG_VALUE: tcp_write:pos <- $r8
	@DEBUG_VALUE: tcp_write:oversize_used <- $r8
	@DEBUG_VALUE: space <- $r1
	@DEBUG_VALUE: tcp_write:last_unsent <- $r10
	@DEBUG_VALUE: tcp_write:queuelen <- $r9
	@DEBUG_VALUE: tcp_write:apiflags <- $r6
	@DEBUG_VALUE: tcp_write:arg <- [DW_OP_plus_uconst 68] [$sp+0]
	@DEBUG_VALUE: tcp_write:mss_local <- $r2
	@DEBUG_VALUE: tcp_write:pcb <- $r5
	movs	r0, #0
	b	.LBB2_23
.Ltmp94:
.LBB2_22:
	@DEBUG_VALUE: tcp_write:oversize <- [DW_OP_plus_uconst 74, DW_OP_deref] $sp
	@DEBUG_VALUE: tcp_write:seg <- $r4
	@DEBUG_VALUE: tcp_write:pos <- $r8
	@DEBUG_VALUE: tcp_write:oversize_used <- $r8
	@DEBUG_VALUE: space <- $r1
	@DEBUG_VALUE: tcp_write:last_unsent <- $r10
	@DEBUG_VALUE: tcp_write:queuelen <- $r9
	@DEBUG_VALUE: tcp_write:apiflags <- $r6
	@DEBUG_VALUE: tcp_write:arg <- [DW_OP_plus_uconst 68] [$sp+0]
	@DEBUG_VALUE: tcp_write:mss_local <- $r2
	@DEBUG_VALUE: tcp_write:pcb <- $r5
	movs	r0, #0
	ldr.w	r8, [sp, #32]           @ 4-byte Reload
.Ltmp95:
.LBB2_23:
	@DEBUG_VALUE: tcp_write:oversize <- [DW_OP_plus_uconst 74, DW_OP_deref] $sp
	@DEBUG_VALUE: tcp_write:seg <- $r4
	@DEBUG_VALUE: space <- $r1
	@DEBUG_VALUE: tcp_write:last_unsent <- $r10
	@DEBUG_VALUE: tcp_write:queuelen <- $r9
	@DEBUG_VALUE: tcp_write:apiflags <- $r6
	@DEBUG_VALUE: tcp_write:arg <- [DW_OP_plus_uconst 68] [$sp+0]
	@DEBUG_VALUE: tcp_write:mss_local <- $r2
	@DEBUG_VALUE: tcp_write:pcb <- $r5
	str	r0, [sp, #16]           @ 4-byte Spill
.Ltmp96:
.LBB2_24:
	@DEBUG_VALUE: tcp_write:queuelen <- $r9
	@DEBUG_VALUE: tcp_write:apiflags <- $r6
	@DEBUG_VALUE: tcp_write:arg <- [DW_OP_plus_uconst 68] [$sp+0]
	@DEBUG_VALUE: tcp_write:mss_local <- $r2
	@DEBUG_VALUE: tcp_write:pcb <- $r5
	.loc	6 388 11 is_stmt 1      @ ../Libraries/lwip-1.4.1/src/core/tcp_out.c:388:11
	movs	r0, #0
	str	r0, [sp, #24]           @ 4-byte Spill
	.loc	6 0 0 is_stmt 0         @ ../Libraries/lwip-1.4.1/src/core/tcp_out.c:0:0
	movs	r0, #0
	str	r0, [sp, #28]           @ 4-byte Spill
.Ltmp97:
.LBB2_25:
	@DEBUG_VALUE: tcp_write:queuelen <- $r9
	@DEBUG_VALUE: tcp_write:apiflags <- $r6
	@DEBUG_VALUE: tcp_write:arg <- [DW_OP_plus_uconst 68] [$sp+0]
	@DEBUG_VALUE: tcp_write:concat_p <- [DW_OP_plus_uconst 28] [$sp+0]
	@DEBUG_VALUE: tcp_write:last_unsent <- $r10
	@DEBUG_VALUE: tcp_write:seg <- $r4
	@DEBUG_VALUE: tcp_write:prev_seg <- 0
	@DEBUG_VALUE: tcp_write:queue <- 0
	@DEBUG_VALUE: tcp_write:pos <- $r8
	@DEBUG_VALUE: tcp_write:oversize_used <- [DW_OP_plus_uconst 32] [$sp+0]
	@DEBUG_VALUE: tcp_write:concat_chksum <- [DW_OP_plus_uconst 16] [$sp+0]
	@DEBUG_VALUE: tcp_write:concat_chksummed <- [DW_OP_plus_uconst 24] [$sp+0]
	@DEBUG_VALUE: tcp_write:queuelen <- $r9
	@DEBUG_VALUE: tcp_seg_add_chksum:seg_chksum_swapped <- [DW_OP_plus_uconst 12, DW_OP_stack_value] $r10
	@DEBUG_VALUE: tcp_seg_add_chksum:len <- [DW_OP_plus_uconst 24] [$sp+0]
	@DEBUG_VALUE: tcp_seg_add_chksum:chksum <- [DW_OP_plus_uconst 16] [$sp+0]
	@DEBUG_VALUE: tcp_seg_add_chksum:seg_chksum_swapped <- [DW_OP_plus_uconst 12, DW_OP_stack_value] $r10
	@DEBUG_VALUE: tcp_seg_add_chksum:seg_chksum <- [DW_OP_plus_uconst 10, DW_OP_stack_value] $r10
	@DEBUG_VALUE: tcp_seg_add_chksum:len <- [DW_OP_plus_uconst 32] [$sp+0]
	.loc	6 553 16 is_stmt 1      @ ../Libraries/lwip-1.4.1/src/core/tcp_out.c:553:16
	uxth.w	r0, r8
	str.w	r9, [sp, #64]           @ 4-byte Spill
.Ltmp98:
	@DEBUG_VALUE: tcp_write:queuelen <- [DW_OP_plus_uconst 64] [$sp+0]
	@DEBUG_VALUE: tcp_write:queuelen <- [DW_OP_plus_uconst 64] [$sp+0]
	.loc	6 0 16 is_stmt 0        @ ../Libraries/lwip-1.4.1/src/core/tcp_out.c:0:16
	str	r7, [sp, #48]           @ 4-byte Spill
	.loc	6 553 5                 @ ../Libraries/lwip-1.4.1/src/core/tcp_out.c:553:5
	str	r6, [sp, #36]           @ 4-byte Spill
	cmp	r0, r7
	bhs.w	.LBB2_36
.Ltmp99:
@ %bb.26:
	@DEBUG_VALUE: tcp_write:queuelen <- [DW_OP_plus_uconst 64] [$sp+0]
	@DEBUG_VALUE: tcp_seg_add_chksum:len <- [DW_OP_plus_uconst 32] [$sp+0]
	@DEBUG_VALUE: tcp_seg_add_chksum:seg_chksum <- [DW_OP_plus_uconst 10, DW_OP_stack_value] $r10
	@DEBUG_VALUE: tcp_seg_add_chksum:seg_chksum_swapped <- [DW_OP_plus_uconst 12, DW_OP_stack_value] $r10
	@DEBUG_VALUE: tcp_seg_add_chksum:chksum <- [DW_OP_plus_uconst 16] [$sp+0]
	@DEBUG_VALUE: tcp_seg_add_chksum:len <- [DW_OP_plus_uconst 24] [$sp+0]
	@DEBUG_VALUE: tcp_seg_add_chksum:seg_chksum_swapped <- [DW_OP_plus_uconst 12, DW_OP_stack_value] $r10
	@DEBUG_VALUE: tcp_write:concat_chksummed <- [DW_OP_plus_uconst 24] [$sp+0]
	@DEBUG_VALUE: tcp_write:concat_chksum <- [DW_OP_plus_uconst 16] [$sp+0]
	@DEBUG_VALUE: tcp_write:oversize_used <- [DW_OP_plus_uconst 32] [$sp+0]
	@DEBUG_VALUE: tcp_write:concat_p <- [DW_OP_plus_uconst 28] [$sp+0]
	@DEBUG_VALUE: tcp_write:seg <- $r4
	@DEBUG_VALUE: tcp_write:pos <- $r8
	@DEBUG_VALUE: tcp_write:last_unsent <- $r10
	@DEBUG_VALUE: tcp_write:apiflags <- $r6
	@DEBUG_VALUE: tcp_write:arg <- [DW_OP_plus_uconst 68] [$sp+0]
	.loc	6 0 5                   @ ../Libraries/lwip-1.4.1/src/core/tcp_out.c:0:5
	and	r0, r6, #1
	movs	r1, #0
	movs	r6, #0
.Ltmp100:
	str	r0, [sp, #40]           @ 4-byte Spill
.Ltmp101:
	.p2align	2
.LBB2_27:                               @ =>This Inner Loop Header: Depth=1
	@DEBUG_VALUE: tcp_write:queuelen <- [DW_OP_plus_uconst 64] [$sp+0]
	@DEBUG_VALUE: tcp_write:concat_chksummed <- [DW_OP_plus_uconst 24] [$sp+0]
	@DEBUG_VALUE: tcp_write:concat_chksum <- [DW_OP_plus_uconst 16] [$sp+0]
	@DEBUG_VALUE: tcp_write:oversize_used <- [DW_OP_plus_uconst 32] [$sp+0]
	@DEBUG_VALUE: tcp_write:concat_p <- [DW_OP_plus_uconst 28] [$sp+0]
	@DEBUG_VALUE: tcp_write:seg <- $r4
	@DEBUG_VALUE: tcp_write:pos <- $r8
	@DEBUG_VALUE: tcp_write:last_unsent <- $r10
	@DEBUG_VALUE: tcp_write:arg <- [DW_OP_plus_uconst 68] [$sp+0]
	@DEBUG_VALUE: tcp_write:prev_seg <- $r1
	@DEBUG_VALUE: tcp_write:queue <- $r6
	@DEBUG_VALUE: tcp_write:pos <- $r8
	@DEBUG_VALUE: tcp_write:queuelen <- [DW_OP_plus_uconst 64] [$sp+0]
	.loc	6 556 26 is_stmt 1      @ ../Libraries/lwip-1.4.1/src/core/tcp_out.c:556:26
	sub.w	r5, r7, r8
.Ltmp102:
	@DEBUG_VALUE: left <- $r5
	.loc	6 553 12                @ ../Libraries/lwip-1.4.1/src/core/tcp_out.c:553:12
	uxth.w	r9, r8
.Ltmp103:
	.loc	6 556 26                @ ../Libraries/lwip-1.4.1/src/core/tcp_out.c:556:26
	uxth	r0, r5
	.loc	6 558 24                @ ../Libraries/lwip-1.4.1/src/core/tcp_out.c:558:24
	cmp	r0, r2
	it	hi
	movhi	r5, r2
.Ltmp104:
	@DEBUG_VALUE: seglen <- $r5
	@DEBUG_VALUE: tcp_seg_add_chksum:len <- $r5
	.loc	6 564 13                @ ../Libraries/lwip-1.4.1/src/core/tcp_out.c:564:13
	ldr	r0, [sp, #40]           @ 4-byte Reload
.Ltmp105:
	@DEBUG_VALUE: chksum_swapped <- 0
	@DEBUG_VALUE: chksum <- 0
	strd	r1, r6, [sp, #52]
	cmp	r0, #0
	@DEBUG_VALUE: seglen <- $r5
	bne	.LBB2_31
.Ltmp106:
@ %bb.28:                               @   in Loop: Header=BB2_27 Depth=1
	@DEBUG_VALUE: seglen <- $r5
	@DEBUG_VALUE: tcp_write:queue <- $r6
	@DEBUG_VALUE: tcp_write:prev_seg <- $r1
	@DEBUG_VALUE: tcp_write:queuelen <- [DW_OP_plus_uconst 64] [$sp+0]
	@DEBUG_VALUE: tcp_write:concat_chksummed <- [DW_OP_plus_uconst 24] [$sp+0]
	@DEBUG_VALUE: tcp_write:concat_chksum <- [DW_OP_plus_uconst 16] [$sp+0]
	@DEBUG_VALUE: tcp_write:oversize_used <- [DW_OP_plus_uconst 32] [$sp+0]
	@DEBUG_VALUE: tcp_write:concat_p <- [DW_OP_plus_uconst 28] [$sp+0]
	@DEBUG_VALUE: tcp_write:seg <- $r4
	@DEBUG_VALUE: tcp_write:pos <- $r8
	@DEBUG_VALUE: tcp_write:last_unsent <- $r10
	@DEBUG_VALUE: tcp_write:arg <- [DW_OP_plus_uconst 68] [$sp+0]
	@DEBUG_VALUE: tcp_write:oversize <- [DW_OP_plus_uconst 74, DW_OP_deref] $sp
	.loc	6 588 23                @ ../Libraries/lwip-1.4.1/src/core/tcp_out.c:588:23
	uxth	r4, r5
.Ltmp107:
	movs	r0, #0
	movs	r2, #1
	mov	r1, r4
.Ltmp108:
	bl	pbuf_alloc
.Ltmp109:
	.loc	6 588 17 is_stmt 0      @ ../Libraries/lwip-1.4.1/src/core/tcp_out.c:588:17
	cmp	r0, #0
	beq.w	.LBB2_63
.Ltmp110:
@ %bb.29:                               @   in Loop: Header=BB2_27 Depth=1
	@DEBUG_VALUE: seglen <- $r5
	@DEBUG_VALUE: tcp_write:queue <- $r6
	@DEBUG_VALUE: tcp_write:queuelen <- [DW_OP_plus_uconst 64] [$sp+0]
	@DEBUG_VALUE: tcp_write:concat_chksummed <- [DW_OP_plus_uconst 24] [$sp+0]
	@DEBUG_VALUE: tcp_write:concat_chksum <- [DW_OP_plus_uconst 16] [$sp+0]
	@DEBUG_VALUE: tcp_write:oversize_used <- [DW_OP_plus_uconst 32] [$sp+0]
	@DEBUG_VALUE: tcp_write:concat_p <- [DW_OP_plus_uconst 28] [$sp+0]
	@DEBUG_VALUE: tcp_write:oversize <- [DW_OP_plus_uconst 74, DW_OP_deref] $sp
	@DEBUG_VALUE: tcp_write:pos <- $r8
	@DEBUG_VALUE: tcp_write:last_unsent <- $r10
	@DEBUG_VALUE: tcp_write:arg <- [DW_OP_plus_uconst 68] [$sp+0]
	.loc	6 0 0                   @ ../Libraries/lwip-1.4.1/src/core/tcp_out.c:0:0
	mov	r11, r0
.Ltmp111:
	@DEBUG_VALUE: p2 <- $r11
	.loc	6 595 47 is_stmt 1      @ ../Libraries/lwip-1.4.1/src/core/tcp_out.c:595:47
	ldr	r0, [sp, #68]           @ 4-byte Reload
	.loc	6 595 23 is_stmt 0      @ ../Libraries/lwip-1.4.1/src/core/tcp_out.c:595:23
	mov	r1, r4
	.loc	6 595 47                @ ../Libraries/lwip-1.4.1/src/core/tcp_out.c:595:47
	add.w	r7, r0, r9
	.loc	6 595 23                @ ../Libraries/lwip-1.4.1/src/core/tcp_out.c:595:23
	mov	r0, r7
	bl	inet_chksum
	mov	r4, r0
.Ltmp112:
	.loc	6 601 22 is_stmt 1      @ ../Libraries/lwip-1.4.1/src/core/tcp_out.c:601:22
	movs	r0, #0
	movs	r1, #0
	movs	r2, #0
.Ltmp113:
	.loc	6 598 25                @ ../Libraries/lwip-1.4.1/src/core/tcp_out.c:598:25
	str.w	r7, [r11, #4]
.Ltmp114:
	.loc	6 601 22                @ ../Libraries/lwip-1.4.1/src/core/tcp_out.c:601:22
	bl	pbuf_alloc
.Ltmp115:
	.loc	6 601 17 is_stmt 0      @ ../Libraries/lwip-1.4.1/src/core/tcp_out.c:601:17
	cmp	r0, #0
	beq.w	.LBB2_62
.Ltmp116:
@ %bb.30:                               @   in Loop: Header=BB2_27 Depth=1
	@DEBUG_VALUE: p2 <- $r11
	@DEBUG_VALUE: seglen <- $r5
	@DEBUG_VALUE: tcp_write:queue <- $r6
	@DEBUG_VALUE: tcp_write:queuelen <- [DW_OP_plus_uconst 64] [$sp+0]
	@DEBUG_VALUE: tcp_write:concat_chksummed <- [DW_OP_plus_uconst 24] [$sp+0]
	@DEBUG_VALUE: tcp_write:concat_chksum <- [DW_OP_plus_uconst 16] [$sp+0]
	@DEBUG_VALUE: tcp_write:oversize_used <- [DW_OP_plus_uconst 32] [$sp+0]
	@DEBUG_VALUE: tcp_write:concat_p <- [DW_OP_plus_uconst 28] [$sp+0]
	@DEBUG_VALUE: tcp_write:oversize <- [DW_OP_plus_uconst 74, DW_OP_deref] $sp
	@DEBUG_VALUE: tcp_write:pos <- $r8
	@DEBUG_VALUE: tcp_write:last_unsent <- $r10
	@DEBUG_VALUE: tcp_write:arg <- [DW_OP_plus_uconst 68] [$sp+0]
	.loc	6 610 13 is_stmt 1      @ ../Libraries/lwip-1.4.1/src/core/tcp_out.c:610:13
	mov	r1, r11
	mov	r7, r0
.Ltmp117:
	@DEBUG_VALUE: p <- $r7
	.loc	6 0 13 is_stmt 0        @ ../Libraries/lwip-1.4.1/src/core/tcp_out.c:0:13
	mov	r6, r9
.Ltmp118:
	.loc	6 610 13                @ ../Libraries/lwip-1.4.1/src/core/tcp_out.c:610:13
	bl	pbuf_cat
	.loc	6 595 22 is_stmt 1      @ ../Libraries/lwip-1.4.1/src/core/tcp_out.c:595:22
	mvn.w	r9, r4
.Ltmp119:
	@DEBUG_VALUE: chksum <- $r9
	.loc	6 0 22 is_stmt 0        @ ../Libraries/lwip-1.4.1/src/core/tcp_out.c:0:22
	mov.w	r11, #0
.Ltmp120:
	b	.LBB2_33
.Ltmp121:
	.p2align	2
.LBB2_31:                               @   in Loop: Header=BB2_27 Depth=1
	@DEBUG_VALUE: seglen <- $r5
	@DEBUG_VALUE: tcp_write:queue <- $r6
	@DEBUG_VALUE: tcp_write:prev_seg <- $r1
	@DEBUG_VALUE: tcp_write:queuelen <- [DW_OP_plus_uconst 64] [$sp+0]
	@DEBUG_VALUE: tcp_write:concat_chksummed <- [DW_OP_plus_uconst 24] [$sp+0]
	@DEBUG_VALUE: tcp_write:concat_chksum <- [DW_OP_plus_uconst 16] [$sp+0]
	@DEBUG_VALUE: tcp_write:oversize_used <- [DW_OP_plus_uconst 32] [$sp+0]
	@DEBUG_VALUE: tcp_write:concat_p <- [DW_OP_plus_uconst 28] [$sp+0]
	@DEBUG_VALUE: tcp_write:seg <- $r4
	@DEBUG_VALUE: tcp_write:pos <- $r8
	@DEBUG_VALUE: tcp_write:last_unsent <- $r10
	@DEBUG_VALUE: tcp_write:arg <- [DW_OP_plus_uconst 68] [$sp+0]
	@DEBUG_VALUE: tcp_write:oversize <- [DW_OP_plus_uconst 74, DW_OP_deref] $sp
	.loc	6 568 22 is_stmt 1      @ ../Libraries/lwip-1.4.1/src/core/tcp_out.c:568:22
	ldr	r1, [sp, #60]           @ 4-byte Reload
.Ltmp122:
	.loc	6 568 116 is_stmt 0     @ ../Libraries/lwip-1.4.1/src/core/tcp_out.c:568:116
	clz	r0, r6
	.loc	6 568 22                @ ../Libraries/lwip-1.4.1/src/core/tcp_out.c:568:22
	uxth	r4, r5
.Ltmp123:
	add.w	r3, sp, #74
	.loc	6 568 116               @ ../Libraries/lwip-1.4.1/src/core/tcp_out.c:568:116
	lsrs	r0, r0, #5
	.loc	6 568 22                @ ../Libraries/lwip-1.4.1/src/core/tcp_out.c:568:22
	str	r1, [sp]
	ldr	r1, [sp, #36]           @ 4-byte Reload
	strd	r1, r0, [sp, #4]
	movs	r0, #0
	mov	r1, r4
	bl	tcp_pbuf_prealloc
.Ltmp124:
	.loc	6 568 17                @ ../Libraries/lwip-1.4.1/src/core/tcp_out.c:568:17
	cmp	r0, #0
	beq.w	.LBB2_63
.Ltmp125:
@ %bb.32:                               @   in Loop: Header=BB2_27 Depth=1
	@DEBUG_VALUE: seglen <- $r5
	@DEBUG_VALUE: tcp_write:queue <- $r6
	@DEBUG_VALUE: tcp_write:queuelen <- [DW_OP_plus_uconst 64] [$sp+0]
	@DEBUG_VALUE: tcp_write:concat_chksummed <- [DW_OP_plus_uconst 24] [$sp+0]
	@DEBUG_VALUE: tcp_write:concat_chksum <- [DW_OP_plus_uconst 16] [$sp+0]
	@DEBUG_VALUE: tcp_write:oversize_used <- [DW_OP_plus_uconst 32] [$sp+0]
	@DEBUG_VALUE: tcp_write:concat_p <- [DW_OP_plus_uconst 28] [$sp+0]
	@DEBUG_VALUE: tcp_write:oversize <- [DW_OP_plus_uconst 74, DW_OP_deref] $sp
	@DEBUG_VALUE: tcp_write:pos <- $r8
	@DEBUG_VALUE: tcp_write:last_unsent <- $r10
	@DEBUG_VALUE: tcp_write:arg <- [DW_OP_plus_uconst 68] [$sp+0]
	.loc	6 0 0                   @ ../Libraries/lwip-1.4.1/src/core/tcp_out.c:0:0
	mov	r7, r0
.Ltmp126:
	@DEBUG_VALUE: p <- $r7
	.loc	6 575 13 is_stmt 1      @ ../Libraries/lwip-1.4.1/src/core/tcp_out.c:575:13
	ldr	r0, [sp, #68]           @ 4-byte Reload
	mov	r2, r4
	mov	r6, r9
.Ltmp127:
	add.w	r1, r0, r9
	ldr	r0, [r7, #4]
	bl	lwip_chksum_copy
	mov	r9, r0
.Ltmp128:
	@DEBUG_VALUE: tcp_seg_add_chksum:chksum <- $r9
	.loc	6 289 14                @ ../Libraries/lwip-1.4.1/src/core/tcp_out.c:289:14
	ands	r11, r5, #1
.Ltmp129:
	.loc	6 289 9 is_stmt 0       @ ../Libraries/lwip-1.4.1/src/core/tcp_out.c:289:9
	it	ne
	rev16ne.w	r9, r9
.Ltmp130:
.LBB2_33:                               @   in Loop: Header=BB2_27 Depth=1
	@DEBUG_VALUE: p <- $r7
	@DEBUG_VALUE: seglen <- $r5
	@DEBUG_VALUE: tcp_write:queuelen <- [DW_OP_plus_uconst 64] [$sp+0]
	@DEBUG_VALUE: tcp_write:concat_chksummed <- [DW_OP_plus_uconst 24] [$sp+0]
	@DEBUG_VALUE: tcp_write:concat_chksum <- [DW_OP_plus_uconst 16] [$sp+0]
	@DEBUG_VALUE: tcp_write:oversize_used <- [DW_OP_plus_uconst 32] [$sp+0]
	@DEBUG_VALUE: tcp_write:concat_p <- [DW_OP_plus_uconst 28] [$sp+0]
	@DEBUG_VALUE: tcp_write:oversize <- [DW_OP_plus_uconst 74, DW_OP_deref] $sp
	@DEBUG_VALUE: tcp_write:pos <- $r8
	@DEBUG_VALUE: tcp_write:last_unsent <- $r10
	@DEBUG_VALUE: tcp_write:arg <- [DW_OP_plus_uconst 68] [$sp+0]
	@DEBUG_VALUE: chksum <- $r9
	@DEBUG_VALUE: chksum_swapped <- $r11
	@DEBUG_VALUE: p <- $r7
	.loc	6 613 21 is_stmt 1      @ ../Libraries/lwip-1.4.1/src/core/tcp_out.c:613:21
	mov	r0, r7
	bl	pbuf_clen
	ldr	r1, [sp, #64]           @ 4-byte Reload
	.loc	6 613 18 is_stmt 0      @ ../Libraries/lwip-1.4.1/src/core/tcp_out.c:613:18
	add	r1, r0
.Ltmp131:
	@DEBUG_VALUE: tcp_write:queuelen <- $r1
	uxth	r0, r1
	str	r1, [sp, #64]           @ 4-byte Spill
.Ltmp132:
	@DEBUG_VALUE: tcp_write:queuelen <- [DW_OP_plus_uconst 64] [$sp+0]
	@DEBUG_VALUE: tcp_write:queuelen <- [DW_OP_plus_uconst 64] [$sp+0]
	.loc	6 618 43 is_stmt 1      @ ../Libraries/lwip-1.4.1/src/core/tcp_out.c:618:43
	cmp	r0, #9
	bhs.w	.LBB2_58
.Ltmp133:
@ %bb.34:                               @   in Loop: Header=BB2_27 Depth=1
	@DEBUG_VALUE: chksum_swapped <- $r11
	@DEBUG_VALUE: chksum <- $r9
	@DEBUG_VALUE: p <- $r7
	@DEBUG_VALUE: seglen <- $r5
	@DEBUG_VALUE: tcp_write:queuelen <- [DW_OP_plus_uconst 64] [$sp+0]
	@DEBUG_VALUE: tcp_write:concat_chksummed <- [DW_OP_plus_uconst 24] [$sp+0]
	@DEBUG_VALUE: tcp_write:concat_chksum <- [DW_OP_plus_uconst 16] [$sp+0]
	@DEBUG_VALUE: tcp_write:oversize_used <- [DW_OP_plus_uconst 32] [$sp+0]
	@DEBUG_VALUE: tcp_write:concat_p <- [DW_OP_plus_uconst 28] [$sp+0]
	@DEBUG_VALUE: tcp_write:oversize <- [DW_OP_plus_uconst 74, DW_OP_deref] $sp
	@DEBUG_VALUE: tcp_write:pos <- $r8
	@DEBUG_VALUE: tcp_write:last_unsent <- $r10
	@DEBUG_VALUE: tcp_write:arg <- [DW_OP_plus_uconst 68] [$sp+0]
	.loc	6 0 43 is_stmt 0        @ ../Libraries/lwip-1.4.1/src/core/tcp_out.c:0:43
	ldr	r0, [sp, #60]           @ 4-byte Reload
.Ltmp134:
	.loc	6 625 20 is_stmt 1      @ ../Libraries/lwip-1.4.1/src/core/tcp_out.c:625:20
	movs	r2, #0
	.loc	6 625 55 is_stmt 0      @ ../Libraries/lwip-1.4.1/src/core/tcp_out.c:625:55
	ldr	r1, [r0, #92]
	.loc	6 625 20                @ ../Libraries/lwip-1.4.1/src/core/tcp_out.c:625:20
	str	r2, [sp]
	movs	r2, #0
	.loc	6 625 63                @ ../Libraries/lwip-1.4.1/src/core/tcp_out.c:625:63
	adds	r3, r1, r6
	.loc	6 625 20                @ ../Libraries/lwip-1.4.1/src/core/tcp_out.c:625:20
	mov	r1, r7
	bl	tcp_create_segment
	ldr	r6, [sp, #56]           @ 4-byte Reload
.Ltmp135:
	.loc	6 625 13                @ ../Libraries/lwip-1.4.1/src/core/tcp_out.c:625:13
	cmp	r0, #0
	beq.w	.LBB2_63
.Ltmp136:
@ %bb.35:                               @   in Loop: Header=BB2_27 Depth=1
	@DEBUG_VALUE: chksum_swapped <- $r11
	@DEBUG_VALUE: chksum <- $r9
	@DEBUG_VALUE: p <- $r7
	@DEBUG_VALUE: seglen <- $r5
	@DEBUG_VALUE: tcp_write:queuelen <- [DW_OP_plus_uconst 64] [$sp+0]
	@DEBUG_VALUE: tcp_write:concat_chksummed <- [DW_OP_plus_uconst 24] [$sp+0]
	@DEBUG_VALUE: tcp_write:concat_chksum <- [DW_OP_plus_uconst 16] [$sp+0]
	@DEBUG_VALUE: tcp_write:oversize_used <- [DW_OP_plus_uconst 32] [$sp+0]
	@DEBUG_VALUE: tcp_write:concat_p <- [DW_OP_plus_uconst 28] [$sp+0]
	@DEBUG_VALUE: tcp_write:oversize <- [DW_OP_plus_uconst 74, DW_OP_deref] $sp
	@DEBUG_VALUE: tcp_write:pos <- $r8
	@DEBUG_VALUE: tcp_write:last_unsent <- $r10
	@DEBUG_VALUE: tcp_write:arg <- [DW_OP_plus_uconst 68] [$sp+0]
	.loc	6 634 29 is_stmt 1      @ ../Libraries/lwip-1.4.1/src/core/tcp_out.c:634:29
	strb.w	r11, [r0, #12]
	.loc	6 633 21                @ ../Libraries/lwip-1.4.1/src/core/tcp_out.c:633:21
	strh.w	r9, [r0, #10]
	.loc	6 0 0 is_stmt 0         @ ../Libraries/lwip-1.4.1/src/core/tcp_out.c:0:0
	mov	r4, r0
.Ltmp137:
	@DEBUG_VALUE: tcp_write:seg <- $r4
	@DEBUG_VALUE: tcp_write:prev_seg <- $r4
	.loc	6 639 13 is_stmt 1      @ ../Libraries/lwip-1.4.1/src/core/tcp_out.c:639:13
	cmp	r6, #0
	.loc	6 656 13                @ ../Libraries/lwip-1.4.1/src/core/tcp_out.c:656:13
	add	r8, r5
.Ltmp138:
	@DEBUG_VALUE: tcp_write:pos <- $r8
	.loc	6 635 20                @ ../Libraries/lwip-1.4.1/src/core/tcp_out.c:635:20
	ldrb	r0, [r0, #13]
.Ltmp139:
	.loc	6 0 0 is_stmt 0         @ ../Libraries/lwip-1.4.1/src/core/tcp_out.c:0:0
	mov	r11, r4
.Ltmp140:
	mov	r1, r4
.Ltmp141:
	.loc	6 635 20                @ ../Libraries/lwip-1.4.1/src/core/tcp_out.c:635:20
	orr	r0, r0, #4
	strb	r0, [r4, #13]
.Ltmp142:
	.loc	6 647 28 is_stmt 1      @ ../Libraries/lwip-1.4.1/src/core/tcp_out.c:647:28
	ittt	ne
	ldrne	r0, [sp, #52]           @ 4-byte Reload
	strne	r4, [r0]
.Ltmp143:
	.loc	6 0 0 is_stmt 0         @ ../Libraries/lwip-1.4.1/src/core/tcp_out.c:0:0
	movne	r11, r6
.Ltmp144:
	@DEBUG_VALUE: tcp_write:queue <- $r11
	mov	r6, r11
	ldr	r7, [sp, #48]           @ 4-byte Reload
.Ltmp145:
	.loc	6 656 13 is_stmt 1      @ ../Libraries/lwip-1.4.1/src/core/tcp_out.c:656:13
	uxth.w	r0, r8
	ldr	r2, [sp, #44]           @ 4-byte Reload
.Ltmp146:
	.loc	6 553 5                 @ ../Libraries/lwip-1.4.1/src/core/tcp_out.c:553:5
	cmp	r0, r7
	blo.w	.LBB2_27
	b	.LBB2_37
.Ltmp147:
.LBB2_36:
	@DEBUG_VALUE: tcp_write:queuelen <- [DW_OP_plus_uconst 64] [$sp+0]
	@DEBUG_VALUE: tcp_write:concat_chksummed <- [DW_OP_plus_uconst 24] [$sp+0]
	@DEBUG_VALUE: tcp_write:concat_chksum <- [DW_OP_plus_uconst 16] [$sp+0]
	@DEBUG_VALUE: tcp_write:oversize_used <- [DW_OP_plus_uconst 32] [$sp+0]
	@DEBUG_VALUE: tcp_write:concat_p <- [DW_OP_plus_uconst 28] [$sp+0]
	@DEBUG_VALUE: tcp_write:seg <- $r4
	@DEBUG_VALUE: tcp_write:pos <- $r8
	@DEBUG_VALUE: tcp_write:last_unsent <- $r10
	@DEBUG_VALUE: tcp_write:apiflags <- $r6
	@DEBUG_VALUE: tcp_write:arg <- [DW_OP_plus_uconst 68] [$sp+0]
	.loc	6 376 73                @ ../Libraries/lwip-1.4.1/src/core/tcp_out.c:376:73
	mov.w	r11, #0
.Ltmp148:
.LBB2_37:
	@DEBUG_VALUE: tcp_write:queuelen <- [DW_OP_plus_uconst 64] [$sp+0]
	@DEBUG_VALUE: tcp_write:concat_chksummed <- [DW_OP_plus_uconst 24] [$sp+0]
	@DEBUG_VALUE: tcp_write:concat_chksum <- [DW_OP_plus_uconst 16] [$sp+0]
	@DEBUG_VALUE: tcp_write:oversize_used <- [DW_OP_plus_uconst 32] [$sp+0]
	@DEBUG_VALUE: tcp_write:concat_p <- [DW_OP_plus_uconst 28] [$sp+0]
	@DEBUG_VALUE: tcp_write:seg <- $r4
	@DEBUG_VALUE: tcp_write:pos <- $r8
	@DEBUG_VALUE: tcp_write:last_unsent <- $r10
	@DEBUG_VALUE: tcp_write:arg <- [DW_OP_plus_uconst 68] [$sp+0]
	@DEBUG_VALUE: tcp_write:seg <- $r4
	@DEBUG_VALUE: tcp_write:queue <- $r11
	@DEBUG_VALUE: tcp_write:queuelen <- [DW_OP_plus_uconst 64] [$sp+0]
	.loc	6 0 73 is_stmt 0        @ ../Libraries/lwip-1.4.1/src/core/tcp_out.c:0:73
	ldr.w	r9, [sp, #32]           @ 4-byte Reload
	ldr	r6, [sp, #36]           @ 4-byte Reload
	ldrd	r8, r7, [sp, #60]
.Ltmp149:
	@DEBUG_VALUE: tcp_write:queuelen <- $r7
	.loc	6 669 9 is_stmt 1       @ ../Libraries/lwip-1.4.1/src/core/tcp_out.c:669:9
	cmp.w	r9, #0
	beq	.LBB2_46
.Ltmp150:
@ %bb.38:
	@DEBUG_VALUE: tcp_write:queuelen <- $r7
	@DEBUG_VALUE: tcp_write:queue <- $r11
	@DEBUG_VALUE: tcp_write:concat_chksummed <- [DW_OP_plus_uconst 24] [$sp+0]
	@DEBUG_VALUE: tcp_write:concat_chksum <- [DW_OP_plus_uconst 16] [$sp+0]
	@DEBUG_VALUE: tcp_write:oversize_used <- [DW_OP_plus_uconst 32] [$sp+0]
	@DEBUG_VALUE: tcp_write:concat_p <- [DW_OP_plus_uconst 28] [$sp+0]
	@DEBUG_VALUE: tcp_write:seg <- $r4
	@DEBUG_VALUE: tcp_write:last_unsent <- $r10
	@DEBUG_VALUE: tcp_write:arg <- [DW_OP_plus_uconst 68] [$sp+0]
	.loc	6 0 9 is_stmt 0         @ ../Libraries/lwip-1.4.1/src/core/tcp_out.c:0:9
	str	r7, [sp, #64]           @ 4-byte Spill
.Ltmp151:
	@DEBUG_VALUE: tcp_write:queuelen <- [DW_OP_plus_uconst 64] [$sp+0]
	@DEBUG_VALUE: p <- [DW_OP_plus_uconst 4, DW_OP_deref, DW_OP_stack_value] $r10
	ldr.w	r7, [r10, #4]
.Ltmp152:
	@DEBUG_VALUE: p <- $r7
	.loc	6 673 9 is_stmt 1       @ ../Libraries/lwip-1.4.1/src/core/tcp_out.c:673:9
	cbz	r7, .LBB2_45
.Ltmp153:
@ %bb.39:
	@DEBUG_VALUE: p <- $r7
	@DEBUG_VALUE: tcp_write:queue <- $r11
	@DEBUG_VALUE: tcp_write:queuelen <- [DW_OP_plus_uconst 64] [$sp+0]
	@DEBUG_VALUE: tcp_write:concat_chksummed <- [DW_OP_plus_uconst 24] [$sp+0]
	@DEBUG_VALUE: tcp_write:concat_chksum <- [DW_OP_plus_uconst 16] [$sp+0]
	@DEBUG_VALUE: tcp_write:oversize_used <- [DW_OP_plus_uconst 32] [$sp+0]
	@DEBUG_VALUE: tcp_write:concat_p <- [DW_OP_plus_uconst 28] [$sp+0]
	@DEBUG_VALUE: tcp_write:seg <- $r4
	@DEBUG_VALUE: tcp_write:last_unsent <- $r10
	@DEBUG_VALUE: tcp_write:arg <- [DW_OP_plus_uconst 68] [$sp+0]
	.loc	6 0 9 is_stmt 0         @ ../Libraries/lwip-1.4.1/src/core/tcp_out.c:0:9
	and	r5, r9, #1
.Ltmp154:
	.p2align	2
.LBB2_40:                               @ =>This Inner Loop Header: Depth=1
	@DEBUG_VALUE: p <- $r7
	@DEBUG_VALUE: tcp_write:queue <- $r11
	@DEBUG_VALUE: tcp_write:queuelen <- [DW_OP_plus_uconst 64] [$sp+0]
	@DEBUG_VALUE: tcp_write:concat_chksummed <- [DW_OP_plus_uconst 24] [$sp+0]
	@DEBUG_VALUE: tcp_write:concat_chksum <- [DW_OP_plus_uconst 16] [$sp+0]
	@DEBUG_VALUE: tcp_write:oversize_used <- [DW_OP_plus_uconst 32] [$sp+0]
	@DEBUG_VALUE: tcp_write:concat_p <- [DW_OP_plus_uconst 28] [$sp+0]
	@DEBUG_VALUE: tcp_write:seg <- $r4
	@DEBUG_VALUE: tcp_write:last_unsent <- $r10
	@DEBUG_VALUE: tcp_write:arg <- [DW_OP_plus_uconst 68] [$sp+0]
	.loc	6 675 24 is_stmt 1      @ ../Libraries/lwip-1.4.1/src/core/tcp_out.c:675:24
	ldrh	r0, [r7, #8]
	add	r0, r9
	strh	r0, [r7, #8]
.Ltmp155:
	@DEBUG_VALUE: p <- [DW_OP_deref] $r7
	.loc	6 676 20                @ ../Libraries/lwip-1.4.1/src/core/tcp_out.c:676:20
	ldr	r0, [r7]
.Ltmp156:
	.loc	6 676 17 is_stmt 0      @ ../Libraries/lwip-1.4.1/src/core/tcp_out.c:676:17
	cbnz	r0, .LBB2_44
.Ltmp157:
@ %bb.41:                               @   in Loop: Header=BB2_40 Depth=1
	@DEBUG_VALUE: p <- $r7
	@DEBUG_VALUE: tcp_write:queue <- $r11
	@DEBUG_VALUE: tcp_write:queuelen <- [DW_OP_plus_uconst 64] [$sp+0]
	@DEBUG_VALUE: tcp_write:concat_chksummed <- [DW_OP_plus_uconst 24] [$sp+0]
	@DEBUG_VALUE: tcp_write:concat_chksum <- [DW_OP_plus_uconst 16] [$sp+0]
	@DEBUG_VALUE: tcp_write:oversize_used <- [DW_OP_plus_uconst 32] [$sp+0]
	@DEBUG_VALUE: tcp_write:concat_p <- [DW_OP_plus_uconst 28] [$sp+0]
	@DEBUG_VALUE: tcp_write:seg <- $r4
	@DEBUG_VALUE: tcp_write:last_unsent <- $r10
	@DEBUG_VALUE: tcp_write:arg <- [DW_OP_plus_uconst 68] [$sp+0]
	.loc	6 678 17 is_stmt 1      @ ../Libraries/lwip-1.4.1/src/core/tcp_out.c:678:17
	ldrh	r0, [r7, #10]
	ldr	r1, [r7, #4]
	mov	r2, r9
	add	r0, r1
	ldr	r1, [sp, #68]           @ 4-byte Reload
	bl	lwip_chksum_copy
.Ltmp158:
	@DEBUG_VALUE: tcp_seg_add_chksum:chksum <- undef
	.loc	6 287 23                @ ../Libraries/lwip-1.4.1/src/core/tcp_out.c:287:23
	ldrh.w	r1, [r10, #10]
	.loc	6 289 9                 @ ../Libraries/lwip-1.4.1/src/core/tcp_out.c:289:9
	cmp	r5, #0
	.loc	6 287 21                @ ../Libraries/lwip-1.4.1/src/core/tcp_out.c:287:21
	add	r0, r1
.Ltmp159:
	@DEBUG_VALUE: tcp_seg_add_chksum:helper <- $r0
	.loc	6 288 14                @ ../Libraries/lwip-1.4.1/src/core/tcp_out.c:288:14
	add.w	r0, r0, r0, lsr #16
.Ltmp160:
	@DEBUG_VALUE: tcp_seg_add_chksum:chksum <- undef
	.loc	6 289 9                 @ ../Libraries/lwip-1.4.1/src/core/tcp_out.c:289:9
	beq	.LBB2_43
.Ltmp161:
@ %bb.42:                               @   in Loop: Header=BB2_40 Depth=1
	@DEBUG_VALUE: p <- $r7
	@DEBUG_VALUE: tcp_write:queue <- $r11
	@DEBUG_VALUE: tcp_write:queuelen <- [DW_OP_plus_uconst 64] [$sp+0]
	@DEBUG_VALUE: tcp_write:concat_chksummed <- [DW_OP_plus_uconst 24] [$sp+0]
	@DEBUG_VALUE: tcp_write:concat_chksum <- [DW_OP_plus_uconst 16] [$sp+0]
	@DEBUG_VALUE: tcp_write:oversize_used <- [DW_OP_plus_uconst 32] [$sp+0]
	@DEBUG_VALUE: tcp_write:concat_p <- [DW_OP_plus_uconst 28] [$sp+0]
	@DEBUG_VALUE: tcp_write:seg <- $r4
	@DEBUG_VALUE: tcp_write:last_unsent <- $r10
	@DEBUG_VALUE: tcp_write:arg <- [DW_OP_plus_uconst 68] [$sp+0]
	.loc	6 291 35                @ ../Libraries/lwip-1.4.1/src/core/tcp_out.c:291:35
	ldrb.w	r1, [r10, #12]
	rev	r0, r0
	lsrs	r0, r0, #16
.Ltmp162:
	@DEBUG_VALUE: tcp_seg_add_chksum:chksum <- $r0
	.loc	6 291 33 is_stmt 0      @ ../Libraries/lwip-1.4.1/src/core/tcp_out.c:291:33
	rsb.w	r1, r1, #1
	.loc	6 291 29                @ ../Libraries/lwip-1.4.1/src/core/tcp_out.c:291:29
	strb.w	r1, [r10, #12]
.Ltmp163:
.LBB2_43:                               @   in Loop: Header=BB2_40 Depth=1
	@DEBUG_VALUE: p <- $r7
	@DEBUG_VALUE: tcp_write:queue <- $r11
	@DEBUG_VALUE: tcp_write:queuelen <- [DW_OP_plus_uconst 64] [$sp+0]
	@DEBUG_VALUE: tcp_write:concat_chksummed <- [DW_OP_plus_uconst 24] [$sp+0]
	@DEBUG_VALUE: tcp_write:concat_chksum <- [DW_OP_plus_uconst 16] [$sp+0]
	@DEBUG_VALUE: tcp_write:oversize_used <- [DW_OP_plus_uconst 32] [$sp+0]
	@DEBUG_VALUE: tcp_write:concat_p <- [DW_OP_plus_uconst 28] [$sp+0]
	@DEBUG_VALUE: tcp_write:seg <- $r4
	@DEBUG_VALUE: tcp_write:last_unsent <- $r10
	@DEBUG_VALUE: tcp_write:arg <- [DW_OP_plus_uconst 68] [$sp+0]
	@DEBUG_VALUE: tcp_seg_add_chksum:chksum <- $r0
	.loc	6 294 17 is_stmt 1      @ ../Libraries/lwip-1.4.1/src/core/tcp_out.c:294:17
	strh.w	r0, [r10, #10]
.Ltmp164:
	.loc	6 678 17                @ ../Libraries/lwip-1.4.1/src/core/tcp_out.c:678:17
	ldrb.w	r0, [r10, #13]
.Ltmp165:
	orr	r0, r0, #4
	strb.w	r0, [r10, #13]
.Ltmp166:
	.loc	6 679 24                @ ../Libraries/lwip-1.4.1/src/core/tcp_out.c:679:24
	ldrh	r0, [r7, #10]
	add	r0, r9
	strh	r0, [r7, #10]
.Ltmp167:
	.loc	6 0 0 is_stmt 0         @ ../Libraries/lwip-1.4.1/src/core/tcp_out.c:0:0
	ldr	r0, [r7]
.Ltmp168:
.LBB2_44:                               @   in Loop: Header=BB2_40 Depth=1
	@DEBUG_VALUE: p <- $r7
	@DEBUG_VALUE: tcp_write:queue <- $r11
	@DEBUG_VALUE: tcp_write:queuelen <- [DW_OP_plus_uconst 64] [$sp+0]
	@DEBUG_VALUE: tcp_write:concat_chksummed <- [DW_OP_plus_uconst 24] [$sp+0]
	@DEBUG_VALUE: tcp_write:concat_chksum <- [DW_OP_plus_uconst 16] [$sp+0]
	@DEBUG_VALUE: tcp_write:oversize_used <- [DW_OP_plus_uconst 32] [$sp+0]
	@DEBUG_VALUE: tcp_write:concat_p <- [DW_OP_plus_uconst 28] [$sp+0]
	@DEBUG_VALUE: tcp_write:seg <- $r4
	@DEBUG_VALUE: tcp_write:last_unsent <- $r10
	@DEBUG_VALUE: tcp_write:arg <- [DW_OP_plus_uconst 68] [$sp+0]
	@DEBUG_VALUE: p <- $r0
	.loc	6 673 9 is_stmt 1       @ ../Libraries/lwip-1.4.1/src/core/tcp_out.c:673:9
	cmp	r0, #0
	mov	r7, r0
.Ltmp169:
	@DEBUG_VALUE: p <- $r7
	@DEBUG_VALUE: p <- $r7
	bne	.LBB2_40
.Ltmp170:
.LBB2_45:
	@DEBUG_VALUE: p <- $r7
	@DEBUG_VALUE: tcp_write:queue <- $r11
	@DEBUG_VALUE: tcp_write:queuelen <- [DW_OP_plus_uconst 64] [$sp+0]
	@DEBUG_VALUE: tcp_write:concat_chksummed <- [DW_OP_plus_uconst 24] [$sp+0]
	@DEBUG_VALUE: tcp_write:concat_chksum <- [DW_OP_plus_uconst 16] [$sp+0]
	@DEBUG_VALUE: tcp_write:oversize_used <- [DW_OP_plus_uconst 32] [$sp+0]
	@DEBUG_VALUE: tcp_write:concat_p <- [DW_OP_plus_uconst 28] [$sp+0]
	@DEBUG_VALUE: tcp_write:seg <- $r4
	@DEBUG_VALUE: tcp_write:last_unsent <- $r10
	@DEBUG_VALUE: tcp_write:arg <- [DW_OP_plus_uconst 68] [$sp+0]
	.loc	6 682 26                @ ../Libraries/lwip-1.4.1/src/core/tcp_out.c:682:26
	ldrh.w	r0, [r10, #8]
	ldr	r7, [sp, #64]           @ 4-byte Reload
.Ltmp171:
	add	r0, r9
	strh.w	r0, [r10, #8]
.Ltmp172:
.LBB2_46:
	@DEBUG_VALUE: tcp_write:queue <- $r11
	@DEBUG_VALUE: tcp_write:concat_chksummed <- [DW_OP_plus_uconst 24] [$sp+0]
	@DEBUG_VALUE: tcp_write:concat_chksum <- [DW_OP_plus_uconst 16] [$sp+0]
	@DEBUG_VALUE: tcp_write:oversize_used <- [DW_OP_plus_uconst 32] [$sp+0]
	@DEBUG_VALUE: tcp_write:concat_p <- [DW_OP_plus_uconst 28] [$sp+0]
	@DEBUG_VALUE: tcp_write:seg <- $r4
	@DEBUG_VALUE: tcp_write:last_unsent <- $r10
	@DEBUG_VALUE: tcp_write:arg <- [DW_OP_plus_uconst 68] [$sp+0]
	.loc	6 0 26 is_stmt 0        @ ../Libraries/lwip-1.4.1/src/core/tcp_out.c:0:26
	ldr	r5, [sp, #28]           @ 4-byte Reload
	.loc	6 689 28 is_stmt 1      @ ../Libraries/lwip-1.4.1/src/core/tcp_out.c:689:28
	ldrh.w	r0, [sp, #74]
.Ltmp173:
	@DEBUG_VALUE: tcp_write:oversize <- $r0
	.loc	6 695 9                 @ ../Libraries/lwip-1.4.1/src/core/tcp_out.c:695:9
	cmp	r5, #0
	.loc	6 689 26                @ ../Libraries/lwip-1.4.1/src/core/tcp_out.c:689:26
	strh.w	r0, [r8, #106]
	.loc	6 695 9                 @ ../Libraries/lwip-1.4.1/src/core/tcp_out.c:695:9
	beq	.LBB2_52
.Ltmp174:
@ %bb.47:
	@DEBUG_VALUE: tcp_write:oversize <- $r0
	@DEBUG_VALUE: tcp_write:queue <- $r11
	@DEBUG_VALUE: tcp_write:concat_chksummed <- [DW_OP_plus_uconst 24] [$sp+0]
	@DEBUG_VALUE: tcp_write:concat_chksum <- [DW_OP_plus_uconst 16] [$sp+0]
	@DEBUG_VALUE: tcp_write:oversize_used <- [DW_OP_plus_uconst 32] [$sp+0]
	@DEBUG_VALUE: tcp_write:concat_p <- [DW_OP_plus_uconst 28] [$sp+0]
	@DEBUG_VALUE: tcp_write:seg <- $r4
	@DEBUG_VALUE: tcp_write:last_unsent <- $r10
	@DEBUG_VALUE: tcp_write:arg <- [DW_OP_plus_uconst 68] [$sp+0]
	.loc	6 699 31                @ ../Libraries/lwip-1.4.1/src/core/tcp_out.c:699:31
	ldr.w	r0, [r10, #4]
.Ltmp175:
	.loc	6 699 9 is_stmt 0       @ ../Libraries/lwip-1.4.1/src/core/tcp_out.c:699:9
	mov	r1, r5
	bl	pbuf_cat
	.loc	6 700 39 is_stmt 1      @ ../Libraries/lwip-1.4.1/src/core/tcp_out.c:700:39
	ldrh	r0, [r5, #8]
	.loc	6 700 26 is_stmt 0      @ ../Libraries/lwip-1.4.1/src/core/tcp_out.c:700:26
	ldrh.w	r1, [r10, #8]
	add	r0, r1
	ldr	r1, [sp, #24]           @ 4-byte Reload
	strh.w	r0, [r10, #8]
	.loc	6 702 13 is_stmt 1      @ ../Libraries/lwip-1.4.1/src/core/tcp_out.c:702:13
	lsls	r0, r1, #16
	beq	.LBB2_51
.Ltmp176:
@ %bb.48:
	@DEBUG_VALUE: tcp_write:queue <- $r11
	@DEBUG_VALUE: tcp_write:concat_chksummed <- [DW_OP_plus_uconst 24] [$sp+0]
	@DEBUG_VALUE: tcp_write:concat_chksum <- [DW_OP_plus_uconst 16] [$sp+0]
	@DEBUG_VALUE: tcp_write:oversize_used <- [DW_OP_plus_uconst 32] [$sp+0]
	@DEBUG_VALUE: tcp_write:concat_p <- [DW_OP_plus_uconst 28] [$sp+0]
	@DEBUG_VALUE: tcp_write:seg <- $r4
	@DEBUG_VALUE: tcp_write:last_unsent <- $r10
	@DEBUG_VALUE: tcp_write:arg <- [DW_OP_plus_uconst 68] [$sp+0]
	@DEBUG_VALUE: tcp_seg_add_chksum:seg_chksum <- [DW_OP_plus_uconst 10, DW_OP_stack_value] $r10
	.loc	6 287 23                @ ../Libraries/lwip-1.4.1/src/core/tcp_out.c:287:23
	ldrh.w	r0, [r10, #10]
	.loc	6 287 21 is_stmt 0      @ ../Libraries/lwip-1.4.1/src/core/tcp_out.c:287:21
	ldr	r2, [sp, #16]           @ 4-byte Reload
	.loc	6 289 9 is_stmt 1       @ ../Libraries/lwip-1.4.1/src/core/tcp_out.c:289:9
	lsls	r1, r1, #31
	.loc	6 287 21                @ ../Libraries/lwip-1.4.1/src/core/tcp_out.c:287:21
	uxtah	r0, r0, r2
.Ltmp177:
	@DEBUG_VALUE: tcp_seg_add_chksum:helper <- $r0
	.loc	6 288 14                @ ../Libraries/lwip-1.4.1/src/core/tcp_out.c:288:14
	add.w	r0, r0, r0, lsr #16
.Ltmp178:
	@DEBUG_VALUE: tcp_seg_add_chksum:chksum <- undef
	.loc	6 289 9                 @ ../Libraries/lwip-1.4.1/src/core/tcp_out.c:289:9
	beq	.LBB2_50
.Ltmp179:
@ %bb.49:
	@DEBUG_VALUE: tcp_seg_add_chksum:seg_chksum <- [DW_OP_plus_uconst 10, DW_OP_stack_value] $r10
	@DEBUG_VALUE: tcp_write:queue <- $r11
	@DEBUG_VALUE: tcp_write:concat_chksummed <- [DW_OP_plus_uconst 24] [$sp+0]
	@DEBUG_VALUE: tcp_write:concat_chksum <- [DW_OP_plus_uconst 16] [$sp+0]
	@DEBUG_VALUE: tcp_write:oversize_used <- [DW_OP_plus_uconst 32] [$sp+0]
	@DEBUG_VALUE: tcp_write:concat_p <- [DW_OP_plus_uconst 28] [$sp+0]
	@DEBUG_VALUE: tcp_write:seg <- $r4
	@DEBUG_VALUE: tcp_write:last_unsent <- $r10
	@DEBUG_VALUE: tcp_write:arg <- [DW_OP_plus_uconst 68] [$sp+0]
	.loc	6 291 35                @ ../Libraries/lwip-1.4.1/src/core/tcp_out.c:291:35
	ldrb.w	r1, [r10, #12]
	rev	r0, r0
	lsrs	r0, r0, #16
.Ltmp180:
	@DEBUG_VALUE: tcp_seg_add_chksum:chksum <- $r0
	.loc	6 291 33 is_stmt 0      @ ../Libraries/lwip-1.4.1/src/core/tcp_out.c:291:33
	rsb.w	r1, r1, #1
	.loc	6 291 29                @ ../Libraries/lwip-1.4.1/src/core/tcp_out.c:291:29
	strb.w	r1, [r10, #12]
.Ltmp181:
.LBB2_50:
	@DEBUG_VALUE: tcp_seg_add_chksum:seg_chksum <- [DW_OP_plus_uconst 10, DW_OP_stack_value] $r10
	@DEBUG_VALUE: tcp_write:queue <- $r11
	@DEBUG_VALUE: tcp_write:concat_chksummed <- [DW_OP_plus_uconst 24] [$sp+0]
	@DEBUG_VALUE: tcp_write:concat_chksum <- [DW_OP_plus_uconst 16] [$sp+0]
	@DEBUG_VALUE: tcp_write:oversize_used <- [DW_OP_plus_uconst 32] [$sp+0]
	@DEBUG_VALUE: tcp_write:concat_p <- [DW_OP_plus_uconst 28] [$sp+0]
	@DEBUG_VALUE: tcp_write:seg <- $r4
	@DEBUG_VALUE: tcp_write:last_unsent <- $r10
	@DEBUG_VALUE: tcp_write:arg <- [DW_OP_plus_uconst 68] [$sp+0]
	@DEBUG_VALUE: tcp_seg_add_chksum:chksum <- $r0
	.loc	6 294 17 is_stmt 1      @ ../Libraries/lwip-1.4.1/src/core/tcp_out.c:294:17
	strh.w	r0, [r10, #10]
.Ltmp182:
	.loc	6 706 32                @ ../Libraries/lwip-1.4.1/src/core/tcp_out.c:706:32
	ldrb.w	r0, [r10, #13]
.Ltmp183:
	orr	r0, r0, #4
	strb.w	r0, [r10, #13]
.Ltmp184:
.LBB2_51:
	@DEBUG_VALUE: tcp_write:queue <- $r11
	@DEBUG_VALUE: tcp_write:concat_chksummed <- [DW_OP_plus_uconst 24] [$sp+0]
	@DEBUG_VALUE: tcp_write:concat_chksum <- [DW_OP_plus_uconst 16] [$sp+0]
	@DEBUG_VALUE: tcp_write:oversize_used <- [DW_OP_plus_uconst 32] [$sp+0]
	@DEBUG_VALUE: tcp_write:concat_p <- [DW_OP_plus_uconst 28] [$sp+0]
	@DEBUG_VALUE: tcp_write:seg <- $r4
	@DEBUG_VALUE: tcp_write:last_unsent <- $r10
	@DEBUG_VALUE: tcp_write:arg <- [DW_OP_plus_uconst 68] [$sp+0]
	.loc	6 0 32 is_stmt 0        @ ../Libraries/lwip-1.4.1/src/core/tcp_out.c:0:32
	mov	r0, r10
	b	.LBB2_53
.Ltmp185:
.LBB2_52:
	@DEBUG_VALUE: tcp_write:oversize <- $r0
	@DEBUG_VALUE: tcp_write:queue <- $r11
	@DEBUG_VALUE: tcp_write:concat_chksummed <- [DW_OP_plus_uconst 24] [$sp+0]
	@DEBUG_VALUE: tcp_write:concat_chksum <- [DW_OP_plus_uconst 16] [$sp+0]
	@DEBUG_VALUE: tcp_write:oversize_used <- [DW_OP_plus_uconst 32] [$sp+0]
	@DEBUG_VALUE: tcp_write:concat_p <- [DW_OP_plus_uconst 28] [$sp+0]
	@DEBUG_VALUE: tcp_write:seg <- $r4
	@DEBUG_VALUE: tcp_write:last_unsent <- $r10
	@DEBUG_VALUE: tcp_write:arg <- [DW_OP_plus_uconst 68] [$sp+0]
	ldr	r0, [sp, #20]           @ 4-byte Reload
.Ltmp186:
	.loc	6 715 9 is_stmt 1       @ ../Libraries/lwip-1.4.1/src/core/tcp_out.c:715:9
	cmp.w	r10, #0
	it	ne
	movne	r0, r10
.Ltmp187:
.LBB2_53:
	@DEBUG_VALUE: tcp_write:queue <- $r11
	@DEBUG_VALUE: tcp_write:concat_chksummed <- [DW_OP_plus_uconst 24] [$sp+0]
	@DEBUG_VALUE: tcp_write:concat_chksum <- [DW_OP_plus_uconst 16] [$sp+0]
	@DEBUG_VALUE: tcp_write:oversize_used <- [DW_OP_plus_uconst 32] [$sp+0]
	@DEBUG_VALUE: tcp_write:concat_p <- [DW_OP_plus_uconst 28] [$sp+0]
	@DEBUG_VALUE: tcp_write:seg <- $r4
	@DEBUG_VALUE: tcp_write:last_unsent <- $r10
	@DEBUG_VALUE: tcp_write:arg <- [DW_OP_plus_uconst 68] [$sp+0]
	.loc	6 0 0 is_stmt 0         @ ../Libraries/lwip-1.4.1/src/core/tcp_out.c:0:0
	str.w	r11, [r0]
.Ltmp188:
	.loc	6 729 23 is_stmt 1      @ ../Libraries/lwip-1.4.1/src/core/tcp_out.c:729:23
	strh.w	r7, [r8, #104]
	ldr	r1, [sp, #48]           @ 4-byte Reload
.Ltmp189:
	.loc	6 740 21                @ ../Libraries/lwip-1.4.1/src/core/tcp_out.c:740:21
	cmp	r4, #0
.Ltmp190:
	.loc	6 727 18                @ ../Libraries/lwip-1.4.1/src/core/tcp_out.c:727:18
	ldr.w	r0, [r8, #92]
	add	r0, r1
	str.w	r0, [r8, #92]
	.loc	6 728 18                @ ../Libraries/lwip-1.4.1/src/core/tcp_out.c:728:18
	ldrh.w	r0, [r8, #102]
	sub.w	r0, r0, r1
	strh.w	r0, [r8, #102]
.Ltmp191:
	.loc	6 740 21                @ ../Libraries/lwip-1.4.1/src/core/tcp_out.c:740:21
	beq	.LBB2_57
.Ltmp192:
@ %bb.54:
	@DEBUG_VALUE: tcp_write:queue <- $r11
	@DEBUG_VALUE: tcp_write:concat_chksummed <- [DW_OP_plus_uconst 24] [$sp+0]
	@DEBUG_VALUE: tcp_write:concat_chksum <- [DW_OP_plus_uconst 16] [$sp+0]
	@DEBUG_VALUE: tcp_write:oversize_used <- [DW_OP_plus_uconst 32] [$sp+0]
	@DEBUG_VALUE: tcp_write:concat_p <- [DW_OP_plus_uconst 28] [$sp+0]
	@DEBUG_VALUE: tcp_write:seg <- $r4
	@DEBUG_VALUE: tcp_write:last_unsent <- $r10
	@DEBUG_VALUE: tcp_write:arg <- [DW_OP_plus_uconst 68] [$sp+0]
	.loc	6 740 44 is_stmt 0      @ ../Libraries/lwip-1.4.1/src/core/tcp_out.c:740:44
	lsls	r0, r6, #30
	mov.w	r0, #0
	bmi	.LBB2_68
.Ltmp193:
@ %bb.55:
	@DEBUG_VALUE: tcp_write:queue <- $r11
	@DEBUG_VALUE: tcp_write:concat_chksummed <- [DW_OP_plus_uconst 24] [$sp+0]
	@DEBUG_VALUE: tcp_write:concat_chksum <- [DW_OP_plus_uconst 16] [$sp+0]
	@DEBUG_VALUE: tcp_write:oversize_used <- [DW_OP_plus_uconst 32] [$sp+0]
	@DEBUG_VALUE: tcp_write:concat_p <- [DW_OP_plus_uconst 28] [$sp+0]
	@DEBUG_VALUE: tcp_write:seg <- $r4
	@DEBUG_VALUE: tcp_write:last_unsent <- $r10
	@DEBUG_VALUE: tcp_write:arg <- [DW_OP_plus_uconst 68] [$sp+0]
	.loc	6 0 0                   @ ../Libraries/lwip-1.4.1/src/core/tcp_out.c:0:0
	ldr	r1, [r4, #16]
	.loc	6 740 44                @ ../Libraries/lwip-1.4.1/src/core/tcp_out.c:740:44
	cmp	r1, #0
	beq	.LBB2_68
.Ltmp194:
@ %bb.56:
	@DEBUG_VALUE: tcp_write:queue <- $r11
	@DEBUG_VALUE: tcp_write:concat_chksummed <- [DW_OP_plus_uconst 24] [$sp+0]
	@DEBUG_VALUE: tcp_write:concat_chksum <- [DW_OP_plus_uconst 16] [$sp+0]
	@DEBUG_VALUE: tcp_write:oversize_used <- [DW_OP_plus_uconst 32] [$sp+0]
	@DEBUG_VALUE: tcp_write:concat_p <- [DW_OP_plus_uconst 28] [$sp+0]
	@DEBUG_VALUE: tcp_write:seg <- $r4
	@DEBUG_VALUE: tcp_write:last_unsent <- $r10
	@DEBUG_VALUE: tcp_write:arg <- [DW_OP_plus_uconst 68] [$sp+0]
	.loc	6 742 9 is_stmt 1       @ ../Libraries/lwip-1.4.1/src/core/tcp_out.c:742:9
	ldrh	r5, [r1, #12]
	movs	r0, #8
	bl	lwip_htons
	ldr	r1, [r4, #16]
	orrs	r0, r5
	strh	r0, [r1, #12]
.Ltmp195:
.LBB2_57:
	@DEBUG_VALUE: tcp_write:queue <- $r11
	@DEBUG_VALUE: tcp_write:concat_chksummed <- [DW_OP_plus_uconst 24] [$sp+0]
	@DEBUG_VALUE: tcp_write:concat_chksum <- [DW_OP_plus_uconst 16] [$sp+0]
	@DEBUG_VALUE: tcp_write:oversize_used <- [DW_OP_plus_uconst 32] [$sp+0]
	@DEBUG_VALUE: tcp_write:concat_p <- [DW_OP_plus_uconst 28] [$sp+0]
	@DEBUG_VALUE: tcp_write:seg <- $r4
	@DEBUG_VALUE: tcp_write:last_unsent <- $r10
	@DEBUG_VALUE: tcp_write:arg <- [DW_OP_plus_uconst 68] [$sp+0]
	.loc	6 0 9 is_stmt 0         @ ../Libraries/lwip-1.4.1/src/core/tcp_out.c:0:9
	movs	r0, #0
	b	.LBB2_68
.Ltmp196:
.LBB2_58:
	@DEBUG_VALUE: chksum_swapped <- $r11
	@DEBUG_VALUE: chksum <- $r9
	@DEBUG_VALUE: p <- $r7
	@DEBUG_VALUE: seglen <- $r5
	@DEBUG_VALUE: tcp_write:queuelen <- [DW_OP_plus_uconst 64] [$sp+0]
	@DEBUG_VALUE: tcp_write:concat_chksummed <- [DW_OP_plus_uconst 24] [$sp+0]
	@DEBUG_VALUE: tcp_write:concat_chksum <- [DW_OP_plus_uconst 16] [$sp+0]
	@DEBUG_VALUE: tcp_write:oversize_used <- [DW_OP_plus_uconst 32] [$sp+0]
	@DEBUG_VALUE: tcp_write:concat_p <- [DW_OP_plus_uconst 28] [$sp+0]
	@DEBUG_VALUE: tcp_write:oversize <- [DW_OP_plus_uconst 74, DW_OP_deref] $sp
	@DEBUG_VALUE: tcp_write:pos <- $r8
	@DEBUG_VALUE: tcp_write:last_unsent <- $r10
	@DEBUG_VALUE: tcp_write:arg <- [DW_OP_plus_uconst 68] [$sp+0]
	.loc	6 621 13 is_stmt 1      @ ../Libraries/lwip-1.4.1/src/core/tcp_out.c:621:13
	mov	r0, r7
	bl	pbuf_free
	ldr	r6, [sp, #56]           @ 4-byte Reload
	b	.LBB2_63
.Ltmp197:
.LBB2_59:
	@DEBUG_VALUE: tcp_write:oversize <- [DW_OP_plus_uconst 74, DW_OP_deref] $sp
	@DEBUG_VALUE: tcp_write:pos <- $r8
	@DEBUG_VALUE: tcp_write:oversize_used <- $r8
	@DEBUG_VALUE: space <- $r1
	@DEBUG_VALUE: tcp_write:last_unsent <- $r10
	@DEBUG_VALUE: tcp_write:queuelen <- $r9
	@DEBUG_VALUE: tcp_write:apiflags <- $r6
	@DEBUG_VALUE: tcp_write:arg <- [DW_OP_plus_uconst 68] [$sp+0]
	@DEBUG_VALUE: tcp_write:pcb <- $r5
	@DEBUG_VALUE: tcp_write:oversize <- [DW_OP_plus_uconst 74, DW_OP_deref] $sp
	.loc	6 501 33                @ ../Libraries/lwip-1.4.1/src/core/tcp_out.c:501:33
	uxth.w	r8, r4
.Ltmp198:
	.loc	6 0 33 is_stmt 0        @ ../Libraries/lwip-1.4.1/src/core/tcp_out.c:0:33
	movs	r0, #1
	.loc	6 501 33                @ ../Libraries/lwip-1.4.1/src/core/tcp_out.c:501:33
	strd	r5, r6, [sp]
	add.w	r3, sp, #74
	str	r0, [sp, #8]
	movs	r0, #3
	mov	r1, r8
.Ltmp199:
	bl	tcp_pbuf_prealloc
.Ltmp200:
	.loc	6 501 21                @ ../Libraries/lwip-1.4.1/src/core/tcp_out.c:501:21
	cmp	r0, #0
	beq.w	.LBB2_6
.Ltmp201:
@ %bb.60:
	@DEBUG_VALUE: tcp_write:oversize <- [DW_OP_plus_uconst 74, DW_OP_deref] $sp
	@DEBUG_VALUE: tcp_write:last_unsent <- $r10
	@DEBUG_VALUE: tcp_write:queuelen <- $r9
	@DEBUG_VALUE: tcp_write:apiflags <- $r6
	@DEBUG_VALUE: tcp_write:arg <- [DW_OP_plus_uconst 68] [$sp+0]
	@DEBUG_VALUE: tcp_write:pcb <- $r5
	.loc	6 0 0                   @ ../Libraries/lwip-1.4.1/src/core/tcp_out.c:0:0
	mov	r11, r0
.Ltmp202:
	@DEBUG_VALUE: tcp_write:concat_p <- $r11
	.loc	6 511 17 is_stmt 1      @ ../Libraries/lwip-1.4.1/src/core/tcp_out.c:511:17
	ldr	r0, [sp, #68]           @ 4-byte Reload
	ldr	r5, [sp, #32]           @ 4-byte Reload
.Ltmp203:
	mov	r2, r8
	adds	r1, r0, r5
	ldr.w	r0, [r11, #4]
	bl	lwip_chksum_copy
.Ltmp204:
	@DEBUG_VALUE: tcp_seg_add_chksum:chksum <- $r0
	.loc	6 289 9                 @ ../Libraries/lwip-1.4.1/src/core/tcp_out.c:289:9
	lsls	r1, r4, #31
	it	ne
	rev16ne	r0, r0
.Ltmp205:
	.loc	6 0 9 is_stmt 0         @ ../Libraries/lwip-1.4.1/src/core/tcp_out.c:0:9
	str	r0, [sp, #16]           @ 4-byte Spill
.Ltmp206:
.LBB2_61:
	@DEBUG_VALUE: tcp_write:concat_p <- $r11
	@DEBUG_VALUE: tcp_write:oversize <- [DW_OP_plus_uconst 74, DW_OP_deref] $sp
	@DEBUG_VALUE: tcp_write:last_unsent <- $r10
	@DEBUG_VALUE: tcp_write:queuelen <- $r9
	@DEBUG_VALUE: tcp_write:apiflags <- $r6
	@DEBUG_VALUE: tcp_write:arg <- [DW_OP_plus_uconst 68] [$sp+0]
	@DEBUG_VALUE: tcp_write:concat_p <- $r11
	mov	r0, r11
.Ltmp207:
	@DEBUG_VALUE: tcp_write:concat_p <- [DW_OP_plus_uconst 28] [$sp+0]
	str	r4, [sp, #24]           @ 4-byte Spill
	.loc	6 535 17 is_stmt 1      @ ../Libraries/lwip-1.4.1/src/core/tcp_out.c:535:17
	add.w	r8, r5, r4
.Ltmp208:
	@DEBUG_VALUE: tcp_write:pos <- $r8
	.loc	6 536 25                @ ../Libraries/lwip-1.4.1/src/core/tcp_out.c:536:25
	str.w	r11, [sp, #28]          @ 4-byte Spill
	bl	pbuf_clen
	ldr	r2, [sp, #44]           @ 4-byte Reload
	.loc	6 536 22 is_stmt 0      @ ../Libraries/lwip-1.4.1/src/core/tcp_out.c:536:22
	add	r9, r0
.Ltmp209:
	@DEBUG_VALUE: tcp_write:queuelen <- $r9
	.loc	6 0 0                   @ ../Libraries/lwip-1.4.1/src/core/tcp_out.c:0:0
	mov	r4, r10
	b	.LBB2_25
.Ltmp210:
.LBB2_62:
	@DEBUG_VALUE: p2 <- $r11
	@DEBUG_VALUE: seglen <- $r5
	@DEBUG_VALUE: tcp_write:queue <- $r6
	@DEBUG_VALUE: tcp_write:queuelen <- [DW_OP_plus_uconst 64] [$sp+0]
	@DEBUG_VALUE: tcp_write:concat_chksummed <- [DW_OP_plus_uconst 24] [$sp+0]
	@DEBUG_VALUE: tcp_write:concat_chksum <- [DW_OP_plus_uconst 16] [$sp+0]
	@DEBUG_VALUE: tcp_write:oversize_used <- [DW_OP_plus_uconst 32] [$sp+0]
	@DEBUG_VALUE: tcp_write:concat_p <- [DW_OP_plus_uconst 28] [$sp+0]
	@DEBUG_VALUE: tcp_write:oversize <- [DW_OP_plus_uconst 74, DW_OP_deref] $sp
	@DEBUG_VALUE: tcp_write:pos <- $r8
	@DEBUG_VALUE: tcp_write:last_unsent <- $r10
	@DEBUG_VALUE: tcp_write:arg <- [DW_OP_plus_uconst 68] [$sp+0]
	.loc	6 605 17 is_stmt 1      @ ../Libraries/lwip-1.4.1/src/core/tcp_out.c:605:17
	mov	r0, r11
	bl	pbuf_free
.Ltmp211:
.LBB2_63:
	@DEBUG_VALUE: tcp_write:queuelen <- [DW_OP_plus_uconst 64] [$sp+0]
	@DEBUG_VALUE: tcp_write:concat_chksummed <- [DW_OP_plus_uconst 24] [$sp+0]
	@DEBUG_VALUE: tcp_write:concat_chksum <- [DW_OP_plus_uconst 16] [$sp+0]
	@DEBUG_VALUE: tcp_write:oversize_used <- [DW_OP_plus_uconst 32] [$sp+0]
	@DEBUG_VALUE: tcp_write:concat_p <- [DW_OP_plus_uconst 28] [$sp+0]
	@DEBUG_VALUE: tcp_write:oversize <- [DW_OP_plus_uconst 74, DW_OP_deref] $sp
	@DEBUG_VALUE: tcp_write:pos <- $r8
	@DEBUG_VALUE: tcp_write:last_unsent <- $r10
	@DEBUG_VALUE: tcp_write:arg <- [DW_OP_plus_uconst 68] [$sp+0]
	@DEBUG_LABEL: tcp_write:memerr
	.loc	6 0 17 is_stmt 0        @ ../Libraries/lwip-1.4.1/src/core/tcp_out.c:0:17
	ldr	r1, [sp, #60]           @ 4-byte Reload
	.loc	6 747 16 is_stmt 1      @ ../Libraries/lwip-1.4.1/src/core/tcp_out.c:747:16
	ldrb	r0, [r1, #30]
	orr	r0, r0, #128
	strb	r0, [r1, #30]
	ldr	r0, [sp, #28]           @ 4-byte Reload
	cbz	r0, .LBB2_65
.Ltmp212:
@ %bb.64:
	@DEBUG_VALUE: tcp_write:queuelen <- [DW_OP_plus_uconst 64] [$sp+0]
	@DEBUG_VALUE: tcp_write:concat_chksummed <- [DW_OP_plus_uconst 24] [$sp+0]
	@DEBUG_VALUE: tcp_write:concat_chksum <- [DW_OP_plus_uconst 16] [$sp+0]
	@DEBUG_VALUE: tcp_write:oversize_used <- [DW_OP_plus_uconst 32] [$sp+0]
	@DEBUG_VALUE: tcp_write:concat_p <- [DW_OP_plus_uconst 28] [$sp+0]
	@DEBUG_VALUE: tcp_write:oversize <- [DW_OP_plus_uconst 74, DW_OP_deref] $sp
	@DEBUG_VALUE: tcp_write:pos <- $r8
	@DEBUG_VALUE: tcp_write:last_unsent <- $r10
	@DEBUG_VALUE: tcp_write:arg <- [DW_OP_plus_uconst 68] [$sp+0]
	.loc	6 752 9                 @ ../Libraries/lwip-1.4.1/src/core/tcp_out.c:752:9
	bl	pbuf_free
.Ltmp213:
.LBB2_65:
	@DEBUG_VALUE: tcp_write:queuelen <- [DW_OP_plus_uconst 64] [$sp+0]
	@DEBUG_VALUE: tcp_write:concat_chksummed <- [DW_OP_plus_uconst 24] [$sp+0]
	@DEBUG_VALUE: tcp_write:concat_chksum <- [DW_OP_plus_uconst 16] [$sp+0]
	@DEBUG_VALUE: tcp_write:oversize_used <- [DW_OP_plus_uconst 32] [$sp+0]
	@DEBUG_VALUE: tcp_write:concat_p <- [DW_OP_plus_uconst 28] [$sp+0]
	@DEBUG_VALUE: tcp_write:oversize <- [DW_OP_plus_uconst 74, DW_OP_deref] $sp
	@DEBUG_VALUE: tcp_write:pos <- $r8
	@DEBUG_VALUE: tcp_write:last_unsent <- $r10
	@DEBUG_VALUE: tcp_write:arg <- [DW_OP_plus_uconst 68] [$sp+0]
	.loc	6 0 9 is_stmt 0         @ ../Libraries/lwip-1.4.1/src/core/tcp_out.c:0:9
	cbz	r6, .LBB2_67
.Ltmp214:
@ %bb.66:
	@DEBUG_VALUE: tcp_write:queuelen <- [DW_OP_plus_uconst 64] [$sp+0]
	@DEBUG_VALUE: tcp_write:concat_chksummed <- [DW_OP_plus_uconst 24] [$sp+0]
	@DEBUG_VALUE: tcp_write:concat_chksum <- [DW_OP_plus_uconst 16] [$sp+0]
	@DEBUG_VALUE: tcp_write:oversize_used <- [DW_OP_plus_uconst 32] [$sp+0]
	@DEBUG_VALUE: tcp_write:concat_p <- [DW_OP_plus_uconst 28] [$sp+0]
	@DEBUG_VALUE: tcp_write:oversize <- [DW_OP_plus_uconst 74, DW_OP_deref] $sp
	@DEBUG_VALUE: tcp_write:pos <- $r8
	@DEBUG_VALUE: tcp_write:last_unsent <- $r10
	@DEBUG_VALUE: tcp_write:arg <- [DW_OP_plus_uconst 68] [$sp+0]
	.loc	6 756 9 is_stmt 1       @ ../Libraries/lwip-1.4.1/src/core/tcp_out.c:756:9
	mov	r0, r6
	bl	tcp_segs_free
.Ltmp215:
.LBB2_67:
	@DEBUG_VALUE: tcp_write:arg <- [DW_OP_plus_uconst 68] [$sp+0]
	.loc	6 0 9 is_stmt 0         @ ../Libraries/lwip-1.4.1/src/core/tcp_out.c:0:9
	movs	r0, #255
.Ltmp216:
.LBB2_68:
	@DEBUG_VALUE: tcp_write:arg <- [DW_OP_plus_uconst 68] [$sp+0]
	.loc	6 765 1 is_stmt 1       @ ../Libraries/lwip-1.4.1/src/core/tcp_out.c:765:1
	sxtb	r0, r0
	add	sp, #76
.Ltmp217:
	pop.w	{r4, r5, r6, r7, r8, r9, r10, r11, pc}
.Ltmp218:
.Lfunc_end2:
	.size	tcp_write, .Lfunc_end2-tcp_write
	.cfi_endproc
	.file	7 "F:\\SkyDrive\\OtvoreniProjekti\\HotelSaplast\\fw\\KontrolerHotela\\HC070318\\Project" "../Libraries/lwip-1.4.1/src/include\\lwip/err.h"
	.file	8 "F:\\SkyDrive\\OtvoreniProjekti\\HotelSaplast\\fw\\KontrolerHotela\\HC070318\\Project" "../Libraries/lwip-1.4.1/src/include/ipv4\\lwip/ip_addr.h"
	.cantunwind
	.fnend
                                        @ -- End function
	.section	.text.tcp_pbuf_prealloc,"ax",%progbits
	.p2align	1               @ -- Begin function tcp_pbuf_prealloc
	.type	tcp_pbuf_prealloc,%function
	.code	16                      @ @tcp_pbuf_prealloc
	.thumb_func
tcp_pbuf_prealloc:
.Lfunc_begin3:
	.loc	6 228 0                 @ ../Libraries/lwip-1.4.1/src/core/tcp_out.c:228:0
	.fnstart
	.cfi_startproc
@ %bb.0:
	.save	{r4, r5, r7, lr}
	push	{r4, r5, r7, lr}
	.cfi_def_cfa_offset 16
	.cfi_offset lr, -4
	.cfi_offset r7, -8
	.cfi_offset r5, -12
	.cfi_offset r4, -16
	@DEBUG_VALUE: tcp_pbuf_prealloc:layer <- $r0
	@DEBUG_VALUE: tcp_pbuf_prealloc:length <- $r1
	@DEBUG_VALUE: tcp_pbuf_prealloc:max_length <- $r2
	@DEBUG_VALUE: tcp_pbuf_prealloc:oversize <- $r3
.Ltmp219:
	@DEBUG_VALUE: tcp_pbuf_prealloc:alloc <- $r1
	mov	r4, r3
	mov	r5, r1
	@DEBUG_VALUE: tcp_pbuf_prealloc:apiflags <- undef
.Ltmp220:
	@DEBUG_VALUE: tcp_pbuf_prealloc:alloc <- $r5
	@DEBUG_VALUE: tcp_pbuf_prealloc:pcb <- [DW_OP_plus_uconst 16] [$sp+0]
	@DEBUG_VALUE: tcp_pbuf_prealloc:oversize <- $r4
	@DEBUG_VALUE: tcp_pbuf_prealloc:max_length <- $r2
	@DEBUG_VALUE: tcp_pbuf_prealloc:length <- $r5
	@DEBUG_VALUE: tcp_pbuf_prealloc:layer <- $r0
	.loc	6 240 9 prologue_end    @ ../Libraries/lwip-1.4.1/src/core/tcp_out.c:240:9
	cmp	r1, r2
	bhs	.LBB3_7
.Ltmp221:
@ %bb.1:
	@DEBUG_VALUE: tcp_pbuf_prealloc:length <- $r5
	@DEBUG_VALUE: tcp_pbuf_prealloc:oversize <- $r4
	@DEBUG_VALUE: tcp_pbuf_prealloc:pcb <- [DW_OP_plus_uconst 16] [$sp+0]
	@DEBUG_VALUE: tcp_pbuf_prealloc:alloc <- $r5
	@DEBUG_VALUE: tcp_pbuf_prealloc:max_length <- $r2
	@DEBUG_VALUE: tcp_pbuf_prealloc:layer <- $r0
	.loc	6 0 9 is_stmt 0         @ ../Libraries/lwip-1.4.1/src/core/tcp_out.c:0:9
	ldr	r1, [sp, #20]
.Ltmp222:
	.loc	6 253 46 is_stmt 1      @ ../Libraries/lwip-1.4.1/src/core/tcp_out.c:253:46
	lsls	r1, r1, #30
	bmi	.LBB3_6
.Ltmp223:
@ %bb.2:
	@DEBUG_VALUE: tcp_pbuf_prealloc:length <- $r5
	@DEBUG_VALUE: tcp_pbuf_prealloc:oversize <- $r4
	@DEBUG_VALUE: tcp_pbuf_prealloc:pcb <- [DW_OP_plus_uconst 16] [$sp+0]
	@DEBUG_VALUE: tcp_pbuf_prealloc:alloc <- $r5
	@DEBUG_VALUE: tcp_pbuf_prealloc:max_length <- $r2
	@DEBUG_VALUE: tcp_pbuf_prealloc:layer <- $r0
	.loc	6 0 46 is_stmt 0        @ ../Libraries/lwip-1.4.1/src/core/tcp_out.c:0:46
	ldr	r3, [sp, #16]
	.loc	6 254 25 is_stmt 1      @ ../Libraries/lwip-1.4.1/src/core/tcp_out.c:254:25
	ldrb	r1, [r3, #30]
	.loc	6 254 45 is_stmt 0      @ ../Libraries/lwip-1.4.1/src/core/tcp_out.c:254:45
	lsls	r1, r1, #25
.Ltmp224:
	.loc	6 0 0                   @ ../Libraries/lwip-1.4.1/src/core/tcp_out.c:0:0
	mov	r1, r5
.Ltmp225:
	.loc	6 254 45                @ ../Libraries/lwip-1.4.1/src/core/tcp_out.c:254:45
	bmi	.LBB3_7
.Ltmp226:
@ %bb.3:
	@DEBUG_VALUE: tcp_pbuf_prealloc:length <- $r5
	@DEBUG_VALUE: tcp_pbuf_prealloc:oversize <- $r4
	@DEBUG_VALUE: tcp_pbuf_prealloc:pcb <- [DW_OP_plus_uconst 16] [$sp+0]
	@DEBUG_VALUE: tcp_pbuf_prealloc:alloc <- $r5
	@DEBUG_VALUE: tcp_pbuf_prealloc:max_length <- $r2
	@DEBUG_VALUE: tcp_pbuf_prealloc:layer <- $r0
	.loc	6 0 45                  @ ../Libraries/lwip-1.4.1/src/core/tcp_out.c:0:45
	ldr	r1, [sp, #24]
	@DEBUG_VALUE: tcp_pbuf_prealloc:first_seg <- $r1
	.loc	6 255 29 is_stmt 1      @ ../Libraries/lwip-1.4.1/src/core/tcp_out.c:255:29
	cbz	r1, .LBB3_6
.Ltmp227:
@ %bb.4:
	@DEBUG_VALUE: tcp_pbuf_prealloc:first_seg <- $r1
	@DEBUG_VALUE: tcp_pbuf_prealloc:length <- $r5
	@DEBUG_VALUE: tcp_pbuf_prealloc:oversize <- $r4
	@DEBUG_VALUE: tcp_pbuf_prealloc:pcb <- [DW_OP_plus_uconst 16] [$sp+0]
	@DEBUG_VALUE: tcp_pbuf_prealloc:alloc <- $r5
	@DEBUG_VALUE: tcp_pbuf_prealloc:max_length <- $r2
	@DEBUG_VALUE: tcp_pbuf_prealloc:layer <- $r0
	.loc	6 256 22                @ ../Libraries/lwip-1.4.1/src/core/tcp_out.c:256:22
	ldr	r1, [r3, #108]
.Ltmp228:
	.loc	6 256 37 is_stmt 0      @ ../Libraries/lwip-1.4.1/src/core/tcp_out.c:256:37
	cbnz	r1, .LBB3_6
.Ltmp229:
@ %bb.5:
	@DEBUG_VALUE: tcp_pbuf_prealloc:length <- $r5
	@DEBUG_VALUE: tcp_pbuf_prealloc:oversize <- $r4
	@DEBUG_VALUE: tcp_pbuf_prealloc:pcb <- [DW_OP_plus_uconst 16] [$sp+0]
	@DEBUG_VALUE: tcp_pbuf_prealloc:alloc <- $r5
	@DEBUG_VALUE: tcp_pbuf_prealloc:max_length <- $r2
	@DEBUG_VALUE: tcp_pbuf_prealloc:layer <- $r0
	.loc	6 257 22 is_stmt 1      @ ../Libraries/lwip-1.4.1/src/core/tcp_out.c:257:22
	ldr	r1, [r3, #112]
.Ltmp230:
	.loc	6 253 13                @ ../Libraries/lwip-1.4.1/src/core/tcp_out.c:253:13
	cmp	r1, #0
.Ltmp231:
	.loc	6 0 0 is_stmt 0         @ ../Libraries/lwip-1.4.1/src/core/tcp_out.c:0:0
	mov	r1, r5
.Ltmp232:
	.loc	6 253 13                @ ../Libraries/lwip-1.4.1/src/core/tcp_out.c:253:13
	beq	.LBB3_7
.Ltmp233:
.LBB3_6:
	@DEBUG_VALUE: tcp_pbuf_prealloc:length <- $r5
	@DEBUG_VALUE: tcp_pbuf_prealloc:oversize <- $r4
	@DEBUG_VALUE: tcp_pbuf_prealloc:pcb <- [DW_OP_plus_uconst 16] [$sp+0]
	@DEBUG_VALUE: tcp_pbuf_prealloc:alloc <- $r5
	@DEBUG_VALUE: tcp_pbuf_prealloc:max_length <- $r2
	@DEBUG_VALUE: tcp_pbuf_prealloc:layer <- $r0
	.loc	6 259 21 is_stmt 1      @ ../Libraries/lwip-1.4.1/src/core/tcp_out.c:259:21
	addw	r1, r5, #1463
	bic	r1, r1, #3
	cmp	r1, r2
	it	hi
	movhi	r1, r2
.Ltmp234:
	@DEBUG_VALUE: tcp_pbuf_prealloc:alloc <- undef
.LBB3_7:
	@DEBUG_VALUE: tcp_pbuf_prealloc:length <- $r5
	@DEBUG_VALUE: tcp_pbuf_prealloc:oversize <- $r4
	@DEBUG_VALUE: tcp_pbuf_prealloc:pcb <- [DW_OP_plus_uconst 16] [$sp+0]
	@DEBUG_VALUE: tcp_pbuf_prealloc:max_length <- $r2
	@DEBUG_VALUE: tcp_pbuf_prealloc:layer <- $r0
	@DEBUG_VALUE: tcp_pbuf_prealloc:alloc <- $r1
	.loc	6 263 9                 @ ../Libraries/lwip-1.4.1/src/core/tcp_out.c:263:9
	uxth	r1, r1
.Ltmp235:
	movs	r2, #0
.Ltmp236:
	bl	pbuf_alloc
.Ltmp237:
	@DEBUG_VALUE: tcp_pbuf_prealloc:p <- $r0
	.loc	6 264 9                 @ ../Libraries/lwip-1.4.1/src/core/tcp_out.c:264:9
	cbz	r0, .LBB3_9
.Ltmp238:
@ %bb.8:
	@DEBUG_VALUE: tcp_pbuf_prealloc:p <- $r0
	@DEBUG_VALUE: tcp_pbuf_prealloc:length <- $r5
	@DEBUG_VALUE: tcp_pbuf_prealloc:oversize <- $r4
	@DEBUG_VALUE: tcp_pbuf_prealloc:pcb <- [DW_OP_plus_uconst 16] [$sp+0]
	.loc	6 269 20                @ ../Libraries/lwip-1.4.1/src/core/tcp_out.c:269:20
	ldrh	r1, [r0, #10]
	.loc	6 269 24 is_stmt 0      @ ../Libraries/lwip-1.4.1/src/core/tcp_out.c:269:24
	subs	r1, r1, r5
	.loc	6 269 15                @ ../Libraries/lwip-1.4.1/src/core/tcp_out.c:269:15
	strh	r1, [r4]
	.loc	6 271 12 is_stmt 1      @ ../Libraries/lwip-1.4.1/src/core/tcp_out.c:271:12
	strh	r5, [r0, #10]
	.loc	6 271 25 is_stmt 0      @ ../Libraries/lwip-1.4.1/src/core/tcp_out.c:271:25
	strh	r5, [r0, #8]
.Ltmp239:
.LBB3_9:
	@DEBUG_VALUE: tcp_pbuf_prealloc:p <- $r0
	@DEBUG_VALUE: tcp_pbuf_prealloc:length <- $r5
	@DEBUG_VALUE: tcp_pbuf_prealloc:oversize <- $r4
	@DEBUG_VALUE: tcp_pbuf_prealloc:pcb <- [DW_OP_plus_uconst 16] [$sp+0]
	.loc	6 273 1 is_stmt 1       @ ../Libraries/lwip-1.4.1/src/core/tcp_out.c:273:1
	pop	{r4, r5, r7, pc}
.Ltmp240:
.Lfunc_end3:
	.size	tcp_pbuf_prealloc, .Lfunc_end3-tcp_pbuf_prealloc
	.cfi_endproc
	.cantunwind
	.fnend
                                        @ -- End function
	.section	.text.tcp_create_segment,"ax",%progbits
	.p2align	1               @ -- Begin function tcp_create_segment
	.type	tcp_create_segment,%function
	.code	16                      @ @tcp_create_segment
	.thumb_func
tcp_create_segment:
.Lfunc_begin4:
	.loc	6 163 0                 @ ../Libraries/lwip-1.4.1/src/core/tcp_out.c:163:0
	.fnstart
	.cfi_startproc
@ %bb.0:
	.save	{r4, r5, r6, r7, r8, r9, r10, lr}
	push.w	{r4, r5, r6, r7, r8, r9, r10, lr}
	.cfi_def_cfa_offset 32
	.cfi_offset lr, -4
	.cfi_offset r10, -8
	.cfi_offset r9, -12
	.cfi_offset r8, -16
	.cfi_offset r7, -20
	.cfi_offset r6, -24
	.cfi_offset r5, -28
	.cfi_offset r4, -32
	@DEBUG_VALUE: tcp_create_segment:pcb <- $r0
	@DEBUG_VALUE: tcp_create_segment:p <- $r1
	@DEBUG_VALUE: tcp_create_segment:flags <- $r2
	@DEBUG_VALUE: tcp_create_segment:seqno <- $r3
	mov	r7, r0
.Ltmp241:
	@DEBUG_VALUE: tcp_create_segment:seqno <- $r9
	@DEBUG_VALUE: tcp_create_segment:flags <- $r8
	@DEBUG_VALUE: tcp_create_segment:p <- $r5
	@DEBUG_VALUE: tcp_create_segment:pcb <- $r7
	.loc	6 167 35 prologue_end   @ ../Libraries/lwip-1.4.1/src/core/tcp_out.c:167:35
	movs	r0, #4
	mov	r9, r3
.Ltmp242:
	.loc	6 0 35 is_stmt 0        @ ../Libraries/lwip-1.4.1/src/core/tcp_out.c:0:35
	mov	r8, r2
.Ltmp243:
	mov	r5, r1
.Ltmp244:
	movs	r6, #4
	.loc	6 167 35                @ ../Libraries/lwip-1.4.1/src/core/tcp_out.c:167:35
	bl	memp_malloc
.Ltmp245:
	.loc	6 167 9                 @ ../Libraries/lwip-1.4.1/src/core/tcp_out.c:167:9
	cbz	r0, .LBB4_3
.Ltmp246:
@ %bb.1:
	@DEBUG_VALUE: tcp_create_segment:pcb <- $r7
	.loc	6 0 9                   @ ../Libraries/lwip-1.4.1/src/core/tcp_out.c:0:9
	mov	r4, r0
.Ltmp247:
	@DEBUG_VALUE: tcp_create_segment:seg <- $r4
	ldr	r0, [sp, #32]
	@DEBUG_VALUE: tcp_create_segment:optflags <- $r0
	mov.w	r10, #0
	.loc	6 174 15 is_stmt 1      @ ../Libraries/lwip-1.4.1/src/core/tcp_out.c:174:15
	strd	r10, r5, [r4]
	.loc	6 173 16                @ ../Libraries/lwip-1.4.1/src/core/tcp_out.c:173:16
	strb	r0, [r4, #13]
	.loc	6 165 19                @ ../Libraries/lwip-1.4.1/src/core/tcp_out.c:165:19
	and.w	r6, r6, r0, lsl #2
	lsls	r0, r0, #30
.Ltmp248:
	.loc	6 176 19                @ ../Libraries/lwip-1.4.1/src/core/tcp_out.c:176:19
	ldrh	r1, [r5, #8]
	.loc	6 182 25                @ ../Libraries/lwip-1.4.1/src/core/tcp_out.c:182:25
	strb.w	r10, [r4, #12]
	.loc	6 181 17                @ ../Libraries/lwip-1.4.1/src/core/tcp_out.c:181:17
	strh.w	r10, [r4, #10]
	.loc	6 165 19                @ ../Libraries/lwip-1.4.1/src/core/tcp_out.c:165:19
	it	mi
	addmi	r6, #12
.Ltmp249:
	@DEBUG_VALUE: tcp_create_segment:optlen <- $r6
	.loc	6 176 16                @ ../Libraries/lwip-1.4.1/src/core/tcp_out.c:176:16
	subs	r0, r1, r6
.Ltmp250:
	.loc	6 189 9                 @ ../Libraries/lwip-1.4.1/src/core/tcp_out.c:189:9
	movs	r1, #20
.Ltmp251:
	.loc	6 176 14                @ ../Libraries/lwip-1.4.1/src/core/tcp_out.c:176:14
	strh	r0, [r4, #8]
.Ltmp252:
	.loc	6 189 9                 @ ../Libraries/lwip-1.4.1/src/core/tcp_out.c:189:9
	mov	r0, r5
	bl	pbuf_header
.Ltmp253:
	.loc	6 189 9 is_stmt 0       @ ../Libraries/lwip-1.4.1/src/core/tcp_out.c:189:9
	cbz	r0, .LBB4_5
.Ltmp254:
@ %bb.2:
	@DEBUG_VALUE: tcp_create_segment:optlen <- $r6
	@DEBUG_VALUE: tcp_create_segment:seg <- $r4
	@DEBUG_VALUE: tcp_create_segment:pcb <- $r7
	.loc	6 193 9 is_stmt 1       @ ../Libraries/lwip-1.4.1/src/core/tcp_out.c:193:9
	mov	r0, r4
	bl	tcp_seg_free
	b	.LBB4_4
.Ltmp255:
.LBB4_3:
	@DEBUG_VALUE: tcp_create_segment:pcb <- $r7
	.loc	6 170 9                 @ ../Libraries/lwip-1.4.1/src/core/tcp_out.c:170:9
	mov	r0, r5
	bl	pbuf_free
.Ltmp256:
.LBB4_4:
	@DEBUG_VALUE: tcp_create_segment:pcb <- $r7
	.loc	6 0 9 is_stmt 0         @ ../Libraries/lwip-1.4.1/src/core/tcp_out.c:0:9
	movs	r4, #0
	b	.LBB4_6
.Ltmp257:
.LBB4_5:
	@DEBUG_VALUE: tcp_create_segment:optlen <- $r6
	@DEBUG_VALUE: tcp_create_segment:seg <- $r4
	@DEBUG_VALUE: tcp_create_segment:pcb <- $r7
	.loc	6 196 43 is_stmt 1      @ ../Libraries/lwip-1.4.1/src/core/tcp_out.c:196:43
	ldr	r0, [r4, #4]
	.loc	6 196 46 is_stmt 0      @ ../Libraries/lwip-1.4.1/src/core/tcp_out.c:196:46
	ldr	r0, [r0, #4]
	.loc	6 196 17                @ ../Libraries/lwip-1.4.1/src/core/tcp_out.c:196:17
	str	r0, [r4, #16]
	.loc	6 197 24 is_stmt 1      @ ../Libraries/lwip-1.4.1/src/core/tcp_out.c:197:24
	ldrh	r0, [r7, #26]
	bl	lwip_htons
	.loc	6 197 10 is_stmt 0      @ ../Libraries/lwip-1.4.1/src/core/tcp_out.c:197:10
	ldr	r1, [r4, #16]
	.loc	6 197 22                @ ../Libraries/lwip-1.4.1/src/core/tcp_out.c:197:22
	strh	r0, [r1]
	.loc	6 198 25 is_stmt 1      @ ../Libraries/lwip-1.4.1/src/core/tcp_out.c:198:25
	ldrh	r0, [r7, #28]
	bl	lwip_htons
	.loc	6 198 10 is_stmt 0      @ ../Libraries/lwip-1.4.1/src/core/tcp_out.c:198:10
	ldr	r1, [r4, #16]
	.loc	6 198 23                @ ../Libraries/lwip-1.4.1/src/core/tcp_out.c:198:23
	strh	r0, [r1, #2]
	.loc	6 199 26 is_stmt 1      @ ../Libraries/lwip-1.4.1/src/core/tcp_out.c:199:26
	mov	r0, r9
	bl	lwip_htonl
	.loc	6 199 10 is_stmt 0      @ ../Libraries/lwip-1.4.1/src/core/tcp_out.c:199:10
	ldr	r1, [r4, #16]
	.loc	6 199 24                @ ../Libraries/lwip-1.4.1/src/core/tcp_out.c:199:24
	str	r0, [r1, #4]
	movs	r0, #5
	.loc	6 201 5 is_stmt 1       @ ../Libraries/lwip-1.4.1/src/core/tcp_out.c:201:5
	add.w	r0, r0, r6, lsr #2
	orr.w	r0, r8, r0, lsl #12
	bl	lwip_htons
	ldr	r1, [r4, #16]
	.loc	6 203 23                @ ../Libraries/lwip-1.4.1/src/core/tcp_out.c:203:23
	strh.w	r10, [r1, #18]
	.loc	6 201 5                 @ ../Libraries/lwip-1.4.1/src/core/tcp_out.c:201:5
	strh	r0, [r1, #12]
.Ltmp258:
.LBB4_6:
	@DEBUG_VALUE: tcp_create_segment:pcb <- $r7
	.loc	6 205 1                 @ ../Libraries/lwip-1.4.1/src/core/tcp_out.c:205:1
	mov	r0, r4
	pop.w	{r4, r5, r6, r7, r8, r9, r10, pc}
.Ltmp259:
.Lfunc_end4:
	.size	tcp_create_segment, .Lfunc_end4-tcp_create_segment
	.cfi_endproc
	.cantunwind
	.fnend
                                        @ -- End function
	.section	.text.tcp_send_empty_ack,"ax",%progbits
	.hidden	tcp_send_empty_ack      @ -- Begin function tcp_send_empty_ack
	.globl	tcp_send_empty_ack
	.p2align	1
	.type	tcp_send_empty_ack,%function
	.code	16                      @ @tcp_send_empty_ack
	.thumb_func
tcp_send_empty_ack:
.Lfunc_begin5:
	.loc	6 912 0                 @ ../Libraries/lwip-1.4.1/src/core/tcp_out.c:912:0
	.fnstart
	.cfi_startproc
@ %bb.0:
	.save	{r4, r5, r6, r7, r8, lr}
	push.w	{r4, r5, r6, r7, r8, lr}
	.cfi_def_cfa_offset 24
	.cfi_offset lr, -4
	.cfi_offset r8, -8
	.cfi_offset r7, -12
	.cfi_offset r6, -16
	.cfi_offset r5, -20
	.cfi_offset r4, -24
	.pad	#8
	sub	sp, #8
	.cfi_def_cfa_offset 32
	@DEBUG_VALUE: tcp_send_empty_ack:pcb <- $r0
	mov	r4, r0
.Ltmp260:
	@DEBUG_VALUE: tcp_send_empty_ack:optlen <- 0
	@DEBUG_VALUE: tcp_send_empty_ack:pcb <- $r4
	.loc	6 924 49 prologue_end   @ ../Libraries/lwip-1.4.1/src/core/tcp_out.c:924:49
	ldr	r0, [r0, #80]
	bl	lwip_htonl
	mov	r2, r0
	.loc	6 924 9 is_stmt 0       @ ../Libraries/lwip-1.4.1/src/core/tcp_out.c:924:9
	mov	r0, r4
	movs	r1, #0
	bl	tcp_output_alloc_header
	.loc	6 925 9 is_stmt 1       @ ../Libraries/lwip-1.4.1/src/core/tcp_out.c:925:9
	cbz	r0, .LBB5_2
.Ltmp261:
@ %bb.1:
	@DEBUG_VALUE: tcp_send_empty_ack:pcb <- $r4
	.loc	6 0 0 is_stmt 0         @ ../Libraries/lwip-1.4.1/src/core/tcp_out.c:0:0
	mov	r5, r0
.Ltmp262:
	@DEBUG_VALUE: tcp_send_empty_ack:p <- $r5
	.loc	6 930 36 is_stmt 1      @ ../Libraries/lwip-1.4.1/src/core/tcp_out.c:930:36
	ldr	r7, [r0, #4]
.Ltmp263:
	@DEBUG_VALUE: tcp_send_empty_ack:tcphdr <- $r7
	.loc	6 934 16                @ ../Libraries/lwip-1.4.1/src/core/tcp_out.c:934:16
	ldrb	r0, [r4, #30]
	.loc	6 947 69                @ ../Libraries/lwip-1.4.1/src/core/tcp_out.c:947:69
	adds	r6, r4, #4
	.loc	6 947 22 is_stmt 0      @ ../Libraries/lwip-1.4.1/src/core/tcp_out.c:947:22
	mov	r1, r4
	movs	r3, #6
	mov.w	r8, #6
	mov	r2, r6
	.loc	6 934 16 is_stmt 1      @ ../Libraries/lwip-1.4.1/src/core/tcp_out.c:934:16
	and	r0, r0, #252
	strb	r0, [r4, #30]
	.loc	6 948 58                @ ../Libraries/lwip-1.4.1/src/core/tcp_out.c:948:58
	ldrh	r0, [r5, #8]
	.loc	6 947 22                @ ../Libraries/lwip-1.4.1/src/core/tcp_out.c:947:22
	str	r0, [sp]
	mov	r0, r5
	bl	inet_chksum_pseudo
	.loc	6 947 20 is_stmt 0      @ ../Libraries/lwip-1.4.1/src/core/tcp_out.c:947:20
	strh	r0, [r7, #16]
	.loc	6 954 5 is_stmt 1       @ ../Libraries/lwip-1.4.1/src/core/tcp_out.c:954:5
	mov	r1, r4
	mov	r2, r6
	.loc	6 954 70 is_stmt 0      @ ../Libraries/lwip-1.4.1/src/core/tcp_out.c:954:70
	ldrb	r0, [r4, #9]
	.loc	6 954 60                @ ../Libraries/lwip-1.4.1/src/core/tcp_out.c:954:60
	ldrb	r3, [r4, #10]
	.loc	6 954 5                 @ ../Libraries/lwip-1.4.1/src/core/tcp_out.c:954:5
	strd	r0, r8, [sp]
	mov	r0, r5
	bl	ip_output
	.loc	6 957 5 is_stmt 1       @ ../Libraries/lwip-1.4.1/src/core/tcp_out.c:957:5
	mov	r0, r5
	bl	pbuf_free
	movs	r0, #0
	b	.LBB5_3
.Ltmp264:
.LBB5_2:
	@DEBUG_VALUE: tcp_send_empty_ack:pcb <- $r4
	.loc	6 0 5 is_stmt 0         @ ../Libraries/lwip-1.4.1/src/core/tcp_out.c:0:5
	movs	r0, #254
.Ltmp265:
.LBB5_3:
	@DEBUG_VALUE: tcp_send_empty_ack:pcb <- $r4
	.loc	6 960 1 is_stmt 1       @ ../Libraries/lwip-1.4.1/src/core/tcp_out.c:960:1
	sxtb	r0, r0
	add	sp, #8
	pop.w	{r4, r5, r6, r7, r8, pc}
.Ltmp266:
.Lfunc_end5:
	.size	tcp_send_empty_ack, .Lfunc_end5-tcp_send_empty_ack
	.cfi_endproc
	.cantunwind
	.fnend
                                        @ -- End function
	.section	.text.tcp_output_alloc_header,"ax",%progbits
	.p2align	1               @ -- Begin function tcp_output_alloc_header
	.type	tcp_output_alloc_header,%function
	.code	16                      @ @tcp_output_alloc_header
	.thumb_func
tcp_output_alloc_header:
.Lfunc_begin6:
	.loc	6 96 0                  @ ../Libraries/lwip-1.4.1/src/core/tcp_out.c:96:0
	.fnstart
	.cfi_startproc
@ %bb.0:
	.save	{r4, r5, r6, r7, r8, lr}
	push.w	{r4, r5, r6, r7, r8, lr}
	.cfi_def_cfa_offset 24
	.cfi_offset lr, -4
	.cfi_offset r8, -8
	.cfi_offset r7, -12
	.cfi_offset r6, -16
	.cfi_offset r5, -20
	.cfi_offset r4, -24
	@DEBUG_VALUE: tcp_output_alloc_header:pcb <- $r0
	@DEBUG_VALUE: tcp_output_alloc_header:datalen <- $r1
	@DEBUG_VALUE: tcp_output_alloc_header:seqno_be <- $r2
	mov	r4, r0
	@DEBUG_VALUE: tcp_output_alloc_header:optlen <- 0
.Ltmp267:
	@DEBUG_VALUE: tcp_output_alloc_header:seqno_be <- $r6
	@DEBUG_VALUE: tcp_output_alloc_header:datalen <- $r1
	@DEBUG_VALUE: tcp_output_alloc_header:pcb <- $r4
	.loc	6 98 60 prologue_end    @ ../Libraries/lwip-1.4.1/src/core/tcp_out.c:98:60
	add.w	r0, r1, #20
	mov	r6, r2
.Ltmp268:
	.loc	6 98 22 is_stmt 0       @ ../Libraries/lwip-1.4.1/src/core/tcp_out.c:98:22
	movs	r2, #0
	mov.w	r8, #0
	uxth	r1, r0
.Ltmp269:
	movs	r0, #1
	bl	pbuf_alloc
	mov	r5, r0
.Ltmp270:
	@DEBUG_VALUE: tcp_output_alloc_header:p <- $r5
	.loc	6 99 9 is_stmt 1        @ ../Libraries/lwip-1.4.1/src/core/tcp_out.c:99:9
	cbz	r0, .LBB6_2
.Ltmp271:
@ %bb.1:
	@DEBUG_VALUE: tcp_output_alloc_header:p <- $r5
	@DEBUG_VALUE: tcp_output_alloc_header:pcb <- $r4
	.loc	6 104 23                @ ../Libraries/lwip-1.4.1/src/core/tcp_out.c:104:23
	ldrh	r0, [r4, #26]
	.loc	6 103 40                @ ../Libraries/lwip-1.4.1/src/core/tcp_out.c:103:40
	ldr	r7, [r5, #4]
.Ltmp272:
	@DEBUG_VALUE: tcp_output_alloc_header:tcphdr <- $r7
	.loc	6 104 23                @ ../Libraries/lwip-1.4.1/src/core/tcp_out.c:104:23
	bl	lwip_htons
	.loc	6 104 21 is_stmt 0      @ ../Libraries/lwip-1.4.1/src/core/tcp_out.c:104:21
	strh	r0, [r7]
	.loc	6 105 24 is_stmt 1      @ ../Libraries/lwip-1.4.1/src/core/tcp_out.c:105:24
	ldrh	r0, [r4, #28]
	bl	lwip_htons
	.loc	6 106 23                @ ../Libraries/lwip-1.4.1/src/core/tcp_out.c:106:23
	str	r6, [r7, #4]
	.loc	6 105 22                @ ../Libraries/lwip-1.4.1/src/core/tcp_out.c:105:22
	strh	r0, [r7, #2]
	.loc	6 107 25                @ ../Libraries/lwip-1.4.1/src/core/tcp_out.c:107:25
	ldr	r0, [r4, #40]
	bl	lwip_htonl
	.loc	6 107 23 is_stmt 0      @ ../Libraries/lwip-1.4.1/src/core/tcp_out.c:107:23
	str	r0, [r7, #8]
	.loc	6 108 9 is_stmt 1       @ ../Libraries/lwip-1.4.1/src/core/tcp_out.c:108:9
	movw	r0, #20496
	bl	lwip_htons
	strh	r0, [r7, #12]
	.loc	6 109 23                @ ../Libraries/lwip-1.4.1/src/core/tcp_out.c:109:23
	ldrh	r0, [r4, #46]
	bl	lwip_htons
	.loc	6 110 24                @ ../Libraries/lwip-1.4.1/src/core/tcp_out.c:110:24
	str.w	r8, [r7, #16]
	.loc	6 109 21                @ ../Libraries/lwip-1.4.1/src/core/tcp_out.c:109:21
	strh	r0, [r7, #14]
	.loc	6 114 55                @ ../Libraries/lwip-1.4.1/src/core/tcp_out.c:114:55
	ldrh	r0, [r4, #46]
	.loc	6 114 40 is_stmt 0      @ ../Libraries/lwip-1.4.1/src/core/tcp_out.c:114:40
	ldr	r1, [r4, #40]
	.loc	6 114 48                @ ../Libraries/lwip-1.4.1/src/core/tcp_out.c:114:48
	add	r0, r1
	.loc	6 114 33                @ ../Libraries/lwip-1.4.1/src/core/tcp_out.c:114:33
	str	r0, [r4, #48]
.Ltmp273:
.LBB6_2:
	@DEBUG_VALUE: tcp_output_alloc_header:p <- $r5
	@DEBUG_VALUE: tcp_output_alloc_header:pcb <- $r4
	.loc	6 116 5 is_stmt 1       @ ../Libraries/lwip-1.4.1/src/core/tcp_out.c:116:5
	mov	r0, r5
	pop.w	{r4, r5, r6, r7, r8, pc}
.Ltmp274:
.Lfunc_end6:
	.size	tcp_output_alloc_header, .Lfunc_end6-tcp_output_alloc_header
	.cfi_endproc
	.cantunwind
	.fnend
                                        @ -- End function
	.section	.text.tcp_output,"ax",%progbits
	.hidden	tcp_output              @ -- Begin function tcp_output
	.globl	tcp_output
	.p2align	1
	.type	tcp_output,%function
	.code	16                      @ @tcp_output
	.thumb_func
tcp_output:
.Lfunc_begin7:
	.loc	6 971 0                 @ ../Libraries/lwip-1.4.1/src/core/tcp_out.c:971:0
	.fnstart
	.cfi_startproc
@ %bb.0:
	.save	{r4, r5, r6, r7, r8, r9, r10, r11, lr}
	push.w	{r4, r5, r6, r7, r8, r9, r10, r11, lr}
	.cfi_def_cfa_offset 36
	.cfi_offset lr, -4
	.cfi_offset r11, -8
	.cfi_offset r10, -12
	.cfi_offset r9, -16
	.cfi_offset r8, -20
	.cfi_offset r7, -24
	.cfi_offset r6, -28
	.cfi_offset r5, -32
	.cfi_offset r4, -36
	.pad	#12
	sub	sp, #12
	.cfi_def_cfa_offset 48
	@DEBUG_VALUE: tcp_output:pcb <- $r0
.Ltmp275:
	@DEBUG_VALUE: tcp_output_segment:pcb <- $r0
	mov	r4, r0
.Ltmp276:
	@DEBUG_VALUE: tcp_output_segment:pcb <- $r4
	@DEBUG_VALUE: tcp_output:pcb <- $r4
	.loc	6 986 9 prologue_end    @ ../Libraries/lwip-1.4.1/src/core/tcp_out.c:986:9
	movw	r0, :lower16:tcp_input_pcb
	movt	r0, :upper16:tcp_input_pcb
	ldr	r0, [r0]
.Ltmp277:
	.loc	6 986 9 is_stmt 0       @ ../Libraries/lwip-1.4.1/src/core/tcp_out.c:986:9
	cmp	r0, r4
	beq.w	.LBB7_52
.Ltmp278:
@ %bb.1:
	@DEBUG_VALUE: tcp_output:pcb <- $r4
	.loc	6 991 11 is_stmt 1      @ ../Libraries/lwip-1.4.1/src/core/tcp_out.c:991:11
	ldrh.w	r0, [r4, #96]
	ldrh.w	r9, [r4, #76]
	cmp	r0, r9
	it	lo
	movlo	r9, r0
.Ltmp279:
	.loc	6 1001 14               @ ../Libraries/lwip-1.4.1/src/core/tcp_out.c:1001:14
	ldrb	r0, [r4, #30]
.Ltmp280:
	.loc	6 993 16                @ ../Libraries/lwip-1.4.1/src/core/tcp_out.c:993:16
	ldr	r5, [r4, #108]
.Ltmp281:
	@DEBUG_VALUE: tcp_output:seg <- $r5
	.loc	6 1001 33               @ ../Libraries/lwip-1.4.1/src/core/tcp_out.c:1001:33
	lsls	r0, r0, #30
	bpl	.LBB7_5
.Ltmp282:
@ %bb.2:
	@DEBUG_VALUE: tcp_output:seg <- $r5
	@DEBUG_VALUE: tcp_output:pcb <- $r4
	.loc	6 1002 26               @ ../Libraries/lwip-1.4.1/src/core/tcp_out.c:1002:26
	cbz	r5, .LBB7_4
.Ltmp283:
@ %bb.3:
	@DEBUG_VALUE: tcp_output:seg <- $r5
	@DEBUG_VALUE: tcp_output:pcb <- $r4
	.loc	6 1003 13               @ ../Libraries/lwip-1.4.1/src/core/tcp_out.c:1003:13
	ldr	r0, [r5, #16]
	ldr	r0, [r0, #4]
	bl	lwip_ntohl
	.loc	6 1003 46 is_stmt 0     @ ../Libraries/lwip-1.4.1/src/core/tcp_out.c:1003:46
	ldr	r1, [r4, #72]
	.loc	6 1003 39               @ ../Libraries/lwip-1.4.1/src/core/tcp_out.c:1003:39
	subs	r0, r0, r1
	.loc	6 1003 61               @ ../Libraries/lwip-1.4.1/src/core/tcp_out.c:1003:61
	ldrh	r1, [r5, #8]
	.loc	6 1003 54               @ ../Libraries/lwip-1.4.1/src/core/tcp_out.c:1003:54
	add	r0, r1
.Ltmp284:
	.loc	6 1001 9 is_stmt 1      @ ../Libraries/lwip-1.4.1/src/core/tcp_out.c:1001:9
	cmp	r0, r9
	bls	.LBB7_5
.Ltmp285:
.LBB7_4:
	@DEBUG_VALUE: tcp_output:seg <- $r5
	@DEBUG_VALUE: tcp_output:pcb <- $r4
	.loc	6 1005 16               @ ../Libraries/lwip-1.4.1/src/core/tcp_out.c:1005:16
	mov	r0, r4
	add	sp, #12
	pop.w	{r4, r5, r6, r7, r8, r9, r10, r11, lr}
.Ltmp286:
	b	tcp_send_empty_ack
.Ltmp287:
.LBB7_5:
	@DEBUG_VALUE: tcp_output:seg <- $r5
	@DEBUG_VALUE: tcp_output:pcb <- $r4
	@DEBUG_VALUE: cur_seg <- undef
	.loc	6 1009 17               @ ../Libraries/lwip-1.4.1/src/core/tcp_out.c:1009:17
	mov	r11, r4
	ldr	r0, [r11, #112]!
.Ltmp288:
	@DEBUG_VALUE: tcp_output:useg <- $r0
	.loc	6 1010 9                @ ../Libraries/lwip-1.4.1/src/core/tcp_out.c:1010:9
	cbz	r0, .LBB7_7
.Ltmp289:
	.p2align	2
.LBB7_6:                                @ =>This Inner Loop Header: Depth=1
	@DEBUG_VALUE: tcp_output:useg <- $r0
	@DEBUG_VALUE: tcp_output:seg <- $r5
	@DEBUG_VALUE: tcp_output:pcb <- $r4
	.loc	6 0 0 is_stmt 0         @ ../Libraries/lwip-1.4.1/src/core/tcp_out.c:0:0
	mov	r8, r0
.Ltmp290:
	@DEBUG_VALUE: tcp_output:useg <- $r8
	.loc	6 1012 22 is_stmt 1     @ ../Libraries/lwip-1.4.1/src/core/tcp_out.c:1012:22
	ldr	r0, [r0]
.Ltmp291:
	.loc	6 1012 9 is_stmt 0      @ ../Libraries/lwip-1.4.1/src/core/tcp_out.c:1012:9
	cmp	r0, #0
	bne	.LBB7_6
	b	.LBB7_8
.Ltmp292:
.LBB7_7:
	@DEBUG_VALUE: tcp_output:useg <- $r0
	@DEBUG_VALUE: tcp_output:seg <- $r5
	@DEBUG_VALUE: tcp_output:pcb <- $r4
	.loc	6 0 9                   @ ../Libraries/lwip-1.4.1/src/core/tcp_out.c:0:9
	mov.w	r8, #0
.Ltmp293:
.LBB7_8:
	@DEBUG_VALUE: tcp_output:seg <- $r5
	@DEBUG_VALUE: tcp_output:pcb <- $r4
	@DEBUG_VALUE: tcp_output:useg <- $r8
	.loc	6 1041 24 is_stmt 1     @ ../Libraries/lwip-1.4.1/src/core/tcp_out.c:1041:24
	cmp	r5, #0
	beq.w	.LBB7_49
.Ltmp294:
@ %bb.9:
	@DEBUG_VALUE: tcp_output:useg <- $r8
	@DEBUG_VALUE: tcp_output:seg <- $r5
	@DEBUG_VALUE: tcp_output:pcb <- $r4
	.loc	6 0 24 is_stmt 0        @ ../Libraries/lwip-1.4.1/src/core/tcp_out.c:0:24
	add.w	r10, r4, #4
	str.w	r9, [sp, #8]            @ 4-byte Spill
.Ltmp295:
	.p2align	2
.LBB7_10:                               @ =>This Loop Header: Depth=1
                                        @     Child Loop BB7_42 Depth 2
	@DEBUG_VALUE: tcp_output:useg <- $r8
	@DEBUG_VALUE: tcp_output:seg <- $r5
	@DEBUG_VALUE: tcp_output:pcb <- $r4
	@DEBUG_VALUE: tcp_output:seg <- $r5
	@DEBUG_VALUE: tcp_output:useg <- $r8
	@DEBUG_VALUE: tcp_output_segment:seg <- $r5
	.loc	6 1042 13 is_stmt 1     @ ../Libraries/lwip-1.4.1/src/core/tcp_out.c:1042:13
	ldr	r0, [r5, #16]
	ldr	r0, [r0, #4]
	bl	lwip_ntohl
	.loc	6 1042 46 is_stmt 0     @ ../Libraries/lwip-1.4.1/src/core/tcp_out.c:1042:46
	ldr	r1, [r4, #72]
	.loc	6 1042 39               @ ../Libraries/lwip-1.4.1/src/core/tcp_out.c:1042:39
	subs	r0, r0, r1
	.loc	6 1042 61               @ ../Libraries/lwip-1.4.1/src/core/tcp_out.c:1042:61
	ldrh	r1, [r5, #8]
	.loc	6 1042 54               @ ../Libraries/lwip-1.4.1/src/core/tcp_out.c:1042:54
	add	r0, r1
	.loc	6 1041 5 is_stmt 1      @ ../Libraries/lwip-1.4.1/src/core/tcp_out.c:1041:5
	cmp	r0, r9
	bhi.w	.LBB7_49
.Ltmp296:
@ %bb.11:                               @   in Loop: Header=BB7_10 Depth=1
	@DEBUG_VALUE: tcp_output:useg <- $r8
	@DEBUG_VALUE: tcp_output:seg <- $r5
	@DEBUG_VALUE: tcp_output:pcb <- $r4
	.loc	6 1044 9                @ ../Libraries/lwip-1.4.1/src/core/tcp_out.c:1044:9
	ldr	r0, [r5, #16]
	ldrh	r0, [r0, #12]
	bl	lwip_ntohs
.Ltmp297:
	.loc	6 1053 14               @ ../Libraries/lwip-1.4.1/src/core/tcp_out.c:1053:14
	ldr.w	r0, [r11]
	cbz	r0, .LBB7_13
.Ltmp298:
@ %bb.12:                               @   in Loop: Header=BB7_10 Depth=1
	@DEBUG_VALUE: tcp_output:useg <- $r8
	@DEBUG_VALUE: tcp_output:seg <- $r5
	@DEBUG_VALUE: tcp_output:pcb <- $r4
	ldrb	r0, [r4, #30]
	tst.w	r0, #68
	beq.w	.LBB7_32
.Ltmp299:
.LBB7_13:                               @   in Loop: Header=BB7_10 Depth=1
	@DEBUG_VALUE: tcp_output:useg <- $r8
	@DEBUG_VALUE: tcp_output:seg <- $r5
	@DEBUG_VALUE: tcp_output:pcb <- $r4
	.loc	6 1067 28               @ ../Libraries/lwip-1.4.1/src/core/tcp_out.c:1067:28
	ldr	r0, [r5]
	.loc	6 1067 21 is_stmt 0     @ ../Libraries/lwip-1.4.1/src/core/tcp_out.c:1067:21
	str	r0, [r4, #108]
.Ltmp300:
	.loc	6 1069 18 is_stmt 1     @ ../Libraries/lwip-1.4.1/src/core/tcp_out.c:1069:18
	ldrb	r0, [r4, #24]
.Ltmp301:
	.loc	6 1069 13 is_stmt 0     @ ../Libraries/lwip-1.4.1/src/core/tcp_out.c:1069:13
	cmp	r0, #2
	beq	.LBB7_15
.Ltmp302:
@ %bb.14:                               @   in Loop: Header=BB7_10 Depth=1
	@DEBUG_VALUE: tcp_output:useg <- $r8
	@DEBUG_VALUE: tcp_output:seg <- $r5
	@DEBUG_VALUE: tcp_output:pcb <- $r4
	.loc	6 1071 13 is_stmt 1     @ ../Libraries/lwip-1.4.1/src/core/tcp_out.c:1071:13
	ldr	r0, [r5, #16]
	ldrh	r6, [r0, #12]
	movs	r0, #16
	bl	lwip_htons
	ldr	r1, [r5, #16]
	orrs	r0, r6
	strh	r0, [r1, #12]
	.loc	6 1072 24               @ ../Libraries/lwip-1.4.1/src/core/tcp_out.c:1072:24
	ldrb	r0, [r4, #30]
	and	r0, r0, #252
	strb	r0, [r4, #30]
.Ltmp303:
.LBB7_15:                               @   in Loop: Header=BB7_10 Depth=1
	@DEBUG_VALUE: tcp_output:useg <- $r8
	@DEBUG_VALUE: tcp_output:seg <- $r5
	@DEBUG_VALUE: tcp_output:pcb <- $r4
	.loc	6 1154 26               @ ../Libraries/lwip-1.4.1/src/core/tcp_out.c:1154:26
	ldr	r0, [r4, #40]
	bl	lwip_htonl
	.loc	6 1154 10 is_stmt 0     @ ../Libraries/lwip-1.4.1/src/core/tcp_out.c:1154:10
	ldr	r1, [r5, #16]
	.loc	6 1154 24               @ ../Libraries/lwip-1.4.1/src/core/tcp_out.c:1154:24
	str	r0, [r1, #8]
	.loc	6 1157 24 is_stmt 1     @ ../Libraries/lwip-1.4.1/src/core/tcp_out.c:1157:24
	ldrh	r0, [r4, #46]
	bl	lwip_htons
	.loc	6 1157 10 is_stmt 0     @ ../Libraries/lwip-1.4.1/src/core/tcp_out.c:1157:10
	ldr	r6, [r5, #16]
	.loc	6 1157 22               @ ../Libraries/lwip-1.4.1/src/core/tcp_out.c:1157:22
	strh	r0, [r6, #14]
	.loc	6 1159 51 is_stmt 1     @ ../Libraries/lwip-1.4.1/src/core/tcp_out.c:1159:51
	ldrh	r0, [r4, #46]
	.loc	6 1159 36 is_stmt 0     @ ../Libraries/lwip-1.4.1/src/core/tcp_out.c:1159:36
	ldr	r1, [r4, #40]
	.loc	6 1159 44               @ ../Libraries/lwip-1.4.1/src/core/tcp_out.c:1159:44
	add	r0, r1
	.loc	6 1159 29               @ ../Libraries/lwip-1.4.1/src/core/tcp_out.c:1159:29
	str	r0, [r4, #48]
.Ltmp304:
	.loc	6 1164 14 is_stmt 1     @ ../Libraries/lwip-1.4.1/src/core/tcp_out.c:1164:14
	ldrb	r0, [r5, #13]
.Ltmp305:
	.loc	6 1164 9 is_stmt 0      @ ../Libraries/lwip-1.4.1/src/core/tcp_out.c:1164:9
	lsls	r0, r0, #31
	beq	.LBB7_17
.Ltmp306:
@ %bb.16:                               @   in Loop: Header=BB7_10 Depth=1
	@DEBUG_VALUE: tcp_output:useg <- $r8
	@DEBUG_VALUE: tcp_output:seg <- $r5
	@DEBUG_VALUE: tcp_output:pcb <- $r4
	@DEBUG_VALUE: tcp_output_segment:opts <- [DW_OP_plus_uconst 20, DW_OP_plus_uconst 4, DW_OP_stack_value] $r6
	@DEBUG_VALUE: tcp_output_segment:opts <- [DW_OP_plus_uconst 20, DW_OP_stack_value] $r6
	.loc	6 1168 15 is_stmt 1     @ ../Libraries/lwip-1.4.1/src/core/tcp_out.c:1168:15
	movw	r0, #1460
	mov	r1, r10
	bl	tcp_eff_send_mss
.Ltmp307:
	@DEBUG_VALUE: mss <- undef
	.loc	6 1172 17               @ ../Libraries/lwip-1.4.1/src/core/tcp_out.c:1172:17
	add.w	r0, r0, #33816576
	bl	lwip_htonl
	.loc	6 1172 15 is_stmt 0     @ ../Libraries/lwip-1.4.1/src/core/tcp_out.c:1172:15
	str	r0, [r6, #20]
.Ltmp308:
.LBB7_17:                               @   in Loop: Header=BB7_10 Depth=1
	@DEBUG_VALUE: tcp_output:useg <- $r8
	@DEBUG_VALUE: tcp_output:seg <- $r5
	@DEBUG_VALUE: tcp_output:pcb <- $r4
	.loc	6 1187 14 is_stmt 1     @ ../Libraries/lwip-1.4.1/src/core/tcp_out.c:1187:14
	ldrh	r0, [r4, #52]
.Ltmp309:
	.loc	6 1187 9 is_stmt 0      @ ../Libraries/lwip-1.4.1/src/core/tcp_out.c:1187:9
	movw	r1, #65535
	cmp	r0, r1
.Ltmp310:
	.loc	6 1189 20 is_stmt 1     @ ../Libraries/lwip-1.4.1/src/core/tcp_out.c:1189:20
	itt	eq
	moveq	r0, #0
	strheq	r0, [r4, #52]
.Ltmp311:
	.loc	6 1194 9                @ ../Libraries/lwip-1.4.1/src/core/tcp_out.c:1194:9
	ldr	r0, [r4]
.Ltmp312:
	.loc	6 1194 9 is_stmt 0      @ ../Libraries/lwip-1.4.1/src/core/tcp_out.c:1194:9
	cbnz	r0, .LBB7_20
.Ltmp313:
@ %bb.18:                               @   in Loop: Header=BB7_10 Depth=1
	@DEBUG_VALUE: tcp_output:useg <- $r8
	@DEBUG_VALUE: tcp_output:seg <- $r5
	@DEBUG_VALUE: tcp_output:pcb <- $r4
	.loc	6 1196 17 is_stmt 1     @ ../Libraries/lwip-1.4.1/src/core/tcp_out.c:1196:17
	mov	r0, r10
	bl	ip_route
.Ltmp314:
	@DEBUG_VALUE: tcp_output_segment:netif <- $r0
	.loc	6 1197 13               @ ../Libraries/lwip-1.4.1/src/core/tcp_out.c:1197:13
	cmp	r0, #0
	beq	.LBB7_27
.Ltmp315:
@ %bb.19:                               @   in Loop: Header=BB7_10 Depth=1
	@DEBUG_VALUE: tcp_output_segment:netif <- $r0
	@DEBUG_VALUE: tcp_output:useg <- $r8
	@DEBUG_VALUE: tcp_output:seg <- $r5
	@DEBUG_VALUE: tcp_output:pcb <- $r4
	.loc	6 1201 9                @ ../Libraries/lwip-1.4.1/src/core/tcp_out.c:1201:9
	ldr	r0, [r0, #4]
.Ltmp316:
	str	r0, [r4]
.Ltmp317:
.LBB7_20:                               @   in Loop: Header=BB7_10 Depth=1
	@DEBUG_VALUE: tcp_output:useg <- $r8
	@DEBUG_VALUE: tcp_output:seg <- $r5
	@DEBUG_VALUE: tcp_output:pcb <- $r4
	.loc	6 1204 14               @ ../Libraries/lwip-1.4.1/src/core/tcp_out.c:1204:14
	ldr	r0, [r4, #56]
.Ltmp318:
	.loc	6 1204 9 is_stmt 0      @ ../Libraries/lwip-1.4.1/src/core/tcp_out.c:1204:9
	cbnz	r0, .LBB7_22
.Ltmp319:
@ %bb.21:                               @   in Loop: Header=BB7_10 Depth=1
	@DEBUG_VALUE: tcp_output:useg <- $r8
	@DEBUG_VALUE: tcp_output:seg <- $r5
	@DEBUG_VALUE: tcp_output:pcb <- $r4
	.loc	6 1206 23 is_stmt 1     @ ../Libraries/lwip-1.4.1/src/core/tcp_out.c:1206:23
	movw	r0, :lower16:tcp_ticks
	movt	r0, :upper16:tcp_ticks
	ldr	r0, [r0]
	.loc	6 1206 21 is_stmt 0     @ ../Libraries/lwip-1.4.1/src/core/tcp_out.c:1206:21
	str	r0, [r4, #56]
	.loc	6 1207 22 is_stmt 1     @ ../Libraries/lwip-1.4.1/src/core/tcp_out.c:1207:22
	ldr	r0, [r5, #16]
	ldr	r0, [r0, #4]
	bl	lwip_ntohl
	.loc	6 1207 20 is_stmt 0     @ ../Libraries/lwip-1.4.1/src/core/tcp_out.c:1207:20
	str	r0, [r4, #60]
.Ltmp320:
.LBB7_22:                               @   in Loop: Header=BB7_10 Depth=1
	@DEBUG_VALUE: tcp_output:useg <- $r8
	@DEBUG_VALUE: tcp_output:seg <- $r5
	@DEBUG_VALUE: tcp_output:pcb <- $r4
	.loc	6 1215 57 is_stmt 1     @ ../Libraries/lwip-1.4.1/src/core/tcp_out.c:1215:57
	ldr	r7, [r5, #4]
	.loc	6 1215 34 is_stmt 0     @ ../Libraries/lwip-1.4.1/src/core/tcp_out.c:1215:34
	ldr	r0, [r5, #16]
	.loc	6 1215 60               @ ../Libraries/lwip-1.4.1/src/core/tcp_out.c:1215:60
	ldr	r1, [r7, #4]
	.loc	6 1217 17 is_stmt 1     @ ../Libraries/lwip-1.4.1/src/core/tcp_out.c:1217:17
	ldrh	r2, [r7, #10]
	.loc	6 1215 41               @ ../Libraries/lwip-1.4.1/src/core/tcp_out.c:1215:41
	subs	r1, r0, r1
.Ltmp321:
	@DEBUG_VALUE: tcp_output_segment:len <- $r1
	.loc	6 1217 17               @ ../Libraries/lwip-1.4.1/src/core/tcp_out.c:1217:17
	subs	r2, r2, r1
	strh	r2, [r7, #10]
	.loc	6 1218 21               @ ../Libraries/lwip-1.4.1/src/core/tcp_out.c:1218:21
	ldrh	r2, [r7, #8]
	subs	r6, r2, r1
	.loc	6 1222 25               @ ../Libraries/lwip-1.4.1/src/core/tcp_out.c:1222:25
	movs	r1, #0
.Ltmp322:
	.loc	6 1218 21               @ ../Libraries/lwip-1.4.1/src/core/tcp_out.c:1218:21
	strh	r6, [r7, #8]
	.loc	6 1220 21               @ ../Libraries/lwip-1.4.1/src/core/tcp_out.c:1220:21
	str	r0, [r7, #4]
	.loc	6 1222 25               @ ../Libraries/lwip-1.4.1/src/core/tcp_out.c:1222:25
	strh	r1, [r0, #16]
.Ltmp323:
	.loc	6 1232 19               @ ../Libraries/lwip-1.4.1/src/core/tcp_out.c:1232:19
	ldrb	r1, [r5, #13]
.Ltmp324:
	.loc	6 1232 13 is_stmt 0     @ ../Libraries/lwip-1.4.1/src/core/tcp_out.c:1232:13
	lsls	r1, r1, #29
	bmi	.LBB7_24
.Ltmp325:
@ %bb.23:                               @   in Loop: Header=BB7_10 Depth=1
	@DEBUG_VALUE: tcp_output:useg <- $r8
	@DEBUG_VALUE: tcp_output:seg <- $r5
	@DEBUG_VALUE: tcp_output:pcb <- $r4
	.loc	6 1234 13 is_stmt 1     @ ../Libraries/lwip-1.4.1/src/core/tcp_out.c:1234:13
	ldrh	r0, [r0, #12]
	bl	lwip_ntohs
.Ltmp326:
	.loc	6 1239 47               @ ../Libraries/lwip-1.4.1/src/core/tcp_out.c:1239:47
	ldr	r7, [r5, #4]
	.loc	6 1241 73               @ ../Libraries/lwip-1.4.1/src/core/tcp_out.c:1241:73
	ldr	r0, [r5, #16]
	.loc	6 1241 64 is_stmt 0     @ ../Libraries/lwip-1.4.1/src/core/tcp_out.c:1241:64
	ldrh	r6, [r7, #8]
.Ltmp327:
.LBB7_24:                               @   in Loop: Header=BB7_10 Depth=1
	@DEBUG_VALUE: tcp_output:useg <- $r8
	@DEBUG_VALUE: tcp_output:seg <- $r5
	@DEBUG_VALUE: tcp_output:pcb <- $r4
	.loc	6 1241 73               @ ../Libraries/lwip-1.4.1/src/core/tcp_out.c:1241:73
	ldrh	r0, [r0, #12]
	bl	lwip_ntohs
	movs	r1, #60
	.loc	6 1239 15 is_stmt 1     @ ../Libraries/lwip-1.4.1/src/core/tcp_out.c:1239:15
	mov	r2, r10
	movs	r3, #6
	.loc	6 1241 73               @ ../Libraries/lwip-1.4.1/src/core/tcp_out.c:1241:73
	and.w	r0, r1, r0, lsr #10
	.loc	6 1239 15               @ ../Libraries/lwip-1.4.1/src/core/tcp_out.c:1239:15
	uxth	r1, r6
	strd	r1, r0, [sp]
	mov	r0, r7
	mov	r1, r4
	bl	inet_chksum_pseudo_partial
.Ltmp328:
	@DEBUG_VALUE: acc <- $r0
	.loc	6 1243 18               @ ../Libraries/lwip-1.4.1/src/core/tcp_out.c:1243:18
	ldrb	r2, [r5, #12]
.Ltmp329:
	.loc	6 0 0 is_stmt 0         @ ../Libraries/lwip-1.4.1/src/core/tcp_out.c:0:0
	ldrh	r1, [r5, #10]
	.loc	6 1243 13               @ ../Libraries/lwip-1.4.1/src/core/tcp_out.c:1243:13
	cbz	r2, .LBB7_26
.Ltmp330:
@ %bb.25:                               @   in Loop: Header=BB7_10 Depth=1
	@DEBUG_VALUE: acc <- $r0
	@DEBUG_VALUE: tcp_output:useg <- $r8
	@DEBUG_VALUE: tcp_output:seg <- $r5
	@DEBUG_VALUE: tcp_output:pcb <- $r4
	.loc	6 1246 33 is_stmt 1     @ ../Libraries/lwip-1.4.1/src/core/tcp_out.c:1246:33
	movs	r2, #0
	rev16	r1, r1
	strb	r2, [r5, #12]
	.loc	6 1245 25               @ ../Libraries/lwip-1.4.1/src/core/tcp_out.c:1245:25
	strh	r1, [r5, #10]
.Ltmp331:
.LBB7_26:                               @   in Loop: Header=BB7_10 Depth=1
	@DEBUG_VALUE: acc <- $r0
	@DEBUG_VALUE: tcp_output:useg <- $r8
	@DEBUG_VALUE: tcp_output:seg <- $r5
	@DEBUG_VALUE: tcp_output:pcb <- $r4
	.loc	6 1248 24               @ ../Libraries/lwip-1.4.1/src/core/tcp_out.c:1248:24
	mvns	r1, r1
.Ltmp332:
	.loc	6 1272 5                @ ../Libraries/lwip-1.4.1/src/core/tcp_out.c:1272:5
	mov	r2, r10
.Ltmp333:
	.loc	6 1248 13               @ ../Libraries/lwip-1.4.1/src/core/tcp_out.c:1248:13
	uxtah	r0, r0, r1
.Ltmp334:
	@DEBUG_VALUE: acc <- $r0
	.loc	6 1249 14               @ ../Libraries/lwip-1.4.1/src/core/tcp_out.c:1249:14
	ldr	r1, [r5, #16]
	.loc	6 1249 31 is_stmt 0     @ ../Libraries/lwip-1.4.1/src/core/tcp_out.c:1249:31
	add.w	r0, r0, r0, lsr #16
.Ltmp335:
	.loc	6 1249 29               @ ../Libraries/lwip-1.4.1/src/core/tcp_out.c:1249:29
	strh	r0, [r1, #16]
.Ltmp336:
	.loc	6 1272 75 is_stmt 1     @ ../Libraries/lwip-1.4.1/src/core/tcp_out.c:1272:75
	ldrb	r1, [r4, #9]
	.loc	6 1272 20 is_stmt 0     @ ../Libraries/lwip-1.4.1/src/core/tcp_out.c:1272:20
	ldr	r0, [r5, #4]
	.loc	6 1272 65               @ ../Libraries/lwip-1.4.1/src/core/tcp_out.c:1272:65
	ldrb	r3, [r4, #10]
	.loc	6 1272 5                @ ../Libraries/lwip-1.4.1/src/core/tcp_out.c:1272:5
	str	r1, [sp]
	movs	r1, #6
	str	r1, [sp, #4]
	mov	r1, r4
	bl	ip_output
.Ltmp337:
.LBB7_27:                               @   in Loop: Header=BB7_10 Depth=1
	@DEBUG_VALUE: tcp_output:useg <- $r8
	@DEBUG_VALUE: tcp_output:seg <- $r5
	@DEBUG_VALUE: tcp_output:pcb <- $r4
	.loc	6 1076 19 is_stmt 1     @ ../Libraries/lwip-1.4.1/src/core/tcp_out.c:1076:19
	ldr	r0, [r5, #16]
	ldr	r0, [r0, #4]
	bl	lwip_ntohl
	.loc	6 1076 47 is_stmt 0     @ ../Libraries/lwip-1.4.1/src/core/tcp_out.c:1076:47
	ldrh	r1, [r5, #8]
	adds	r6, r0, r1
	ldr	r0, [r5, #16]
	ldrh	r0, [r0, #12]
	bl	lwip_ntohs
	.loc	6 1076 45               @ ../Libraries/lwip-1.4.1/src/core/tcp_out.c:1076:45
	lsls	r0, r0, #30
	it	ne
	addne	r6, #1
.Ltmp338:
	@DEBUG_VALUE: tcp_output:snd_nxt <- $r6
	.loc	6 1077 13 is_stmt 1     @ ../Libraries/lwip-1.4.1/src/core/tcp_out.c:1077:13
	ldr	r0, [r4, #80]
	subs	r0, r0, r6
.Ltmp339:
	.loc	6 1077 13 is_stmt 0     @ ../Libraries/lwip-1.4.1/src/core/tcp_out.c:1077:13
	cmp.w	r0, #-1
.Ltmp340:
	.loc	6 1079 26 is_stmt 1     @ ../Libraries/lwip-1.4.1/src/core/tcp_out.c:1079:26
	it	le
	strle	r6, [r4, #80]
.Ltmp341:
	.loc	6 1082 13               @ ../Libraries/lwip-1.4.1/src/core/tcp_out.c:1082:13
	ldr	r0, [r5, #16]
	ldrh	r6, [r5, #8]
.Ltmp342:
	ldrh	r0, [r0, #12]
	bl	lwip_ntohs
	ands	r0, r0, #3
	.loc	6 1082 29 is_stmt 0     @ ../Libraries/lwip-1.4.1/src/core/tcp_out.c:1082:29
	it	ne
	movne.w	r0, #-1
.Ltmp343:
	.loc	6 1082 13               @ ../Libraries/lwip-1.4.1/src/core/tcp_out.c:1082:13
	cmp	r6, r0
	bne	.LBB7_29
.Ltmp344:
@ %bb.28:                               @   in Loop: Header=BB7_10 Depth=1
	@DEBUG_VALUE: tcp_output:useg <- $r8
	@DEBUG_VALUE: tcp_output:seg <- $r5
	@DEBUG_VALUE: tcp_output:pcb <- $r4
	.loc	6 1120 13 is_stmt 1     @ ../Libraries/lwip-1.4.1/src/core/tcp_out.c:1120:13
	mov	r0, r5
	bl	tcp_seg_free
	b	.LBB7_48
.Ltmp345:
	.p2align	2
.LBB7_29:                               @   in Loop: Header=BB7_10 Depth=1
	@DEBUG_VALUE: tcp_output:useg <- $r8
	@DEBUG_VALUE: tcp_output:seg <- $r5
	@DEBUG_VALUE: tcp_output:pcb <- $r4
	.loc	6 1084 23               @ ../Libraries/lwip-1.4.1/src/core/tcp_out.c:1084:23
	movs	r0, #0
	str	r0, [r5]
.Ltmp346:
	.loc	6 1086 22               @ ../Libraries/lwip-1.4.1/src/core/tcp_out.c:1086:22
	ldr.w	r0, [r11]
.Ltmp347:
	.loc	6 1086 17 is_stmt 0     @ ../Libraries/lwip-1.4.1/src/core/tcp_out.c:1086:17
	cbz	r0, .LBB7_38
.Ltmp348:
@ %bb.30:                               @   in Loop: Header=BB7_10 Depth=1
	@DEBUG_VALUE: tcp_output:useg <- $r8
	@DEBUG_VALUE: tcp_output:seg <- $r5
	@DEBUG_VALUE: tcp_output:pcb <- $r4
	.loc	6 1097 21 is_stmt 1     @ ../Libraries/lwip-1.4.1/src/core/tcp_out.c:1097:21
	ldr	r0, [r5, #16]
	ldr	r0, [r0, #4]
	bl	lwip_ntohl
	mov	r7, r0
	ldr.w	r0, [r8, #16]
	ldr	r0, [r0, #4]
	bl	lwip_ntohl
	subs	r0, r7, r0
.Ltmp349:
	.loc	6 1097 21 is_stmt 0     @ ../Libraries/lwip-1.4.1/src/core/tcp_out.c:1097:21
	cmp.w	r0, #-1
	ble	.LBB7_40
.Ltmp350:
@ %bb.31:                               @   in Loop: Header=BB7_10 Depth=1
	@DEBUG_VALUE: tcp_output:useg <- $r8
	@DEBUG_VALUE: tcp_output:seg <- $r5
	@DEBUG_VALUE: tcp_output:pcb <- $r4
	.loc	6 1112 32 is_stmt 1     @ ../Libraries/lwip-1.4.1/src/core/tcp_out.c:1112:32
	str.w	r5, [r8]
	b	.LBB7_39
.Ltmp351:
	.p2align	2
.LBB7_32:                               @   in Loop: Header=BB7_10 Depth=1
	@DEBUG_VALUE: tcp_output:useg <- $r8
	@DEBUG_VALUE: tcp_output:seg <- $r5
	@DEBUG_VALUE: tcp_output:pcb <- $r4
	.loc	6 1053 14               @ ../Libraries/lwip-1.4.1/src/core/tcp_out.c:1053:14
	ldr	r1, [r4, #108]
	cbz	r1, .LBB7_35
.Ltmp352:
@ %bb.33:                               @   in Loop: Header=BB7_10 Depth=1
	@DEBUG_VALUE: tcp_output:useg <- $r8
	@DEBUG_VALUE: tcp_output:seg <- $r5
	@DEBUG_VALUE: tcp_output:pcb <- $r4
	ldr	r2, [r1]
	cmp	r2, #0
	bne.w	.LBB7_13
.Ltmp353:
@ %bb.34:                               @   in Loop: Header=BB7_10 Depth=1
	@DEBUG_VALUE: tcp_output:useg <- $r8
	@DEBUG_VALUE: tcp_output:seg <- $r5
	@DEBUG_VALUE: tcp_output:pcb <- $r4
	ldrh	r2, [r4, #54]
	ldrh	r1, [r1, #8]
	cmp	r1, r2
	bhs.w	.LBB7_13
.Ltmp354:
.LBB7_35:                               @   in Loop: Header=BB7_10 Depth=1
	@DEBUG_VALUE: tcp_output:useg <- $r8
	@DEBUG_VALUE: tcp_output:seg <- $r5
	@DEBUG_VALUE: tcp_output:pcb <- $r4
	ldrh.w	r1, [r4, #102]
	cmp	r1, #0
	beq.w	.LBB7_13
.Ltmp355:
@ %bb.36:                               @   in Loop: Header=BB7_10 Depth=1
	@DEBUG_VALUE: tcp_output:useg <- $r8
	@DEBUG_VALUE: tcp_output:seg <- $r5
	@DEBUG_VALUE: tcp_output:pcb <- $r4
	.loc	6 1053 45 is_stmt 0     @ ../Libraries/lwip-1.4.1/src/core/tcp_out.c:1053:45
	tst.w	r0, #160
	bne.w	.LBB7_13
.Ltmp356:
@ %bb.37:                               @   in Loop: Header=BB7_10 Depth=1
	@DEBUG_VALUE: tcp_output:useg <- $r8
	@DEBUG_VALUE: tcp_output:seg <- $r5
	@DEBUG_VALUE: tcp_output:pcb <- $r4
	.loc	6 0 0                   @ ../Libraries/lwip-1.4.1/src/core/tcp_out.c:0:0
	ldrh.w	r0, [r4, #104]
	.loc	6 1053 45               @ ../Libraries/lwip-1.4.1/src/core/tcp_out.c:1053:45
	cmp	r0, #8
	bhs.w	.LBB7_13
	b	.LBB7_49
.Ltmp357:
.LBB7_38:                               @   in Loop: Header=BB7_10 Depth=1
	@DEBUG_VALUE: tcp_output:useg <- $r8
	@DEBUG_VALUE: tcp_output:seg <- $r5
	@DEBUG_VALUE: tcp_output:pcb <- $r4
	.loc	6 1088 30 is_stmt 1     @ ../Libraries/lwip-1.4.1/src/core/tcp_out.c:1088:30
	str.w	r5, [r11]
.Ltmp358:
.LBB7_39:                               @   in Loop: Header=BB7_10 Depth=1
	@DEBUG_VALUE: tcp_output:useg <- $r8
	@DEBUG_VALUE: tcp_output:seg <- $r5
	@DEBUG_VALUE: tcp_output:pcb <- $r4
	.loc	6 0 0 is_stmt 0         @ ../Libraries/lwip-1.4.1/src/core/tcp_out.c:0:0
	mov	r8, r5
.Ltmp359:
	@DEBUG_VALUE: tcp_output:seg <- $r8
	b	.LBB7_48
.Ltmp360:
.LBB7_40:                               @   in Loop: Header=BB7_10 Depth=1
	@DEBUG_VALUE: tcp_output:useg <- $r8
	@DEBUG_VALUE: tcp_output:seg <- $r5
	@DEBUG_VALUE: tcp_output:pcb <- $r4
	.loc	6 1101 28 is_stmt 1     @ ../Libraries/lwip-1.4.1/src/core/tcp_out.c:1101:28
	ldr.w	r1, [r11]
	.loc	6 1101 37 is_stmt 0     @ ../Libraries/lwip-1.4.1/src/core/tcp_out.c:1101:37
	cbz	r1, .LBB7_45
.Ltmp361:
@ %bb.41:                               @   in Loop: Header=BB7_10 Depth=1
	@DEBUG_VALUE: tcp_output:useg <- $r8
	@DEBUG_VALUE: tcp_output:seg <- $r5
	@DEBUG_VALUE: tcp_output:pcb <- $r4
	.loc	6 0 37                  @ ../Libraries/lwip-1.4.1/src/core/tcp_out.c:0:37
	mov	r9, r11
.Ltmp362:
	.p2align	2
.LBB7_42:                               @   Parent Loop BB7_10 Depth=1
                                        @ =>  This Inner Loop Header: Depth=2
	@DEBUG_VALUE: tcp_output:useg <- $r8
	@DEBUG_VALUE: tcp_output:seg <- $r5
	@DEBUG_VALUE: tcp_output:pcb <- $r4
	@DEBUG_VALUE: cur_seg <- $r9
	.loc	6 1102 29 is_stmt 1     @ ../Libraries/lwip-1.4.1/src/core/tcp_out.c:1102:29
	ldr	r0, [r1, #16]
	ldr	r0, [r0, #4]
	bl	lwip_ntohl
	mov	r7, r0
	ldr	r0, [r5, #16]
	ldr	r0, [r0, #4]
	bl	lwip_ntohl
	subs	r1, r7, r0
	.loc	6 0 0 is_stmt 0         @ ../Libraries/lwip-1.4.1/src/core/tcp_out.c:0:0
	ldr.w	r0, [r9]
	.loc	6 1101 21 is_stmt 1     @ ../Libraries/lwip-1.4.1/src/core/tcp_out.c:1101:21
	cmp.w	r1, #-1
	bgt	.LBB7_46
.Ltmp363:
@ %bb.43:                               @   in Loop: Header=BB7_42 Depth=2
	@DEBUG_VALUE: cur_seg <- $r9
	@DEBUG_VALUE: tcp_output:useg <- $r8
	@DEBUG_VALUE: tcp_output:seg <- $r5
	@DEBUG_VALUE: tcp_output:pcb <- $r4
	@DEBUG_VALUE: cur_seg <- $r0
	.loc	6 1101 28 is_stmt 0     @ ../Libraries/lwip-1.4.1/src/core/tcp_out.c:1101:28
	ldr	r1, [r0]
	mov	r9, r0
	.loc	6 1101 37               @ ../Libraries/lwip-1.4.1/src/core/tcp_out.c:1101:37
	cmp	r1, #0
	bne	.LBB7_42
.Ltmp364:
@ %bb.44:                               @   in Loop: Header=BB7_10 Depth=1
	@DEBUG_VALUE: cur_seg <- $r0
	@DEBUG_VALUE: tcp_output:useg <- $r8
	@DEBUG_VALUE: tcp_output:seg <- $r5
	@DEBUG_VALUE: tcp_output:pcb <- $r4
	.loc	6 0 37                  @ ../Libraries/lwip-1.4.1/src/core/tcp_out.c:0:37
	movs	r1, #0
	mov	r9, r0
.Ltmp365:
	@DEBUG_VALUE: cur_seg <- $r9
	b	.LBB7_47
.Ltmp366:
.LBB7_45:                               @   in Loop: Header=BB7_10 Depth=1
	@DEBUG_VALUE: tcp_output:useg <- $r8
	@DEBUG_VALUE: tcp_output:seg <- $r5
	@DEBUG_VALUE: tcp_output:pcb <- $r4
	movs	r1, #0
	mov	r9, r11
	b	.LBB7_47
.Ltmp367:
.LBB7_46:                               @   in Loop: Header=BB7_10 Depth=1
	@DEBUG_VALUE: cur_seg <- $r9
	@DEBUG_VALUE: tcp_output:useg <- $r8
	@DEBUG_VALUE: tcp_output:seg <- $r5
	@DEBUG_VALUE: tcp_output:pcb <- $r4
	mov	r1, r0
.Ltmp368:
.LBB7_47:                               @   in Loop: Header=BB7_10 Depth=1
	@DEBUG_VALUE: tcp_output:useg <- $r8
	@DEBUG_VALUE: tcp_output:seg <- $r5
	@DEBUG_VALUE: tcp_output:pcb <- $r4
	@DEBUG_VALUE: cur_seg <- $r9
	.loc	6 1106 31 is_stmt 1     @ ../Libraries/lwip-1.4.1/src/core/tcp_out.c:1106:31
	str	r1, [r5]
	.loc	6 1107 32               @ ../Libraries/lwip-1.4.1/src/core/tcp_out.c:1107:32
	str.w	r5, [r9]
	ldr.w	r9, [sp, #8]            @ 4-byte Reload
.Ltmp369:
	.p2align	2
.LBB7_48:                               @   in Loop: Header=BB7_10 Depth=1
	@DEBUG_VALUE: tcp_output:pcb <- $r4
	@DEBUG_VALUE: tcp_output:useg <- $r8
	.loc	6 1122 20               @ ../Libraries/lwip-1.4.1/src/core/tcp_out.c:1122:20
	ldr	r5, [r4, #108]
.Ltmp370:
	@DEBUG_VALUE: tcp_output:seg <- $r5
	.loc	6 1041 24               @ ../Libraries/lwip-1.4.1/src/core/tcp_out.c:1041:24
	cmp	r5, #0
	bne.w	.LBB7_10
	b	.LBB7_50
.Ltmp371:
.LBB7_49:
	@DEBUG_VALUE: tcp_output:useg <- $r8
	@DEBUG_VALUE: tcp_output:seg <- $r5
	@DEBUG_VALUE: tcp_output:pcb <- $r4
	.loc	6 1125 14               @ ../Libraries/lwip-1.4.1/src/core/tcp_out.c:1125:14
	ldr	r0, [r4, #108]
	cbnz	r0, .LBB7_51
.Ltmp372:
.LBB7_50:
	@DEBUG_VALUE: tcp_output:useg <- $r8
	@DEBUG_VALUE: tcp_output:seg <- $r5
	@DEBUG_VALUE: tcp_output:pcb <- $r4
	.loc	6 0 14 is_stmt 0        @ ../Libraries/lwip-1.4.1/src/core/tcp_out.c:0:14
	movs	r0, #0
.Ltmp373:
	.loc	6 1128 30 is_stmt 1     @ ../Libraries/lwip-1.4.1/src/core/tcp_out.c:1128:30
	strh.w	r0, [r4, #106]
.Ltmp374:
.LBB7_51:
	@DEBUG_VALUE: tcp_output:useg <- $r8
	@DEBUG_VALUE: tcp_output:seg <- $r5
	@DEBUG_VALUE: tcp_output:pcb <- $r4
	.loc	6 1132 16               @ ../Libraries/lwip-1.4.1/src/core/tcp_out.c:1132:16
	ldrb	r0, [r4, #30]
	and	r0, r0, #127
	strb	r0, [r4, #30]
.Ltmp375:
.LBB7_52:
	@DEBUG_VALUE: tcp_output:pcb <- $r4
	.loc	6 1134 1                @ ../Libraries/lwip-1.4.1/src/core/tcp_out.c:1134:1
	movs	r0, #0
	add	sp, #12
	pop.w	{r4, r5, r6, r7, r8, r9, r10, r11, pc}
.Ltmp376:
.Lfunc_end7:
	.size	tcp_output, .Lfunc_end7-tcp_output
	.cfi_endproc
	.file	9 "F:\\SkyDrive\\OtvoreniProjekti\\HotelSaplast\\fw\\KontrolerHotela\\HC070318\\Project" "../Libraries/lwip-1.4.1/src/include\\lwip/netif.h"
	.cantunwind
	.fnend
                                        @ -- End function
	.section	.text.tcp_rst,"ax",%progbits
	.hidden	tcp_rst                 @ -- Begin function tcp_rst
	.globl	tcp_rst
	.p2align	1
	.type	tcp_rst,%function
	.code	16                      @ @tcp_rst
	.thumb_func
tcp_rst:
.Lfunc_begin8:
	.loc	6 1301 0                @ ../Libraries/lwip-1.4.1/src/core/tcp_out.c:1301:0
	.fnstart
	.cfi_startproc
@ %bb.0:
	.save	{r4, r5, r6, r7, r8, r9, r10, r11, lr}
	push.w	{r4, r5, r6, r7, r8, r9, r10, r11, lr}
	.cfi_def_cfa_offset 36
	.cfi_offset lr, -4
	.cfi_offset r11, -8
	.cfi_offset r10, -12
	.cfi_offset r9, -16
	.cfi_offset r8, -20
	.cfi_offset r7, -24
	.cfi_offset r6, -28
	.cfi_offset r5, -32
	.cfi_offset r4, -36
	.pad	#12
	sub	sp, #12
	.cfi_def_cfa_offset 48
	@DEBUG_VALUE: tcp_rst:seqno <- $r0
	@DEBUG_VALUE: tcp_rst:ackno <- $r1
	@DEBUG_VALUE: tcp_rst:local_ip <- $r2
	@DEBUG_VALUE: tcp_rst:remote_ip <- $r3
	mov	r9, r2
	mov	r11, r1
	mov	r4, r0
.Ltmp377:
	@DEBUG_VALUE: tcp_rst:remote_ip <- $r8
	@DEBUG_VALUE: tcp_rst:local_ip <- $r9
	@DEBUG_VALUE: tcp_rst:ackno <- $r11
	@DEBUG_VALUE: tcp_rst:seqno <- $r4
	.loc	6 1304 9 prologue_end   @ ../Libraries/lwip-1.4.1/src/core/tcp_out.c:1304:9
	movs	r0, #1
	movs	r1, #20
	movs	r2, #0
	mov	r8, r3
.Ltmp378:
	.loc	6 0 9 is_stmt 0         @ ../Libraries/lwip-1.4.1/src/core/tcp_out.c:0:9
	mov.w	r10, #0
	.loc	6 1304 9                @ ../Libraries/lwip-1.4.1/src/core/tcp_out.c:1304:9
	bl	pbuf_alloc
	.loc	6 1305 9 is_stmt 1      @ ../Libraries/lwip-1.4.1/src/core/tcp_out.c:1305:9
	cbz	r0, .LBB8_2
.Ltmp379:
@ %bb.1:
	@DEBUG_VALUE: tcp_rst:seqno <- $r4
	@DEBUG_VALUE: tcp_rst:ackno <- $r11
	@DEBUG_VALUE: tcp_rst:local_ip <- $r9
	.loc	6 0 9 is_stmt 0         @ ../Libraries/lwip-1.4.1/src/core/tcp_out.c:0:9
	mov	r6, r0
.Ltmp380:
	@DEBUG_VALUE: tcp_rst:p <- $r6
	@DEBUG_VALUE: tcp_rst:remote_port <- $r5
	ldrd	r0, r5, [sp, #48]
.Ltmp381:
	@DEBUG_VALUE: tcp_rst:local_port <- $r0
	.loc	6 1313 36 is_stmt 1     @ ../Libraries/lwip-1.4.1/src/core/tcp_out.c:1313:36
	ldr	r7, [r6, #4]
.Ltmp382:
	@DEBUG_VALUE: tcp_rst:tcphdr <- $r7
	.loc	6 1314 19               @ ../Libraries/lwip-1.4.1/src/core/tcp_out.c:1314:19
	bl	lwip_htons
.Ltmp383:
	.loc	6 1314 17 is_stmt 0     @ ../Libraries/lwip-1.4.1/src/core/tcp_out.c:1314:17
	strh	r0, [r7]
	.loc	6 1315 20 is_stmt 1     @ ../Libraries/lwip-1.4.1/src/core/tcp_out.c:1315:20
	mov	r0, r5
	bl	lwip_htons
	.loc	6 1315 18 is_stmt 0     @ ../Libraries/lwip-1.4.1/src/core/tcp_out.c:1315:18
	strh	r0, [r7, #2]
	.loc	6 1316 21 is_stmt 1     @ ../Libraries/lwip-1.4.1/src/core/tcp_out.c:1316:21
	mov	r0, r4
	bl	lwip_htonl
	.loc	6 1316 19 is_stmt 0     @ ../Libraries/lwip-1.4.1/src/core/tcp_out.c:1316:19
	str	r0, [r7, #4]
	.loc	6 1317 21 is_stmt 1     @ ../Libraries/lwip-1.4.1/src/core/tcp_out.c:1317:21
	mov	r0, r11
	bl	lwip_htonl
	.loc	6 1317 19 is_stmt 0     @ ../Libraries/lwip-1.4.1/src/core/tcp_out.c:1317:19
	str	r0, [r7, #8]
	.loc	6 1318 5 is_stmt 1      @ ../Libraries/lwip-1.4.1/src/core/tcp_out.c:1318:5
	movw	r0, #20500
	bl	lwip_htons
	movw	r1, #53270
	.loc	6 1321 18               @ ../Libraries/lwip-1.4.1/src/core/tcp_out.c:1321:18
	strh.w	r10, [r7, #18]
	.loc	6 1324 22               @ ../Libraries/lwip-1.4.1/src/core/tcp_out.c:1324:22
	mov	r2, r8
	movs	r3, #6
	movs	r4, #6
.Ltmp384:
	.loc	6 1319 17               @ ../Libraries/lwip-1.4.1/src/core/tcp_out.c:1319:17
	str.w	r1, [r7, #14]
	.loc	6 1318 5                @ ../Libraries/lwip-1.4.1/src/core/tcp_out.c:1318:5
	strh	r0, [r7, #12]
	.loc	6 1324 22               @ ../Libraries/lwip-1.4.1/src/core/tcp_out.c:1324:22
	mov	r1, r9
	.loc	6 1325 58               @ ../Libraries/lwip-1.4.1/src/core/tcp_out.c:1325:58
	ldrh	r0, [r6, #8]
	.loc	6 1324 22               @ ../Libraries/lwip-1.4.1/src/core/tcp_out.c:1324:22
	str	r0, [sp]
	mov	r0, r6
	bl	inet_chksum_pseudo
	.loc	6 1324 20 is_stmt 0     @ ../Libraries/lwip-1.4.1/src/core/tcp_out.c:1324:20
	strh	r0, [r7, #16]
	.loc	6 1330 5 is_stmt 1      @ ../Libraries/lwip-1.4.1/src/core/tcp_out.c:1330:5
	mov	r0, r6
	mov	r1, r9
	mov	r2, r8
	movs	r3, #255
	strd	r10, r4, [sp]
	bl	ip_output
	.loc	6 1331 5                @ ../Libraries/lwip-1.4.1/src/core/tcp_out.c:1331:5
	mov	r0, r6
	add	sp, #12
	pop.w	{r4, r5, r6, r7, r8, r9, r10, r11, lr}
.Ltmp385:
	b	pbuf_free
.LBB8_2:
.Ltmp386:
	@DEBUG_VALUE: tcp_rst:seqno <- $r4
	@DEBUG_VALUE: tcp_rst:ackno <- $r11
	@DEBUG_VALUE: tcp_rst:local_ip <- $r9
	.loc	6 1333 1                @ ../Libraries/lwip-1.4.1/src/core/tcp_out.c:1333:1
	add	sp, #12
	pop.w	{r4, r5, r6, r7, r8, r9, r10, r11, pc}
.Ltmp387:
.Lfunc_end8:
	.size	tcp_rst, .Lfunc_end8-tcp_rst
	.cfi_endproc
	.cantunwind
	.fnend
                                        @ -- End function
	.section	.text.tcp_rexmit_rto,"ax",%progbits
	.hidden	tcp_rexmit_rto          @ -- Begin function tcp_rexmit_rto
	.globl	tcp_rexmit_rto
	.p2align	1
	.type	tcp_rexmit_rto,%function
	.code	16                      @ @tcp_rexmit_rto
	.thumb_func
tcp_rexmit_rto:
.Lfunc_begin9:
	.loc	6 1344 0                @ ../Libraries/lwip-1.4.1/src/core/tcp_out.c:1344:0
	.fnstart
	.cfi_startproc
@ %bb.0:
	@DEBUG_VALUE: tcp_rexmit_rto:pcb <- $r0
	@DEBUG_VALUE: tcp_rexmit_rto:pcb <- $r0
	.loc	6 1347 14 prologue_end  @ ../Libraries/lwip-1.4.1/src/core/tcp_out.c:1347:14
	ldr	r1, [r0, #112]
.Ltmp388:
	.loc	6 1347 9 is_stmt 0      @ ../Libraries/lwip-1.4.1/src/core/tcp_out.c:1347:9
	cbz	r1, .LBB9_4
@ %bb.1:
	@DEBUG_VALUE: tcp_rexmit_rto:pcb <- $r0
.Ltmp389:
	.loc	6 0 0                   @ ../Libraries/lwip-1.4.1/src/core/tcp_out.c:0:0
	mov	r3, r1
	.p2align	2
.LBB9_2:                                @ =>This Inner Loop Header: Depth=1
	@DEBUG_VALUE: tcp_rexmit_rto:pcb <- $r0
	mov	r2, r3
.Ltmp390:
	@DEBUG_VALUE: tcp_rexmit_rto:seg <- $r2
	.loc	6 1353 35 is_stmt 1     @ ../Libraries/lwip-1.4.1/src/core/tcp_out.c:1353:35
	ldr	r3, [r3]
.Ltmp391:
	.loc	6 1353 5 is_stmt 0      @ ../Libraries/lwip-1.4.1/src/core/tcp_out.c:1353:5
	cmp	r3, #0
	bne	.LBB9_2
.Ltmp392:
@ %bb.3:
	@DEBUG_VALUE: tcp_rexmit_rto:seg <- $r2
	@DEBUG_VALUE: tcp_rexmit_rto:pcb <- $r0
	.loc	6 1355 22 is_stmt 1     @ ../Libraries/lwip-1.4.1/src/core/tcp_out.c:1355:22
	ldr	r3, [r0, #108]
	.loc	6 1355 15 is_stmt 0     @ ../Libraries/lwip-1.4.1/src/core/tcp_out.c:1355:15
	str	r3, [r2]
	movs	r2, #0
.Ltmp393:
	.loc	6 1357 17 is_stmt 1     @ ../Libraries/lwip-1.4.1/src/core/tcp_out.c:1357:17
	strd	r1, r2, [r0, #108]
	.loc	6 1366 17               @ ../Libraries/lwip-1.4.1/src/core/tcp_out.c:1366:17
	str	r2, [r0, #56]
	.loc	6 1363 5                @ ../Libraries/lwip-1.4.1/src/core/tcp_out.c:1363:5
	ldrb.w	r1, [r0, #70]
	adds	r1, #1
	strb.w	r1, [r0, #70]
	.loc	6 1369 5                @ ../Libraries/lwip-1.4.1/src/core/tcp_out.c:1369:5
	b	tcp_output
.LBB9_4:
	@DEBUG_VALUE: tcp_rexmit_rto:pcb <- $r0
	.loc	6 1370 1                @ ../Libraries/lwip-1.4.1/src/core/tcp_out.c:1370:1
	bx	lr
.Ltmp394:
.Lfunc_end9:
	.size	tcp_rexmit_rto, .Lfunc_end9-tcp_rexmit_rto
	.cfi_endproc
	.cantunwind
	.fnend
                                        @ -- End function
	.section	.text.tcp_rexmit,"ax",%progbits
	.hidden	tcp_rexmit              @ -- Begin function tcp_rexmit
	.globl	tcp_rexmit
	.p2align	1
	.type	tcp_rexmit,%function
	.code	16                      @ @tcp_rexmit
	.thumb_func
tcp_rexmit:
.Lfunc_begin10:
	.loc	6 1381 0                @ ../Libraries/lwip-1.4.1/src/core/tcp_out.c:1381:0
	.fnstart
	.cfi_startproc
@ %bb.0:
	.save	{r4, r5, r6, r7, lr}
	push	{r4, r5, r6, r7, lr}
	.cfi_def_cfa_offset 20
	.cfi_offset lr, -4
	.cfi_offset r7, -8
	.cfi_offset r6, -12
	.cfi_offset r5, -16
	.cfi_offset r4, -20
	.pad	#4
	sub	sp, #4
	.cfi_def_cfa_offset 24
	@DEBUG_VALUE: tcp_rexmit:pcb <- $r0
.Ltmp395:
	.loc	6 1385 14 prologue_end  @ ../Libraries/lwip-1.4.1/src/core/tcp_out.c:1385:14
	ldr	r6, [r0, #112]
.Ltmp396:
	@DEBUG_VALUE: tcp_rexmit:seg <- $r6
	.loc	6 1385 9 is_stmt 0      @ ../Libraries/lwip-1.4.1/src/core/tcp_out.c:1385:9
	cbz	r6, .LBB10_10
.Ltmp397:
@ %bb.1:
	@DEBUG_VALUE: tcp_rexmit:seg <- $r6
	@DEBUG_VALUE: tcp_rexmit:pcb <- $r0
	.loc	6 1396 12 is_stmt 1     @ ../Libraries/lwip-1.4.1/src/core/tcp_out.c:1396:12
	mov	r7, r0
	mov	r4, r0
.Ltmp398:
	@DEBUG_VALUE: tcp_rexmit:pcb <- $r4
	@DEBUG_VALUE: tcp_rexmit:pcb <- $r4
	.loc	6 1393 25               @ ../Libraries/lwip-1.4.1/src/core/tcp_out.c:1393:25
	ldr	r1, [r6]
.Ltmp399:
	@DEBUG_VALUE: tcp_rexmit:cur_seg <- undef
	.loc	6 1396 12               @ ../Libraries/lwip-1.4.1/src/core/tcp_out.c:1396:12
	ldr	r0, [r7, #108]!
	.loc	6 1396 21 is_stmt 0     @ ../Libraries/lwip-1.4.1/src/core/tcp_out.c:1396:21
	cmp	r0, #0
	.loc	6 1393 18 is_stmt 1     @ ../Libraries/lwip-1.4.1/src/core/tcp_out.c:1393:18
	str	r1, [r7, #4]
	.loc	6 1396 21               @ ../Libraries/lwip-1.4.1/src/core/tcp_out.c:1396:21
	beq	.LBB10_5
.Ltmp400:
	.p2align	2
.LBB10_2:                               @ =>This Inner Loop Header: Depth=1
	@DEBUG_VALUE: tcp_rexmit:pcb <- $r4
	@DEBUG_VALUE: tcp_rexmit:seg <- $r6
	@DEBUG_VALUE: tcp_rexmit:cur_seg <- $r7
	.loc	6 1397 13               @ ../Libraries/lwip-1.4.1/src/core/tcp_out.c:1397:13
	ldr	r0, [r0, #16]
	ldr	r0, [r0, #4]
	bl	lwip_ntohl
	mov	r5, r0
	ldr	r0, [r6, #16]
	ldr	r0, [r0, #4]
	bl	lwip_ntohl
	subs	r0, r5, r0
	.loc	6 0 0 is_stmt 0         @ ../Libraries/lwip-1.4.1/src/core/tcp_out.c:0:0
	ldr	r1, [r7]
	.loc	6 1396 5 is_stmt 1      @ ../Libraries/lwip-1.4.1/src/core/tcp_out.c:1396:5
	cmp.w	r0, #-1
	bgt	.LBB10_6
.Ltmp401:
@ %bb.3:                                @   in Loop: Header=BB10_2 Depth=1
	@DEBUG_VALUE: tcp_rexmit:cur_seg <- $r7
	@DEBUG_VALUE: tcp_rexmit:pcb <- $r4
	@DEBUG_VALUE: tcp_rexmit:seg <- $r6
	@DEBUG_VALUE: tcp_rexmit:cur_seg <- $r1
	.loc	6 1396 12 is_stmt 0     @ ../Libraries/lwip-1.4.1/src/core/tcp_out.c:1396:12
	ldr	r0, [r1]
	mov	r7, r1
	.loc	6 1396 21               @ ../Libraries/lwip-1.4.1/src/core/tcp_out.c:1396:21
	cmp	r0, #0
	bne	.LBB10_2
.Ltmp402:
@ %bb.4:
	@DEBUG_VALUE: tcp_rexmit:cur_seg <- $r1
	@DEBUG_VALUE: tcp_rexmit:pcb <- $r4
	@DEBUG_VALUE: tcp_rexmit:seg <- $r6
	.loc	6 0 21                  @ ../Libraries/lwip-1.4.1/src/core/tcp_out.c:0:21
	movs	r0, #0
	mov	r7, r1
.Ltmp403:
	@DEBUG_VALUE: tcp_rexmit:cur_seg <- $r7
	b	.LBB10_7
.Ltmp404:
.LBB10_5:
	@DEBUG_VALUE: tcp_rexmit:pcb <- $r4
	@DEBUG_VALUE: tcp_rexmit:seg <- $r6
	movs	r0, #0
	b	.LBB10_7
.Ltmp405:
.LBB10_6:
	@DEBUG_VALUE: tcp_rexmit:cur_seg <- $r7
	@DEBUG_VALUE: tcp_rexmit:pcb <- $r4
	@DEBUG_VALUE: tcp_rexmit:seg <- $r6
	mov	r0, r1
.Ltmp406:
.LBB10_7:
	@DEBUG_VALUE: tcp_rexmit:pcb <- $r4
	@DEBUG_VALUE: tcp_rexmit:seg <- $r6
	@DEBUG_VALUE: tcp_rexmit:cur_seg <- $r7
	.loc	6 1401 15 is_stmt 1     @ ../Libraries/lwip-1.4.1/src/core/tcp_out.c:1401:15
	str	r0, [r6]
	.loc	6 1402 14               @ ../Libraries/lwip-1.4.1/src/core/tcp_out.c:1402:14
	str	r6, [r7]
.Ltmp407:
	.loc	6 1404 14               @ ../Libraries/lwip-1.4.1/src/core/tcp_out.c:1404:14
	ldr	r0, [r6]
.Ltmp408:
	.loc	6 1404 9 is_stmt 0      @ ../Libraries/lwip-1.4.1/src/core/tcp_out.c:1404:9
	cbnz	r0, .LBB10_9
.Ltmp409:
@ %bb.8:
	@DEBUG_VALUE: tcp_rexmit:cur_seg <- $r7
	@DEBUG_VALUE: tcp_rexmit:pcb <- $r4
	@DEBUG_VALUE: tcp_rexmit:seg <- $r6
	.loc	6 0 9                   @ ../Libraries/lwip-1.4.1/src/core/tcp_out.c:0:9
	movs	r0, #0
.Ltmp410:
	.loc	6 1407 30 is_stmt 1     @ ../Libraries/lwip-1.4.1/src/core/tcp_out.c:1407:30
	strh.w	r0, [r4, #106]
.Ltmp411:
.LBB10_9:
	@DEBUG_VALUE: tcp_rexmit:cur_seg <- $r7
	@DEBUG_VALUE: tcp_rexmit:pcb <- $r4
	@DEBUG_VALUE: tcp_rexmit:seg <- $r6
	.loc	6 0 30 is_stmt 0        @ ../Libraries/lwip-1.4.1/src/core/tcp_out.c:0:30
	movs	r0, #0
	.loc	6 1414 17 is_stmt 1     @ ../Libraries/lwip-1.4.1/src/core/tcp_out.c:1414:17
	str	r0, [r4, #56]
	.loc	6 1411 5                @ ../Libraries/lwip-1.4.1/src/core/tcp_out.c:1411:5
	ldrb.w	r0, [r4, #70]
	adds	r0, #1
	strb.w	r0, [r4, #70]
.Ltmp412:
.LBB10_10:
	@DEBUG_VALUE: tcp_rexmit:seg <- $r6
	.loc	6 1420 1                @ ../Libraries/lwip-1.4.1/src/core/tcp_out.c:1420:1
	add	sp, #4
	pop	{r4, r5, r6, r7, pc}
.Ltmp413:
.Lfunc_end10:
	.size	tcp_rexmit, .Lfunc_end10-tcp_rexmit
	.cfi_endproc
	.cantunwind
	.fnend
                                        @ -- End function
	.section	.text.tcp_rexmit_fast,"ax",%progbits
	.hidden	tcp_rexmit_fast         @ -- Begin function tcp_rexmit_fast
	.globl	tcp_rexmit_fast
	.p2align	1
	.type	tcp_rexmit_fast,%function
	.code	16                      @ @tcp_rexmit_fast
	.thumb_func
tcp_rexmit_fast:
.Lfunc_begin11:
	.loc	6 1429 0                @ ../Libraries/lwip-1.4.1/src/core/tcp_out.c:1429:0
	.fnstart
	.cfi_startproc
@ %bb.0:
	.save	{r4, lr}
	push	{r4, lr}
	.cfi_def_cfa_offset 8
	.cfi_offset lr, -4
	.cfi_offset r4, -8
	@DEBUG_VALUE: tcp_rexmit_fast:pcb <- $r0
	mov	r4, r0
.Ltmp414:
	@DEBUG_VALUE: tcp_rexmit_fast:pcb <- $r4
	.loc	6 1430 14 prologue_end  @ ../Libraries/lwip-1.4.1/src/core/tcp_out.c:1430:14
	ldr	r0, [r0, #112]
	.loc	6 1430 30 is_stmt 0     @ ../Libraries/lwip-1.4.1/src/core/tcp_out.c:1430:30
	cbz	r0, .LBB11_3
.Ltmp415:
@ %bb.1:
	@DEBUG_VALUE: tcp_rexmit_fast:pcb <- $r4
	.loc	6 1430 40               @ ../Libraries/lwip-1.4.1/src/core/tcp_out.c:1430:40
	ldrb	r0, [r4, #30]
.Ltmp416:
	.loc	6 1430 9                @ ../Libraries/lwip-1.4.1/src/core/tcp_out.c:1430:9
	lsls	r0, r0, #29
	bmi	.LBB11_3
.Ltmp417:
@ %bb.2:
	@DEBUG_VALUE: tcp_rexmit_fast:pcb <- $r4
	.loc	6 1438 9 is_stmt 1      @ ../Libraries/lwip-1.4.1/src/core/tcp_out.c:1438:9
	mov	r0, r4
	bl	tcp_rexmit
.Ltmp418:
	.loc	6 1442 30               @ ../Libraries/lwip-1.4.1/src/core/tcp_out.c:1442:30
	ldrh.w	r0, [r4, #96]
	.loc	6 1442 18 is_stmt 0     @ ../Libraries/lwip-1.4.1/src/core/tcp_out.c:1442:18
	ldrh.w	r3, [r4, #76]
.Ltmp419:
	.loc	6 1442 13               @ ../Libraries/lwip-1.4.1/src/core/tcp_out.c:1442:13
	cmp	r3, r0
	it	hi
	movhi	r3, r0
.Ltmp420:
	.loc	6 0 0                   @ ../Libraries/lwip-1.4.1/src/core/tcp_out.c:0:0
	lsrs	r1, r3, #1
.Ltmp421:
	.loc	6 1448 27 is_stmt 1     @ ../Libraries/lwip-1.4.1/src/core/tcp_out.c:1448:27
	strh.w	r1, [r4, #78]
.Ltmp422:
	.loc	6 1452 38               @ ../Libraries/lwip-1.4.1/src/core/tcp_out.c:1452:38
	ldrh	r0, [r4, #54]
	.loc	6 1452 31 is_stmt 0     @ ../Libraries/lwip-1.4.1/src/core/tcp_out.c:1452:31
	lsls	r2, r0, #1
.Ltmp423:
	.loc	6 1461 39 is_stmt 1     @ ../Libraries/lwip-1.4.1/src/core/tcp_out.c:1461:39
	add.w	r0, r0, r0, lsl #1
	.loc	6 1452 13               @ ../Libraries/lwip-1.4.1/src/core/tcp_out.c:1452:13
	cmp.w	r2, r3, lsr #1
.Ltmp424:
	.loc	6 1458 27               @ ../Libraries/lwip-1.4.1/src/core/tcp_out.c:1458:27
	itt	hi
	strhhi.w	r2, [r4, #78]
.Ltmp425:
	.loc	6 1461 26               @ ../Libraries/lwip-1.4.1/src/core/tcp_out.c:1461:26
	movhi	r1, r2
	.loc	6 1461 35 is_stmt 0     @ ../Libraries/lwip-1.4.1/src/core/tcp_out.c:1461:35
	add	r0, r1
	.loc	6 1461 19               @ ../Libraries/lwip-1.4.1/src/core/tcp_out.c:1461:19
	strh.w	r0, [r4, #76]
	.loc	6 1462 20 is_stmt 1     @ ../Libraries/lwip-1.4.1/src/core/tcp_out.c:1462:20
	ldrb	r0, [r4, #30]
	orr	r0, r0, #4
	strb	r0, [r4, #30]
.Ltmp426:
.LBB11_3:
	@DEBUG_VALUE: tcp_rexmit_fast:pcb <- $r4
	.loc	6 1464 1                @ ../Libraries/lwip-1.4.1/src/core/tcp_out.c:1464:1
	pop	{r4, pc}
.Ltmp427:
.Lfunc_end11:
	.size	tcp_rexmit_fast, .Lfunc_end11-tcp_rexmit_fast
	.cfi_endproc
	.cantunwind
	.fnend
                                        @ -- End function
	.section	.text.tcp_keepalive,"ax",%progbits
	.hidden	tcp_keepalive           @ -- Begin function tcp_keepalive
	.globl	tcp_keepalive
	.p2align	1
	.type	tcp_keepalive,%function
	.code	16                      @ @tcp_keepalive
	.thumb_func
tcp_keepalive:
.Lfunc_begin12:
	.loc	6 1476 0                @ ../Libraries/lwip-1.4.1/src/core/tcp_out.c:1476:0
	.fnstart
	.cfi_startproc
@ %bb.0:
	.save	{r4, r5, r6, r7, r8, r9, lr}
	push.w	{r4, r5, r6, r7, r8, r9, lr}
	.cfi_def_cfa_offset 28
	.cfi_offset lr, -4
	.cfi_offset r9, -8
	.cfi_offset r8, -12
	.cfi_offset r7, -16
	.cfi_offset r6, -20
	.cfi_offset r5, -24
	.cfi_offset r4, -28
	.pad	#12
	sub	sp, #12
	.cfi_def_cfa_offset 40
	@DEBUG_VALUE: tcp_keepalive:pcb <- $r0
	mov	r4, r0
.Ltmp428:
	@DEBUG_VALUE: tcp_keepalive:pcb <- $r4
	.loc	6 1487 44 prologue_end  @ ../Libraries/lwip-1.4.1/src/core/tcp_out.c:1487:44
	ldr	r0, [r0, #80]
	subs	r0, #1
	bl	lwip_htonl
	mov	r2, r0
	.loc	6 1487 9 is_stmt 0      @ ../Libraries/lwip-1.4.1/src/core/tcp_out.c:1487:9
	mov	r0, r4
	movs	r1, #0
	mov.w	r8, #0
	bl	tcp_output_alloc_header
	.loc	6 1488 9 is_stmt 1      @ ../Libraries/lwip-1.4.1/src/core/tcp_out.c:1488:9
	cbz	r0, .LBB12_2
.Ltmp429:
@ %bb.1:
	@DEBUG_VALUE: tcp_keepalive:pcb <- $r4
	.loc	6 0 0 is_stmt 0         @ ../Libraries/lwip-1.4.1/src/core/tcp_out.c:0:0
	mov	r5, r0
.Ltmp430:
	@DEBUG_VALUE: tcp_keepalive:p <- $r5
	.loc	6 1494 36 is_stmt 1     @ ../Libraries/lwip-1.4.1/src/core/tcp_out.c:1494:36
	ldr	r7, [r0, #4]
.Ltmp431:
	@DEBUG_VALUE: tcp_keepalive:tcphdr <- $r7
	.loc	6 1498 58               @ ../Libraries/lwip-1.4.1/src/core/tcp_out.c:1498:58
	ldrh	r0, [r0, #8]
	.loc	6 1497 66               @ ../Libraries/lwip-1.4.1/src/core/tcp_out.c:1497:66
	adds	r6, r4, #4
	.loc	6 1497 22 is_stmt 0     @ ../Libraries/lwip-1.4.1/src/core/tcp_out.c:1497:22
	mov	r1, r4
	movs	r3, #6
	mov.w	r9, #6
	mov	r2, r6
	str	r0, [sp]
	mov	r0, r5
	bl	inet_chksum_pseudo
	.loc	6 1497 20               @ ../Libraries/lwip-1.4.1/src/core/tcp_out.c:1497:20
	strh	r0, [r7, #16]
	.loc	6 1507 5 is_stmt 1      @ ../Libraries/lwip-1.4.1/src/core/tcp_out.c:1507:5
	mov	r0, r5
	mov	r1, r4
	mov	r2, r6
	.loc	6 1507 56 is_stmt 0     @ ../Libraries/lwip-1.4.1/src/core/tcp_out.c:1507:56
	ldrb	r3, [r4, #10]
	.loc	6 1507 5                @ ../Libraries/lwip-1.4.1/src/core/tcp_out.c:1507:5
	strd	r8, r9, [sp]
	bl	ip_output
	.loc	6 1510 5 is_stmt 1      @ ../Libraries/lwip-1.4.1/src/core/tcp_out.c:1510:5
	mov	r0, r5
	add	sp, #12
	pop.w	{r4, r5, r6, r7, r8, r9, lr}
.Ltmp432:
	b	pbuf_free
.LBB12_2:
.Ltmp433:
	@DEBUG_VALUE: tcp_keepalive:pcb <- $r4
	.loc	6 1514 1                @ ../Libraries/lwip-1.4.1/src/core/tcp_out.c:1514:1
	add	sp, #12
	pop.w	{r4, r5, r6, r7, r8, r9, pc}
.Ltmp434:
.Lfunc_end12:
	.size	tcp_keepalive, .Lfunc_end12-tcp_keepalive
	.cfi_endproc
	.cantunwind
	.fnend
                                        @ -- End function
	.section	.text.tcp_zero_window_probe,"ax",%progbits
	.hidden	tcp_zero_window_probe   @ -- Begin function tcp_zero_window_probe
	.globl	tcp_zero_window_probe
	.p2align	1
	.type	tcp_zero_window_probe,%function
	.code	16                      @ @tcp_zero_window_probe
	.thumb_func
tcp_zero_window_probe:
.Lfunc_begin13:
	.loc	6 1526 0                @ ../Libraries/lwip-1.4.1/src/core/tcp_out.c:1526:0
	.fnstart
	.cfi_startproc
@ %bb.0:
	.save	{r4, r5, r6, r7, r8, lr}
	push.w	{r4, r5, r6, r7, r8, lr}
	.cfi_def_cfa_offset 24
	.cfi_offset lr, -4
	.cfi_offset r8, -8
	.cfi_offset r7, -12
	.cfi_offset r6, -16
	.cfi_offset r5, -20
	.cfi_offset r4, -24
	.pad	#8
	sub	sp, #8
	.cfi_def_cfa_offset 32
	@DEBUG_VALUE: tcp_zero_window_probe:pcb <- $r0
.Ltmp435:
	.loc	6 1544 16 prologue_end  @ ../Libraries/lwip-1.4.1/src/core/tcp_out.c:1544:16
	ldr	r6, [r0, #112]
.Ltmp436:
	@DEBUG_VALUE: tcp_zero_window_probe:seg <- $r6
	.loc	6 0 16 is_stmt 0        @ ../Libraries/lwip-1.4.1/src/core/tcp_out.c:0:16
	mov	r4, r0
.Ltmp437:
	@DEBUG_VALUE: tcp_zero_window_probe:pcb <- $r4
	.loc	6 1546 9 is_stmt 1      @ ../Libraries/lwip-1.4.1/src/core/tcp_out.c:1546:9
	cbnz	r6, .LBB13_2
.Ltmp438:
@ %bb.1:
	@DEBUG_VALUE: tcp_zero_window_probe:pcb <- $r4
	@DEBUG_VALUE: tcp_zero_window_probe:seg <- $r6
	.loc	6 1548 20               @ ../Libraries/lwip-1.4.1/src/core/tcp_out.c:1548:20
	ldr	r6, [r4, #108]
.Ltmp439:
	@DEBUG_VALUE: tcp_zero_window_probe:seg <- $r6
	.loc	6 1550 9                @ ../Libraries/lwip-1.4.1/src/core/tcp_out.c:1550:9
	cbz	r6, .LBB13_5
.Ltmp440:
.LBB13_2:
	@DEBUG_VALUE: tcp_zero_window_probe:pcb <- $r4
	@DEBUG_VALUE: tcp_zero_window_probe:seg <- $r6
	.loc	6 1555 16               @ ../Libraries/lwip-1.4.1/src/core/tcp_out.c:1555:16
	ldr	r0, [r6, #16]
	ldrh	r0, [r0, #12]
	bl	lwip_ntohs
	.loc	6 1555 57 is_stmt 0     @ ../Libraries/lwip-1.4.1/src/core/tcp_out.c:1555:57
	lsls	r0, r0, #31
	iteee	eq
	moveq	r7, #0
	.loc	6 1555 66               @ ../Libraries/lwip-1.4.1/src/core/tcp_out.c:1555:66
	ldrhne	r0, [r6, #8]
	.loc	6 1555 70               @ ../Libraries/lwip-1.4.1/src/core/tcp_out.c:1555:70
	clzne	r0, r0
	lsrne	r7, r0, #5
.Ltmp441:
	@DEBUG_VALUE: tcp_zero_window_probe:len <- undef
	.loc	6 1557 11 is_stmt 1     @ ../Libraries/lwip-1.4.1/src/core/tcp_out.c:1557:11
	eor	r1, r7, #1
	.loc	6 1559 51               @ ../Libraries/lwip-1.4.1/src/core/tcp_out.c:1559:51
	ldr	r0, [r6, #16]
	.loc	6 1559 59 is_stmt 0     @ ../Libraries/lwip-1.4.1/src/core/tcp_out.c:1559:59
	ldr	r2, [r0, #4]
	.loc	6 1559 9                @ ../Libraries/lwip-1.4.1/src/core/tcp_out.c:1559:9
	mov	r0, r4
	bl	tcp_output_alloc_header
	.loc	6 1560 9 is_stmt 1      @ ../Libraries/lwip-1.4.1/src/core/tcp_out.c:1560:9
	cbz	r0, .LBB13_5
.Ltmp442:
@ %bb.3:
	@DEBUG_VALUE: tcp_zero_window_probe:pcb <- $r4
	@DEBUG_VALUE: tcp_zero_window_probe:seg <- $r6
	.loc	6 1565 36               @ ../Libraries/lwip-1.4.1/src/core/tcp_out.c:1565:36
	ldr.w	r8, [r0, #4]
.Ltmp443:
	@DEBUG_VALUE: tcp_zero_window_probe:tcphdr <- $r8
	.loc	6 0 0 is_stmt 0         @ ../Libraries/lwip-1.4.1/src/core/tcp_out.c:0:0
	mov	r5, r0
.Ltmp444:
	@DEBUG_VALUE: tcp_zero_window_probe:p <- $r5
	.loc	6 1567 9 is_stmt 1      @ ../Libraries/lwip-1.4.1/src/core/tcp_out.c:1567:9
	cbz	r7, .LBB13_6
.Ltmp445:
@ %bb.4:
	@DEBUG_VALUE: tcp_zero_window_probe:p <- $r5
	@DEBUG_VALUE: tcp_zero_window_probe:tcphdr <- $r8
	@DEBUG_VALUE: tcp_zero_window_probe:pcb <- $r4
	@DEBUG_VALUE: tcp_zero_window_probe:seg <- $r6
	.loc	6 1570 9                @ ../Libraries/lwip-1.4.1/src/core/tcp_out.c:1570:9
	ldrh.w	r0, [r8, #12]
	bic	r6, r0, #16128
.Ltmp446:
	movs	r0, #17
	bl	lwip_htons
	orrs	r0, r6
	strh.w	r0, [r8, #12]
	b	.LBB13_7
.Ltmp447:
.LBB13_5:
	@DEBUG_VALUE: tcp_zero_window_probe:pcb <- $r4
	@DEBUG_VALUE: tcp_zero_window_probe:seg <- $r6
	.loc	6 1601 1                @ ../Libraries/lwip-1.4.1/src/core/tcp_out.c:1601:1
	add	sp, #8
	pop.w	{r4, r5, r6, r7, r8, pc}
.Ltmp448:
.LBB13_6:
	@DEBUG_VALUE: tcp_zero_window_probe:p <- $r5
	@DEBUG_VALUE: tcp_zero_window_probe:tcphdr <- $r8
	@DEBUG_VALUE: tcp_zero_window_probe:pcb <- $r4
	@DEBUG_VALUE: tcp_zero_window_probe:seg <- $r6
	.loc	6 1579 32               @ ../Libraries/lwip-1.4.1/src/core/tcp_out.c:1579:32
	ldr	r0, [r6, #4]
	.loc	6 1579 64 is_stmt 0     @ ../Libraries/lwip-1.4.1/src/core/tcp_out.c:1579:64
	ldrh	r1, [r6, #8]
	.loc	6 1579 49               @ ../Libraries/lwip-1.4.1/src/core/tcp_out.c:1579:49
	ldrh	r2, [r0, #8]
	.loc	6 1579 57               @ ../Libraries/lwip-1.4.1/src/core/tcp_out.c:1579:57
	subs	r1, r2, r1
	.loc	6 1579 9                @ ../Libraries/lwip-1.4.1/src/core/tcp_out.c:1579:9
	movs	r2, #1
	uxth	r3, r1
	.loc	6 1575 40 is_stmt 1     @ ../Libraries/lwip-1.4.1/src/core/tcp_out.c:1575:40
	add.w	r1, r8, #20
.Ltmp449:
	@DEBUG_VALUE: d <- $r1
	.loc	6 1579 9                @ ../Libraries/lwip-1.4.1/src/core/tcp_out.c:1579:9
	bl	pbuf_copy_partial
.Ltmp450:
.LBB13_7:
	@DEBUG_VALUE: tcp_zero_window_probe:p <- $r5
	@DEBUG_VALUE: tcp_zero_window_probe:tcphdr <- $r8
	@DEBUG_VALUE: tcp_zero_window_probe:pcb <- $r4
	.loc	6 1584 58               @ ../Libraries/lwip-1.4.1/src/core/tcp_out.c:1584:58
	ldrh	r0, [r5, #8]
	.loc	6 1583 66               @ ../Libraries/lwip-1.4.1/src/core/tcp_out.c:1583:66
	adds	r6, r4, #4
	.loc	6 1583 22 is_stmt 0     @ ../Libraries/lwip-1.4.1/src/core/tcp_out.c:1583:22
	mov	r1, r4
	movs	r3, #6
	movs	r7, #6
	mov	r2, r6
	str	r0, [sp]
	mov	r0, r5
	bl	inet_chksum_pseudo
	.loc	6 1583 20               @ ../Libraries/lwip-1.4.1/src/core/tcp_out.c:1583:20
	strh.w	r0, [r8, #16]
	movs	r0, #0
	.loc	6 1593 5 is_stmt 1      @ ../Libraries/lwip-1.4.1/src/core/tcp_out.c:1593:5
	mov	r1, r4
	mov	r2, r6
	.loc	6 1593 56 is_stmt 0     @ ../Libraries/lwip-1.4.1/src/core/tcp_out.c:1593:56
	ldrb	r3, [r4, #10]
	.loc	6 1593 5                @ ../Libraries/lwip-1.4.1/src/core/tcp_out.c:1593:5
	strd	r0, r7, [sp]
	mov	r0, r5
	bl	ip_output
	.loc	6 1596 5 is_stmt 1      @ ../Libraries/lwip-1.4.1/src/core/tcp_out.c:1596:5
	mov	r0, r5
	add	sp, #8
	pop.w	{r4, r5, r6, r7, r8, lr}
.Ltmp451:
	b	pbuf_free
.Ltmp452:
.Lfunc_end13:
	.size	tcp_zero_window_probe, .Lfunc_end13-tcp_zero_window_probe
	.cfi_endproc
	.cantunwind
	.fnend
                                        @ -- End function
	.section	".note.GNU-stack","",%progbits
	.eabi_attribute	30, 3	@ Tag_ABI_optimization_goals
	.ARM_attribute	16, 1	@ Tag_AV_eba