	.text
	.syntax unified
	.eabi_attribute	67, "2.09"	@ Tag_conformance
	.cpu	cortex-m4
	.eabi_attribute	6, 13	@ Tag_CPU_arch
	.eabi_attribute	7, 77	@ Tag_CPU_arch_profile
	.eabi_attribute	8, 0	@ Tag_ARM_ISA_use
	.eabi_attribute	9, 2	@ Tag_THUMB_ISA_use
	.fpu	fpv4-sp-d16
	.eabi_attribute	27, 1	@ Tag_ABI_HardFP_use
	.eabi_attribute	36, 1	@ Tag_FP_HP_extension
	.eabi_attribute	34, 1	@ Tag_CPU_unaligned_access
	.eabi_attribute	17, 1	@ Tag_ABI_PCS_GOT_use
	.eabi_attribute	20, 2	@ Tag_ABI_FP_denormal
	.eabi_attribute	21, 0	@ Tag_ABI_FP_exceptions
	.eabi_attribute	23, 1	@ Tag_ABI_FP_number_model
	.eabi_attribute	24, 1	@ Tag_ABI_align_needed
	.eabi_attribute	25, 1	@ Tag_ABI_align_preserved
	.eabi_attribute	28, 1	@ Tag_ABI_VFP_args
	.eabi_attribute	38, 1	@ Tag_ABI_FP_16bit_format
	.eabi_attribute	18, 2	@ Tag_ABI_PCS_wchar_t
	.eabi_attribute	26, 1	@ Tag_ABI_enum_size
	.eabi_attribute	14, 0	@ Tag_ABI_PCS_R9_use
	.file	"tcp_in.c"
	.file	1 "F:\\SkyDrive\\OtvoreniProjekti\\HotelSaplast\\fw\\KontrolerHotela\\HC070318\\Project" "../Libraries/lwip-1.4.1/src/include\\lwip/tcp_impl.h"
	.file	2 "F:\\SkyDrive\\OtvoreniProjekti\\HotelSaplast\\fw\\KontrolerHotela\\HC070318\\Project" "../Libraries/lwip-1.4.1/src/include\\lwip/pbuf.h"
	.file	3 "F:\\SkyDrive\\OtvoreniProjekti\\HotelSaplast\\fw\\KontrolerHotela\\HC070318\\Project" "../Libraries/lwip-1.4.1/port/arch\\cc.h"
	.file	4 "F:\\SkyDrive\\OtvoreniProjekti\\HotelSaplast\\fw\\KontrolerHotela\\HC070318\\Project" "../Libraries/lwip-1.4.1/src/core/tcp_in.c"
	.file	5 "F:\\SkyDrive\\OtvoreniProjekti\\HotelSaplast\\fw\\KontrolerHotela\\HC070318\\Project" "../Libraries/lwip-1.4.1/src/include/ipv4\\lwip/ip.h"
	.file	6 "F:\\SkyDrive\\OtvoreniProjekti\\HotelSaplast\\fw\\KontrolerHotela\\HC070318\\Project" "../Libraries/lwip-1.4.1/src/include/ipv4\\lwip/ip_addr.h"
	.file	7 "F:\\SkyDrive\\OtvoreniProjekti\\HotelSaplast\\fw\\KontrolerHotela\\HC070318\\Project" "../Libraries/lwip-1.4.1/src/include\\lwip/tcp.h"
	.file	8 "F:\\SkyDrive\\OtvoreniProjekti\\HotelSaplast\\fw\\KontrolerHotela\\HC070318\\Project" "../Libraries/lwip-1.4.1/src/include\\lwip/err.h"
	.file	9 "F:\\SkyDrive\\OtvoreniProjekti\\HotelSaplast\\fw\\KontrolerHotela\\HC070318\\Project" "../Libraries/lwip-1.4.1/src/include\\lwip/memp.h"
	.section	.text.tcp_input,"ax",%progbits
	.hidden	tcp_input               @ -- Begin function tcp_input
	.globl	tcp_input
	.p2align	2
	.type	tcp_input,%function
	.code	16                      @ @tcp_input
	.thumb_func
tcp_input:
.Lfunc_begin0:
	.loc	4 93 0                  @ ../Libraries/lwip-1.4.1/src/core/tcp_in.c:93:0
	.fnstart
	.cfi_sections .debug_frame
	.cfi_startproc
@ %bb.0:
	.save	{r4, r5, r6, r7, r8, r9, r10, r11, lr}
	push.w	{r4, r5, r6, r7, r8, r9, r10, r11, lr}
	.cfi_def_cfa_offset 36
	.cfi_offset lr, -4
	.cfi_offset r11, -8
	.cfi_offset r10, -12
	.cfi_offset r9, -16
	.cfi_offset r8, -20
	.cfi_offset r7, -24
	.cfi_offset r6, -28
	.cfi_offset r5, -32
	.cfi_offset r4, -36
	.pad	#12
	sub	sp, #12
	.cfi_def_cfa_offset 48
	@DEBUG_VALUE: tcp_input:p <- $r0
	@DEBUG_VALUE: tcp_input:inp <- $r1
	mov	r4, r1
.Ltmp0:
	.loc	4 108 11 prologue_end   @ ../Libraries/lwip-1.4.1/src/core/tcp_in.c:108:11
	movw	r1, :lower16:iphdr
.Ltmp1:
	.loc	4 0 11 is_stmt 0        @ ../Libraries/lwip-1.4.1/src/core/tcp_in.c:0:11
	mov	r5, r0
.Ltmp2:
	@DEBUG_VALUE: tcp_input:inp <- $r4
	@DEBUG_VALUE: tcp_input:p <- $r5
	.loc	4 108 34                @ ../Libraries/lwip-1.4.1/src/core/tcp_in.c:108:34
	ldr	r0, [r0, #4]
	movs	r2, #60
	.loc	4 109 12 is_stmt 1      @ ../Libraries/lwip-1.4.1/src/core/tcp_in.c:109:12
	movw	r8, :lower16:tcphdr
	.loc	4 108 11                @ ../Libraries/lwip-1.4.1/src/core/tcp_in.c:108:11
	movt	r1, :upper16:iphdr
	.loc	4 109 12                @ ../Libraries/lwip-1.4.1/src/core/tcp_in.c:109:12
	movt	r8, :upper16:tcphdr
	.loc	4 108 11                @ ../Libraries/lwip-1.4.1/src/core/tcp_in.c:108:11
	str	r0, [r1]
	.loc	4 109 56                @ ../Libraries/lwip-1.4.1/src/core/tcp_in.c:109:56
	ldrb	r1, [r0]
	.loc	4 109 70 is_stmt 0      @ ../Libraries/lwip-1.4.1/src/core/tcp_in.c:109:70
	and.w	r1, r2, r1, lsl #2
	.loc	4 109 54                @ ../Libraries/lwip-1.4.1/src/core/tcp_in.c:109:54
	add	r0, r1
.Ltmp3:
	.loc	4 116 24 is_stmt 1      @ ../Libraries/lwip-1.4.1/src/core/tcp_in.c:116:24
	rsbs	r1, r1, #0
.Ltmp4:
	.loc	4 109 12                @ ../Libraries/lwip-1.4.1/src/core/tcp_in.c:109:12
	str.w	r0, [r8]
.Ltmp5:
	.loc	4 116 9                 @ ../Libraries/lwip-1.4.1/src/core/tcp_in.c:116:9
	mov	r0, r5
	bl	pbuf_header
	.loc	4 116 56 is_stmt 0      @ ../Libraries/lwip-1.4.1/src/core/tcp_in.c:116:56
	cbnz	r0, .LBB0_6
.Ltmp6:
@ %bb.1:
	@DEBUG_VALUE: tcp_input:p <- $r5
	@DEBUG_VALUE: tcp_input:inp <- $r4
	.loc	4 116 63                @ ../Libraries/lwip-1.4.1/src/core/tcp_in.c:116:63
	ldrh	r0, [r5, #8]
.Ltmp7:
	.loc	4 116 9                 @ ../Libraries/lwip-1.4.1/src/core/tcp_in.c:116:9
	cmp	r0, #20
	blo	.LBB0_6
.Ltmp8:
@ %bb.2:
	@DEBUG_VALUE: tcp_input:p <- $r5
	@DEBUG_VALUE: tcp_input:inp <- $r4
	.loc	4 125 9 is_stmt 1       @ ../Libraries/lwip-1.4.1/src/core/tcp_in.c:125:9
	movw	r6, :lower16:current_iphdr_dest
	mov	r1, r4
	movt	r6, :upper16:current_iphdr_dest
	ldr	r0, [r6]
	bl	ip4_addr_isbroadcast
	.loc	4 125 55 is_stmt 0      @ ../Libraries/lwip-1.4.1/src/core/tcp_in.c:125:55
	cbnz	r0, .LBB0_6
.Ltmp9:
@ %bb.3:
	@DEBUG_VALUE: tcp_input:p <- $r5
	@DEBUG_VALUE: tcp_input:inp <- $r4
	.loc	4 126 13 is_stmt 1      @ ../Libraries/lwip-1.4.1/src/core/tcp_in.c:126:13
	ldr	r0, [r6]
	and	r0, r0, #240
.Ltmp10:
	.loc	4 125 9                 @ ../Libraries/lwip-1.4.1/src/core/tcp_in.c:125:9
	cmp	r0, #224
	beq	.LBB0_6
.Ltmp11:
@ %bb.4:
	@DEBUG_VALUE: tcp_input:p <- $r5
	@DEBUG_VALUE: tcp_input:inp <- $r4
	.loc	4 135 45                @ ../Libraries/lwip-1.4.1/src/core/tcp_in.c:135:45
	ldrh	r0, [r5, #8]
	.loc	4 134 9                 @ ../Libraries/lwip-1.4.1/src/core/tcp_in.c:134:9
	movw	r1, :lower16:current_iphdr_src
	movw	r2, :lower16:current_iphdr_dest
	movs	r3, #6
	movt	r1, :upper16:current_iphdr_src
	movt	r2, :upper16:current_iphdr_dest
	str	r0, [sp]
	mov	r0, r5
	bl	inet_chksum_pseudo
.Ltmp12:
	.loc	4 134 9 is_stmt 0       @ ../Libraries/lwip-1.4.1/src/core/tcp_in.c:134:9
	cbnz	r0, .LBB0_6
.Ltmp13:
@ %bb.5:
	@DEBUG_VALUE: tcp_input:p <- $r5
	@DEBUG_VALUE: tcp_input:inp <- $r4
	.loc	4 150 14 is_stmt 1      @ ../Libraries/lwip-1.4.1/src/core/tcp_in.c:150:14
	ldr.w	r0, [r8]
	ldrh	r0, [r0, #12]
	bl	lwip_ntohs
	movs	r1, #60
	and.w	r0, r1, r0, lsr #10
.Ltmp14:
	.loc	4 151 24                @ ../Libraries/lwip-1.4.1/src/core/tcp_in.c:151:24
	rsbs	r1, r0, #0
	.loc	4 151 9 is_stmt 0       @ ../Libraries/lwip-1.4.1/src/core/tcp_in.c:151:9
	mov	r0, r5
	bl	pbuf_header
.Ltmp15:
	.loc	4 151 9                 @ ../Libraries/lwip-1.4.1/src/core/tcp_in.c:151:9
	cbz	r0, .LBB0_7
.Ltmp16:
.LBB0_6:
	@DEBUG_VALUE: tcp_input:p <- $r5
	.loc	4 0 0                   @ ../Libraries/lwip-1.4.1/src/core/tcp_in.c:0:0
	mov	r0, r5
	add	sp, #12
	pop.w	{r4, r5, r6, r7, r8, r9, r10, r11, lr}
.Ltmp17:
	b	pbuf_free
.LBB0_7:
.Ltmp18:
	@DEBUG_VALUE: tcp_input:p <- $r5
	@DEBUG_VALUE: tcp_input:inp <- $r4
	.loc	4 160 19 is_stmt 1      @ ../Libraries/lwip-1.4.1/src/core/tcp_in.c:160:19
	ldr.w	r0, [r8]
	ldrh	r0, [r0]
	bl	lwip_ntohs
	.loc	4 160 5 is_stmt 0       @ ../Libraries/lwip-1.4.1/src/core/tcp_in.c:160:5
	ldr.w	r1, [r8]
	.loc	4 160 17                @ ../Libraries/lwip-1.4.1/src/core/tcp_in.c:160:17
	strh	r0, [r1]
	.loc	4 161 20 is_stmt 1      @ ../Libraries/lwip-1.4.1/src/core/tcp_in.c:161:20
	ldrh	r0, [r1, #2]
	bl	lwip_ntohs
	.loc	4 161 5 is_stmt 0       @ ../Libraries/lwip-1.4.1/src/core/tcp_in.c:161:5
	ldr.w	r1, [r8]
	.loc	4 161 18                @ ../Libraries/lwip-1.4.1/src/core/tcp_in.c:161:18
	strh	r0, [r1, #2]
	.loc	4 162 29 is_stmt 1      @ ../Libraries/lwip-1.4.1/src/core/tcp_in.c:162:29
	ldr	r0, [r1, #4]
	bl	lwip_ntohl
	.loc	4 162 13 is_stmt 0      @ ../Libraries/lwip-1.4.1/src/core/tcp_in.c:162:13
	ldr.w	r1, [r8]
	.loc	4 162 11                @ ../Libraries/lwip-1.4.1/src/core/tcp_in.c:162:11
	movw	r2, :lower16:seqno
	movt	r2, :upper16:seqno
	.loc	4 162 27                @ ../Libraries/lwip-1.4.1/src/core/tcp_in.c:162:27
	str	r0, [r1, #4]
	.loc	4 162 11                @ ../Libraries/lwip-1.4.1/src/core/tcp_in.c:162:11
	str	r0, [r2]
	.loc	4 163 29 is_stmt 1      @ ../Libraries/lwip-1.4.1/src/core/tcp_in.c:163:29
	ldr	r0, [r1, #8]
	bl	lwip_ntohl
	.loc	4 163 13 is_stmt 0      @ ../Libraries/lwip-1.4.1/src/core/tcp_in.c:163:13
	ldr.w	r1, [r8]
	.loc	4 163 11                @ ../Libraries/lwip-1.4.1/src/core/tcp_in.c:163:11
	movw	r2, :lower16:ackno
	movt	r2, :upper16:ackno
	.loc	4 163 27                @ ../Libraries/lwip-1.4.1/src/core/tcp_in.c:163:27
	str	r0, [r1, #8]
	.loc	4 163 11                @ ../Libraries/lwip-1.4.1/src/core/tcp_in.c:163:11
	str	r0, [r2]
	.loc	4 164 19 is_stmt 1      @ ../Libraries/lwip-1.4.1/src/core/tcp_in.c:164:19
	ldrh	r0, [r1, #14]
	bl	lwip_ntohs
	.loc	4 164 5 is_stmt 0       @ ../Libraries/lwip-1.4.1/src/core/tcp_in.c:164:5
	ldr.w	r1, [r8]
	.loc	4 164 17                @ ../Libraries/lwip-1.4.1/src/core/tcp_in.c:164:17
	strh	r0, [r1, #14]
	.loc	4 166 13 is_stmt 1      @ ../Libraries/lwip-1.4.1/src/core/tcp_in.c:166:13
	ldrh	r0, [r1, #12]
	bl	lwip_ntohs
	.loc	4 166 11 is_stmt 0      @ ../Libraries/lwip-1.4.1/src/core/tcp_in.c:166:11
	movw	r1, :lower16:flags
	.loc	4 166 13                @ ../Libraries/lwip-1.4.1/src/core/tcp_in.c:166:13
	and	r12, r0, #63
	.loc	4 166 11                @ ../Libraries/lwip-1.4.1/src/core/tcp_in.c:166:11
	movt	r1, :upper16:flags
	strb.w	r12, [r1]
	.loc	4 167 25 is_stmt 1      @ ../Libraries/lwip-1.4.1/src/core/tcp_in.c:167:25
	lsls	r1, r0, #30
	.loc	4 167 17 is_stmt 0      @ ../Libraries/lwip-1.4.1/src/core/tcp_in.c:167:17
	ldrh	r3, [r5, #8]
	.loc	4 167 12                @ ../Libraries/lwip-1.4.1/src/core/tcp_in.c:167:12
	movw	r1, :lower16:tcplen
	movt	r1, :upper16:tcplen
	.loc	4 167 25                @ ../Libraries/lwip-1.4.1/src/core/tcp_in.c:167:25
	mov	lr, r3
	it	ne
	addne.w	lr, lr, #1
	.loc	4 167 12                @ ../Libraries/lwip-1.4.1/src/core/tcp_in.c:167:12
	strh.w	lr, [r1]
.Ltmp19:
	@DEBUG_VALUE: tcp_input:prev <- 0
	.loc	4 0 0                   @ ../Libraries/lwip-1.4.1/src/core/tcp_in.c:0:0
	movw	r1, :lower16:tcp_active_pcbs
	movt	r1, :upper16:tcp_active_pcbs
.Ltmp20:
	@DEBUG_VALUE: tcp_input:pcb <- [DW_OP_deref] undef
	@DEBUG_VALUE: tcp_input:pcb <- [DW_OP_deref] $r1
	ldr	r1, [r1]
.Ltmp21:
	@DEBUG_VALUE: tcp_input:pcb <- $r1
	.loc	4 174 5 is_stmt 1       @ ../Libraries/lwip-1.4.1/src/core/tcp_in.c:174:5
	cbz	r1, .LBB0_14
.Ltmp22:
@ %bb.8:
	@DEBUG_VALUE: tcp_input:pcb <- [DW_OP_deref] $r1
	@DEBUG_VALUE: tcp_input:p <- $r5
	@DEBUG_VALUE: tcp_input:inp <- $r4
	.loc	4 0 5 is_stmt 0         @ ../Libraries/lwip-1.4.1/src/core/tcp_in.c:0:5
	uxtb	r0, r0
	movs	r4, #0
.Ltmp23:
	mov	r6, r1
	str	r0, [sp, #8]            @ 4-byte Spill
	movw	r0, :lower16:current_iphdr_dest
	movt	r0, :upper16:current_iphdr_dest
	ldr.w	r10, [r0]
	movw	r0, :lower16:current_iphdr_src
	movt	r0, :upper16:current_iphdr_src
	ldr.w	r9, [r0]
	ldr.w	r0, [r8]
	ldrh.w	r11, [r0]
.Ltmp24:
.LBB0_9:                                @ =>This Inner Loop Header: Depth=1
	@DEBUG_VALUE: tcp_input:pcb <- [DW_OP_deref] $r1
	@DEBUG_VALUE: tcp_input:p <- $r5
	mov	r7, r4
	mov	r4, r6
.Ltmp25:
	@DEBUG_VALUE: tcp_process:pcb <- $r4
	@DEBUG_VALUE: tcp_input:pcb <- $r4
	@DEBUG_VALUE: tcp_input:prev <- $r7
	.loc	4 179 18 is_stmt 1      @ ../Libraries/lwip-1.4.1/src/core/tcp_in.c:179:18
	ldrh	r6, [r6, #28]
	.loc	4 179 45 is_stmt 0      @ ../Libraries/lwip-1.4.1/src/core/tcp_in.c:179:45
	cmp	r6, r11
	bne	.LBB0_13
.Ltmp26:
@ %bb.10:                               @   in Loop: Header=BB0_9 Depth=1
	@DEBUG_VALUE: tcp_input:prev <- $r7
	@DEBUG_VALUE: tcp_input:pcb <- $r4
	@DEBUG_VALUE: tcp_input:p <- $r5
	.loc	4 180 44 is_stmt 1      @ ../Libraries/lwip-1.4.1/src/core/tcp_in.c:180:44
	ldrh	r6, [r0, #2]
	.loc	4 180 22 is_stmt 0      @ ../Libraries/lwip-1.4.1/src/core/tcp_in.c:180:22
	ldrh	r2, [r4, #26]
	.loc	4 180 49                @ ../Libraries/lwip-1.4.1/src/core/tcp_in.c:180:49
	cmp	r2, r6
	bne	.LBB0_13
.Ltmp27:
@ %bb.11:                               @   in Loop: Header=BB0_9 Depth=1
	@DEBUG_VALUE: tcp_input:prev <- $r7
	@DEBUG_VALUE: tcp_input:pcb <- $r4
	@DEBUG_VALUE: tcp_input:p <- $r5
	.loc	4 181 17 is_stmt 1      @ ../Libraries/lwip-1.4.1/src/core/tcp_in.c:181:17
	ldr	r2, [r4, #4]
	.loc	4 181 68 is_stmt 0      @ ../Libraries/lwip-1.4.1/src/core/tcp_in.c:181:68
	cmp	r2, r9
	bne	.LBB0_13
.Ltmp28:
@ %bb.12:                               @   in Loop: Header=BB0_9 Depth=1
	@DEBUG_VALUE: tcp_input:prev <- $r7
	@DEBUG_VALUE: tcp_input:pcb <- $r4
	@DEBUG_VALUE: tcp_input:p <- $r5
	.loc	4 182 17 is_stmt 1      @ ../Libraries/lwip-1.4.1/src/core/tcp_in.c:182:17
	ldr	r2, [r4]
.Ltmp29:
	.loc	4 179 13                @ ../Libraries/lwip-1.4.1/src/core/tcp_in.c:179:13
	cmp	r2, r10
	beq.w	.LBB0_38
.Ltmp30:
.LBB0_13:                               @   in Loop: Header=BB0_9 Depth=1
	@DEBUG_VALUE: tcp_input:prev <- $r7
	@DEBUG_VALUE: tcp_input:pcb <- $r4
	@DEBUG_VALUE: tcp_input:p <- $r5
	@DEBUG_VALUE: tcp_input:pcb <- [DW_OP_plus_uconst 12, DW_OP_deref, DW_OP_stack_value] $r4
	.loc	4 0 0 is_stmt 0         @ ../Libraries/lwip-1.4.1/src/core/tcp_in.c:0:0
	ldr	r6, [r4, #12]
.Ltmp31:
	@DEBUG_VALUE: tcp_input:pcb <- $r6
	.loc	4 174 5 is_stmt 1       @ ../Libraries/lwip-1.4.1/src/core/tcp_in.c:174:5
	cmp	r6, #0
	bne	.LBB0_9
.Ltmp32:
.LBB0_14:
	@DEBUG_VALUE: tcp_input:p <- $r5
	.loc	4 0 0 is_stmt 0         @ ../Libraries/lwip-1.4.1/src/core/tcp_in.c:0:0
	movw	r0, :lower16:tcp_tw_pcbs
	movw	r10, :lower16:current_iphdr_src
	movw	r11, :lower16:current_iphdr_dest
	movt	r0, :upper16:tcp_tw_pcbs
	movt	r10, :upper16:current_iphdr_src
	movt	r11, :upper16:current_iphdr_dest
	ldr	r0, [r0]
.Ltmp33:
	@DEBUG_VALUE: tcp_input:pcb <- $r0
	.loc	4 205 9 is_stmt 1       @ ../Libraries/lwip-1.4.1/src/core/tcp_in.c:205:9
	cbz	r0, .LBB0_21
.Ltmp34:
@ %bb.15:
	@DEBUG_VALUE: tcp_input:pcb <- $r0
	@DEBUG_VALUE: tcp_input:p <- $r5
	.loc	4 0 9 is_stmt 0         @ ../Libraries/lwip-1.4.1/src/core/tcp_in.c:0:9
	ldr.w	r7, [r8]
	ldr.w	r4, [r11]
	ldr.w	r2, [r10]
	ldrh	r3, [r7]
.Ltmp35:
.LBB0_16:                               @ =>This Inner Loop Header: Depth=1
	@DEBUG_VALUE: tcp_input:pcb <- $r0
	@DEBUG_VALUE: tcp_input:p <- $r5
	@DEBUG_VALUE: tcp_timewait_input:pcb <- $r0
	.loc	4 208 22 is_stmt 1      @ ../Libraries/lwip-1.4.1/src/core/tcp_in.c:208:22
	ldrh	r1, [r0, #28]
	.loc	4 208 49 is_stmt 0      @ ../Libraries/lwip-1.4.1/src/core/tcp_in.c:208:49
	cmp	r1, r3
	bne	.LBB0_20
.Ltmp36:
@ %bb.17:                               @   in Loop: Header=BB0_16 Depth=1
	@DEBUG_VALUE: tcp_input:pcb <- $r0
	@DEBUG_VALUE: tcp_input:p <- $r5
	.loc	4 209 26 is_stmt 1      @ ../Libraries/lwip-1.4.1/src/core/tcp_in.c:209:26
	ldrh	r1, [r0, #26]
	.loc	4 209 48 is_stmt 0      @ ../Libraries/lwip-1.4.1/src/core/tcp_in.c:209:48
	ldrh	r6, [r7, #2]
	.loc	4 209 53                @ ../Libraries/lwip-1.4.1/src/core/tcp_in.c:209:53
	cmp	r1, r6
	bne	.LBB0_20
.Ltmp37:
@ %bb.18:                               @   in Loop: Header=BB0_16 Depth=1
	@DEBUG_VALUE: tcp_input:pcb <- $r0
	@DEBUG_VALUE: tcp_input:p <- $r5
	.loc	4 210 21 is_stmt 1      @ ../Libraries/lwip-1.4.1/src/core/tcp_in.c:210:21
	ldr	r6, [r0, #4]
	.loc	4 210 72 is_stmt 0      @ ../Libraries/lwip-1.4.1/src/core/tcp_in.c:210:72
	cmp	r6, r2
	bne	.LBB0_20
.Ltmp38:
@ %bb.19:                               @   in Loop: Header=BB0_16 Depth=1
	@DEBUG_VALUE: tcp_input:pcb <- $r0
	@DEBUG_VALUE: tcp_input:p <- $r5
	.loc	4 211 21 is_stmt 1      @ ../Libraries/lwip-1.4.1/src/core/tcp_in.c:211:21
	ldr	r6, [r0]
.Ltmp39:
	.loc	4 208 17                @ ../Libraries/lwip-1.4.1/src/core/tcp_in.c:208:17
	cmp	r6, r4
	beq.w	.LBB0_56
.Ltmp40:
.LBB0_20:                               @   in Loop: Header=BB0_16 Depth=1
	@DEBUG_VALUE: tcp_input:pcb <- $r0
	@DEBUG_VALUE: tcp_input:p <- $r5
	@DEBUG_VALUE: tcp_input:pcb <- [DW_OP_plus_uconst 12, DW_OP_deref, DW_OP_stack_value] $r0
	.loc	4 0 0 is_stmt 0         @ ../Libraries/lwip-1.4.1/src/core/tcp_in.c:0:0
	ldr	r0, [r0, #12]
.Ltmp41:
	@DEBUG_VALUE: tcp_input:pcb <- $r0
	.loc	4 205 9 is_stmt 1       @ ../Libraries/lwip-1.4.1/src/core/tcp_in.c:205:9
	cmp	r0, #0
	bne	.LBB0_16
.Ltmp42:
.LBB0_21:
	@DEBUG_VALUE: tcp_input:pcb <- $r0
	@DEBUG_VALUE: tcp_input:p <- $r5
	@DEBUG_VALUE: tcp_input:prev <- 0
	.loc	4 0 0 is_stmt 0         @ ../Libraries/lwip-1.4.1/src/core/tcp_in.c:0:0
	movw	r9, :lower16:tcp_listen_pcbs
	ldr.w	r3, [r8]
	movt	r9, :upper16:tcp_listen_pcbs
	ldr.w	r1, [r9]
.Ltmp43:
	@DEBUG_VALUE: tcp_input:lpcb <- $r1
	.loc	4 226 9 is_stmt 1       @ ../Libraries/lwip-1.4.1/src/core/tcp_in.c:226:9
	cbz	r1, .LBB0_27
.Ltmp44:
@ %bb.22:
	@DEBUG_VALUE: tcp_input:lpcb <- $r1
	@DEBUG_VALUE: tcp_input:pcb <- $r0
	@DEBUG_VALUE: tcp_input:p <- $r5
	.loc	4 0 9 is_stmt 0         @ ../Libraries/lwip-1.4.1/src/core/tcp_in.c:0:9
	ldr.w	r2, [r11]
	ldrh	r0, [r3, #2]
.Ltmp45:
	movs	r4, #0
	mov	r7, r1
.Ltmp46:
.LBB0_23:                               @ =>This Inner Loop Header: Depth=1
	@DEBUG_VALUE: tcp_input:lpcb <- $r1
	@DEBUG_VALUE: tcp_input:p <- $r5
	mov	r6, r7
.Ltmp47:
	@DEBUG_VALUE: tcp_listen_input:pcb <- $r6
	@DEBUG_VALUE: tcp_input:prev <- $r4
	.loc	4 228 23 is_stmt 1      @ ../Libraries/lwip-1.4.1/src/core/tcp_in.c:228:23
	ldrh	r7, [r7, #26]
.Ltmp48:
	.loc	4 228 17 is_stmt 0      @ ../Libraries/lwip-1.4.1/src/core/tcp_in.c:228:17
	cmp	r7, r0
	bne	.LBB0_26
.Ltmp49:
@ %bb.24:                               @   in Loop: Header=BB0_23 Depth=1
	@DEBUG_VALUE: tcp_input:prev <- $r4
	@DEBUG_VALUE: tcp_input:lpcb <- $r1
	@DEBUG_VALUE: tcp_input:p <- $r5
	.loc	4 243 21 is_stmt 1      @ ../Libraries/lwip-1.4.1/src/core/tcp_in.c:243:21
	ldr	r7, [r6]
	cbz	r7, .LBB0_30
.Ltmp50:
@ %bb.25:                               @   in Loop: Header=BB0_23 Depth=1
	@DEBUG_VALUE: tcp_input:prev <- $r4
	@DEBUG_VALUE: tcp_input:lpcb <- $r1
	@DEBUG_VALUE: tcp_input:p <- $r5
	.loc	4 243 73 is_stmt 0      @ ../Libraries/lwip-1.4.1/src/core/tcp_in.c:243:73
	cmp	r7, r2
	beq	.LBB0_30
.Ltmp51:
.LBB0_26:                               @   in Loop: Header=BB0_23 Depth=1
	@DEBUG_VALUE: tcp_input:prev <- $r4
	@DEBUG_VALUE: tcp_input:lpcb <- $r1
	@DEBUG_VALUE: tcp_input:p <- $r5
	@DEBUG_VALUE: tcp_input:prev <- $r6
	@DEBUG_VALUE: tcp_input:lpcb <- [DW_OP_plus_uconst 12, DW_OP_deref, DW_OP_stack_value] $r6
	.loc	4 0 0                   @ ../Libraries/lwip-1.4.1/src/core/tcp_in.c:0:0
	ldr	r7, [r6, #12]
.Ltmp52:
	@DEBUG_VALUE: tcp_input:lpcb <- $r7
	mov	r4, r6
.Ltmp53:
	@DEBUG_VALUE: tcp_input:prev <- $r4
	@DEBUG_VALUE: tcp_input:lpcb <- [DW_OP_plus_uconst 12, DW_OP_deref, DW_OP_stack_value] $r4
	@DEBUG_VALUE: tcp_input:prev <- $r4
	.loc	4 226 9 is_stmt 1       @ ../Libraries/lwip-1.4.1/src/core/tcp_in.c:226:9
	cmp	r7, #0
	bne	.LBB0_23
.Ltmp54:
.LBB0_27:
	@DEBUG_VALUE: tcp_input:p <- $r5
	@DEBUG_VALUE: tcp_input:pcb <- undef
	.loc	4 452 15                @ ../Libraries/lwip-1.4.1/src/core/tcp_in.c:452:15
	ldrh	r0, [r3, #12]
	bl	lwip_ntohs
.Ltmp55:
	.loc	4 452 13 is_stmt 0      @ ../Libraries/lwip-1.4.1/src/core/tcp_in.c:452:13
	lsls	r0, r0, #29
	bmi.w	.LBB0_6
.Ltmp56:
@ %bb.28:
	@DEBUG_VALUE: tcp_input:p <- $r5
	.loc	4 456 36 is_stmt 1      @ ../Libraries/lwip-1.4.1/src/core/tcp_in.c:456:36
	movw	r1, :lower16:tcplen
	.loc	4 456 28 is_stmt 0      @ ../Libraries/lwip-1.4.1/src/core/tcp_in.c:456:28
	movw	r2, :lower16:seqno
	.loc	4 456 21                @ ../Libraries/lwip-1.4.1/src/core/tcp_in.c:456:21
	movw	r0, :lower16:ackno
	.loc	4 458 21 is_stmt 1      @ ../Libraries/lwip-1.4.1/src/core/tcp_in.c:458:21
	ldr.w	r3, [r8]
	.loc	4 456 36                @ ../Libraries/lwip-1.4.1/src/core/tcp_in.c:456:36
	movt	r1, :upper16:tcplen
	.loc	4 456 28 is_stmt 0      @ ../Libraries/lwip-1.4.1/src/core/tcp_in.c:456:28
	movt	r2, :upper16:seqno
	.loc	4 456 21                @ ../Libraries/lwip-1.4.1/src/core/tcp_in.c:456:21
	movt	r0, :upper16:ackno
	.loc	4 456 36                @ ../Libraries/lwip-1.4.1/src/core/tcp_in.c:456:36
	ldrh	r1, [r1]
	.loc	4 456 28                @ ../Libraries/lwip-1.4.1/src/core/tcp_in.c:456:28
	ldr	r2, [r2]
	.loc	4 458 29 is_stmt 1      @ ../Libraries/lwip-1.4.1/src/core/tcp_in.c:458:29
	ldrh	r7, [r3, #2]
	.loc	4 456 21                @ ../Libraries/lwip-1.4.1/src/core/tcp_in.c:456:21
	ldr	r0, [r0]
	.loc	4 458 43                @ ../Libraries/lwip-1.4.1/src/core/tcp_in.c:458:43
	ldrh	r3, [r3]
	.loc	4 456 34                @ ../Libraries/lwip-1.4.1/src/core/tcp_in.c:456:34
	add	r1, r2
	.loc	4 456 13 is_stmt 0      @ ../Libraries/lwip-1.4.1/src/core/tcp_in.c:456:13
	strd	r7, r3, [sp]
.Ltmp57:
.LBB0_29:
	@DEBUG_VALUE: tcp_input:p <- $r5
	.loc	4 0 0                   @ ../Libraries/lwip-1.4.1/src/core/tcp_in.c:0:0
	movw	r2, :lower16:current_iphdr_dest
	movw	r3, :lower16:current_iphdr_src
	movt	r2, :upper16:current_iphdr_dest
	movt	r3, :upper16:current_iphdr_src
	bl	tcp_rst
	b	.LBB0_6
.Ltmp58:
.LBB0_30:
	@DEBUG_VALUE: tcp_input:prev <- $r4
	@DEBUG_VALUE: tcp_input:lpcb <- $r1
	@DEBUG_VALUE: tcp_input:p <- $r5
	.loc	4 267 17 is_stmt 1      @ ../Libraries/lwip-1.4.1/src/core/tcp_in.c:267:17
	cbz	r4, .LBB0_32
.Ltmp59:
@ %bb.31:
	@DEBUG_VALUE: tcp_input:prev <- $r4
	@DEBUG_VALUE: tcp_input:lpcb <- $r1
	@DEBUG_VALUE: tcp_input:p <- $r5
	.loc	4 269 64                @ ../Libraries/lwip-1.4.1/src/core/tcp_in.c:269:64
	ldr	r0, [r6, #12]
	.loc	4 269 56 is_stmt 0      @ ../Libraries/lwip-1.4.1/src/core/tcp_in.c:269:56
	str	r0, [r4, #12]
	.loc	4 271 28 is_stmt 1      @ ../Libraries/lwip-1.4.1/src/core/tcp_in.c:271:28
	str	r1, [r6, #12]
	.loc	4 273 45                @ ../Libraries/lwip-1.4.1/src/core/tcp_in.c:273:45
	str.w	r6, [r9]
.Ltmp60:
.LBB0_32:
	@DEBUG_VALUE: tcp_input:prev <- $r4
	@DEBUG_VALUE: tcp_input:lpcb <- $r1
	@DEBUG_VALUE: tcp_input:p <- $r5
	.loc	4 490 9                 @ ../Libraries/lwip-1.4.1/src/core/tcp_in.c:490:9
	lsls.w	r0, r12, #29
	bmi.w	.LBB0_6
.Ltmp61:
@ %bb.33:
	@DEBUG_VALUE: tcp_input:prev <- $r4
	@DEBUG_VALUE: tcp_input:lpcb <- $r1
	@DEBUG_VALUE: tcp_input:p <- $r5
	.loc	4 498 9                 @ ../Libraries/lwip-1.4.1/src/core/tcp_in.c:498:9
	lsls.w	r0, r12, #27
	bmi.w	.LBB0_60
.Ltmp62:
@ %bb.34:
	@DEBUG_VALUE: tcp_input:prev <- $r4
	@DEBUG_VALUE: tcp_input:lpcb <- $r1
	@DEBUG_VALUE: tcp_input:p <- $r5
	.loc	4 506 14                @ ../Libraries/lwip-1.4.1/src/core/tcp_in.c:506:14
	lsls.w	r0, r12, #30
	bpl.w	.LBB0_6
.Ltmp63:
@ %bb.35:
	@DEBUG_VALUE: tcp_input:prev <- $r4
	@DEBUG_VALUE: tcp_input:lpcb <- $r1
	@DEBUG_VALUE: tcp_input:p <- $r5
	.loc	4 516 31                @ ../Libraries/lwip-1.4.1/src/core/tcp_in.c:516:31
	ldrb	r0, [r6, #25]
	.loc	4 516 16 is_stmt 0      @ ../Libraries/lwip-1.4.1/src/core/tcp_in.c:516:16
	bl	tcp_alloc
.Ltmp64:
	.loc	4 520 13 is_stmt 1      @ ../Libraries/lwip-1.4.1/src/core/tcp_in.c:520:13
	cmp	r0, #0
	beq.w	.LBB0_6
.Ltmp65:
@ %bb.36:
	@DEBUG_VALUE: tcp_input:prev <- $r4
	@DEBUG_VALUE: tcp_input:p <- $r5
	.loc	4 0 0 is_stmt 0         @ ../Libraries/lwip-1.4.1/src/core/tcp_in.c:0:0
	mov	r9, r0
.Ltmp66:
	@DEBUG_VALUE: tcp_listen_input:npcb <- $r9
	.loc	4 530 9 is_stmt 1       @ ../Libraries/lwip-1.4.1/src/core/tcp_in.c:530:9
	ldr.w	r0, [r11]
	movs	r2, #3
	.loc	4 532 9                 @ ../Libraries/lwip-1.4.1/src/core/tcp_in.c:532:9
	mov	r4, r9
.Ltmp67:
	.loc	4 530 9                 @ ../Libraries/lwip-1.4.1/src/core/tcp_in.c:530:9
	str.w	r0, [r9]
	.loc	4 531 33                @ ../Libraries/lwip-1.4.1/src/core/tcp_in.c:531:33
	ldrh	r0, [r6, #26]
	.loc	4 531 26 is_stmt 0      @ ../Libraries/lwip-1.4.1/src/core/tcp_in.c:531:26
	strh.w	r0, [r9, #26]
	.loc	4 532 9 is_stmt 1       @ ../Libraries/lwip-1.4.1/src/core/tcp_in.c:532:9
	ldr.w	r0, [r10]
	str	r0, [r4, #4]!
	.loc	4 533 29                @ ../Libraries/lwip-1.4.1/src/core/tcp_in.c:533:29
	ldr.w	r0, [r8]
	.loc	4 533 37 is_stmt 0      @ ../Libraries/lwip-1.4.1/src/core/tcp_in.c:533:37
	ldrh	r1, [r0]
	.loc	4 534 21 is_stmt 1      @ ../Libraries/lwip-1.4.1/src/core/tcp_in.c:534:21
	strb.w	r2, [r9, #24]
	.loc	4 533 27                @ ../Libraries/lwip-1.4.1/src/core/tcp_in.c:533:27
	strh.w	r1, [r9, #28]
	.loc	4 535 25                @ ../Libraries/lwip-1.4.1/src/core/tcp_in.c:535:25
	movw	r1, :lower16:seqno
	movt	r1, :upper16:seqno
	ldr	r1, [r1]
	.loc	4 535 31 is_stmt 0      @ ../Libraries/lwip-1.4.1/src/core/tcp_in.c:535:31
	adds	r2, r1, #1
	.loc	4 540 31 is_stmt 1      @ ../Libraries/lwip-1.4.1/src/core/tcp_in.c:540:31
	subs	r1, #1
	.loc	4 536 34                @ ../Libraries/lwip-1.4.1/src/core/tcp_in.c:536:34
	str.w	r2, [r9, #48]
	.loc	4 535 23                @ ../Libraries/lwip-1.4.1/src/core/tcp_in.c:535:23
	str.w	r2, [r9, #40]
	.loc	4 537 33                @ ../Libraries/lwip-1.4.1/src/core/tcp_in.c:537:33
	ldrh	r0, [r0, #14]
	.loc	4 540 23                @ ../Libraries/lwip-1.4.1/src/core/tcp_in.c:540:23
	str.w	r1, [r9, #84]
	.loc	4 538 27                @ ../Libraries/lwip-1.4.1/src/core/tcp_in.c:538:27
	strh.w	r0, [r9, #98]
	.loc	4 537 23                @ ../Libraries/lwip-1.4.1/src/core/tcp_in.c:537:23
	strh.w	r0, [r9, #96]
	.loc	4 539 24                @ ../Libraries/lwip-1.4.1/src/core/tcp_in.c:539:24
	strh.w	r0, [r9, #78]
	.loc	4 541 35                @ ../Libraries/lwip-1.4.1/src/core/tcp_in.c:541:35
	ldr	r0, [r6, #16]
	.loc	4 541 28 is_stmt 0      @ ../Libraries/lwip-1.4.1/src/core/tcp_in.c:541:28
	str.w	r0, [r9, #16]
	.loc	4 543 29 is_stmt 1      @ ../Libraries/lwip-1.4.1/src/core/tcp_in.c:543:29
	ldr	r0, [r6, #20]
	.loc	4 543 22 is_stmt 0      @ ../Libraries/lwip-1.4.1/src/core/tcp_in.c:543:22
	str.w	r0, [r9, #20]
	.loc	4 546 33 is_stmt 1      @ ../Libraries/lwip-1.4.1/src/core/tcp_in.c:546:33
	ldrb	r0, [r6, #8]
	.loc	4 546 44 is_stmt 0      @ ../Libraries/lwip-1.4.1/src/core/tcp_in.c:546:44
	and	r0, r0, #140
	.loc	4 546 26                @ ../Libraries/lwip-1.4.1/src/core/tcp_in.c:546:26
	strb.w	r0, [r9, #8]
	movw	r0, :lower16:tcp_active_pcbs
	movt	r0, :upper16:tcp_active_pcbs
	mov	r1, r0
.Ltmp68:
	.loc	4 549 9 is_stmt 1       @ ../Libraries/lwip-1.4.1/src/core/tcp_in.c:549:9
	ldr	r0, [r0]
	str.w	r0, [r9, #12]
	str.w	r9, [r1]
	bl	tcp_timer_needed
.Ltmp69:
	.loc	4 549 9 is_stmt 0       @ ../Libraries/lwip-1.4.1/src/core/tcp_in.c:549:9
	movw	r0, :lower16:tcp_active_pcbs_changed
	movs	r1, #1
	movt	r0, :upper16:tcp_active_pcbs_changed
	strb	r1, [r0]
.Ltmp70:
	.loc	4 552 9 is_stmt 1       @ ../Libraries/lwip-1.4.1/src/core/tcp_in.c:552:9
	mov	r0, r9
	bl	tcp_parseopt
	.loc	4 554 44                @ ../Libraries/lwip-1.4.1/src/core/tcp_in.c:554:44
	ldrh.w	r0, [r9, #54]
	.loc	4 554 21 is_stmt 0      @ ../Libraries/lwip-1.4.1/src/core/tcp_in.c:554:21
	mov	r1, r4
	bl	tcp_eff_send_mss
	.loc	4 554 19                @ ../Libraries/lwip-1.4.1/src/core/tcp_in.c:554:19
	strh.w	r0, [r9, #54]
	.loc	4 560 14 is_stmt 1      @ ../Libraries/lwip-1.4.1/src/core/tcp_in.c:560:14
	mov	r0, r9
	movs	r1, #18
	bl	tcp_enqueue_flags
.Ltmp71:
	@DEBUG_VALUE: tcp_listen_input:rc <- $r0
	.loc	4 561 13                @ ../Libraries/lwip-1.4.1/src/core/tcp_in.c:561:13
	cmp	r0, #0
	beq.w	.LBB0_70
.Ltmp72:
@ %bb.37:
	@DEBUG_VALUE: tcp_listen_input:rc <- $r0
	@DEBUG_VALUE: tcp_listen_input:npcb <- $r9
	@DEBUG_VALUE: tcp_input:p <- $r5
	.loc	4 563 13                @ ../Libraries/lwip-1.4.1/src/core/tcp_in.c:563:13
	mov	r0, r9
.Ltmp73:
	movs	r1, #0
	bl	tcp_abandon
	b	.LBB0_6
.Ltmp74:
.LBB0_38:
	@DEBUG_VALUE: tcp_input:prev <- $r7
	@DEBUG_VALUE: tcp_input:pcb <- $r4
	@DEBUG_VALUE: tcp_input:p <- $r5
	.loc	4 0 13 is_stmt 0        @ ../Libraries/lwip-1.4.1/src/core/tcp_in.c:0:13
	cbz	r7, .LBB0_40
.Ltmp75:
@ %bb.39:
	@DEBUG_VALUE: tcp_input:prev <- $r7
	@DEBUG_VALUE: tcp_input:pcb <- $r4
	@DEBUG_VALUE: tcp_input:p <- $r5
	.loc	4 188 13 is_stmt 1      @ ../Libraries/lwip-1.4.1/src/core/tcp_in.c:188:13
	ldr	r2, [r4, #12]
.Ltmp76:
	.loc	4 191 28                @ ../Libraries/lwip-1.4.1/src/core/tcp_in.c:191:28
	str	r2, [r7, #12]
	.loc	4 192 27                @ ../Libraries/lwip-1.4.1/src/core/tcp_in.c:192:27
	str	r1, [r4, #12]
	.loc	4 193 33                @ ../Libraries/lwip-1.4.1/src/core/tcp_in.c:193:33
	movw	r1, :lower16:tcp_active_pcbs
	movt	r1, :upper16:tcp_active_pcbs
	str	r4, [r1]
.Ltmp77:
.LBB0_40:
	@DEBUG_VALUE: tcp_input:prev <- $r7
	@DEBUG_VALUE: tcp_input:pcb <- $r4
	@DEBUG_VALUE: tcp_input:p <- $r5
	.loc	4 300 20                @ ../Libraries/lwip-1.4.1/src/core/tcp_in.c:300:20
	movw	r7, :lower16:inseg
.Ltmp78:
	.loc	4 0 20 is_stmt 0        @ ../Libraries/lwip-1.4.1/src/core/tcp_in.c:0:20
	movs	r1, #0
	.loc	4 305 19 is_stmt 1      @ ../Libraries/lwip-1.4.1/src/core/tcp_in.c:305:19
	movw	r10, :lower16:recv_data
	.loc	4 306 20                @ ../Libraries/lwip-1.4.1/src/core/tcp_in.c:306:20
	movw	r6, :lower16:recv_flags
	.loc	4 300 20                @ ../Libraries/lwip-1.4.1/src/core/tcp_in.c:300:20
	movt	r7, :upper16:inseg
	.loc	4 305 19                @ ../Libraries/lwip-1.4.1/src/core/tcp_in.c:305:19
	movt	r10, :upper16:recv_data
	.loc	4 306 20                @ ../Libraries/lwip-1.4.1/src/core/tcp_in.c:306:20
	movt	r6, :upper16:recv_flags
	.loc	4 301 19                @ ../Libraries/lwip-1.4.1/src/core/tcp_in.c:301:19
	strh	r3, [r7, #8]
	.loc	4 303 22                @ ../Libraries/lwip-1.4.1/src/core/tcp_in.c:303:22
	str	r0, [r7, #16]
	.loc	4 300 20                @ ../Libraries/lwip-1.4.1/src/core/tcp_in.c:300:20
	strd	r1, r5, [r7]
	.loc	4 305 19                @ ../Libraries/lwip-1.4.1/src/core/tcp_in.c:305:19
	str.w	r1, [r10]
	.loc	4 306 20                @ ../Libraries/lwip-1.4.1/src/core/tcp_in.c:306:20
	strb	r1, [r6]
	.loc	4 308 13                @ ../Libraries/lwip-1.4.1/src/core/tcp_in.c:308:13
	ldr	r0, [sp, #8]            @ 4-byte Reload
	lsls	r0, r0, #28
.Ltmp79:
	.loc	4 310 22                @ ../Libraries/lwip-1.4.1/src/core/tcp_in.c:310:22
	ittt	mi
	ldrbmi	r0, [r5, #13]
	orrmi	r0, r0, #1
	strbmi	r0, [r5, #13]
.Ltmp80:
	.loc	4 314 18                @ ../Libraries/lwip-1.4.1/src/core/tcp_in.c:314:18
	ldr	r0, [r4, #120]
	cbz	r0, .LBB0_45
.Ltmp81:
@ %bb.41:
	@DEBUG_VALUE: tcp_input:pcb <- $r4
	@DEBUG_VALUE: tcp_input:p <- $r5
	.loc	4 316 18                @ ../Libraries/lwip-1.4.1/src/core/tcp_in.c:316:18
	mov	r0, r4
	bl	tcp_process_refused_data
	.loc	4 316 61 is_stmt 0      @ ../Libraries/lwip-1.4.1/src/core/tcp_in.c:316:61
	adds	r0, #10
	beq.w	.LBB0_129
.Ltmp82:
@ %bb.42:
	@DEBUG_VALUE: tcp_input:pcb <- $r4
	@DEBUG_VALUE: tcp_input:p <- $r5
	.loc	4 317 28 is_stmt 1      @ ../Libraries/lwip-1.4.1/src/core/tcp_in.c:317:28
	ldr	r0, [r4, #120]
	cbz	r0, .LBB0_44
.Ltmp83:
@ %bb.43:
	@DEBUG_VALUE: tcp_input:pcb <- $r4
	@DEBUG_VALUE: tcp_input:p <- $r5
	.loc	4 0 0 is_stmt 0         @ ../Libraries/lwip-1.4.1/src/core/tcp_in.c:0:0
	movw	r0, :lower16:tcplen
	movt	r0, :upper16:tcplen
	ldrh	r0, [r0]
	.loc	4 317 50                @ ../Libraries/lwip-1.4.1/src/core/tcp_in.c:317:50
	cmp	r0, #0
	bne.w	.LBB0_129
.Ltmp84:
.LBB0_44:
	@DEBUG_VALUE: tcp_input:pcb <- $r4
	@DEBUG_VALUE: tcp_input:p <- $r5
	.loc	4 642 9 is_stmt 1       @ ../Libraries/lwip-1.4.1/src/core/tcp_in.c:642:9
	movw	r0, :lower16:flags
	movt	r0, :upper16:flags
	ldrb.w	r12, [r0]
.Ltmp85:
.LBB0_45:
	@DEBUG_VALUE: tcp_input:pcb <- $r4
	@DEBUG_VALUE: tcp_input:p <- $r5
	.loc	4 326 23                @ ../Libraries/lwip-1.4.1/src/core/tcp_in.c:326:23
	movw	r9, :lower16:tcp_input_pcb
.Ltmp86:
	.loc	4 642 9                 @ ../Libraries/lwip-1.4.1/src/core/tcp_in.c:642:9
	lsls.w	r0, r12, #29
.Ltmp87:
	.loc	4 326 23                @ ../Libraries/lwip-1.4.1/src/core/tcp_in.c:326:23
	movt	r9, :upper16:tcp_input_pcb
	str.w	r4, [r9]
.Ltmp88:
	@DEBUG_VALUE: tcp_process:err <- 0
	@DEBUG_VALUE: tcp_process:acceptable <- 0
	.loc	4 0 23 is_stmt 0        @ ../Libraries/lwip-1.4.1/src/core/tcp_in.c:0:23
	bmi	.LBB0_61
.Ltmp89:
@ %bb.46:
	@DEBUG_VALUE: tcp_input:pcb <- $r4
	@DEBUG_VALUE: tcp_input:p <- $r5
	.loc	4 679 27 is_stmt 1      @ ../Libraries/lwip-1.4.1/src/core/tcp_in.c:679:27
	lsls.w	r0, r12, #30
	bpl	.LBB0_48
.Ltmp90:
@ %bb.47:
	@DEBUG_VALUE: tcp_input:pcb <- $r4
	@DEBUG_VALUE: tcp_input:p <- $r5
	.loc	4 679 36 is_stmt 0      @ ../Libraries/lwip-1.4.1/src/core/tcp_in.c:679:36
	ldrb	r0, [r4, #24]
	.loc	4 679 54                @ ../Libraries/lwip-1.4.1/src/core/tcp_in.c:679:54
	and	r0, r0, #254
	cmp	r0, #2
	bne.w	.LBB0_111
.Ltmp91:
.LBB0_48:
	@DEBUG_VALUE: tcp_input:pcb <- $r4
	@DEBUG_VALUE: tcp_input:p <- $r5
	.loc	4 686 15 is_stmt 1      @ ../Libraries/lwip-1.4.1/src/core/tcp_in.c:686:15
	ldrb	r0, [r4, #30]
.Ltmp92:
	.loc	4 686 9 is_stmt 0       @ ../Libraries/lwip-1.4.1/src/core/tcp_in.c:686:9
	lsls	r0, r0, #27
	bmi	.LBB0_50
.Ltmp93:
@ %bb.49:
	@DEBUG_VALUE: tcp_input:pcb <- $r4
	@DEBUG_VALUE: tcp_input:p <- $r5
	.loc	4 689 20 is_stmt 1      @ ../Libraries/lwip-1.4.1/src/core/tcp_in.c:689:20
	movw	r0, :lower16:tcp_ticks
	movt	r0, :upper16:tcp_ticks
	ldr	r0, [r0]
	.loc	4 689 18 is_stmt 0      @ ../Libraries/lwip-1.4.1/src/core/tcp_in.c:689:18
	str	r0, [r4, #36]
.Ltmp94:
.LBB0_50:
	@DEBUG_VALUE: tcp_input:pcb <- $r4
	@DEBUG_VALUE: tcp_input:p <- $r5
	.loc	4 0 18                  @ ../Libraries/lwip-1.4.1/src/core/tcp_in.c:0:18
	movs	r0, #0
	.loc	4 691 24 is_stmt 1      @ ../Libraries/lwip-1.4.1/src/core/tcp_in.c:691:24
	strb.w	r0, [r4, #150]
	.loc	4 693 5                 @ ../Libraries/lwip-1.4.1/src/core/tcp_in.c:693:5
	mov	r0, r4
	bl	tcp_parseopt
	.loc	4 696 18                @ ../Libraries/lwip-1.4.1/src/core/tcp_in.c:696:18
	ldrb	r0, [r4, #24]
	.loc	4 696 5 is_stmt 0       @ ../Libraries/lwip-1.4.1/src/core/tcp_in.c:696:5
	subs	r0, #2
	cmp	r0, #7
	bhi.w	.LBB0_113
.Ltmp95:
@ %bb.51:
	@DEBUG_VALUE: tcp_input:pcb <- $r4
	@DEBUG_VALUE: tcp_input:p <- $r5
	.loc	4 0 5                   @ ../Libraries/lwip-1.4.1/src/core/tcp_in.c:0:5
.LCPI0_0:
	tbh	[pc, r0, lsl #1]
.Ltmp96:
@ %bb.52:
.LJTI0_0:
	.short	(.LBB0_73-(.LCPI0_0+4))/2
	.short	(.LBB0_77-(.LCPI0_0+4))/2
	.short	(.LBB0_53-(.LCPI0_0+4))/2
	.short	(.LBB0_81-(.LCPI0_0+4))/2
	.short	(.LBB0_84-(.LCPI0_0+4))/2
	.short	(.LBB0_53-(.LCPI0_0+4))/2
	.short	(.LBB0_88-(.LCPI0_0+4))/2
	.short	(.LBB0_93-(.LCPI0_0+4))/2
	.p2align	1
.LBB0_53:
.Ltmp97:
	@DEBUG_VALUE: tcp_input:pcb <- $r4
	@DEBUG_VALUE: tcp_input:p <- $r5
	.loc	4 817 9 is_stmt 1       @ ../Libraries/lwip-1.4.1/src/core/tcp_in.c:817:9
	mov	r0, r4
	bl	tcp_receive
.Ltmp98:
.LBB0_54:
	@DEBUG_VALUE: tcp_input:pcb <- $r4
	@DEBUG_VALUE: tcp_input:p <- $r5
	.loc	4 0 0 is_stmt 0         @ ../Libraries/lwip-1.4.1/src/core/tcp_in.c:0:0
	ldrb	r0, [r6]
	lsls	r0, r0, #26
	bpl.w	.LBB0_113
.Ltmp99:
@ %bb.55:
	@DEBUG_VALUE: tcp_input:pcb <- $r4
	@DEBUG_VALUE: tcp_input:p <- $r5
	movs	r0, #7
	b	.LBB0_110
.Ltmp100:
.LBB0_56:
	@DEBUG_VALUE: tcp_input:pcb <- $r0
	@DEBUG_VALUE: tcp_input:p <- $r5
	.loc	4 588 9 is_stmt 1       @ ../Libraries/lwip-1.4.1/src/core/tcp_in.c:588:9
	lsls.w	r2, r12, #29
	bmi.w	.LBB0_6
.Ltmp101:
@ %bb.57:
	@DEBUG_VALUE: tcp_input:pcb <- $r0
	@DEBUG_VALUE: tcp_input:p <- $r5
	.loc	4 593 9                 @ ../Libraries/lwip-1.4.1/src/core/tcp_in.c:593:9
	lsls.w	r2, r12, #30
	bmi	.LBB0_63
.Ltmp102:
@ %bb.58:
	@DEBUG_VALUE: tcp_input:pcb <- $r0
	@DEBUG_VALUE: tcp_input:p <- $r5
	.loc	4 605 14                @ ../Libraries/lwip-1.4.1/src/core/tcp_in.c:605:14
	lsls.w	r1, r12, #31
	beq	.LBB0_65
.Ltmp103:
@ %bb.59:
	@DEBUG_VALUE: tcp_input:pcb <- $r0
	@DEBUG_VALUE: tcp_input:p <- $r5
	.loc	4 609 20                @ ../Libraries/lwip-1.4.1/src/core/tcp_in.c:609:20
	movw	r1, :lower16:tcp_ticks
	movt	r1, :upper16:tcp_ticks
	ldr	r1, [r1]
	.loc	4 609 18 is_stmt 0      @ ../Libraries/lwip-1.4.1/src/core/tcp_in.c:609:18
	str	r1, [r0, #36]
	b	.LBB0_65
.Ltmp104:
.LBB0_60:
	@DEBUG_VALUE: tcp_input:prev <- $r4
	@DEBUG_VALUE: tcp_input:lpcb <- $r1
	@DEBUG_VALUE: tcp_input:p <- $r5
	.loc	4 503 24 is_stmt 1      @ ../Libraries/lwip-1.4.1/src/core/tcp_in.c:503:24
	movw	r1, :lower16:seqno
.Ltmp105:
	.loc	4 503 17 is_stmt 0      @ ../Libraries/lwip-1.4.1/src/core/tcp_in.c:503:17
	movw	r0, :lower16:ackno
	.loc	4 504 48 is_stmt 1      @ ../Libraries/lwip-1.4.1/src/core/tcp_in.c:504:48
	ldrh	r2, [r3, #2]
	.loc	4 504 62 is_stmt 0      @ ../Libraries/lwip-1.4.1/src/core/tcp_in.c:504:62
	ldrh	r3, [r3]
	.loc	4 503 24 is_stmt 1      @ ../Libraries/lwip-1.4.1/src/core/tcp_in.c:503:24
	movt	r1, :upper16:seqno
	.loc	4 503 17 is_stmt 0      @ ../Libraries/lwip-1.4.1/src/core/tcp_in.c:503:17
	movt	r0, :upper16:ackno
	.loc	4 503 24                @ ../Libraries/lwip-1.4.1/src/core/tcp_in.c:503:24
	ldr	r1, [r1]
	.loc	4 503 17                @ ../Libraries/lwip-1.4.1/src/core/tcp_in.c:503:17
	ldr	r0, [r0]
	.loc	4 503 9                 @ ../Libraries/lwip-1.4.1/src/core/tcp_in.c:503:9
	strd	r2, r3, [sp]
	.loc	4 503 30                @ ../Libraries/lwip-1.4.1/src/core/tcp_in.c:503:30
	uxtah	r1, r1, lr
	b	.LBB0_29
.Ltmp106:
.LBB0_61:
	@DEBUG_VALUE: tcp_input:pcb <- $r4
	@DEBUG_VALUE: tcp_input:p <- $r5
	.loc	4 645 18 is_stmt 1      @ ../Libraries/lwip-1.4.1/src/core/tcp_in.c:645:18
	ldrb	r0, [r4, #24]
.Ltmp107:
	.loc	4 645 13 is_stmt 0      @ ../Libraries/lwip-1.4.1/src/core/tcp_in.c:645:13
	cmp	r0, #2
	bne	.LBB0_67
.Ltmp108:
@ %bb.62:
	@DEBUG_VALUE: tcp_input:pcb <- $r4
	@DEBUG_VALUE: tcp_input:p <- $r5
	.loc	4 647 17 is_stmt 1      @ ../Libraries/lwip-1.4.1/src/core/tcp_in.c:647:17
	movw	r1, :lower16:ackno
	.loc	4 647 31 is_stmt 0      @ ../Libraries/lwip-1.4.1/src/core/tcp_in.c:647:31
	ldr	r0, [r4, #80]
	.loc	4 647 17                @ ../Libraries/lwip-1.4.1/src/core/tcp_in.c:647:17
	movt	r1, :upper16:ackno
	ldr	r1, [r1]
.Ltmp109:
	.loc	4 647 17                @ ../Libraries/lwip-1.4.1/src/core/tcp_in.c:647:17
	cmp	r1, r0
	beq	.LBB0_69
	b	.LBB0_113
.Ltmp110:
.LBB0_63:
	@DEBUG_VALUE: tcp_input:pcb <- $r0
	@DEBUG_VALUE: tcp_input:p <- $r5
	.loc	4 597 13 is_stmt 1      @ ../Libraries/lwip-1.4.1/src/core/tcp_in.c:597:13
	movw	r2, :lower16:seqno
	ldr	r7, [r0, #40]
	movt	r2, :upper16:seqno
	ldr	r2, [r2]
	subs	r7, r2, r7
	cmp	r7, #0
	blt	.LBB0_65
.Ltmp111:
@ %bb.64:
	@DEBUG_VALUE: tcp_input:pcb <- $r0
	@DEBUG_VALUE: tcp_input:p <- $r5
	ldrh	r6, [r0, #44]
	subs	r7, r7, r6
.Ltmp112:
	.loc	4 597 13 is_stmt 0      @ ../Libraries/lwip-1.4.1/src/core/tcp_in.c:597:13
	cmp	r7, #0
	ble	.LBB0_72
.Ltmp113:
.LBB0_65:
	@DEBUG_VALUE: tcp_input:pcb <- $r0
	@DEBUG_VALUE: tcp_input:p <- $r5
	.loc	4 612 9 is_stmt 1       @ ../Libraries/lwip-1.4.1/src/core/tcp_in.c:612:9
	lsls.w	r1, lr, #16
	beq.w	.LBB0_6
.Ltmp114:
@ %bb.66:
	@DEBUG_VALUE: tcp_input:pcb <- $r0
	@DEBUG_VALUE: tcp_input:p <- $r5
	.loc	4 615 20                @ ../Libraries/lwip-1.4.1/src/core/tcp_in.c:615:20
	ldrb	r1, [r0, #30]
	orr	r1, r1, #2
	strb	r1, [r0, #30]
	b	.LBB0_71
.Ltmp115:
.LBB0_67:
	@DEBUG_VALUE: tcp_input:pcb <- $r4
	@DEBUG_VALUE: tcp_input:p <- $r5
	.loc	4 654 17                @ ../Libraries/lwip-1.4.1/src/core/tcp_in.c:654:17
	movw	r1, :lower16:seqno
	ldr	r0, [r4, #40]
	movt	r1, :upper16:seqno
	ldr	r1, [r1]
	subs	r0, r1, r0
	cmp	r0, #0
	blt.w	.LBB0_113
.Ltmp116:
@ %bb.68:
	@DEBUG_VALUE: tcp_input:pcb <- $r4
	@DEBUG_VALUE: tcp_input:p <- $r5
	ldrh	r1, [r4, #44]
	subs	r0, r0, r1
.Ltmp117:
	.loc	4 654 17 is_stmt 0      @ ../Libraries/lwip-1.4.1/src/core/tcp_in.c:654:17
	cmp	r0, #0
	bgt.w	.LBB0_113
.Ltmp118:
.LBB0_69:
	@DEBUG_VALUE: tcp_input:pcb <- $r4
	@DEBUG_VALUE: tcp_input:p <- $r5
	.loc	4 665 24 is_stmt 1      @ ../Libraries/lwip-1.4.1/src/core/tcp_in.c:665:24
	ldrb	r0, [r6]
	orr	r0, r0, #8
	strb	r0, [r6]
	.loc	4 666 24                @ ../Libraries/lwip-1.4.1/src/core/tcp_in.c:666:24
	ldrb	r0, [r4, #30]
	and	r0, r0, #254
	b	.LBB0_112
.Ltmp119:
.LBB0_70:
	@DEBUG_VALUE: tcp_listen_input:rc <- $r0
	@DEBUG_VALUE: tcp_listen_input:npcb <- $r9
	@DEBUG_VALUE: tcp_input:p <- $r5
	.loc	4 566 16                @ ../Libraries/lwip-1.4.1/src/core/tcp_in.c:566:16
	mov	r0, r9
.Ltmp120:
.LBB0_71:
	@DEBUG_VALUE: tcp_input:p <- $r5
	.loc	4 0 0 is_stmt 0         @ ../Libraries/lwip-1.4.1/src/core/tcp_in.c:0:0
	bl	tcp_output
	b	.LBB0_6
.Ltmp121:
.LBB0_72:
	@DEBUG_VALUE: tcp_input:pcb <- $r0
	@DEBUG_VALUE: tcp_input:p <- $r5
	.loc	4 600 21 is_stmt 1      @ ../Libraries/lwip-1.4.1/src/core/tcp_in.c:600:21
	movw	r0, :lower16:ackno
.Ltmp122:
	movt	r0, :upper16:ackno
	ldr	r0, [r0]
	.loc	4 600 13 is_stmt 0      @ ../Libraries/lwip-1.4.1/src/core/tcp_in.c:600:13
	strd	r1, r3, [sp]
	.loc	4 600 34                @ ../Libraries/lwip-1.4.1/src/core/tcp_in.c:600:34
	uxtah	r1, r2, lr
	b	.LBB0_29
.Ltmp123:
.LBB0_73:
	@DEBUG_VALUE: tcp_input:pcb <- $r4
	@DEBUG_VALUE: tcp_input:p <- $r5
	.loc	4 702 14 is_stmt 1      @ ../Libraries/lwip-1.4.1/src/core/tcp_in.c:702:14
	movw	r0, :lower16:flags
	movt	r0, :upper16:flags
	ldrb	r0, [r0]
	.loc	4 702 31 is_stmt 0      @ ../Libraries/lwip-1.4.1/src/core/tcp_in.c:702:31
	and	r1, r0, #18
	cmp	r1, #18
	bne.w	.LBB0_148
.Ltmp124:
@ %bb.74:
	@DEBUG_VALUE: tcp_input:pcb <- $r4
	@DEBUG_VALUE: tcp_input:p <- $r5
	.loc	4 703 20 is_stmt 1      @ ../Libraries/lwip-1.4.1/src/core/tcp_in.c:703:20
	movw	r0, :lower16:ackno
	movt	r0, :upper16:ackno
	ldr	r5, [r0]
.Ltmp125:
	.loc	4 703 29 is_stmt 0      @ ../Libraries/lwip-1.4.1/src/core/tcp_in.c:703:29
	ldr	r0, [r4, #112]
	ldr	r0, [r0, #16]
	ldr	r0, [r0, #4]
	bl	lwip_ntohl
	.loc	4 703 64                @ ../Libraries/lwip-1.4.1/src/core/tcp_in.c:703:64
	adds	r0, #1
.Ltmp126:
	.loc	4 702 13 is_stmt 1      @ ../Libraries/lwip-1.4.1/src/core/tcp_in.c:702:13
	cmp	r5, r0
	bne.w	.LBB0_147
.Ltmp127:
@ %bb.75:
	@DEBUG_VALUE: tcp_input:pcb <- $r4
	.loc	4 705 25                @ ../Libraries/lwip-1.4.1/src/core/tcp_in.c:705:25
	ldrh.w	r0, [r4, #102]
	adds	r0, #1
	strh.w	r0, [r4, #102]
	.loc	4 706 28                @ ../Libraries/lwip-1.4.1/src/core/tcp_in.c:706:28
	movw	r0, :lower16:seqno
	movt	r0, :upper16:seqno
	ldr	r0, [r0]
	.loc	4 706 34 is_stmt 0      @ ../Libraries/lwip-1.4.1/src/core/tcp_in.c:706:34
	adds	r1, r0, #1
	.loc	4 711 34 is_stmt 1      @ ../Libraries/lwip-1.4.1/src/core/tcp_in.c:711:34
	subs	r0, #1
	.loc	4 707 37                @ ../Libraries/lwip-1.4.1/src/core/tcp_in.c:707:37
	str	r1, [r4, #48]
	.loc	4 706 26                @ ../Libraries/lwip-1.4.1/src/core/tcp_in.c:706:26
	str	r1, [r4, #40]
	.loc	4 708 28                @ ../Libraries/lwip-1.4.1/src/core/tcp_in.c:708:28
	movw	r1, :lower16:ackno
	movt	r1, :upper16:ackno
	ldr	r1, [r1]
	.loc	4 708 26 is_stmt 0      @ ../Libraries/lwip-1.4.1/src/core/tcp_in.c:708:26
	str	r1, [r4, #72]
	.loc	4 709 28 is_stmt 1      @ ../Libraries/lwip-1.4.1/src/core/tcp_in.c:709:28
	ldr.w	r1, [r8]
	.loc	4 709 36 is_stmt 0      @ ../Libraries/lwip-1.4.1/src/core/tcp_in.c:709:36
	ldrh	r1, [r1, #14]
	.loc	4 711 26 is_stmt 1      @ ../Libraries/lwip-1.4.1/src/core/tcp_in.c:711:26
	str	r0, [r4, #84]
	movs	r0, #4
	.loc	4 712 24                @ ../Libraries/lwip-1.4.1/src/core/tcp_in.c:712:24
	strb	r0, [r4, #24]
	.loc	4 710 30                @ ../Libraries/lwip-1.4.1/src/core/tcp_in.c:710:30
	strh.w	r1, [r4, #98]
	.loc	4 709 26                @ ../Libraries/lwip-1.4.1/src/core/tcp_in.c:709:26
	strh.w	r1, [r4, #96]
	.loc	4 715 58                @ ../Libraries/lwip-1.4.1/src/core/tcp_in.c:715:58
	adds	r1, r4, #4
	.loc	4 715 46 is_stmt 0      @ ../Libraries/lwip-1.4.1/src/core/tcp_in.c:715:46
	ldrh	r0, [r4, #54]
	.loc	4 715 24                @ ../Libraries/lwip-1.4.1/src/core/tcp_in.c:715:24
	bl	tcp_eff_send_mss
	.loc	4 720 38 is_stmt 1      @ ../Libraries/lwip-1.4.1/src/core/tcp_in.c:720:38
	add.w	r1, r0, r0, lsl #2
	.loc	4 715 22                @ ../Libraries/lwip-1.4.1/src/core/tcp_in.c:715:22
	strh	r0, [r4, #54]
	.loc	4 720 38                @ ../Libraries/lwip-1.4.1/src/core/tcp_in.c:720:38
	lsls	r1, r1, #1
	.loc	4 720 27 is_stmt 0      @ ../Libraries/lwip-1.4.1/src/core/tcp_in.c:720:27
	strh.w	r1, [r4, #78]
.Ltmp128:
	.loc	4 723 13 is_stmt 1      @ ../Libraries/lwip-1.4.1/src/core/tcp_in.c:723:13
	ldrh.w	r1, [r4, #104]
.Ltmp129:
	.loc	4 724 13                @ ../Libraries/lwip-1.4.1/src/core/tcp_in.c:724:13
	subs	r1, #1
	strh.w	r1, [r4, #104]
	.loc	4 722 32                @ ../Libraries/lwip-1.4.1/src/core/tcp_in.c:722:32
	ldrh.w	r1, [r4, #76]
	.loc	4 722 37 is_stmt 0      @ ../Libraries/lwip-1.4.1/src/core/tcp_in.c:722:37
	subs	r1, #1
	clz	r1, r1
	lsrs	r1, r1, #5
	.loc	4 722 26                @ ../Libraries/lwip-1.4.1/src/core/tcp_in.c:722:26
	lsls	r0, r1
	.loc	4 722 23                @ ../Libraries/lwip-1.4.1/src/core/tcp_in.c:722:23
	strh.w	r0, [r4, #76]
	.loc	4 726 25 is_stmt 1      @ ../Libraries/lwip-1.4.1/src/core/tcp_in.c:726:25
	ldr	r0, [r4, #112]
.Ltmp130:
	@DEBUG_VALUE: tcp_process:rseg <- $r0
	.loc	4 727 34                @ ../Libraries/lwip-1.4.1/src/core/tcp_in.c:727:34
	ldr	r1, [r0]
	.loc	4 727 26 is_stmt 0      @ ../Libraries/lwip-1.4.1/src/core/tcp_in.c:727:26
	str	r1, [r4, #112]
	.loc	4 728 13 is_stmt 1      @ ../Libraries/lwip-1.4.1/src/core/tcp_in.c:728:13
	bl	tcp_seg_free
.Ltmp131:
	.loc	4 732 22                @ ../Libraries/lwip-1.4.1/src/core/tcp_in.c:732:22
	ldr	r0, [r4, #112]
.Ltmp132:
	.loc	4 732 17 is_stmt 0      @ ../Libraries/lwip-1.4.1/src/core/tcp_in.c:732:17
	cmp	r0, #0
	itte	ne
	movne	r0, #0
.Ltmp133:
	.loc	4 737 27 is_stmt 1      @ ../Libraries/lwip-1.4.1/src/core/tcp_in.c:737:27
	strbne.w	r0, [r4, #70]
	movweq	r0, #65535
.Ltmp134:
	.loc	4 0 0 is_stmt 0         @ ../Libraries/lwip-1.4.1/src/core/tcp_in.c:0:0
	strh	r0, [r4, #52]
.Ltmp135:
	.loc	4 742 13 is_stmt 1      @ ../Libraries/lwip-1.4.1/src/core/tcp_in.c:742:13
	ldr.w	r3, [r4, #132]
.Ltmp136:
	.loc	4 742 13 is_stmt 0      @ ../Libraries/lwip-1.4.1/src/core/tcp_in.c:742:13
	cmp	r3, #0
	beq.w	.LBB0_111
.Ltmp137:
@ %bb.76:
	@DEBUG_VALUE: tcp_input:pcb <- $r4
	.loc	4 742 13                @ ../Libraries/lwip-1.4.1/src/core/tcp_in.c:742:13
	ldr	r0, [r4, #16]
	mov	r1, r4
	movs	r2, #0
	blx	r3
.Ltmp138:
	@DEBUG_VALUE: tcp_process:err <- $r0
	.loc	4 743 17 is_stmt 1      @ ../Libraries/lwip-1.4.1/src/core/tcp_in.c:743:17
	adds	r0, #10
.Ltmp139:
	bne.w	.LBB0_111
	b	.LBB0_129
.Ltmp140:
.LBB0_77:
	@DEBUG_VALUE: tcp_input:pcb <- $r4
	@DEBUG_VALUE: tcp_input:p <- $r5
	.loc	4 758 13                @ ../Libraries/lwip-1.4.1/src/core/tcp_in.c:758:13
	movw	r0, :lower16:flags
	movt	r0, :upper16:flags
	ldrb	r0, [r0]
.Ltmp141:
	.loc	4 758 13 is_stmt 0      @ ../Libraries/lwip-1.4.1/src/core/tcp_in.c:758:13
	lsls	r1, r0, #27
	bmi.w	.LBB0_95
.Ltmp142:
@ %bb.78:
	@DEBUG_VALUE: tcp_input:pcb <- $r4
	@DEBUG_VALUE: tcp_input:p <- $r5
	.loc	4 808 36 is_stmt 1      @ ../Libraries/lwip-1.4.1/src/core/tcp_in.c:808:36
	lsls	r0, r0, #30
	bpl.w	.LBB0_113
.Ltmp143:
@ %bb.79:
	@DEBUG_VALUE: tcp_input:pcb <- $r4
	@DEBUG_VALUE: tcp_input:p <- $r5
	.loc	4 808 40 is_stmt 0      @ ../Libraries/lwip-1.4.1/src/core/tcp_in.c:808:40
	movw	r0, :lower16:seqno
	.loc	4 808 54                @ ../Libraries/lwip-1.4.1/src/core/tcp_in.c:808:54
	ldr	r1, [r4, #40]
	.loc	4 808 40                @ ../Libraries/lwip-1.4.1/src/core/tcp_in.c:808:40
	movt	r0, :upper16:seqno
	ldr	r0, [r0]
	.loc	4 808 62                @ ../Libraries/lwip-1.4.1/src/core/tcp_in.c:808:62
	subs	r1, #1
.Ltmp144:
	.loc	4 808 18                @ ../Libraries/lwip-1.4.1/src/core/tcp_in.c:808:18
	cmp	r0, r1
	bne.w	.LBB0_113
.Ltmp145:
@ %bb.80:
	@DEBUG_VALUE: tcp_input:pcb <- $r4
	@DEBUG_VALUE: tcp_input:p <- $r5
	.loc	4 811 13 is_stmt 1      @ ../Libraries/lwip-1.4.1/src/core/tcp_in.c:811:13
	mov	r0, r4
	bl	tcp_rexmit
	b	.LBB0_113
.Ltmp146:
.LBB0_81:
	@DEBUG_VALUE: tcp_input:pcb <- $r4
	@DEBUG_VALUE: tcp_input:p <- $r5
	.loc	4 825 9                 @ ../Libraries/lwip-1.4.1/src/core/tcp_in.c:825:9
	mov	r0, r4
	bl	tcp_receive
.Ltmp147:
	.loc	4 0 0 is_stmt 0         @ ../Libraries/lwip-1.4.1/src/core/tcp_in.c:0:0
	movw	r0, :lower16:flags
	.loc	4 826 13 is_stmt 1      @ ../Libraries/lwip-1.4.1/src/core/tcp_in.c:826:13
	ldrb	r1, [r6]
	.loc	4 0 0 is_stmt 0         @ ../Libraries/lwip-1.4.1/src/core/tcp_in.c:0:0
	movt	r0, :upper16:flags
	ldrb	r0, [r0]
.Ltmp148:
	.loc	4 826 13                @ ../Libraries/lwip-1.4.1/src/core/tcp_in.c:826:13
	lsls	r1, r1, #26
.Ltmp149:
	.loc	4 0 0                   @ ../Libraries/lwip-1.4.1/src/core/tcp_in.c:0:0
	and	r0, r0, #16
.Ltmp150:
	.loc	4 826 13                @ ../Libraries/lwip-1.4.1/src/core/tcp_in.c:826:13
	bmi.w	.LBB0_103
.Ltmp151:
@ %bb.82:
	@DEBUG_VALUE: tcp_input:pcb <- $r4
	@DEBUG_VALUE: tcp_input:p <- $r5
	.loc	4 844 36 is_stmt 1      @ ../Libraries/lwip-1.4.1/src/core/tcp_in.c:844:36
	cmp	r0, #0
	beq.w	.LBB0_113
.Ltmp152:
@ %bb.83:
	@DEBUG_VALUE: tcp_input:pcb <- $r4
	@DEBUG_VALUE: tcp_input:p <- $r5
	.loc	4 844 40 is_stmt 0      @ ../Libraries/lwip-1.4.1/src/core/tcp_in.c:844:40
	movw	r1, :lower16:ackno
	.loc	4 844 54                @ ../Libraries/lwip-1.4.1/src/core/tcp_in.c:844:54
	ldr	r0, [r4, #80]
	.loc	4 844 40                @ ../Libraries/lwip-1.4.1/src/core/tcp_in.c:844:40
	movt	r1, :upper16:ackno
	ldr	r1, [r1]
.Ltmp153:
	.loc	4 844 18                @ ../Libraries/lwip-1.4.1/src/core/tcp_in.c:844:18
	cmp	r1, r0
	itt	eq
	moveq	r0, #6
.Ltmp154:
	.loc	4 846 24 is_stmt 1      @ ../Libraries/lwip-1.4.1/src/core/tcp_in.c:846:24
	strbeq	r0, [r4, #24]
	b	.LBB0_113
.Ltmp155:
.LBB0_84:
	@DEBUG_VALUE: tcp_input:pcb <- $r4
	@DEBUG_VALUE: tcp_input:p <- $r5
	.loc	4 850 9                 @ ../Libraries/lwip-1.4.1/src/core/tcp_in.c:850:9
	mov	r0, r4
	bl	tcp_receive
.Ltmp156:
	.loc	4 851 13                @ ../Libraries/lwip-1.4.1/src/core/tcp_in.c:851:13
	ldrb	r0, [r6]
.Ltmp157:
	.loc	4 851 13 is_stmt 0      @ ../Libraries/lwip-1.4.1/src/core/tcp_in.c:851:13
	lsls	r0, r0, #26
	bpl.w	.LBB0_113
.Ltmp158:
@ %bb.85:
	@DEBUG_VALUE: tcp_input:pcb <- $r4
	@DEBUG_VALUE: tcp_input:p <- $r5
	.loc	4 854 13 is_stmt 1      @ ../Libraries/lwip-1.4.1/src/core/tcp_in.c:854:13
	ldrb	r0, [r4, #30]
	orr	r0, r0, #2
	strb	r0, [r4, #30]
.Ltmp159:
	.loc	4 855 13                @ ../Libraries/lwip-1.4.1/src/core/tcp_in.c:855:13
	mov	r0, r4
	bl	tcp_pcb_purge
.Ltmp160:
	.loc	4 856 13                @ ../Libraries/lwip-1.4.1/src/core/tcp_in.c:856:13
	movw	r0, :lower16:tcp_active_pcbs
	movt	r0, :upper16:tcp_active_pcbs
	ldr	r1, [r0]
.Ltmp161:
	.loc	4 856 13 is_stmt 0      @ ../Libraries/lwip-1.4.1/src/core/tcp_in.c:856:13
	cmp	r1, r4
	beq.w	.LBB0_144
.Ltmp162:
.LBB0_86:                               @ =>This Inner Loop Header: Depth=1
	@DEBUG_VALUE: tcp_input:pcb <- $r4
	@DEBUG_VALUE: tcp_input:p <- $r5
	.loc	4 856 13                @ ../Libraries/lwip-1.4.1/src/core/tcp_in.c:856:13
	cmp	r1, #0
	beq.w	.LBB0_145
.Ltmp163:
@ %bb.87:                               @   in Loop: Header=BB0_86 Depth=1
	@DEBUG_VALUE: tcp_input:pcb <- $r4
	@DEBUG_VALUE: tcp_input:p <- $r5
	.loc	4 0 0                   @ ../Libraries/lwip-1.4.1/src/core/tcp_in.c:0:0
	mov	r0, r1
.Ltmp164:
	.loc	4 856 13                @ ../Libraries/lwip-1.4.1/src/core/tcp_in.c:856:13
	ldr	r1, [r1, #12]
.Ltmp165:
	.loc	4 856 13                @ ../Libraries/lwip-1.4.1/src/core/tcp_in.c:856:13
	cmp	r1, r4
	bne	.LBB0_86
	b	.LBB0_108
.Ltmp166:
.LBB0_88:
	@DEBUG_VALUE: tcp_input:pcb <- $r4
	@DEBUG_VALUE: tcp_input:p <- $r5
	.loc	4 862 9 is_stmt 1       @ ../Libraries/lwip-1.4.1/src/core/tcp_in.c:862:9
	mov	r0, r4
	bl	tcp_receive
.Ltmp167:
	.loc	4 863 13                @ ../Libraries/lwip-1.4.1/src/core/tcp_in.c:863:13
	movw	r0, :lower16:flags
	movt	r0, :upper16:flags
	ldrb	r0, [r0]
	.loc	4 863 29 is_stmt 0      @ ../Libraries/lwip-1.4.1/src/core/tcp_in.c:863:29
	lsls	r0, r0, #27
	bpl.w	.LBB0_113
.Ltmp168:
@ %bb.89:
	@DEBUG_VALUE: tcp_input:pcb <- $r4
	@DEBUG_VALUE: tcp_input:p <- $r5
	.loc	4 863 32                @ ../Libraries/lwip-1.4.1/src/core/tcp_in.c:863:32
	movw	r1, :lower16:ackno
	.loc	4 863 46                @ ../Libraries/lwip-1.4.1/src/core/tcp_in.c:863:46
	ldr	r0, [r4, #80]
	.loc	4 863 32                @ ../Libraries/lwip-1.4.1/src/core/tcp_in.c:863:32
	movt	r1, :upper16:ackno
	ldr	r1, [r1]
.Ltmp169:
	.loc	4 863 13                @ ../Libraries/lwip-1.4.1/src/core/tcp_in.c:863:13
	cmp	r1, r0
	bne.w	.LBB0_113
.Ltmp170:
@ %bb.90:
	@DEBUG_VALUE: tcp_input:pcb <- $r4
	@DEBUG_VALUE: tcp_input:p <- $r5
	.loc	4 866 13 is_stmt 1      @ ../Libraries/lwip-1.4.1/src/core/tcp_in.c:866:13
	mov	r0, r4
	bl	tcp_pcb_purge
.Ltmp171:
	.loc	4 867 13                @ ../Libraries/lwip-1.4.1/src/core/tcp_in.c:867:13
	movw	r0, :lower16:tcp_active_pcbs
	movt	r0, :upper16:tcp_active_pcbs
	ldr	r1, [r0]
.Ltmp172:
	.loc	4 867 13 is_stmt 0      @ ../Libraries/lwip-1.4.1/src/core/tcp_in.c:867:13
	cmp	r1, r4
	beq.w	.LBB0_144
.Ltmp173:
.LBB0_91:                               @ =>This Inner Loop Header: Depth=1
	@DEBUG_VALUE: tcp_input:pcb <- $r4
	@DEBUG_VALUE: tcp_input:p <- $r5
	.loc	4 867 13                @ ../Libraries/lwip-1.4.1/src/core/tcp_in.c:867:13
	cmp	r1, #0
	beq.w	.LBB0_145
.Ltmp174:
@ %bb.92:                               @   in Loop: Header=BB0_91 Depth=1
	@DEBUG_VALUE: tcp_input:pcb <- $r4
	@DEBUG_VALUE: tcp_input:p <- $r5
	.loc	4 0 0                   @ ../Libraries/lwip-1.4.1/src/core/tcp_in.c:0:0
	mov	r0, r1
.Ltmp175:
	.loc	4 867 13                @ ../Libraries/lwip-1.4.1/src/core/tcp_in.c:867:13
	ldr	r1, [r1, #12]
.Ltmp176:
	.loc	4 867 13                @ ../Libraries/lwip-1.4.1/src/core/tcp_in.c:867:13
	cmp	r1, r4
	bne	.LBB0_91
	b	.LBB0_108
.Ltmp177:
.LBB0_93:
	@DEBUG_VALUE: tcp_input:pcb <- $r4
	@DEBUG_VALUE: tcp_input:p <- $r5
	.loc	4 873 9 is_stmt 1       @ ../Libraries/lwip-1.4.1/src/core/tcp_in.c:873:9
	mov	r0, r4
	bl	tcp_receive
.Ltmp178:
	.loc	4 874 13                @ ../Libraries/lwip-1.4.1/src/core/tcp_in.c:874:13
	movw	r0, :lower16:flags
	movt	r0, :upper16:flags
	ldrb	r0, [r0]
	.loc	4 874 29 is_stmt 0      @ ../Libraries/lwip-1.4.1/src/core/tcp_in.c:874:29
	lsls	r0, r0, #27
	bpl	.LBB0_113
.Ltmp179:
@ %bb.94:
	@DEBUG_VALUE: tcp_input:pcb <- $r4
	@DEBUG_VALUE: tcp_input:p <- $r5
	.loc	4 874 32                @ ../Libraries/lwip-1.4.1/src/core/tcp_in.c:874:32
	movw	r1, :lower16:ackno
	.loc	4 874 46                @ ../Libraries/lwip-1.4.1/src/core/tcp_in.c:874:46
	ldr	r0, [r4, #80]
	.loc	4 874 32                @ ../Libraries/lwip-1.4.1/src/core/tcp_in.c:874:32
	movt	r1, :upper16:ackno
	ldr	r1, [r1]
.Ltmp180:
	.loc	4 874 13                @ ../Libraries/lwip-1.4.1/src/core/tcp_in.c:874:13
	cmp	r1, r0
.Ltmp181:
	.loc	4 878 24 is_stmt 1      @ ../Libraries/lwip-1.4.1/src/core/tcp_in.c:878:24
	ittt	eq
	ldrbeq	r0, [r6]
	orreq	r0, r0, #16
	strbeq	r0, [r6]
	b	.LBB0_113
.Ltmp182:
.LBB0_95:
	@DEBUG_VALUE: tcp_input:pcb <- $r4
	@DEBUG_VALUE: tcp_input:p <- $r5
	.loc	4 761 17                @ ../Libraries/lwip-1.4.1/src/core/tcp_in.c:761:17
	movw	r0, :lower16:ackno
	ldr	r1, [r4, #72]
	movt	r0, :upper16:ackno
	ldr	r0, [r0]
	mvns	r1, r1
	add	r1, r0
	cmp	r1, #0
	blt.w	.LBB0_150
.Ltmp183:
@ %bb.96:
	@DEBUG_VALUE: tcp_input:pcb <- $r4
	@DEBUG_VALUE: tcp_input:p <- $r5
	ldr	r1, [r4, #80]
	subs	r1, r0, r1
.Ltmp184:
	.loc	4 761 17 is_stmt 0      @ ../Libraries/lwip-1.4.1/src/core/tcp_in.c:761:17
	cmp	r1, #0
	bgt.w	.LBB0_150
.Ltmp185:
@ %bb.97:
	@DEBUG_VALUE: tcp_input:pcb <- $r4
	@DEBUG_VALUE: tcp_input:p <- $r5
	.loc	4 0 17                  @ ../Libraries/lwip-1.4.1/src/core/tcp_in.c:0:17
	movs	r0, #4
.Ltmp186:
	.loc	4 764 28 is_stmt 1      @ ../Libraries/lwip-1.4.1/src/core/tcp_in.c:764:28
	strb	r0, [r4, #24]
.Ltmp187:
	.loc	4 767 17                @ ../Libraries/lwip-1.4.1/src/core/tcp_in.c:767:17
	ldr	r3, [r4, #20]
.Ltmp188:
	.loc	4 770 17                @ ../Libraries/lwip-1.4.1/src/core/tcp_in.c:770:17
	cmp	r3, #0
	beq.w	.LBB0_133
.Ltmp189:
@ %bb.98:
	@DEBUG_VALUE: tcp_input:pcb <- $r4
	@DEBUG_VALUE: tcp_input:p <- $r5
	.loc	4 770 17 is_stmt 0      @ ../Libraries/lwip-1.4.1/src/core/tcp_in.c:770:17
	ldr	r0, [r4, #16]
	mov	r1, r4
	movs	r2, #0
	blx	r3
.Ltmp190:
	@DEBUG_VALUE: tcp_process:err <- undef
	.loc	4 771 21 is_stmt 1      @ ../Libraries/lwip-1.4.1/src/core/tcp_in.c:771:21
	adds.w	r1, r0, #10
	beq	.LBB0_129
.Ltmp191:
@ %bb.99:
	@DEBUG_VALUE: tcp_input:pcb <- $r4
	@DEBUG_VALUE: tcp_input:p <- $r5
	cmp	r0, #0
	bne.w	.LBB0_133
.Ltmp192:
@ %bb.100:
	@DEBUG_VALUE: tcp_input:pcb <- $r4
	@DEBUG_VALUE: tcp_input:p <- $r5
	.loc	4 782 33                @ ../Libraries/lwip-1.4.1/src/core/tcp_in.c:782:33
	ldrh.w	r8, [r4, #76]
.Ltmp193:
	@DEBUG_VALUE: old_cwnd <- undef
	.loc	4 785 17                @ ../Libraries/lwip-1.4.1/src/core/tcp_in.c:785:17
	mov	r0, r4
	bl	tcp_receive
.Ltmp194:
	.loc	4 788 26                @ ../Libraries/lwip-1.4.1/src/core/tcp_in.c:788:26
	ldrh.w	r0, [r4, #100]
.Ltmp195:
	.loc	4 788 21 is_stmt 0      @ ../Libraries/lwip-1.4.1/src/core/tcp_in.c:788:21
	cbz	r0, .LBB0_102
.Ltmp196:
@ %bb.101:
	@DEBUG_VALUE: tcp_input:pcb <- $r4
	@DEBUG_VALUE: tcp_input:p <- $r5
	.loc	4 790 31 is_stmt 1      @ ../Libraries/lwip-1.4.1/src/core/tcp_in.c:790:31
	subs	r0, #1
	strh.w	r0, [r4, #100]
.Ltmp197:
.LBB0_102:
	@DEBUG_VALUE: tcp_input:pcb <- $r4
	@DEBUG_VALUE: tcp_input:p <- $r5
	.loc	4 793 40                @ ../Libraries/lwip-1.4.1/src/core/tcp_in.c:793:40
	sub.w	r1, r8, #1
	.loc	4 0 0 is_stmt 0         @ ../Libraries/lwip-1.4.1/src/core/tcp_in.c:0:0
	ldrh	r0, [r4, #54]
	.loc	4 793 40                @ ../Libraries/lwip-1.4.1/src/core/tcp_in.c:793:40
	clz	r1, r1
	lsrs	r1, r1, #5
	.loc	4 793 30                @ ../Libraries/lwip-1.4.1/src/core/tcp_in.c:793:30
	lsls	r0, r1
	.loc	4 793 27                @ ../Libraries/lwip-1.4.1/src/core/tcp_in.c:793:27
	strh.w	r0, [r4, #76]
	b	.LBB0_54
.Ltmp198:
.LBB0_103:
	@DEBUG_VALUE: tcp_input:pcb <- $r4
	@DEBUG_VALUE: tcp_input:p <- $r5
	.loc	4 828 35 is_stmt 1      @ ../Libraries/lwip-1.4.1/src/core/tcp_in.c:828:35
	cbz	r0, .LBB0_109
.Ltmp199:
@ %bb.104:
	@DEBUG_VALUE: tcp_input:pcb <- $r4
	@DEBUG_VALUE: tcp_input:p <- $r5
	.loc	4 828 39 is_stmt 0      @ ../Libraries/lwip-1.4.1/src/core/tcp_in.c:828:39
	movw	r1, :lower16:ackno
	.loc	4 828 53                @ ../Libraries/lwip-1.4.1/src/core/tcp_in.c:828:53
	ldr	r0, [r4, #80]
	.loc	4 828 39                @ ../Libraries/lwip-1.4.1/src/core/tcp_in.c:828:39
	movt	r1, :upper16:ackno
	ldr	r1, [r1]
.Ltmp200:
	.loc	4 828 17                @ ../Libraries/lwip-1.4.1/src/core/tcp_in.c:828:17
	cmp	r1, r0
	bne	.LBB0_109
.Ltmp201:
@ %bb.105:
	@DEBUG_VALUE: tcp_input:pcb <- $r4
	@DEBUG_VALUE: tcp_input:p <- $r5
	.loc	4 832 17 is_stmt 1      @ ../Libraries/lwip-1.4.1/src/core/tcp_in.c:832:17
	ldrb	r0, [r4, #30]
	orr	r0, r0, #2
	strb	r0, [r4, #30]
.Ltmp202:
	.loc	4 833 17                @ ../Libraries/lwip-1.4.1/src/core/tcp_in.c:833:17
	mov	r0, r4
	bl	tcp_pcb_purge
.Ltmp203:
	.loc	4 834 17                @ ../Libraries/lwip-1.4.1/src/core/tcp_in.c:834:17
	movw	r0, :lower16:tcp_active_pcbs
	movt	r0, :upper16:tcp_active_pcbs
	ldr	r1, [r0]
.Ltmp204:
	.loc	4 834 17 is_stmt 0      @ ../Libraries/lwip-1.4.1/src/core/tcp_in.c:834:17
	cmp	r1, r4
	beq.w	.LBB0_144
.Ltmp205:
.LBB0_106:                              @ =>This Inner Loop Header: Depth=1
	@DEBUG_VALUE: tcp_input:pcb <- $r4
	@DEBUG_VALUE: tcp_input:p <- $r5
	.loc	4 834 17                @ ../Libraries/lwip-1.4.1/src/core/tcp_in.c:834:17
	cmp	r1, #0
	beq.w	.LBB0_145
.Ltmp206:
@ %bb.107:                              @   in Loop: Header=BB0_106 Depth=1
	@DEBUG_VALUE: tcp_input:pcb <- $r4
	@DEBUG_VALUE: tcp_input:p <- $r5
	.loc	4 0 0                   @ ../Libraries/lwip-1.4.1/src/core/tcp_in.c:0:0
	mov	r0, r1
.Ltmp207:
	.loc	4 834 17                @ ../Libraries/lwip-1.4.1/src/core/tcp_in.c:834:17
	ldr	r1, [r1, #12]
.Ltmp208:
	.loc	4 834 17                @ ../Libraries/lwip-1.4.1/src/core/tcp_in.c:834:17
	cmp	r1, r4
	bne	.LBB0_106
.Ltmp209:
.LBB0_108:
	@DEBUG_VALUE: tcp_input:pcb <- $r4
	@DEBUG_VALUE: tcp_input:p <- $r5
	.loc	4 0 0                   @ ../Libraries/lwip-1.4.1/src/core/tcp_in.c:0:0
	movw	r1, :lower16:tcp_tmp_pcb
	movt	r1, :upper16:tcp_tmp_pcb
	str	r0, [r1]
	ldr	r1, [r4, #12]
	str	r1, [r0, #12]
	b	.LBB0_146
.Ltmp210:
.LBB0_109:
	@DEBUG_VALUE: tcp_input:pcb <- $r4
	@DEBUG_VALUE: tcp_input:p <- $r5
	movs	r0, #8
.Ltmp211:
.LBB0_110:
	@DEBUG_VALUE: tcp_input:pcb <- $r4
	@DEBUG_VALUE: tcp_input:p <- $r5
	strb	r0, [r4, #24]
.Ltmp212:
.LBB0_111:
	@DEBUG_VALUE: tcp_input:pcb <- $r4
	ldrb	r0, [r4, #30]
	orr	r0, r0, #2
.Ltmp213:
.LBB0_112:
	@DEBUG_VALUE: tcp_input:pcb <- $r4
	strb	r0, [r4, #30]
.Ltmp214:
.LBB0_113:
	@DEBUG_VALUE: tcp_input:pcb <- $r4
	.loc	4 332 17 is_stmt 1      @ ../Libraries/lwip-1.4.1/src/core/tcp_in.c:332:17
	ldrb	r0, [r6]
.Ltmp215:
	.loc	4 332 17 is_stmt 0      @ ../Libraries/lwip-1.4.1/src/core/tcp_in.c:332:17
	lsls	r1, r0, #28
	bmi	.LBB0_122
.Ltmp216:
@ %bb.114:
	@DEBUG_VALUE: tcp_input:pcb <- $r4
	.loc	4 342 22 is_stmt 1      @ ../Libraries/lwip-1.4.1/src/core/tcp_in.c:342:22
	lsls	r0, r0, #27
	bmi	.LBB0_124
.Ltmp217:
@ %bb.115:
	@DEBUG_VALUE: tcp_input:pcb <- $r4
	@DEBUG_VALUE: tcp_input:err <- 0
	.loc	4 362 26                @ ../Libraries/lwip-1.4.1/src/core/tcp_in.c:362:26
	ldrh.w	r2, [r4, #100]
.Ltmp218:
	.loc	4 362 21 is_stmt 0      @ ../Libraries/lwip-1.4.1/src/core/tcp_in.c:362:21
	cbz	r2, .LBB0_118
.Ltmp219:
@ %bb.116:
	@DEBUG_VALUE: tcp_input:pcb <- $r4
	.loc	4 364 21 is_stmt 1      @ ../Libraries/lwip-1.4.1/src/core/tcp_in.c:364:21
	ldr	r3, [r4, #124]
.Ltmp220:
	.loc	4 364 21 is_stmt 0      @ ../Libraries/lwip-1.4.1/src/core/tcp_in.c:364:21
	cbz	r3, .LBB0_118
.Ltmp221:
@ %bb.117:
	@DEBUG_VALUE: tcp_input:pcb <- $r4
	.loc	4 364 21                @ ../Libraries/lwip-1.4.1/src/core/tcp_in.c:364:21
	ldr	r0, [r4, #16]
	mov	r1, r4
	blx	r3
.Ltmp222:
	@DEBUG_VALUE: tcp_input:err <- $r0
	.loc	4 365 25 is_stmt 1      @ ../Libraries/lwip-1.4.1/src/core/tcp_in.c:365:25
	adds	r0, #10
.Ltmp223:
	beq	.LBB0_129
.Ltmp224:
.LBB0_118:
	@DEBUG_VALUE: tcp_input:pcb <- $r4
	.loc	4 371 21                @ ../Libraries/lwip-1.4.1/src/core/tcp_in.c:371:21
	ldr.w	r2, [r10]
.Ltmp225:
	.loc	4 371 21 is_stmt 0      @ ../Libraries/lwip-1.4.1/src/core/tcp_in.c:371:21
	cmp	r2, #0
	beq	.LBB0_138
.Ltmp226:
@ %bb.119:
	@DEBUG_VALUE: tcp_input:pcb <- $r4
	.loc	4 374 30 is_stmt 1      @ ../Libraries/lwip-1.4.1/src/core/tcp_in.c:374:30
	ldrb	r0, [r4, #30]
.Ltmp227:
	.loc	4 374 25 is_stmt 0      @ ../Libraries/lwip-1.4.1/src/core/tcp_in.c:374:25
	lsls	r0, r0, #27
	bmi	.LBB0_132
.Ltmp228:
@ %bb.120:
	@DEBUG_VALUE: tcp_input:pcb <- $r4
	.loc	4 384 21 is_stmt 1      @ ../Libraries/lwip-1.4.1/src/core/tcp_in.c:384:21
	ldr.w	r5, [r4, #128]
.Ltmp229:
	.loc	4 384 21 is_stmt 0      @ ../Libraries/lwip-1.4.1/src/core/tcp_in.c:384:21
	cbz	r5, .LBB0_134
.Ltmp230:
@ %bb.121:
	@DEBUG_VALUE: tcp_input:pcb <- $r4
	.loc	4 384 21                @ ../Libraries/lwip-1.4.1/src/core/tcp_in.c:384:21
	ldr	r0, [r4, #16]
	mov	r1, r4
	movs	r3, #0
	blx	r5
.Ltmp231:
	@DEBUG_VALUE: tcp_input:err <- undef
	.loc	4 0 21                  @ ../Libraries/lwip-1.4.1/src/core/tcp_in.c:0:21
	b	.LBB0_135
.Ltmp232:
.LBB0_122:
	@DEBUG_VALUE: tcp_input:pcb <- $r4
	.loc	4 338 17 is_stmt 1      @ ../Libraries/lwip-1.4.1/src/core/tcp_in.c:338:17
	ldr.w	r2, [r4, #140]
.Ltmp233:
	.loc	4 338 17 is_stmt 0      @ ../Libraries/lwip-1.4.1/src/core/tcp_in.c:338:17
	cbz	r2, .LBB0_128
.Ltmp234:
@ %bb.123:
	@DEBUG_VALUE: tcp_input:pcb <- $r4
	.loc	4 338 17                @ ../Libraries/lwip-1.4.1/src/core/tcp_in.c:338:17
	ldr	r0, [r4, #16]
	mvn	r1, #10
	b	.LBB0_127
.Ltmp235:
.LBB0_124:
	@DEBUG_VALUE: tcp_input:pcb <- $r4
	.loc	4 346 28 is_stmt 1      @ ../Libraries/lwip-1.4.1/src/core/tcp_in.c:346:28
	ldrb	r0, [r4, #30]
.Ltmp236:
	.loc	4 346 21 is_stmt 0      @ ../Libraries/lwip-1.4.1/src/core/tcp_in.c:346:21
	lsls	r0, r0, #27
	bmi	.LBB0_128
.Ltmp237:
@ %bb.125:
	@DEBUG_VALUE: tcp_input:pcb <- $r4
	.loc	4 351 21 is_stmt 1      @ ../Libraries/lwip-1.4.1/src/core/tcp_in.c:351:21
	ldr.w	r2, [r4, #140]
.Ltmp238:
	.loc	4 351 21 is_stmt 0      @ ../Libraries/lwip-1.4.1/src/core/tcp_in.c:351:21
	cbz	r2, .LBB0_128
.Ltmp239:
@ %bb.126:
	@DEBUG_VALUE: tcp_input:pcb <- $r4
	.loc	4 351 21                @ ../Libraries/lwip-1.4.1/src/core/tcp_in.c:351:21
	ldr	r0, [r4, #16]
	mvn	r1, #11
.Ltmp240:
.LBB0_127:
	@DEBUG_VALUE: tcp_input:pcb <- $r4
	.loc	4 0 0                   @ ../Libraries/lwip-1.4.1/src/core/tcp_in.c:0:0
	blx	r2
.Ltmp241:
.LBB0_128:
	@DEBUG_VALUE: tcp_input:pcb <- $r4
	movw	r0, :lower16:tcp_active_pcbs
	mov	r1, r4
	movt	r0, :upper16:tcp_active_pcbs
	bl	tcp_pcb_remove
	movs	r0, #2
	mov	r1, r4
	bl	memp_free
.Ltmp242:
.LBB0_129:
	@DEBUG_VALUE: tcp_input:pcb <- $r4
	@DEBUG_LABEL: aborted
	.loc	4 436 23 is_stmt 1      @ ../Libraries/lwip-1.4.1/src/core/tcp_in.c:436:23
	movw	r0, :lower16:tcp_input_pcb
	movs	r4, #0
.Ltmp243:
	movt	r0, :upper16:tcp_input_pcb
	.loc	4 437 19                @ ../Libraries/lwip-1.4.1/src/core/tcp_in.c:437:19
	str.w	r4, [r10]
	.loc	4 436 23                @ ../Libraries/lwip-1.4.1/src/core/tcp_in.c:436:23
	str	r4, [r0]
.Ltmp244:
	.loc	4 440 19                @ ../Libraries/lwip-1.4.1/src/core/tcp_in.c:440:19
	ldr	r0, [r7, #4]
.Ltmp245:
	.loc	4 440 13 is_stmt 0      @ ../Libraries/lwip-1.4.1/src/core/tcp_in.c:440:13
	cbz	r0, .LBB0_131
@ %bb.130:
.Ltmp246:
	.loc	4 442 13 is_stmt 1      @ ../Libraries/lwip-1.4.1/src/core/tcp_in.c:442:13
	bl	pbuf_free
	.loc	4 443 21                @ ../Libraries/lwip-1.4.1/src/core/tcp_in.c:443:21
	str	r4, [r7, #4]
.Ltmp247:
.LBB0_131:
	.loc	4 470 1                 @ ../Libraries/lwip-1.4.1/src/core/tcp_in.c:470:1
	add	sp, #12
	pop.w	{r4, r5, r6, r7, r8, r9, r10, r11, pc}
.LBB0_132:
.Ltmp248:
	@DEBUG_VALUE: tcp_input:pcb <- $r4
	.loc	4 378 25                @ ../Libraries/lwip-1.4.1/src/core/tcp_in.c:378:25
	mov	r0, r2
	bl	pbuf_free
.Ltmp249:
.LBB0_133:
	@DEBUG_VALUE: tcp_input:pcb <- $r4
	.loc	4 0 0 is_stmt 0         @ ../Libraries/lwip-1.4.1/src/core/tcp_in.c:0:0
	mov	r0, r4
	bl	tcp_abort
	b	.LBB0_129
.Ltmp250:
.LBB0_134:
	@DEBUG_VALUE: tcp_input:pcb <- $r4
	.loc	4 384 21 is_stmt 1      @ ../Libraries/lwip-1.4.1/src/core/tcp_in.c:384:21
	movs	r0, #0
	mov	r1, r4
	movs	r3, #0
	bl	tcp_recv_null
.Ltmp251:
	@DEBUG_VALUE: tcp_input:err <- undef
.LBB0_135:
	@DEBUG_VALUE: tcp_input:pcb <- $r4
	@DEBUG_VALUE: tcp_input:err <- $r0
	.loc	4 385 25                @ ../Libraries/lwip-1.4.1/src/core/tcp_in.c:385:25
	cbz	r0, .LBB0_138
.Ltmp252:
@ %bb.136:
	@DEBUG_VALUE: tcp_input:err <- $r0
	@DEBUG_VALUE: tcp_input:pcb <- $r4
	uxtb	r0, r0
.Ltmp253:
	cmp	r0, #246
	beq	.LBB0_129
.Ltmp254:
@ %bb.137:
	@DEBUG_VALUE: tcp_input:pcb <- $r4
	.loc	4 393 45                @ ../Libraries/lwip-1.4.1/src/core/tcp_in.c:393:45
	ldr.w	r0, [r10]
	.loc	4 393 43 is_stmt 0      @ ../Libraries/lwip-1.4.1/src/core/tcp_in.c:393:43
	str	r0, [r4, #120]
.Ltmp255:
.LBB0_138:
	@DEBUG_VALUE: tcp_input:pcb <- $r4
	.loc	4 400 21 is_stmt 1      @ ../Libraries/lwip-1.4.1/src/core/tcp_in.c:400:21
	ldrb	r0, [r6]
.Ltmp256:
	.loc	4 400 21 is_stmt 0      @ ../Libraries/lwip-1.4.1/src/core/tcp_in.c:400:21
	lsls	r0, r0, #26
	bpl	.LBB0_141
.Ltmp257:
@ %bb.139:
	@DEBUG_VALUE: tcp_input:pcb <- $r4
	.loc	4 402 30 is_stmt 1      @ ../Libraries/lwip-1.4.1/src/core/tcp_in.c:402:30
	ldr	r0, [r4, #120]
.Ltmp258:
	.loc	4 402 25 is_stmt 0      @ ../Libraries/lwip-1.4.1/src/core/tcp_in.c:402:25
	cbz	r0, .LBB0_142
.Ltmp259:
@ %bb.140:
	@DEBUG_VALUE: tcp_input:pcb <- $r4
	.loc	4 405 50 is_stmt 1      @ ../Libraries/lwip-1.4.1/src/core/tcp_in.c:405:50
	ldrb	r1, [r0, #13]
	orr	r1, r1, #32
	strb	r1, [r0, #13]
.Ltmp260:
.LBB0_141:
	@DEBUG_VALUE: tcp_input:pcb <- $r4
	.loc	4 0 50 is_stmt 0        @ ../Libraries/lwip-1.4.1/src/core/tcp_in.c:0:50
	movs	r0, #0
	.loc	4 423 31 is_stmt 1      @ ../Libraries/lwip-1.4.1/src/core/tcp_in.c:423:31
	str.w	r0, [r9]
	.loc	4 425 17                @ ../Libraries/lwip-1.4.1/src/core/tcp_in.c:425:17
	mov	r0, r4
	bl	tcp_output
	b	.LBB0_129
.Ltmp261:
.LBB0_142:
	@DEBUG_VALUE: tcp_input:pcb <- $r4
	.loc	4 411 34                @ ../Libraries/lwip-1.4.1/src/core/tcp_in.c:411:34
	ldrh	r0, [r4, #44]
	movw	r1, #5840
.Ltmp262:
	.loc	4 411 29 is_stmt 0      @ ../Libraries/lwip-1.4.1/src/core/tcp_in.c:411:29
	cmp	r0, r1
.Ltmp263:
	.loc	4 413 41 is_stmt 1      @ ../Libraries/lwip-1.4.1/src/core/tcp_in.c:413:41
	itt	ne
	addne	r0, #1
	strhne	r0, [r4, #44]
.Ltmp264:
	.loc	4 415 25                @ ../Libraries/lwip-1.4.1/src/core/tcp_in.c:415:25
	ldr.w	r6, [r4, #128]
.Ltmp265:
	.loc	4 415 25 is_stmt 0      @ ../Libraries/lwip-1.4.1/src/core/tcp_in.c:415:25
	cmp	r6, #0
	beq	.LBB0_141
.Ltmp266:
@ %bb.143:
	@DEBUG_VALUE: tcp_input:pcb <- $r4
	.loc	4 415 25                @ ../Libraries/lwip-1.4.1/src/core/tcp_in.c:415:25
	ldr	r0, [r4, #16]
	mov	r1, r4
	movs	r2, #0
	movs	r3, #0
	blx	r6
.Ltmp267:
	@DEBUG_VALUE: tcp_input:err <- $r0
	.loc	4 416 29 is_stmt 1      @ ../Libraries/lwip-1.4.1/src/core/tcp_in.c:416:29
	adds	r0, #10
.Ltmp268:
	beq	.LBB0_129
	b	.LBB0_141
.Ltmp269:
.LBB0_144:
	@DEBUG_VALUE: tcp_input:pcb <- $r4
	@DEBUG_VALUE: tcp_input:p <- $r5
	.loc	4 0 0 is_stmt 0         @ ../Libraries/lwip-1.4.1/src/core/tcp_in.c:0:0
	movw	r1, :lower16:tcp_active_pcbs
	ldr	r0, [r4, #12]
	movt	r1, :upper16:tcp_active_pcbs
	str	r0, [r1]
	b	.LBB0_146
.Ltmp270:
.LBB0_145:
	@DEBUG_VALUE: tcp_input:pcb <- $r4
	@DEBUG_VALUE: tcp_input:p <- $r5
	movw	r0, :lower16:tcp_tmp_pcb
	movs	r1, #0
	movt	r0, :upper16:tcp_tmp_pcb
	str	r1, [r0]
.Ltmp271:
.LBB0_146:
	@DEBUG_VALUE: tcp_input:pcb <- $r4
	@DEBUG_VALUE: tcp_input:p <- $r5
	movw	r0, :lower16:tcp_active_pcbs_changed
	movs	r1, #1
	movt	r0, :upper16:tcp_active_pcbs_changed
	strb	r1, [r0]
	movs	r0, #10
	strb	r0, [r4, #24]
	movw	r0, :lower16:tcp_tw_pcbs
	movt	r0, :upper16:tcp_tw_pcbs
	ldr	r1, [r0]
	str	r1, [r4, #12]
	str	r4, [r0]
	bl	tcp_timer_needed
	b	.LBB0_113
.Ltmp272:
.LBB0_147:
	@DEBUG_VALUE: tcp_input:pcb <- $r4
	.loc	4 750 18 is_stmt 1      @ ../Libraries/lwip-1.4.1/src/core/tcp_in.c:750:18
	movw	r0, :lower16:flags
	movt	r0, :upper16:flags
	ldrb	r0, [r0]
.Ltmp273:
.LBB0_148:
	@DEBUG_VALUE: tcp_input:pcb <- $r4
	.loc	4 750 18 is_stmt 0      @ ../Libraries/lwip-1.4.1/src/core/tcp_in.c:750:18
	lsls	r0, r0, #27
	bpl.w	.LBB0_113
.Ltmp274:
@ %bb.149:
	@DEBUG_VALUE: tcp_input:pcb <- $r4
	.loc	4 753 21 is_stmt 1      @ ../Libraries/lwip-1.4.1/src/core/tcp_in.c:753:21
	movw	r0, :lower16:ackno
	movt	r0, :upper16:ackno
	ldr	r0, [r0]
.Ltmp275:
.LBB0_150:
	@DEBUG_VALUE: tcp_input:pcb <- $r4
	.loc	4 0 0 is_stmt 0         @ ../Libraries/lwip-1.4.1/src/core/tcp_in.c:0:0
	movw	r1, :lower16:tcplen
	movw	r2, :lower16:seqno
	ldr.w	r3, [r8]
	movt	r1, :upper16:tcplen
	movt	r2, :upper16:seqno
	ldrh	r5, [r3, #2]
	ldrh	r1, [r1]
	ldr	r2, [r2]
	ldrh	r3, [r3]
	strd	r5, r3, [sp]
	movw	r3, :lower16:current_iphdr_src
	add	r1, r2
	movw	r2, :lower16:current_iphdr_dest
	movt	r2, :upper16:current_iphdr_dest
	movt	r3, :upper16:current_iphdr_src
	bl	tcp_rst
	b	.LBB0_113
.Ltmp276:
.Lfunc_end0:
	.size	tcp_input, .Lfunc_end0-tcp_input
	.cfi_endproc
	.cantunwind
	.fnend
                                        @ -- End function
	.section	.text.tcp_parseopt,"ax",%progbits
	.p2align	1               @ -- Begin function tcp_parseopt
	.type	tcp_parseopt,%function
	.code	16                      @ @tcp_parseopt
	.thumb_func
tcp_parseopt:
.Lfunc_begin1:
	.loc	4 1757 0 is_stmt 1      @ ../Libraries/lwip-1.4.1/src/core/tcp_in.c:1757:0
	.fnstart
	.cfi_startproc
@ %bb.0:
	.save	{r4, r5, r6, lr}
	push	{r4, r5, r6, lr}
	.cfi_def_cfa_offset 16
	.cfi_offset lr, -4
	.cfi_offset r6, -8
	.cfi_offset r5, -12
	.cfi_offset r4, -16
	@DEBUG_VALUE: tcp_parseopt:pcb <- $r0
.Ltmp277:
	.loc	4 1765 21 prologue_end  @ ../Libraries/lwip-1.4.1/src/core/tcp_in.c:1765:21
	movw	r6, :lower16:tcphdr
	mov	r4, r0
.Ltmp278:
	@DEBUG_VALUE: tcp_parseopt:pcb <- $r4
	movt	r6, :upper16:tcphdr
	ldr	r5, [r6]
.Ltmp279:
	.loc	4 1768 9                @ ../Libraries/lwip-1.4.1/src/core/tcp_in.c:1768:9
	ldrh	r0, [r5, #12]
	bl	lwip_ntohs
.Ltmp280:
	.loc	4 1768 9 is_stmt 0      @ ../Libraries/lwip-1.4.1/src/core/tcp_in.c:1768:9
	cmp.w	r0, #24576
	blo	.LBB1_12
.Ltmp281:
@ %bb.1:
	@DEBUG_VALUE: tcp_parseopt:pcb <- $r4
	.loc	4 1770 18 is_stmt 1     @ ../Libraries/lwip-1.4.1/src/core/tcp_in.c:1770:18
	ldr	r0, [r6]
	ldrh	r0, [r0, #12]
	bl	lwip_ntohs
	ubfx	r0, r0, #12, #4
	mvn	r1, #19
	.loc	4 1770 43 is_stmt 0     @ ../Libraries/lwip-1.4.1/src/core/tcp_in.c:1770:43
	add.w	r1, r1, r0, lsl #2
.Ltmp282:
	@DEBUG_VALUE: tcp_parseopt:c <- 0
	@DEBUG_VALUE: tcp_parseopt:max_c <- $r1
	.loc	4 1771 9 is_stmt 1      @ ../Libraries/lwip-1.4.1/src/core/tcp_in.c:1771:9
	cbz	r1, .LBB1_12
.Ltmp283:
@ %bb.2:
	@DEBUG_VALUE: tcp_parseopt:max_c <- $r1
	@DEBUG_VALUE: tcp_parseopt:pcb <- $r4
	.loc	4 0 9 is_stmt 0         @ ../Libraries/lwip-1.4.1/src/core/tcp_in.c:0:9
	add.w	r0, r5, #20
.Ltmp284:
	@DEBUG_VALUE: tcp_parseopt:opts <- $r0
	uxth	r1, r1
.Ltmp285:
	movs	r2, #0
	movw	r12, #1459
	movs	r3, #0
.Ltmp286:
	.p2align	2
.LBB1_3:                                @ =>This Inner Loop Header: Depth=1
	@DEBUG_VALUE: tcp_parseopt:opts <- $r0
	@DEBUG_VALUE: tcp_parseopt:pcb <- $r4
	@DEBUG_VALUE: tcp_parseopt:c <- $r3
	@DEBUG_VALUE: tcp_parseopt:opt <- [DW_OP_deref] undef
	.loc	4 1773 19 is_stmt 1     @ ../Libraries/lwip-1.4.1/src/core/tcp_in.c:1773:19
	ldrb	r6, [r0, r2]
	.loc	4 1774 13               @ ../Libraries/lwip-1.4.1/src/core/tcp_in.c:1774:13
	cmp	r6, #1
	beq	.LBB1_8
.Ltmp287:
@ %bb.4:                                @   in Loop: Header=BB1_3 Depth=1
	@DEBUG_VALUE: tcp_parseopt:c <- $r3
	@DEBUG_VALUE: tcp_parseopt:opts <- $r0
	@DEBUG_VALUE: tcp_parseopt:pcb <- $r4
	cmp	r6, #2
	beq	.LBB1_9
.Ltmp288:
@ %bb.5:                                @   in Loop: Header=BB1_3 Depth=1
	@DEBUG_VALUE: tcp_parseopt:c <- $r3
	@DEBUG_VALUE: tcp_parseopt:opts <- $r0
	@DEBUG_VALUE: tcp_parseopt:pcb <- $r4
	cbz	r6, .LBB1_12
.Ltmp289:
@ %bb.6:                                @   in Loop: Header=BB1_3 Depth=1
	@DEBUG_VALUE: tcp_parseopt:c <- $r3
	@DEBUG_VALUE: tcp_parseopt:opts <- $r0
	@DEBUG_VALUE: tcp_parseopt:pcb <- $r4
	.loc	4 1765 28               @ ../Libraries/lwip-1.4.1/src/core/tcp_in.c:1765:28
	add	r2, r0
.Ltmp290:
	.loc	4 1827 21               @ ../Libraries/lwip-1.4.1/src/core/tcp_in.c:1827:21
	ldrb	r2, [r2, #1]
	cbz	r2, .LBB1_12
.Ltmp291:
@ %bb.7:                                @   in Loop: Header=BB1_3 Depth=1
	@DEBUG_VALUE: tcp_parseopt:c <- $r3
	@DEBUG_VALUE: tcp_parseopt:opts <- $r0
	@DEBUG_VALUE: tcp_parseopt:pcb <- $r4
	.loc	4 1836 19               @ ../Libraries/lwip-1.4.1/src/core/tcp_in.c:1836:19
	add	r3, r2
.Ltmp292:
	@DEBUG_VALUE: tcp_parseopt:c <- $r3
	.loc	4 0 19 is_stmt 0        @ ../Libraries/lwip-1.4.1/src/core/tcp_in.c:0:19
	b	.LBB1_11
.Ltmp293:
	.p2align	2
.LBB1_8:                                @   in Loop: Header=BB1_3 Depth=1
	@DEBUG_VALUE: tcp_parseopt:c <- $r3
	@DEBUG_VALUE: tcp_parseopt:opts <- $r0
	@DEBUG_VALUE: tcp_parseopt:pcb <- $r4
	.loc	4 1782 17 is_stmt 1     @ ../Libraries/lwip-1.4.1/src/core/tcp_in.c:1782:17
	adds	r3, #1
.Ltmp294:
	@DEBUG_VALUE: tcp_parseopt:c <- $r3
	.loc	4 0 17 is_stmt 0        @ ../Libraries/lwip-1.4.1/src/core/tcp_in.c:0:17
	b	.LBB1_11
.Ltmp295:
	.p2align	2
.LBB1_9:                                @   in Loop: Header=BB1_3 Depth=1
	@DEBUG_VALUE: tcp_parseopt:c <- $r3
	@DEBUG_VALUE: tcp_parseopt:opts <- $r0
	@DEBUG_VALUE: tcp_parseopt:pcb <- $r4
	.loc	4 1765 28 is_stmt 1     @ ../Libraries/lwip-1.4.1/src/core/tcp_in.c:1765:28
	adds	r5, r0, r2
.Ltmp296:
	.loc	4 1787 21               @ ../Libraries/lwip-1.4.1/src/core/tcp_in.c:1787:21
	ldrb	r3, [r5, #1]
.Ltmp297:
	.loc	4 1787 41 is_stmt 0     @ ../Libraries/lwip-1.4.1/src/core/tcp_in.c:1787:41
	cmp	r3, #4
	bne	.LBB1_12
.Ltmp298:
@ %bb.10:                               @   in Loop: Header=BB1_3 Depth=1
	@DEBUG_VALUE: tcp_parseopt:opts <- $r0
	@DEBUG_VALUE: tcp_parseopt:pcb <- $r4
	.loc	4 1787 46               @ ../Libraries/lwip-1.4.1/src/core/tcp_in.c:1787:46
	adds	r3, r2, #4
.Ltmp299:
	.loc	4 1787 21               @ ../Libraries/lwip-1.4.1/src/core/tcp_in.c:1787:21
	cmp	r3, r1
.Ltmp300:
	.loc	4 1840 1 is_stmt 1      @ ../Libraries/lwip-1.4.1/src/core/tcp_in.c:1840:1
	it	hi
	pophi	{r4, r5, r6, pc}
.Ltmp301:
	.loc	4 1794 24               @ ../Libraries/lwip-1.4.1/src/core/tcp_in.c:1794:24
	ldrb	r2, [r5, #2]
	.loc	4 1794 44 is_stmt 0     @ ../Libraries/lwip-1.4.1/src/core/tcp_in.c:1794:44
	ldrb	r6, [r5, #3]
	.loc	4 1794 42               @ ../Libraries/lwip-1.4.1/src/core/tcp_in.c:1794:42
	orr.w	r2, r6, r2, lsl #8
.Ltmp302:
	@DEBUG_VALUE: tcp_parseopt:mss <- $r2
	.loc	4 1796 45 is_stmt 1     @ ../Libraries/lwip-1.4.1/src/core/tcp_in.c:1796:45
	subs	r6, r2, #1
	cmp	r6, r12
	it	hi
	movwhi	r2, #1460
.Ltmp303:
	.loc	4 1796 26 is_stmt 0     @ ../Libraries/lwip-1.4.1/src/core/tcp_in.c:1796:26
	strh	r2, [r4, #54]
.Ltmp304:
	@DEBUG_VALUE: tcp_parseopt:c <- undef
.LBB1_11:                               @   in Loop: Header=BB1_3 Depth=1
	@DEBUG_VALUE: tcp_parseopt:opts <- $r0
	@DEBUG_VALUE: tcp_parseopt:c <- $r3
	.loc	4 1771 21 is_stmt 1     @ ../Libraries/lwip-1.4.1/src/core/tcp_in.c:1771:21
	uxth	r2, r3
.Ltmp305:
	.loc	4 1771 9 is_stmt 0      @ ../Libraries/lwip-1.4.1/src/core/tcp_in.c:1771:9
	cmp	r2, r1
	blo	.LBB1_3
.Ltmp306:
.LBB1_12:
	.loc	4 1840 1 is_stmt 1      @ ../Libraries/lwip-1.4.1/src/core/tcp_in.c:1840:1
	pop	{r4, r5, r6, pc}
.Ltmp307:
.Lfunc_end1:
	.size	tcp_parseopt, .Lfunc_end1-tcp_parseopt
	.cfi_endproc
	.cantunwind
	.fnend
                                        @ -- End function
	.section	.text.tcp_receive,"ax",%progbits
	.p2align	1               @ -- Begin function tcp_receive
	.type	tcp_receive,%function
	.code	16                      @ @tcp_receive
	.thumb_func
tcp_receive:
.Lfunc_begin2:
	.loc	4 948 0                 @ ../Libraries/lwip-1.4.1/src/core/tcp_in.c:948:0
	.fnstart
	.cfi_startproc
@ %bb.0:
	.save	{r4, r5, r6, r7, r8, r9, r10, r11, lr}
	push.w	{r4, r5, r6, r7, r8, r9, r10, r11, lr}
	.cfi_def_cfa_offset 36
	.cfi_offset lr, -4
	.cfi_offset r11, -8
	.cfi_offset r10, -12
	.cfi_offset r9, -16
	.cfi_offset r8, -20
	.cfi_offset r7, -24
	.cfi_offset r6, -28
	.cfi_offset r5, -32
	.cfi_offset r4, -36
	.pad	#4
	sub	sp, #4
	.cfi_def_cfa_offset 40
	@DEBUG_VALUE: tcp_receive:pcb <- $r0
	mov	r4, r0
.Ltmp308:
	@DEBUG_VALUE: tcp_receive:found_dupack <- 0
	@DEBUG_VALUE: tcp_receive:pcb <- $r4
	.loc	4 966 9 prologue_end    @ ../Libraries/lwip-1.4.1/src/core/tcp_in.c:966:9
	movw	r0, :lower16:flags
	movt	r0, :upper16:flags
	ldrb	r0, [r0]
.Ltmp309:
	.loc	4 966 9 is_stmt 0       @ ../Libraries/lwip-1.4.1/src/core/tcp_in.c:966:9
	lsls	r0, r0, #27
	bpl.w	.LBB2_45
.Ltmp310:
@ %bb.1:
	@DEBUG_VALUE: tcp_receive:pcb <- $r4
	.loc	4 971 13 is_stmt 1      @ ../Libraries/lwip-1.4.1/src/core/tcp_in.c:971:13
	movw	r2, :lower16:seqno
.Ltmp311:
	.loc	4 968 31                @ ../Libraries/lwip-1.4.1/src/core/tcp_in.c:968:31
	ldrh.w	r0, [r4, #96]
.Ltmp312:
	.loc	4 971 13                @ ../Libraries/lwip-1.4.1/src/core/tcp_in.c:971:13
	ldrd	r1, r7, [r4, #84]
	movt	r2, :upper16:seqno
	ldr	r6, [r2]
	subs	r2, r1, r6
	.loc	4 971 45 is_stmt 0      @ ../Libraries/lwip-1.4.1/src/core/tcp_in.c:971:45
	cmp	r2, #0
	blt	.LBB2_6
.Ltmp313:
@ %bb.2:
	@DEBUG_VALUE: tcp_receive:pcb <- $r4
	.loc	4 0 0                   @ ../Libraries/lwip-1.4.1/src/core/tcp_in.c:0:0
	movw	r2, :lower16:ackno
	.loc	4 972 40 is_stmt 1      @ ../Libraries/lwip-1.4.1/src/core/tcp_in.c:972:40
	cmp	r1, r6
	.loc	4 0 0 is_stmt 0         @ ../Libraries/lwip-1.4.1/src/core/tcp_in.c:0:0
	movt	r2, :upper16:ackno
	ldr	r2, [r2]
	.loc	4 972 40                @ ../Libraries/lwip-1.4.1/src/core/tcp_in.c:972:40
	bne	.LBB2_4
.Ltmp314:
@ %bb.3:
	@DEBUG_VALUE: tcp_receive:pcb <- $r4
	.loc	4 0 0                   @ ../Libraries/lwip-1.4.1/src/core/tcp_in.c:0:0
	subs	r1, r7, r2
	.loc	4 972 40                @ ../Libraries/lwip-1.4.1/src/core/tcp_in.c:972:40
	cmp	r1, #0
	blt	.LBB2_6
.Ltmp315:
.LBB2_4:
	@DEBUG_VALUE: tcp_receive:pcb <- $r4
	.loc	4 973 40 is_stmt 1      @ ../Libraries/lwip-1.4.1/src/core/tcp_in.c:973:40
	cmp	r7, r2
	bne	.LBB2_20
.Ltmp316:
@ %bb.5:
	@DEBUG_VALUE: tcp_receive:pcb <- $r4
	.loc	4 973 43 is_stmt 0      @ ../Libraries/lwip-1.4.1/src/core/tcp_in.c:973:43
	movw	r1, :lower16:tcphdr
	mov	r3, r0
.Ltmp317:
	.loc	4 1034 13 is_stmt 1     @ ../Libraries/lwip-1.4.1/src/core/tcp_in.c:1034:13
	mov	r2, r7
.Ltmp318:
	.loc	4 973 43                @ ../Libraries/lwip-1.4.1/src/core/tcp_in.c:973:43
	movt	r1, :upper16:tcphdr
	ldr	r1, [r1]
	.loc	4 973 51 is_stmt 0      @ ../Libraries/lwip-1.4.1/src/core/tcp_in.c:973:51
	ldrh	r1, [r1, #14]
.Ltmp319:
	.loc	4 971 13 is_stmt 1      @ ../Libraries/lwip-1.4.1/src/core/tcp_in.c:971:13
	cmp	r1, r0
	mov	r1, r7
	bls	.LBB2_13
.Ltmp320:
.LBB2_6:
	@DEBUG_VALUE: tcp_receive:pcb <- $r4
	.loc	4 975 28                @ ../Libraries/lwip-1.4.1/src/core/tcp_in.c:975:28
	movw	r1, :lower16:tcphdr
	movt	r1, :upper16:tcphdr
	ldr	r1, [r1]
	.loc	4 975 36 is_stmt 0      @ ../Libraries/lwip-1.4.1/src/core/tcp_in.c:975:36
	ldrh	r3, [r1, #14]
	.loc	4 975 26                @ ../Libraries/lwip-1.4.1/src/core/tcp_in.c:975:26
	strh.w	r3, [r4, #96]
.Ltmp321:
	.loc	4 978 22 is_stmt 1      @ ../Libraries/lwip-1.4.1/src/core/tcp_in.c:978:22
	ldrh.w	r1, [r4, #98]
.Ltmp322:
	.loc	4 978 17 is_stmt 0      @ ../Libraries/lwip-1.4.1/src/core/tcp_in.c:978:17
	cmp	r1, r3
	.loc	4 983 28 is_stmt 1      @ ../Libraries/lwip-1.4.1/src/core/tcp_in.c:983:28
	movw	r1, :lower16:ackno
.Ltmp323:
	.loc	4 980 34                @ ../Libraries/lwip-1.4.1/src/core/tcp_in.c:980:34
	it	lo
	strhlo.w	r3, [r4, #98]
.Ltmp324:
	.loc	4 982 26                @ ../Libraries/lwip-1.4.1/src/core/tcp_in.c:982:26
	str	r6, [r4, #84]
	.loc	4 983 28                @ ../Libraries/lwip-1.4.1/src/core/tcp_in.c:983:28
	movt	r1, :upper16:ackno
	.loc	4 984 17                @ ../Libraries/lwip-1.4.1/src/core/tcp_in.c:984:17
	cmp	r3, #0
	.loc	4 983 28                @ ../Libraries/lwip-1.4.1/src/core/tcp_in.c:983:28
	ldr	r1, [r1]
	.loc	4 983 26 is_stmt 0      @ ../Libraries/lwip-1.4.1/src/core/tcp_in.c:983:26
	str	r1, [r4, #88]
.Ltmp325:
	.loc	4 0 0                   @ ../Libraries/lwip-1.4.1/src/core/tcp_in.c:0:0
	ldrb.w	r2, [r4, #149]
.Ltmp326:
	.loc	4 984 17 is_stmt 1      @ ../Libraries/lwip-1.4.1/src/core/tcp_in.c:984:17
	beq	.LBB2_9
.Ltmp327:
@ %bb.7:
	@DEBUG_VALUE: tcp_receive:pcb <- $r4
	.loc	4 993 22                @ ../Libraries/lwip-1.4.1/src/core/tcp_in.c:993:22
	cbz	r2, .LBB2_12
.Ltmp328:
@ %bb.8:
	@DEBUG_VALUE: tcp_receive:pcb <- $r4
	.loc	4 0 22 is_stmt 0        @ ../Libraries/lwip-1.4.1/src/core/tcp_in.c:0:22
	movs	r2, #0
.Ltmp329:
	.loc	4 996 38 is_stmt 1      @ ../Libraries/lwip-1.4.1/src/core/tcp_in.c:996:38
	strb.w	r2, [r4, #149]
	b	.LBB2_12
.Ltmp330:
.LBB2_9:
	@DEBUG_VALUE: tcp_receive:pcb <- $r4
	.loc	4 986 21                @ ../Libraries/lwip-1.4.1/src/core/tcp_in.c:986:21
	cbnz	r2, .LBB2_11
.Ltmp331:
@ %bb.10:
	@DEBUG_VALUE: tcp_receive:pcb <- $r4
	.loc	4 0 21 is_stmt 0        @ ../Libraries/lwip-1.4.1/src/core/tcp_in.c:0:21
	mov.w	r2, #256
.Ltmp332:
	.loc	4 989 38 is_stmt 1      @ ../Libraries/lwip-1.4.1/src/core/tcp_in.c:989:38
	strh.w	r2, [r4, #148]
.Ltmp333:
.LBB2_11:
	@DEBUG_VALUE: tcp_receive:pcb <- $r4
	.loc	4 0 38 is_stmt 0        @ ../Libraries/lwip-1.4.1/src/core/tcp_in.c:0:38
	movs	r3, #0
.Ltmp334:
.LBB2_12:
	@DEBUG_VALUE: tcp_receive:pcb <- $r4
	.loc	4 1034 13 is_stmt 1     @ ../Libraries/lwip-1.4.1/src/core/tcp_in.c:1034:13
	mov	r2, r1
.Ltmp335:
.LBB2_13:
	@DEBUG_VALUE: tcp_receive:pcb <- $r4
	ldr	r5, [r4, #72]
	subs	r6, r2, r5
.Ltmp336:
	.loc	4 1034 13 is_stmt 0     @ ../Libraries/lwip-1.4.1/src/core/tcp_in.c:1034:13
	cmp	r6, #0
	ble	.LBB2_17
.Ltmp337:
@ %bb.14:
	@DEBUG_VALUE: tcp_receive:pcb <- $r4
	.loc	4 1079 18 is_stmt 1     @ ../Libraries/lwip-1.4.1/src/core/tcp_in.c:1079:18
	mvns	r0, r5
	add	r0, r2
	cmp	r0, #0
	blt	.LBB2_16
.Ltmp338:
@ %bb.15:
	@DEBUG_VALUE: tcp_receive:pcb <- $r4
	ldr	r0, [r4, #80]
	subs	r0, r2, r0
.Ltmp339:
	.loc	4 1079 18 is_stmt 0     @ ../Libraries/lwip-1.4.1/src/core/tcp_in.c:1079:18
	cmp	r0, #0
	ble	.LBB2_21
.Ltmp340:
.LBB2_16:
	@DEBUG_VALUE: tcp_receive:pcb <- $r4
	.loc	4 0 18                  @ ../Libraries/lwip-1.4.1/src/core/tcp_in.c:0:18
	movs	r0, #0
.Ltmp341:
	.loc	4 1181 24 is_stmt 1     @ ../Libraries/lwip-1.4.1/src/core/tcp_in.c:1181:24
	strh.w	r0, [r4, #100]
	b	.LBB2_33
.Ltmp342:
.LBB2_17:
	@DEBUG_VALUE: tcp_receive:pcb <- $r4
	.loc	4 1038 17               @ ../Libraries/lwip-1.4.1/src/core/tcp_in.c:1038:17
	movw	r6, :lower16:tcplen
	mov.w	r12, #0
.Ltmp343:
	.loc	4 1036 24               @ ../Libraries/lwip-1.4.1/src/core/tcp_in.c:1036:24
	strh.w	r12, [r4, #100]
.Ltmp344:
	.loc	4 1038 17               @ ../Libraries/lwip-1.4.1/src/core/tcp_in.c:1038:17
	movt	r6, :upper16:tcplen
	ldrh	r6, [r6]
.Ltmp345:
	.loc	4 1038 17 is_stmt 0     @ ../Libraries/lwip-1.4.1/src/core/tcp_in.c:1038:17
	cbnz	r6, .LBB2_19
.Ltmp346:
@ %bb.18:
	@DEBUG_VALUE: tcp_receive:pcb <- $r4
	.loc	4 0 17                  @ ../Libraries/lwip-1.4.1/src/core/tcp_in.c:0:17
	add	r0, r7
.Ltmp347:
	@DEBUG_VALUE: tcp_receive:right_wnd_edge <- $r0
	.loc	4 1041 34 is_stmt 1     @ ../Libraries/lwip-1.4.1/src/core/tcp_in.c:1041:34
	add	r1, r3
.Ltmp348:
	.loc	4 1041 21 is_stmt 0     @ ../Libraries/lwip-1.4.1/src/core/tcp_in.c:1041:21
	cmp	r1, r0
.Ltmp349:
	.loc	4 1044 25 is_stmt 1     @ ../Libraries/lwip-1.4.1/src/core/tcp_in.c:1044:25
	it	eq
	cmpeq	r2, r5
	beq.w	.LBB2_96
.Ltmp350:
.LBB2_19:
	@DEBUG_VALUE: tcp_receive:pcb <- $r4
	.loc	4 1076 30               @ ../Libraries/lwip-1.4.1/src/core/tcp_in.c:1076:30
	strb.w	r12, [r4, #71]
	b	.LBB2_33
.Ltmp351:
.LBB2_20:
	@DEBUG_VALUE: tcp_receive:pcb <- $r4
	.loc	4 0 30 is_stmt 0        @ ../Libraries/lwip-1.4.1/src/core/tcp_in.c:0:30
	mov	r3, r0
	mov	r1, r7
	b	.LBB2_13
.Ltmp352:
.LBB2_21:
	@DEBUG_VALUE: tcp_receive:pcb <- $r4
	.loc	4 1086 22 is_stmt 1     @ ../Libraries/lwip-1.4.1/src/core/tcp_in.c:1086:22
	ldrb	r0, [r4, #30]
.Ltmp353:
	.loc	4 1086 17 is_stmt 0     @ ../Libraries/lwip-1.4.1/src/core/tcp_in.c:1086:17
	lsls	r1, r0, #29
	bpl	.LBB2_23
.Ltmp354:
@ %bb.22:
	@DEBUG_VALUE: tcp_receive:pcb <- $r4
	.loc	4 1088 28 is_stmt 1     @ ../Libraries/lwip-1.4.1/src/core/tcp_in.c:1088:28
	and	r0, r0, #251
	strb	r0, [r4, #30]
	.loc	4 1089 34               @ ../Libraries/lwip-1.4.1/src/core/tcp_in.c:1089:34
	ldrh.w	r0, [r4, #78]
	.loc	4 1089 27 is_stmt 0     @ ../Libraries/lwip-1.4.1/src/core/tcp_in.c:1089:27
	strh.w	r0, [r4, #76]
.Ltmp355:
.LBB2_23:
	@DEBUG_VALUE: tcp_receive:pcb <- $r4
	.loc	4 0 27                  @ ../Libraries/lwip-1.4.1/src/core/tcp_in.c:0:27
	movs	r0, #0
	.loc	4 1093 23 is_stmt 1     @ ../Libraries/lwip-1.4.1/src/core/tcp_in.c:1093:23
	strh.w	r0, [r4, #70]
	.loc	4 1099 24               @ ../Libraries/lwip-1.4.1/src/core/tcp_in.c:1099:24
	strh.w	r6, [r4, #100]
	.loc	4 1105 26               @ ../Libraries/lwip-1.4.1/src/core/tcp_in.c:1105:26
	str	r2, [r4, #72]
	.loc	4 1096 30               @ ../Libraries/lwip-1.4.1/src/core/tcp_in.c:1096:30
	ldrsh.w	r0, [r4, #64]
	.loc	4 1096 46 is_stmt 0     @ ../Libraries/lwip-1.4.1/src/core/tcp_in.c:1096:46
	ldrh.w	r1, [r4, #66]
	.loc	4 1096 39               @ ../Libraries/lwip-1.4.1/src/core/tcp_in.c:1096:39
	add.w	r0, r1, r0, lsr #3
	.loc	4 1096 22               @ ../Libraries/lwip-1.4.1/src/core/tcp_in.c:1096:22
	strh.w	r0, [r4, #68]
	.loc	4 1101 26 is_stmt 1     @ ../Libraries/lwip-1.4.1/src/core/tcp_in.c:1101:26
	ldrh.w	r0, [r4, #102]
	add	r0, r6
	strh.w	r0, [r4, #102]
.Ltmp356:
	.loc	4 1109 22               @ ../Libraries/lwip-1.4.1/src/core/tcp_in.c:1109:22
	ldrb	r0, [r4, #24]
.Ltmp357:
	.loc	4 1109 17 is_stmt 0     @ ../Libraries/lwip-1.4.1/src/core/tcp_in.c:1109:17
	cmp	r0, #4
	blo	.LBB2_25
.Ltmp358:
@ %bb.24:
	@DEBUG_VALUE: tcp_receive:pcb <- $r4
	.loc	4 1111 26 is_stmt 1     @ ../Libraries/lwip-1.4.1/src/core/tcp_in.c:1111:26
	ldrh.w	r0, [r4, #76]
	.loc	4 1111 38 is_stmt 0     @ ../Libraries/lwip-1.4.1/src/core/tcp_in.c:1111:38
	ldrh.w	r1, [r4, #78]
.Ltmp359:
	.loc	4 1111 21               @ ../Libraries/lwip-1.4.1/src/core/tcp_in.c:1111:21
	cmp	r0, r1
.Ltmp360:
	.loc	4 1113 51 is_stmt 1     @ ../Libraries/lwip-1.4.1/src/core/tcp_in.c:1113:51
	ldrh	r1, [r4, #54]
	.loc	4 1113 44 is_stmt 0     @ ../Libraries/lwip-1.4.1/src/core/tcp_in.c:1113:44
	iteee	lo
	addlo	r1, r0
.Ltmp361:
	.loc	4 1121 60 is_stmt 1     @ ../Libraries/lwip-1.4.1/src/core/tcp_in.c:1121:60
	mulhs	r1, r1, r1
	.loc	4 1121 71 is_stmt 0     @ ../Libraries/lwip-1.4.1/src/core/tcp_in.c:1121:71
	udivhs	r1, r1, r0
	.loc	4 1121 38               @ ../Libraries/lwip-1.4.1/src/core/tcp_in.c:1121:38
	addhs	r1, r0
.Ltmp362:
	@DEBUG_VALUE: new_cwnd <- $r1
	.loc	4 0 0                   @ ../Libraries/lwip-1.4.1/src/core/tcp_in.c:0:0
	uxth	r2, r1
	cmp	r2, r0
	it	hi
	strhhi.w	r1, [r4, #76]
.Ltmp363:
.LBB2_25:
	@DEBUG_VALUE: tcp_receive:pcb <- $r4
	.loc	4 1138 25 is_stmt 1     @ ../Libraries/lwip-1.4.1/src/core/tcp_in.c:1138:25
	ldr	r0, [r4, #112]
	movs	r6, #0
	.loc	4 1138 41 is_stmt 0     @ ../Libraries/lwip-1.4.1/src/core/tcp_in.c:1138:41
	cbz	r0, .LBB2_31
.Ltmp364:
@ %bb.26:
	@DEBUG_VALUE: tcp_receive:pcb <- $r4
	.loc	4 0 41                  @ ../Libraries/lwip-1.4.1/src/core/tcp_in.c:0:41
	movw	r7, :lower16:ackno
	movt	r7, :upper16:ackno
.Ltmp365:
	.p2align	2
.LBB2_27:                               @ =>This Inner Loop Header: Depth=1
	@DEBUG_VALUE: tcp_receive:pcb <- $r4
	.loc	4 1139 21 is_stmt 1     @ ../Libraries/lwip-1.4.1/src/core/tcp_in.c:1139:21
	ldr	r0, [r0, #16]
	ldr	r0, [r0, #4]
	bl	lwip_ntohl
	ldr	r1, [r4, #112]
	ldrh	r2, [r1, #8]
	adds	r5, r0, r2
	ldr	r0, [r1, #16]
	ldrh	r0, [r0, #12]
	bl	lwip_ntohs
	ldr	r1, [r7]
	lsls	r0, r0, #30
	sub.w	r1, r5, r1
	it	ne
	addne	r1, #1
	.loc	4 0 0 is_stmt 0         @ ../Libraries/lwip-1.4.1/src/core/tcp_in.c:0:0
	ldr	r5, [r4, #112]
.Ltmp366:
	@DEBUG_VALUE: tcp_receive:next <- $r5
	.loc	4 1138 13 is_stmt 1     @ ../Libraries/lwip-1.4.1/src/core/tcp_in.c:1138:13
	cmp	r1, #0
	bgt	.LBB2_32
.Ltmp367:
@ %bb.28:                               @   in Loop: Header=BB2_27 Depth=1
	@DEBUG_VALUE: tcp_receive:next <- $r5
	@DEBUG_VALUE: tcp_receive:pcb <- $r4
	.loc	4 1148 46               @ ../Libraries/lwip-1.4.1/src/core/tcp_in.c:1148:46
	ldr	r0, [r5]
	.loc	4 1148 30 is_stmt 0     @ ../Libraries/lwip-1.4.1/src/core/tcp_in.c:1148:30
	str	r0, [r4, #112]
.Ltmp368:
	.loc	4 1151 17 is_stmt 1     @ ../Libraries/lwip-1.4.1/src/core/tcp_in.c:1151:17
	ldr	r0, [r5, #4]
	bl	pbuf_clen
.Ltmp369:
	.loc	4 1153 27               @ ../Libraries/lwip-1.4.1/src/core/tcp_in.c:1153:27
	ldrh.w	r0, [r4, #100]
	.loc	4 1153 39 is_stmt 0     @ ../Libraries/lwip-1.4.1/src/core/tcp_in.c:1153:39
	cbz	r0, .LBB2_30
.Ltmp370:
@ %bb.29:                               @   in Loop: Header=BB2_27 Depth=1
	@DEBUG_VALUE: tcp_receive:next <- $r5
	@DEBUG_VALUE: tcp_receive:pcb <- $r4
	.loc	4 1153 44               @ ../Libraries/lwip-1.4.1/src/core/tcp_in.c:1153:44
	ldr	r0, [r5, #16]
	ldrh	r0, [r0, #12]
	bl	lwip_ntohs
.Ltmp371:
	.loc	4 1153 21               @ ../Libraries/lwip-1.4.1/src/core/tcp_in.c:1153:21
	lsls	r0, r0, #31
.Ltmp372:
	.loc	4 1155 31 is_stmt 1     @ ../Libraries/lwip-1.4.1/src/core/tcp_in.c:1155:31
	ittt	ne
	ldrhne.w	r0, [r4, #100]
	subne	r0, #1
	strhne.w	r0, [r4, #100]
.Ltmp373:
.LBB2_30:                               @   in Loop: Header=BB2_27 Depth=1
	@DEBUG_VALUE: tcp_receive:next <- $r5
	@DEBUG_VALUE: tcp_receive:pcb <- $r4
	.loc	4 1158 54               @ ../Libraries/lwip-1.4.1/src/core/tcp_in.c:1158:54
	ldr	r0, [r5, #4]
	.loc	4 1158 38 is_stmt 0     @ ../Libraries/lwip-1.4.1/src/core/tcp_in.c:1158:38
	bl	pbuf_clen
	.loc	4 1158 35               @ ../Libraries/lwip-1.4.1/src/core/tcp_in.c:1158:35
	ldrh.w	r1, [r4, #104]
	subs	r0, r1, r0
	strh.w	r0, [r4, #104]
	.loc	4 1159 17 is_stmt 1     @ ../Libraries/lwip-1.4.1/src/core/tcp_in.c:1159:17
	mov	r0, r5
	bl	tcp_seg_free
.Ltmp374:
	.loc	4 1138 25               @ ../Libraries/lwip-1.4.1/src/core/tcp_in.c:1138:25
	ldr	r0, [r4, #112]
	.loc	4 1138 41 is_stmt 0     @ ../Libraries/lwip-1.4.1/src/core/tcp_in.c:1138:41
	cmp	r0, #0
	bne	.LBB2_27
.Ltmp375:
.LBB2_31:
	@DEBUG_VALUE: tcp_receive:pcb <- $r4
	.loc	4 0 41                  @ ../Libraries/lwip-1.4.1/src/core/tcp_in.c:0:41
	movs	r5, #0
.Ltmp376:
.LBB2_32:
	@DEBUG_VALUE: tcp_receive:pcb <- $r4
	.loc	4 1176 26 is_stmt 1     @ ../Libraries/lwip-1.4.1/src/core/tcp_in.c:1176:26
	strb	r6, [r4, #31]
	.loc	4 1171 17               @ ../Libraries/lwip-1.4.1/src/core/tcp_in.c:1171:17
	cmp	r5, #0
	it	eq
	moveq.w	r6, #-1
.Ltmp377:
	.loc	4 0 0 is_stmt 0         @ ../Libraries/lwip-1.4.1/src/core/tcp_in.c:0:0
	strh	r6, [r4, #52]
.Ltmp378:
.LBB2_33:
	@DEBUG_VALUE: tcp_receive:pcb <- $r4
	.loc	4 1190 21 is_stmt 1     @ ../Libraries/lwip-1.4.1/src/core/tcp_in.c:1190:21
	ldr	r0, [r4, #108]
	.loc	4 1190 36 is_stmt 0     @ ../Libraries/lwip-1.4.1/src/core/tcp_in.c:1190:36
	cmp	r0, #0
	beq	.LBB2_42
.Ltmp379:
@ %bb.34:
	@DEBUG_VALUE: tcp_receive:pcb <- $r4
	.loc	4 0 36                  @ ../Libraries/lwip-1.4.1/src/core/tcp_in.c:0:36
	movw	r6, :lower16:ackno
	movs	r7, #0
	movt	r6, :upper16:ackno
.Ltmp380:
	.p2align	2
.LBB2_35:                               @ =>This Inner Loop Header: Depth=1
	@DEBUG_VALUE: tcp_receive:pcb <- $r4
	.loc	4 1191 17 is_stmt 1     @ ../Libraries/lwip-1.4.1/src/core/tcp_in.c:1191:17
	ldr	r0, [r0, #16]
	ldr	r5, [r6]
	ldr	r0, [r0, #4]
	bl	lwip_ntohl
	ldr	r1, [r4, #108]
	subs	r0, r5, r0
	ldrh	r2, [r1, #8]
	subs	r5, r0, r2
	ldr	r0, [r1, #16]
	ldrh	r0, [r0, #12]
	bl	lwip_ntohs
	lsls	r0, r0, #30
	it	ne
	subne	r5, #1
	cmp	r5, #0
	blt	.LBB2_42
.Ltmp381:
@ %bb.36:                               @   in Loop: Header=BB2_35 Depth=1
	@DEBUG_VALUE: tcp_receive:pcb <- $r4
	ldr	r0, [r4, #80]
	ldr	r1, [r6]
	subs	r0, r1, r0
	.loc	4 1190 9                @ ../Libraries/lwip-1.4.1/src/core/tcp_in.c:1190:9
	cmp	r0, #0
	bgt	.LBB2_42
.Ltmp382:
@ %bb.37:                               @   in Loop: Header=BB2_35 Depth=1
	@DEBUG_VALUE: tcp_receive:pcb <- $r4
	.loc	4 1198 25               @ ../Libraries/lwip-1.4.1/src/core/tcp_in.c:1198:25
	ldr	r5, [r4, #108]
.Ltmp383:
	@DEBUG_VALUE: tcp_receive:next <- $r5
	.loc	4 1199 40               @ ../Libraries/lwip-1.4.1/src/core/tcp_in.c:1199:40
	ldr	r0, [r5]
	.loc	4 1201 17               @ ../Libraries/lwip-1.4.1/src/core/tcp_in.c:1201:17
	cmp	r0, #0
	.loc	4 1199 25               @ ../Libraries/lwip-1.4.1/src/core/tcp_in.c:1199:25
	str	r0, [r4, #108]
	.loc	4 1201 17               @ ../Libraries/lwip-1.4.1/src/core/tcp_in.c:1201:17
	bne	.LBB2_39
.Ltmp384:
@ %bb.38:                               @   in Loop: Header=BB2_35 Depth=1
	@DEBUG_VALUE: tcp_receive:next <- $r5
	@DEBUG_VALUE: tcp_receive:pcb <- $r4
	.loc	4 1203 38               @ ../Libraries/lwip-1.4.1/src/core/tcp_in.c:1203:38
	strh.w	r7, [r4, #106]
.Ltmp385:
.LBB2_39:                               @   in Loop: Header=BB2_35 Depth=1
	@DEBUG_VALUE: tcp_receive:next <- $r5
	@DEBUG_VALUE: tcp_receive:pcb <- $r4
	.loc	4 1207 13               @ ../Libraries/lwip-1.4.1/src/core/tcp_in.c:1207:13
	ldr	r0, [r5, #4]
	bl	pbuf_clen
.Ltmp386:
	.loc	4 1209 23               @ ../Libraries/lwip-1.4.1/src/core/tcp_in.c:1209:23
	ldrh.w	r0, [r4, #100]
	.loc	4 1209 35 is_stmt 0     @ ../Libraries/lwip-1.4.1/src/core/tcp_in.c:1209:35
	cbz	r0, .LBB2_41
.Ltmp387:
@ %bb.40:                               @   in Loop: Header=BB2_35 Depth=1
	@DEBUG_VALUE: tcp_receive:next <- $r5
	@DEBUG_VALUE: tcp_receive:pcb <- $r4
	.loc	4 1209 40               @ ../Libraries/lwip-1.4.1/src/core/tcp_in.c:1209:40
	ldr	r0, [r5, #16]
	ldrh	r0, [r0, #12]
	bl	lwip_ntohs
.Ltmp388:
	.loc	4 1209 17               @ ../Libraries/lwip-1.4.1/src/core/tcp_in.c:1209:17
	lsls	r0, r0, #31
.Ltmp389:
	.loc	4 1211 27 is_stmt 1     @ ../Libraries/lwip-1.4.1/src/core/tcp_in.c:1211:27
	ittt	ne
	ldrhne.w	r0, [r4, #100]
	subne	r0, #1
	strhne.w	r0, [r4, #100]
.Ltmp390:
.LBB2_41:                               @   in Loop: Header=BB2_35 Depth=1
	@DEBUG_VALUE: tcp_receive:next <- $r5
	@DEBUG_VALUE: tcp_receive:pcb <- $r4
	.loc	4 1213 50               @ ../Libraries/lwip-1.4.1/src/core/tcp_in.c:1213:50
	ldr	r0, [r5, #4]
	.loc	4 1213 34 is_stmt 0     @ ../Libraries/lwip-1.4.1/src/core/tcp_in.c:1213:34
	bl	pbuf_clen
	.loc	4 1213 31               @ ../Libraries/lwip-1.4.1/src/core/tcp_in.c:1213:31
	ldrh.w	r1, [r4, #104]
	subs	r0, r1, r0
	strh.w	r0, [r4, #104]
	.loc	4 1214 13 is_stmt 1     @ ../Libraries/lwip-1.4.1/src/core/tcp_in.c:1214:13
	mov	r0, r5
	bl	tcp_seg_free
.Ltmp391:
	.loc	4 1190 21               @ ../Libraries/lwip-1.4.1/src/core/tcp_in.c:1190:21
	ldr	r0, [r4, #108]
	.loc	4 1190 36 is_stmt 0     @ ../Libraries/lwip-1.4.1/src/core/tcp_in.c:1190:36
	cmp	r0, #0
	bne	.LBB2_35
.Ltmp392:
.LBB2_42:
	@DEBUG_VALUE: tcp_receive:pcb <- $r4
	.loc	4 1230 18 is_stmt 1     @ ../Libraries/lwip-1.4.1/src/core/tcp_in.c:1230:18
	ldr	r0, [r4, #56]
	.loc	4 1230 25 is_stmt 0     @ ../Libraries/lwip-1.4.1/src/core/tcp_in.c:1230:25
	cbz	r0, .LBB2_45
.Ltmp393:
@ %bb.43:
	@DEBUG_VALUE: tcp_receive:pcb <- $r4
	.loc	4 1230 28               @ ../Libraries/lwip-1.4.1/src/core/tcp_in.c:1230:28
	movw	r1, :lower16:ackno
	ldr	r2, [r4, #60]
	movt	r1, :upper16:ackno
	ldr	r1, [r1]
	subs	r1, r2, r1
.Ltmp394:
	.loc	4 1230 13               @ ../Libraries/lwip-1.4.1/src/core/tcp_in.c:1230:13
	cmp.w	r1, #-1
	bgt	.LBB2_45
.Ltmp395:
@ %bb.44:
	@DEBUG_VALUE: tcp_receive:pcb <- $r4
	.loc	4 1234 26 is_stmt 1     @ ../Libraries/lwip-1.4.1/src/core/tcp_in.c:1234:26
	movw	r1, :lower16:tcp_ticks
	movs	r2, #0
	movt	r1, :upper16:tcp_ticks
	ldr	r1, [r1]
	.loc	4 1253 25               @ ../Libraries/lwip-1.4.1/src/core/tcp_in.c:1253:25
	str	r2, [r4, #56]
	.loc	4 1246 22               @ ../Libraries/lwip-1.4.1/src/core/tcp_in.c:1246:22
	ldrsh.w	r2, [r4, #66]
	.loc	4 1234 36               @ ../Libraries/lwip-1.4.1/src/core/tcp_in.c:1234:36
	subs	r0, r1, r0
	.loc	4 1240 27               @ ../Libraries/lwip-1.4.1/src/core/tcp_in.c:1240:27
	ldrsh.w	r1, [r4, #64]
	.loc	4 1240 19 is_stmt 0     @ ../Libraries/lwip-1.4.1/src/core/tcp_in.c:1240:19
	sub.w	r0, r0, r1, asr #3
	.loc	4 1241 21 is_stmt 1     @ ../Libraries/lwip-1.4.1/src/core/tcp_in.c:1241:21
	add	r1, r0
	.loc	4 1241 24 is_stmt 0     @ ../Libraries/lwip-1.4.1/src/core/tcp_in.c:1241:24
	lsls	r3, r0, #16
	sxth	r7, r0
	.loc	4 1241 21               @ ../Libraries/lwip-1.4.1/src/core/tcp_in.c:1241:21
	strh.w	r1, [r4, #64]
	.loc	4 1242 17 is_stmt 1     @ ../Libraries/lwip-1.4.1/src/core/tcp_in.c:1242:17
	cmp	r3, #0
	it	lt
	rsblt	r0, r7, #0
	.loc	4 1241 21               @ ../Libraries/lwip-1.4.1/src/core/tcp_in.c:1241:21
	sxth	r1, r1
	.loc	4 1246 19               @ ../Libraries/lwip-1.4.1/src/core/tcp_in.c:1246:19
	sub.w	r0, r0, r2, lsr #2
	.loc	4 1247 21               @ ../Libraries/lwip-1.4.1/src/core/tcp_in.c:1247:21
	add	r0, r2
	strh.w	r0, [r4, #66]
	.loc	4 1248 39               @ ../Libraries/lwip-1.4.1/src/core/tcp_in.c:1248:39
	add.w	r0, r0, r1, lsr #3
	.loc	4 1248 22 is_stmt 0     @ ../Libraries/lwip-1.4.1/src/core/tcp_in.c:1248:22
	strh.w	r0, [r4, #68]
.Ltmp396:
.LBB2_45:
	@DEBUG_VALUE: tcp_receive:pcb <- $r4
	.loc	4 1261 10 is_stmt 1     @ ../Libraries/lwip-1.4.1/src/core/tcp_in.c:1261:10
	movw	r7, :lower16:tcplen
	movt	r7, :upper16:tcplen
	ldrh	r2, [r7]
	.loc	4 1261 22 is_stmt 0     @ ../Libraries/lwip-1.4.1/src/core/tcp_in.c:1261:22
	cbz	r2, .LBB2_51
.Ltmp397:
@ %bb.46:
	@DEBUG_VALUE: tcp_receive:pcb <- $r4
	.loc	4 1261 31               @ ../Libraries/lwip-1.4.1/src/core/tcp_in.c:1261:31
	ldrb	r0, [r4, #24]
.Ltmp398:
	.loc	4 1261 9                @ ../Libraries/lwip-1.4.1/src/core/tcp_in.c:1261:9
	cmp	r0, #6
	bhi	.LBB2_51
.Ltmp399:
@ %bb.47:
	@DEBUG_VALUE: tcp_receive:pcb <- $r4
	.loc	4 1293 13 is_stmt 1     @ ../Libraries/lwip-1.4.1/src/core/tcp_in.c:1293:13
	movw	r8, :lower16:seqno
	ldr	r0, [r4, #40]
	movt	r8, :upper16:seqno
	ldr.w	r1, [r8]
	mvns	r3, r1
	add	r3, r0
	cmp	r3, #0
	blt	.LBB2_49
.Ltmp400:
@ %bb.48:
	@DEBUG_VALUE: tcp_receive:pcb <- $r4
	rsb.w	r2, r2, #1
	add	r2, r0
	subs	r2, r2, r1
.Ltmp401:
	.loc	4 1293 13 is_stmt 0     @ ../Libraries/lwip-1.4.1/src/core/tcp_in.c:1293:13
	cmp	r2, #0
	ble	.LBB2_56
.Ltmp402:
.LBB2_49:
	@DEBUG_VALUE: tcp_receive:pcb <- $r4
	.loc	4 1352 17 is_stmt 1     @ ../Libraries/lwip-1.4.1/src/core/tcp_in.c:1352:17
	subs	r2, r1, r0
.Ltmp403:
	.loc	4 1352 17 is_stmt 0     @ ../Libraries/lwip-1.4.1/src/core/tcp_in.c:1352:17
	cmp.w	r2, #-1
	bgt	.LBB2_60
.Ltmp404:
@ %bb.50:
	@DEBUG_VALUE: tcp_receive:pcb <- $r4
	.loc	4 1358 17 is_stmt 1     @ ../Libraries/lwip-1.4.1/src/core/tcp_in.c:1358:17
	ldrb	r0, [r4, #30]
	orr	r0, r0, #2
	strb	r0, [r4, #30]
	b	.LBB2_61
.Ltmp405:
.LBB2_51:
	@DEBUG_VALUE: tcp_receive:pcb <- $r4
	.loc	4 1740 14               @ ../Libraries/lwip-1.4.1/src/core/tcp_in.c:1740:14
	movw	r1, :lower16:seqno
	ldr	r0, [r4, #40]
	movt	r1, :upper16:seqno
	ldr	r1, [r1]
	subs	r2, r1, r0
	cmp	r2, #0
	blt	.LBB2_53
.Ltmp406:
@ %bb.52:
	@DEBUG_VALUE: tcp_receive:pcb <- $r4
	adds	r1, #1
	subs	r0, r1, r0
	ldrh	r1, [r4, #44]
	subs	r0, r0, r1
.Ltmp407:
	.loc	4 1740 13 is_stmt 0     @ ../Libraries/lwip-1.4.1/src/core/tcp_in.c:1740:13
	cmp	r0, #1
	blt	.LBB2_55
.Ltmp408:
.LBB2_53:
	@DEBUG_VALUE: tcp_receive:pcb <- $r4
	.loc	4 1742 13 is_stmt 1     @ ../Libraries/lwip-1.4.1/src/core/tcp_in.c:1742:13
	ldrb	r0, [r4, #30]
	orr	r0, r0, #2
.Ltmp409:
.LBB2_54:
	@DEBUG_VALUE: tcp_receive:pcb <- $r4
	.loc	4 0 0 is_stmt 0         @ ../Libraries/lwip-1.4.1/src/core/tcp_in.c:0:0
	strb	r0, [r4, #30]
.Ltmp410:
.LBB2_55:
	.loc	4 1745 1 is_stmt 1      @ ../Libraries/lwip-1.4.1/src/core/tcp_in.c:1745:1
	add	sp, #4
	pop.w	{r4, r5, r6, r7, r8, r9, r10, r11, pc}
.LBB2_56:
.Ltmp411:
	@DEBUG_VALUE: tcp_receive:pcb <- $r4
	.loc	4 1316 23               @ ../Libraries/lwip-1.4.1/src/core/tcp_in.c:1316:23
	movw	r5, :lower16:inseg
	.loc	4 1315 32               @ ../Libraries/lwip-1.4.1/src/core/tcp_in.c:1315:32
	subs	r1, r0, r1
.Ltmp412:
	@DEBUG_VALUE: tcp_receive:off <- $r1
	.loc	4 1316 23               @ ../Libraries/lwip-1.4.1/src/core/tcp_in.c:1316:23
	movt	r5, :upper16:inseg
	ldr	r0, [r5, #4]
.Ltmp413:
	@DEBUG_VALUE: tcp_receive:p <- $r0
	.loc	4 1319 26               @ ../Libraries/lwip-1.4.1/src/core/tcp_in.c:1319:26
	ldrh	r2, [r0, #10]
.Ltmp414:
	.loc	4 1319 17 is_stmt 0     @ ../Libraries/lwip-1.4.1/src/core/tcp_in.c:1319:17
	cmp	r1, r2
	ble	.LBB2_59
.Ltmp415:
@ %bb.57:
	@DEBUG_VALUE: tcp_receive:p <- $r0
	@DEBUG_VALUE: tcp_receive:off <- $r1
	@DEBUG_VALUE: tcp_receive:pcb <- $r4
	.loc	4 1321 17 is_stmt 1     @ ../Libraries/lwip-1.4.1/src/core/tcp_in.c:1321:17
	ldrh	r3, [r0, #8]
	movs	r6, #0
.Ltmp416:
	.loc	4 1322 31               @ ../Libraries/lwip-1.4.1/src/core/tcp_in.c:1322:31
	subs	r3, r3, r1
.Ltmp417:
	@DEBUG_VALUE: tcp_receive:new_tot_len <- $r3
	.p2align	2
.LBB2_58:                               @ =>This Inner Loop Header: Depth=1
	@DEBUG_VALUE: tcp_receive:new_tot_len <- $r3
	@DEBUG_VALUE: tcp_receive:p <- $r0
	@DEBUG_VALUE: tcp_receive:off <- $r1
	@DEBUG_VALUE: tcp_receive:pcb <- $r4
	@DEBUG_VALUE: tcp_receive:off <- $r1
	@DEBUG_VALUE: tcp_receive:p <- $r0
	.loc	4 1330 28               @ ../Libraries/lwip-1.4.1/src/core/tcp_in.c:1330:28
	strh	r6, [r0, #10]
	.loc	4 1329 32               @ ../Libraries/lwip-1.4.1/src/core/tcp_in.c:1329:32
	strh	r3, [r0, #8]
	.loc	4 1325 25               @ ../Libraries/lwip-1.4.1/src/core/tcp_in.c:1325:25
	subs	r1, r1, r2
.Ltmp418:
	@DEBUG_VALUE: tcp_receive:off <- $r1
	.loc	4 1331 28               @ ../Libraries/lwip-1.4.1/src/core/tcp_in.c:1331:28
	ldr	r0, [r0]
.Ltmp419:
	@DEBUG_VALUE: tcp_receive:p <- $r0
	.loc	4 1323 27               @ ../Libraries/lwip-1.4.1/src/core/tcp_in.c:1323:27
	ldrh	r2, [r0, #10]
	.loc	4 1323 17 is_stmt 0     @ ../Libraries/lwip-1.4.1/src/core/tcp_in.c:1323:17
	cmp	r1, r2
	bgt	.LBB2_58
.Ltmp420:
.LBB2_59:
	@DEBUG_VALUE: tcp_receive:p <- $r0
	@DEBUG_VALUE: tcp_receive:off <- $r1
	@DEBUG_VALUE: tcp_receive:pcb <- $r4
	.loc	4 0 0                   @ ../Libraries/lwip-1.4.1/src/core/tcp_in.c:0:0
	rsbs	r1, r1, #0
.Ltmp421:
	sxth	r1, r1
	bl	pbuf_header
.Ltmp422:
	.loc	4 1347 50 is_stmt 1     @ ../Libraries/lwip-1.4.1/src/core/tcp_in.c:1347:50
	ldr.w	r1, [r8]
	.loc	4 1347 40 is_stmt 0     @ ../Libraries/lwip-1.4.1/src/core/tcp_in.c:1347:40
	ldr	r0, [r4, #40]
	.loc	4 1347 23               @ ../Libraries/lwip-1.4.1/src/core/tcp_in.c:1347:23
	ldrh	r2, [r5, #8]
	subs	r1, r1, r0
	.loc	4 1348 41 is_stmt 1     @ ../Libraries/lwip-1.4.1/src/core/tcp_in.c:1348:41
	str.w	r0, [r8]
	.loc	4 1347 23               @ ../Libraries/lwip-1.4.1/src/core/tcp_in.c:1347:23
	add	r1, r2
	strh	r1, [r5, #8]
	.loc	4 1348 19               @ ../Libraries/lwip-1.4.1/src/core/tcp_in.c:1348:19
	ldr	r1, [r5, #16]
	.loc	4 1348 33 is_stmt 0     @ ../Libraries/lwip-1.4.1/src/core/tcp_in.c:1348:33
	str	r0, [r1, #4]
	mov	r1, r0
.Ltmp423:
.LBB2_60:
	@DEBUG_VALUE: tcp_receive:pcb <- $r4
	.loc	4 1365 13 is_stmt 1     @ ../Libraries/lwip-1.4.1/src/core/tcp_in.c:1365:13
	adds	r2, r1, #1
	ldrh	r3, [r4, #44]
	subs	r2, r2, r0
	subs	r2, r2, r3
.Ltmp424:
	.loc	4 1365 13 is_stmt 0     @ ../Libraries/lwip-1.4.1/src/core/tcp_in.c:1365:13
	cmp	r2, #0
	ble	.LBB2_62
.Ltmp425:
.LBB2_61:
	@DEBUG_VALUE: tcp_receive:pcb <- $r4
	.loc	4 1731 13 is_stmt 1     @ ../Libraries/lwip-1.4.1/src/core/tcp_in.c:1731:13
	mov	r0, r4
	add	sp, #4
	pop.w	{r4, r5, r6, r7, r8, r9, r10, r11, lr}
.Ltmp426:
	b	tcp_send_empty_ack
.Ltmp427:
.LBB2_62:
	@DEBUG_VALUE: tcp_receive:pcb <- $r4
	.loc	4 1368 17               @ ../Libraries/lwip-1.4.1/src/core/tcp_in.c:1368:17
	cmp	r1, r0
	bne.w	.LBB2_78
.Ltmp428:
@ %bb.63:
	@DEBUG_VALUE: tcp_receive:pcb <- $r4
	.loc	4 1373 26               @ ../Libraries/lwip-1.4.1/src/core/tcp_in.c:1373:26
	movw	r9, :lower16:inseg
	movt	r9, :upper16:inseg
	ldr.w	r0, [r9, #16]
	ldrh.w	r5, [r9, #8]
	ldrh	r0, [r0, #12]
	bl	lwip_ntohs
	lsls	r0, r0, #30
	it	ne
	addne	r5, #1
	.loc	4 1373 24 is_stmt 0     @ ../Libraries/lwip-1.4.1/src/core/tcp_in.c:1373:24
	strh	r5, [r7]
.Ltmp429:
	.loc	4 1375 35 is_stmt 1     @ ../Libraries/lwip-1.4.1/src/core/tcp_in.c:1375:35
	ldrh	r1, [r4, #44]
.Ltmp430:
	.loc	4 1373 26               @ ../Libraries/lwip-1.4.1/src/core/tcp_in.c:1373:26
	uxth	r0, r5
	.loc	4 1375 21               @ ../Libraries/lwip-1.4.1/src/core/tcp_in.c:1375:21
	cmp	r0, r1
	bls	.LBB2_67
.Ltmp431:
@ %bb.64:
	@DEBUG_VALUE: tcp_receive:pcb <- $r4
	.loc	4 1381 25               @ ../Libraries/lwip-1.4.1/src/core/tcp_in.c:1381:25
	ldr.w	r0, [r9, #16]
	ldrh	r0, [r0, #12]
	bl	lwip_ntohs
.Ltmp432:
	.loc	4 0 0 is_stmt 0         @ ../Libraries/lwip-1.4.1/src/core/tcp_in.c:0:0
	ldr.w	r1, [r9, #16]
	.loc	4 1381 25               @ ../Libraries/lwip-1.4.1/src/core/tcp_in.c:1381:25
	lsls	r0, r0, #31
	.loc	4 0 0                   @ ../Libraries/lwip-1.4.1/src/core/tcp_in.c:0:0
	ldrh	r5, [r1, #12]
	beq	.LBB2_66
.Ltmp433:
@ %bb.65:
	@DEBUG_VALUE: tcp_receive:pcb <- $r4
	.loc	4 1385 25 is_stmt 1     @ ../Libraries/lwip-1.4.1/src/core/tcp_in.c:1385:25
	mov	r0, r5
	bl	lwip_ntohs
	and	r0, r0, #62
	bic	r5, r5, #16128
	bl	lwip_htons
	orrs	r5, r0
	ldr.w	r0, [r9, #16]
	strh	r5, [r0, #12]
.Ltmp434:
.LBB2_66:
	@DEBUG_VALUE: tcp_receive:pcb <- $r4
	.loc	4 1388 38               @ ../Libraries/lwip-1.4.1/src/core/tcp_in.c:1388:38
	ldrh	r0, [r4, #44]
	.loc	4 1388 31 is_stmt 0     @ ../Libraries/lwip-1.4.1/src/core/tcp_in.c:1388:31
	strh.w	r0, [r9, #8]
.Ltmp435:
	.loc	4 1389 25 is_stmt 1     @ ../Libraries/lwip-1.4.1/src/core/tcp_in.c:1389:25
	mov	r0, r5
	bl	lwip_ntohs
.Ltmp436:
	.loc	4 0 0 is_stmt 0         @ ../Libraries/lwip-1.4.1/src/core/tcp_in.c:0:0
	ldrh.w	r1, [r9, #8]
	.loc	4 1389 25               @ ../Libraries/lwip-1.4.1/src/core/tcp_in.c:1389:25
	lsls	r0, r0, #30
.Ltmp437:
	.loc	4 1391 35 is_stmt 1     @ ../Libraries/lwip-1.4.1/src/core/tcp_in.c:1391:35
	itt	mi
	submi	r1, #1
	strhmi.w	r1, [r9, #8]
.Ltmp438:
	.loc	4 1393 40               @ ../Libraries/lwip-1.4.1/src/core/tcp_in.c:1393:40
	ldr.w	r0, [r9, #4]
	.loc	4 1393 21 is_stmt 0     @ ../Libraries/lwip-1.4.1/src/core/tcp_in.c:1393:21
	uxth	r1, r1
	bl	pbuf_realloc
	.loc	4 1394 30 is_stmt 1     @ ../Libraries/lwip-1.4.1/src/core/tcp_in.c:1394:30
	ldr.w	r0, [r9, #16]
	ldrh.w	r5, [r9, #8]
	ldrh	r0, [r0, #12]
	bl	lwip_ntohs
	lsls	r0, r0, #30
	it	ne
	addne	r5, #1
	.loc	4 1394 28 is_stmt 0     @ ../Libraries/lwip-1.4.1/src/core/tcp_in.c:1394:28
	strh	r5, [r7]
.Ltmp439:
.LBB2_67:
	@DEBUG_VALUE: tcp_receive:pcb <- $r4
	.loc	4 1402 26 is_stmt 1     @ ../Libraries/lwip-1.4.1/src/core/tcp_in.c:1402:26
	ldr	r0, [r4, #116]
.Ltmp440:
	.loc	4 1402 21 is_stmt 0     @ ../Libraries/lwip-1.4.1/src/core/tcp_in.c:1402:21
	cmp	r0, #0
	beq.w	.LBB2_107
.Ltmp441:
@ %bb.68:
	@DEBUG_VALUE: tcp_receive:pcb <- $r4
	.loc	4 1404 25 is_stmt 1     @ ../Libraries/lwip-1.4.1/src/core/tcp_in.c:1404:25
	ldr.w	r0, [r9, #16]
	ldrh	r0, [r0, #12]
	bl	lwip_ntohs
	.loc	4 0 0 is_stmt 0         @ ../Libraries/lwip-1.4.1/src/core/tcp_in.c:0:0
	ldr	r6, [r4, #116]
.Ltmp442:
	@DEBUG_VALUE: tcp_receive:next <- $r6
	.loc	4 1404 25               @ ../Libraries/lwip-1.4.1/src/core/tcp_in.c:1404:25
	lsls	r0, r0, #31
	beq	.LBB2_76
	b	.LBB2_70
.Ltmp443:
	.p2align	2
.LBB2_69:                               @   in Loop: Header=BB2_70 Depth=1
	@DEBUG_VALUE: tcp_receive:next <- $r6
	@DEBUG_VALUE: tcp_receive:pcb <- $r4
	@DEBUG_VALUE: old_ooseq <- $r6
	.loc	4 1414 54 is_stmt 1     @ ../Libraries/lwip-1.4.1/src/core/tcp_in.c:1414:54
	ldr	r0, [r6]
	.loc	4 1414 40 is_stmt 0     @ ../Libraries/lwip-1.4.1/src/core/tcp_in.c:1414:40
	str	r0, [r4, #116]
	.loc	4 1415 29 is_stmt 1     @ ../Libraries/lwip-1.4.1/src/core/tcp_in.c:1415:29
	mov	r0, r6
	bl	tcp_seg_free
.Ltmp444:
	.loc	4 1411 37               @ ../Libraries/lwip-1.4.1/src/core/tcp_in.c:1411:37
	ldr	r6, [r4, #116]
.Ltmp445:
.LBB2_70:                               @ =>This Inner Loop Header: Depth=1
	@DEBUG_VALUE: tcp_receive:next <- $r6
	@DEBUG_VALUE: tcp_receive:pcb <- $r4
	.loc	4 1411 25 is_stmt 0     @ ../Libraries/lwip-1.4.1/src/core/tcp_in.c:1411:25
	cmp	r6, #0
	bne	.LBB2_69
	b	.LBB2_107
.Ltmp446:
.LBB2_71:                               @   in Loop: Header=BB2_76 Depth=1
	@DEBUG_VALUE: tcp_receive:next <- $r6
	@DEBUG_VALUE: tcp_receive:pcb <- $r4
	.loc	4 1424 33 is_stmt 1     @ ../Libraries/lwip-1.4.1/src/core/tcp_in.c:1424:33
	ldrh	r1, [r7]
	ldr.w	r0, [r8]
	ldr	r2, [r6, #16]
	mov	r5, r6
.Ltmp447:
	@DEBUG_VALUE: tcp_receive:prev <- $r5
	@DEBUG_VALUE: tcp_receive:next <- $r5
	ldrh	r6, [r6, #8]
	adds	r3, r0, r1
	ldr	r1, [r2, #4]
	subs	r3, r3, r1
	subs	r6, r3, r6
	.loc	4 1423 25               @ ../Libraries/lwip-1.4.1/src/core/tcp_in.c:1423:25
	cmp	r6, #0
	blt.w	.LBB2_104
.Ltmp448:
@ %bb.72:                               @   in Loop: Header=BB2_76 Depth=1
	@DEBUG_VALUE: tcp_receive:prev <- $r5
	@DEBUG_VALUE: tcp_receive:next <- $r5
	@DEBUG_VALUE: tcp_receive:pcb <- $r4
	.loc	4 1428 33               @ ../Libraries/lwip-1.4.1/src/core/tcp_in.c:1428:33
	ldrh	r0, [r2, #12]
	bl	lwip_ntohs
	.loc	4 1428 68 is_stmt 0     @ ../Libraries/lwip-1.4.1/src/core/tcp_in.c:1428:68
	lsls	r0, r0, #31
	beq	.LBB2_75
.Ltmp449:
@ %bb.73:                               @   in Loop: Header=BB2_76 Depth=1
	@DEBUG_VALUE: tcp_receive:prev <- $r5
	@DEBUG_VALUE: tcp_receive:next <- $r5
	@DEBUG_VALUE: tcp_receive:pcb <- $r4
	.loc	4 1429 38 is_stmt 1     @ ../Libraries/lwip-1.4.1/src/core/tcp_in.c:1429:38
	ldr.w	r0, [r9, #16]
	ldrh	r0, [r0, #12]
	bl	lwip_ntohs
.Ltmp450:
	.loc	4 1428 33               @ ../Libraries/lwip-1.4.1/src/core/tcp_in.c:1428:33
	lsls	r0, r0, #30
	bmi	.LBB2_75
.Ltmp451:
@ %bb.74:                               @   in Loop: Header=BB2_76 Depth=1
	@DEBUG_VALUE: tcp_receive:prev <- $r5
	@DEBUG_VALUE: tcp_receive:next <- $r5
	@DEBUG_VALUE: tcp_receive:pcb <- $r4
	.loc	4 1431 33               @ ../Libraries/lwip-1.4.1/src/core/tcp_in.c:1431:33
	ldr.w	r0, [r9, #16]
	ldrh	r6, [r0, #12]
	movs	r0, #1
	bl	lwip_htons
	ldr.w	r1, [r9, #16]
	orrs	r0, r6
	strh	r0, [r1, #12]
	.loc	4 1432 42               @ ../Libraries/lwip-1.4.1/src/core/tcp_in.c:1432:42
	uxth	r0, r0
	ldrh.w	r6, [r9, #8]
	bl	lwip_ntohs
	lsls	r0, r0, #30
	it	ne
	addne	r6, #1
	.loc	4 1432 40 is_stmt 0     @ ../Libraries/lwip-1.4.1/src/core/tcp_in.c:1432:40
	strh	r6, [r7]
.Ltmp452:
.LBB2_75:                               @   in Loop: Header=BB2_76 Depth=1
	@DEBUG_VALUE: tcp_receive:prev <- $r5
	@DEBUG_VALUE: tcp_receive:next <- $r5
	@DEBUG_VALUE: tcp_receive:pcb <- $r4
	.loc	4 1435 42 is_stmt 1     @ ../Libraries/lwip-1.4.1/src/core/tcp_in.c:1435:42
	ldr	r6, [r5]
.Ltmp453:
	@DEBUG_VALUE: tcp_receive:next <- $r6
	.loc	4 1436 29               @ ../Libraries/lwip-1.4.1/src/core/tcp_in.c:1436:29
	mov	r0, r5
	bl	tcp_seg_free
.Ltmp454:
.LBB2_76:                               @ =>This Inner Loop Header: Depth=1
	@DEBUG_VALUE: tcp_receive:next <- $r6
	@DEBUG_VALUE: tcp_receive:pcb <- $r4
	.loc	4 1423 37               @ ../Libraries/lwip-1.4.1/src/core/tcp_in.c:1423:37
	cmp	r6, #0
	bne	.LBB2_71
.Ltmp455:
@ %bb.77:
	@DEBUG_VALUE: tcp_receive:next <- $r6
	@DEBUG_VALUE: tcp_receive:pcb <- $r4
	.loc	4 0 37 is_stmt 0        @ ../Libraries/lwip-1.4.1/src/core/tcp_in.c:0:37
	movs	r5, #0
	b	.LBB2_106
.Ltmp456:
.LBB2_78:
	@DEBUG_VALUE: tcp_receive:pcb <- $r4
	.loc	4 1545 17 is_stmt 1     @ ../Libraries/lwip-1.4.1/src/core/tcp_in.c:1545:17
	mov	r0, r4
	bl	tcp_send_empty_ack
.Ltmp457:
	.loc	4 1548 26               @ ../Libraries/lwip-1.4.1/src/core/tcp_in.c:1548:26
	mov	r9, r4
	ldr	r3, [r9, #116]!
.Ltmp458:
	.loc	4 1548 21 is_stmt 0     @ ../Libraries/lwip-1.4.1/src/core/tcp_in.c:1548:21
	cmp	r3, #0
	beq.w	.LBB2_100
.Ltmp459:
@ %bb.79:
	@DEBUG_VALUE: tcp_receive:pcb <- $r4
	.loc	4 0 21                  @ ../Libraries/lwip-1.4.1/src/core/tcp_in.c:0:21
	ldr.w	r0, [r8]
	movs	r5, #0
	add.w	r12, r0, #1
.Ltmp460:
	.p2align	2
.LBB2_80:                               @ =>This Inner Loop Header: Depth=1
	@DEBUG_VALUE: tcp_receive:pcb <- $r4
	@DEBUG_VALUE: tcp_receive:prev <- $r5
	.loc	4 1567 21 is_stmt 1     @ ../Libraries/lwip-1.4.1/src/core/tcp_in.c:1567:21
	cmp	r3, #0
	beq.w	.LBB2_55
.Ltmp461:
@ %bb.81:                               @   in Loop: Header=BB2_80 Depth=1
	@DEBUG_VALUE: tcp_receive:prev <- $r5
	@DEBUG_VALUE: tcp_receive:pcb <- $r4
	.loc	4 1569 44               @ ../Libraries/lwip-1.4.1/src/core/tcp_in.c:1569:44
	ldr	r2, [r3, #16]
.Ltmp462:
	.loc	4 0 0 is_stmt 0         @ ../Libraries/lwip-1.4.1/src/core/tcp_in.c:0:0
	mov	r6, r3
.Ltmp463:
	@DEBUG_VALUE: tcp_receive:next <- $r6
	.loc	4 1569 52               @ ../Libraries/lwip-1.4.1/src/core/tcp_in.c:1569:52
	ldr	r3, [r2, #4]
.Ltmp464:
	.loc	4 1569 29               @ ../Libraries/lwip-1.4.1/src/core/tcp_in.c:1569:29
	cmp	r0, r3
	beq.w	.LBB2_101
.Ltmp465:
@ %bb.82:                               @   in Loop: Header=BB2_80 Depth=1
	@DEBUG_VALUE: tcp_receive:prev <- $r5
	@DEBUG_VALUE: tcp_receive:next <- $r6
	@DEBUG_VALUE: tcp_receive:pcb <- $r4
	.loc	4 1605 33 is_stmt 1     @ ../Libraries/lwip-1.4.1/src/core/tcp_in.c:1605:33
	cbz	r5, .LBB2_85
.Ltmp466:
@ %bb.83:                               @   in Loop: Header=BB2_80 Depth=1
	@DEBUG_VALUE: tcp_receive:prev <- $r5
	@DEBUG_VALUE: tcp_receive:next <- $r6
	@DEBUG_VALUE: tcp_receive:pcb <- $r4
	.loc	4 1626 37               @ ../Libraries/lwip-1.4.1/src/core/tcp_in.c:1626:37
	ldr	r1, [r5, #16]
	ldr	r1, [r1, #4]
	mvns	r1, r1
	add	r1, r0
	cmp	r1, #0
	blt	.LBB2_86
.Ltmp467:
@ %bb.84:                               @   in Loop: Header=BB2_80 Depth=1
	@DEBUG_VALUE: tcp_receive:prev <- $r5
	@DEBUG_VALUE: tcp_receive:next <- $r6
	@DEBUG_VALUE: tcp_receive:pcb <- $r4
	sub.w	r1, r12, r3
	cmp	r1, #0
	bgt	.LBB2_86
	b	.LBB2_120
.Ltmp468:
.LBB2_85:                               @   in Loop: Header=BB2_80 Depth=1
	@DEBUG_VALUE: tcp_receive:prev <- $r5
	@DEBUG_VALUE: tcp_receive:next <- $r6
	@DEBUG_VALUE: tcp_receive:pcb <- $r4
	.loc	4 1607 37               @ ../Libraries/lwip-1.4.1/src/core/tcp_in.c:1607:37
	subs	r5, r0, r3
.Ltmp469:
	.loc	4 1607 37 is_stmt 0     @ ../Libraries/lwip-1.4.1/src/core/tcp_in.c:1607:37
	cmp.w	r5, #-1
	ble.w	.LBB2_126
.Ltmp470:
.LBB2_86:                               @   in Loop: Header=BB2_80 Depth=1
	@DEBUG_VALUE: tcp_receive:next <- $r6
	@DEBUG_VALUE: tcp_receive:pcb <- $r4
	.loc	4 1652 37 is_stmt 1     @ ../Libraries/lwip-1.4.1/src/core/tcp_in.c:1652:37
	subs	r1, r0, r3
	.loc	4 1651 39               @ ../Libraries/lwip-1.4.1/src/core/tcp_in.c:1651:39
	ldr	r3, [r6]
.Ltmp471:
	.loc	4 0 0 is_stmt 0         @ ../Libraries/lwip-1.4.1/src/core/tcp_in.c:0:0
	mov	r5, r6
.Ltmp472:
	.loc	4 1651 52               @ ../Libraries/lwip-1.4.1/src/core/tcp_in.c:1651:52
	cmp	r1, #1
	blt	.LBB2_80
.Ltmp473:
@ %bb.87:                               @   in Loop: Header=BB2_80 Depth=1
	@DEBUG_VALUE: tcp_receive:next <- $r6
	@DEBUG_VALUE: tcp_receive:pcb <- $r4
	cmp	r3, #0
.Ltmp474:
	.loc	4 0 0                   @ ../Libraries/lwip-1.4.1/src/core/tcp_in.c:0:0
	mov	r5, r6
.Ltmp475:
	.loc	4 1651 52               @ ../Libraries/lwip-1.4.1/src/core/tcp_in.c:1651:52
	bne	.LBB2_80
.Ltmp476:
@ %bb.88:
	@DEBUG_VALUE: tcp_receive:next <- $r6
	@DEBUG_VALUE: tcp_receive:pcb <- $r4
	.loc	4 1654 37 is_stmt 1     @ ../Libraries/lwip-1.4.1/src/core/tcp_in.c:1654:37
	ldrh	r0, [r2, #12]
	bl	lwip_ntohs
.Ltmp477:
	.loc	4 1654 37 is_stmt 0     @ ../Libraries/lwip-1.4.1/src/core/tcp_in.c:1654:37
	lsls	r0, r0, #31
	bne.w	.LBB2_55
.Ltmp478:
@ %bb.89:
	@DEBUG_VALUE: tcp_receive:next <- $r6
	@DEBUG_VALUE: tcp_receive:pcb <- $r4
	.loc	4 1659 46 is_stmt 1     @ ../Libraries/lwip-1.4.1/src/core/tcp_in.c:1659:46
	movw	r0, :lower16:inseg
	movt	r0, :upper16:inseg
	bl	tcp_seg_copy
	.loc	4 1660 37               @ ../Libraries/lwip-1.4.1/src/core/tcp_in.c:1660:37
	cmp	r0, #0
	.loc	4 1659 44               @ ../Libraries/lwip-1.4.1/src/core/tcp_in.c:1659:44
	str	r0, [r6]
	.loc	4 1660 37               @ ../Libraries/lwip-1.4.1/src/core/tcp_in.c:1660:37
	beq.w	.LBB2_55
.Ltmp479:
@ %bb.90:
	@DEBUG_VALUE: tcp_receive:next <- $r6
	@DEBUG_VALUE: tcp_receive:pcb <- $r4
	.loc	4 1662 41               @ ../Libraries/lwip-1.4.1/src/core/tcp_in.c:1662:41
	ldr	r1, [r6, #16]
	ldrh	r0, [r6, #8]
	ldr	r1, [r1, #4]
	adds	r2, r1, r0
	ldr.w	r0, [r8]
	subs	r2, r2, r0
.Ltmp480:
	.loc	4 1662 41 is_stmt 0     @ ../Libraries/lwip-1.4.1/src/core/tcp_in.c:1662:41
	cmp	r2, #1
	blt	.LBB2_92
.Ltmp481:
@ %bb.91:
	@DEBUG_VALUE: tcp_receive:next <- $r6
	@DEBUG_VALUE: tcp_receive:pcb <- $r4
	.loc	4 1665 68 is_stmt 1     @ ../Libraries/lwip-1.4.1/src/core/tcp_in.c:1665:68
	subs	r0, r0, r1
	.loc	4 1665 51 is_stmt 0     @ ../Libraries/lwip-1.4.1/src/core/tcp_in.c:1665:51
	strh	r0, [r6, #8]
	.loc	4 1666 41 is_stmt 1     @ ../Libraries/lwip-1.4.1/src/core/tcp_in.c:1666:41
	uxth	r1, r0
	.loc	4 1666 60 is_stmt 0     @ ../Libraries/lwip-1.4.1/src/core/tcp_in.c:1666:60
	ldr	r0, [r6, #4]
	.loc	4 1666 41               @ ../Libraries/lwip-1.4.1/src/core/tcp_in.c:1666:41
	bl	pbuf_realloc
.Ltmp482:
	.loc	4 1669 58 is_stmt 1     @ ../Libraries/lwip-1.4.1/src/core/tcp_in.c:1669:58
	ldr.w	r0, [r8]
.Ltmp483:
.LBB2_92:
	@DEBUG_VALUE: tcp_receive:next <- $r6
	@DEBUG_VALUE: tcp_receive:pcb <- $r4
	.loc	4 1669 94 is_stmt 0     @ ../Libraries/lwip-1.4.1/src/core/tcp_in.c:1669:94
	ldrh	r1, [r4, #44]
	.loc	4 1669 71               @ ../Libraries/lwip-1.4.1/src/core/tcp_in.c:1669:71
	ldr	r2, [r4, #40]
	.loc	4 1669 79               @ ../Libraries/lwip-1.4.1/src/core/tcp_in.c:1669:79
	add	r1, r2
	.loc	4 1669 49               @ ../Libraries/lwip-1.4.1/src/core/tcp_in.c:1669:49
	ldrh	r2, [r7]
	.loc	4 1669 56               @ ../Libraries/lwip-1.4.1/src/core/tcp_in.c:1669:56
	add	r0, r2
.Ltmp484:
	.loc	4 1669 41               @ ../Libraries/lwip-1.4.1/src/core/tcp_in.c:1669:41
	cmp	r0, r1
	bls.w	.LBB2_55
.Ltmp485:
@ %bb.93:
	@DEBUG_VALUE: tcp_receive:next <- $r6
	@DEBUG_VALUE: tcp_receive:pcb <- $r4
	.loc	4 1675 45 is_stmt 1     @ ../Libraries/lwip-1.4.1/src/core/tcp_in.c:1675:45
	ldr	r0, [r6]
	ldr	r0, [r0, #16]
	ldrh	r0, [r0, #12]
	bl	lwip_ntohs
.Ltmp486:
	.loc	4 0 0 is_stmt 0         @ ../Libraries/lwip-1.4.1/src/core/tcp_in.c:0:0
	ldr	r2, [r6]
	.loc	4 1675 45               @ ../Libraries/lwip-1.4.1/src/core/tcp_in.c:1675:45
	lsls	r0, r0, #31
	beq	.LBB2_95
.Ltmp487:
@ %bb.94:
	@DEBUG_VALUE: tcp_receive:next <- $r6
	@DEBUG_VALUE: tcp_receive:pcb <- $r4
	.loc	4 1679 45 is_stmt 1     @ ../Libraries/lwip-1.4.1/src/core/tcp_in.c:1679:45
	ldr	r0, [r2, #16]
	ldrh	r5, [r0, #12]
	mov	r0, r5
	bl	lwip_ntohs
	and	r0, r0, #62
	bic	r5, r5, #16128
	bl	lwip_htons
	ldr	r2, [r6]
	orrs	r0, r5
	ldr	r1, [r2, #16]
	strh	r0, [r1, #12]
.Ltmp488:
.LBB2_95:
	@DEBUG_VALUE: tcp_receive:next <- $r6
	@DEBUG_VALUE: tcp_receive:pcb <- $r4
	.loc	4 1682 79               @ ../Libraries/lwip-1.4.1/src/core/tcp_in.c:1682:79
	ldrh	r0, [r4, #44]
	.loc	4 1682 64 is_stmt 0     @ ../Libraries/lwip-1.4.1/src/core/tcp_in.c:1682:64
	ldr	r1, [r4, #40]
	.loc	4 1682 72               @ ../Libraries/lwip-1.4.1/src/core/tcp_in.c:1682:72
	add	r0, r1
	.loc	4 1682 89               @ ../Libraries/lwip-1.4.1/src/core/tcp_in.c:1682:89
	ldr.w	r1, [r8]
	.loc	4 1682 87               @ ../Libraries/lwip-1.4.1/src/core/tcp_in.c:1682:87
	subs	r0, r0, r1
	.loc	4 1682 57               @ ../Libraries/lwip-1.4.1/src/core/tcp_in.c:1682:57
	strh	r0, [r2, #8]
	.loc	4 1683 41 is_stmt 1     @ ../Libraries/lwip-1.4.1/src/core/tcp_in.c:1683:41
	uxth	r1, r0
	.loc	4 1683 66 is_stmt 0     @ ../Libraries/lwip-1.4.1/src/core/tcp_in.c:1683:66
	ldr	r0, [r2, #4]
	.loc	4 1683 41               @ ../Libraries/lwip-1.4.1/src/core/tcp_in.c:1683:41
	bl	pbuf_realloc
	.loc	4 1684 50 is_stmt 1     @ ../Libraries/lwip-1.4.1/src/core/tcp_in.c:1684:50
	ldr	r0, [r6]
	ldrh	r4, [r0, #8]
.Ltmp489:
	ldr	r0, [r0, #16]
	ldrh	r0, [r0, #12]
	bl	lwip_ntohs
	lsls	r0, r0, #30
	it	ne
	addne	r4, #1
	.loc	4 1684 48 is_stmt 0     @ ../Libraries/lwip-1.4.1/src/core/tcp_in.c:1684:48
	strh	r4, [r7]
	b	.LBB2_55
.Ltmp490:
.LBB2_96:
	@DEBUG_VALUE: tcp_receive:right_wnd_edge <- $r0
	@DEBUG_VALUE: tcp_receive:pcb <- $r4
	.loc	4 0 0                   @ ../Libraries/lwip-1.4.1/src/core/tcp_in.c:0:0
	ldrsh.w	r0, [r4, #52]
.Ltmp491:
	.loc	4 1044 25 is_stmt 1     @ ../Libraries/lwip-1.4.1/src/core/tcp_in.c:1044:25
	cmp	r0, #0
	blt.w	.LBB2_19
.Ltmp492:
@ %bb.97:
	@DEBUG_VALUE: tcp_receive:pcb <- $r4
	@DEBUG_VALUE: tcp_receive:found_dupack <- 1
	.loc	4 1050 46               @ ../Libraries/lwip-1.4.1/src/core/tcp_in.c:1050:46
	ldrb.w	r0, [r4, #71]
.Ltmp493:
	.loc	4 1050 33 is_stmt 0     @ ../Libraries/lwip-1.4.1/src/core/tcp_in.c:1050:33
	cmp	r0, #255
	beq	.LBB2_99
.Ltmp494:
@ %bb.98:
	@DEBUG_VALUE: tcp_receive:pcb <- $r4
	.loc	4 1052 33 is_stmt 1     @ ../Libraries/lwip-1.4.1/src/core/tcp_in.c:1052:33
	adds	r0, #1
	strb.w	r0, [r4, #71]
	uxtb	r0, r0
.Ltmp495:
	.loc	4 1054 33               @ ../Libraries/lwip-1.4.1/src/core/tcp_in.c:1054:33
	cmp	r0, #4
	blo.w	.LBB2_124
.Ltmp496:
.LBB2_99:
	@DEBUG_VALUE: tcp_receive:pcb <- $r4
	.loc	4 1058 51               @ ../Libraries/lwip-1.4.1/src/core/tcp_in.c:1058:51
	ldrh.w	r1, [r4, #76]
	.loc	4 1058 63 is_stmt 0     @ ../Libraries/lwip-1.4.1/src/core/tcp_in.c:1058:63
	ldrh	r0, [r4, #54]
	.loc	4 1058 56               @ ../Libraries/lwip-1.4.1/src/core/tcp_in.c:1058:56
	add	r0, r1
	uxth	r2, r0
.Ltmp497:
	.loc	4 1058 37               @ ../Libraries/lwip-1.4.1/src/core/tcp_in.c:1058:37
	cmp	r2, r1
.Ltmp498:
	.loc	4 1060 47 is_stmt 1     @ ../Libraries/lwip-1.4.1/src/core/tcp_in.c:1060:47
	it	hi
	strhhi.w	r0, [r4, #76]
	b	.LBB2_33
.Ltmp499:
.LBB2_100:
	@DEBUG_VALUE: tcp_receive:pcb <- $r4
	.loc	4 1550 34               @ ../Libraries/lwip-1.4.1/src/core/tcp_in.c:1550:34
	movw	r0, :lower16:inseg
	movt	r0, :upper16:inseg
	bl	tcp_seg_copy
	.loc	4 1550 32 is_stmt 0     @ ../Libraries/lwip-1.4.1/src/core/tcp_in.c:1550:32
	str.w	r0, [r9]
	b	.LBB2_55
.Ltmp500:
.LBB2_101:
	@DEBUG_VALUE: tcp_receive:prev <- $r5
	@DEBUG_VALUE: tcp_receive:next <- $r6
	@DEBUG_VALUE: tcp_receive:pcb <- $r4
	.loc	4 1575 39 is_stmt 1     @ ../Libraries/lwip-1.4.1/src/core/tcp_in.c:1575:39
	movw	r1, :lower16:inseg
	.loc	4 1575 51 is_stmt 0     @ ../Libraries/lwip-1.4.1/src/core/tcp_in.c:1575:51
	ldrh	r0, [r6, #8]
	.loc	4 1575 39               @ ../Libraries/lwip-1.4.1/src/core/tcp_in.c:1575:39
	movt	r1, :upper16:inseg
	ldrh	r1, [r1, #8]
.Ltmp501:
	.loc	4 1575 33               @ ../Libraries/lwip-1.4.1/src/core/tcp_in.c:1575:33
	cmp	r1, r0
	bls.w	.LBB2_55
.Ltmp502:
@ %bb.102:
	@DEBUG_VALUE: tcp_receive:prev <- $r5
	@DEBUG_VALUE: tcp_receive:next <- $r6
	@DEBUG_VALUE: tcp_receive:pcb <- $r4
	.loc	4 1580 40 is_stmt 1     @ ../Libraries/lwip-1.4.1/src/core/tcp_in.c:1580:40
	movw	r0, :lower16:inseg
	movt	r0, :upper16:inseg
	bl	tcp_seg_copy
.Ltmp503:
	@DEBUG_VALUE: tcp_receive:cseg <- $r0
	.loc	4 1581 37               @ ../Libraries/lwip-1.4.1/src/core/tcp_in.c:1581:37
	cmp	r0, #0
	beq.w	.LBB2_55
.Ltmp504:
@ %bb.103:
	@DEBUG_VALUE: tcp_receive:cseg <- $r0
	@DEBUG_VALUE: tcp_receive:prev <- $r5
	@DEBUG_VALUE: tcp_receive:next <- $r6
	@DEBUG_VALUE: tcp_receive:pcb <- $r4
	.loc	4 1583 41               @ ../Libraries/lwip-1.4.1/src/core/tcp_in.c:1583:41
	cmp	r5, #0
	it	ne
	movne	r9, r5
.Ltmp505:
	@DEBUG_VALUE: tcp_receive:prev <- $r9
	.loc	4 0 41 is_stmt 0        @ ../Libraries/lwip-1.4.1/src/core/tcp_in.c:0:41
	b	.LBB2_127
.Ltmp506:
.LBB2_104:
	@DEBUG_VALUE: tcp_receive:prev <- $r5
	@DEBUG_VALUE: tcp_receive:next <- $r5
	@DEBUG_VALUE: tcp_receive:pcb <- $r4
	.loc	4 1440 29 is_stmt 1     @ ../Libraries/lwip-1.4.1/src/core/tcp_in.c:1440:29
	cmp	r3, #1
	blt	.LBB2_106
.Ltmp507:
@ %bb.105:
	@DEBUG_VALUE: tcp_receive:prev <- $r5
	@DEBUG_VALUE: tcp_receive:next <- $r5
	@DEBUG_VALUE: tcp_receive:pcb <- $r4
	.loc	4 1445 70               @ ../Libraries/lwip-1.4.1/src/core/tcp_in.c:1445:70
	subs	r0, r1, r0
	.loc	4 1445 39 is_stmt 0     @ ../Libraries/lwip-1.4.1/src/core/tcp_in.c:1445:39
	strh.w	r0, [r9, #8]
.Ltmp508:
	.loc	4 1446 33 is_stmt 1     @ ../Libraries/lwip-1.4.1/src/core/tcp_in.c:1446:33
	ldr.w	r0, [r9, #16]
	ldrh	r0, [r0, #12]
	bl	lwip_ntohs
.Ltmp509:
	.loc	4 0 0 is_stmt 0         @ ../Libraries/lwip-1.4.1/src/core/tcp_in.c:0:0
	ldrh.w	r1, [r9, #8]
	.loc	4 1446 33               @ ../Libraries/lwip-1.4.1/src/core/tcp_in.c:1446:33
	lsls	r0, r0, #30
.Ltmp510:
	.loc	4 1448 43 is_stmt 1     @ ../Libraries/lwip-1.4.1/src/core/tcp_in.c:1448:43
	itt	mi
	submi	r1, #1
	strhmi.w	r1, [r9, #8]
.Ltmp511:
	.loc	4 1450 48               @ ../Libraries/lwip-1.4.1/src/core/tcp_in.c:1450:48
	ldr.w	r0, [r9, #4]
	.loc	4 1450 29 is_stmt 0     @ ../Libraries/lwip-1.4.1/src/core/tcp_in.c:1450:29
	uxth	r1, r1
	bl	pbuf_realloc
	.loc	4 1451 38 is_stmt 1     @ ../Libraries/lwip-1.4.1/src/core/tcp_in.c:1451:38
	ldr.w	r0, [r9, #16]
	ldrh.w	r6, [r9, #8]
	ldrh	r0, [r0, #12]
	bl	lwip_ntohs
	lsls	r0, r0, #30
	it	ne
	addne	r6, #1
	.loc	4 1451 36 is_stmt 0     @ ../Libraries/lwip-1.4.1/src/core/tcp_in.c:1451:36
	strh	r6, [r7]
.Ltmp512:
.LBB2_106:
	@DEBUG_VALUE: tcp_receive:pcb <- $r4
	.loc	4 1455 36 is_stmt 1     @ ../Libraries/lwip-1.4.1/src/core/tcp_in.c:1455:36
	str	r5, [r4, #116]
.Ltmp513:
.LBB2_107:
	@DEBUG_VALUE: tcp_receive:pcb <- $r4
	.loc	4 1460 40               @ ../Libraries/lwip-1.4.1/src/core/tcp_in.c:1460:40
	ldrh	r0, [r7]
	.loc	4 1460 32 is_stmt 0     @ ../Libraries/lwip-1.4.1/src/core/tcp_in.c:1460:32
	ldr.w	r1, [r8]
	.loc	4 1460 38               @ ../Libraries/lwip-1.4.1/src/core/tcp_in.c:1460:38
	add	r1, r0
	.loc	4 1460 30               @ ../Libraries/lwip-1.4.1/src/core/tcp_in.c:1460:30
	str	r1, [r4, #40]
.Ltmp514:
	.loc	4 1463 17 is_stmt 1     @ ../Libraries/lwip-1.4.1/src/core/tcp_in.c:1463:17
	ldrh	r1, [r4, #44]
.Ltmp515:
	.loc	4 1464 30               @ ../Libraries/lwip-1.4.1/src/core/tcp_in.c:1464:30
	subs	r0, r1, r0
	strh	r0, [r4, #44]
	.loc	4 1466 17               @ ../Libraries/lwip-1.4.1/src/core/tcp_in.c:1466:17
	mov	r0, r4
	bl	tcp_update_rcv_ann_wnd
.Ltmp516:
	.loc	4 1477 27               @ ../Libraries/lwip-1.4.1/src/core/tcp_in.c:1477:27
	ldr.w	r0, [r9, #4]
	.loc	4 1477 30 is_stmt 0     @ ../Libraries/lwip-1.4.1/src/core/tcp_in.c:1477:30
	ldrh	r1, [r0, #8]
.Ltmp517:
	.loc	4 1477 21               @ ../Libraries/lwip-1.4.1/src/core/tcp_in.c:1477:21
	cbz	r1, .LBB2_109
.Ltmp518:
@ %bb.108:
	@DEBUG_VALUE: tcp_receive:pcb <- $r4
	.loc	4 0 21                  @ ../Libraries/lwip-1.4.1/src/core/tcp_in.c:0:21
	movs	r1, #0
.Ltmp519:
	.loc	4 1483 29 is_stmt 1     @ ../Libraries/lwip-1.4.1/src/core/tcp_in.c:1483:29
	str.w	r1, [r9, #4]
	.loc	4 1479 31               @ ../Libraries/lwip-1.4.1/src/core/tcp_in.c:1479:31
	movw	r1, :lower16:recv_data
	movt	r1, :upper16:recv_data
	str	r0, [r1]
.Ltmp520:
.LBB2_109:
	@DEBUG_VALUE: tcp_receive:pcb <- $r4
	.loc	4 1485 21               @ ../Libraries/lwip-1.4.1/src/core/tcp_in.c:1485:21
	ldr.w	r0, [r9, #16]
	ldrh	r0, [r0, #12]
	bl	lwip_ntohs
.Ltmp521:
	.loc	4 1485 21 is_stmt 0     @ ../Libraries/lwip-1.4.1/src/core/tcp_in.c:1485:21
	lsls	r0, r0, #31
	beq	.LBB2_111
.Ltmp522:
@ %bb.110:
	@DEBUG_VALUE: tcp_receive:pcb <- $r4
	.loc	4 1488 32 is_stmt 1     @ ../Libraries/lwip-1.4.1/src/core/tcp_in.c:1488:32
	movw	r0, :lower16:recv_flags
	movt	r0, :upper16:recv_flags
	ldrb	r1, [r0]
	orr	r1, r1, #32
	strb	r1, [r0]
.Ltmp523:
.LBB2_111:
	@DEBUG_VALUE: tcp_receive:pcb <- $r4
	.loc	4 1494 29               @ ../Libraries/lwip-1.4.1/src/core/tcp_in.c:1494:29
	ldr	r5, [r4, #116]
	.loc	4 1494 43 is_stmt 0     @ ../Libraries/lwip-1.4.1/src/core/tcp_in.c:1494:43
	cmp	r5, #0
	beq	.LBB2_119
.Ltmp524:
@ %bb.112:
	@DEBUG_VALUE: tcp_receive:pcb <- $r4
	.loc	4 0 43                  @ ../Libraries/lwip-1.4.1/src/core/tcp_in.c:0:43
	movw	r6, :lower16:recv_flags
	movw	r11, :lower16:recv_data
	mov.w	r9, #7
	mov.w	r10, #0
	movt	r6, :upper16:recv_flags
	movt	r11, :upper16:recv_data
.Ltmp525:
	.p2align	2
.LBB2_113:                              @ =>This Inner Loop Header: Depth=1
	@DEBUG_VALUE: tcp_receive:pcb <- $r4
	@DEBUG_VALUE: tcp_receive:cseg <- $r5
	.loc	4 1495 37 is_stmt 1     @ ../Libraries/lwip-1.4.1/src/core/tcp_in.c:1495:37
	ldr	r0, [r5, #16]
	.loc	4 1495 59 is_stmt 0     @ ../Libraries/lwip-1.4.1/src/core/tcp_in.c:1495:59
	ldr	r2, [r4, #40]
	.loc	4 1495 45               @ ../Libraries/lwip-1.4.1/src/core/tcp_in.c:1495:45
	ldr	r1, [r0, #4]
	.loc	4 1494 17 is_stmt 1     @ ../Libraries/lwip-1.4.1/src/core/tcp_in.c:1494:17
	cmp	r1, r2
	bne	.LBB2_119
.Ltmp526:
@ %bb.114:                              @   in Loop: Header=BB2_113 Depth=1
	@DEBUG_VALUE: tcp_receive:cseg <- $r5
	@DEBUG_VALUE: tcp_receive:pcb <- $r4
	.loc	4 1499 27               @ ../Libraries/lwip-1.4.1/src/core/tcp_in.c:1499:27
	str.w	r1, [r8]
	.loc	4 1501 37               @ ../Libraries/lwip-1.4.1/src/core/tcp_in.c:1501:37
	ldrh	r0, [r0, #12]
	ldrh	r7, [r5, #8]
	bl	lwip_ntohs
	.loc	4 1501 34 is_stmt 0     @ ../Libraries/lwip-1.4.1/src/core/tcp_in.c:1501:34
	ldr	r1, [r4, #40]
	lsls	r0, r0, #30
	.loc	4 1501 37               @ ../Libraries/lwip-1.4.1/src/core/tcp_in.c:1501:37
	add	r1, r7
	.loc	4 1501 34               @ ../Libraries/lwip-1.4.1/src/core/tcp_in.c:1501:34
	it	ne
	addne	r1, #1
	str	r1, [r4, #40]
.Ltmp527:
	.loc	4 1502 21 is_stmt 1     @ ../Libraries/lwip-1.4.1/src/core/tcp_in.c:1502:21
	ldr	r0, [r5, #16]
	ldrh	r0, [r0, #12]
	bl	lwip_ntohs
.Ltmp528:
	.loc	4 1504 37               @ ../Libraries/lwip-1.4.1/src/core/tcp_in.c:1504:37
	ldr	r0, [r5, #16]
	ldrh	r7, [r5, #8]
	ldrh	r0, [r0, #12]
	bl	lwip_ntohs
	.loc	4 1504 34 is_stmt 0     @ ../Libraries/lwip-1.4.1/src/core/tcp_in.c:1504:34
	ldrh	r1, [r4, #44]
	lsls	r0, r0, #30
	.loc	4 1506 21 is_stmt 1     @ ../Libraries/lwip-1.4.1/src/core/tcp_in.c:1506:21
	mov	r0, r4
	.loc	4 1504 37               @ ../Libraries/lwip-1.4.1/src/core/tcp_in.c:1504:37
	sub.w	r1, r1, r7
	.loc	4 1504 34 is_stmt 0     @ ../Libraries/lwip-1.4.1/src/core/tcp_in.c:1504:34
	it	ne
	subne	r1, #1
	strh	r1, [r4, #44]
	.loc	4 1506 21 is_stmt 1     @ ../Libraries/lwip-1.4.1/src/core/tcp_in.c:1506:21
	bl	tcp_update_rcv_ann_wnd
.Ltmp529:
	.loc	4 1508 31               @ ../Libraries/lwip-1.4.1/src/core/tcp_in.c:1508:31
	ldr	r1, [r5, #4]
	.loc	4 1508 34 is_stmt 0     @ ../Libraries/lwip-1.4.1/src/core/tcp_in.c:1508:34
	ldrh	r0, [r1, #8]
.Ltmp530:
	.loc	4 1508 25               @ ../Libraries/lwip-1.4.1/src/core/tcp_in.c:1508:25
	cbz	r0, .LBB2_116
.Ltmp531:
@ %bb.115:                              @   in Loop: Header=BB2_113 Depth=1
	@DEBUG_VALUE: tcp_receive:cseg <- $r5
	@DEBUG_VALUE: tcp_receive:pcb <- $r4
	.loc	4 1512 29 is_stmt 1     @ ../Libraries/lwip-1.4.1/src/core/tcp_in.c:1512:29
	ldr.w	r0, [r11]
.Ltmp532:
	.loc	4 1512 29 is_stmt 0     @ ../Libraries/lwip-1.4.1/src/core/tcp_in.c:1512:29
	cmp	r0, #0
.Ltmp533:
	.loc	4 1518 39 is_stmt 1     @ ../Libraries/lwip-1.4.1/src/core/tcp_in.c:1518:39
	ite	eq
	streq.w	r1, [r11]
.Ltmp534:
	.loc	4 1514 29               @ ../Libraries/lwip-1.4.1/src/core/tcp_in.c:1514:29
	blne	pbuf_cat
.Ltmp535:
	.loc	4 1520 33               @ ../Libraries/lwip-1.4.1/src/core/tcp_in.c:1520:33
	str.w	r10, [r5, #4]
.Ltmp536:
.LBB2_116:                              @   in Loop: Header=BB2_113 Depth=1
	@DEBUG_VALUE: tcp_receive:cseg <- $r5
	@DEBUG_VALUE: tcp_receive:pcb <- $r4
	.loc	4 1522 25               @ ../Libraries/lwip-1.4.1/src/core/tcp_in.c:1522:25
	ldr	r0, [r5, #16]
	ldrh	r0, [r0, #12]
	bl	lwip_ntohs
.Ltmp537:
	.loc	4 1522 25 is_stmt 0     @ ../Libraries/lwip-1.4.1/src/core/tcp_in.c:1522:25
	lsls	r0, r0, #31
	beq	.LBB2_118
.Ltmp538:
@ %bb.117:                              @   in Loop: Header=BB2_113 Depth=1
	@DEBUG_VALUE: tcp_receive:cseg <- $r5
	@DEBUG_VALUE: tcp_receive:pcb <- $r4
	.loc	4 1525 36 is_stmt 1     @ ../Libraries/lwip-1.4.1/src/core/tcp_in.c:1525:36
	ldrb	r0, [r6]
	orr	r0, r0, #32
	strb	r0, [r6]
.Ltmp539:
	.loc	4 1526 34               @ ../Libraries/lwip-1.4.1/src/core/tcp_in.c:1526:34
	ldrb	r0, [r4, #24]
.Ltmp540:
	.loc	4 1526 29 is_stmt 0     @ ../Libraries/lwip-1.4.1/src/core/tcp_in.c:1526:29
	cmp	r0, #4
.Ltmp541:
	.loc	4 1528 40 is_stmt 1     @ ../Libraries/lwip-1.4.1/src/core/tcp_in.c:1528:40
	it	eq
	strbeq.w	r9, [r4, #24]
.Ltmp542:
.LBB2_118:                              @   in Loop: Header=BB2_113 Depth=1
	@DEBUG_VALUE: tcp_receive:cseg <- $r5
	@DEBUG_VALUE: tcp_receive:pcb <- $r4
	.loc	4 1532 40               @ ../Libraries/lwip-1.4.1/src/core/tcp_in.c:1532:40
	ldr	r0, [r5]
	.loc	4 1532 32 is_stmt 0     @ ../Libraries/lwip-1.4.1/src/core/tcp_in.c:1532:32
	str	r0, [r4, #116]
	.loc	4 1533 21 is_stmt 1     @ ../Libraries/lwip-1.4.1/src/core/tcp_in.c:1533:21
	mov	r0, r5
	bl	tcp_seg_free
.Ltmp543:
	.loc	4 1494 29               @ ../Libraries/lwip-1.4.1/src/core/tcp_in.c:1494:29
	ldr	r5, [r4, #116]
.Ltmp544:
	.loc	4 1494 43 is_stmt 0     @ ../Libraries/lwip-1.4.1/src/core/tcp_in.c:1494:43
	cmp	r5, #0
	bne	.LBB2_113
.Ltmp545:
.LBB2_119:
	@DEBUG_VALUE: tcp_receive:pcb <- $r4
	.loc	4 1539 17 is_stmt 1     @ ../Libraries/lwip-1.4.1/src/core/tcp_in.c:1539:17
	ldrb	r0, [r4, #30]
.Ltmp546:
	.loc	4 1539 17 is_stmt 0     @ ../Libraries/lwip-1.4.1/src/core/tcp_in.c:1539:17
	lsls	r1, r0, #31
.Ltmp547:
	.loc	4 1539 17               @ ../Libraries/lwip-1.4.1/src/core/tcp_in.c:1539:17
	itee	eq
	orreq	r0, r0, #1
.Ltmp548:
	.loc	4 1539 17               @ ../Libraries/lwip-1.4.1/src/core/tcp_in.c:1539:17
	andne	r0, r0, #252
	addne	r0, #2
	b	.LBB2_54
.Ltmp549:
.LBB2_120:
	@DEBUG_VALUE: tcp_receive:prev <- $r5
	@DEBUG_VALUE: tcp_receive:next <- $r6
	@DEBUG_VALUE: tcp_receive:pcb <- $r4
	.loc	4 1633 44 is_stmt 1     @ ../Libraries/lwip-1.4.1/src/core/tcp_in.c:1633:44
	movw	r0, :lower16:inseg
	movt	r0, :upper16:inseg
	bl	tcp_seg_copy
	.loc	4 1634 41               @ ../Libraries/lwip-1.4.1/src/core/tcp_in.c:1634:41
	cmp	r0, #0
	beq.w	.LBB2_55
.Ltmp550:
@ %bb.121:
	@DEBUG_VALUE: tcp_receive:prev <- $r5
	@DEBUG_VALUE: tcp_receive:next <- $r6
	@DEBUG_VALUE: tcp_receive:pcb <- $r4
	.loc	4 0 0 is_stmt 0         @ ../Libraries/lwip-1.4.1/src/core/tcp_in.c:0:0
	mov	r4, r0
.Ltmp551:
	@DEBUG_VALUE: tcp_receive:cseg <- $r4
	.loc	4 1636 45 is_stmt 1     @ ../Libraries/lwip-1.4.1/src/core/tcp_in.c:1636:45
	ldr	r0, [r5, #16]
	ldrh	r1, [r5, #8]
	ldr	r0, [r0, #4]
	adds	r2, r0, r1
	ldr.w	r1, [r8]
	subs	r2, r2, r1
.Ltmp552:
	.loc	4 1636 45 is_stmt 0     @ ../Libraries/lwip-1.4.1/src/core/tcp_in.c:1636:45
	cmp	r2, #1
	blt	.LBB2_123
.Ltmp553:
@ %bb.122:
	@DEBUG_VALUE: tcp_receive:cseg <- $r4
	@DEBUG_VALUE: tcp_receive:prev <- $r5
	@DEBUG_VALUE: tcp_receive:next <- $r6
	.loc	4 1639 72 is_stmt 1     @ ../Libraries/lwip-1.4.1/src/core/tcp_in.c:1639:72
	subs	r0, r1, r0
	.loc	4 1639 55 is_stmt 0     @ ../Libraries/lwip-1.4.1/src/core/tcp_in.c:1639:55
	strh	r0, [r5, #8]
	.loc	4 1640 45 is_stmt 1     @ ../Libraries/lwip-1.4.1/src/core/tcp_in.c:1640:45
	uxth	r1, r0
	.loc	4 1640 64 is_stmt 0     @ ../Libraries/lwip-1.4.1/src/core/tcp_in.c:1640:64
	ldr	r0, [r5, #4]
	.loc	4 1640 45               @ ../Libraries/lwip-1.4.1/src/core/tcp_in.c:1640:45
	bl	pbuf_realloc
.Ltmp554:
.LBB2_123:
	@DEBUG_VALUE: tcp_receive:cseg <- $r4
	@DEBUG_VALUE: tcp_receive:prev <- $r5
	@DEBUG_VALUE: tcp_receive:next <- $r6
	.loc	4 1642 52 is_stmt 1     @ ../Libraries/lwip-1.4.1/src/core/tcp_in.c:1642:52
	str	r4, [r5]
	.loc	4 1643 41               @ ../Libraries/lwip-1.4.1/src/core/tcp_in.c:1643:41
	mov	r0, r4
	b	.LBB2_128
.Ltmp555:
.LBB2_124:
	@DEBUG_VALUE: tcp_receive:pcb <- $r4
	.loc	4 1063 38               @ ../Libraries/lwip-1.4.1/src/core/tcp_in.c:1063:38
	cmp	r0, #3
	bne.w	.LBB2_33
.Ltmp556:
@ %bb.125:
	@DEBUG_VALUE: tcp_receive:pcb <- $r4
	.loc	4 1066 33               @ ../Libraries/lwip-1.4.1/src/core/tcp_in.c:1066:33
	mov	r0, r4
	bl	tcp_rexmit_fast
	b	.LBB2_33
.Ltmp557:
.LBB2_126:
	@DEBUG_VALUE: tcp_receive:next <- $r6
	@DEBUG_VALUE: tcp_receive:pcb <- $r4
	.loc	4 1613 44               @ ../Libraries/lwip-1.4.1/src/core/tcp_in.c:1613:44
	movw	r0, :lower16:inseg
	movt	r0, :upper16:inseg
	bl	tcp_seg_copy
.Ltmp558:
	@DEBUG_VALUE: tcp_receive:cseg <- $r0
	.loc	4 1614 41               @ ../Libraries/lwip-1.4.1/src/core/tcp_in.c:1614:41
	cmp	r0, #0
	beq.w	.LBB2_55
.Ltmp559:
.LBB2_127:
	@DEBUG_VALUE: tcp_receive:cseg <- $r0
	@DEBUG_VALUE: tcp_receive:next <- $r6
	@DEBUG_VALUE: tcp_receive:pcb <- $r4
	.loc	4 0 0 is_stmt 0         @ ../Libraries/lwip-1.4.1/src/core/tcp_in.c:0:0
	str.w	r0, [r9]
.Ltmp560:
.LBB2_128:
	@DEBUG_VALUE: tcp_receive:next <- $r6
	mov	r1, r6
	add	sp, #4
	pop.w	{r4, r5, r6, r7, r8, r9, r10, r11, lr}
.Ltmp561:
	b	tcp_oos_insert_segment
.Ltmp562:
.Lfunc_end2:
	.size	tcp_receive, .Lfunc_end2-tcp_receive
	.cfi_endproc
	.cantunwind
	.fnend
                                        @ -- End function
	.section	.text.tcp_oos_insert_segment,"ax",%progbits
	.p2align	1               @ -- Begin function tcp_oos_insert_segment
	.type	tcp_oos_insert_segment,%function
	.code	16                      @ @tcp_oos_insert_segment
	.thumb_func
tcp_oos_insert_segment:
.Lfunc_begin3:
	.loc	4 896 0 is_stmt 1       @ ../Libraries/lwip-1.4.1/src/core/tcp_in.c:896:0
	.fnstart
	.cfi_startproc
@ %bb.0:
	.save	{r4, r5, r6, r7, lr}
	push	{r4, r5, r6, r7, lr}
	.cfi_def_cfa_offset 20
	.cfi_offset lr, -4
	.cfi_offset r7, -8
	.cfi_offset r6, -12
	.cfi_offset r5, -16
	.cfi_offset r4, -20
	.pad	#4
	sub	sp, #4
	.cfi_def_cfa_offset 24
	@DEBUG_VALUE: tcp_oos_insert_segment:cseg <- $r0
	@DEBUG_VALUE: tcp_oos_insert_segment:next <- $r1
	mov	r4, r0
.Ltmp563:
	@DEBUG_VALUE: tcp_oos_insert_segment:next <- $r5
	@DEBUG_VALUE: tcp_oos_insert_segment:cseg <- $r4
	.loc	4 899 9 prologue_end    @ ../Libraries/lwip-1.4.1/src/core/tcp_in.c:899:9
	ldr	r0, [r0, #16]
	mov	r5, r1
.Ltmp564:
	ldrh	r0, [r0, #12]
	bl	lwip_ntohs
.Ltmp565:
	.loc	4 899 9 is_stmt 0       @ ../Libraries/lwip-1.4.1/src/core/tcp_in.c:899:9
	lsls	r0, r0, #31
	bne	.LBB3_7
.Ltmp566:
@ %bb.1:
	@DEBUG_VALUE: tcp_oos_insert_segment:cseg <- $r4
	.loc	4 909 21 is_stmt 1      @ ../Libraries/lwip-1.4.1/src/core/tcp_in.c:909:21
	cbz	r5, .LBB3_8
.Ltmp567:
@ %bb.2:
	@DEBUG_VALUE: tcp_oos_insert_segment:cseg <- $r4
	.loc	4 0 21 is_stmt 0        @ ../Libraries/lwip-1.4.1/src/core/tcp_in.c:0:21
	movw	r7, :lower16:seqno
	movt	r7, :upper16:seqno
.Ltmp568:
	.p2align	2
.LBB3_3:                                @ =>This Inner Loop Header: Depth=1
	@DEBUG_VALUE: tcp_oos_insert_segment:cseg <- $r4
	@DEBUG_VALUE: tcp_oos_insert_segment:next <- $r5
	@DEBUG_VALUE: tcp_oos_insert_segment:old_seg <- $r5
	.loc	4 910 17 is_stmt 1      @ ../Libraries/lwip-1.4.1/src/core/tcp_in.c:910:17
	ldrh	r1, [r4, #8]
	ldr	r0, [r7]
	ldr	r2, [r5, #16]
	ldrh	r6, [r5, #8]
	adds	r3, r0, r1
	ldr	r1, [r2, #4]
	subs	r3, r3, r1
	subs	r6, r3, r6
	.loc	4 909 9                 @ ../Libraries/lwip-1.4.1/src/core/tcp_in.c:909:9
	cmp	r6, #0
	blt	.LBB3_10
.Ltmp569:
@ %bb.4:                                @   in Loop: Header=BB3_3 Depth=1
	@DEBUG_VALUE: tcp_oos_insert_segment:old_seg <- $r5
	@DEBUG_VALUE: tcp_oos_insert_segment:cseg <- $r4
	@DEBUG_VALUE: tcp_oos_insert_segment:next <- $r5
	.loc	4 914 17                @ ../Libraries/lwip-1.4.1/src/core/tcp_in.c:914:17
	ldrh	r0, [r2, #12]
	bl	lwip_ntohs
.Ltmp570:
	.loc	4 914 17 is_stmt 0      @ ../Libraries/lwip-1.4.1/src/core/tcp_in.c:914:17
	lsls	r0, r0, #31
	beq	.LBB3_6
.Ltmp571:
@ %bb.5:                                @   in Loop: Header=BB3_3 Depth=1
	@DEBUG_VALUE: tcp_oos_insert_segment:old_seg <- $r5
	@DEBUG_VALUE: tcp_oos_insert_segment:cseg <- $r4
	@DEBUG_VALUE: tcp_oos_insert_segment:next <- $r5
	.loc	4 916 17 is_stmt 1      @ ../Libraries/lwip-1.4.1/src/core/tcp_in.c:916:17
	ldr	r0, [r4, #16]
	ldrh	r6, [r0, #12]
	movs	r0, #1
	bl	lwip_htons
	ldr	r1, [r4, #16]
	orrs	r0, r6
	strh	r0, [r1, #12]
.Ltmp572:
.LBB3_6:                                @   in Loop: Header=BB3_3 Depth=1
	@DEBUG_VALUE: tcp_oos_insert_segment:old_seg <- $r5
	@DEBUG_VALUE: tcp_oos_insert_segment:cseg <- $r4
	@DEBUG_VALUE: tcp_oos_insert_segment:next <- $r5
	.loc	4 919 26                @ ../Libraries/lwip-1.4.1/src/core/tcp_in.c:919:26
	ldr	r6, [r5]
.Ltmp573:
	@DEBUG_VALUE: tcp_oos_insert_segment:next <- $r6
	.loc	4 920 13                @ ../Libraries/lwip-1.4.1/src/core/tcp_in.c:920:13
	mov	r0, r5
	bl	tcp_seg_free
.Ltmp574:
	.loc	4 909 21                @ ../Libraries/lwip-1.4.1/src/core/tcp_in.c:909:21
	cmp	r6, #0
	mov	r5, r6
.Ltmp575:
	@DEBUG_VALUE: tcp_oos_insert_segment:next <- $r5
	@DEBUG_VALUE: tcp_oos_insert_segment:next <- $r5
	.loc	4 0 21 is_stmt 0        @ ../Libraries/lwip-1.4.1/src/core/tcp_in.c:0:21
	bne	.LBB3_3
	b	.LBB3_8
.Ltmp576:
.LBB3_7:
	@DEBUG_VALUE: tcp_oos_insert_segment:cseg <- $r4
	.loc	4 902 9 is_stmt 1       @ ../Libraries/lwip-1.4.1/src/core/tcp_in.c:902:9
	mov	r0, r5
	bl	tcp_segs_free
.Ltmp577:
.LBB3_8:
	@DEBUG_VALUE: tcp_oos_insert_segment:cseg <- $r4
	.loc	4 0 9 is_stmt 0         @ ../Libraries/lwip-1.4.1/src/core/tcp_in.c:0:9
	movs	r5, #0
.Ltmp578:
.LBB3_9:
	@DEBUG_VALUE: tcp_oos_insert_segment:cseg <- $r4
	@DEBUG_VALUE: tcp_oos_insert_segment:next <- $r5
	.loc	4 930 16 is_stmt 1      @ ../Libraries/lwip-1.4.1/src/core/tcp_in.c:930:16
	str	r5, [r4]
	.loc	4 931 1                 @ ../Libraries/lwip-1.4.1/src/core/tcp_in.c:931:1
	add	sp, #4
	pop	{r4, r5, r6, r7, pc}
.Ltmp579:
.LBB3_10:
	@DEBUG_VALUE: tcp_oos_insert_segment:old_seg <- $r5
	@DEBUG_VALUE: tcp_oos_insert_segment:cseg <- $r4
	@DEBUG_VALUE: tcp_oos_insert_segment:next <- $r5
	.loc	4 922 13                @ ../Libraries/lwip-1.4.1/src/core/tcp_in.c:922:13
	cmp	r3, #1
	blt	.LBB3_9
.Ltmp580:
@ %bb.11:
	@DEBUG_VALUE: tcp_oos_insert_segment:old_seg <- $r5
	@DEBUG_VALUE: tcp_oos_insert_segment:cseg <- $r4
	@DEBUG_VALUE: tcp_oos_insert_segment:next <- $r5
	.loc	4 926 54                @ ../Libraries/lwip-1.4.1/src/core/tcp_in.c:926:54
	subs	r0, r1, r0
	.loc	4 926 23 is_stmt 0      @ ../Libraries/lwip-1.4.1/src/core/tcp_in.c:926:23
	strh	r0, [r4, #8]
	.loc	4 927 13 is_stmt 1      @ ../Libraries/lwip-1.4.1/src/core/tcp_in.c:927:13
	uxth	r1, r0
	.loc	4 927 32 is_stmt 0      @ ../Libraries/lwip-1.4.1/src/core/tcp_in.c:927:32
	ldr	r0, [r4, #4]
	.loc	4 927 13                @ ../Libraries/lwip-1.4.1/src/core/tcp_in.c:927:13
	bl	pbuf_realloc
	b	.LBB3_9
.Ltmp581:
.Lfunc_end3:
	.size	tcp_oos_insert_segment, .Lfunc_end3-tcp_oos_insert_segment
	.cfi_endproc
	.cantunwind
	.fnend
                                        @ -- End function
	.type	iphdr,%object           @ @iphdr
	.section	.bss.iphdr,"aw",%nobits
	.p2align	2
iphdr:
	.long	0
	.size	iphdr, 4

	.type	tcphdr,%object          @ @tcphdr
	.section	.bss.tcphdr,"aw",%nobits
	.p2align	2
tcphdr:
	.long	0
	.size	tcphdr, 4

	.type	seqno,%object           @ @seqno
	.section	.bss.seqno,"aw",%nobits
	.p2align	2
seqno:
	.long	0                       @ 0x0
	.size	seqno, 4

	.type	ackno,%object           @ @ackno
	.section	.bss.ackno,"aw",%nobits
	.p2align	2
ackno:
	.long	0                       @ 0x0
	.size	ackno, 4

	.type	flags,%object           @ @flags
	.section	.bss.flags,"aw",%nobits
flags:
	.byte	0                       @ 0x0
	.size	flags, 1

	.type	tcplen,%object          @ @tcplen
	.section	.bss.tcplen,"aw",%nobits
	.p2align	1
tcplen:
	.short	0                       @ 0x0
	.size	tcplen, 2

	.type	inseg,%object           @ @inseg
	.section	.bss.inseg,"aw",%nobits
	.p2align	2
inseg:
	.zero	20
	.size	inseg, 20

	.type	recv_data,%object       @ @recv_data
	.section	.bss.recv_data,"aw",%nobits
	.p2align	2
recv_data:
	.long	0
	.size	recv_data, 4

	.type	recv_flags,%object      @ @recv_flags
	.section	.bss.recv_flags,"aw",%nobits
recv_flags:
	.byte	0                       @ 0x0
	.size	recv_flags, 1

	.hidden	tcp_input_pcb           @ @tcp_input_pcb
	.type	tcp_input_pcb,%object
	.section	.bss.tcp_input_pcb,"aw",%nobits
	.globl	tcp_input_pcb
	.p2align	2
tcp_input_pcb:
	.long	0
	.size	tcp_input_pcb, 4

	.file	10 "F:\\SkyDrive\\OtvoreniProjekti\\HotelSaplast\\fw\\KontrolerHotela\\HC070318\\Project" "../Libraries/lwip-1.4.1/src/include\\lwip/netif.h"
	.section	".note.GNU-stack","",%progbits
	.eabi_attribute	30, 3	@ Tag_ABI_optimization_goals
	.ARM_attribute	16, 1	@ Tag_AV_eba