	.text
	.syntax unified
	.eabi_attribute	67, "2.09"	@ Tag_conformance
	.cpu	cortex-m4
	.eabi_attribute	6, 13	@ Tag_CPU_arch
	.eabi_attribute	7, 77	@ Tag_CPU_arch_profile
	.eabi_attribute	8, 0	@ Tag_ARM_ISA_use
	.eabi_attribute	9, 2	@ Tag_THUMB_ISA_use
	.fpu	fpv4-sp-d16
	.eabi_attribute	27, 1	@ Tag_ABI_HardFP_use
	.eabi_attribute	36, 1	@ Tag_FP_HP_extension
	.eabi_attribute	34, 1	@ Tag_CPU_unaligned_access
	.eabi_attribute	17, 1	@ Tag_ABI_PCS_GOT_use
	.eabi_attribute	20, 2	@ Tag_ABI_FP_denormal
	.eabi_attribute	21, 0	@ Tag_ABI_FP_exceptions
	.eabi_attribute	23, 1	@ Tag_ABI_FP_number_model
	.eabi_attribute	24, 1	@ Tag_ABI_align_needed
	.eabi_attribute	25, 1	@ Tag_ABI_align_preserved
	.eabi_attribute	28, 1	@ Tag_ABI_VFP_args
	.eabi_attribute	38, 1	@ Tag_ABI_FP_16bit_format
	.eabi_attribute	18, 2	@ Tag_ABI_PCS_wchar_t
	.eabi_attribute	26, 1	@ Tag_ABI_enum_size
	.eabi_attribute	14, 0	@ Tag_ABI_PCS_R9_use
	.file	"tftpserver.c"
	.file	1 "F:\\SkyDrive\\OtvoreniProjekti\\HotelSaplast\\fw\\KontrolerHotela\\HC070318\\Project" "../User/TFTP_Server/tftpserver.c"
	.file	2 "F:\\SkyDrive\\OtvoreniProjekti\\HotelSaplast\\fw\\KontrolerHotela\\HC070318\\Project" "../User/FATFS/integer.h"
	.file	3 "F:\\SkyDrive\\OtvoreniProjekti\\HotelSaplast\\fw\\KontrolerHotela\\HC070318\\Project" "../User/FATFS\\ff.h"
	.file	4 "C:\\Keil\\ARM\\ARMCLANG\\Bin\\..\\include" "stdint.h"
	.file	5 "F:\\SkyDrive\\OtvoreniProjekti\\HotelSaplast\\fw\\KontrolerHotela\\HC070318\\Project" "../Libraries/lwip-1.4.1/port/arch\\cc.h"
	.file	6 "F:\\SkyDrive\\OtvoreniProjekti\\HotelSaplast\\fw\\KontrolerHotela\\HC070318\\Project" "../Libraries/lwip-1.4.1/src/include/ipv4\\lwip/ip_addr.h"
	.file	7 "F:\\SkyDrive\\OtvoreniProjekti\\HotelSaplast\\fw\\KontrolerHotela\\HC070318\\Project" "../Libraries/lwip-1.4.1/src/include\\lwip/udp.h"
	.file	8 "F:\\SkyDrive\\OtvoreniProjekti\\HotelSaplast\\fw\\KontrolerHotela\\HC070318\\Project" "../Libraries/lwip-1.4.1/src/include\\lwip/pbuf.h"
	.file	9 "F:\\SkyDrive\\OtvoreniProjekti\\HotelSaplast\\fw\\KontrolerHotela\\HC070318\\Project" "../User/TFTP_Server/tftpserver.h"
	.section	.text.tftp_send_message,"ax",%progbits
	.hidden	tftp_send_message       @ -- Begin function tftp_send_message
	.globl	tftp_send_message
	.p2align	1
	.type	tftp_send_message,%function
	.code	16                      @ @tftp_send_message
	.thumb_func
tftp_send_message:
.Lfunc_begin0:
	.loc	1 85 0                  @ ../User/TFTP_Server/tftpserver.c:85:0
	.fnstart
	.cfi_sections .debug_frame
	.cfi_startproc
@ %bb.0:
	.save	{r4, r5, r6, r7, r8, r9, lr}
	push.w	{r4, r5, r6, r7, r8, r9, lr}
	.cfi_def_cfa_offset 28
	.cfi_offset lr, -4
	.cfi_offset r9, -8
	.cfi_offset r8, -12
	.cfi_offset r7, -16
	.cfi_offset r6, -20
	.cfi_offset r5, -24
	.cfi_offset r4, -28
	.pad	#4
	sub	sp, #4
	.cfi_def_cfa_offset 32
	@DEBUG_VALUE: tftp_send_message:upcb <- $r0
	@DEBUG_VALUE: tftp_send_message:to_ip <- $r1
	@DEBUG_VALUE: tftp_send_message:to_port <- $r2
	@DEBUG_VALUE: tftp_send_message:buf <- $r3
	ldr.w	r9, [sp, #32]
	@DEBUG_VALUE: tftp_send_message:buflen <- $r9
	mov	r8, r2
	mov	r5, r1
	mov	r6, r0
.Ltmp0:
	@DEBUG_VALUE: tftp_send_message:buf <- $r4
	@DEBUG_VALUE: tftp_send_message:to_port <- $r8
	@DEBUG_VALUE: tftp_send_message:to_ip <- $r5
	@DEBUG_VALUE: tftp_send_message:upcb <- $r6
	.loc	1 90 13 prologue_end    @ ../User/TFTP_Server/tftpserver.c:90:13
	movs	r0, #0
	movs	r2, #3
	mov	r4, r3
.Ltmp1:
	mov	r1, r9
	bl	pbuf_alloc
	.loc	1 92 7                  @ ../User/TFTP_Server/tftpserver.c:92:7
	cbz	r0, .LBB0_2
.Ltmp2:
@ %bb.1:
	@DEBUG_VALUE: tftp_send_message:upcb <- $r6
	@DEBUG_VALUE: tftp_send_message:to_ip <- $r5
	@DEBUG_VALUE: tftp_send_message:to_port <- $r8
	@DEBUG_VALUE: tftp_send_message:buflen <- $r9
	.loc	1 0 0 is_stmt 0         @ ../User/TFTP_Server/tftpserver.c:0:0
	mov	r7, r0
.Ltmp3:
	@DEBUG_VALUE: tftp_send_message:pkt_buf <- $r7
	@DEBUG_VALUE: tftp_send_message:to_port <- $r8
	.loc	1 96 19 is_stmt 1       @ ../User/TFTP_Server/tftpserver.c:96:19
	ldr	r0, [r0, #4]
	.loc	1 96 3 is_stmt 0        @ ../User/TFTP_Server/tftpserver.c:96:3
	mov	r1, r4
	mov	r2, r9
	bl	__aeabi_memcpy
	.loc	1 99 9 is_stmt 1        @ ../User/TFTP_Server/tftpserver.c:99:9
	mov	r0, r6
	mov	r1, r7
	mov	r2, r5
	mov	r3, r8
	bl	udp_sendto
	mov	r4, r0
.Ltmp4:
	@DEBUG_VALUE: tftp_send_message:err <- undef
	.loc	1 102 3                 @ ../User/TFTP_Server/tftpserver.c:102:3
	mov	r0, r7
	bl	pbuf_free
	.loc	1 105 1                 @ ../User/TFTP_Server/tftpserver.c:105:1
	mov	r0, r4
	add	sp, #4
	pop.w	{r4, r5, r6, r7, r8, r9, pc}
.Ltmp5:
.LBB0_2:
	@DEBUG_VALUE: tftp_send_message:upcb <- $r6
	@DEBUG_VALUE: tftp_send_message:to_ip <- $r5
	@DEBUG_VALUE: tftp_send_message:to_port <- $r8
	@DEBUG_VALUE: tftp_send_message:buflen <- $r9
	mov.w	r0, #-1
	add	sp, #4
	pop.w	{r4, r5, r6, r7, r8, r9, pc}
.Ltmp6:
.Lfunc_end0:
	.size	tftp_send_message, .Lfunc_end0-tftp_send_message
	.cfi_endproc
	.cantunwind
	.fnend
                                        @ -- End function
	.section	.text.tftp_construct_error_message,"ax",%progbits
	.hidden	tftp_construct_error_message @ -- Begin function tftp_construct_error_message
	.globl	tftp_construct_error_message
	.p2align	1
	.type	tftp_construct_error_message,%function
	.code	16                      @ @tftp_construct_error_message
	.thumb_func
tftp_construct_error_message:
.Lfunc_begin1:
	.loc	1 115 0                 @ ../User/TFTP_Server/tftpserver.c:115:0
	.fnstart
	.cfi_startproc
@ %bb.0:
	.save	{r4, r5, r6, lr}
	push	{r4, r5, r6, lr}
	.cfi_def_cfa_offset 16
	.cfi_offset lr, -4
	.cfi_offset r6, -8
	.cfi_offset r5, -12
	.cfi_offset r4, -16
	@DEBUG_VALUE: tftp_construct_error_message:buf <- $r0
	@DEBUG_VALUE: tftp_construct_error_message:err <- $r1
	mov	r4, r1
.Ltmp7:
	.loc	1 118 3 prologue_end    @ ../User/TFTP_Server/tftpserver.c:118:3
	movs	r1, #5
.Ltmp8:
	.loc	1 0 3 is_stmt 0         @ ../User/TFTP_Server/tftpserver.c:0:3
	mov	r5, r0
.Ltmp9:
	@DEBUG_VALUE: tftp_construct_error_message:err <- $r4
	@DEBUG_VALUE: tftp_construct_error_message:buf <- $r5
	.loc	1 118 3                 @ ../User/TFTP_Server/tftpserver.c:118:3
	bl	tftp_set_opcode
	.loc	1 120 3 is_stmt 1       @ ../User/TFTP_Server/tftpserver.c:120:3
	mov	r0, r5
	mov	r1, r4
	bl	tftp_set_errorcode
	.loc	1 122 26                @ ../User/TFTP_Server/tftpserver.c:122:26
	movw	r6, :lower16:tftp_errorcode_string
	.loc	1 122 3 is_stmt 0       @ ../User/TFTP_Server/tftpserver.c:122:3
	mov	r0, r5
	.loc	1 122 26                @ ../User/TFTP_Server/tftpserver.c:122:26
	movt	r6, :upper16:tftp_errorcode_string
	ldr.w	r1, [r6, r4, lsl #2]
	.loc	1 122 3                 @ ../User/TFTP_Server/tftpserver.c:122:3
	bl	tftp_set_errormsg
	.loc	1 124 21 is_stmt 1      @ ../User/TFTP_Server/tftpserver.c:124:21
	ldr.w	r0, [r6, r4, lsl #2]
	.loc	1 124 14 is_stmt 0      @ ../User/TFTP_Server/tftpserver.c:124:14
	bl	strlen
.Ltmp10:
	@DEBUG_VALUE: tftp_construct_error_message:errorlen <- $r0
	.loc	1 127 23 is_stmt 1      @ ../User/TFTP_Server/tftpserver.c:127:23
	adds	r0, #5
.Ltmp11:
	.loc	1 127 3 is_stmt 0       @ ../User/TFTP_Server/tftpserver.c:127:3
	pop	{r4, r5, r6, pc}
.Ltmp12:
.Lfunc_end1:
	.size	tftp_construct_error_message, .Lfunc_end1-tftp_construct_error_message
	.cfi_endproc
	.cantunwind
	.fnend
                                        @ -- End function
	.section	.text.tftp_send_error_message,"ax",%progbits
	.hidden	tftp_send_error_message @ -- Begin function tftp_send_error_message
	.globl	tftp_send_error_message
	.p2align	1
	.type	tftp_send_error_message,%function
	.code	16                      @ @tftp_send_error_message
	.thumb_func
tftp_send_error_message:
.Lfunc_begin2:
	.loc	1 140 0 is_stmt 1       @ ../User/TFTP_Server/tftpserver.c:140:0
	.fnstart
	.cfi_startproc
@ %bb.0:
	.save	{r4, r5, r6, r7, lr}
	push	{r4, r5, r6, r7, lr}
	.cfi_def_cfa_offset 20
	.cfi_offset lr, -4
	.cfi_offset r7, -8
	.cfi_offset r6, -12
	.cfi_offset r5, -16
	.cfi_offset r4, -20
	.pad	#516
	sub.w	sp, sp, #516
	.cfi_def_cfa_offset 536
	@DEBUG_VALUE: tftp_send_error_message:upcb <- $r0
	@DEBUG_VALUE: tftp_send_error_message:to <- $r1
	@DEBUG_VALUE: tftp_send_error_message:to_port <- $r2
	@DEBUG_VALUE: tftp_send_error_message:err <- $r3
	add	r7, sp, #4
	mov	r5, r1
	mov	r6, r0
	@DEBUG_VALUE: tftp_send_error_message:err <- $r3
.Ltmp13:
	@DEBUG_VALUE: tftp_send_error_message:to_port <- $r4
	@DEBUG_VALUE: tftp_send_error_message:to <- $r5
	@DEBUG_VALUE: tftp_send_error_message:upcb <- $r6
	.loc	1 145 15 prologue_end   @ ../User/TFTP_Server/tftpserver.c:145:15
	mov	r1, r3
.Ltmp14:
	@DEBUG_VALUE: tftp_send_error_message:err <- $r1
	.loc	1 0 15 is_stmt 0        @ ../User/TFTP_Server/tftpserver.c:0:15
	mov	r4, r2
.Ltmp15:
	.loc	1 145 15                @ ../User/TFTP_Server/tftpserver.c:145:15
	mov	r0, r7
	bl	tftp_construct_error_message
.Ltmp16:
	@DEBUG_VALUE: tftp_send_error_message:error_len <- $r0
	.loc	1 147 10 is_stmt 1      @ ../User/TFTP_Server/tftpserver.c:147:10
	uxth	r0, r0
.Ltmp17:
	uxth	r2, r4
	mov	r1, r5
.Ltmp18:
	@DEBUG_VALUE: tftp_send_error_message:to <- $r1
	mov	r3, r7
	str	r0, [sp]
	mov	r0, r6
.Ltmp19:
	@DEBUG_VALUE: tftp_send_error_message:upcb <- $r0
	bl	tftp_send_message
.Ltmp20:
	.loc	1 147 3 is_stmt 0       @ ../User/TFTP_Server/tftpserver.c:147:3
	add.w	sp, sp, #516
	pop	{r4, r5, r6, r7, pc}
.Ltmp21:
.Lfunc_end2:
	.size	tftp_send_error_message, .Lfunc_end2-tftp_send_error_message
	.cfi_endproc
	.cantunwind
	.fnend
                                        @ -- End function
	.section	.text.tftp_send_data_packet,"ax",%progbits
	.hidden	tftp_send_data_packet   @ -- Begin function tftp_send_data_packet
	.globl	tftp_send_data_packet
	.p2align	1
	.type	tftp_send_data_packet,%function
	.code	16                      @ @tftp_send_data_packet
	.thumb_func
tftp_send_data_packet:
.Lfunc_begin3:
	.loc	1 162 0 is_stmt 1       @ ../User/TFTP_Server/tftpserver.c:162:0
	.fnstart
	.cfi_startproc
@ %bb.0:
	.save	{r4, r5, r6, r7, r8, lr}
	push.w	{r4, r5, r6, r7, r8, lr}
	.cfi_def_cfa_offset 24
	.cfi_offset lr, -4
	.cfi_offset r8, -8
	.cfi_offset r7, -12
	.cfi_offset r6, -16
	.cfi_offset r5, -20
	.cfi_offset r4, -24
	.pad	#520
	sub.w	sp, sp, #520
	.cfi_def_cfa_offset 544
	@DEBUG_VALUE: tftp_send_data_packet:upcb <- $r0
	@DEBUG_VALUE: tftp_send_data_packet:to <- $r1
	@DEBUG_VALUE: tftp_send_data_packet:to_port <- $r2
	@DEBUG_VALUE: tftp_send_data_packet:block <- $r3
	add	r6, sp, #4
	mov	r8, r1
	mov	r7, r0
	@DEBUG_VALUE: tftp_send_data_packet:buflen <- [DW_OP_plus_uconst 548] [$sp+0]
	@DEBUG_VALUE: tftp_send_data_packet:buf <- [DW_OP_plus_uconst 544] [$sp+0]
.Ltmp22:
	@DEBUG_VALUE: tftp_send_data_packet:block <- $r4
	@DEBUG_VALUE: tftp_send_data_packet:to_port <- $r5
	@DEBUG_VALUE: tftp_send_data_packet:to <- $r8
	@DEBUG_VALUE: tftp_send_data_packet:upcb <- $r7
	.loc	1 166 3 prologue_end    @ ../User/TFTP_Server/tftpserver.c:166:3
	movs	r1, #3
	mov	r4, r3
.Ltmp23:
	.loc	1 0 3 is_stmt 0         @ ../User/TFTP_Server/tftpserver.c:0:3
	mov	r5, r2
.Ltmp24:
	.loc	1 166 3                 @ ../User/TFTP_Server/tftpserver.c:166:3
	mov	r0, r6
	bl	tftp_set_opcode
	.loc	1 168 3 is_stmt 1       @ ../User/TFTP_Server/tftpserver.c:168:3
	mov	r0, r6
	mov	r1, r4
.Ltmp25:
	@DEBUG_VALUE: tftp_send_data_packet:block <- $r1
	bl	tftp_set_block
.Ltmp26:
	.loc	1 0 3 is_stmt 0         @ ../User/TFTP_Server/tftpserver.c:0:3
	ldrd	r1, r4, [sp, #544]
	.loc	1 170 3 is_stmt 1       @ ../User/TFTP_Server/tftpserver.c:170:3
	mov	r0, r6
	mov	r2, r4
	bl	tftp_set_data_message
	.loc	1 172 55                @ ../User/TFTP_Server/tftpserver.c:172:55
	adds	r0, r4, #4
	.loc	1 172 10 is_stmt 0      @ ../User/TFTP_Server/tftpserver.c:172:10
	uxth	r2, r5
	mov	r1, r8
.Ltmp27:
	@DEBUG_VALUE: tftp_send_data_packet:to <- $r1
	mov	r3, r6
	uxth	r0, r0
	str	r0, [sp]
	mov	r0, r7
.Ltmp28:
	@DEBUG_VALUE: tftp_send_data_packet:upcb <- $r0
	bl	tftp_send_message
.Ltmp29:
	.loc	1 172 3                 @ ../User/TFTP_Server/tftpserver.c:172:3
	add.w	sp, sp, #520
.Ltmp30:
	pop.w	{r4, r5, r6, r7, r8, pc}
.Ltmp31:
.Lfunc_end3:
	.size	tftp_send_data_packet, .Lfunc_end3-tftp_send_data_packet
	.cfi_endproc
	.cantunwind
	.fnend
                                        @ -- End function
	.section	.text.tftp_send_ack_packet,"ax",%progbits
	.hidden	tftp_send_ack_packet    @ -- Begin function tftp_send_ack_packet
	.globl	tftp_send_ack_packet
	.p2align	1
	.type	tftp_send_ack_packet,%function
	.code	16                      @ @tftp_send_ack_packet
	.thumb_func
tftp_send_ack_packet:
.Lfunc_begin4:
	.loc	1 184 0 is_stmt 1       @ ../User/TFTP_Server/tftpserver.c:184:0
	.fnstart
	.cfi_startproc
@ %bb.0:
	.save	{r4, r5, r6, r7, r8, r9, lr}
	push.w	{r4, r5, r6, r7, r8, r9, lr}
	.cfi_def_cfa_offset 28
	.cfi_offset lr, -4
	.cfi_offset r9, -8
	.cfi_offset r8, -12
	.cfi_offset r7, -16
	.cfi_offset r6, -20
	.cfi_offset r5, -24
	.cfi_offset r4, -28
	.pad	#12
	sub	sp, #12
	.cfi_def_cfa_offset 40
	@DEBUG_VALUE: tftp_send_ack_packet:upcb <- $r0
	@DEBUG_VALUE: tftp_send_ack_packet:to <- $r1
	@DEBUG_VALUE: tftp_send_ack_packet:to_port <- $r2
	@DEBUG_VALUE: tftp_send_ack_packet:block <- $r3
	add	r6, sp, #8
	mov	r8, r1
	mov	r7, r0
.Ltmp32:
	@DEBUG_VALUE: tftp_send_ack_packet:block <- $r4
	@DEBUG_VALUE: tftp_send_ack_packet:to_port <- $r5
	@DEBUG_VALUE: tftp_send_ack_packet:to <- $r8
	@DEBUG_VALUE: tftp_send_ack_packet:upcb <- $r7
	.loc	1 190 3 prologue_end    @ ../User/TFTP_Server/tftpserver.c:190:3
	movs	r1, #4
	mov	r4, r3
.Ltmp33:
	.loc	1 0 3 is_stmt 0         @ ../User/TFTP_Server/tftpserver.c:0:3
	mov	r5, r2
.Ltmp34:
	mov.w	r9, #4
	.loc	1 190 3                 @ ../User/TFTP_Server/tftpserver.c:190:3
	mov	r0, r6
	bl	tftp_set_opcode
	.loc	1 197 3 is_stmt 1       @ ../User/TFTP_Server/tftpserver.c:197:3
	mov	r0, r6
	mov	r1, r4
.Ltmp35:
	@DEBUG_VALUE: tftp_send_ack_packet:block <- $r1
	bl	tftp_set_block
.Ltmp36:
	.loc	1 199 10                @ ../User/TFTP_Server/tftpserver.c:199:10
	uxth	r2, r5
	mov	r0, r7
.Ltmp37:
	@DEBUG_VALUE: tftp_send_ack_packet:upcb <- $r0
	mov	r1, r8
.Ltmp38:
	@DEBUG_VALUE: tftp_send_ack_packet:to <- $r1
	mov	r3, r6
	str.w	r9, [sp]
	bl	tftp_send_message
.Ltmp39:
	.loc	1 199 3 is_stmt 0       @ ../User/TFTP_Server/tftpserver.c:199:3
	add	sp, #12
	pop.w	{r4, r5, r6, r7, r8, r9, pc}
.Ltmp40:
.Lfunc_end4:
	.size	tftp_send_ack_packet, .Lfunc_end4-tftp_send_ack_packet
	.cfi_endproc
	.cantunwind
	.fnend
                                        @ -- End function
	.section	.text.tftp_cleanup_rd,"ax",%progbits
	.hidden	tftp_cleanup_rd         @ -- Begin function tftp_cleanup_rd
	.globl	tftp_cleanup_rd
	.p2align	1
	.type	tftp_cleanup_rd,%function
	.code	16                      @ @tftp_cleanup_rd
	.thumb_func
tftp_cleanup_rd:
.Lfunc_begin5:
	.loc	1 210 0 is_stmt 1       @ ../User/TFTP_Server/tftpserver.c:210:0
	.fnstart
	.cfi_startproc
@ %bb.0:
	.save	{r4, r5, r7, lr}
	push	{r4, r5, r7, lr}
	.cfi_def_cfa_offset 16
	.cfi_offset lr, -4
	.cfi_offset r7, -8
	.cfi_offset r5, -12
	.cfi_offset r4, -16
	@DEBUG_VALUE: tftp_cleanup_rd:upcb <- $r0
	@DEBUG_VALUE: tftp_cleanup_rd:args <- $r1
	mov	r5, r0
.Ltmp41:
	@DEBUG_VALUE: tftp_cleanup_rd:args <- $r4
	@DEBUG_VALUE: tftp_cleanup_rd:upcb <- $r5
	.loc	1 212 2 prologue_end    @ ../User/TFTP_Server/tftpserver.c:212:2
	movw	r0, :lower16:file_SD
	mov	r4, r1
.Ltmp42:
	movt	r0, :upper16:file_SD
	bl	f_close
	.loc	1 213 2                 @ ../User/TFTP_Server/tftpserver.c:213:2
	movw	r1, :lower16:.L.str.8
	movs	r0, #0
	movs	r2, #0
	movt	r1, :upper16:.L.str.8
	bl	f_mount
	.loc	1 215 2                 @ ../User/TFTP_Server/tftpserver.c:215:2
	mov	r0, r4
.Ltmp43:
	@DEBUG_VALUE: tftp_cleanup_rd:args <- $r0
	bl	mem_free
.Ltmp44:
	.loc	1 218 2                 @ ../User/TFTP_Server/tftpserver.c:218:2
	mov	r0, r5
	bl	udp_disconnect
	.loc	1 221 2                 @ ../User/TFTP_Server/tftpserver.c:221:2
	mov	r0, r5
	bl	udp_remove
	.loc	1 223 11                @ ../User/TFTP_Server/tftpserver.c:223:11
	movw	r0, :lower16:UDPpcb
	.loc	1 223 2 is_stmt 0       @ ../User/TFTP_Server/tftpserver.c:223:2
	movw	r1, :lower16:recv_callback_tftp
	movs	r2, #0
	.loc	1 223 11                @ ../User/TFTP_Server/tftpserver.c:223:11
	movt	r0, :upper16:UDPpcb
	.loc	1 223 2                 @ ../User/TFTP_Server/tftpserver.c:223:2
	movt	r1, :upper16:recv_callback_tftp
	.loc	1 223 11                @ ../User/TFTP_Server/tftpserver.c:223:11
	ldr	r0, [r0]
	.loc	1 223 2                 @ ../User/TFTP_Server/tftpserver.c:223:2
	pop.w	{r4, r5, r7, lr}
.Ltmp45:
	b	udp_recv
.Ltmp46:
.Lfunc_end5:
	.size	tftp_cleanup_rd, .Lfunc_end5-tftp_cleanup_rd
	.cfi_endproc
	.cantunwind
	.fnend
                                        @ -- End function
	.section	.text.recv_callback_tftp,"ax",%progbits
	.hidden	recv_callback_tftp      @ -- Begin function recv_callback_tftp
	.globl	recv_callback_tftp
	.p2align	1
	.type	recv_callback_tftp,%function
	.code	16                      @ @recv_callback_tftp
	.thumb_func
recv_callback_tftp:
.Lfunc_begin6:
	.loc	1 748 0 is_stmt 1       @ ../User/TFTP_Server/tftpserver.c:748:0
	.fnstart
	.cfi_startproc
@ %bb.0:
	.save	{r4, lr}
	push	{r4, lr}
	.cfi_def_cfa_offset 8
	.cfi_offset lr, -4
	.cfi_offset r4, -8
	@DEBUG_VALUE: recv_callback_tftp:pkt_buf <- $r2
	@DEBUG_VALUE: recv_callback_tftp:addr <- $r3
	mov	r4, r2
	@DEBUG_VALUE: recv_callback_tftp:port <- undef
	@DEBUG_VALUE: recv_callback_tftp:upcb <- undef
	@DEBUG_VALUE: recv_callback_tftp:arg <- undef
.Ltmp47:
	@DEBUG_VALUE: recv_callback_tftp:addr <- $r1
	@DEBUG_VALUE: recv_callback_tftp:pkt_buf <- $r4
	ldr	r2, [sp, #8]
	mov	r1, r3
.Ltmp48:
	.loc	1 750 3 prologue_end    @ ../User/TFTP_Server/tftpserver.c:750:3
	mov	r0, r4
.Ltmp49:
	@DEBUG_VALUE: recv_callback_tftp:addr <- $r1
	bl	process_tftp_request
.Ltmp50:
	.loc	1 753 3                 @ ../User/TFTP_Server/tftpserver.c:753:3
	mov	r0, r4
	pop.w	{r4, lr}
.Ltmp51:
	b	pbuf_free
.Ltmp52:
.Lfunc_end6:
	.size	recv_callback_tftp, .Lfunc_end6-recv_callback_tftp
	.cfi_endproc
	.cantunwind
	.fnend
                                        @ -- End function
	.section	.text.tftp_cleanup_wr,"ax",%progbits
	.hidden	tftp_cleanup_wr         @ -- Begin function tftp_cleanup_wr
	.globl	tftp_cleanup_wr
	.p2align	1
	.type	tftp_cleanup_wr,%function
	.code	16                      @ @tftp_cleanup_wr
	.thumb_func
tftp_cleanup_wr:
.Lfunc_begin7:
	.loc	1 233 0                 @ ../User/TFTP_Server/tftpserver.c:233:0
	.fnstart
	.cfi_startproc
@ %bb.0:
	.save	{r4, r5, r7, lr}
	push	{r4, r5, r7, lr}
	.cfi_def_cfa_offset 16
	.cfi_offset lr, -4
	.cfi_offset r7, -8
	.cfi_offset r5, -12
	.cfi_offset r4, -16
	@DEBUG_VALUE: tftp_cleanup_wr:upcb <- $r0
	@DEBUG_VALUE: tftp_cleanup_wr:args <- $r1
	mov	r5, r0
.Ltmp53:
	@DEBUG_VALUE: tftp_cleanup_wr:args <- $r4
	@DEBUG_VALUE: tftp_cleanup_wr:upcb <- $r5
	.loc	1 235 2 prologue_end    @ ../User/TFTP_Server/tftpserver.c:235:2
	movw	r0, :lower16:file_CR
	mov	r4, r1
.Ltmp54:
	movt	r0, :upper16:file_CR
	bl	f_close
	.loc	1 236 2                 @ ../User/TFTP_Server/tftpserver.c:236:2
	movw	r1, :lower16:.L.str.8
	movs	r0, #0
	movs	r2, #0
	movt	r1, :upper16:.L.str.8
	bl	f_mount
	.loc	1 238 2                 @ ../User/TFTP_Server/tftpserver.c:238:2
	mov	r0, r4
.Ltmp55:
	@DEBUG_VALUE: tftp_cleanup_wr:args <- $r0
	bl	mem_free
.Ltmp56:
	.loc	1 241 2                 @ ../User/TFTP_Server/tftpserver.c:241:2
	mov	r0, r5
	bl	udp_disconnect
	.loc	1 244 2                 @ ../User/TFTP_Server/tftpserver.c:244:2
	mov	r0, r5
	bl	udp_remove
	.loc	1 247 11                @ ../User/TFTP_Server/tftpserver.c:247:11
	movw	r0, :lower16:UDPpcb
	.loc	1 247 2 is_stmt 0       @ ../User/TFTP_Server/tftpserver.c:247:2
	movw	r1, :lower16:recv_callback_tftp
	movs	r2, #0
	.loc	1 247 11                @ ../User/TFTP_Server/tftpserver.c:247:11
	movt	r0, :upper16:UDPpcb
	.loc	1 247 2                 @ ../User/TFTP_Server/tftpserver.c:247:2
	movt	r1, :upper16:recv_callback_tftp
	.loc	1 247 11                @ ../User/TFTP_Server/tftpserver.c:247:11
	ldr	r0, [r0]
	.loc	1 247 2                 @ ../User/TFTP_Server/tftpserver.c:247:2
	pop.w	{r4, r5, r7, lr}
.Ltmp57:
	b	udp_recv
.Ltmp58:
.Lfunc_end7:
	.size	tftp_cleanup_wr, .Lfunc_end7-tftp_cleanup_wr
	.cfi_endproc
	.cantunwind
	.fnend
                                        @ -- End function
	.section	.text.tftp_send_next_block,"ax",%progbits
	.hidden	tftp_send_next_block    @ -- Begin function tftp_send_next_block
	.globl	tftp_send_next_block
	.p2align	1
	.type	tftp_send_next_block,%function
	.code	16                      @ @tftp_send_next_block
	.thumb_func
tftp_send_next_block:
.Lfunc_begin8:
	.loc	1 259 0 is_stmt 1       @ ../User/TFTP_Server/tftpserver.c:259:0
	.fnstart
	.cfi_startproc
@ %bb.0:
	.save	{r4, r5, r6, r7, r8, lr}
	push.w	{r4, r5, r6, r7, r8, lr}
	.cfi_def_cfa_offset 24
	.cfi_offset lr, -4
	.cfi_offset r8, -8
	.cfi_offset r7, -12
	.cfi_offset r6, -16
	.cfi_offset r5, -20
	.cfi_offset r4, -24
	.pad	#8
	sub	sp, #8
	.cfi_def_cfa_offset 32
	@DEBUG_VALUE: tftp_send_next_block:upcb <- $r0
	@DEBUG_VALUE: tftp_send_next_block:args <- $r1
	@DEBUG_VALUE: tftp_send_next_block:to_ip <- $r2
	@DEBUG_VALUE: tftp_send_next_block:to_port <- $r3
	mov	r7, r0
.Ltmp59:
	@DEBUG_VALUE: tftp_send_next_block:to_port <- $r8
	@DEBUG_VALUE: tftp_send_next_block:to_ip <- $r5
	@DEBUG_VALUE: tftp_send_next_block:args <- $r6
	@DEBUG_VALUE: tftp_send_next_block:upcb <- $r7
	.loc	1 262 4 prologue_end    @ ../User/TFTP_Server/tftpserver.c:262:4
	movw	r0, :lower16:file_SD
	.loc	1 262 31 is_stmt 0      @ ../User/TFTP_Server/tftpserver.c:262:31
	adds	r4, r1, #4
	mov	r8, r3
.Ltmp60:
	.loc	1 0 31                  @ ../User/TFTP_Server/tftpserver.c:0:31
	mov	r5, r2
.Ltmp61:
	mov	r6, r1
.Ltmp62:
	.loc	1 262 77                @ ../User/TFTP_Server/tftpserver.c:262:77
	add.w	r3, r1, #520
	.loc	1 262 4                 @ ../User/TFTP_Server/tftpserver.c:262:4
	mov.w	r2, #512
	movt	r0, :upper16:file_SD
	mov	r1, r4
	bl	f_read
	.loc	1 267 78 is_stmt 1      @ ../User/TFTP_Server/tftpserver.c:267:78
	ldr.w	r0, [r6, #520]
	.loc	1 267 53 is_stmt 0      @ ../User/TFTP_Server/tftpserver.c:267:53
	ldrh.w	r3, [r6, #532]
	.loc	1 267 3                 @ ../User/TFTP_Server/tftpserver.c:267:3
	mov	r1, r5
.Ltmp63:
	@DEBUG_VALUE: tftp_send_next_block:to_ip <- $r1
	mov	r2, r8
.Ltmp64:
	@DEBUG_VALUE: tftp_send_next_block:to_port <- $r2
	strd	r4, r0, [sp]
	mov	r0, r7
.Ltmp65:
	@DEBUG_VALUE: tftp_send_next_block:upcb <- $r0
	bl	tftp_send_data_packet
.Ltmp66:
	.loc	1 269 1 is_stmt 1       @ ../User/TFTP_Server/tftpserver.c:269:1
	add	sp, #8
	pop.w	{r4, r5, r6, r7, r8, pc}
.Ltmp67:
.Lfunc_end8:
	.size	tftp_send_next_block, .Lfunc_end8-tftp_send_next_block
	.cfi_endproc
	.cantunwind
	.fnend
                                        @ -- End function
	.section	.text.rrq_recv_callback,"ax",%progbits
	.hidden	rrq_recv_callback       @ -- Begin function rrq_recv_callback
	.globl	rrq_recv_callback
	.p2align	1
	.type	rrq_recv_callback,%function
	.code	16                      @ @rrq_recv_callback
	.thumb_func
rrq_recv_callback:
.Lfunc_begin9:
	.loc	1 281 0                 @ ../User/TFTP_Server/tftpserver.c:281:0
	.fnstart
	.cfi_startproc
@ %bb.0:
	.save	{r4, r5, r6, r7, r8, lr}
	push.w	{r4, r5, r6, r7, r8, lr}
	.cfi_def_cfa_offset 24
	.cfi_offset lr, -4
	.cfi_offset r8, -8
	.cfi_offset r7, -12
	.cfi_offset r6, -16
	.cfi_offset r5, -20
	.cfi_offset r4, -24
	@DEBUG_VALUE: rrq_recv_callback:arg <- $r0
	@DEBUG_VALUE: rrq_recv_callback:upcb <- $r1
	@DEBUG_VALUE: rrq_recv_callback:p <- $r2
	@DEBUG_VALUE: rrq_recv_callback:addr <- $r3
.Ltmp68:
	@DEBUG_VALUE: rrq_recv_callback:args <- $r0
	mov	r7, r1
	mov	r6, r0
.Ltmp69:
	@DEBUG_VALUE: rrq_recv_callback:args <- $r6
	@DEBUG_VALUE: rrq_recv_callback:addr <- $r8
	@DEBUG_VALUE: rrq_recv_callback:p <- $r4
	@DEBUG_VALUE: rrq_recv_callback:upcb <- $r7
	@DEBUG_VALUE: rrq_recv_callback:arg <- $r6
	.loc	1 285 45 prologue_end   @ ../User/TFTP_Server/tftpserver.c:285:45
	ldr.w	r1, [r0, #532]
	.loc	1 285 30 is_stmt 0      @ ../User/TFTP_Server/tftpserver.c:285:30
	ldr	r0, [r2, #4]
	mov	r8, r3
.Ltmp70:
	.loc	1 0 30                  @ ../User/TFTP_Server/tftpserver.c:0:30
	mov	r4, r2
.Ltmp71:
	.loc	1 285 7                 @ ../User/TFTP_Server/tftpserver.c:285:7
	bl	tftp_is_correct_ack
	ldr	r5, [sp, #24]
.Ltmp72:
	@DEBUG_VALUE: rrq_recv_callback:port <- $r5
	.loc	1 285 7                 @ ../User/TFTP_Server/tftpserver.c:285:7
	cbz	r0, .LBB9_2
.Ltmp73:
@ %bb.1:
	@DEBUG_VALUE: rrq_recv_callback:port <- $r5
	@DEBUG_VALUE: rrq_recv_callback:arg <- $r6
	@DEBUG_VALUE: rrq_recv_callback:upcb <- $r7
	@DEBUG_VALUE: rrq_recv_callback:args <- $r6
	.loc	1 288 16 is_stmt 1      @ ../User/TFTP_Server/tftpserver.c:288:16
	ldr.w	r0, [r6, #532]
	adds	r0, #1
	str.w	r0, [r6, #532]
.Ltmp74:
.LBB9_2:
	@DEBUG_VALUE: rrq_recv_callback:port <- $r5
	@DEBUG_VALUE: rrq_recv_callback:arg <- $r6
	@DEBUG_VALUE: rrq_recv_callback:upcb <- $r7
	@DEBUG_VALUE: rrq_recv_callback:args <- $r6
	.loc	1 299 13                @ ../User/TFTP_Server/tftpserver.c:299:13
	ldr.w	r0, [r6, #520]
	movs	r1, #0
.Ltmp75:
	.loc	1 299 7 is_stmt 0       @ ../User/TFTP_Server/tftpserver.c:299:7
	cmp.w	r1, r0, lsr #9
	bne	.LBB9_4
.Ltmp76:
@ %bb.3:
	@DEBUG_VALUE: rrq_recv_callback:port <- $r5
	@DEBUG_VALUE: rrq_recv_callback:arg <- $r6
	@DEBUG_VALUE: rrq_recv_callback:upcb <- $r7
	@DEBUG_VALUE: rrq_recv_callback:args <- $r6
	.loc	1 302 5 is_stmt 1       @ ../User/TFTP_Server/tftpserver.c:302:5
	mov	r0, r7
	mov	r1, r6
	bl	tftp_cleanup_rd
	.loc	1 304 5                 @ ../User/TFTP_Server/tftpserver.c:304:5
	mov	r0, r4
	bl	pbuf_free
.Ltmp77:
.LBB9_4:
	@DEBUG_VALUE: rrq_recv_callback:port <- $r5
	@DEBUG_VALUE: rrq_recv_callback:arg <- $r6
	@DEBUG_VALUE: rrq_recv_callback:upcb <- $r7
	@DEBUG_VALUE: rrq_recv_callback:args <- $r6
	.loc	1 308 3                 @ ../User/TFTP_Server/tftpserver.c:308:3
	mov	r0, r7
	mov	r1, r6
	mov	r2, r8
	mov	r3, r5
	bl	tftp_send_next_block
	.loc	1 310 3                 @ ../User/TFTP_Server/tftpserver.c:310:3
	mov	r0, r4
	pop.w	{r4, r5, r6, r7, r8, lr}
.Ltmp78:
	b	pbuf_free
.Ltmp79:
.Lfunc_end9:
	.size	rrq_recv_callback, .Lfunc_end9-rrq_recv_callback
	.cfi_endproc
	.cantunwind
	.fnend
                                        @ -- End function
	.section	.text.wrq_recv_callback,"ax",%progbits
	.hidden	wrq_recv_callback       @ -- Begin function wrq_recv_callback
	.globl	wrq_recv_callback
	.p2align	1
	.type	wrq_recv_callback,%function
	.code	16                      @ @wrq_recv_callback
	.thumb_func
wrq_recv_callback:
.Lfunc_begin10:
	.loc	1 323 0                 @ ../User/TFTP_Server/tftpserver.c:323:0
	.fnstart
	.cfi_startproc
@ %bb.0:
	.save	{r4, r5, r6, r7, r8, r9, lr}
	push.w	{r4, r5, r6, r7, r8, r9, lr}
	.cfi_def_cfa_offset 28
	.cfi_offset lr, -4
	.cfi_offset r9, -8
	.cfi_offset r8, -12
	.cfi_offset r7, -16
	.cfi_offset r6, -20
	.cfi_offset r5, -24
	.cfi_offset r4, -28
	.pad	#524
	sub.w	sp, sp, #524
	.cfi_def_cfa_offset 552
	@DEBUG_VALUE: wrq_recv_callback:arg <- $r0
	@DEBUG_VALUE: wrq_recv_callback:upcb <- $r1
	@DEBUG_VALUE: wrq_recv_callback:pkt_buf <- $r2
	@DEBUG_VALUE: wrq_recv_callback:addr <- $r3
.Ltmp80:
	@DEBUG_VALUE: wrq_recv_callback:args <- $r0
	@DEBUG_VALUE: tftp_send_error_message:upcb <- $r1
	@DEBUG_VALUE: tftp_send_error_message:to <- $r3
	mov	r5, r0
	movs	r0, #0
.Ltmp81:
	@DEBUG_VALUE: wrq_recv_callback:n <- 0
	@DEBUG_VALUE: wrq_recv_callback:args <- $r5
	@DEBUG_VALUE: wrq_recv_callback:upcb <- $r6
	@DEBUG_VALUE: wrq_recv_callback:arg <- $r5
	mov	r6, r1
.Ltmp82:
	@DEBUG_VALUE: tftp_send_error_message:upcb <- $r6
	.loc	1 325 7 prologue_end    @ ../User/TFTP_Server/tftpserver.c:325:7
	str	r0, [sp, #8]
.Ltmp83:
	.loc	1 329 16                @ ../User/TFTP_Server/tftpserver.c:329:16
	ldrh	r0, [r2, #10]
	.loc	1 329 32 is_stmt 0      @ ../User/TFTP_Server/tftpserver.c:329:32
	ldrh	r1, [r2, #8]
.Ltmp84:
	.loc	1 329 7                 @ ../User/TFTP_Server/tftpserver.c:329:7
	cmp	r0, r1
	bne	.LBB10_10
.Ltmp85:
@ %bb.1:
	@DEBUG_VALUE: tftp_send_error_message:upcb <- $r6
	@DEBUG_VALUE: wrq_recv_callback:arg <- $r5
	@DEBUG_VALUE: wrq_recv_callback:args <- $r5
	@DEBUG_VALUE: tftp_send_error_message:to <- $r3
	@DEBUG_VALUE: wrq_recv_callback:addr <- $r3
	@DEBUG_VALUE: wrq_recv_callback:pkt_buf <- $r2
	.loc	1 0 7                   @ ../User/TFTP_Server/tftpserver.c:0:7
	ldr.w	r8, [sp, #552]
	@DEBUG_VALUE: wrq_recv_callback:port <- $r8
	mov	r7, r3
.Ltmp86:
	@DEBUG_VALUE: wrq_recv_callback:addr <- $r7
	@DEBUG_VALUE: wrq_recv_callback:addr <- $r7
	@DEBUG_VALUE: tftp_send_error_message:to <- $r7
	mov	r4, r2
.Ltmp87:
	@DEBUG_VALUE: wrq_recv_callback:pkt_buf <- $r4
	@DEBUG_VALUE: wrq_recv_callback:pkt_buf <- $r4
	.loc	1 335 46 is_stmt 1      @ ../User/TFTP_Server/tftpserver.c:335:46
	cmp	r0, #5
	blo	.LBB10_6
.Ltmp88:
@ %bb.2:
	@DEBUG_VALUE: wrq_recv_callback:pkt_buf <- $r4
	@DEBUG_VALUE: wrq_recv_callback:addr <- $r7
	@DEBUG_VALUE: wrq_recv_callback:port <- $r8
	@DEBUG_VALUE: wrq_recv_callback:arg <- $r5
	@DEBUG_VALUE: wrq_recv_callback:args <- $r5
	.loc	1 336 36                @ ../User/TFTP_Server/tftpserver.c:336:36
	ldr	r0, [r4, #4]
	.loc	1 336 8 is_stmt 0       @ ../User/TFTP_Server/tftpserver.c:336:8
	bl	tftp_extract_block
	.loc	1 336 55                @ ../User/TFTP_Server/tftpserver.c:336:55
	ldr.w	r1, [r5, #532]
	.loc	1 336 61                @ ../User/TFTP_Server/tftpserver.c:336:61
	adds	r1, #1
.Ltmp89:
	.loc	1 335 7 is_stmt 1       @ ../User/TFTP_Server/tftpserver.c:335:7
	cmp	r1, r0
	bne	.LBB10_6
.Ltmp90:
@ %bb.3:
	@DEBUG_VALUE: wrq_recv_callback:pkt_buf <- $r4
	@DEBUG_VALUE: wrq_recv_callback:addr <- $r7
	@DEBUG_VALUE: wrq_recv_callback:port <- $r8
	@DEBUG_VALUE: wrq_recv_callback:arg <- $r5
	@DEBUG_VALUE: wrq_recv_callback:args <- $r5
	.loc	1 339 44                @ ../User/TFTP_Server/tftpserver.c:339:44
	ldr	r1, [r4, #4]
	.loc	1 339 2 is_stmt 0       @ ../User/TFTP_Server/tftpserver.c:339:2
	movw	r9, :lower16:TempBuffer
	.loc	1 339 86                @ ../User/TFTP_Server/tftpserver.c:339:86
	ldrh	r0, [r4, #10]
	.loc	1 339 2                 @ ../User/TFTP_Server/tftpserver.c:339:2
	movt	r9, :upper16:TempBuffer
	.loc	1 339 90                @ ../User/TFTP_Server/tftpserver.c:339:90
	subs	r2, r0, #4
	.loc	1 339 52                @ ../User/TFTP_Server/tftpserver.c:339:52
	adds	r1, #4
	.loc	1 339 2                 @ ../User/TFTP_Server/tftpserver.c:339:2
	mov	r0, r9
	bl	__aeabi_memcpy
	.loc	1 340 51 is_stmt 1      @ ../User/TFTP_Server/tftpserver.c:340:51
	ldrh	r0, [r4, #10]
.Ltmp91:
	@DEBUG_VALUE: wrq_recv_callback:n <- [DW_OP_plus_uconst 8, DW_OP_deref] $sp
	.loc	1 0 51 is_stmt 0        @ ../User/TFTP_Server/tftpserver.c:0:51
	add	r3, sp, #8
	.loc	1 340 5                 @ ../User/TFTP_Server/tftpserver.c:340:5
	mov	r1, r9
	.loc	1 340 55                @ ../User/TFTP_Server/tftpserver.c:340:55
	subs	r2, r0, #4
	.loc	1 340 5                 @ ../User/TFTP_Server/tftpserver.c:340:5
	movw	r0, :lower16:file_CR
	movt	r0, :upper16:file_CR
	bl	f_write
.Ltmp92:
	.loc	1 350 9 is_stmt 1       @ ../User/TFTP_Server/tftpserver.c:350:9
	ldr	r0, [sp, #8]
.Ltmp93:
	@DEBUG_VALUE: wrq_recv_callback:n <- $r0
	.loc	1 350 9 is_stmt 0       @ ../User/TFTP_Server/tftpserver.c:350:9
	cmp	r0, #0
	bgt	.LBB10_5
.Ltmp94:
@ %bb.4:
	@DEBUG_VALUE: wrq_recv_callback:n <- $r0
	@DEBUG_VALUE: wrq_recv_callback:pkt_buf <- $r4
	@DEBUG_VALUE: wrq_recv_callback:addr <- $r7
	@DEBUG_VALUE: wrq_recv_callback:port <- $r8
	@DEBUG_VALUE: wrq_recv_callback:arg <- $r5
	@DEBUG_VALUE: wrq_recv_callback:args <- $r5
	@DEBUG_VALUE: tftp_send_error_message:to_port <- undef
	@DEBUG_VALUE: tftp_send_error_message:err <- 1
	.loc	1 0 9                   @ ../User/TFTP_Server/tftpserver.c:0:9
	add.w	r9, sp, #12
.Ltmp95:
	.loc	1 145 15 is_stmt 1      @ ../User/TFTP_Server/tftpserver.c:145:15
	movs	r1, #1
	mov	r0, r9
.Ltmp96:
	bl	tftp_construct_error_message
.Ltmp97:
	@DEBUG_VALUE: tftp_send_error_message:error_len <- $r0
	.loc	1 147 10                @ ../User/TFTP_Server/tftpserver.c:147:10
	uxth	r0, r0
.Ltmp98:
	mov	r1, r7
	mov	r2, r8
	mov	r3, r9
	str	r0, [sp]
	mov	r0, r6
	bl	tftp_send_message
.Ltmp99:
	.loc	1 354 7                 @ ../User/TFTP_Server/tftpserver.c:354:7
	mov	r0, r6
	mov	r1, r5
	bl	tftp_cleanup_wr
.Ltmp100:
.LBB10_5:
	@DEBUG_VALUE: wrq_recv_callback:pkt_buf <- $r4
	@DEBUG_VALUE: wrq_recv_callback:addr <- $r7
	@DEBUG_VALUE: wrq_recv_callback:port <- $r8
	@DEBUG_VALUE: wrq_recv_callback:arg <- $r5
	@DEBUG_VALUE: wrq_recv_callback:args <- $r5
	.loc	1 358 16                @ ../User/TFTP_Server/tftpserver.c:358:16
	ldrd	r0, r2, [r5, #532]
	adds	r1, r0, #1
	str.w	r1, [r5, #532]
	.loc	1 361 36                @ ../User/TFTP_Server/tftpserver.c:361:36
	ldrh	r0, [r4, #10]
	.loc	1 361 40 is_stmt 0      @ ../User/TFTP_Server/tftpserver.c:361:40
	add	r0, r2
	.loc	1 361 23                @ ../User/TFTP_Server/tftpserver.c:361:23
	subs	r0, #4
	str.w	r0, [r5, #536]
	b	.LBB10_7
.Ltmp101:
.LBB10_6:
	@DEBUG_VALUE: wrq_recv_callback:pkt_buf <- $r4
	@DEBUG_VALUE: wrq_recv_callback:addr <- $r7
	@DEBUG_VALUE: wrq_recv_callback:port <- $r8
	@DEBUG_VALUE: wrq_recv_callback:arg <- $r5
	@DEBUG_VALUE: wrq_recv_callback:args <- $r5
	.loc	1 363 40 is_stmt 1      @ ../User/TFTP_Server/tftpserver.c:363:40
	ldr	r0, [r4, #4]
	.loc	1 363 12 is_stmt 0      @ ../User/TFTP_Server/tftpserver.c:363:12
	bl	tftp_extract_block
	.loc	1 363 59                @ ../User/TFTP_Server/tftpserver.c:363:59
	ldr.w	r1, [r5, #532]
	.loc	1 363 65                @ ../User/TFTP_Server/tftpserver.c:363:65
	adds	r2, r1, #1
.Ltmp102:
	.loc	1 363 12                @ ../User/TFTP_Server/tftpserver.c:363:12
	cmp	r2, r0
.Ltmp103:
	.loc	1 366 16 is_stmt 1      @ ../User/TFTP_Server/tftpserver.c:366:16
	itt	eq
	streq.w	r0, [r5, #532]
.Ltmp104:
	.loc	1 377 48                @ ../User/TFTP_Server/tftpserver.c:377:48
	moveq	r1, r0
.Ltmp105:
.LBB10_7:
	@DEBUG_VALUE: wrq_recv_callback:pkt_buf <- $r4
	@DEBUG_VALUE: wrq_recv_callback:addr <- $r7
	@DEBUG_VALUE: wrq_recv_callback:port <- $r8
	@DEBUG_VALUE: wrq_recv_callback:arg <- $r5
	@DEBUG_VALUE: wrq_recv_callback:args <- $r5
	.loc	1 377 3 is_stmt 0       @ ../User/TFTP_Server/tftpserver.c:377:3
	uxth	r3, r1
	mov	r0, r6
	mov	r1, r7
	mov	r2, r8
	bl	tftp_send_ack_packet
.Ltmp106:
	.loc	1 383 16 is_stmt 1      @ ../User/TFTP_Server/tftpserver.c:383:16
	ldrh	r0, [r4, #10]
	.loc	1 383 20 is_stmt 0      @ ../User/TFTP_Server/tftpserver.c:383:20
	lsrs	r0, r0, #2
.Ltmp107:
	.loc	1 383 7                 @ ../User/TFTP_Server/tftpserver.c:383:7
	cmp	r0, #128
	bhi	.LBB10_9
.Ltmp108:
@ %bb.8:
	@DEBUG_VALUE: wrq_recv_callback:pkt_buf <- $r4
	@DEBUG_VALUE: wrq_recv_callback:addr <- $r7
	@DEBUG_VALUE: wrq_recv_callback:port <- $r8
	@DEBUG_VALUE: wrq_recv_callback:arg <- $r5
	@DEBUG_VALUE: wrq_recv_callback:args <- $r5
	.loc	1 416 3 is_stmt 1       @ ../User/TFTP_Server/tftpserver.c:416:3
	mov	r0, r6
	mov	r1, r5
	bl	tftp_cleanup_wr
.Ltmp109:
.LBB10_9:
	@DEBUG_VALUE: wrq_recv_callback:pkt_buf <- $r4
	@DEBUG_VALUE: wrq_recv_callback:addr <- $r7
	@DEBUG_VALUE: wrq_recv_callback:port <- $r8
	@DEBUG_VALUE: wrq_recv_callback:arg <- $r5
	@DEBUG_VALUE: wrq_recv_callback:args <- $r5
	.loc	1 0 0 is_stmt 0         @ ../User/TFTP_Server/tftpserver.c:0:0
	mov	r0, r4
	bl	pbuf_free
.Ltmp110:
.LBB10_10:
	@DEBUG_VALUE: wrq_recv_callback:arg <- $r5
	@DEBUG_VALUE: wrq_recv_callback:args <- $r5
	.loc	1 424 1 is_stmt 1       @ ../User/TFTP_Server/tftpserver.c:424:1
	add.w	sp, sp, #524
	pop.w	{r4, r5, r6, r7, r8, r9, pc}
.Ltmp111:
.Lfunc_end10:
	.size	wrq_recv_callback, .Lfunc_end10-wrq_recv_callback
	.cfi_endproc
	.cantunwind
	.fnend
                                        @ -- End function
	.section	.text.tftp_process_read,"ax",%progbits
	.hidden	tftp_process_read       @ -- Begin function tftp_process_read
	.globl	tftp_process_read
	.p2align	1
	.type	tftp_process_read,%function
	.code	16                      @ @tftp_process_read
	.thumb_func
tftp_process_read:
.Lfunc_begin11:
	.loc	1 436 0                 @ ../User/TFTP_Server/tftpserver.c:436:0
	.fnstart
	.cfi_startproc
@ %bb.0:
	.save	{r4, r5, r6, r7, r8, lr}
	push.w	{r4, r5, r6, r7, r8, lr}
	.cfi_def_cfa_offset 24
	.cfi_offset lr, -4
	.cfi_offset r8, -8
	.cfi_offset r7, -12
	.cfi_offset r6, -16
	.cfi_offset r5, -20
	.cfi_offset r4, -24
	.pad	#520
	sub.w	sp, sp, #520
	.cfi_def_cfa_offset 544
	@DEBUG_VALUE: tftp_process_read:upcb <- $r0
	@DEBUG_VALUE: tftp_process_read:to <- $r1
	@DEBUG_VALUE: tftp_process_read:to_port <- $r2
	@DEBUG_VALUE: tftp_process_read:FileName <- $r3
.Ltmp112:
	@DEBUG_VALUE: tftp_send_error_message:upcb <- $r0
	@DEBUG_VALUE: tftp_send_error_message:to <- $r1
	@DEBUG_VALUE: tftp_send_error_message:upcb <- $r0
	@DEBUG_VALUE: tftp_send_error_message:to <- $r1
	mov	r4, r0
.Ltmp113:
	@DEBUG_VALUE: tftp_process_read:args <- 0
	@DEBUG_VALUE: tftp_send_error_message:upcb <- $r4
	@DEBUG_VALUE: tftp_send_error_message:upcb <- $r4
	@DEBUG_VALUE: tftp_process_read:FileName <- $r3
	@DEBUG_VALUE: tftp_process_read:to_port <- $r8
	@DEBUG_VALUE: tftp_process_read:to <- $r6
	@DEBUG_VALUE: tftp_process_read:upcb <- $r4
	.loc	1 440 7 prologue_end    @ ../User/TFTP_Server/tftpserver.c:440:7
	movw	r0, :lower16:file_SD
	mov	r8, r2
.Ltmp114:
	.loc	1 0 7 is_stmt 0         @ ../User/TFTP_Server/tftpserver.c:0:7
	mov	r6, r1
.Ltmp115:
	@DEBUG_VALUE: tftp_send_error_message:to <- $r6
	@DEBUG_VALUE: tftp_send_error_message:to <- $r6
	.loc	1 440 7                 @ ../User/TFTP_Server/tftpserver.c:440:7
	mov	r1, r3
.Ltmp116:
	@DEBUG_VALUE: tftp_process_read:FileName <- $r1
	movs	r2, #1
	movt	r0, :upper16:file_SD
	bl	f_open
.Ltmp117:
	.loc	1 440 7                 @ ../User/TFTP_Server/tftpserver.c:440:7
	cbz	r0, .LBB11_3
.Ltmp118:
@ %bb.1:
	@DEBUG_VALUE: tftp_send_error_message:to <- $r6
	@DEBUG_VALUE: tftp_process_read:upcb <- $r4
	@DEBUG_VALUE: tftp_send_error_message:upcb <- $r4
	@DEBUG_VALUE: tftp_send_error_message:to_port <- undef
	@DEBUG_VALUE: tftp_send_error_message:err <- 1
	.loc	1 0 7                   @ ../User/TFTP_Server/tftpserver.c:0:7
	add	r5, sp, #8
.Ltmp119:
	.loc	1 145 15 is_stmt 1      @ ../User/TFTP_Server/tftpserver.c:145:15
	movs	r1, #1
	mov	r0, r5
	bl	tftp_construct_error_message
.Ltmp120:
	@DEBUG_VALUE: tftp_send_error_message:error_len <- $r0
	.loc	1 147 10                @ ../User/TFTP_Server/tftpserver.c:147:10
	uxth	r0, r0
.Ltmp121:
	mov	r1, r6
	mov	r2, r8
	mov	r3, r5
	str	r0, [sp]
	mov	r0, r4
	bl	tftp_send_message
	movs	r7, #0
.Ltmp122:
.LBB11_2:
	@DEBUG_VALUE: tftp_process_read:upcb <- $r4
	.loc	1 0 0 is_stmt 0         @ ../User/TFTP_Server/tftpserver.c:0:0
	mov	r0, r4
	movs	r1, #0
	bl	tftp_cleanup_rd
	b	.LBB11_5
.Ltmp123:
.LBB11_3:
	@DEBUG_VALUE: tftp_process_read:upcb <- $r4
	.loc	1 449 10 is_stmt 1      @ ../User/TFTP_Server/tftpserver.c:449:10
	mov.w	r0, #552
	bl	mem_malloc
	.loc	1 451 7                 @ ../User/TFTP_Server/tftpserver.c:451:7
	cbz	r0, .LBB11_6
.Ltmp124:
@ %bb.4:
	@DEBUG_VALUE: tftp_process_read:upcb <- $r4
	.loc	1 0 7 is_stmt 0         @ ../User/TFTP_Server/tftpserver.c:0:7
	movs	r7, #1
	mov	r5, r0
.Ltmp125:
	@DEBUG_VALUE: tftp_process_read:args <- $r5
	movs	r1, #0
	.loc	1 463 12 is_stmt 1      @ ../User/TFTP_Server/tftpserver.c:463:12
	str	r7, [r0]
	.loc	1 471 3                 @ ../User/TFTP_Server/tftpserver.c:471:3
	mov	r2, r5
	.loc	1 464 26                @ ../User/TFTP_Server/tftpserver.c:464:26
	ldr	r0, [r6]
	.loc	1 464 20 is_stmt 0      @ ../User/TFTP_Server/tftpserver.c:464:20
	strd	r0, r8, [r5, #524]
	.loc	1 466 15 is_stmt 1      @ ../User/TFTP_Server/tftpserver.c:466:15
	strd	r7, r1, [r5, #532]
	.loc	1 471 3                 @ ../User/TFTP_Server/tftpserver.c:471:3
	movw	r1, :lower16:rrq_recv_callback
	mov	r0, r4
	movt	r1, :upper16:rrq_recv_callback
	bl	udp_recv
	.loc	1 476 3                 @ ../User/TFTP_Server/tftpserver.c:476:3
	mov	r0, r4
	mov	r1, r5
	mov	r2, r6
	mov	r3, r8
	bl	tftp_send_next_block
.Ltmp126:
.LBB11_5:
	@DEBUG_VALUE: tftp_process_read:upcb <- $r4
	.loc	1 479 1                 @ ../User/TFTP_Server/tftpserver.c:479:1
	mov	r0, r7
	add.w	sp, sp, #520
	pop.w	{r4, r5, r6, r7, r8, pc}
.Ltmp127:
.LBB11_6:
	@DEBUG_VALUE: tftp_process_read:upcb <- $r4
	@DEBUG_VALUE: tftp_send_error_message:to_port <- undef
	@DEBUG_VALUE: tftp_send_error_message:err <- 0
	.loc	1 0 1 is_stmt 0         @ ../User/TFTP_Server/tftpserver.c:0:1
	add	r5, sp, #8
.Ltmp128:
	.loc	1 145 15 is_stmt 1      @ ../User/TFTP_Server/tftpserver.c:145:15
	movs	r1, #0
	movs	r7, #0
	mov	r0, r5
	bl	tftp_construct_error_message
.Ltmp129:
	@DEBUG_VALUE: tftp_send_error_message:error_len <- $r0
	.loc	1 147 10                @ ../User/TFTP_Server/tftpserver.c:147:10
	uxth	r0, r0
.Ltmp130:
	mov	r1, r6
	mov	r2, r8
	mov	r3, r5
	str	r0, [sp]
	mov	r0, r4
	bl	tftp_send_message
	b	.LBB11_2
.Ltmp131:
.Lfunc_end11:
	.size	tftp_process_read, .Lfunc_end11-tftp_process_read
	.cfi_endproc
	.cantunwind
	.fnend
                                        @ -- End function
	.section	.text.tftp_process_write,"ax",%progbits
	.hidden	tftp_process_write      @ -- Begin function tftp_process_write
	.globl	tftp_process_write
	.p2align	1
	.type	tftp_process_write,%function
	.code	16                      @ @tftp_process_write
	.thumb_func
tftp_process_write:
.Lfunc_begin12:
	.loc	1 490 0                 @ ../User/TFTP_Server/tftpserver.c:490:0
	.fnstart
	.cfi_startproc
@ %bb.0:
	.save	{r4, r5, r6, r7, lr}
	push	{r4, r5, r6, r7, lr}
	.cfi_def_cfa_offset 20
	.cfi_offset lr, -4
	.cfi_offset r7, -8
	.cfi_offset r6, -12
	.cfi_offset r5, -16
	.cfi_offset r4, -20
	.pad	#516
	sub.w	sp, sp, #516
	.cfi_def_cfa_offset 536
	@DEBUG_VALUE: tftp_process_write:upcb <- $r0
	@DEBUG_VALUE: tftp_process_write:to <- $r1
	@DEBUG_VALUE: tftp_process_write:to_port <- $r2
	@DEBUG_VALUE: tftp_process_write:FileName <- $r3
.Ltmp132:
	@DEBUG_VALUE: tftp_send_error_message:upcb <- $r0
	@DEBUG_VALUE: tftp_send_error_message:to <- $r1
	@DEBUG_VALUE: tftp_send_error_message:upcb <- $r0
	@DEBUG_VALUE: tftp_send_error_message:to <- $r1
	mov	r4, r0
.Ltmp133:
	@DEBUG_VALUE: tftp_process_write:args <- 0
	@DEBUG_VALUE: tftp_send_error_message:upcb <- $r4
	@DEBUG_VALUE: tftp_send_error_message:upcb <- $r4
	@DEBUG_VALUE: tftp_process_write:FileName <- $r3
	@DEBUG_VALUE: tftp_process_write:to_port <- $r5
	@DEBUG_VALUE: tftp_process_write:to <- $r6
	@DEBUG_VALUE: tftp_process_write:upcb <- $r4
	.loc	1 494 7 prologue_end    @ ../User/TFTP_Server/tftpserver.c:494:7
	movw	r0, :lower16:file_CR
	mov	r5, r2
.Ltmp134:
	.loc	1 0 7 is_stmt 0         @ ../User/TFTP_Server/tftpserver.c:0:7
	mov	r6, r1
.Ltmp135:
	@DEBUG_VALUE: tftp_send_error_message:to <- $r6
	@DEBUG_VALUE: tftp_send_error_message:to <- $r6
	.loc	1 494 7                 @ ../User/TFTP_Server/tftpserver.c:494:7
	mov	r1, r3
.Ltmp136:
	@DEBUG_VALUE: tftp_process_write:FileName <- $r1
	movs	r2, #10
	movt	r0, :upper16:file_CR
	bl	f_open
.Ltmp137:
	.loc	1 494 7                 @ ../User/TFTP_Server/tftpserver.c:494:7
	cbz	r0, .LBB12_2
.Ltmp138:
.LBB12_1:
	@DEBUG_VALUE: tftp_process_write:upcb <- $r4
	@DEBUG_VALUE: tftp_send_error_message:to_port <- undef
	@DEBUG_VALUE: tftp_send_error_message:err <- 0
	.loc	1 0 7                   @ ../User/TFTP_Server/tftpserver.c:0:7
	add	r7, sp, #4
	movs	r1, #0
	mov	r0, r7
	bl	tftp_construct_error_message
.Ltmp139:
	@DEBUG_VALUE: tftp_send_error_message:error_len <- $r0
	uxth	r0, r0
.Ltmp140:
	mov	r1, r6
	mov	r2, r5
	mov	r3, r7
	str	r0, [sp]
	mov	r0, r4
	bl	tftp_send_message
	mov	r0, r4
	movs	r1, #0
	bl	tftp_cleanup_wr
	b	.LBB12_4
.Ltmp141:
.LBB12_2:
	@DEBUG_VALUE: tftp_process_write:upcb <- $r4
	.loc	1 503 10 is_stmt 1      @ ../User/TFTP_Server/tftpserver.c:503:10
	mov.w	r0, #552
	bl	mem_malloc
	.loc	1 504 7                 @ ../User/TFTP_Server/tftpserver.c:504:7
	cmp	r0, #0
	beq	.LBB12_1
.Ltmp142:
@ %bb.3:
	@DEBUG_VALUE: tftp_process_write:upcb <- $r4
	.loc	1 0 7 is_stmt 0         @ ../User/TFTP_Server/tftpserver.c:0:7
	mov	r7, r0
.Ltmp143:
	@DEBUG_VALUE: tftp_process_write:args <- $r7
	movs	r0, #2
	movs	r1, #0
	.loc	1 513 12 is_stmt 1      @ ../User/TFTP_Server/tftpserver.c:513:12
	str	r0, [r7]
	.loc	1 521 3                 @ ../User/TFTP_Server/tftpserver.c:521:3
	mov	r2, r7
	.loc	1 514 26                @ ../User/TFTP_Server/tftpserver.c:514:26
	ldr	r0, [r6]
	.loc	1 514 20 is_stmt 0      @ ../User/TFTP_Server/tftpserver.c:514:20
	strd	r0, r5, [r7, #524]
	.loc	1 517 15 is_stmt 1      @ ../User/TFTP_Server/tftpserver.c:517:15
	strd	r1, r1, [r7, #532]
	.loc	1 521 3                 @ ../User/TFTP_Server/tftpserver.c:521:3
	movw	r1, :lower16:wrq_recv_callback
	mov	r0, r4
	movt	r1, :upper16:wrq_recv_callback
	bl	udp_recv
	.loc	1 524 49                @ ../User/TFTP_Server/tftpserver.c:524:49
	ldrh.w	r3, [r7, #532]
	.loc	1 524 3 is_stmt 0       @ ../User/TFTP_Server/tftpserver.c:524:3
	mov	r0, r4
	mov	r1, r6
	mov	r2, r5
	bl	tftp_send_ack_packet
.Ltmp144:
.LBB12_4:
	@DEBUG_VALUE: tftp_process_write:upcb <- $r4
	.loc	1 527 1 is_stmt 1       @ ../User/TFTP_Server/tftpserver.c:527:1
	movs	r0, #0
	add.w	sp, sp, #516
	pop	{r4, r5, r6, r7, pc}
.Ltmp145:
.Lfunc_end12:
	.size	tftp_process_write, .Lfunc_end12-tftp_process_write
	.cfi_endproc
	.cantunwind
	.fnend
                                        @ -- End function
	.section	.text.process_tftp_request,"ax",%progbits
	.hidden	process_tftp_request    @ -- Begin function process_tftp_request
	.globl	process_tftp_request
	.p2align	2
	.type	process_tftp_request,%function
	.code	16                      @ @process_tftp_request
	.thumb_func
process_tftp_request:
.Lfunc_begin13:
	.loc	1 538 0                 @ ../User/TFTP_Server/tftpserver.c:538:0
	.fnstart
	.cfi_startproc
@ %bb.0:
	.save	{r4, r5, r6, r7, r8, lr}
	push.w	{r4, r5, r6, r7, r8, lr}
	.cfi_def_cfa_offset 24
	.cfi_offset lr, -4
	.cfi_offset r8, -8
	.cfi_offset r7, -12
	.cfi_offset r6, -16
	.cfi_offset r5, -20
	.cfi_offset r4, -24
	.pad	#520
	sub.w	sp, sp, #520
	.cfi_def_cfa_offset 544
	@DEBUG_VALUE: process_tftp_request:pkt_buf <- $r0
	@DEBUG_VALUE: process_tftp_request:addr <- $r1
	@DEBUG_VALUE: process_tftp_request:port <- $r2
.Ltmp146:
	@DEBUG_VALUE: tftp_send_error_message:to <- $r1
	mov	r7, r0
.Ltmp147:
	@DEBUG_VALUE: process_tftp_request:port <- $r8
	@DEBUG_VALUE: process_tftp_request:addr <- $r5
	@DEBUG_VALUE: process_tftp_request:pkt_buf <- $r7
	.loc	1 539 43 prologue_end   @ ../User/TFTP_Server/tftpserver.c:539:43
	ldr	r0, [r0, #4]
	mov	r8, r2
.Ltmp148:
	.loc	1 0 43 is_stmt 0        @ ../User/TFTP_Server/tftpserver.c:0:43
	mov	r5, r1
.Ltmp149:
	@DEBUG_VALUE: tftp_send_error_message:to <- $r5
	.loc	1 539 19                @ ../User/TFTP_Server/tftpserver.c:539:19
	bl	tftp_decode_op
	mov	r4, r0
.Ltmp150:
	@DEBUG_VALUE: process_tftp_request:op <- undef
	.loc	1 545 9 is_stmt 1       @ ../User/TFTP_Server/tftpserver.c:545:9
	bl	udp_new
	.loc	1 547 6                 @ ../User/TFTP_Server/tftpserver.c:547:6
	cbz	r0, .LBB13_2
.Ltmp151:
@ %bb.1:
	@DEBUG_VALUE: tftp_send_error_message:to <- $r5
	@DEBUG_VALUE: process_tftp_request:pkt_buf <- $r7
	.loc	1 557 8                 @ ../User/TFTP_Server/tftpserver.c:557:8
	movw	r1, :lower16:ip_addr_any
	movs	r2, #0
	.loc	1 0 0 is_stmt 0         @ ../User/TFTP_Server/tftpserver.c:0:0
	mov	r6, r0
.Ltmp152:
	@DEBUG_VALUE: tftp_send_error_message:upcb <- $r6
	@DEBUG_VALUE: process_tftp_request:upcb <- $r6
	.loc	1 557 8                 @ ../User/TFTP_Server/tftpserver.c:557:8
	movt	r1, :upper16:ip_addr_any
	bl	udp_bind
.Ltmp153:
	@DEBUG_VALUE: process_tftp_request:err <- $r0
	.loc	1 559 6 is_stmt 1       @ ../User/TFTP_Server/tftpserver.c:559:6
	cbz	r0, .LBB13_3
.Ltmp154:
.LBB13_2:
	@DEBUG_VALUE: process_tftp_request:pkt_buf <- $r7
	.loc	1 735 1                 @ ../User/TFTP_Server/tftpserver.c:735:1
	add.w	sp, sp, #520
	pop.w	{r4, r5, r6, r7, r8, pc}
.Ltmp155:
.LBB13_3:
	@DEBUG_VALUE: process_tftp_request:err <- $r0
	@DEBUG_VALUE: process_tftp_request:upcb <- $r6
	@DEBUG_VALUE: process_tftp_request:pkt_buf <- $r7
	@DEBUG_VALUE: process_tftp_request:port <- $r8
	.loc	1 565 2                 @ ../User/TFTP_Server/tftpserver.c:565:2
	cmp	r4, #2
	beq	.LBB13_7
.Ltmp156:
@ %bb.4:
	@DEBUG_VALUE: process_tftp_request:err <- $r0
	@DEBUG_VALUE: process_tftp_request:upcb <- $r6
	@DEBUG_VALUE: process_tftp_request:pkt_buf <- $r7
	@DEBUG_VALUE: process_tftp_request:port <- $r8
	cmp	r4, #1
	bne	.LBB13_10
.Ltmp157:
@ %bb.5:
	@DEBUG_VALUE: process_tftp_request:err <- $r0
	@DEBUG_VALUE: process_tftp_request:upcb <- $r6
	@DEBUG_VALUE: process_tftp_request:pkt_buf <- $r7
	@DEBUG_VALUE: process_tftp_request:port <- $r8
	.loc	1 570 45                @ ../User/TFTP_Server/tftpserver.c:570:45
	ldr	r1, [r7, #4]
	add	r0, sp, #8
.Ltmp158:
	.loc	1 570 4 is_stmt 0       @ ../User/TFTP_Server/tftpserver.c:570:4
	bl	tftp_extract_filename
.Ltmp159:
	.loc	1 572 8 is_stmt 1       @ ../User/TFTP_Server/tftpserver.c:572:8
	movw	r0, :lower16:filesystem
	movw	r1, :lower16:.L.str.8
	movs	r2, #0
	movt	r0, :upper16:filesystem
	movt	r1, :upper16:.L.str.8
	bl	f_mount
.Ltmp160:
	.loc	1 572 8 is_stmt 0       @ ../User/TFTP_Server/tftpserver.c:572:8
	cbz	r0, .LBB13_11
.Ltmp161:
@ %bb.6:
	@DEBUG_VALUE: process_tftp_request:upcb <- $r6
	@DEBUG_VALUE: process_tftp_request:pkt_buf <- $r7
	@DEBUG_VALUE: process_tftp_request:port <- $r8
	.loc	1 574 5 is_stmt 1       @ ../User/TFTP_Server/tftpserver.c:574:5
	adr	r0, .LCPI13_0
	b	.LBB13_13
.Ltmp162:
.LBB13_7:
	@DEBUG_VALUE: process_tftp_request:err <- $r0
	@DEBUG_VALUE: process_tftp_request:upcb <- $r6
	@DEBUG_VALUE: process_tftp_request:pkt_buf <- $r7
	@DEBUG_VALUE: process_tftp_request:port <- $r8
	.loc	1 591 45                @ ../User/TFTP_Server/tftpserver.c:591:45
	ldr	r1, [r7, #4]
	add	r0, sp, #8
.Ltmp163:
	.loc	1 591 4 is_stmt 0       @ ../User/TFTP_Server/tftpserver.c:591:4
	bl	tftp_extract_filename
.Ltmp164:
	.loc	1 593 8 is_stmt 1       @ ../User/TFTP_Server/tftpserver.c:593:8
	movw	r0, :lower16:filesystem
	movw	r1, :lower16:.L.str.8
	movs	r2, #0
	movt	r0, :upper16:filesystem
	movt	r1, :upper16:.L.str.8
	bl	f_mount
.Ltmp165:
	.loc	1 593 8 is_stmt 0       @ ../User/TFTP_Server/tftpserver.c:593:8
	cmp	r0, #0
	bne	.LBB13_2
.Ltmp166:
@ %bb.8:
	@DEBUG_VALUE: process_tftp_request:upcb <- $r6
	@DEBUG_VALUE: process_tftp_request:pkt_buf <- $r7
	@DEBUG_VALUE: process_tftp_request:port <- $r8
	.loc	1 595 8 is_stmt 1       @ ../User/TFTP_Server/tftpserver.c:595:8
	movw	r0, :lower16:dir_2
	movw	r1, :lower16:.L.str.10
	movt	r0, :upper16:dir_2
	movt	r1, :upper16:.L.str.10
	bl	f_opendir
.Ltmp167:
	.loc	1 595 8 is_stmt 0       @ ../User/TFTP_Server/tftpserver.c:595:8
	cmp	r0, #0
	bne	.LBB13_2
.Ltmp168:
@ %bb.9:
	@DEBUG_VALUE: process_tftp_request:upcb <- $r6
	@DEBUG_VALUE: process_tftp_request:pkt_buf <- $r7
	@DEBUG_VALUE: process_tftp_request:port <- $r8
	.loc	1 0 8                   @ ../User/TFTP_Server/tftpserver.c:0:8
	add	r3, sp, #8
	.loc	1 725 4 is_stmt 1       @ ../User/TFTP_Server/tftpserver.c:725:4
	mov	r0, r6
	mov	r1, r5
	mov	r2, r8
	bl	tftp_process_write
	b	.LBB13_2
.Ltmp169:
.LBB13_10:
	@DEBUG_VALUE: process_tftp_request:err <- $r0
	@DEBUG_VALUE: process_tftp_request:upcb <- $r6
	@DEBUG_VALUE: process_tftp_request:pkt_buf <- $r7
	@DEBUG_VALUE: process_tftp_request:port <- $r8
	@DEBUG_VALUE: tftp_send_error_message:to_port <- undef
	@DEBUG_VALUE: tftp_send_error_message:err <- 2
	.loc	1 0 4 is_stmt 0         @ ../User/TFTP_Server/tftpserver.c:0:4
	add	r4, sp, #8
.Ltmp170:
	.loc	1 145 15 is_stmt 1      @ ../User/TFTP_Server/tftpserver.c:145:15
	movs	r1, #2
	mov	r0, r4
.Ltmp171:
	bl	tftp_construct_error_message
.Ltmp172:
	@DEBUG_VALUE: tftp_send_error_message:error_len <- $r0
	.loc	1 147 10                @ ../User/TFTP_Server/tftpserver.c:147:10
	uxth	r0, r0
.Ltmp173:
	mov	r1, r5
	mov	r2, r8
	mov	r3, r4
	str	r0, [sp]
	mov	r0, r6
	bl	tftp_send_message
.Ltmp174:
	.loc	1 732 4                 @ ../User/TFTP_Server/tftpserver.c:732:4
	mov	r0, r6
	bl	udp_remove
	b	.LBB13_2
.Ltmp175:
.LBB13_11:
	@DEBUG_VALUE: process_tftp_request:upcb <- $r6
	@DEBUG_VALUE: process_tftp_request:pkt_buf <- $r7
	@DEBUG_VALUE: process_tftp_request:port <- $r8
	.loc	1 578 8                 @ ../User/TFTP_Server/tftpserver.c:578:8
	movw	r0, :lower16:dir_1
	movw	r1, :lower16:.L.str.10
	movt	r0, :upper16:dir_1
	movt	r1, :upper16:.L.str.10
	bl	f_opendir
.Ltmp176:
	.loc	1 578 8 is_stmt 0       @ ../User/TFTP_Server/tftpserver.c:578:8
	cbz	r0, .LBB13_14
.Ltmp177:
@ %bb.12:
	@DEBUG_VALUE: process_tftp_request:upcb <- $r6
	@DEBUG_VALUE: process_tftp_request:pkt_buf <- $r7
	@DEBUG_VALUE: process_tftp_request:port <- $r8
	.loc	1 580 5 is_stmt 1       @ ../User/TFTP_Server/tftpserver.c:580:5
	adr	r0, .LCPI13_1
.Ltmp178:
.LBB13_13:
	@DEBUG_VALUE: process_tftp_request:upcb <- $r6
	@DEBUG_VALUE: process_tftp_request:pkt_buf <- $r7
	@DEBUG_VALUE: process_tftp_request:port <- $r8
	.loc	1 0 0 is_stmt 0         @ ../User/TFTP_Server/tftpserver.c:0:0
	bl	puts
	b	.LBB13_2
.Ltmp179:
.LBB13_14:
	@DEBUG_VALUE: process_tftp_request:upcb <- $r6
	@DEBUG_VALUE: process_tftp_request:pkt_buf <- $r7
	@DEBUG_VALUE: process_tftp_request:port <- $r8
	add	r3, sp, #8
	.loc	1 584 4 is_stmt 1       @ ../User/TFTP_Server/tftpserver.c:584:4
	mov	r0, r6
	mov	r1, r5
	mov	r2, r8
	bl	tftp_process_read
	b	.LBB13_2
.Ltmp180:
	.p2align	2
@ %bb.15:
	.loc	1 0 4 is_stmt 0         @ ../User/TFTP_Server/tftpserver.c:0:4
.LCPI13_0:
.Lstr.14:
	.asciz	"\r\nCould not open filesystem\r\000\000\000"
.LCPI13_1:
.Lstr:
	.asciz	"\r\ncould not open the selected directory\r\000\000\000"
.Lfunc_end13:
	.size	process_tftp_request, .Lfunc_end13-process_tftp_request
	.cfi_endproc
	.cantunwind
	.fnend
                                        @ -- End function
	.section	.text.tftpd_init,"ax",%progbits
	.hidden	tftpd_init              @ -- Begin function tftpd_init
	.globl	tftpd_init
	.p2align	2
	.type	tftpd_init,%function
	.code	16                      @ @tftpd_init
	.thumb_func
tftpd_init:
.Lfunc_begin14:
	.loc	1 764 0 is_stmt 1       @ ../User/TFTP_Server/tftpserver.c:764:0
	.fnstart
	.cfi_startproc
@ %bb.0:
	.save	{r4, lr}
	push	{r4, lr}
	.cfi_def_cfa_offset 8
	.cfi_offset lr, -4
	.cfi_offset r4, -8
.Ltmp181:
	@DEBUG_VALUE: tftpd_init:port <- 69
	.loc	1 769 11 prologue_end   @ ../User/TFTP_Server/tftpserver.c:769:11
	bl	udp_new
	.loc	1 769 9 is_stmt 0       @ ../User/TFTP_Server/tftpserver.c:769:9
	movw	r4, :lower16:UDPpcb
	.loc	1 771 6 is_stmt 1       @ ../User/TFTP_Server/tftpserver.c:771:6
	cmp	r0, #0
	.loc	1 769 9                 @ ../User/TFTP_Server/tftpserver.c:769:9
	movt	r4, :upper16:UDPpcb
	str	r0, [r4]
	.loc	1 771 6                 @ ../User/TFTP_Server/tftpserver.c:771:6
	beq	.LBB14_3
@ %bb.1:
.Ltmp182:
	.loc	1 774 9                 @ ../User/TFTP_Server/tftpserver.c:774:9
	movw	r1, :lower16:ip_addr_any
	movs	r2, #69
	movt	r1, :upper16:ip_addr_any
	bl	udp_bind
.Ltmp183:
	@DEBUG_VALUE: tftpd_init:err <- $r0
	.loc	1 775 7                 @ ../User/TFTP_Server/tftpserver.c:775:7
	cbz	r0, .LBB14_4
.Ltmp184:
@ %bb.2:
	@DEBUG_VALUE: tftpd_init:err <- $r0
	.loc	1 782 4                 @ ../User/TFTP_Server/tftpserver.c:782:4
	adr	r0, .LCPI14_0
.Ltmp185:
	pop.w	{r4, lr}
	b	__2printf
.Ltmp186:
.LBB14_3:
	.loc	1 787 3                 @ ../User/TFTP_Server/tftpserver.c:787:3
	adr	r0, .LCPI14_1
	pop.w	{r4, lr}
	b	__2printf
.Ltmp187:
.LBB14_4:
	@DEBUG_VALUE: tftpd_init:err <- $r0
	.loc	1 778 4                 @ ../User/TFTP_Server/tftpserver.c:778:4
	movw	r1, :lower16:recv_callback_tftp
	.loc	1 778 13 is_stmt 0      @ ../User/TFTP_Server/tftpserver.c:778:13
	ldr	r0, [r4]
.Ltmp188:
	.loc	1 778 4                 @ ../User/TFTP_Server/tftpserver.c:778:4
	movs	r2, #0
	movt	r1, :upper16:recv_callback_tftp
	pop.w	{r4, lr}
	b	udp_recv
.Ltmp189:
	.p2align	2
@ %bb.5:
	.loc	1 0 4                   @ ../User/TFTP_Server/tftpserver.c:0:4
.LCPI14_0:
.L.str.12:
	.asciz	"can not bind pcb\000\000\000"
.LCPI14_1:
.L.str.13:
	.asciz	"can not create new pcb\000"
.Lfunc_end14:
	.size	tftpd_init, .Lfunc_end14-tftpd_init
	.cfi_endproc
	.cantunwind
	.fnend
                                        @ -- End function
	.type	.L.str,%object          @ @.str
	.section	.rodata.str1.1,"aMS",%progbits,1
.L.str:
	.asciz	"not defined"
	.size	.L.str, 12

	.type	.L.str.1,%object        @ @.str.1
.L.str.1:
	.asciz	"file not found"
	.size	.L.str.1, 15

	.type	.L.str.2,%object        @ @.str.2
.L.str.2:
	.asciz	"access violation"
	.size	.L.str.2, 17

	.type	.L.str.3,%object        @ @.str.3
.L.str.3:
	.asciz	"disk full"
	.size	.L.str.3, 10

	.type	.L.str.4,%object        @ @.str.4
.L.str.4:
	.asciz	"illegal operation"
	.size	.L.str.4, 18

	.type	.L.str.5,%object        @ @.str.5
.L.str.5:
	.asciz	"unknown transfer id"
	.size	.L.str.5, 20

	.type	.L.str.6,%object        @ @.str.6
.L.str.6:
	.asciz	"file already exists"
	.size	.L.str.6, 20

	.type	.L.str.7,%object        @ @.str.7
.L.str.7:
	.asciz	"no such user"
	.size	.L.str.7, 13

	.hidden	tftp_errorcode_string   @ @tftp_errorcode_string
	.type	tftp_errorcode_string,%object
	.section	.data.tftp_errorcode_string,"aw",%progbits
	.globl	tftp_errorcode_string
	.p2align	2
tftp_errorcode_string:
	.long	.L.str
	.long	.L.str.1
	.long	.L.str.2
	.long	.L.str.3
	.long	.L.str.4
	.long	.L.str.5
	.long	.L.str.6
	.long	.L.str.7
	.size	tftp_errorcode_string, 32

	.hidden	file_SD                 @ @file_SD
	.type	file_SD,%object
	.section	.bss.file_SD,"aw",%nobits
	.globl	file_SD
	.p2align	2
file_SD:
	.zero	552
	.size	file_SD, 552

	.type	.L.str.8,%object        @ @.str.8
	.section	.rodata.str1.1,"aMS",%progbits,1
.L.str.8:
	.asciz	"0:"
	.size	.L.str.8, 3

	.hidden	UDPpcb                  @ @UDPpcb
	.type	UDPpcb,%object
	.section	.bss.UDPpcb,"aw",%nobits
	.globl	UDPpcb
	.p2align	2
UDPpcb:
	.long	0
	.size	UDPpcb, 4

	.hidden	file_CR                 @ @file_CR
	.type	file_CR,%object
	.section	.bss.file_CR,"aw",%nobits
	.globl	file_CR
	.p2align	2
file_CR:
	.zero	552
	.size	file_CR, 552

	.hidden	TempBuffer              @ @TempBuffer
	.type	TempBuffer,%object
	.section	.bss.TempBuffer,"aw",%nobits
	.globl	TempBuffer
	.p2align	2
TempBuffer:
	.zero	600
	.size	TempBuffer, 600

	.hidden	filesystem              @ @filesystem
	.type	filesystem,%object
	.section	.bss.filesystem,"aw",%nobits
	.globl	filesystem
	.p2align	2
filesystem:
	.zero	564
	.size	filesystem, 564

	.hidden	dir_1                   @ @dir_1
	.type	dir_1,%object
	.section	.bss.dir_1,"aw",%nobits
	.globl	dir_1
	.p2align	2
dir_1:
	.zero	44
	.size	dir_1, 44

	.type	.L.str.10,%object       @ @.str.10
	.section	.rodata.str1.1,"aMS",%progbits,1
.L.str.10:
	.asciz	"/"
	.size	.L.str.10, 2

	.hidden	dir_2                   @ @dir_2
	.type	dir_2,%object
	.section	.bss.dir_2,"aw",%nobits
	.globl	dir_2
	.p2align	2
dir_2:
	.zero	44
	.size	dir_2, 44

	.file	10 "F:\\SkyDrive\\OtvoreniProjekti\\HotelSaplast\\fw\\KontrolerHotela\\HC070318\\Project" "../Libraries/lwip-1.4.1/src/include\\lwip/err.h"
	.section	".note.GNU-stack","",%progbits
	.eabi_attribute	30, 3	@ Tag_ABI_optimization_goals
	.ARM_attribute	16, 1	@ Tag_AV_eba