	.text
	.syntax unified
	.eabi_attribute	67, "2.09"	@ Tag_conformance
	.cpu	cortex-m4
	.eabi_attribute	6, 13	@ Tag_CPU_arch
	.eabi_attribute	7, 77	@ Tag_CPU_arch_profile
	.eabi_attribute	8, 0	@ Tag_ARM_ISA_use
	.eabi_attribute	9, 2	@ Tag_THUMB_ISA_use
	.fpu	fpv4-sp-d16
	.eabi_attribute	27, 1	@ Tag_ABI_HardFP_use
	.eabi_attribute	36, 1	@ Tag_FP_HP_extension
	.eabi_attribute	34, 1	@ Tag_CPU_unaligned_access
	.eabi_attribute	17, 1	@ Tag_ABI_PCS_GOT_use
	.eabi_attribute	20, 2	@ Tag_ABI_FP_denormal
	.eabi_attribute	21, 0	@ Tag_ABI_FP_exceptions
	.eabi_attribute	23, 1	@ Tag_ABI_FP_number_model
	.eabi_attribute	24, 1	@ Tag_ABI_align_needed
	.eabi_attribute	25, 1	@ Tag_ABI_align_preserved
	.eabi_attribute	28, 1	@ Tag_ABI_VFP_args
	.eabi_attribute	38, 1	@ Tag_ABI_FP_16bit_format
	.eabi_attribute	18, 2	@ Tag_ABI_PCS_wchar_t
	.eabi_attribute	26, 1	@ Tag_ABI_enum_size
	.eabi_attribute	14, 0	@ Tag_ABI_PCS_R9_use
	.file	"Uart.c"
	.file	1 "C:\\Keil\\ARM\\ARMCLANG\\Bin\\..\\include" "stdint.h"
	.file	2 "F:\\SkyDrive\\OtvoreniProjekti\\HotelSaplast\\fw\\KontrolerHotela\\HC070318\\Project" "../Driver/Uart.c"
	.file	3 "F:\\SkyDrive\\OtvoreniProjekti\\HotelSaplast\\fw\\KontrolerHotela\\HC070318\\Project" "../Libraries/CMSIS/Device/ST/STM32F4xx/Include\\stm32f4xx.h"
	.file	4 "F:\\SkyDrive\\OtvoreniProjekti\\HotelSaplast\\fw\\KontrolerHotela\\HC070318\\Project" "../Libraries/STM32F4xx_StdPeriph_Driver/inc\\stm32f4xx_gpio.h"
	.section	.text.uart_init,"ax",%progbits
	.hidden	uart_init               @ -- Begin function uart_init
	.globl	uart_init
	.p2align	2
	.type	uart_init,%function
	.code	16                      @ @uart_init
	.thumb_func
uart_init:
.Lfunc_begin0:
	.loc	2 32 0                  @ ../Driver/Uart.c:32:0
	.fnstart
	.cfi_sections .debug_frame
	.cfi_startproc
@ %bb.0:
	.save	{r4, r5, r6, lr}
	push	{r4, r5, r6, lr}
	.cfi_def_cfa_offset 16
	.cfi_offset lr, -4
	.cfi_offset r6, -8
	.cfi_offset r5, -12
	.cfi_offset r4, -16
	.pad	#32
	sub	sp, #32
	.cfi_def_cfa_offset 48
	@DEBUG_VALUE: uart_init:baudrate <- $r0
	mov	r5, r0
.Ltmp0:
	@DEBUG_VALUE: uart_init:baudrate <- $r5
	.loc	2 37 2 prologue_end     @ ../Driver/Uart.c:37:2
	movs	r0, #8
	movs	r1, #1
	bl	RCC_AHB1PeriphClockCmd
	.loc	2 39 2                  @ ../Driver/Uart.c:39:2
	mov.w	r0, #131072
	movs	r1, #1
	bl	RCC_APB1PeriphClockCmd
	movw	r0, #514
	movw	r4, #3072
	add	r6, sp, #4
	movt	r0, #256
	movt	r4, #16386
	.loc	2 46 2                  @ ../Driver/Uart.c:46:2
	mov	r1, r6
	.loc	2 41 32                 @ ../Driver/Uart.c:41:32
	str	r0, [sp, #8]
	movs	r0, #32
	.loc	2 45 32                 @ ../Driver/Uart.c:45:32
	str	r0, [sp, #4]
.Ltmp1:
	@DEBUG_VALUE: uart_init:GPIO_InitStructure <- [DW_OP_plus_uconst 4, DW_OP_deref] $sp
	.loc	2 46 2                  @ ../Driver/Uart.c:46:2
	mov	r0, r4
	bl	GPIO_Init
	movs	r0, #64
	.loc	2 51 2                  @ ../Driver/Uart.c:51:2
	mov	r1, r6
	.loc	2 49 31                 @ ../Driver/Uart.c:49:31
	str	r0, [sp, #4]
	movw	r0, #514
	.loc	2 48 32                 @ ../Driver/Uart.c:48:32
	strh.w	r0, [sp, #8]
	.loc	2 51 2                  @ ../Driver/Uart.c:51:2
	mov	r0, r4
	bl	GPIO_Init
	.loc	2 53 2                  @ ../Driver/Uart.c:53:2
	mov	r0, r4
	movs	r1, #5
	movs	r2, #7
	bl	GPIO_PinAFConfig
	.loc	2 54 2                  @ ../Driver/Uart.c:54:2
	mov	r0, r4
	movs	r1, #6
	movs	r2, #7
	bl	GPIO_PinAFConfig
	.loc	2 56 5                  @ ../Driver/Uart.c:56:5
	sub.w	r0, r5, #48
	cmp	r0, #8
	bhi	.LBB0_11
.Ltmp2:
@ %bb.1:
	@DEBUG_VALUE: uart_init:GPIO_InitStructure <- [DW_OP_plus_uconst 4, DW_OP_deref] $sp
	@DEBUG_VALUE: uart_init:baudrate <- $r5
	.loc	2 0 5 is_stmt 0         @ ../Driver/Uart.c:0:5
.LCPI0_0:
	tbb	[pc, r0]
.Ltmp3:
@ %bb.2:
.LJTI0_0:
	.byte	(.LBB0_3-(.LCPI0_0+4))/2
	.byte	(.LBB0_4-(.LCPI0_0+4))/2
	.byte	(.LBB0_5-(.LCPI0_0+4))/2
	.byte	(.LBB0_6-(.LCPI0_0+4))/2
	.byte	(.LBB0_7-(.LCPI0_0+4))/2
	.byte	(.LBB0_8-(.LCPI0_0+4))/2
	.byte	(.LBB0_13-(.LCPI0_0+4))/2
	.byte	(.LBB0_9-(.LCPI0_0+4))/2
	.byte	(.LBB0_10-(.LCPI0_0+4))/2
	.p2align	1
.LBB0_3:
.Ltmp4:
	@DEBUG_VALUE: uart_init:GPIO_InitStructure <- [DW_OP_plus_uconst 4, DW_OP_deref] $sp
	@DEBUG_VALUE: uart_init:baudrate <- $r5
	mov.w	r0, #2400
	b	.LBB0_14
.Ltmp5:
.LBB0_4:
	@DEBUG_VALUE: uart_init:GPIO_InitStructure <- [DW_OP_plus_uconst 4, DW_OP_deref] $sp
	@DEBUG_VALUE: uart_init:baudrate <- $r5
	mov.w	r0, #4800
	b	.LBB0_14
.Ltmp6:
.LBB0_5:
	@DEBUG_VALUE: uart_init:GPIO_InitStructure <- [DW_OP_plus_uconst 4, DW_OP_deref] $sp
	@DEBUG_VALUE: uart_init:baudrate <- $r5
	mov.w	r0, #9600
	b	.LBB0_14
.Ltmp7:
.LBB0_6:
	@DEBUG_VALUE: uart_init:GPIO_InitStructure <- [DW_OP_plus_uconst 4, DW_OP_deref] $sp
	@DEBUG_VALUE: uart_init:baudrate <- $r5
	mov.w	r0, #19200
	b	.LBB0_14
.Ltmp8:
.LBB0_7:
	@DEBUG_VALUE: uart_init:GPIO_InitStructure <- [DW_OP_plus_uconst 4, DW_OP_deref] $sp
	@DEBUG_VALUE: uart_init:baudrate <- $r5
	mov.w	r0, #38400
	b	.LBB0_14
.Ltmp9:
.LBB0_8:
	@DEBUG_VALUE: uart_init:GPIO_InitStructure <- [DW_OP_plus_uconst 4, DW_OP_deref] $sp
	@DEBUG_VALUE: uart_init:baudrate <- $r5
	movw	r0, #56700
	b	.LBB0_14
.Ltmp10:
.LBB0_9:
	@DEBUG_VALUE: uart_init:GPIO_InitStructure <- [DW_OP_plus_uconst 4, DW_OP_deref] $sp
	@DEBUG_VALUE: uart_init:baudrate <- $r5
	mov.w	r0, #230400
	b	.LBB0_14
.Ltmp11:
.LBB0_10:
	@DEBUG_VALUE: uart_init:GPIO_InitStructure <- [DW_OP_plus_uconst 4, DW_OP_deref] $sp
	@DEBUG_VALUE: uart_init:baudrate <- $r5
	mov.w	r0, #460800
	b	.LBB0_14
.Ltmp12:
.LBB0_11:
	@DEBUG_VALUE: uart_init:GPIO_InitStructure <- [DW_OP_plus_uconst 4, DW_OP_deref] $sp
	@DEBUG_VALUE: uart_init:baudrate <- $r5
	.loc	2 65 10 is_stmt 1       @ ../Driver/Uart.c:65:10
	cmp	r5, #57
	bne	.LBB0_13
.Ltmp13:
@ %bb.12:
	@DEBUG_VALUE: uart_init:GPIO_InitStructure <- [DW_OP_plus_uconst 4, DW_OP_deref] $sp
	@DEBUG_VALUE: uart_init:baudrate <- $r5
	.loc	2 0 10 is_stmt 0        @ ../Driver/Uart.c:0:10
	mov.w	r0, #921600
	b	.LBB0_14
.Ltmp14:
.LBB0_13:
	@DEBUG_VALUE: uart_init:GPIO_InitStructure <- [DW_OP_plus_uconst 4, DW_OP_deref] $sp
	@DEBUG_VALUE: uart_init:baudrate <- $r5
	mov.w	r0, #115200
.Ltmp15:
.LBB0_14:
	@DEBUG_VALUE: uart_init:GPIO_InitStructure <- [DW_OP_plus_uconst 4, DW_OP_deref] $sp
	@DEBUG_VALUE: uart_init:baudrate <- $r5
	str	r0, [sp, #16]
	movs	r0, #0
.Ltmp16:
	.loc	2 73 2 is_stmt 1        @ ../Driver/Uart.c:73:2
	sub.w	r4, r4, #116736
	add	r1, sp, #16
	.loc	2 71 48                 @ ../Driver/Uart.c:71:48
	strh.w	r0, [sp, #28]
	.loc	2 68 39                 @ ../Driver/Uart.c:68:39
	str	r0, [sp, #20]
	mov.w	r0, #786432
	.loc	2 70 35                 @ ../Driver/Uart.c:70:35
	str	r0, [sp, #24]
.Ltmp17:
	@DEBUG_VALUE: uart_init:USART_InitStructure <- [DW_OP_plus_uconst 16, DW_OP_deref] $sp
	.loc	2 73 2                  @ ../Driver/Uart.c:73:2
	mov	r0, r4
	bl	USART_Init
	movs	r0, #38
	movt	r0, #257
	.loc	2 75 37                 @ ../Driver/Uart.c:75:37
	str	r0, [sp, #12]
.Ltmp18:
	@DEBUG_VALUE: uart_init:NVIC_InitStructure <- [DW_OP_plus_uconst 12, DW_OP_deref] $sp
	.loc	2 0 37 is_stmt 0        @ ../Driver/Uart.c:0:37
	add	r0, sp, #12
	.loc	2 79 2 is_stmt 1        @ ../Driver/Uart.c:79:2
	bl	NVIC_Init
	.loc	2 81 2                  @ ../Driver/Uart.c:81:2
	mov	r0, r4
	movs	r1, #1
	bl	USART_Cmd
	.loc	2 82 2                  @ ../Driver/Uart.c:82:2
	mov	r0, r4
	movw	r1, #1317
	movs	r2, #1
	bl	USART_ITConfig
	.loc	2 83 1                  @ ../Driver/Uart.c:83:1
	add	sp, #32
.Ltmp19:
	pop	{r4, r5, r6, pc}
.Ltmp20:
.Lfunc_end0:
	.size	uart_init, .Lfunc_end0-uart_init
	.cfi_endproc
	.cantunwind
	.fnend
                                        @ -- End function
	.section	.text.nvic_config,"ax",%progbits
	.hidden	nvic_config             @ -- Begin function nvic_config
	.globl	nvic_config
	.p2align	1
	.type	nvic_config,%function
	.code	16                      @ @nvic_config
	.thumb_func
nvic_config:
.Lfunc_begin1:
	.loc	2 86 0                  @ ../Driver/Uart.c:86:0
	.fnstart
	.cfi_startproc
@ %bb.0:
	.loc	2 89 2 prologue_end     @ ../Driver/Uart.c:89:2
	mov.w	r0, #1280
	b	NVIC_PriorityGroupConfig
.Ltmp21:
.Lfunc_end1:
	.size	nvic_config, .Lfunc_end1-nvic_config
	.cfi_endproc
	.cantunwind
	.fnend
                                        @ -- End function
	.section	.text.RS485_Send_Data,"ax",%progbits
	.hidden	RS485_Send_Data         @ -- Begin function RS485_Send_Data
	.globl	RS485_Send_Data
	.p2align	1
	.type	RS485_Send_Data,%function
	.code	16                      @ @RS485_Send_Data
	.thumb_func
RS485_Send_Data:
.Lfunc_begin2:
	.loc	2 93 0                  @ ../Driver/Uart.c:93:0
	.fnstart
	.cfi_startproc
@ %bb.0:
	.save	{r4, r5, r6, r7, r8, lr}
	push.w	{r4, r5, r6, r7, r8, lr}
	.cfi_def_cfa_offset 24
	.cfi_offset lr, -4
	.cfi_offset r8, -8
	.cfi_offset r7, -12
	.cfi_offset r6, -16
	.cfi_offset r5, -20
	.cfi_offset r4, -24
	@DEBUG_VALUE: RS485_Send_Data:buf <- $r0
	@DEBUG_VALUE: RS485_Send_Data:len <- $r1
	movw	r5, #17408
	mov	r6, r1
	mov	r7, r0
.Ltmp22:
	@DEBUG_VALUE: RS485_Send_Data:len <- $r6
	@DEBUG_VALUE: RS485_Send_Data:buf <- $r7
	.loc	2 96 2 prologue_end     @ ../Driver/Uart.c:96:2
	movs	r1, #16
	movs	r2, #1
	movt	r5, #16384
	add.w	r8, r5, #117760
	mov	r0, r8
	bl	GPIO_WriteBit
.Ltmp23:
	@DEBUG_VALUE: RS485_Send_Data:t <- 0
	.loc	2 97 4                  @ ../Driver/Uart.c:97:4
	cbz	r6, .LBB2_4
.Ltmp24:
@ %bb.1:
	@DEBUG_VALUE: RS485_Send_Data:buf <- $r7
	@DEBUG_VALUE: RS485_Send_Data:len <- $r6
	.loc	2 0 4 is_stmt 0         @ ../Driver/Uart.c:0:4
	movs	r4, #0
.Ltmp25:
	@DEBUG_VALUE: RS485_Send_Data:t <- $r4
	.p2align	2
.LBB2_2:                                @ =>This Inner Loop Header: Depth=1
	@DEBUG_VALUE: RS485_Send_Data:t <- $r4
	@DEBUG_VALUE: RS485_Send_Data:buf <- $r7
	@DEBUG_VALUE: RS485_Send_Data:len <- $r6
	.loc	2 99 9 is_stmt 1        @ ../Driver/Uart.c:99:9
	mov	r0, r5
	movs	r1, #64
	bl	USART_GetFlagStatus
	.loc	2 99 3 is_stmt 0        @ ../Driver/Uart.c:99:3
	cmp	r0, #0
	beq	.LBB2_2
.Ltmp26:
@ %bb.3:                                @   in Loop: Header=BB2_2 Depth=1
	@DEBUG_VALUE: RS485_Send_Data:t <- $r4
	@DEBUG_VALUE: RS485_Send_Data:buf <- $r7
	@DEBUG_VALUE: RS485_Send_Data:len <- $r6
	.loc	2 100 26 is_stmt 1      @ ../Driver/Uart.c:100:26
	ldrb	r1, [r7, r4]
	.loc	2 100 3 is_stmt 0       @ ../Driver/Uart.c:100:3
	mov	r0, r5
	bl	USART_SendData
.Ltmp27:
	.loc	2 97 25 is_stmt 1       @ ../Driver/Uart.c:97:25
	adds	r4, #1
.Ltmp28:
	@DEBUG_VALUE: RS485_Send_Data:t <- [DW_OP_plus_uconst 1, DW_OP_stack_value] undef
	.loc	2 97 4 is_stmt 0        @ ../Driver/Uart.c:97:4
	cmp	r4, r6
	bne	.LBB2_2
.Ltmp29:
	.p2align	2
.LBB2_4:                                @ =>This Inner Loop Header: Depth=1
	@DEBUG_VALUE: RS485_Send_Data:buf <- $r7
	@DEBUG_VALUE: RS485_Send_Data:len <- $r6
	.loc	2 103 8 is_stmt 1       @ ../Driver/Uart.c:103:8
	mov	r0, r5
	movs	r1, #64
	bl	USART_GetFlagStatus
	.loc	2 103 2 is_stmt 0       @ ../Driver/Uart.c:103:2
	cmp	r0, #0
	beq	.LBB2_4
.Ltmp30:
@ %bb.5:
	@DEBUG_VALUE: RS485_Send_Data:buf <- $r7
	@DEBUG_VALUE: RS485_Send_Data:len <- $r6
	.loc	2 104 2 is_stmt 1       @ ../Driver/Uart.c:104:2
	mov	r0, r8
	movs	r1, #16
	movs	r2, #0
	pop.w	{r4, r5, r6, r7, r8, lr}
.Ltmp31:
	b	GPIO_WriteBit
.Ltmp32:
.Lfunc_end2:
	.size	RS485_Send_Data, .Lfunc_end2-RS485_Send_Data
	.cfi_endproc
	.cantunwind
	.fnend
                                        @ -- End function
	.section	.text.RS485ModeGpio_Init,"ax",%progbits
	.hidden	RS485ModeGpio_Init      @ -- Begin function RS485ModeGpio_Init
	.globl	RS485ModeGpio_Init
	.p2align	1
	.type	RS485ModeGpio_Init,%function
	.code	16                      @ @RS485ModeGpio_Init
	.thumb_func
RS485ModeGpio_Init:
.Lfunc_begin3:
	.loc	2 108 0                 @ ../Driver/Uart.c:108:0
	.fnstart
	.cfi_startproc
@ %bb.0:
	.save	{r4, lr}
	push	{r4, lr}
	.cfi_def_cfa_offset 8
	.cfi_offset lr, -4
	.cfi_offset r4, -8
	.pad	#8
	sub	sp, #8
	.cfi_def_cfa_offset 16
.Ltmp33:
	.loc	2 111 2 prologue_end    @ ../Driver/Uart.c:111:2
	movs	r0, #16
	movs	r1, #1
	movs	r4, #16
	bl	RCC_AHB1PeriphClockCmd
	movw	r0, #769
	mov	r1, sp
	.loc	2 117 30                @ ../Driver/Uart.c:117:30
	strd	r4, r0, [sp]
.Ltmp34:
	@DEBUG_VALUE: RS485ModeGpio_Init:GPIO_InitStructure <- [DW_OP_deref] $sp
	.loc	2 0 30 is_stmt 0        @ ../Driver/Uart.c:0:30
	movw	r0, #4096
	movt	r0, #16386
	.loc	2 118 2 is_stmt 1       @ ../Driver/Uart.c:118:2
	bl	GPIO_Init
	.loc	2 119 1                 @ ../Driver/Uart.c:119:1
	add	sp, #8
.Ltmp35:
	pop	{r4, pc}
.Ltmp36:
.Lfunc_end3:
	.size	RS485ModeGpio_Init, .Lfunc_end3-RS485ModeGpio_Init
	.cfi_endproc
	.cantunwind
	.fnend
                                        @ -- End function
	.hidden	rs485_rx_cnt            @ @rs485_rx_cnt
	.type	rs485_rx_cnt,%object
	.section	.bss.rs485_rx_cnt,"aw",%nobits
	.globl	rs485_rx_cnt
	.p2align	1
rs485_rx_cnt:
	.short	0                       @ 0x0
	.size	rs485_rx_cnt, 2

	.hidden	p_comm_buffer           @ @p_comm_buffer
	.type	p_comm_buffer,%object
	.section	.bss.p_comm_buffer,"aw",%nobits
	.globl	p_comm_buffer
	.p2align	2
p_comm_buffer:
	.long	0
	.size	p_comm_buffer, 4

	.hidden	rx_buffer               @ @rx_buffer
	.type	rx_buffer,%object
	.section	.bss.rx_buffer,"aw",%nobits
	.globl	rx_buffer
rx_buffer:
	.zero	256
	.size	rx_buffer, 256

	.hidden	tx_buffer               @ @tx_buffer
	.type	tx_buffer,%object
	.section	.bss.tx_buffer,"aw",%nobits
	.globl	tx_buffer
tx_buffer:
	.zero	256
	.size	tx_buffer, 256

	.file	5 "F:\\SkyDrive\\OtvoreniProjekti\\HotelSaplast\\fw\\KontrolerHotela\\HC070318\\Project" "../Libraries/STM32F4xx_StdPeriph_Driver/inc\\stm32f4xx_usart.h"
	.file	6 "F:\\SkyDrive\\OtvoreniProjekti\\HotelSaplast\\fw\\KontrolerHotela\\HC070318\\Project" "../Libraries/STM32F4xx_StdPeriph_Driver/inc\\misc.h"
	.section	".note.GNU-stack","",%progbits
	.eabi_attribute	30, 3	@ Tag_ABI_optimization_goals
	.ARM_attribute	16, 1	@ Tag_AV_eba