	.text
	.syntax unified
	.eabi_attribute	67, "2.09"	@ Tag_conformance
	.cpu	cortex-m4
	.eabi_attribute	6, 13	@ Tag_CPU_arch
	.eabi_attribute	7, 77	@ Tag_CPU_arch_profile
	.eabi_attribute	8, 0	@ Tag_ARM_ISA_use
	.eabi_attribute	9, 2	@ Tag_THUMB_ISA_use
	.fpu	fpv4-sp-d16
	.eabi_attribute	27, 1	@ Tag_ABI_HardFP_use
	.eabi_attribute	36, 1	@ Tag_FP_HP_extension
	.eabi_attribute	34, 1	@ Tag_CPU_unaligned_access
	.eabi_attribute	17, 1	@ Tag_ABI_PCS_GOT_use
	.eabi_attribute	20, 2	@ Tag_ABI_FP_denormal
	.eabi_attribute	21, 0	@ Tag_ABI_FP_exceptions
	.eabi_attribute	23, 1	@ Tag_ABI_FP_number_model
	.eabi_attribute	24, 1	@ Tag_ABI_align_needed
	.eabi_attribute	25, 1	@ Tag_ABI_align_preserved
	.eabi_attribute	28, 1	@ Tag_ABI_VFP_args
	.eabi_attribute	38, 1	@ Tag_ABI_FP_16bit_format
	.eabi_attribute	18, 2	@ Tag_ABI_PCS_wchar_t
	.eabi_attribute	26, 1	@ Tag_ABI_enum_size
	.eabi_attribute	14, 0	@ Tag_ABI_PCS_R9_use
	.file	"udp.c"
	.file	1 "F:\\SkyDrive\\OtvoreniProjekti\\HotelSaplast\\fw\\KontrolerHotela\\HC070318\\Project" "../Libraries/lwip-1.4.1/port/arch\\cc.h"
	.file	2 "F:\\SkyDrive\\OtvoreniProjekti\\HotelSaplast\\fw\\KontrolerHotela\\HC070318\\Project" "../Libraries/lwip-1.4.1/src/include/ipv4\\lwip/ip_addr.h"
	.file	3 "F:\\SkyDrive\\OtvoreniProjekti\\HotelSaplast\\fw\\KontrolerHotela\\HC070318\\Project" "../Libraries/lwip-1.4.1/src/include\\lwip/udp.h"
	.file	4 "F:\\SkyDrive\\OtvoreniProjekti\\HotelSaplast\\fw\\KontrolerHotela\\HC070318\\Project" "../Libraries/lwip-1.4.1/src/include\\lwip/pbuf.h"
	.file	5 "F:\\SkyDrive\\OtvoreniProjekti\\HotelSaplast\\fw\\KontrolerHotela\\HC070318\\Project" "../Libraries/lwip-1.4.1/src/core/udp.c"
	.file	6 "F:\\SkyDrive\\OtvoreniProjekti\\HotelSaplast\\fw\\KontrolerHotela\\HC070318\\Project" "../Libraries/lwip-1.4.1/src/include/ipv4\\lwip/icmp.h"
	.file	7 "F:\\SkyDrive\\OtvoreniProjekti\\HotelSaplast\\fw\\KontrolerHotela\\HC070318\\Project" "../Libraries/lwip-1.4.1/src/include\\lwip/memp.h"
	.file	8 "F:\\SkyDrive\\OtvoreniProjekti\\HotelSaplast\\fw\\KontrolerHotela\\HC070318\\Project" "../Libraries/lwip-1.4.1/src/include/ipv4\\lwip/ip.h"
	.section	.text.udp_init,"ax",%progbits
	.hidden	udp_init                @ -- Begin function udp_init
	.globl	udp_init
	.p2align	1
	.type	udp_init,%function
	.code	16                      @ @udp_init
	.thumb_func
udp_init:
.Lfunc_begin0:
	.loc	5 87 0                  @ ../Libraries/lwip-1.4.1/src/core/udp.c:87:0
	.fnstart
	.cfi_sections .debug_frame
	.cfi_startproc
@ %bb.0:
	.loc	5 91 1 prologue_end     @ ../Libraries/lwip-1.4.1/src/core/udp.c:91:1
	bx	lr
.Ltmp0:
.Lfunc_end0:
	.size	udp_init, .Lfunc_end0-udp_init
	.cfi_endproc
	.cantunwind
	.fnend
                                        @ -- End function
	.section	.text.udp_input,"ax",%progbits
	.hidden	udp_input               @ -- Begin function udp_input
	.globl	udp_input
	.p2align	1
	.type	udp_input,%function
	.code	16                      @ @udp_input
	.thumb_func
udp_input:
.Lfunc_begin1:
	.loc	5 159 0                 @ ../Libraries/lwip-1.4.1/src/core/udp.c:159:0
	.fnstart
	.cfi_startproc
@ %bb.0:
	.save	{r4, r5, r6, r7, r8, r9, r10, r11, lr}
	push.w	{r4, r5, r6, r7, r8, r9, r10, r11, lr}
	.cfi_def_cfa_offset 36
	.cfi_offset lr, -4
	.cfi_offset r11, -8
	.cfi_offset r10, -12
	.cfi_offset r9, -16
	.cfi_offset r8, -20
	.cfi_offset r7, -24
	.cfi_offset r6, -28
	.cfi_offset r5, -32
	.cfi_offset r4, -36
	.pad	#12
	sub	sp, #12
	.cfi_def_cfa_offset 48
	@DEBUG_VALUE: udp_input:p <- $r0
	@DEBUG_VALUE: udp_input:inp <- $r1
.Ltmp1:
	.loc	5 172 34 prologue_end   @ ../Libraries/lwip-1.4.1/src/core/udp.c:172:34
	ldr.w	r9, [r0, #4]
.Ltmp2:
	@DEBUG_VALUE: udp_input:iphdr <- $r9
	.loc	5 0 34 is_stmt 0        @ ../Libraries/lwip-1.4.1/src/core/udp.c:0:34
	mov	r4, r0
.Ltmp3:
	@DEBUG_VALUE: udp_input:inp <- $r5
	@DEBUG_VALUE: udp_input:p <- $r4
	mov	r5, r1
.Ltmp4:
	movs	r1, #60
.Ltmp5:
	.loc	5 176 12 is_stmt 1      @ ../Libraries/lwip-1.4.1/src/core/udp.c:176:12
	ldrh	r2, [r4, #8]
	.loc	5 176 23 is_stmt 0      @ ../Libraries/lwip-1.4.1/src/core/udp.c:176:23
	ldrb.w	r0, [r9]
	.loc	5 176 37                @ ../Libraries/lwip-1.4.1/src/core/udp.c:176:37
	and.w	r0, r1, r0, lsl #2
	.loc	5 176 41                @ ../Libraries/lwip-1.4.1/src/core/udp.c:176:41
	add.w	r1, r0, #8
	.loc	5 176 53                @ ../Libraries/lwip-1.4.1/src/core/udp.c:176:53
	cmp	r1, r2
	bhi	.LBB1_2
.Ltmp6:
@ %bb.1:
	@DEBUG_VALUE: udp_input:p <- $r4
	@DEBUG_VALUE: udp_input:iphdr <- $r9
	.loc	5 176 71                @ ../Libraries/lwip-1.4.1/src/core/udp.c:176:71
	rsbs	r1, r0, #0
	.loc	5 176 56                @ ../Libraries/lwip-1.4.1/src/core/udp.c:176:56
	mov	r0, r4
	bl	pbuf_header
.Ltmp7:
	.loc	5 176 9                 @ ../Libraries/lwip-1.4.1/src/core/udp.c:176:9
	cbz	r0, .LBB1_3
.Ltmp8:
.LBB1_2:
	@DEBUG_VALUE: udp_input:p <- $r4
	@DEBUG_VALUE: udp_input:iphdr <- $r9
	.loc	5 0 0                   @ ../Libraries/lwip-1.4.1/src/core/udp.c:0:0
	mov	r0, r4
	add	sp, #12
	pop.w	{r4, r5, r6, r7, r8, r9, r10, r11, lr}
.Ltmp9:
	b	pbuf_free
.LBB1_3:
.Ltmp10:
	@DEBUG_VALUE: udp_input:p <- $r4
	@DEBUG_VALUE: udp_input:iphdr <- $r9
	.loc	5 191 17 is_stmt 1      @ ../Libraries/lwip-1.4.1/src/core/udp.c:191:17
	movw	r11, :lower16:current_iphdr_dest
	.loc	5 188 36                @ ../Libraries/lwip-1.4.1/src/core/udp.c:188:36
	ldr	r7, [r4, #4]
.Ltmp11:
	@DEBUG_VALUE: udp_input:udphdr <- $r7
	.loc	5 191 17                @ ../Libraries/lwip-1.4.1/src/core/udp.c:191:17
	mov	r1, r5
	movt	r11, :upper16:current_iphdr_dest
	ldr.w	r0, [r11]
	bl	ip4_addr_isbroadcast
	mov	r6, r0
.Ltmp12:
	@DEBUG_VALUE: udp_input:broadcast <- undef
	.loc	5 196 11                @ ../Libraries/lwip-1.4.1/src/core/udp.c:196:11
	ldrh	r0, [r7]
	bl	lwip_ntohs
	mov	r8, r0
.Ltmp13:
	@DEBUG_VALUE: udp_input:src <- undef
	.loc	5 197 12                @ ../Libraries/lwip-1.4.1/src/core/udp.c:197:12
	ldrh	r0, [r7, #2]
	bl	lwip_ntohs
.Ltmp14:
	@DEBUG_VALUE: udp_input:uncon_pcb <- 0
	@DEBUG_VALUE: udp_input:local_match <- 0
	@DEBUG_VALUE: udp_input:prev <- 0
	@DEBUG_VALUE: udp_input:dest <- undef
	.loc	5 0 0 is_stmt 0         @ ../Libraries/lwip-1.4.1/src/core/udp.c:0:0
	movw	r1, :lower16:udp_pcbs
	movt	r1, :upper16:udp_pcbs
.Ltmp15:
	@DEBUG_VALUE: udp_input:pcb <- [DW_OP_deref] $r1
	ldr	r2, [r1]
.Ltmp16:
	@DEBUG_VALUE: udp_input:pcb <- $r2
	.loc	5 242 9 is_stmt 1       @ ../Libraries/lwip-1.4.1/src/core/udp.c:242:9
	cmp	r2, #0
	beq	.LBB1_19
.Ltmp17:
@ %bb.4:
	@DEBUG_VALUE: udp_input:pcb <- $r2
	@DEBUG_VALUE: udp_input:udphdr <- $r7
	@DEBUG_VALUE: udp_input:p <- $r4
	@DEBUG_VALUE: udp_input:iphdr <- $r9
	.loc	5 0 9 is_stmt 0         @ ../Libraries/lwip-1.4.1/src/core/udp.c:0:9
	movw	r1, :lower16:current_iphdr_src
	str	r7, [sp, #8]            @ 4-byte Spill
.Ltmp18:
	@DEBUG_VALUE: udp_input:udphdr <- [DW_OP_plus_uconst 8] [$sp+0]
	mov.w	r10, #0
	str	r2, [sp, #4]            @ 4-byte Spill
.Ltmp19:
	@DEBUG_VALUE: udp_input:pcb <- [DW_OP_plus_uconst 4] [$sp+0]
	mov	r7, r2
	movs	r2, #0
	movt	r1, :upper16:current_iphdr_src
	ldr.w	lr, [r1]
	ldr.w	r1, [r11]
.Ltmp20:
	.p2align	2
.LBB1_5:                                @ =>This Inner Loop Header: Depth=1
	@DEBUG_VALUE: udp_input:pcb <- [DW_OP_plus_uconst 4] [$sp+0]
	@DEBUG_VALUE: udp_input:udphdr <- [DW_OP_plus_uconst 8] [$sp+0]
	@DEBUG_VALUE: udp_input:p <- $r4
	@DEBUG_VALUE: udp_input:iphdr <- $r9
	mov	r11, r10
	mov	r10, r7
.Ltmp21:
	@DEBUG_VALUE: udp_input:uncon_pcb <- $r2
	@DEBUG_VALUE: udp_input:local_match <- 0
	@DEBUG_VALUE: udp_input:prev <- $r11
	.loc	5 255 22 is_stmt 1      @ ../Libraries/lwip-1.4.1/src/core/udp.c:255:22
	ldrh	r7, [r7, #18]
.Ltmp22:
	.loc	5 255 17 is_stmt 0      @ ../Libraries/lwip-1.4.1/src/core/udp.c:255:17
	cmp	r7, r0
	bne	.LBB1_16
.Ltmp23:
@ %bb.6:                                @   in Loop: Header=BB1_5 Depth=1
	@DEBUG_VALUE: udp_input:pcb <- [DW_OP_plus_uconst 4] [$sp+0]
	@DEBUG_VALUE: udp_input:udphdr <- [DW_OP_plus_uconst 8] [$sp+0]
	@DEBUG_VALUE: udp_input:prev <- $r11
	@DEBUG_VALUE: udp_input:uncon_pcb <- $r2
	@DEBUG_VALUE: udp_input:p <- $r4
	@DEBUG_VALUE: udp_input:iphdr <- $r9
	.loc	5 0 0                   @ ../Libraries/lwip-1.4.1/src/core/udp.c:0:0
	ldr.w	r12, [r10]
	orrs.w	r7, r6, r12
	.loc	5 259 37 is_stmt 1      @ ../Libraries/lwip-1.4.1/src/core/udp.c:259:37
	it	ne
	cmpne	r12, r1
	bne	.LBB1_12
.Ltmp24:
.LBB1_7:                                @   in Loop: Header=BB1_5 Depth=1
	@DEBUG_VALUE: udp_input:pcb <- [DW_OP_plus_uconst 4] [$sp+0]
	@DEBUG_VALUE: udp_input:udphdr <- [DW_OP_plus_uconst 8] [$sp+0]
	@DEBUG_VALUE: udp_input:prev <- $r11
	@DEBUG_VALUE: udp_input:uncon_pcb <- $r2
	@DEBUG_VALUE: udp_input:p <- $r4
	@DEBUG_VALUE: udp_input:iphdr <- $r9
	@DEBUG_VALUE: udp_input:local_match <- 1
	.loc	5 276 49                @ ../Libraries/lwip-1.4.1/src/core/udp.c:276:49
	cbnz	r2, .LBB1_9
.Ltmp25:
@ %bb.8:                                @   in Loop: Header=BB1_5 Depth=1
	@DEBUG_VALUE: udp_input:pcb <- [DW_OP_plus_uconst 4] [$sp+0]
	@DEBUG_VALUE: udp_input:udphdr <- [DW_OP_plus_uconst 8] [$sp+0]
	@DEBUG_VALUE: udp_input:prev <- $r11
	@DEBUG_VALUE: udp_input:uncon_pcb <- $r2
	@DEBUG_VALUE: udp_input:p <- $r4
	@DEBUG_VALUE: udp_input:iphdr <- $r9
	.loc	5 277 40                @ ../Libraries/lwip-1.4.1/src/core/udp.c:277:40
	ldrb.w	r2, [r10, #16]
.Ltmp26:
	.loc	5 276 29                @ ../Libraries/lwip-1.4.1/src/core/udp.c:276:29
	lsls	r2, r2, #29
	mov.w	r2, #0
	it	pl
	movpl	r2, r10
.Ltmp27:
.LBB1_9:                                @   in Loop: Header=BB1_5 Depth=1
	@DEBUG_VALUE: udp_input:pcb <- [DW_OP_plus_uconst 4] [$sp+0]
	@DEBUG_VALUE: udp_input:udphdr <- [DW_OP_plus_uconst 8] [$sp+0]
	@DEBUG_VALUE: udp_input:prev <- $r11
	@DEBUG_VALUE: udp_input:p <- $r4
	@DEBUG_VALUE: udp_input:iphdr <- $r9
	@DEBUG_VALUE: udp_input:uncon_pcb <- $r2
	.loc	5 286 27                @ ../Libraries/lwip-1.4.1/src/core/udp.c:286:27
	ldrh.w	r3, [r10, #20]
	.loc	5 286 47 is_stmt 0      @ ../Libraries/lwip-1.4.1/src/core/udp.c:286:47
	cmp	r3, r8
	bne	.LBB1_16
.Ltmp28:
@ %bb.10:                               @   in Loop: Header=BB1_5 Depth=1
	@DEBUG_VALUE: udp_input:pcb <- [DW_OP_plus_uconst 4] [$sp+0]
	@DEBUG_VALUE: udp_input:udphdr <- [DW_OP_plus_uconst 8] [$sp+0]
	@DEBUG_VALUE: udp_input:prev <- $r11
	@DEBUG_VALUE: udp_input:uncon_pcb <- $r2
	@DEBUG_VALUE: udp_input:p <- $r4
	@DEBUG_VALUE: udp_input:iphdr <- $r9
	.loc	5 287 22 is_stmt 1      @ ../Libraries/lwip-1.4.1/src/core/udp.c:287:22
	ldr.w	r7, [r10, #4]
	.loc	5 287 53 is_stmt 0      @ ../Libraries/lwip-1.4.1/src/core/udp.c:287:53
	cbz	r7, .LBB1_21
.Ltmp29:
@ %bb.11:                               @   in Loop: Header=BB1_5 Depth=1
	@DEBUG_VALUE: udp_input:pcb <- [DW_OP_plus_uconst 4] [$sp+0]
	@DEBUG_VALUE: udp_input:udphdr <- [DW_OP_plus_uconst 8] [$sp+0]
	@DEBUG_VALUE: udp_input:prev <- $r11
	@DEBUG_VALUE: udp_input:uncon_pcb <- $r2
	@DEBUG_VALUE: udp_input:p <- $r4
	@DEBUG_VALUE: udp_input:iphdr <- $r9
	cmp	r7, lr
	bne	.LBB1_16
	b	.LBB1_21
.Ltmp30:
.LBB1_12:                               @   in Loop: Header=BB1_5 Depth=1
	@DEBUG_VALUE: udp_input:pcb <- [DW_OP_plus_uconst 4] [$sp+0]
	@DEBUG_VALUE: udp_input:udphdr <- [DW_OP_plus_uconst 8] [$sp+0]
	@DEBUG_VALUE: udp_input:prev <- $r11
	@DEBUG_VALUE: udp_input:uncon_pcb <- $r2
	@DEBUG_VALUE: udp_input:p <- $r4
	@DEBUG_VALUE: udp_input:iphdr <- $r9
	.loc	5 265 36 is_stmt 1      @ ../Libraries/lwip-1.4.1/src/core/udp.c:265:36
	cbz	r6, .LBB1_16
.Ltmp31:
@ %bb.13:                               @   in Loop: Header=BB1_5 Depth=1
	@DEBUG_VALUE: udp_input:pcb <- [DW_OP_plus_uconst 4] [$sp+0]
	@DEBUG_VALUE: udp_input:udphdr <- [DW_OP_plus_uconst 8] [$sp+0]
	@DEBUG_VALUE: udp_input:prev <- $r11
	@DEBUG_VALUE: udp_input:uncon_pcb <- $r2
	@DEBUG_VALUE: udp_input:p <- $r4
	@DEBUG_VALUE: udp_input:iphdr <- $r9
	.loc	5 265 39 is_stmt 0      @ ../Libraries/lwip-1.4.1/src/core/udp.c:265:39
	ldrb.w	r7, [r10, #8]
	.loc	5 265 73                @ ../Libraries/lwip-1.4.1/src/core/udp.c:265:73
	lsls	r7, r7, #26
	bpl	.LBB1_16
.Ltmp32:
@ %bb.14:                               @   in Loop: Header=BB1_5 Depth=1
	@DEBUG_VALUE: udp_input:pcb <- [DW_OP_plus_uconst 4] [$sp+0]
	@DEBUG_VALUE: udp_input:udphdr <- [DW_OP_plus_uconst 8] [$sp+0]
	@DEBUG_VALUE: udp_input:prev <- $r11
	@DEBUG_VALUE: udp_input:uncon_pcb <- $r2
	@DEBUG_VALUE: udp_input:p <- $r4
	@DEBUG_VALUE: udp_input:iphdr <- $r9
	.loc	5 266 56 is_stmt 1      @ ../Libraries/lwip-1.4.1/src/core/udp.c:266:56
	cmp.w	r12, #0
	beq	.LBB1_7
.Ltmp33:
@ %bb.15:                               @   in Loop: Header=BB1_5 Depth=1
	@DEBUG_VALUE: udp_input:pcb <- [DW_OP_plus_uconst 4] [$sp+0]
	@DEBUG_VALUE: udp_input:udphdr <- [DW_OP_plus_uconst 8] [$sp+0]
	@DEBUG_VALUE: udp_input:prev <- $r11
	@DEBUG_VALUE: udp_input:uncon_pcb <- $r2
	@DEBUG_VALUE: udp_input:p <- $r4
	@DEBUG_VALUE: udp_input:iphdr <- $r9
	.loc	5 267 25                @ ../Libraries/lwip-1.4.1/src/core/udp.c:267:25
	ldr	r3, [r5, #8]
	eor.w	r7, r1, r12
.Ltmp34:
	.loc	5 259 25                @ ../Libraries/lwip-1.4.1/src/core/udp.c:259:25
	tst	r3, r7
	beq	.LBB1_7
.Ltmp35:
	.p2align	2
.LBB1_16:                               @   in Loop: Header=BB1_5 Depth=1
	@DEBUG_VALUE: udp_input:pcb <- [DW_OP_plus_uconst 4] [$sp+0]
	@DEBUG_VALUE: udp_input:udphdr <- [DW_OP_plus_uconst 8] [$sp+0]
	@DEBUG_VALUE: udp_input:prev <- $r11
	@DEBUG_VALUE: udp_input:uncon_pcb <- $r2
	@DEBUG_VALUE: udp_input:p <- $r4
	@DEBUG_VALUE: udp_input:iphdr <- $r9
	@DEBUG_VALUE: udp_input:uncon_pcb <- $r2
	@DEBUG_VALUE: udp_input:pcb <- $r2
	@DEBUG_VALUE: udp_input:pcb <- [DW_OP_plus_uconst 12, DW_OP_deref, DW_OP_stack_value] $r10
	.loc	5 0 0 is_stmt 0         @ ../Libraries/lwip-1.4.1/src/core/udp.c:0:0
	ldr.w	r7, [r10, #12]
.Ltmp36:
	@DEBUG_VALUE: udp_input:pcb <- $r7
	.loc	5 242 9 is_stmt 1       @ ../Libraries/lwip-1.4.1/src/core/udp.c:242:9
	cmp	r7, #0
	bne	.LBB1_5
.Ltmp37:
@ %bb.17:
	@DEBUG_VALUE: udp_input:udphdr <- [DW_OP_plus_uconst 8] [$sp+0]
	@DEBUG_VALUE: udp_input:pcb <- $r7
	@DEBUG_VALUE: udp_input:prev <- $r11
	@DEBUG_VALUE: udp_input:uncon_pcb <- $r2
	@DEBUG_VALUE: udp_input:p <- $r4
	@DEBUG_VALUE: udp_input:iphdr <- $r9
	.loc	5 0 9 is_stmt 0         @ ../Libraries/lwip-1.4.1/src/core/udp.c:0:9
	movw	r7, :lower16:current_iphdr_dest
.Ltmp38:
	.loc	5 315 21 is_stmt 1      @ ../Libraries/lwip-1.4.1/src/core/udp.c:315:21
	cmp	r2, #0
	movt	r7, :upper16:current_iphdr_dest
	mov	r11, r7
.Ltmp39:
	.loc	5 0 21 is_stmt 0        @ ../Libraries/lwip-1.4.1/src/core/udp.c:0:21
	ldr	r7, [sp, #8]            @ 4-byte Reload
	.loc	5 315 21                @ ../Libraries/lwip-1.4.1/src/core/udp.c:315:21
	beq	.LBB1_19
.Ltmp40:
@ %bb.18:
	@DEBUG_VALUE: udp_input:udphdr <- [DW_OP_plus_uconst 8] [$sp+0]
	@DEBUG_VALUE: udp_input:uncon_pcb <- $r2
	@DEBUG_VALUE: udp_input:p <- $r4
	@DEBUG_VALUE: udp_input:iphdr <- $r9
	.loc	5 0 21                  @ ../Libraries/lwip-1.4.1/src/core/udp.c:0:21
	movs	r5, #1
	mov	r10, r2
.Ltmp41:
	@DEBUG_VALUE: udp_input:uncon_pcb <- $r10
	b	.LBB1_24
.Ltmp42:
.LBB1_19:
	@DEBUG_VALUE: udp_input:p <- $r4
	@DEBUG_VALUE: udp_input:iphdr <- $r9
	.loc	5 315 24                @ ../Libraries/lwip-1.4.1/src/core/udp.c:315:24
	ldr.w	r0, [r11]
	ldr	r1, [r5, #4]
.Ltmp43:
	.loc	5 315 9                 @ ../Libraries/lwip-1.4.1/src/core/udp.c:315:9
	cmp	r1, r0
	bne.w	.LBB1_2
.Ltmp44:
@ %bb.20:
	@DEBUG_VALUE: udp_input:p <- $r4
	@DEBUG_VALUE: udp_input:iphdr <- $r9
	.loc	5 0 9                   @ ../Libraries/lwip-1.4.1/src/core/udp.c:0:9
	movs	r5, #0
	mov.w	r10, #0
	b	.LBB1_24
.Ltmp45:
.LBB1_21:
	@DEBUG_VALUE: udp_input:pcb <- [DW_OP_plus_uconst 4] [$sp+0]
	@DEBUG_VALUE: udp_input:udphdr <- [DW_OP_plus_uconst 8] [$sp+0]
	@DEBUG_VALUE: udp_input:prev <- $r11
	@DEBUG_VALUE: udp_input:uncon_pcb <- $r2
	@DEBUG_VALUE: udp_input:p <- $r4
	@DEBUG_VALUE: udp_input:iphdr <- $r9
	.loc	5 291 21 is_stmt 1      @ ../Libraries/lwip-1.4.1/src/core/udp.c:291:21
	cmp.w	r11, #0
	beq	.LBB1_23
.Ltmp46:
@ %bb.22:
	@DEBUG_VALUE: udp_input:pcb <- [DW_OP_plus_uconst 4] [$sp+0]
	@DEBUG_VALUE: udp_input:udphdr <- [DW_OP_plus_uconst 8] [$sp+0]
	@DEBUG_VALUE: udp_input:prev <- $r11
	@DEBUG_VALUE: udp_input:uncon_pcb <- $r2
	@DEBUG_VALUE: udp_input:p <- $r4
	@DEBUG_VALUE: udp_input:iphdr <- $r9
	.loc	5 295 39                @ ../Libraries/lwip-1.4.1/src/core/udp.c:295:39
	ldr.w	r0, [r10, #12]
	.loc	5 295 32 is_stmt 0      @ ../Libraries/lwip-1.4.1/src/core/udp.c:295:32
	str.w	r0, [r11, #12]
	.loc	5 296 31 is_stmt 1      @ ../Libraries/lwip-1.4.1/src/core/udp.c:296:31
	ldr	r0, [sp, #4]            @ 4-byte Reload
	str.w	r0, [r10, #12]
	.loc	5 297 30                @ ../Libraries/lwip-1.4.1/src/core/udp.c:297:30
	movw	r0, :lower16:udp_pcbs
	movt	r0, :upper16:udp_pcbs
	str.w	r10, [r0]
.Ltmp47:
.LBB1_23:
	@DEBUG_VALUE: udp_input:pcb <- [DW_OP_plus_uconst 4] [$sp+0]
	@DEBUG_VALUE: udp_input:udphdr <- [DW_OP_plus_uconst 8] [$sp+0]
	@DEBUG_VALUE: udp_input:prev <- $r11
	@DEBUG_VALUE: udp_input:uncon_pcb <- $r2
	@DEBUG_VALUE: udp_input:p <- $r4
	@DEBUG_VALUE: udp_input:iphdr <- $r9
	.loc	5 0 30 is_stmt 0        @ ../Libraries/lwip-1.4.1/src/core/udp.c:0:30
	movw	r7, :lower16:current_iphdr_dest
	movs	r5, #1
	movt	r7, :upper16:current_iphdr_dest
	mov	r11, r7
.Ltmp48:
	ldr	r7, [sp, #8]            @ 4-byte Reload
.Ltmp49:
.LBB1_24:
	@DEBUG_VALUE: udp_input:p <- $r4
	@DEBUG_VALUE: udp_input:iphdr <- $r9
	.loc	5 360 25 is_stmt 1      @ ../Libraries/lwip-1.4.1/src/core/udp.c:360:25
	ldrh	r0, [r7, #6]
.Ltmp50:
	.loc	5 360 17 is_stmt 0      @ ../Libraries/lwip-1.4.1/src/core/udp.c:360:17
	cbz	r0, .LBB1_26
.Ltmp51:
@ %bb.25:
	@DEBUG_VALUE: udp_input:p <- $r4
	@DEBUG_VALUE: udp_input:iphdr <- $r9
	.loc	5 363 57 is_stmt 1      @ ../Libraries/lwip-1.4.1/src/core/udp.c:363:57
	ldrh	r0, [r4, #8]
	.loc	5 362 21                @ ../Libraries/lwip-1.4.1/src/core/udp.c:362:21
	movw	r1, :lower16:current_iphdr_src
	movw	r2, :lower16:current_iphdr_dest
	movs	r3, #17
	movt	r1, :upper16:current_iphdr_src
	movt	r2, :upper16:current_iphdr_dest
	str	r0, [sp]
	mov	r0, r4
	bl	inet_chksum_pseudo
.Ltmp52:
	.loc	5 362 21 is_stmt 0      @ ../Libraries/lwip-1.4.1/src/core/udp.c:362:21
	cmp	r0, #0
	bne.w	.LBB1_2
.Ltmp53:
.LBB1_26:
	@DEBUG_VALUE: udp_input:p <- $r4
	@DEBUG_VALUE: udp_input:iphdr <- $r9
	.loc	5 376 13 is_stmt 1      @ ../Libraries/lwip-1.4.1/src/core/udp.c:376:13
	mov	r0, r4
	mvn	r1, #7
	bl	pbuf_header
.Ltmp54:
	.loc	5 376 13 is_stmt 0      @ ../Libraries/lwip-1.4.1/src/core/udp.c:376:13
	cmp	r0, #0
	bne.w	.LBB1_2
.Ltmp55:
@ %bb.27:
	@DEBUG_VALUE: udp_input:p <- $r4
	@DEBUG_VALUE: udp_input:iphdr <- $r9
	.loc	5 385 13 is_stmt 1      @ ../Libraries/lwip-1.4.1/src/core/udp.c:385:13
	cbz	r5, .LBB1_30
.Ltmp56:
@ %bb.28:
	@DEBUG_VALUE: udp_input:p <- $r4
	@DEBUG_VALUE: udp_input:iphdr <- $r9
	.loc	5 448 22                @ ../Libraries/lwip-1.4.1/src/core/udp.c:448:22
	ldr.w	r6, [r10, #24]
.Ltmp57:
	.loc	5 448 17 is_stmt 0      @ ../Libraries/lwip-1.4.1/src/core/udp.c:448:17
	cmp	r6, #0
	beq.w	.LBB1_2
.Ltmp58:
@ %bb.29:
	@DEBUG_VALUE: udp_input:p <- $r4
	@DEBUG_VALUE: udp_input:iphdr <- $r9
	.loc	5 451 17 is_stmt 1      @ ../Libraries/lwip-1.4.1/src/core/udp.c:451:17
	movw	r3, :lower16:current_iphdr_src
	.loc	5 451 32 is_stmt 0      @ ../Libraries/lwip-1.4.1/src/core/udp.c:451:32
	ldr.w	r0, [r10, #28]
	.loc	5 451 17                @ ../Libraries/lwip-1.4.1/src/core/udp.c:451:17
	mov	r1, r10
	mov	r2, r4
	str.w	r8, [sp]
	movt	r3, :upper16:current_iphdr_src
	blx	r6
.Ltmp59:
	.loc	5 488 1 is_stmt 1       @ ../Libraries/lwip-1.4.1/src/core/udp.c:488:1
	add	sp, #12
	pop.w	{r4, r5, r6, r7, r8, r9, r10, r11, pc}
.Ltmp60:
.LBB1_30:
	@DEBUG_VALUE: udp_input:p <- $r4
	@DEBUG_VALUE: udp_input:iphdr <- $r9
	.loc	5 467 28                @ ../Libraries/lwip-1.4.1/src/core/udp.c:467:28
	cmp	r6, #0
	bne.w	.LBB1_2
.Ltmp61:
@ %bb.31:
	@DEBUG_VALUE: udp_input:p <- $r4
	@DEBUG_VALUE: udp_input:iphdr <- $r9
	.loc	5 468 22                @ ../Libraries/lwip-1.4.1/src/core/udp.c:468:22
	ldr.w	r0, [r11]
	and	r0, r0, #240
.Ltmp62:
	.loc	5 467 17                @ ../Libraries/lwip-1.4.1/src/core/udp.c:467:17
	cmp	r0, #224
	beq.w	.LBB1_2
.Ltmp63:
@ %bb.32:
	@DEBUG_VALUE: udp_input:p <- $r4
	@DEBUG_VALUE: udp_input:iphdr <- $r9
	.loc	5 471 33                @ ../Libraries/lwip-1.4.1/src/core/udp.c:471:33
	ldrb.w	r0, [r9]
	movs	r1, #60
	.loc	5 471 47 is_stmt 0      @ ../Libraries/lwip-1.4.1/src/core/udp.c:471:47
	and.w	r0, r1, r0, lsl #2
	.loc	5 471 52                @ ../Libraries/lwip-1.4.1/src/core/udp.c:471:52
	add.w	r1, r0, #8
	.loc	5 471 17                @ ../Libraries/lwip-1.4.1/src/core/udp.c:471:17
	mov	r0, r4
	bl	pbuf_header
	.loc	5 473 17 is_stmt 1      @ ../Libraries/lwip-1.4.1/src/core/udp.c:473:17
	mov	r0, r4
	movs	r1, #3
	bl	icmp_dest_unreach
	b	.LBB1_2
.Ltmp64:
.Lfunc_end1:
	.size	udp_input, .Lfunc_end1-udp_input
	.cfi_endproc
	.cantunwind
	.fnend
                                        @ -- End function
	.section	.text.udp_send,"ax",%progbits
	.hidden	udp_send                @ -- Begin function udp_send
	.globl	udp_send
	.p2align	1
	.type	udp_send,%function
	.code	16                      @ @udp_send
	.thumb_func
udp_send:
.Lfunc_begin2:
	.loc	5 510 0                 @ ../Libraries/lwip-1.4.1/src/core/udp.c:510:0
	.fnstart
	.cfi_startproc
@ %bb.0:
	.save	{r7, lr}
	push	{r7, lr}
	.cfi_def_cfa_offset 8
	.cfi_offset lr, -4
	.cfi_offset r7, -8
	.pad	#8
	sub	sp, #8
	.cfi_def_cfa_offset 16
	@DEBUG_VALUE: udp_send:pcb <- $r0
	@DEBUG_VALUE: udp_send:pcb <- $r0
	@DEBUG_VALUE: udp_send:p <- $r1
	@DEBUG_VALUE: udp_send:p <- $r1
.Ltmp65:
	@DEBUG_VALUE: udp_sendto:pcb <- $r0
	@DEBUG_VALUE: udp_sendto:p <- $r1
	.loc	5 512 53 prologue_end   @ ../Libraries/lwip-1.4.1/src/core/udp.c:512:53
	ldrh	r3, [r0, #20]
.Ltmp66:
	@DEBUG_VALUE: udp_sendto:dst_port <- undef
	@DEBUG_VALUE: udp_sendto:p <- $r1
	@DEBUG_VALUE: udp_sendto:pcb <- $r0
	.loc	5 0 53 is_stmt 0        @ ../Libraries/lwip-1.4.1/src/core/udp.c:0:53
	movs	r2, #0
.Ltmp67:
	.loc	5 551 12 is_stmt 1      @ ../Libraries/lwip-1.4.1/src/core/udp.c:551:12
	strd	r2, r2, [sp]
.Ltmp68:
	.loc	5 512 37                @ ../Libraries/lwip-1.4.1/src/core/udp.c:512:37
	adds	r2, r0, #4
.Ltmp69:
	@DEBUG_VALUE: udp_sendto:dst_ip <- $r2
	@DEBUG_VALUE: udp_sendto:p <- $r1
	@DEBUG_VALUE: udp_sendto:p <- $r1
	@DEBUG_VALUE: udp_sendto:pcb <- $r0
	@DEBUG_VALUE: udp_send:p <- $r1
	.loc	5 551 12                @ ../Libraries/lwip-1.4.1/src/core/udp.c:551:12
	bl	udp_sendto_chksum
.Ltmp70:
	.loc	5 512 5                 @ ../Libraries/lwip-1.4.1/src/core/udp.c:512:5
	add	sp, #8
	pop	{r7, pc}
.Ltmp71:
.Lfunc_end2:
	.size	udp_send, .Lfunc_end2-udp_send
	.cfi_endproc
	.file	9 "F:\\SkyDrive\\OtvoreniProjekti\\HotelSaplast\\fw\\KontrolerHotela\\HC070318\\Project" "../Libraries/lwip-1.4.1/src/include\\lwip/err.h"
	.cantunwind
	.fnend
                                        @ -- End function
	.section	.text.udp_sendto,"ax",%progbits
	.hidden	udp_sendto              @ -- Begin function udp_sendto
	.globl	udp_sendto
	.p2align	1
	.type	udp_sendto,%function
	.code	16                      @ @udp_sendto
	.thumb_func
udp_sendto:
.Lfunc_begin3:
	.loc	5 549 0                 @ ../Libraries/lwip-1.4.1/src/core/udp.c:549:0
	.fnstart
	.cfi_startproc
@ %bb.0:
	.save	{r7, lr}
	push	{r7, lr}
	.cfi_def_cfa_offset 8
	.cfi_offset lr, -4
	.cfi_offset r7, -8
	.pad	#8
	sub	sp, #8
	.cfi_def_cfa_offset 16
	@DEBUG_VALUE: udp_sendto:pcb <- $r0
	@DEBUG_VALUE: udp_sendto:pcb <- $r0
	@DEBUG_VALUE: udp_sendto:p <- $r1
	@DEBUG_VALUE: udp_sendto:p <- $r1
	@DEBUG_VALUE: udp_sendto:dst_ip <- $r2
	@DEBUG_VALUE: udp_sendto:dst_ip <- $r2
	@DEBUG_VALUE: udp_sendto:dst_port <- $r3
	@DEBUG_VALUE: udp_sendto:dst_port <- $r3
	mov.w	r12, #0
.Ltmp72:
	.loc	5 551 12 prologue_end   @ ../Libraries/lwip-1.4.1/src/core/udp.c:551:12
	strd	r12, r12, [sp]
	@DEBUG_VALUE: udp_sendto:dst_port <- $r3
	@DEBUG_VALUE: udp_sendto:dst_ip <- $r2
	@DEBUG_VALUE: udp_sendto:p <- $r1
	@DEBUG_VALUE: udp_sendto:pcb <- $r0
	bl	udp_sendto_chksum
.Ltmp73:
	.loc	5 551 5 is_stmt 0       @ ../Libraries/lwip-1.4.1/src/core/udp.c:551:5
	add	sp, #8
	pop	{r7, pc}
.Ltmp74:
.Lfunc_end3:
	.size	udp_sendto, .Lfunc_end3-udp_sendto
	.cfi_endproc
	.cantunwind
	.fnend
                                        @ -- End function
	.section	.text.udp_send_chksum,"ax",%progbits
	.hidden	udp_send_chksum         @ -- Begin function udp_send_chksum
	.globl	udp_send_chksum
	.p2align	1
	.type	udp_send_chksum,%function
	.code	16                      @ @udp_send_chksum
	.thumb_func
udp_send_chksum:
.Lfunc_begin4:
	.loc	5 522 0 is_stmt 1       @ ../Libraries/lwip-1.4.1/src/core/udp.c:522:0
	.fnstart
	.cfi_startproc
@ %bb.0:
	.save	{r7, lr}
	push	{r7, lr}
	.cfi_def_cfa_offset 8
	.cfi_offset lr, -4
	.cfi_offset r7, -8
	.pad	#8
	sub	sp, #8
	.cfi_def_cfa_offset 16
	@DEBUG_VALUE: udp_send_chksum:pcb <- $r0
	@DEBUG_VALUE: udp_send_chksum:pcb <- $r0
	@DEBUG_VALUE: udp_send_chksum:p <- $r1
	@DEBUG_VALUE: udp_send_chksum:p <- $r1
	@DEBUG_VALUE: udp_send_chksum:have_chksum <- $r2
	@DEBUG_VALUE: udp_send_chksum:have_chksum <- $r2
	@DEBUG_VALUE: udp_send_chksum:chksum <- $r3
	@DEBUG_VALUE: udp_send_chksum:chksum <- $r3
.Ltmp75:
	.loc	5 524 60 prologue_end   @ ../Libraries/lwip-1.4.1/src/core/udp.c:524:60
	ldrh.w	r12, [r0, #20]
	.loc	5 524 12 is_stmt 0      @ ../Libraries/lwip-1.4.1/src/core/udp.c:524:12
	strd	r2, r3, [sp]
	.loc	5 524 44                @ ../Libraries/lwip-1.4.1/src/core/udp.c:524:44
	adds	r2, r0, #4
.Ltmp76:
	@DEBUG_VALUE: udp_send_chksum:p <- $r1
	.loc	5 524 12                @ ../Libraries/lwip-1.4.1/src/core/udp.c:524:12
	mov	r3, r12
.Ltmp77:
	bl	udp_sendto_chksum
.Ltmp78:
	.loc	5 524 5                 @ ../Libraries/lwip-1.4.1/src/core/udp.c:524:5
	add	sp, #8
	pop	{r7, pc}
.Ltmp79:
.Lfunc_end4:
	.size	udp_send_chksum, .Lfunc_end4-udp_send_chksum
	.cfi_endproc
	.cantunwind
	.fnend
                                        @ -- End function
	.section	.text.udp_sendto_chksum,"ax",%progbits
	.hidden	udp_sendto_chksum       @ -- Begin function udp_sendto_chksum
	.globl	udp_sendto_chksum
	.p2align	1
	.type	udp_sendto_chksum,%function
	.code	16                      @ @udp_sendto_chksum
	.thumb_func
udp_sendto_chksum:
.Lfunc_begin5:
	.loc	5 558 0 is_stmt 1       @ ../Libraries/lwip-1.4.1/src/core/udp.c:558:0
	.fnstart
	.cfi_startproc
@ %bb.0:
	.save	{r4, r5, r6, r7, lr}
	push	{r4, r5, r6, r7, lr}
	.cfi_def_cfa_offset 20
	.cfi_offset lr, -4
	.cfi_offset r7, -8
	.cfi_offset r6, -12
	.cfi_offset r5, -16
	.cfi_offset r4, -20
	.pad	#12
	sub	sp, #12
	.cfi_def_cfa_offset 32
	@DEBUG_VALUE: udp_sendto_chksum:pcb <- $r0
	@DEBUG_VALUE: udp_sendto_chksum:p <- $r1
	@DEBUG_VALUE: udp_sendto_chksum:dst_ip <- $r2
	@DEBUG_VALUE: udp_sendto_chksum:dst_port <- $r3
	mov	r7, r0
.Ltmp80:
	@DEBUG_VALUE: udp_sendto_chksum:dst_port <- $r4
	@DEBUG_VALUE: udp_sendto_chksum:dst_ip <- $r5
	@DEBUG_VALUE: udp_sendto_chksum:p <- $r6
	@DEBUG_VALUE: udp_sendto_chksum:pcb <- $r7
	.loc	5 568 13 prologue_end   @ ../Libraries/lwip-1.4.1/src/core/udp.c:568:13
	mov	r0, r2
	mov	r4, r3
.Ltmp81:
	.loc	5 0 13 is_stmt 0        @ ../Libraries/lwip-1.4.1/src/core/udp.c:0:13
	mov	r5, r2
.Ltmp82:
	mov	r6, r1
.Ltmp83:
	.loc	5 568 13                @ ../Libraries/lwip-1.4.1/src/core/udp.c:568:13
	bl	ip_route
.Ltmp84:
	@DEBUG_VALUE: udp_sendto_chksum:netif <- $r0
	.loc	5 572 9 is_stmt 1       @ ../Libraries/lwip-1.4.1/src/core/udp.c:572:9
	cbz	r0, .LBB5_2
.Ltmp85:
@ %bb.1:
	@DEBUG_VALUE: udp_sendto_chksum:netif <- $r0
	@DEBUG_VALUE: udp_sendto_chksum:pcb <- $r7
	@DEBUG_VALUE: udp_sendto_chksum:dst_port <- $r4
	@DEBUG_VALUE: udp_sendto_chksum:chksum <- $r1
	.loc	5 0 9 is_stmt 0         @ ../Libraries/lwip-1.4.1/src/core/udp.c:0:9
	ldrd	r2, r1, [sp, #32]
.Ltmp86:
	@DEBUG_VALUE: udp_sendto_chksum:have_chksum <- $r2
	.loc	5 580 12 is_stmt 1      @ ../Libraries/lwip-1.4.1/src/core/udp.c:580:12
	mov	r3, r4
	strd	r0, r2, [sp]
	str	r1, [sp, #8]
	mov	r0, r7
.Ltmp87:
	mov	r1, r6
	mov	r2, r5
.Ltmp88:
	bl	udp_sendto_if_chksum
	.loc	5 584 1                 @ ../Libraries/lwip-1.4.1/src/core/udp.c:584:1
	add	sp, #12
	pop	{r4, r5, r6, r7, pc}
.Ltmp89:
.LBB5_2:
	@DEBUG_VALUE: udp_sendto_chksum:netif <- $r0
	@DEBUG_VALUE: udp_sendto_chksum:pcb <- $r7
	mvn	r0, #3
.Ltmp90:
	add	sp, #12
	pop	{r4, r5, r6, r7, pc}
.Ltmp91:
.Lfunc_end5:
	.size	udp_sendto_chksum, .Lfunc_end5-udp_sendto_chksum
	.cfi_endproc
	.cantunwind
	.fnend
                                        @ -- End function
	.section	.text.udp_sendto_if_chksum,"ax",%progbits
	.hidden	udp_sendto_if_chksum    @ -- Begin function udp_sendto_if_chksum
	.globl	udp_sendto_if_chksum
	.p2align	1
	.type	udp_sendto_if_chksum,%function
	.code	16                      @ @udp_sendto_if_chksum
	.thumb_func
udp_sendto_if_chksum:
.Lfunc_begin6:
	.loc	5 618 0                 @ ../Libraries/lwip-1.4.1/src/core/udp.c:618:0
	.fnstart
	.cfi_startproc
@ %bb.0:
	.save	{r4, r5, r6, r7, r8, r9, r10, r11, lr}
	push.w	{r4, r5, r6, r7, r8, r9, r10, r11, lr}
	.cfi_def_cfa_offset 36
	.cfi_offset lr, -4
	.cfi_offset r11, -8
	.cfi_offset r10, -12
	.cfi_offset r9, -16
	.cfi_offset r8, -20
	.cfi_offset r7, -24
	.cfi_offset r6, -28
	.cfi_offset r5, -32
	.cfi_offset r4, -36
	.pad	#12
	sub	sp, #12
	.cfi_def_cfa_offset 48
	@DEBUG_VALUE: udp_sendto_if_chksum:pcb <- $r0
	@DEBUG_VALUE: udp_sendto_if_chksum:p <- $r1
	@DEBUG_VALUE: udp_sendto_if_chksum:dst_ip <- $r2
	@DEBUG_VALUE: udp_sendto_if_chksum:dst_port <- $r3
	mov	r7, r0
	@DEBUG_VALUE: udp_sendto_if_chksum:netif <- [DW_OP_plus_uconst 48] [$sp+0]
.Ltmp92:
	@DEBUG_VALUE: udp_sendto_if_chksum:dst_port <- $r10
	@DEBUG_VALUE: udp_sendto_if_chksum:dst_ip <- $r9
	@DEBUG_VALUE: udp_sendto_if_chksum:p <- $r6
	@DEBUG_VALUE: udp_sendto_if_chksum:pcb <- $r7
	.loc	5 627 10 prologue_end   @ ../Libraries/lwip-1.4.1/src/core/udp.c:627:10
	ldrb	r0, [r0, #8]
	ldr.w	r8, [sp, #48]
	mov	r10, r3
.Ltmp93:
	.loc	5 0 10 is_stmt 0        @ ../Libraries/lwip-1.4.1/src/core/udp.c:0:10
	mov	r9, r2
.Ltmp94:
	mov	r6, r1
.Ltmp95:
	.loc	5 627 44                @ ../Libraries/lwip-1.4.1/src/core/udp.c:627:44
	lsls	r0, r0, #26
	bmi	.LBB6_2
.Ltmp96:
@ %bb.1:
	@DEBUG_VALUE: udp_sendto_if_chksum:pcb <- $r7
	@DEBUG_VALUE: udp_sendto_if_chksum:netif <- [DW_OP_plus_uconst 48] [$sp+0]
	.loc	5 627 47                @ ../Libraries/lwip-1.4.1/src/core/udp.c:627:47
	ldr.w	r0, [r9]
	mov	r1, r8
	bl	ip4_addr_isbroadcast
.Ltmp97:
	.loc	5 627 9                 @ ../Libraries/lwip-1.4.1/src/core/udp.c:627:9
	cbnz	r0, .LBB6_11
.Ltmp98:
.LBB6_2:
	@DEBUG_VALUE: udp_sendto_if_chksum:pcb <- $r7
	@DEBUG_VALUE: udp_sendto_if_chksum:netif <- [DW_OP_plus_uconst 48] [$sp+0]
	.loc	5 636 14 is_stmt 1      @ ../Libraries/lwip-1.4.1/src/core/udp.c:636:14
	ldrh	r0, [r7, #18]
.Ltmp99:
	.loc	5 636 9 is_stmt 0       @ ../Libraries/lwip-1.4.1/src/core/udp.c:636:9
	cbz	r0, .LBB6_12
.Ltmp100:
.LBB6_3:
	@DEBUG_VALUE: udp_sendto_if_chksum:pcb <- $r7
	@DEBUG_VALUE: udp_sendto_if_chksum:netif <- [DW_OP_plus_uconst 48] [$sp+0]
	.loc	5 648 9 is_stmt 1       @ ../Libraries/lwip-1.4.1/src/core/udp.c:648:9
	mov	r0, r6
	movs	r1, #8
	bl	pbuf_header
.Ltmp101:
	.loc	5 648 9 is_stmt 0       @ ../Libraries/lwip-1.4.1/src/core/udp.c:648:9
	cmp	r0, #0
.Ltmp102:
	.loc	5 0 0                   @ ../Libraries/lwip-1.4.1/src/core/udp.c:0:0
	mov	r4, r6
.Ltmp103:
	.loc	5 648 9                 @ ../Libraries/lwip-1.4.1/src/core/udp.c:648:9
	beq	.LBB6_7
.Ltmp104:
@ %bb.4:
	@DEBUG_VALUE: udp_sendto_if_chksum:pcb <- $r7
	@DEBUG_VALUE: udp_sendto_if_chksum:netif <- [DW_OP_plus_uconst 48] [$sp+0]
	.loc	5 651 13 is_stmt 1      @ ../Libraries/lwip-1.4.1/src/core/udp.c:651:13
	movs	r0, #1
	movs	r1, #8
	movs	r2, #0
	bl	pbuf_alloc
	.loc	5 653 13                @ ../Libraries/lwip-1.4.1/src/core/udp.c:653:13
	cmp	r0, #0
	beq	.LBB6_17
.Ltmp105:
@ %bb.5:
	@DEBUG_VALUE: udp_sendto_if_chksum:pcb <- $r7
	@DEBUG_VALUE: udp_sendto_if_chksum:netif <- [DW_OP_plus_uconst 48] [$sp+0]
	.loc	5 0 0 is_stmt 0         @ ../Libraries/lwip-1.4.1/src/core/udp.c:0:0
	mov	r4, r0
.Ltmp106:
	@DEBUG_VALUE: udp_sendto_if_chksum:q <- $r4
	.loc	5 658 16 is_stmt 1      @ ../Libraries/lwip-1.4.1/src/core/udp.c:658:16
	ldrh	r0, [r6, #8]
.Ltmp107:
	.loc	5 658 13 is_stmt 0      @ ../Libraries/lwip-1.4.1/src/core/udp.c:658:13
	cbz	r0, .LBB6_7
.Ltmp108:
@ %bb.6:
	@DEBUG_VALUE: udp_sendto_if_chksum:q <- $r4
	@DEBUG_VALUE: udp_sendto_if_chksum:pcb <- $r7
	@DEBUG_VALUE: udp_sendto_if_chksum:netif <- [DW_OP_plus_uconst 48] [$sp+0]
	.loc	5 661 13 is_stmt 1      @ ../Libraries/lwip-1.4.1/src/core/udp.c:661:13
	mov	r0, r4
	mov	r1, r6
	bl	pbuf_chain
.Ltmp109:
.LBB6_7:
	@DEBUG_VALUE: udp_sendto_if_chksum:pcb <- $r7
	@DEBUG_VALUE: udp_sendto_if_chksum:netif <- [DW_OP_plus_uconst 48] [$sp+0]
	@DEBUG_VALUE: udp_sendto_if_chksum:dst_port <- $r10
	@DEBUG_VALUE: udp_sendto_if_chksum:q <- $r4
	.loc	5 678 19                @ ../Libraries/lwip-1.4.1/src/core/udp.c:678:19
	ldrh	r0, [r7, #18]
	.loc	5 677 36                @ ../Libraries/lwip-1.4.1/src/core/udp.c:677:36
	ldr	r5, [r4, #4]
.Ltmp110:
	@DEBUG_VALUE: udp_sendto_if_chksum:udphdr <- $r5
	.loc	5 678 19                @ ../Libraries/lwip-1.4.1/src/core/udp.c:678:19
	bl	lwip_htons
	.loc	5 678 17 is_stmt 0      @ ../Libraries/lwip-1.4.1/src/core/udp.c:678:17
	strh	r0, [r5]
	.loc	5 679 20 is_stmt 1      @ ../Libraries/lwip-1.4.1/src/core/udp.c:679:20
	mov	r0, r10
	bl	lwip_htons
	movs	r1, #0
	.loc	5 681 20                @ ../Libraries/lwip-1.4.1/src/core/udp.c:681:20
	strh	r1, [r5, #6]
	.loc	5 679 18                @ ../Libraries/lwip-1.4.1/src/core/udp.c:679:18
	strh	r0, [r5, #2]
.Ltmp111:
	.loc	5 693 9                 @ ../Libraries/lwip-1.4.1/src/core/udp.c:693:9
	ldr	r0, [r7]
.Ltmp112:
	.loc	5 693 9 is_stmt 0       @ ../Libraries/lwip-1.4.1/src/core/udp.c:693:9
	cbz	r0, .LBB6_13
.Ltmp113:
@ %bb.8:
	@DEBUG_VALUE: udp_sendto_if_chksum:udphdr <- $r5
	@DEBUG_VALUE: udp_sendto_if_chksum:q <- $r4
	@DEBUG_VALUE: udp_sendto_if_chksum:pcb <- $r7
	@DEBUG_VALUE: udp_sendto_if_chksum:dst_port <- $r10
	@DEBUG_VALUE: udp_sendto_if_chksum:netif <- [DW_OP_plus_uconst 48] [$sp+0]
	.loc	5 702 14 is_stmt 1      @ ../Libraries/lwip-1.4.1/src/core/udp.c:702:14
	ldr.w	r1, [r8, #4]
.Ltmp114:
	.loc	5 0 0 is_stmt 0         @ ../Libraries/lwip-1.4.1/src/core/udp.c:0:0
	mov	r10, r7
.Ltmp115:
	.loc	5 702 13                @ ../Libraries/lwip-1.4.1/src/core/udp.c:702:13
	cmp	r0, r1
	beq	.LBB6_14
.Ltmp116:
@ %bb.9:
	@DEBUG_VALUE: udp_sendto_if_chksum:udphdr <- $r5
	@DEBUG_VALUE: udp_sendto_if_chksum:q <- $r4
	@DEBUG_VALUE: udp_sendto_if_chksum:pcb <- $r7
	@DEBUG_VALUE: udp_sendto_if_chksum:netif <- [DW_OP_plus_uconst 48] [$sp+0]
	.loc	5 705 17 is_stmt 1      @ ../Libraries/lwip-1.4.1/src/core/udp.c:705:17
	cmp	r4, r6
	beq	.LBB6_11
.Ltmp117:
@ %bb.10:
	@DEBUG_VALUE: udp_sendto_if_chksum:udphdr <- $r5
	@DEBUG_VALUE: udp_sendto_if_chksum:q <- $r4
	@DEBUG_VALUE: udp_sendto_if_chksum:pcb <- $r7
	@DEBUG_VALUE: udp_sendto_if_chksum:netif <- [DW_OP_plus_uconst 48] [$sp+0]
	.loc	5 708 17                @ ../Libraries/lwip-1.4.1/src/core/udp.c:708:17
	mov	r0, r4
	bl	pbuf_free
.Ltmp118:
.LBB6_11:
	@DEBUG_VALUE: udp_sendto_if_chksum:pcb <- $r7
	@DEBUG_VALUE: udp_sendto_if_chksum:netif <- [DW_OP_plus_uconst 48] [$sp+0]
	.loc	5 0 17 is_stmt 0        @ ../Libraries/lwip-1.4.1/src/core/udp.c:0:17
	movs	r5, #250
	b	.LBB6_22
.Ltmp119:
.LBB6_12:
	@DEBUG_VALUE: udp_sendto_if_chksum:pcb <- $r7
	@DEBUG_VALUE: udp_sendto_if_chksum:netif <- [DW_OP_plus_uconst 48] [$sp+0]
	.loc	5 639 15 is_stmt 1      @ ../Libraries/lwip-1.4.1/src/core/udp.c:639:15
	mov	r0, r7
	mov	r1, r7
	movs	r2, #0
	bl	udp_bind
	mov	r5, r0
.Ltmp120:
	@DEBUG_VALUE: udp_sendto_if_chksum:err <- $r5
	.loc	5 0 15 is_stmt 0        @ ../Libraries/lwip-1.4.1/src/core/udp.c:0:15
	cbnz	r0, .LBB6_22
	b	.LBB6_3
.Ltmp121:
.LBB6_13:
	@DEBUG_VALUE: udp_sendto_if_chksum:udphdr <- $r5
	@DEBUG_VALUE: udp_sendto_if_chksum:q <- $r4
	@DEBUG_VALUE: udp_sendto_if_chksum:pcb <- $r7
	@DEBUG_VALUE: udp_sendto_if_chksum:dst_port <- $r10
	@DEBUG_VALUE: udp_sendto_if_chksum:netif <- [DW_OP_plus_uconst 48] [$sp+0]
	.loc	5 696 27 is_stmt 1      @ ../Libraries/lwip-1.4.1/src/core/udp.c:696:27
	add.w	r10, r8, #4
.Ltmp122:
	@DEBUG_VALUE: udp_sendto_if_chksum:src_ip <- $r10
.LBB6_14:
	@DEBUG_VALUE: udp_sendto_if_chksum:udphdr <- $r5
	@DEBUG_VALUE: udp_sendto_if_chksum:q <- $r4
	@DEBUG_VALUE: udp_sendto_if_chksum:pcb <- $r7
	@DEBUG_VALUE: udp_sendto_if_chksum:netif <- [DW_OP_plus_uconst 48] [$sp+0]
	@DEBUG_VALUE: udp_sendto_if_chksum:src_ip <- $r10
	.loc	5 776 23                @ ../Libraries/lwip-1.4.1/src/core/udp.c:776:23
	ldrh	r0, [r4, #8]
	bl	lwip_htons
	.loc	5 776 21 is_stmt 0      @ ../Libraries/lwip-1.4.1/src/core/udp.c:776:21
	strh	r0, [r5, #4]
.Ltmp123:
	.loc	5 779 19 is_stmt 1      @ ../Libraries/lwip-1.4.1/src/core/udp.c:779:19
	ldrb	r0, [r7, #16]
.Ltmp124:
	.loc	5 779 13 is_stmt 0      @ ../Libraries/lwip-1.4.1/src/core/udp.c:779:13
	lsls	r0, r0, #31
	bne	.LBB6_20
.Ltmp125:
@ %bb.15:
	@DEBUG_VALUE: udp_sendto_if_chksum:src_ip <- $r10
	@DEBUG_VALUE: udp_sendto_if_chksum:udphdr <- $r5
	@DEBUG_VALUE: udp_sendto_if_chksum:q <- $r4
	@DEBUG_VALUE: udp_sendto_if_chksum:pcb <- $r7
	@DEBUG_VALUE: udp_sendto_if_chksum:netif <- [DW_OP_plus_uconst 48] [$sp+0]
	.loc	5 0 13                  @ ../Libraries/lwip-1.4.1/src/core/udp.c:0:13
	ldr	r1, [sp, #52]
	@DEBUG_VALUE: udp_sendto_if_chksum:have_chksum <- $r1
.Ltmp126:
	ldrh	r0, [r4, #8]
	cbz	r1, .LBB6_18
.Ltmp127:
@ %bb.16:
	@DEBUG_VALUE: udp_sendto_if_chksum:have_chksum <- $r1
	@DEBUG_VALUE: udp_sendto_if_chksum:src_ip <- $r10
	@DEBUG_VALUE: udp_sendto_if_chksum:udphdr <- $r5
	@DEBUG_VALUE: udp_sendto_if_chksum:q <- $r4
	@DEBUG_VALUE: udp_sendto_if_chksum:pcb <- $r7
	@DEBUG_VALUE: udp_sendto_if_chksum:netif <- [DW_OP_plus_uconst 48] [$sp+0]
	movs	r1, #8
.Ltmp128:
	ldr.w	r11, [sp, #56]
	@DEBUG_VALUE: udp_sendto_if_chksum:chksum <- $r11
.Ltmp129:
	.loc	5 786 29 is_stmt 1      @ ../Libraries/lwip-1.4.1/src/core/udp.c:786:29
	mov	r2, r9
	movs	r3, #17
	strd	r0, r1, [sp]
	mov	r0, r4
	mov	r1, r10
	bl	inet_chksum_pseudo_partial
	movw	r1, #65535
.Ltmp130:
	@DEBUG_VALUE: udpchksum <- undef
	.loc	5 788 35                @ ../Libraries/lwip-1.4.1/src/core/udp.c:788:35
	eor.w	r1, r1, r11
	.loc	5 788 33 is_stmt 0      @ ../Libraries/lwip-1.4.1/src/core/udp.c:788:33
	add	r0, r1
.Ltmp131:
	@DEBUG_VALUE: acc <- $r0
	.loc	5 789 29 is_stmt 1      @ ../Libraries/lwip-1.4.1/src/core/udp.c:789:29
	add.w	r0, r0, r0, lsr #16
.Ltmp132:
	@DEBUG_VALUE: udpchksum <- undef
	uxth	r0, r0
	b	.LBB6_19
.Ltmp133:
.LBB6_17:
	@DEBUG_VALUE: udp_sendto_if_chksum:pcb <- $r7
	@DEBUG_VALUE: udp_sendto_if_chksum:netif <- [DW_OP_plus_uconst 48] [$sp+0]
	.loc	5 0 29 is_stmt 0        @ ../Libraries/lwip-1.4.1/src/core/udp.c:0:29
	movs	r5, #255
	b	.LBB6_22
.Ltmp134:
.LBB6_18:
	@DEBUG_VALUE: udp_sendto_if_chksum:have_chksum <- $r1
	@DEBUG_VALUE: udp_sendto_if_chksum:src_ip <- $r10
	@DEBUG_VALUE: udp_sendto_if_chksum:udphdr <- $r5
	@DEBUG_VALUE: udp_sendto_if_chksum:q <- $r4
	@DEBUG_VALUE: udp_sendto_if_chksum:pcb <- $r7
	@DEBUG_VALUE: udp_sendto_if_chksum:netif <- [DW_OP_plus_uconst 48] [$sp+0]
	.loc	5 794 29 is_stmt 1      @ ../Libraries/lwip-1.4.1/src/core/udp.c:794:29
	str	r0, [sp]
	mov	r0, r4
	mov	r1, r10
.Ltmp135:
	mov	r2, r9
	movs	r3, #17
	bl	inet_chksum_pseudo
.Ltmp136:
	@DEBUG_VALUE: udpchksum <- undef
.LBB6_19:
	@DEBUG_VALUE: udp_sendto_if_chksum:src_ip <- $r10
	@DEBUG_VALUE: udp_sendto_if_chksum:udphdr <- $r5
	@DEBUG_VALUE: udp_sendto_if_chksum:q <- $r4
	@DEBUG_VALUE: udp_sendto_if_chksum:pcb <- $r7
	@DEBUG_VALUE: udp_sendto_if_chksum:netif <- [DW_OP_plus_uconst 48] [$sp+0]
	@DEBUG_VALUE: udpchksum <- $r0
	.loc	5 798 17                @ ../Libraries/lwip-1.4.1/src/core/udp.c:798:17
	cmp	r0, #0
	it	eq
	movweq	r0, #65535
.Ltmp137:
	@DEBUG_VALUE: udpchksum <- $r0
	.loc	5 802 28                @ ../Libraries/lwip-1.4.1/src/core/udp.c:802:28
	strh	r0, [r5, #6]
.Ltmp138:
.LBB6_20:
	@DEBUG_VALUE: udp_sendto_if_chksum:src_ip <- $r10
	@DEBUG_VALUE: udp_sendto_if_chksum:udphdr <- $r5
	@DEBUG_VALUE: udp_sendto_if_chksum:q <- $r4
	@DEBUG_VALUE: udp_sendto_if_chksum:pcb <- $r7
	@DEBUG_VALUE: udp_sendto_if_chksum:netif <- [DW_OP_plus_uconst 48] [$sp+0]
	.loc	5 809 62                @ ../Libraries/lwip-1.4.1/src/core/udp.c:809:62
	ldrb	r0, [r7, #9]
	.loc	5 809 52 is_stmt 0      @ ../Libraries/lwip-1.4.1/src/core/udp.c:809:52
	ldrb	r3, [r7, #10]
	movs	r1, #17
	.loc	5 809 15                @ ../Libraries/lwip-1.4.1/src/core/udp.c:809:15
	mov	r2, r9
	stm.w	sp, {r0, r1, r8}
	mov	r0, r4
	mov	r1, r10
	bl	ip_output_if
	mov	r5, r0
.Ltmp139:
	@DEBUG_VALUE: udp_sendto_if_chksum:err <- undef
	.loc	5 816 9 is_stmt 1       @ ../Libraries/lwip-1.4.1/src/core/udp.c:816:9
	cmp	r4, r6
	beq	.LBB6_22
.Ltmp140:
@ %bb.21:
	@DEBUG_VALUE: udp_sendto_if_chksum:src_ip <- $r10
	@DEBUG_VALUE: udp_sendto_if_chksum:q <- $r4
	@DEBUG_VALUE: udp_sendto_if_chksum:pcb <- $r7
	@DEBUG_VALUE: udp_sendto_if_chksum:netif <- [DW_OP_plus_uconst 48] [$sp+0]
	.loc	5 819 9                 @ ../Libraries/lwip-1.4.1/src/core/udp.c:819:9
	mov	r0, r4
	bl	pbuf_free
.Ltmp141:
	@DEBUG_VALUE: udp_sendto_if_chksum:q <- 0
.LBB6_22:
	@DEBUG_VALUE: udp_sendto_if_chksum:pcb <- $r7
	@DEBUG_VALUE: udp_sendto_if_chksum:netif <- [DW_OP_plus_uconst 48] [$sp+0]
	.loc	5 826 1                 @ ../Libraries/lwip-1.4.1/src/core/udp.c:826:1
	sxtb	r0, r5
	add	sp, #12
.Ltmp142:
	pop.w	{r4, r5, r6, r7, r8, r9, r10, r11, pc}
.Ltmp143:
.Lfunc_end6:
	.size	udp_sendto_if_chksum, .Lfunc_end6-udp_sendto_if_chksum
	.cfi_endproc
	.cantunwind
	.fnend
                                        @ -- End function
	.section	.text.udp_sendto_if,"ax",%progbits
	.hidden	udp_sendto_if           @ -- Begin function udp_sendto_if
	.globl	udp_sendto_if
	.p2align	1
	.type	udp_sendto_if,%function
	.code	16                      @ @udp_sendto_if
	.thumb_func
udp_sendto_if:
.Lfunc_begin7:
	.loc	5 608 0                 @ ../Libraries/lwip-1.4.1/src/core/udp.c:608:0
	.fnstart
	.cfi_startproc
@ %bb.0:
	.save	{r7, lr}
	push	{r7, lr}
	.cfi_def_cfa_offset 8
	.cfi_offset lr, -4
	.cfi_offset r7, -8
	.pad	#16
	sub	sp, #16
	.cfi_def_cfa_offset 24
	@DEBUG_VALUE: udp_sendto_if:pcb <- $r0
	@DEBUG_VALUE: udp_sendto_if:pcb <- $r0
	@DEBUG_VALUE: udp_sendto_if:p <- $r1
	@DEBUG_VALUE: udp_sendto_if:p <- $r1
	@DEBUG_VALUE: udp_sendto_if:dst_ip <- $r2
	@DEBUG_VALUE: udp_sendto_if:dst_ip <- $r2
	@DEBUG_VALUE: udp_sendto_if:dst_port <- $r3
	@DEBUG_VALUE: udp_sendto_if:dst_port <- $r3
	@DEBUG_VALUE: udp_sendto_if:netif <- [DW_OP_plus_uconst 24] [$sp+0]
	mov.w	r12, #0
.Ltmp144:
	.loc	5 610 12 prologue_end   @ ../Libraries/lwip-1.4.1/src/core/udp.c:610:12
	strd	r12, r12, [sp, #4]
	ldr.w	r12, [sp, #24]
	str.w	r12, [sp]
	@DEBUG_VALUE: udp_sendto_if:dst_port <- $r3
	@DEBUG_VALUE: udp_sendto_if:dst_ip <- $r2
	@DEBUG_VALUE: udp_sendto_if:p <- $r1
	@DEBUG_VALUE: udp_sendto_if:pcb <- $r0
	bl	udp_sendto_if_chksum
.Ltmp145:
	.loc	5 610 5 is_stmt 0       @ ../Libraries/lwip-1.4.1/src/core/udp.c:610:5
	add	sp, #16
.Ltmp146:
	pop	{r7, pc}
.Ltmp147:
.Lfunc_end7:
	.size	udp_sendto_if, .Lfunc_end7-udp_sendto_if
	.cfi_endproc
	.cantunwind
	.fnend
                                        @ -- End function
	.section	.text.udp_bind,"ax",%progbits
	.hidden	udp_bind                @ -- Begin function udp_bind
	.globl	udp_bind
	.p2align	1
	.type	udp_bind,%function
	.code	16                      @ @udp_bind
	.thumb_func
udp_bind:
.Lfunc_begin8:
	.loc	5 849 0 is_stmt 1       @ ../Libraries/lwip-1.4.1/src/core/udp.c:849:0
	.fnstart
	.cfi_startproc
@ %bb.0:
	.save	{r4, r5, r6, r7, r8, r9, lr}
	push.w	{r4, r5, r6, r7, r8, r9, lr}
	.cfi_def_cfa_offset 28
	.cfi_offset lr, -4
	.cfi_offset r9, -8
	.cfi_offset r8, -12
	.cfi_offset r7, -16
	.cfi_offset r6, -20
	.cfi_offset r5, -24
	.cfi_offset r4, -28
	@DEBUG_VALUE: udp_bind:pcb <- $r0
	@DEBUG_VALUE: udp_bind:pcb <- $r0
	@DEBUG_VALUE: udp_bind:ipaddr <- $r1
	@DEBUG_VALUE: udp_bind:ipaddr <- $r1
	@DEBUG_VALUE: udp_bind:port <- $r2
	@DEBUG_VALUE: udp_bind:port <- $r2
.Ltmp148:
	@DEBUG_VALUE: udp_bind:rebind <- 0
	.loc	5 0 0 prologue_end      @ ../Libraries/lwip-1.4.1/src/core/udp.c:0:0
	movw	r12, :lower16:udp_pcbs
	movs	r3, #0
	movt	r12, :upper16:udp_pcbs
.Ltmp149:
	@DEBUG_VALUE: udp_bind:ipcb <- [DW_OP_deref] $r12
	ldr.w	lr, [r12]
.Ltmp150:
	@DEBUG_VALUE: udp_bind:ipcb <- $lr
	@DEBUG_VALUE: udp_new_port:pcb <- $lr
	.loc	5 859 5                 @ ../Libraries/lwip-1.4.1/src/core/udp.c:859:5
	cmp.w	lr, #0
	beq	.LBB8_10
.Ltmp151:
@ %bb.1:
	@DEBUG_VALUE: udp_new_port:pcb <- $lr
	@DEBUG_VALUE: udp_bind:ipcb <- $lr
	@DEBUG_VALUE: udp_bind:port <- $r2
	@DEBUG_VALUE: udp_bind:ipaddr <- $r1
	@DEBUG_VALUE: udp_bind:pcb <- $r0
	.loc	5 0 5 is_stmt 0         @ ../Libraries/lwip-1.4.1/src/core/udp.c:0:5
	mov	r4, lr
.Ltmp152:
	.p2align	2
.LBB8_2:                                @ =>This Inner Loop Header: Depth=1
	@DEBUG_VALUE: udp_bind:ipcb <- $lr
	@DEBUG_VALUE: udp_bind:port <- $r2
	@DEBUG_VALUE: udp_bind:ipaddr <- $r1
	@DEBUG_VALUE: udp_bind:pcb <- $r0
	@DEBUG_VALUE: udp_bind:rebind <- $r3
	.loc	5 862 13 is_stmt 1      @ ../Libraries/lwip-1.4.1/src/core/udp.c:862:13
	cmp	r4, r0
	beq	.LBB8_8
.Ltmp153:
@ %bb.3:                                @   in Loop: Header=BB8_2 Depth=1
	@DEBUG_VALUE: udp_bind:rebind <- $r3
	@DEBUG_VALUE: udp_bind:ipcb <- $lr
	@DEBUG_VALUE: udp_bind:port <- $r2
	@DEBUG_VALUE: udp_bind:ipaddr <- $r1
	@DEBUG_VALUE: udp_bind:pcb <- $r0
	.loc	5 882 24                @ ../Libraries/lwip-1.4.1/src/core/udp.c:882:24
	ldrh	r5, [r4, #18]
	.loc	5 882 44 is_stmt 0      @ ../Libraries/lwip-1.4.1/src/core/udp.c:882:44
	cmp	r5, r2
	bne	.LBB8_9
.Ltmp154:
@ %bb.4:                                @   in Loop: Header=BB8_2 Depth=1
	@DEBUG_VALUE: udp_bind:rebind <- $r3
	@DEBUG_VALUE: udp_bind:ipcb <- $lr
	@DEBUG_VALUE: udp_bind:port <- $r2
	@DEBUG_VALUE: udp_bind:ipaddr <- $r1
	@DEBUG_VALUE: udp_bind:pcb <- $r0
	.loc	5 0 44                  @ ../Libraries/lwip-1.4.1/src/core/udp.c:0:44
	movs	r5, #248
	.loc	5 884 55 is_stmt 1      @ ../Libraries/lwip-1.4.1/src/core/udp.c:884:55
	cmp	r1, #0
	beq	.LBB8_21
.Ltmp155:
@ %bb.5:                                @   in Loop: Header=BB8_2 Depth=1
	@DEBUG_VALUE: udp_bind:rebind <- $r3
	@DEBUG_VALUE: udp_bind:ipcb <- $lr
	@DEBUG_VALUE: udp_bind:port <- $r2
	@DEBUG_VALUE: udp_bind:ipaddr <- $r1
	@DEBUG_VALUE: udp_bind:pcb <- $r0
	.loc	5 0 0 is_stmt 0         @ ../Libraries/lwip-1.4.1/src/core/udp.c:0:0
	ldr	r6, [r4]
	.loc	5 884 55                @ ../Libraries/lwip-1.4.1/src/core/udp.c:884:55
	cmp	r6, #0
	beq	.LBB8_21
.Ltmp156:
@ %bb.6:                                @   in Loop: Header=BB8_2 Depth=1
	@DEBUG_VALUE: udp_bind:rebind <- $r3
	@DEBUG_VALUE: udp_bind:ipcb <- $lr
	@DEBUG_VALUE: udp_bind:port <- $r2
	@DEBUG_VALUE: udp_bind:ipaddr <- $r1
	@DEBUG_VALUE: udp_bind:pcb <- $r0
	.loc	5 885 21 is_stmt 1      @ ../Libraries/lwip-1.4.1/src/core/udp.c:885:21
	ldr	r7, [r1]
	movs	r5, #248
	.loc	5 885 43 is_stmt 0      @ ../Libraries/lwip-1.4.1/src/core/udp.c:885:43
	cmp	r7, #0
	beq	.LBB8_21
.Ltmp157:
@ %bb.7:                                @   in Loop: Header=BB8_2 Depth=1
	@DEBUG_VALUE: udp_bind:rebind <- $r3
	@DEBUG_VALUE: udp_bind:ipcb <- $lr
	@DEBUG_VALUE: udp_bind:port <- $r2
	@DEBUG_VALUE: udp_bind:ipaddr <- $r1
	@DEBUG_VALUE: udp_bind:pcb <- $r0
	cmp	r6, r7
	bne	.LBB8_9
	b	.LBB8_21
.Ltmp158:
	.p2align	2
.LBB8_8:                                @   in Loop: Header=BB8_2 Depth=1
	@DEBUG_VALUE: udp_bind:rebind <- $r3
	@DEBUG_VALUE: udp_bind:ipcb <- $lr
	@DEBUG_VALUE: udp_bind:port <- $r2
	@DEBUG_VALUE: udp_bind:ipaddr <- $r1
	@DEBUG_VALUE: udp_bind:pcb <- $r0
	.loc	5 0 43                  @ ../Libraries/lwip-1.4.1/src/core/udp.c:0:43
	movs	r3, #1
.Ltmp159:
.LBB8_9:                                @   in Loop: Header=BB8_2 Depth=1
	@DEBUG_VALUE: udp_bind:ipcb <- $lr
	@DEBUG_VALUE: udp_bind:port <- $r2
	@DEBUG_VALUE: udp_bind:ipaddr <- $r1
	@DEBUG_VALUE: udp_bind:pcb <- $r0
	@DEBUG_VALUE: udp_bind:rebind <- $r3
	@DEBUG_VALUE: udp_bind:ipcb <- [DW_OP_plus_uconst 12, DW_OP_deref, DW_OP_stack_value] $r4
	ldr	r4, [r4, #12]
.Ltmp160:
	@DEBUG_VALUE: udp_bind:ipcb <- $r4
	.loc	5 859 5 is_stmt 1       @ ../Libraries/lwip-1.4.1/src/core/udp.c:859:5
	cmp	r4, #0
	bne	.LBB8_2
.Ltmp161:
.LBB8_10:
	@DEBUG_VALUE: udp_bind:port <- $r2
	@DEBUG_VALUE: udp_bind:ipaddr <- $r1
	@DEBUG_VALUE: udp_bind:pcb <- $r0
	@DEBUG_VALUE: udp_bind:rebind <- $r3
	.loc	5 896 5                 @ ../Libraries/lwip-1.4.1/src/core/udp.c:896:5
	cmp	r1, #0
	ite	ne
	ldrne	r1, [r1]
.Ltmp162:
	.loc	5 0 5 is_stmt 0         @ ../Libraries/lwip-1.4.1/src/core/udp.c:0:5
	moveq	r1, #0
	.loc	5 896 5                 @ ../Libraries/lwip-1.4.1/src/core/udp.c:896:5
	str	r1, [r0]
	.loc	5 899 9 is_stmt 1       @ ../Libraries/lwip-1.4.1/src/core/udp.c:899:9
	cbnz	r2, .LBB8_18
.Ltmp163:
@ %bb.11:
	@DEBUG_VALUE: udp_bind:rebind <- $r3
	@DEBUG_VALUE: udp_bind:port <- $r2
	@DEBUG_VALUE: udp_bind:pcb <- $r0
	@DEBUG_VALUE: udp_new_port:n <- 0
	.loc	5 0 0 is_stmt 0         @ ../Libraries/lwip-1.4.1/src/core/udp.c:0:0
	movw	r9, :lower16:udp_port
	movs	r4, #0
	movw	r5, #65535
	movw	r8, #16382
	movt	r9, :upper16:udp_port
	ldrh.w	r2, [r9]
.Ltmp164:
.LBB8_12:                               @ =>This Loop Header: Depth=1
                                        @     Child Loop BB8_13 Depth 2
	@DEBUG_VALUE: udp_bind:rebind <- $r3
	@DEBUG_VALUE: udp_bind:pcb <- $r0
	@DEBUG_LABEL: udp_new_port:again
	@DEBUG_VALUE: udp_new_port:n <- $r4
	.loc	5 104 17 is_stmt 1      @ ../Libraries/lwip-1.4.1/src/core/udp.c:104:17
	uxth	r7, r2
	adds	r2, #1
.Ltmp165:
	.loc	5 104 9 is_stmt 0       @ ../Libraries/lwip-1.4.1/src/core/udp.c:104:9
	cmp	r7, r5
	itt	eq
	movweq	r2, #49152
	movteq	r2, #65535
.Ltmp166:
	@DEBUG_VALUE: udp_bind:port <- $r2
	.loc	5 0 9                   @ ../Libraries/lwip-1.4.1/src/core/udp.c:0:9
	mov	r7, lr
.Ltmp167:
	.loc	5 109 5 is_stmt 1       @ ../Libraries/lwip-1.4.1/src/core/udp.c:109:5
	cmp.w	lr, #0
	beq	.LBB8_23
.Ltmp168:
	.p2align	2
.LBB8_13:                               @   Parent Loop BB8_12 Depth=1
                                        @ =>  This Inner Loop Header: Depth=2
	@DEBUG_VALUE: udp_new_port:n <- $r4
	@DEBUG_VALUE: udp_bind:rebind <- $r3
	@DEBUG_VALUE: udp_bind:port <- $r2
	@DEBUG_VALUE: udp_bind:pcb <- $r0
	.loc	5 111 18                @ ../Libraries/lwip-1.4.1/src/core/udp.c:111:18
	ldrh	r6, [r7, #18]
	.loc	5 111 29 is_stmt 0      @ ../Libraries/lwip-1.4.1/src/core/udp.c:111:29
	uxth	r1, r2
.Ltmp169:
	.loc	5 111 13                @ ../Libraries/lwip-1.4.1/src/core/udp.c:111:13
	cmp	r6, r1
	beq	.LBB8_15
.Ltmp170:
@ %bb.14:                               @   in Loop: Header=BB8_13 Depth=2
	@DEBUG_VALUE: udp_new_port:n <- $r4
	@DEBUG_VALUE: udp_bind:rebind <- $r3
	@DEBUG_VALUE: udp_bind:port <- $r2
	@DEBUG_VALUE: udp_bind:pcb <- $r0
	@DEBUG_VALUE: udp_new_port:pcb <- [DW_OP_plus_uconst 12, DW_OP_deref, DW_OP_stack_value] $r7
	.loc	5 0 0                   @ ../Libraries/lwip-1.4.1/src/core/udp.c:0:0
	ldr	r7, [r7, #12]
.Ltmp171:
	@DEBUG_VALUE: udp_new_port:pcb <- $r7
	.loc	5 109 5 is_stmt 1       @ ../Libraries/lwip-1.4.1/src/core/udp.c:109:5
	cmp	r7, #0
	bne	.LBB8_13
	b	.LBB8_17
.Ltmp172:
	.p2align	2
.LBB8_15:                               @   in Loop: Header=BB8_12 Depth=1
	@DEBUG_VALUE: udp_new_port:n <- $r4
	@DEBUG_VALUE: udp_bind:rebind <- $r3
	@DEBUG_VALUE: udp_bind:port <- $r2
	@DEBUG_VALUE: udp_bind:pcb <- $r0
	.loc	5 113 17                @ ../Libraries/lwip-1.4.1/src/core/udp.c:113:17
	adds	r1, r4, #1
.Ltmp173:
	@DEBUG_VALUE: udp_new_port:n <- $r1
	.loc	5 113 17 is_stmt 0      @ ../Libraries/lwip-1.4.1/src/core/udp.c:113:17
	cmp	r4, r8
.Ltmp174:
	.loc	5 0 0                   @ ../Libraries/lwip-1.4.1/src/core/udp.c:0:0
	mov	r4, r1
.Ltmp175:
	@DEBUG_VALUE: udp_new_port:n <- $r4
	@DEBUG_VALUE: udp_new_port:n <- $r4
	.loc	5 113 17                @ ../Libraries/lwip-1.4.1/src/core/udp.c:113:17
	bls	.LBB8_12
.Ltmp176:
@ %bb.16:
	@DEBUG_VALUE: udp_new_port:n <- $r4
	@DEBUG_VALUE: udp_bind:rebind <- $r3
	@DEBUG_VALUE: udp_bind:port <- $r2
	@DEBUG_VALUE: udp_bind:pcb <- $r0
	.loc	5 0 0                   @ ../Libraries/lwip-1.4.1/src/core/udp.c:0:0
	strh.w	r2, [r9]
	b	.LBB8_22
.Ltmp177:
.LBB8_17:
	@DEBUG_VALUE: udp_new_port:pcb <- [DW_OP_plus_uconst 12, DW_OP_deref, DW_OP_stack_value] $r7
	@DEBUG_VALUE: udp_new_port:n <- $r4
	@DEBUG_VALUE: udp_bind:rebind <- $r3
	@DEBUG_VALUE: udp_bind:port <- $r2
	@DEBUG_VALUE: udp_bind:pcb <- $r0
	.loc	5 902 13 is_stmt 1      @ ../Libraries/lwip-1.4.1/src/core/udp.c:902:13
	lsls	r1, r2, #16
.Ltmp178:
	.loc	5 0 0 is_stmt 0         @ ../Libraries/lwip-1.4.1/src/core/udp.c:0:0
	strh.w	r2, [r9]
.Ltmp179:
	.loc	5 902 13                @ ../Libraries/lwip-1.4.1/src/core/udp.c:902:13
	beq	.LBB8_22
.Ltmp180:
.LBB8_18:
	@DEBUG_VALUE: udp_bind:rebind <- $r3
	@DEBUG_VALUE: udp_bind:port <- $r2
	@DEBUG_VALUE: udp_bind:pcb <- $r0
	@DEBUG_VALUE: udp_bind:port <- $r2
	.loc	5 912 9 is_stmt 1       @ ../Libraries/lwip-1.4.1/src/core/udp.c:912:9
	cmp	r3, #0
	.loc	5 909 21                @ ../Libraries/lwip-1.4.1/src/core/udp.c:909:21
	strh	r2, [r0, #18]
	bne	.LBB8_20
.Ltmp181:
@ %bb.19:
	@DEBUG_VALUE: udp_bind:rebind <- $r3
	@DEBUG_VALUE: udp_bind:port <- $r2
	@DEBUG_VALUE: udp_bind:pcb <- $r0
	.loc	5 915 19                @ ../Libraries/lwip-1.4.1/src/core/udp.c:915:19
	str.w	lr, [r0, #12]
	.loc	5 916 18                @ ../Libraries/lwip-1.4.1/src/core/udp.c:916:18
	str.w	r0, [r12]
.Ltmp182:
.LBB8_20:
	@DEBUG_VALUE: udp_bind:rebind <- $r3
	@DEBUG_VALUE: udp_bind:port <- $r2
	@DEBUG_VALUE: udp_bind:pcb <- $r0
	.loc	5 0 18 is_stmt 0        @ ../Libraries/lwip-1.4.1/src/core/udp.c:0:18
	movs	r5, #0
.Ltmp183:
.LBB8_21:
	@DEBUG_VALUE: udp_bind:rebind <- $r3
	@DEBUG_VALUE: udp_bind:port <- $r2
	@DEBUG_VALUE: udp_bind:pcb <- $r0
	.loc	5 924 1 is_stmt 1       @ ../Libraries/lwip-1.4.1/src/core/udp.c:924:1
	sxtb	r0, r5
	pop.w	{r4, r5, r6, r7, r8, r9, pc}
.Ltmp184:
.LBB8_22:
	@DEBUG_VALUE: udp_new_port:n <- $r4
	@DEBUG_VALUE: udp_bind:rebind <- $r3
	@DEBUG_VALUE: udp_bind:port <- $r2
	@DEBUG_VALUE: udp_bind:pcb <- $r0
	.loc	5 0 1 is_stmt 0         @ ../Libraries/lwip-1.4.1/src/core/udp.c:0:1
	movs	r5, #248
	b	.LBB8_21
.Ltmp185:
.LBB8_23:
	@DEBUG_VALUE: udp_new_port:n <- $r4
	@DEBUG_VALUE: udp_bind:rebind <- $r3
	@DEBUG_VALUE: udp_bind:port <- $r2
	@DEBUG_VALUE: udp_bind:pcb <- $r0
	strh.w	r2, [r9]
	b	.LBB8_18
.Ltmp186:
.Lfunc_end8:
	.size	udp_bind, .Lfunc_end8-udp_bind
	.cfi_endproc
	.cantunwind
	.fnend
                                        @ -- End function
	.section	.text.udp_connect,"ax",%progbits
	.hidden	udp_connect             @ -- Begin function udp_connect
	.globl	udp_connect
	.p2align	1
	.type	udp_connect,%function
	.code	16                      @ @udp_connect
	.thumb_func
udp_connect:
.Lfunc_begin9:
	.loc	5 945 0 is_stmt 1       @ ../Libraries/lwip-1.4.1/src/core/udp.c:945:0
	.fnstart
	.cfi_startproc
@ %bb.0:
	.save	{r4, r5, r6, lr}
	push	{r4, r5, r6, lr}
	.cfi_def_cfa_offset 16
	.cfi_offset lr, -4
	.cfi_offset r6, -8
	.cfi_offset r5, -12
	.cfi_offset r4, -16
	@DEBUG_VALUE: udp_connect:pcb <- $r0
	@DEBUG_VALUE: udp_connect:ipaddr <- $r1
	@DEBUG_VALUE: udp_connect:port <- $r2
	mov	r4, r0
.Ltmp187:
	@DEBUG_VALUE: udp_connect:port <- $r5
	@DEBUG_VALUE: udp_connect:ipaddr <- $r6
	@DEBUG_VALUE: udp_connect:pcb <- $r4
	.loc	5 948 14 prologue_end   @ ../Libraries/lwip-1.4.1/src/core/udp.c:948:14
	ldrh	r0, [r0, #18]
	mov	r5, r2
.Ltmp188:
	.loc	5 0 14 is_stmt 0        @ ../Libraries/lwip-1.4.1/src/core/udp.c:0:14
	mov	r6, r1
.Ltmp189:
	.loc	5 948 9                 @ ../Libraries/lwip-1.4.1/src/core/udp.c:948:9
	cbnz	r0, .LBB9_3
.Ltmp190:
@ %bb.1:
	@DEBUG_VALUE: udp_connect:pcb <- $r4
	.loc	5 950 21 is_stmt 1      @ ../Libraries/lwip-1.4.1/src/core/udp.c:950:21
	mov	r0, r4
	mov	r1, r4
	movs	r2, #0
	bl	udp_bind
.Ltmp191:
	@DEBUG_VALUE: err <- $r0
	.loc	5 951 13                @ ../Libraries/lwip-1.4.1/src/core/udp.c:951:13
	cbz	r0, .LBB9_3
.Ltmp192:
@ %bb.2:
	@DEBUG_VALUE: udp_connect:pcb <- $r4
	.loc	5 1002 1                @ ../Libraries/lwip-1.4.1/src/core/udp.c:1002:1
	pop	{r4, r5, r6, pc}
.Ltmp193:
.LBB9_3:
	@DEBUG_VALUE: udp_connect:pcb <- $r4
	@DEBUG_VALUE: udp_connect:port <- $r5
	.loc	5 957 5                 @ ../Libraries/lwip-1.4.1/src/core/udp.c:957:5
	cmp	r6, #0
	ite	ne
	ldrne	r0, [r6]
	moveq	r0, #0
	.loc	5 958 22                @ ../Libraries/lwip-1.4.1/src/core/udp.c:958:22
	strh	r5, [r4, #20]
	.loc	5 957 5                 @ ../Libraries/lwip-1.4.1/src/core/udp.c:957:5
	str	r0, [r4, #4]
	.loc	5 959 16                @ ../Libraries/lwip-1.4.1/src/core/udp.c:959:16
	ldrb	r0, [r4, #16]
	orr	r0, r0, #4
	strb	r0, [r4, #16]
.Ltmp194:
	.loc	5 0 0 is_stmt 0         @ ../Libraries/lwip-1.4.1/src/core/udp.c:0:0
	movw	r0, :lower16:udp_pcbs
	movt	r0, :upper16:udp_pcbs
.Ltmp195:
	@DEBUG_VALUE: udp_connect:ipcb <- [DW_OP_deref] $r0
	ldr	r1, [r0]
.Ltmp196:
	@DEBUG_VALUE: udp_connect:ipcb <- $r1
	.loc	5 990 5 is_stmt 1       @ ../Libraries/lwip-1.4.1/src/core/udp.c:990:5
	cbz	r1, .LBB9_7
.Ltmp197:
@ %bb.4:
	@DEBUG_VALUE: udp_connect:ipcb <- $r1
	@DEBUG_VALUE: udp_connect:pcb <- $r4
	@DEBUG_VALUE: udp_connect:port <- $r5
	.loc	5 0 5 is_stmt 0         @ ../Libraries/lwip-1.4.1/src/core/udp.c:0:5
	mov	r2, r1
.Ltmp198:
	.p2align	2
.LBB9_5:                                @ =>This Inner Loop Header: Depth=1
	@DEBUG_VALUE: udp_connect:ipcb <- $r1
	@DEBUG_VALUE: udp_connect:pcb <- $r4
	@DEBUG_VALUE: udp_connect:port <- $r5
	.loc	5 992 13 is_stmt 1      @ ../Libraries/lwip-1.4.1/src/core/udp.c:992:13
	cmp	r2, r4
	beq	.LBB9_8
.Ltmp199:
@ %bb.6:                                @   in Loop: Header=BB9_5 Depth=1
	@DEBUG_VALUE: udp_connect:ipcb <- $r1
	@DEBUG_VALUE: udp_connect:pcb <- $r4
	@DEBUG_VALUE: udp_connect:port <- $r5
	@DEBUG_VALUE: udp_connect:ipcb <- [DW_OP_plus_uconst 12, DW_OP_deref, DW_OP_stack_value] $r2
	.loc	5 0 0 is_stmt 0         @ ../Libraries/lwip-1.4.1/src/core/udp.c:0:0
	ldr	r2, [r2, #12]
.Ltmp200:
	@DEBUG_VALUE: udp_connect:ipcb <- $r2
	.loc	5 990 5 is_stmt 1       @ ../Libraries/lwip-1.4.1/src/core/udp.c:990:5
	cmp	r2, #0
	bne	.LBB9_5
.Ltmp201:
.LBB9_7:
	@DEBUG_VALUE: udp_connect:pcb <- $r4
	@DEBUG_VALUE: udp_connect:port <- $r5
	.loc	5 999 15                @ ../Libraries/lwip-1.4.1/src/core/udp.c:999:15
	str	r1, [r4, #12]
	.loc	5 1000 14               @ ../Libraries/lwip-1.4.1/src/core/udp.c:1000:14
	str	r4, [r0]
.Ltmp202:
.LBB9_8:
	@DEBUG_VALUE: udp_connect:pcb <- $r4
	@DEBUG_VALUE: udp_connect:port <- $r5
	.loc	5 0 14 is_stmt 0        @ ../Libraries/lwip-1.4.1/src/core/udp.c:0:14
	movs	r0, #0
	.loc	5 1002 1 is_stmt 1      @ ../Libraries/lwip-1.4.1/src/core/udp.c:1002:1
	pop	{r4, r5, r6, pc}
.Ltmp203:
.Lfunc_end9:
	.size	udp_connect, .Lfunc_end9-udp_connect
	.cfi_endproc
	.cantunwind
	.fnend
                                        @ -- End function
	.section	.text.udp_disconnect,"ax",%progbits
	.hidden	udp_disconnect          @ -- Begin function udp_disconnect
	.globl	udp_disconnect
	.p2align	1
	.type	udp_disconnect,%function
	.code	16                      @ @udp_disconnect
	.thumb_func
udp_disconnect:
.Lfunc_begin10:
	.loc	5 1011 0                @ ../Libraries/lwip-1.4.1/src/core/udp.c:1011:0
	.fnstart
	.cfi_startproc
@ %bb.0:
	@DEBUG_VALUE: udp_disconnect:pcb <- $r0
	movs	r1, #0
	@DEBUG_VALUE: udp_disconnect:pcb <- $r0
.Ltmp204:
	.loc	5 1014 22 prologue_end  @ ../Libraries/lwip-1.4.1/src/core/udp.c:1014:22
	strh	r1, [r0, #20]
	.loc	5 1013 5                @ ../Libraries/lwip-1.4.1/src/core/udp.c:1013:5
	str	r1, [r0, #4]
	.loc	5 1016 16               @ ../Libraries/lwip-1.4.1/src/core/udp.c:1016:16
	ldrb	r1, [r0, #16]
	and	r1, r1, #251
	strb	r1, [r0, #16]
	.loc	5 1017 1                @ ../Libraries/lwip-1.4.1/src/core/udp.c:1017:1
	bx	lr
.Ltmp205:
.Lfunc_end10:
	.size	udp_disconnect, .Lfunc_end10-udp_disconnect
	.cfi_endproc
	.cantunwind
	.fnend
                                        @ -- End function
	.section	.text.udp_recv,"ax",%progbits
	.hidden	udp_recv                @ -- Begin function udp_recv
	.globl	udp_recv
	.p2align	1
	.type	udp_recv,%function
	.code	16                      @ @udp_recv
	.thumb_func
udp_recv:
.Lfunc_begin11:
	.loc	5 1030 0                @ ../Libraries/lwip-1.4.1/src/core/udp.c:1030:0
	.fnstart
	.cfi_startproc
@ %bb.0:
	@DEBUG_VALUE: udp_recv:pcb <- $r0
	@DEBUG_VALUE: udp_recv:pcb <- $r0
	@DEBUG_VALUE: udp_recv:recv <- $r1
	@DEBUG_VALUE: udp_recv:recv <- $r1
	@DEBUG_VALUE: udp_recv:recv_arg <- $r2
	@DEBUG_VALUE: udp_recv:recv_arg <- $r2
	.loc	5 1032 15 prologue_end  @ ../Libraries/lwip-1.4.1/src/core/udp.c:1032:15
	strd	r1, r2, [r0, #24]
	.loc	5 1034 1                @ ../Libraries/lwip-1.4.1/src/core/udp.c:1034:1
	bx	lr
.Ltmp206:
.Lfunc_end11:
	.size	udp_recv, .Lfunc_end11-udp_recv
	.cfi_endproc
	.cantunwind
	.fnend
                                        @ -- End function
	.section	.text.udp_remove,"ax",%progbits
	.hidden	udp_remove              @ -- Begin function udp_remove
	.globl	udp_remove
	.p2align	1
	.type	udp_remove,%function
	.code	16                      @ @udp_remove
	.thumb_func
udp_remove:
.Lfunc_begin12:
	.loc	5 1046 0                @ ../Libraries/lwip-1.4.1/src/core/udp.c:1046:0
	.fnstart
	.cfi_startproc
@ %bb.0:
	@DEBUG_VALUE: udp_remove:pcb <- $r0
	.loc	5 1051 9 prologue_end   @ ../Libraries/lwip-1.4.1/src/core/udp.c:1051:9
	movw	r2, :lower16:udp_pcbs
	mov	r1, r0
.Ltmp207:
	@DEBUG_VALUE: udp_remove:pcb <- $r1
	movt	r2, :upper16:udp_pcbs
	ldr	r0, [r2]
.Ltmp208:
	@DEBUG_VALUE: udp_remove:pcb2 <- $r0
	.loc	5 1051 9 is_stmt 0      @ ../Libraries/lwip-1.4.1/src/core/udp.c:1051:9
	cmp	r0, r1
	bne	.LBB12_4
.Ltmp209:
@ %bb.1:
	@DEBUG_VALUE: udp_remove:pcb2 <- $r0
	@DEBUG_VALUE: udp_remove:pcb <- $r1
	.loc	5 1054 30 is_stmt 1     @ ../Libraries/lwip-1.4.1/src/core/udp.c:1054:30
	ldr	r0, [r1, #12]
.Ltmp210:
	.loc	5 1054 18 is_stmt 0     @ ../Libraries/lwip-1.4.1/src/core/udp.c:1054:18
	str	r0, [r2]
	b	.LBB12_5
.Ltmp211:
	.p2align	2
.LBB12_2:                               @   in Loop: Header=BB12_4 Depth=1
	@DEBUG_VALUE: udp_remove:pcb2 <- $r0
	@DEBUG_VALUE: udp_remove:pcb <- $r1
	.loc	5 0 18                  @ ../Libraries/lwip-1.4.1/src/core/udp.c:0:18
	mov	r2, r0
.Ltmp212:
	@DEBUG_VALUE: udp_remove:pcb2 <- $r2
	.loc	5 1062 23 is_stmt 1     @ ../Libraries/lwip-1.4.1/src/core/udp.c:1062:23
	ldr	r0, [r0, #12]
	.loc	5 1062 36 is_stmt 0     @ ../Libraries/lwip-1.4.1/src/core/udp.c:1062:36
	cbz	r0, .LBB12_4
.Ltmp213:
@ %bb.3:                                @   in Loop: Header=BB12_4 Depth=1
	@DEBUG_VALUE: udp_remove:pcb2 <- $r2
	@DEBUG_VALUE: udp_remove:pcb <- $r1
	cmp	r0, r1
.Ltmp214:
	.loc	5 1065 35 is_stmt 1     @ ../Libraries/lwip-1.4.1/src/core/udp.c:1065:35
	itt	eq
	ldreq	r0, [r1, #12]
	.loc	5 1065 28 is_stmt 0     @ ../Libraries/lwip-1.4.1/src/core/udp.c:1065:28
	streq	r0, [r2, #12]
.Ltmp215:
.LBB12_4:                               @ =>This Inner Loop Header: Depth=1
	@DEBUG_VALUE: udp_remove:pcb2 <- $r0
	@DEBUG_VALUE: udp_remove:pcb <- $r1
	.loc	5 1059 9 is_stmt 1      @ ../Libraries/lwip-1.4.1/src/core/udp.c:1059:9
	cmp	r0, #0
	bne	.LBB12_2
.Ltmp216:
.LBB12_5:
	@DEBUG_VALUE: udp_remove:pcb <- $r1
	.loc	5 1069 5                @ ../Libraries/lwip-1.4.1/src/core/udp.c:1069:5
	movs	r0, #1
	b	memp_free
.Ltmp217:
.Lfunc_end12:
	.size	udp_remove, .Lfunc_end12-udp_remove
	.cfi_endproc
	.cantunwind
	.fnend
                                        @ -- End function
	.section	.text.udp_new,"ax",%progbits
	.hidden	udp_new                 @ -- Begin function udp_new
	.globl	udp_new
	.p2align	1
	.type	udp_new,%function
	.code	16                      @ @udp_new
	.thumb_func
udp_new:
.Lfunc_begin13:
	.loc	5 1082 0                @ ../Libraries/lwip-1.4.1/src/core/udp.c:1082:0
	.fnstart
	.cfi_startproc
@ %bb.0:
	.save	{r4, lr}
	push	{r4, lr}
	.cfi_def_cfa_offset 8
	.cfi_offset lr, -4
	.cfi_offset r4, -8
.Ltmp218:
	.loc	5 1084 30 prologue_end  @ ../Libraries/lwip-1.4.1/src/core/udp.c:1084:30
	movs	r0, #1
	bl	memp_malloc
	mov	r4, r0
.Ltmp219:
	@DEBUG_VALUE: udp_new:pcb <- $r4
	.loc	5 1086 9                @ ../Libraries/lwip-1.4.1/src/core/udp.c:1086:9
	cbz	r0, .LBB13_2
.Ltmp220:
@ %bb.1:
	@DEBUG_VALUE: udp_new:pcb <- $r4
	.loc	5 1092 9                @ ../Libraries/lwip-1.4.1/src/core/udp.c:1092:9
	mov	r0, r4
	movs	r1, #32
	bl	__aeabi_memclr4
	movs	r0, #255
	.loc	5 1093 18               @ ../Libraries/lwip-1.4.1/src/core/udp.c:1093:18
	strb	r0, [r4, #10]
.Ltmp221:
.LBB13_2:
	@DEBUG_VALUE: udp_new:pcb <- $r4
	.loc	5 1095 5                @ ../Libraries/lwip-1.4.1/src/core/udp.c:1095:5
	mov	r0, r4
	pop	{r4, pc}
.Ltmp222:
.Lfunc_end13:
	.size	udp_new, .Lfunc_end13-udp_new
	.cfi_endproc
	.cantunwind
	.fnend
                                        @ -- End function
	.hidden	udp_pcbs                @ @udp_pcbs
	.type	udp_pcbs,%object
	.section	.bss.udp_pcbs,"aw",%nobits
	.globl	udp_pcbs
	.p2align	2
udp_pcbs:
	.long	0
	.size	udp_pcbs, 4

	.type	udp_port,%object        @ @udp_port
	.section	.data.udp_port,"aw",%progbits
	.p2align	1
udp_port:
	.short	49152                   @ 0xc000
	.size	udp_port, 2

	.file	10 "F:\\SkyDrive\\OtvoreniProjekti\\HotelSaplast\\fw\\KontrolerHotela\\HC070318\\Project" "../Libraries/lwip-1.4.1/src/include\\lwip/netif.h"
	.section	".note.GNU-stack","",%progbits
	.eabi_attribute	30, 3	@ Tag_ABI_optimization_goals
	.ARM_attribute	16, 1	@ Tag_AV_eba