	.text
	.syntax unified
	.eabi_attribute	67, "2.09"	@ Tag_conformance
	.cpu	cortex-m3
	.eabi_attribute	6, 10	@ Tag_CPU_arch
	.eabi_attribute	7, 77	@ Tag_CPU_arch_profile
	.eabi_attribute	8, 0	@ Tag_ARM_ISA_use
	.eabi_attribute	9, 2	@ Tag_THUMB_ISA_use
	.eabi_attribute	34, 1	@ Tag_CPU_unaligned_access
	.eabi_attribute	17, 1	@ Tag_ABI_PCS_GOT_use
	.eabi_attribute	20, 2	@ Tag_ABI_FP_denormal
	.eabi_attribute	21, 0	@ Tag_ABI_FP_exceptions
	.eabi_attribute	23, 1	@ Tag_ABI_FP_number_model
	.eabi_attribute	24, 1	@ Tag_ABI_align_needed
	.eabi_attribute	25, 1	@ Tag_ABI_align_preserved
	.eabi_attribute	38, 1	@ Tag_ABI_FP_16bit_format
	.eabi_attribute	18, 4	@ Tag_ABI_PCS_wchar_t
	.eabi_attribute	26, 2	@ Tag_ABI_enum_size
	.eabi_attribute	14, 0	@ Tag_ABI_PCS_R9_use
	.file	"common.c"
	.section	.text.Bcd2Dec,"ax",%progbits
	.hidden	Bcd2Dec                 @ -- Begin function Bcd2Dec
	.globl	Bcd2Dec
	.p2align	2
	.type	Bcd2Dec,%function
	.code	16                      @ @Bcd2Dec
	.thumb_func
Bcd2Dec:
.Lfunc_begin0:
	.file	1 "../Src" "common.c"
	.loc	1 36 0                  @ ../Src/common.c:36:0
	.fnstart
	.cfi_sections .debug_frame
	.cfi_startproc
@ %bb.0:
	@DEBUG_VALUE: Bcd2Dec:bcd <- $r0
	@DEBUG_VALUE: Bcd2Dec:bcd <- $r0
	.loc	1 37 36 prologue_end    @ ../Src/common.c:37:36
	and	r1, r0, #15
	.loc	1 37 15 is_stmt 0       @ ../Src/common.c:37:15
	lsrs	r0, r0, #4
.Ltmp0:
	.loc	1 37 22                 @ ../Src/common.c:37:22
	add.w	r0, r0, r0, lsl #2
	.loc	1 37 29                 @ ../Src/common.c:37:29
	add.w	r0, r1, r0, lsl #1
	.loc	1 37 2                  @ ../Src/common.c:37:2
	uxtb	r0, r0
	bx	lr
.Ltmp1:
.Lfunc_end0:
	.size	Bcd2Dec, .Lfunc_end0-Bcd2Dec
	.cfi_endproc
	.cantunwind
	.fnend
                                        @ -- End function
	.section	.text.Dec2Bcd,"ax",%progbits
	.hidden	Dec2Bcd                 @ -- Begin function Dec2Bcd
	.globl	Dec2Bcd
	.p2align	2
	.type	Dec2Bcd,%function
	.code	16                      @ @Dec2Bcd
	.thumb_func
Dec2Bcd:
.Lfunc_begin1:
	.loc	1 42 0 is_stmt 1        @ ../Src/common.c:42:0
	.fnstart
	.cfi_startproc
@ %bb.0:
	@DEBUG_VALUE: Dec2Bcd:dec <- $r0
	@DEBUG_VALUE: Dec2Bcd:dec <- $r0
	@DEBUG_VALUE: Dec2Bcd:r <- 0
	.loc	1 45 2 prologue_end     @ ../Src/common.c:45:2
	cmp	r0, #10
	blo	.LBB1_2
.Ltmp2:
@ %bb.1:
	@DEBUG_VALUE: Dec2Bcd:dec <- $r0
	subs	r0, #10
.Ltmp3:
	uxtb	r1, r0
	movw	r2, #52429
	movt	r2, #52428
	umull	r1, r2, r1, r2
	lsrs	r2, r2, #3
	.loc	1 53 9                  @ ../Src/common.c:53:9
	movs	r1, #16
	add.w	r1, r1, r2, lsl #4
	.loc	1 45 2                  @ ../Src/common.c:45:2
	add.w	r2, r2, r2, lsl #2
	sub.w	r0, r0, r2, lsl #1
	b	.LBB1_3
.LBB1_2:
.Ltmp4:
	@DEBUG_VALUE: Dec2Bcd:dec <- $r0
	.loc	1 0 2 is_stmt 0         @ ../Src/common.c:0:2
	movs	r1, #0
.Ltmp5:
.LBB1_3:
	.loc	1 53 9 is_stmt 1        @ ../Src/common.c:53:9
	add	r0, r1
	.loc	1 53 2 is_stmt 0        @ ../Src/common.c:53:2
	uxtb	r0, r0
	bx	lr
.Ltmp6:
.Lfunc_end1:
	.size	Dec2Bcd, .Lfunc_end1-Dec2Bcd
	.cfi_endproc
	.cantunwind
	.fnend
                                        @ -- End function
	.section	.text.CalcCRC,"ax",%progbits
	.hidden	CalcCRC                 @ -- Begin function CalcCRC
	.globl	CalcCRC
	.p2align	2
	.type	CalcCRC,%function
	.code	16                      @ @CalcCRC
	.thumb_func
CalcCRC:
.Lfunc_begin2:
	.loc	1 58 0 is_stmt 1        @ ../Src/common.c:58:0
	.fnstart
	.cfi_startproc
@ %bb.0:
	@DEBUG_VALUE: CalcCRC:buff <- $r0
	@DEBUG_VALUE: CalcCRC:buff <- $r0
	@DEBUG_VALUE: CalcCRC:size <- $r1
	@DEBUG_VALUE: CalcCRC:size <- $r1
	@DEBUG_VALUE: CalcCRC:h <- $r1
	@DEBUG_VALUE: CalcCRC:h <- $r1
	@DEBUG_VALUE: CalcCRC:g <- 0
	.loc	1 62 5 prologue_end     @ ../Src/common.c:62:5
	rsbs	r2, r1, #0
	movs	r1, #0
.Ltmp7:
	.p2align	2
.LBB2_1:                                @ =>This Inner Loop Header: Depth=1
	@DEBUG_VALUE: CalcCRC:buff <- $r0
	@DEBUG_VALUE: CalcCRC:buff <- $r0
	@DEBUG_VALUE: CalcCRC:g <- $r1
	.loc	1 64 14                 @ ../Src/common.c:64:14
	ldrb	r3, [r0], #1
.Ltmp8:
	.loc	1 64 11 is_stmt 0       @ ../Src/common.c:64:11
	add	r1, r3
.Ltmp9:
	@DEBUG_VALUE: CalcCRC:g <- $r1
	@DEBUG_VALUE: CalcCRC:buff <- $r0
	.loc	1 68 14 is_stmt 1       @ ../Src/common.c:68:14
	adds	r2, #1
.Ltmp10:
	.loc	1 68 5 is_stmt 0        @ ../Src/common.c:68:5
	bne	.LBB2_1
.Ltmp11:
@ %bb.2:
	@DEBUG_VALUE: CalcCRC:g <- $r1
	@DEBUG_VALUE: CalcCRC:buff <- $r0
	.loc	1 70 8 is_stmt 1        @ ../Src/common.c:70:8
	rsbs	r0, r1, #0
.Ltmp12:
	.loc	1 70 2 is_stmt 0        @ ../Src/common.c:70:2
	uxtb	r0, r0
	bx	lr
.Ltmp13:
.Lfunc_end2:
	.size	CalcCRC, .Lfunc_end2-CalcCRC
	.cfi_endproc
	.cantunwind
	.fnend
                                        @ -- End function
	.section	.text.Int2Str,"ax",%progbits
	.hidden	Int2Str                 @ -- Begin function Int2Str
	.globl	Int2Str
	.p2align	2
	.type	Int2Str,%function
	.code	16                      @ @Int2Str
	.thumb_func
Int2Str:
.Lfunc_begin3:
	.loc	1 74 0 is_stmt 1        @ ../Src/common.c:74:0
	.fnstart
	.cfi_startproc
@ %bb.0:
	.save	{r4, r5, r6, lr}
	push	{r4, r5, r6, lr}
	.cfi_def_cfa_offset 16
	.cfi_offset lr, -4
	.cfi_offset r6, -8
	.cfi_offset r5, -12
	.cfi_offset r4, -16
	@DEBUG_VALUE: Int2Str:p_str <- $r0
	@DEBUG_VALUE: Int2Str:p_str <- $r0
	@DEBUG_VALUE: Int2Str:intnum <- $r1
	movw	r12, #51712
	movt	r12, #15258
	movs	r3, #0
	movs	r2, #10
.Ltmp14:
	@DEBUG_VALUE: Int2Str:i <- 0
	@DEBUG_VALUE: Int2Str:status <- 0
	@DEBUG_VALUE: Int2Str:pos <- 0
	@DEBUG_VALUE: Int2Str:divider <- 1000000000
	movw	lr, #52429
	movt	lr, #52428
	movs	r4, #0
.Ltmp15:
	.p2align	2
.LBB3_1:                                @ =>This Inner Loop Header: Depth=1
	@DEBUG_VALUE: Int2Str:intnum <- $r1
	@DEBUG_VALUE: Int2Str:p_str <- $r0
	@DEBUG_VALUE: Int2Str:intnum <- $r1
	.loc	1 79 26 prologue_end    @ ../Src/common.c:79:26
	udiv	r5, r1, r12
	.loc	1 79 18 is_stmt 0       @ ../Src/common.c:79:18
	add.w	r6, r5, #48
	.loc	1 79 16                 @ ../Src/common.c:79:16
	strb	r6, [r0, r4]
	mls	r1, r5, r12, r1
.Ltmp16:
	@DEBUG_VALUE: Int2Str:status <- $r3
	@DEBUG_VALUE: Int2Str:pos <- $r4
	@DEBUG_VALUE: Int2Str:divider <- $r12
	@DEBUG_VALUE: Int2Str:intnum <- $r1
	.loc	1 79 18                 @ ../Src/common.c:79:18
	uxtb	r5, r5
	.loc	1 79 12                 @ ../Src/common.c:79:12
	adds	r6, r4, #1
.Ltmp17:
	@DEBUG_VALUE: Int2Str:pos <- $r6
	.loc	1 84 7 is_stmt 1        @ ../Src/common.c:84:7
	cmp	r5, #0
	mov	r4, r5
	it	ne
	movne	r4, r6
	cmp	r3, #0
	it	ne
	movne	r4, r6
.Ltmp18:
	@DEBUG_VALUE: Int2Str:pos <- $r4
	.loc	1 84 39 is_stmt 0       @ ../Src/common.c:84:39
	orrs	r5, r3
.Ltmp19:
	.loc	1 84 7                  @ ../Src/common.c:84:7
	it	ne
	movne	r5, #1
	add	r3, r5
.Ltmp20:
	@DEBUG_VALUE: Int2Str:status <- $r3
	.loc	1 82 11 is_stmt 1       @ ../Src/common.c:82:11
	umull	r6, r5, r12, lr
	lsr.w	r12, r5, #3
.Ltmp21:
	@DEBUG_VALUE: Int2Str:divider <- $r12
	.loc	1 77 17                 @ ../Src/common.c:77:17
	subs	r2, #1
.Ltmp22:
	.loc	1 77 2 is_stmt 0        @ ../Src/common.c:77:2
	bne	.LBB3_1
.Ltmp23:
@ %bb.2:
	@DEBUG_VALUE: Int2Str:divider <- $r12
	@DEBUG_VALUE: Int2Str:pos <- $r4
	@DEBUG_VALUE: Int2Str:status <- $r3
	@DEBUG_VALUE: Int2Str:intnum <- $r1
	@DEBUG_VALUE: Int2Str:p_str <- $r0
	.loc	1 93 1 is_stmt 1        @ ../Src/common.c:93:1
	pop	{r4, r5, r6, pc}
.Ltmp24:
.Lfunc_end3:
	.size	Int2Str, .Lfunc_end3-Int2Str
	.cfi_endproc
	.cantunwind
	.fnend
                                        @ -- End function
	.section	.text.Int2StrSized,"ax",%progbits
	.hidden	Int2StrSized            @ -- Begin function Int2StrSized
	.globl	Int2StrSized
	.p2align	2
	.type	Int2StrSized,%function
	.code	16                      @ @Int2StrSized
	.thumb_func
Int2StrSized:
.Lfunc_begin4:
	.loc	1 97 0                  @ ../Src/common.c:97:0
	.fnstart
	.cfi_startproc
@ %bb.0:
	.save	{r4, r5, r6, r7, r8, lr}
	push.w	{r4, r5, r6, r7, r8, lr}
	.cfi_def_cfa_offset 24
	.cfi_offset lr, -4
	.cfi_offset r8, -8
	.cfi_offset r7, -12
	.cfi_offset r6, -16
	.cfi_offset r5, -20
	.cfi_offset r4, -24
	.pad	#16
	sub	sp, #16
	.cfi_def_cfa_offset 40
	@DEBUG_VALUE: Int2StrSized:p_str <- $r0
	@DEBUG_VALUE: Int2StrSized:intnum <- $r1
	@DEBUG_VALUE: Int2StrSized:size <- $r2
	mov	r4, r2
	mov	r7, r1
	mov	r8, r0
.Ltmp25:
	@DEBUG_VALUE: Int2StrSized:pos <- 0
	@DEBUG_VALUE: Int2StrSized:divider <- 1000000000
	@DEBUG_VALUE: Int2StrSized:size <- $r4
	@DEBUG_VALUE: Int2StrSized:intnum <- $r7
	@DEBUG_VALUE: Int2StrSized:p_str <- $r8
	mov	r6, sp
.Ltmp26:
	.loc	1 101 2 prologue_end    @ ../Src/common.c:101:2
	mov	r0, r6
	movs	r1, #16
	bl	ClearBuffer
	movw	r0, #51712
	movt	r0, #15258
	movs	r1, #0
.Ltmp27:
	@DEBUG_VALUE: Int2StrSized:i <- 0
	.loc	1 0 2 is_stmt 0         @ ../Src/common.c:0:2
	movw	r2, #52429
	movt	r2, #52428
.Ltmp28:
	.p2align	2
.LBB4_1:                                @ =>This Inner Loop Header: Depth=1
	@DEBUG_VALUE: Int2StrSized:p_str <- $r8
	@DEBUG_VALUE: Int2StrSized:intnum <- $r7
	@DEBUG_VALUE: Int2StrSized:size <- $r4
	@DEBUG_VALUE: Int2StrSized:intnum <- $r7
	.loc	1 105 27 is_stmt 1      @ ../Src/common.c:105:27
	udiv	r3, r7, r0
.Ltmp29:
	@DEBUG_VALUE: Int2StrSized:pos <- $r1
	@DEBUG_VALUE: Int2StrSized:divider <- $r0
	.loc	1 105 19 is_stmt 0      @ ../Src/common.c:105:19
	add.w	r5, r3, #48
	.loc	1 105 17                @ ../Src/common.c:105:17
	strb	r5, [r6, r1]
	mls	r7, r3, r0, r7
.Ltmp30:
	@DEBUG_VALUE: Int2StrSized:intnum <- $r7
	.loc	1 107 11 is_stmt 1      @ ../Src/common.c:107:11
	umull	r0, r3, r0, r2
.Ltmp31:
	lsrs	r0, r3, #3
.Ltmp32:
	@DEBUG_VALUE: Int2StrSized:divider <- $r0
	.loc	1 105 13                @ ../Src/common.c:105:13
	adds	r1, #1
.Ltmp33:
	@DEBUG_VALUE: Int2StrSized:i <- $r1
	@DEBUG_VALUE: Int2StrSized:pos <- $r1
	.loc	1 103 2                 @ ../Src/common.c:103:2
	cmp	r1, #10
	bne	.LBB4_1
.Ltmp34:
@ %bb.2:
	@DEBUG_VALUE: Int2StrSized:i <- $r1
	@DEBUG_VALUE: Int2StrSized:divider <- $r0
	@DEBUG_VALUE: Int2StrSized:pos <- $r1
	@DEBUG_VALUE: Int2StrSized:p_str <- $r8
	@DEBUG_VALUE: Int2StrSized:intnum <- $r7
	@DEBUG_VALUE: Int2StrSized:size <- $r4
	.loc	1 112 2                 @ ../Src/common.c:112:2
	cbz	r4, .LBB4_5
.Ltmp35:
@ %bb.3:
	@DEBUG_VALUE: Int2StrSized:i <- $r1
	@DEBUG_VALUE: Int2StrSized:divider <- $r0
	@DEBUG_VALUE: Int2StrSized:pos <- $r1
	@DEBUG_VALUE: Int2StrSized:p_str <- $r8
	@DEBUG_VALUE: Int2StrSized:intnum <- $r7
	@DEBUG_VALUE: Int2StrSized:size <- $r4
	.loc	1 0 2 is_stmt 0         @ ../Src/common.c:0:2
	movs	r0, #9
.Ltmp36:
	.p2align	2
.LBB4_4:                                @ =>This Inner Loop Header: Depth=1
	@DEBUG_VALUE: Int2StrSized:i <- $r1
	@DEBUG_VALUE: Int2StrSized:pos <- $r1
	@DEBUG_VALUE: Int2StrSized:p_str <- $r8
	@DEBUG_VALUE: Int2StrSized:intnum <- $r7
	@DEBUG_VALUE: Int2StrSized:size <- $r4
	@DEBUG_VALUE: Int2StrSized:pos <- [DW_OP_constu 1, DW_OP_minus, DW_OP_stack_value] $r0
	.loc	1 114 22 is_stmt 1      @ ../Src/common.c:114:22
	ldrb	r1, [r6, r0]
.Ltmp37:
	.loc	1 112 8                 @ ../Src/common.c:112:8
	uxtb	r2, r4
.Ltmp38:
	@DEBUG_VALUE: Int2StrSized:size <- $r2
	.loc	1 114 3                 @ ../Src/common.c:114:3
	add	r2, r8
.Ltmp39:
	.loc	1 114 20 is_stmt 0      @ ../Src/common.c:114:20
	strb	r1, [r2, #-1]
	.loc	1 115 7 is_stmt 1       @ ../Src/common.c:115:7
	subs	r4, #1
.Ltmp40:
	.loc	1 112 2                 @ ../Src/common.c:112:2
	tst.w	r4, #255
	it	ne
	subsne.w	r0, r0, #1
.Ltmp41:
	@DEBUG_VALUE: Int2StrSized:pos <- $r0
	.loc	1 0 2 is_stmt 0         @ ../Src/common.c:0:2
	bne	.LBB4_4
.Ltmp42:
.LBB4_5:
	@DEBUG_VALUE: Int2StrSized:p_str <- $r8
	@DEBUG_VALUE: Int2StrSized:intnum <- $r7
	.loc	1 118 1 is_stmt 1       @ ../Src/common.c:118:1
	add	sp, #16
	pop.w	{r4, r5, r6, r7, r8, pc}
.Ltmp43:
.Lfunc_end4:
	.size	Int2StrSized, .Lfunc_end4-Int2StrSized
	.cfi_endproc
	.cantunwind
	.fnend
                                        @ -- End function
	.section	.text.ClearBuffer,"ax",%progbits
	.hidden	ClearBuffer             @ -- Begin function ClearBuffer
	.globl	ClearBuffer
	.p2align	2
	.type	ClearBuffer,%function
	.code	16                      @ @ClearBuffer
	.thumb_func
ClearBuffer:
.Lfunc_begin5:
	.loc	1 155 0                 @ ../Src/common.c:155:0
	.fnstart
	.cfi_startproc
@ %bb.0:
	@DEBUG_VALUE: ClearBuffer:buffer <- $r0
	@DEBUG_VALUE: ClearBuffer:buffer <- $r0
	@DEBUG_VALUE: ClearBuffer:size <- $r1
	@DEBUG_VALUE: ClearBuffer:size <- $r1
	@DEBUG_VALUE: ClearBuffer:t <- 0
	.loc	1 158 2 prologue_end    @ ../Src/common.c:158:2
	cmp	r1, #0
	.loc	1 159 1                 @ ../Src/common.c:159:1
	it	eq
	bxeq	lr
	.save	{r7, lr}
	push	{r7, lr}
	.cfi_def_cfa_offset 8
	.cfi_offset lr, -4
	.cfi_offset r7, -8
	.loc	1 158 30                @ ../Src/common.c:158:30
	bl	__aeabi_memclr
.Ltmp44:
	.loc	1 0 30 is_stmt 0        @ ../Src/common.c:0:30
	pop.w	{r7, lr}
	.loc	1 159 1 is_stmt 1       @ ../Src/common.c:159:1
	bx	lr
.Ltmp45:
.Lfunc_end5:
	.size	ClearBuffer, .Lfunc_end5-ClearBuffer
	.cfi_endproc
	.cantunwind
	.fnend
                                        @ -- End function
	.section	.text.Str2Hex,"ax",%progbits
	.hidden	Str2Hex                 @ -- Begin function Str2Hex
	.globl	Str2Hex
	.p2align	2
	.type	Str2Hex,%function
	.code	16                      @ @Str2Hex
	.thumb_func
Str2Hex:
.Lfunc_begin6:
	.loc	1 122 0                 @ ../Src/common.c:122:0
	.fnstart
	.cfi_startproc
@ %bb.0:
	.save	{r4, r5, r6, r7, lr}
	push	{r4, r5, r6, r7, lr}
	.cfi_def_cfa_offset 20
	.cfi_offset lr, -4
	.cfi_offset r7, -8
	.cfi_offset r6, -12
	.cfi_offset r5, -16
	.cfi_offset r4, -20
	@DEBUG_VALUE: Str2Hex:p_str <- $r0
	@DEBUG_VALUE: Str2Hex:p_str <- $r0
	@DEBUG_VALUE: Str2Hex:lenght <- $r1
	@DEBUG_VALUE: Str2Hex:lenght <- $r1
	@DEBUG_VALUE: Str2Hex:p_hex <- $r2
	@DEBUG_VALUE: Str2Hex:p_hex <- $r2
.Ltmp46:
	@DEBUG_VALUE: Str2Hex:hex_cnt <- 0
	@DEBUG_VALUE: Str2Hex:str_cnt <- 0
	.loc	1 125 2 prologue_end    @ ../Src/common.c:125:2
	cmp	r1, #0
	.loc	1 136 1                 @ ../Src/common.c:136:1
	it	eq
	popeq	{r4, r5, r6, r7, pc}
.Ltmp47:
	.loc	1 127 7                 @ ../Src/common.c:127:7
	adds	r0, #1
.Ltmp48:
	.loc	1 0 7 is_stmt 0         @ ../Src/common.c:0:7
	movs	r3, #0
	mvn	r12, #111
	movw	lr, #65535
	mov	r4, r2
.Ltmp49:
	.p2align	2
.LBB6_1:                                @ =>This Inner Loop Header: Depth=1
	@DEBUG_VALUE: Str2Hex:p_hex <- $r2
	@DEBUG_VALUE: Str2Hex:lenght <- $r1
	@DEBUG_VALUE: Str2Hex:p_str <- $r0
	.loc	1 127 7                 @ ../Src/common.c:127:7
	ldrb	r5, [r0, #-1]
	.loc	1 127 22                @ ../Src/common.c:127:22
	sub.w	r6, r5, #48
	.loc	1 128 25 is_stmt 1      @ ../Src/common.c:128:25
	lsls	r7, r6, #4
.Ltmp50:
	.loc	1 127 6                 @ ../Src/common.c:127:6
	cmp	r6, #9
	it	hi
	addhi.w	r7, r12, r5, lsl #4
	strb	r7, [r4]
.Ltmp51:
	.loc	1 130 7                 @ ../Src/common.c:130:7
	ldrb	r5, [r0]
	.loc	1 130 22 is_stmt 0      @ ../Src/common.c:130:22
	sub.w	r6, r5, #48
.Ltmp52:
	.loc	1 130 6                 @ ../Src/common.c:130:6
	cmp	r6, #10
	blo	.LBB6_3
.Ltmp53:
@ %bb.2:                                @   in Loop: Header=BB6_1 Depth=1
	@DEBUG_VALUE: Str2Hex:p_hex <- $r2
	@DEBUG_VALUE: Str2Hex:lenght <- $r1
	@DEBUG_VALUE: Str2Hex:p_str <- $r0
	.loc	1 130 53                @ ../Src/common.c:130:53
	sub.w	r6, r5, #65
	uxtb	r6, r6
	cmp	r6, #6
	mvn	r6, #86
	it	lo
	mvnlo	r6, #54
	add	r5, r6
	.loc	1 130 50                @ ../Src/common.c:130:50
	ldrb	r6, [r4]
	add	r6, r5
	mov	r5, r4
	b	.LBB6_4
.Ltmp54:
	.p2align	2
.LBB6_3:                                @   in Loop: Header=BB6_1 Depth=1
	@DEBUG_VALUE: Str2Hex:p_hex <- $r2
	@DEBUG_VALUE: Str2Hex:lenght <- $r1
	@DEBUG_VALUE: Str2Hex:p_str <- $r0
	@DEBUG_VALUE: Str2Hex:hex_cnt <- $r3
	.loc	1 131 8 is_stmt 1       @ ../Src/common.c:131:8
	adds	r5, r2, r3
	.loc	1 131 23 is_stmt 0      @ ../Src/common.c:131:23
	ldrb	r7, [r4]
	add	r6, r7
.Ltmp55:
.LBB6_4:                                @   in Loop: Header=BB6_1 Depth=1
	@DEBUG_VALUE: Str2Hex:p_hex <- $r2
	@DEBUG_VALUE: Str2Hex:lenght <- $r1
	@DEBUG_VALUE: Str2Hex:p_str <- $r0
	.loc	1 0 23                  @ ../Src/common.c:0:23
	strb	r6, [r5]
	.loc	1 125 2 is_stmt 1       @ ../Src/common.c:125:2
	adds	r4, #1
	adds	r0, #2
.Ltmp56:
	.loc	1 134 3                 @ ../Src/common.c:134:3
	subs	r1, #1
.Ltmp57:
	.loc	1 133 3                 @ ../Src/common.c:133:3
	adds	r3, #1
.Ltmp58:
	@DEBUG_VALUE: Str2Hex:hex_cnt <- $r3
	.loc	1 125 2                 @ ../Src/common.c:125:2
	tst.w	r1, lr
	bne	.LBB6_1
.Ltmp59:
@ %bb.5:
	@DEBUG_VALUE: Str2Hex:hex_cnt <- $r3
	@DEBUG_VALUE: Str2Hex:p_hex <- $r2
	.loc	1 136 1                 @ ../Src/common.c:136:1
	pop	{r4, r5, r6, r7, pc}
.Ltmp60:
.Lfunc_end6:
	.size	Str2Hex, .Lfunc_end6-Str2Hex
	.cfi_endproc
	.cantunwind
	.fnend
                                        @ -- End function
	.section	.text.Hex2Str,"ax",%progbits
	.hidden	Hex2Str                 @ -- Begin function Hex2Str
	.globl	Hex2Str
	.p2align	2
	.type	Hex2Str,%function
	.code	16                      @ @Hex2Str
	.thumb_func
Hex2Str:
.Lfunc_begin7:
	.loc	1 139 0                 @ ../Src/common.c:139:0
	.fnstart
	.cfi_startproc
@ %bb.0:
	.save	{r4, r5, r7, lr}
	push	{r4, r5, r7, lr}
	.cfi_def_cfa_offset 16
	.cfi_offset lr, -4
	.cfi_offset r7, -8
	.cfi_offset r5, -12
	.cfi_offset r4, -16
	@DEBUG_VALUE: Hex2Str:p_hex <- $r0
	@DEBUG_VALUE: Hex2Str:p_hex <- $r0
	@DEBUG_VALUE: Hex2Str:lenght <- $r1
	@DEBUG_VALUE: Hex2Str:lenght <- $r1
	@DEBUG_VALUE: Hex2Str:p_str <- $r2
	@DEBUG_VALUE: Hex2Str:p_str <- $r2
.Ltmp61:
	@DEBUG_VALUE: Hex2Str:hex_cnt <- 0
	@DEBUG_VALUE: Hex2Str:str_cnt <- 0
	.loc	1 142 2 prologue_end    @ ../Src/common.c:142:2
	cmp	r1, #0
	.loc	1 153 1                 @ ../Src/common.c:153:1
	it	eq
	popeq	{r4, r5, r7, pc}
.Ltmp62:
	.loc	1 144 7                 @ ../Src/common.c:144:7
	adds	r2, #1
.Ltmp63:
	.loc	1 0 7 is_stmt 0         @ ../Src/common.c:0:7
	mov.w	r12, #55
	mov.w	lr, #48
	movw	r3, #65535
.Ltmp64:
	.p2align	2
.LBB7_1:                                @ =>This Inner Loop Header: Depth=1
	@DEBUG_VALUE: Hex2Str:p_str <- $r2
	@DEBUG_VALUE: Hex2Str:lenght <- $r1
	@DEBUG_VALUE: Hex2Str:p_hex <- $r0
	.loc	1 144 7                 @ ../Src/common.c:144:7
	ldrb	r4, [r0]
	.loc	1 145 48 is_stmt 1      @ ../Src/common.c:145:48
	orr.w	r5, lr, r4, lsr #4
.Ltmp65:
	.loc	1 144 6                 @ ../Src/common.c:144:6
	cmp	r4, #159
	it	hi
	addhi.w	r5, r12, r4, lsr #4
	strb	r5, [r2, #-1]
.Ltmp66:
	.loc	1 147 7                 @ ../Src/common.c:147:7
	ldrb	r4, [r0], #1
.Ltmp67:
	.loc	1 147 22 is_stmt 0      @ ../Src/common.c:147:22
	and	r4, r4, #15
	.loc	1 148 50 is_stmt 1      @ ../Src/common.c:148:50
	orr	r5, r4, #48
.Ltmp68:
	.loc	1 147 6                 @ ../Src/common.c:147:6
	cmp	r4, #9
	it	hi
	addhi.w	r5, r4, #55
	strb	r5, [r2]
.Ltmp69:
	.loc	1 142 2                 @ ../Src/common.c:142:2
	adds	r2, #2
.Ltmp70:
	.loc	1 151 3                 @ ../Src/common.c:151:3
	subs	r1, #1
.Ltmp71:
	.loc	1 142 2                 @ ../Src/common.c:142:2
	tst	r1, r3
	bne	.LBB7_1
@ %bb.2:
	.loc	1 153 1                 @ ../Src/common.c:153:1
	pop	{r4, r5, r7, pc}
.Ltmp72:
.Lfunc_end7:
	.size	Hex2Str, .Lfunc_end7-Hex2Str
	.cfi_endproc
	.cantunwind
	.fnend
                                        @ -- End function
	.section	.text.Str2Int,"ax",%progbits
	.hidden	Str2Int                 @ -- Begin function Str2Int
	.globl	Str2Int
	.p2align	2
	.type	Str2Int,%function
	.code	16                      @ @Str2Int
	.thumb_func
Str2Int:
.Lfunc_begin8:
	.loc	1 163 0                 @ ../Src/common.c:163:0
	.fnstart
	.cfi_startproc
@ %bb.0:
	.save	{r4, lr}
	push	{r4, lr}
	.cfi_def_cfa_offset 8
	.cfi_offset lr, -4
	.cfi_offset r4, -8
	@DEBUG_VALUE: Str2Int:p_inputstr <- $r0
	@DEBUG_VALUE: Str2Int:p_inputstr <- $r0
	@DEBUG_VALUE: Str2Int:p_intnum <- $r1
	@DEBUG_VALUE: Str2Int:p_intnum <- $r1
.Ltmp73:
	@DEBUG_VALUE: Str2Int:i <- 0
	@DEBUG_VALUE: Str2Int:res <- 0
	@DEBUG_VALUE: Str2Int:val <- 0
	.loc	1 167 8 prologue_end    @ ../Src/common.c:167:8
	ldrb	r2, [r0]
	.loc	1 167 30 is_stmt 0      @ ../Src/common.c:167:30
	cmp	r2, #48
	bne	.LBB8_13
.Ltmp74:
@ %bb.1:
	@DEBUG_VALUE: Str2Int:p_intnum <- $r1
	@DEBUG_VALUE: Str2Int:p_inputstr <- $r0
	.loc	1 0 30                  @ ../Src/common.c:0:30
	ldrb	r2, [r0, #1]
	.loc	1 167 57                @ ../Src/common.c:167:57
	orr	r2, r2, #32
	cmp	r2, #120
	bne	.LBB8_13
.Ltmp75:
@ %bb.2:
	@DEBUG_VALUE: Str2Int:p_intnum <- $r1
	@DEBUG_VALUE: Str2Int:p_inputstr <- $r0
	.loc	1 0 57                  @ ../Src/common.c:0:57
	movs	r4, #2
	mov.w	r12, #0
.Ltmp76:
	.p2align	2
.LBB8_3:                                @ =>This Inner Loop Header: Depth=1
	@DEBUG_VALUE: Str2Int:p_intnum <- $r1
	@DEBUG_VALUE: Str2Int:p_inputstr <- $r0
	@DEBUG_VALUE: Str2Int:i <- $r4
	.loc	1 170 26 is_stmt 1      @ ../Src/common.c:170:26
	ldrb	r2, [r0, r4]
	.loc	1 170 5 is_stmt 0       @ ../Src/common.c:170:5
	cbz	r2, .LBB8_12
.Ltmp77:
@ %bb.4:                                @   in Loop: Header=BB8_3 Depth=1
	@DEBUG_VALUE: Str2Int:i <- $r4
	@DEBUG_VALUE: Str2Int:p_intnum <- $r1
	@DEBUG_VALUE: Str2Int:p_inputstr <- $r0
	.loc	1 172 11 is_stmt 1      @ ../Src/common.c:172:11
	cmp	r2, #65
	blo	.LBB8_7
.Ltmp78:
@ %bb.5:                                @   in Loop: Header=BB8_3 Depth=1
	@DEBUG_VALUE: Str2Int:i <- $r4
	@DEBUG_VALUE: Str2Int:p_intnum <- $r1
	@DEBUG_VALUE: Str2Int:p_inputstr <- $r0
	cmp	r2, #71
	bhs	.LBB8_9
.Ltmp79:
@ %bb.6:                                @   in Loop: Header=BB8_3 Depth=1
	@DEBUG_VALUE: Str2Int:i <- $r4
	@DEBUG_VALUE: Str2Int:p_intnum <- $r1
	@DEBUG_VALUE: Str2Int:p_inputstr <- $r0
	.loc	1 0 11 is_stmt 0        @ ../Src/common.c:0:11
	mvn	lr, #54
	b	.LBB8_11
.Ltmp80:
	.p2align	2
.LBB8_7:                                @   in Loop: Header=BB8_3 Depth=1
	@DEBUG_VALUE: Str2Int:i <- $r4
	@DEBUG_VALUE: Str2Int:p_intnum <- $r1
	@DEBUG_VALUE: Str2Int:p_inputstr <- $r0
	.loc	1 172 11                @ ../Src/common.c:172:11
	sub.w	r3, r2, #48
	uxtb	r3, r3
	cmp	r3, #9
	bhi	.LBB8_12
.Ltmp81:
@ %bb.8:                                @   in Loop: Header=BB8_3 Depth=1
	@DEBUG_VALUE: Str2Int:i <- $r4
	@DEBUG_VALUE: Str2Int:p_intnum <- $r1
	@DEBUG_VALUE: Str2Int:p_inputstr <- $r0
	.loc	1 0 11                  @ ../Src/common.c:0:11
	mvn	lr, #47
	b	.LBB8_11
.Ltmp82:
	.p2align	2
.LBB8_9:                                @   in Loop: Header=BB8_3 Depth=1
	@DEBUG_VALUE: Str2Int:i <- $r4
	@DEBUG_VALUE: Str2Int:p_intnum <- $r1
	@DEBUG_VALUE: Str2Int:p_inputstr <- $r0
	.loc	1 172 11                @ ../Src/common.c:172:11
	sub.w	r3, r2, #97
	uxtb	r3, r3
	cmp	r3, #6
	bhs	.LBB8_12
.Ltmp83:
@ %bb.10:                               @   in Loop: Header=BB8_3 Depth=1
	@DEBUG_VALUE: Str2Int:i <- $r4
	@DEBUG_VALUE: Str2Int:p_intnum <- $r1
	@DEBUG_VALUE: Str2Int:p_inputstr <- $r0
	.loc	1 0 11                  @ ../Src/common.c:0:11
	mvn	lr, #86
.Ltmp84:
.LBB8_11:                               @   in Loop: Header=BB8_3 Depth=1
	@DEBUG_VALUE: Str2Int:i <- $r4
	@DEBUG_VALUE: Str2Int:p_intnum <- $r1
	@DEBUG_VALUE: Str2Int:p_inputstr <- $r0
	@DEBUG_VALUE: Str2Int:val <- $r12
	.loc	1 174 29 is_stmt 1      @ ../Src/common.c:174:29
	add	r2, lr
	.loc	1 174 27 is_stmt 0      @ ../Src/common.c:174:27
	add.w	r12, r2, r12, lsl #4
.Ltmp85:
	@DEBUG_VALUE: Str2Int:val <- $r12
	.loc	1 182 8 is_stmt 1       @ ../Src/common.c:182:8
	adds	r4, #1
.Ltmp86:
	@DEBUG_VALUE: Str2Int:i <- $r4
	.loc	1 170 22                @ ../Src/common.c:170:22
	cmp	r4, #11
	blo	.LBB8_3
.Ltmp87:
.LBB8_12:
	@DEBUG_VALUE: Str2Int:i <- $r4
	@DEBUG_VALUE: Str2Int:p_intnum <- $r1
	@DEBUG_VALUE: Str2Int:p_inputstr <- $r0
	@DEBUG_VALUE: Str2Int:res <- 0
	.loc	1 186 9                 @ ../Src/common.c:186:9
	ldrb	r0, [r0, r4]
.Ltmp88:
	.loc	1 186 9 is_stmt 0       @ ../Src/common.c:186:9
	cmp	r0, #0
	itt	ne
	movne	r0, #0
.Ltmp89:
	@DEBUG_VALUE: Str2Int:res <- $r0
	.loc	1 228 3 is_stmt 1       @ ../Src/common.c:228:3
	popne	{r4, pc}
.Ltmp90:
	.loc	1 0 3 is_stmt 0         @ ../Src/common.c:0:3
	b	.LBB8_24
.Ltmp91:
.LBB8_13:
	@DEBUG_VALUE: Str2Int:p_intnum <- $r1
	@DEBUG_VALUE: Str2Int:p_inputstr <- $r0
	mov.w	r12, #0
	movs	r3, #0
.Ltmp92:
	.p2align	2
.LBB8_14:                               @ =>This Inner Loop Header: Depth=1
	@DEBUG_VALUE: Str2Int:p_intnum <- $r1
	@DEBUG_VALUE: Str2Int:p_inputstr <- $r0
	@DEBUG_VALUE: Str2Int:i <- $r3
	@DEBUG_VALUE: Str2Int:res <- 0
	.loc	1 196 11 is_stmt 1      @ ../Src/common.c:196:11
	ldrb	r2, [r0, r3]
.Ltmp93:
	.loc	1 196 11 is_stmt 0      @ ../Src/common.c:196:11
	cmp	r2, #107
	beq	.LBB8_27
.Ltmp94:
@ %bb.15:                               @   in Loop: Header=BB8_14 Depth=1
	@DEBUG_VALUE: Str2Int:i <- $r3
	@DEBUG_VALUE: Str2Int:p_intnum <- $r1
	@DEBUG_VALUE: Str2Int:p_inputstr <- $r0
	.loc	1 0 11                  @ ../Src/common.c:0:11
	cbz	r2, .LBB8_24
.Ltmp95:
@ %bb.16:                               @   in Loop: Header=BB8_14 Depth=1
	@DEBUG_VALUE: Str2Int:i <- $r3
	@DEBUG_VALUE: Str2Int:p_intnum <- $r1
	@DEBUG_VALUE: Str2Int:p_inputstr <- $r0
	.loc	1 202 67 is_stmt 1      @ ../Src/common.c:202:67
	cbz	r3, .LBB8_18
.Ltmp96:
@ %bb.17:                               @   in Loop: Header=BB8_14 Depth=1
	@DEBUG_VALUE: Str2Int:i <- $r3
	@DEBUG_VALUE: Str2Int:p_intnum <- $r1
	@DEBUG_VALUE: Str2Int:p_inputstr <- $r0
	cmp	r2, #75
	beq	.LBB8_28
.Ltmp97:
.LBB8_18:                               @   in Loop: Header=BB8_14 Depth=1
	@DEBUG_VALUE: Str2Int:i <- $r3
	@DEBUG_VALUE: Str2Int:p_intnum <- $r1
	@DEBUG_VALUE: Str2Int:p_inputstr <- $r0
	.loc	1 208 40                @ ../Src/common.c:208:40
	cmp	r2, #109
	beq	.LBB8_25
.Ltmp98:
@ %bb.19:                               @   in Loop: Header=BB8_14 Depth=1
	@DEBUG_VALUE: Str2Int:i <- $r3
	@DEBUG_VALUE: Str2Int:p_intnum <- $r1
	@DEBUG_VALUE: Str2Int:p_inputstr <- $r0
	.loc	1 208 67 is_stmt 0      @ ../Src/common.c:208:67
	cbz	r3, .LBB8_21
.Ltmp99:
@ %bb.20:                               @   in Loop: Header=BB8_14 Depth=1
	@DEBUG_VALUE: Str2Int:i <- $r3
	@DEBUG_VALUE: Str2Int:p_intnum <- $r1
	@DEBUG_VALUE: Str2Int:p_inputstr <- $r0
	cmp	r2, #77
	beq	.LBB8_26
.Ltmp100:
.LBB8_21:                               @   in Loop: Header=BB8_14 Depth=1
	@DEBUG_VALUE: Str2Int:i <- $r3
	@DEBUG_VALUE: Str2Int:p_intnum <- $r1
	@DEBUG_VALUE: Str2Int:p_inputstr <- $r0
	.loc	1 214 16 is_stmt 1      @ ../Src/common.c:214:16
	sub.w	r4, r2, #48
	uxtb	r4, r4
	cmp	r4, #9
	bhi	.LBB8_23
.Ltmp101:
@ %bb.22:                               @   in Loop: Header=BB8_14 Depth=1
	@DEBUG_VALUE: Str2Int:i <- $r3
	@DEBUG_VALUE: Str2Int:p_intnum <- $r1
	@DEBUG_VALUE: Str2Int:p_inputstr <- $r0
	.loc	1 216 19                @ ../Src/common.c:216:19
	add.w	r4, r12, r12, lsl #2
	.loc	1 216 27 is_stmt 0      @ ../Src/common.c:216:27
	add.w	r2, r2, r4, lsl #1
	.loc	1 216 25                @ ../Src/common.c:216:25
	sub.w	r12, r2, #48
.Ltmp102:
	@DEBUG_VALUE: Str2Int:val <- $r12
	.loc	1 224 8 is_stmt 1       @ ../Src/common.c:224:8
	adds	r3, #1
.Ltmp103:
	@DEBUG_VALUE: Str2Int:res <- 0
	@DEBUG_VALUE: Str2Int:i <- $r3
	.loc	1 194 5                 @ ../Src/common.c:194:5
	cmp	r3, #11
	blo	.LBB8_14
.Ltmp104:
.LBB8_23:
	@DEBUG_VALUE: Str2Int:i <- $r3
	@DEBUG_VALUE: Str2Int:p_intnum <- $r1
	@DEBUG_VALUE: Str2Int:p_inputstr <- $r0
	.loc	1 0 5 is_stmt 0         @ ../Src/common.c:0:5
	movs	r0, #0
.Ltmp105:
	@DEBUG_VALUE: Str2Int:res <- $r0
	.loc	1 228 3 is_stmt 1       @ ../Src/common.c:228:3
	pop	{r4, pc}
.Ltmp106:
.LBB8_24:
	@DEBUG_VALUE: Str2Int:p_intnum <- $r1
	@DEBUG_VALUE: Str2Int:val <- $r12
	.loc	1 0 3 is_stmt 0         @ ../Src/common.c:0:3
	str.w	r12, [r1]
	movs	r0, #1
.Ltmp107:
	@DEBUG_VALUE: Str2Int:res <- 1
	@DEBUG_VALUE: Str2Int:res <- $r0
	.loc	1 228 3                 @ ../Src/common.c:228:3
	pop	{r4, pc}
.Ltmp108:
.LBB8_25:
	@DEBUG_VALUE: Str2Int:i <- $r3
	@DEBUG_VALUE: Str2Int:p_intnum <- $r1
	@DEBUG_VALUE: Str2Int:p_inputstr <- $r0
	.loc	1 208 16 is_stmt 1      @ ../Src/common.c:208:16
	cmp	r3, #0
	itt	eq
	moveq	r0, #0
.Ltmp109:
	@DEBUG_VALUE: Str2Int:res <- $r0
	.loc	1 228 3                 @ ../Src/common.c:228:3
	popeq	{r4, pc}
.Ltmp110:
.LBB8_26:
	@DEBUG_VALUE: Str2Int:i <- $r3
	@DEBUG_VALUE: Str2Int:p_intnum <- $r1
	.loc	1 210 19                @ ../Src/common.c:210:19
	lsl.w	r0, r12, #20
.Ltmp111:
	.loc	1 165 12                @ ../Src/common.c:165:12
	b	.LBB8_29
.Ltmp112:
.LBB8_27:
	@DEBUG_VALUE: Str2Int:i <- $r3
	@DEBUG_VALUE: Str2Int:p_intnum <- $r1
	@DEBUG_VALUE: Str2Int:p_inputstr <- $r0
	.loc	1 202 16                @ ../Src/common.c:202:16
	cmp	r3, #0
	itt	eq
	moveq	r0, #0
.Ltmp113:
	@DEBUG_VALUE: Str2Int:res <- $r0
	.loc	1 228 3                 @ ../Src/common.c:228:3
	popeq	{r4, pc}
.Ltmp114:
.LBB8_28:
	@DEBUG_VALUE: Str2Int:i <- $r3
	@DEBUG_VALUE: Str2Int:p_intnum <- $r1
	.loc	1 204 19                @ ../Src/common.c:204:19
	lsl.w	r0, r12, #10
.Ltmp115:
.LBB8_29:
	@DEBUG_VALUE: Str2Int:i <- $r3
	@DEBUG_VALUE: Str2Int:p_intnum <- $r1
	@DEBUG_VALUE: Str2Int:val <- $r0
	.loc	1 0 19 is_stmt 0        @ ../Src/common.c:0:19
	str	r0, [r1]
	movs	r0, #1
.Ltmp116:
	@DEBUG_VALUE: Str2Int:res <- 1
	@DEBUG_VALUE: Str2Int:res <- $r0
	.loc	1 228 3 is_stmt 1       @ ../Src/common.c:228:3
	pop	{r4, pc}
.Ltmp117:
.Lfunc_end8:
	.size	Str2Int, .Lfunc_end8-Str2Int
	.cfi_endproc
	.cantunwind
	.fnend
                                        @ -- End function
	.section	.text.CharToBin,"ax",%progbits
	.hidden	CharToBin               @ -- Begin function CharToBin
	.globl	CharToBin
	.p2align	2
	.type	CharToBin,%function
	.code	16                      @ @CharToBin
	.thumb_func
CharToBin:
.Lfunc_begin9:
	.loc	1 233 0                 @ ../Src/common.c:233:0
	.fnstart
	.cfi_startproc
@ %bb.0:
	.save	{r7, lr}
	push	{r7, lr}
	.cfi_def_cfa_offset 8
	.cfi_offset lr, -4
	.cfi_offset r7, -8
	@DEBUG_VALUE: CharToBin:c <- $r0
	@DEBUG_VALUE: CharToBin:c <- $r0
	@DEBUG_VALUE: CharToBin:out <- $r1
	@DEBUG_VALUE: CharToBin:out <- $r1
.Ltmp118:
	.loc	1 235 10 prologue_end   @ ../Src/common.c:235:10
	movw	r2, #513
	movt	r2, #2052
	umull	r2, r3, r0, r2
	.loc	1 235 43 is_stmt 0      @ ../Src/common.c:235:43
	mov.w	r12, #16843009
	and.w	r2, r12, r2, lsr #7
	.loc	1 234 53 is_stmt 1      @ ../Src/common.c:234:53
	orr	lr, r2, #808464432
	.loc	1 235 10                @ ../Src/common.c:235:10
	movw	r2, #8208
	movt	r2, #32832
	mla	r0, r0, r2, r3
.Ltmp119:
	.loc	1 235 43 is_stmt 0      @ ../Src/common.c:235:43
	and.w	r0, r12, r0, lsr #7
	.loc	1 234 53 is_stmt 1      @ ../Src/common.c:234:53
	orr	r0, r0, #808464432
	.loc	1 234 28 is_stmt 0      @ ../Src/common.c:234:28
	strd	lr, r0, [r1]
	.loc	1 236 1 is_stmt 1       @ ../Src/common.c:236:1
	pop	{r7, pc}
.Ltmp120:
.Lfunc_end9:
	.size	CharToBin, .Lfunc_end9-CharToBin
	.cfi_endproc
	.cantunwind
	.fnend
                                        @ -- End function
	.section	.text.BaseToPower,"ax",%progbits
	.hidden	BaseToPower             @ -- Begin function BaseToPower
	.globl	BaseToPower
	.p2align	2
	.type	BaseToPower,%function
	.code	16                      @ @BaseToPower
	.thumb_func
BaseToPower:
.Lfunc_begin10:
	.loc	1 241 0                 @ ../Src/common.c:241:0
	.fnstart
	.cfi_startproc
@ %bb.0:
	@DEBUG_VALUE: BaseToPower:base <- $r0
	@DEBUG_VALUE: BaseToPower:base <- $r0
	@DEBUG_VALUE: BaseToPower:power <- $r1
	@DEBUG_VALUE: BaseToPower:power <- $r1
	@DEBUG_VALUE: BaseToPower:result <- 1
	@DEBUG_VALUE: BaseToPower:base <- $r0
	movs	r2, #1
.Ltmp121:
	.loc	1 244 2 prologue_end    @ ../Src/common.c:244:2
	cbz	r1, .LBB10_2
.Ltmp122:
	.p2align	2
.LBB10_1:                               @ =>This Inner Loop Header: Depth=1
	@DEBUG_VALUE: BaseToPower:power <- $r1
	@DEBUG_VALUE: BaseToPower:base <- $r0
	@DEBUG_VALUE: BaseToPower:result <- $r2
	.loc	1 244 24 is_stmt 0      @ ../Src/common.c:244:24
	muls	r2, r0, r2
.Ltmp123:
	@DEBUG_VALUE: BaseToPower:result <- $r2
	.loc	1 244 13                @ ../Src/common.c:244:13
	subs	r1, #1
.Ltmp124:
	.loc	1 244 2                 @ ../Src/common.c:244:2
	tst.w	r1, #255
	bne	.LBB10_1
.Ltmp125:
.LBB10_2:
	@DEBUG_VALUE: BaseToPower:base <- $r0
	.loc	1 245 2 is_stmt 1       @ ../Src/common.c:245:2
	mov	r0, r2
	bx	lr
.Ltmp126:
.Lfunc_end10:
	.size	BaseToPower, .Lfunc_end10-BaseToPower
	.cfi_endproc
	.cantunwind
	.fnend
                                        @ -- End function
	.file	2 "C:\\Keil\\ARM\\ARMCLANG\\Bin\\..\\include" "stdint.h"
	.section	".note.GNU-stack","",%progbits
	.eabi_attribute	30, 1	@ Tag_ABI_optimization_goals
	.ARM_attribute	16, 1	@ Tag_AV_eba