	.text
	.syntax unified
	.eabi_attribute	67, "2.09"	@ Tag_conformance
	.cpu	cortex-m3
	.eabi_attribute	6, 10	@ Tag_CPU_arch
	.eabi_attribute	7, 77	@ Tag_CPU_arch_profile
	.eabi_attribute	8, 0	@ Tag_ARM_ISA_use
	.eabi_attribute	9, 2	@ Tag_THUMB_ISA_use
	.eabi_attribute	34, 1	@ Tag_CPU_unaligned_access
	.eabi_attribute	17, 1	@ Tag_ABI_PCS_GOT_use
	.eabi_attribute	20, 2	@ Tag_ABI_FP_denormal
	.eabi_attribute	21, 0	@ Tag_ABI_FP_exceptions
	.eabi_attribute	23, 1	@ Tag_ABI_FP_number_model
	.eabi_attribute	24, 1	@ Tag_ABI_align_needed
	.eabi_attribute	25, 1	@ Tag_ABI_align_preserved
	.eabi_attribute	38, 1	@ Tag_ABI_FP_16bit_format
	.eabi_attribute	18, 4	@ Tag_ABI_PCS_wchar_t
	.eabi_attribute	26, 2	@ Tag_ABI_enum_size
	.eabi_attribute	14, 0	@ Tag_ABI_PCS_R9_use
	.file	"display.c"
	.file	1 "../Src" "display.c"
	.file	2 "C:\\Keil\\ARM\\ARMCLANG\\Bin\\..\\include" "stdint.h"
	.file	3 "../Drivers/STM32F1xx_HAL_Driver/Inc" "stm32f1xx_hal_rtc.h"
	.file	4 "../Inc" "display.h"
	.file	5 "../Inc" "rs485.h"
	.file	6 "../Drivers/STM32F1xx_HAL_Driver/Inc" "stm32f1xx_hal_gpio.h"
	.file	7 "../Drivers/STM32F1xx_HAL_Driver/Inc" "stm32f1xx_hal_def.h"
	.file	8 "../Inc" "signal.h"
	.file	9 "../Drivers/CMSIS/Device/ST/STM32F1xx/Include" "stm32f103xb.h"
	.section	.text.DISPLAY_Service,"ax",%progbits
	.hidden	DISPLAY_Service         @ -- Begin function DISPLAY_Service
	.globl	DISPLAY_Service
	.p2align	2
	.type	DISPLAY_Service,%function
	.code	16                      @ @DISPLAY_Service
	.thumb_func
DISPLAY_Service:
.Lfunc_begin0:
	.loc	1 91 0                  @ ../Src/display.c:91:0
	.fnstart
	.cfi_sections .debug_frame
	.cfi_startproc
@ %bb.0:
	.save	{r4, r5, r6, r7, lr}
	push	{r4, r5, r6, r7, lr}
	.cfi_def_cfa_offset 20
	.cfi_offset lr, -4
	.cfi_offset r7, -8
	.cfi_offset r6, -12
	.cfi_offset r5, -16
	.cfi_offset r4, -20
	.pad	#68
	sub	sp, #68
	.cfi_def_cfa_offset 88
.Ltmp0:
	.loc	1 106 5 prologue_end    @ ../Src/display.c:106:5
	movw	r0, :lower16:eComState
	movt	r0, :upper16:eComState
	ldr	r0, [r0]
.Ltmp1:
	.loc	1 106 5 is_stmt 0       @ ../Src/display.c:106:5
	cmp	r0, #2
.Ltmp2:
	.loc	1 106 39                @ ../Src/display.c:106:39
	it	eq
	bleq	RS485_Service
	movw	r4, :lower16:DISPLAY_Service.DISP_ServiceState
	movt	r4, :upper16:DISPLAY_Service.DISP_ServiceState
	ldrb	r0, [r4]
.Ltmp3:
	.loc	1 110 2 is_stmt 1       @ ../Src/display.c:110:2
	cbz	r0, .LBB0_3
@ %bb.1:
.Ltmp4:
	.loc	1 129 18                @ ../Src/display.c:129:18
	bl	HAL_GetTick
	.loc	1 129 34 is_stmt 0      @ ../Src/display.c:129:34
	movw	r4, :lower16:DISPLAY_Service.display_timer
	movt	r4, :upper16:DISPLAY_Service.display_timer
	ldr	r1, [r4]
	.loc	1 129 32                @ ../Src/display.c:129:32
	subs	r0, r0, r1
	.loc	1 129 51                @ ../Src/display.c:129:51
	movw	r6, :lower16:DISPLAY_Service.display_time
	movt	r6, :upper16:DISPLAY_Service.display_time
	ldr	r1, [r6]
.Ltmp5:
	.loc	1 129 17                @ ../Src/display.c:129:17
	cmp	r0, r1
	bhs	.LBB0_4
.Ltmp6:
.LBB0_2:
	.loc	1 596 1 is_stmt 1       @ ../Src/display.c:596:1
	add	sp, #68
	pop	{r4, r5, r6, r7, pc}
.LBB0_3:
.Ltmp7:
	.loc	1 117 4                 @ ../Src/display.c:117:4
	movw	r0, :lower16:htim2
	movt	r0, :upper16:htim2
	ldr	r0, [r0]
	movw	r1, :lower16:lcd_brightness
	movt	r1, :upper16:lcd_brightness
	ldrh	r1, [r1]
	str	r1, [r0, #52]
	movs	r5, #0
	.loc	1 118 4                 @ ../Src/display.c:118:4
	movs	r0, #0
	bl	LCD_Clear
	.loc	1 122 4                 @ ../Src/display.c:122:4
	movw	r0, :lower16:display_flags
	movt	r0, :upper16:display_flags
	ldr	r1, [r0]
	orr	r1, r1, #8
	str	r1, [r0]
	.loc	1 120 16                @ ../Src/display.c:120:16
	movw	r1, :lower16:POINT_COLOR
	movt	r1, :upper16:POINT_COLOR
	movw	r2, #65535
	strh	r2, [r1]
	.loc	1 119 15                @ ../Src/display.c:119:15
	movw	r1, :lower16:BACK_COLOR
	movt	r1, :upper16:BACK_COLOR
	strh	r5, [r1]
	.loc	1 121 14                @ ../Src/display.c:121:14
	movw	r1, :lower16:font_size
	movt	r1, :upper16:font_size
	movs	r2, #1
	strb	r2, [r1]
	strb	r2, [r4]
	.loc	1 122 4                 @ ../Src/display.c:122:4
	ldr	r1, [r0]
	orr	r1, r1, #-2147483648
	str	r1, [r0]
.Ltmp8:
	.loc	1 596 1                 @ ../Src/display.c:596:1
	add	sp, #68
	pop	{r4, r5, r6, r7, pc}
.LBB0_4:
	.loc	1 0 1 is_stmt 0         @ ../Src/display.c:0:1
	movs	r0, #0
.Ltmp9:
	.loc	1 130 26 is_stmt 1      @ ../Src/display.c:130:26
	str	r0, [r6]
	.loc	1 131 29                @ ../Src/display.c:131:29
	bl	HAL_GetTick
	.loc	1 131 27 is_stmt 0      @ ../Src/display.c:131:27
	str	r0, [r4]
	add	r4, sp, #4
	.loc	1 132 13 is_stmt 1      @ ../Src/display.c:132:13
	mov	r0, r4
	movs	r1, #64
	bl	ClearBuffer
	.loc	1 136 23                @ ../Src/display.c:136:23
	movs	r0, #10
.Ltmp10:
	@DEBUG_VALUE: DISPLAY_Service:read_byte <- 10
	strb.w	r0, [sp, #3]
	movw	r5, #3072
	movt	r5, #16385
	.loc	1 137 13                @ ../Src/display.c:137:13
	mov	r0, r5
	mov.w	r1, #1024
	movs	r2, #0
	bl	HAL_GPIO_WritePin
	.loc	1 138 13                @ ../Src/display.c:138:13
	mov	r0, r5
	mov.w	r1, #2048
	movs	r2, #0
	bl	HAL_GPIO_WritePin
.Ltmp11:
	.loc	1 139 17                @ ../Src/display.c:139:17
	movw	r0, :lower16:hspi2
	movt	r0, :upper16:hspi2
	add.w	r1, sp, #3
.Ltmp12:
	@DEBUG_VALUE: DISPLAY_Service:read_byte <- [DW_OP_plus_uconst 3] [$sp+0]
	movs	r2, #1
	mov.w	r3, #500
	bl	HAL_SPI_Transmit
.Ltmp13:
	.loc	1 139 17 is_stmt 0      @ ../Src/display.c:139:17
	cmp	r0, #0
.Ltmp14:
	.loc	1 139 88                @ ../Src/display.c:139:88
	it	ne
	blne	Error_Handler
.Ltmp15:
	.loc	1 140 17 is_stmt 1      @ ../Src/display.c:140:17
	movw	r0, :lower16:hspi2
	movt	r0, :upper16:hspi2
	add.w	r1, sp, #3
	@DEBUG_VALUE: DISPLAY_Service:read_byte <- [DW_OP_plus_uconst 3] [$sp+0]
	movs	r2, #1
	mov.w	r3, #500
	bl	HAL_SPI_Receive
.Ltmp16:
	.loc	1 140 17 is_stmt 0      @ ../Src/display.c:140:17
	cmp	r0, #0
.Ltmp17:
	.loc	1 140 87                @ ../Src/display.c:140:87
	it	ne
	blne	Error_Handler
.Ltmp18:
	.loc	1 141 13 is_stmt 1      @ ../Src/display.c:141:13
	mov	r0, r5
	mov.w	r1, #2048
	movs	r2, #1
	bl	HAL_GPIO_WritePin
	.loc	1 142 13                @ ../Src/display.c:142:13
	mov	r0, r5
	mov.w	r1, #1024
	movs	r2, #1
	bl	HAL_GPIO_WritePin
.Ltmp19:
	.loc	1 144 17                @ ../Src/display.c:144:17
	ldrsb.w	r0, [sp, #3]
.Ltmp20:
	.loc	1 144 16 is_stmt 0      @ ../Src/display.c:144:16
	cmp	r0, #0
.Ltmp21:
	.loc	1 150 17 is_stmt 1      @ ../Src/display.c:150:17
	it	ge
	blge	Error_Handler
.Ltmp22:
	.loc	1 156 7                 @ ../Src/display.c:156:7
	movw	r5, :lower16:rs485_flags
	movt	r5, :upper16:rs485_flags
	ldr	r1, [r5]
	movw	r7, :lower16:display_flags
	movt	r7, :upper16:display_flags
	ldr	r0, [r7]
	and	r0, r0, #65536
.Ltmp23:
	.loc	1 156 7 is_stmt 0       @ ../Src/display.c:156:7
	tst.w	r1, #1
	bne	.LBB0_9
.Ltmp24:
@ %bb.5:
	@DEBUG_VALUE: DISPLAY_Service:read_byte <- [DW_OP_plus_uconst 3] [$sp+0]
	.loc	1 0 7                   @ ../Src/display.c:0:7
	ldr	r1, [r7]
.Ltmp25:
	.loc	1 193 12 is_stmt 1      @ ../Src/display.c:193:12
	cmp	r0, #0
	beq.w	.LBB0_24
.Ltmp26:
@ %bb.6:
	@DEBUG_VALUE: DISPLAY_Service:read_byte <- [DW_OP_plus_uconst 3] [$sp+0]
	.loc	1 195 17                @ ../Src/display.c:195:17
	bic	r0, r1, #65536
	str	r0, [r7]
	.loc	1 196 30                @ ../Src/display.c:196:30
	mov.w	r0, #2000
	str	r0, [r6]
	.loc	1 198 27                @ ../Src/display.c:198:27
	movw	r4, :lower16:font_size
	movt	r4, :upper16:font_size
	movs	r0, #2
	strb	r0, [r4]
	.loc	1 197 17                @ ../Src/display.c:197:17
	ldr	r0, [r7]
	orr	r0, r0, #-2147483648
	str	r0, [r7]
	.loc	1 199 17                @ ../Src/display.c:199:17
	movw	r2, :lower16:.L.str
	movt	r2, :upper16:.L.str
	movs	r0, #0
	movs	r1, #188
	bl	LCD_ShowString
	.loc	1 200 15                @ ../Src/display.c:200:15
	movs	r0, #3
	strb	r0, [r4]
.Ltmp27:
	.loc	1 201 8                 @ ../Src/display.c:201:8
	movw	r0, :lower16:sys_status
	movt	r0, :upper16:sys_status
	ldrb	r0, [r0]
.Ltmp28:
	.loc	1 201 8 is_stmt 0       @ ../Src/display.c:201:8
	tst.w	r0, #4
	bne.w	.LBB0_38
.Ltmp29:
@ %bb.7:
	@DEBUG_VALUE: DISPLAY_Service:read_byte <- [DW_OP_plus_uconst 3] [$sp+0]
	.loc	1 202 13 is_stmt 1      @ ../Src/display.c:202:13
	lsls	r0, r0, #28
	bpl.w	.LBB0_2
.Ltmp30:
@ %bb.8:
	@DEBUG_VALUE: DISPLAY_Service:read_byte <- [DW_OP_plus_uconst 3] [$sp+0]
	.loc	1 202 45 is_stmt 0      @ ../Src/display.c:202:45
	movw	r2, :lower16:.L.str.11
	movt	r2, :upper16:.L.str.11
	b	.LBB0_39
.Ltmp31:
.LBB0_9:
	@DEBUG_VALUE: DISPLAY_Service:read_byte <- [DW_OP_plus_uconst 3] [$sp+0]
	.loc	1 158 20 is_stmt 1      @ ../Src/display.c:158:20
	cmp	r0, #0
	beq.w	.LBB0_29
.Ltmp32:
.LBB0_10:
	@DEBUG_VALUE: DISPLAY_Service:read_byte <- [DW_OP_plus_uconst 3] [$sp+0]
	.loc	1 221 18                @ ../Src/display.c:221:18
	movw	r0, :lower16:SignalBuzzer
	movt	r0, :upper16:SignalBuzzer
	ldr	r0, [r0]
	.loc	1 221 44 is_stmt 0      @ ../Src/display.c:221:44
	cmp	r0, #0
	beq.w	.LBB0_40
.Ltmp33:
.LBB0_11:
	@DEBUG_VALUE: DISPLAY_Service:read_byte <- [DW_OP_plus_uconst 3] [$sp+0]
	.loc	1 221 104               @ ../Src/display.c:221:104
	movw	r0, :lower16:servisMenu
	movt	r0, :upper16:servisMenu
	ldrb	r0, [r0]
.Ltmp34:
.LBB0_12:
	@DEBUG_VALUE: DISPLAY_Service:read_byte <- [DW_OP_plus_uconst 3] [$sp+0]
	.loc	1 0 104                 @ ../Src/display.c:0:104
	cmp	r0, #2
	blo.w	.LBB0_2
.Ltmp35:
.LBB0_13:
	@DEBUG_VALUE: DISPLAY_Service:read_byte <- [DW_OP_plus_uconst 3] [$sp+0]
	.loc	1 223 7 is_stmt 1       @ ../Src/display.c:223:7
	ldr	r1, [r7]
	ldr	r0, [r7]
.Ltmp36:
	.loc	1 223 7 is_stmt 0       @ ../Src/display.c:223:7
	tst.w	r1, #256
	bne.w	.LBB0_49
.Ltmp37:
@ %bb.14:
	@DEBUG_VALUE: DISPLAY_Service:read_byte <- [DW_OP_plus_uconst 3] [$sp+0]
	.loc	1 237 12 is_stmt 1      @ ../Src/display.c:237:12
	lsls	r0, r0, #22
	bmi.w	.LBB0_51
.Ltmp38:
@ %bb.15:
	@DEBUG_VALUE: DISPLAY_Service:read_byte <- [DW_OP_plus_uconst 3] [$sp+0]
	.loc	1 243 23                @ ../Src/display.c:243:23
	movw	r5, :lower16:servisMenu
	movt	r5, :upper16:servisMenu
	ldrb	r0, [r5]
.Ltmp39:
	.loc	1 243 12 is_stmt 0      @ ../Src/display.c:243:12
	cmp	r0, #2
	blo.w	.LBB0_52
.Ltmp40:
@ %bb.16:
	@DEBUG_VALUE: DISPLAY_Service:read_byte <- [DW_OP_plus_uconst 3] [$sp+0]
	.loc	1 245 9 is_stmt 1       @ ../Src/display.c:245:9
	bl	HAL_GetTick
	.loc	1 245 25 is_stmt 0      @ ../Src/display.c:245:25
	movw	r1, :lower16:display_menu_timeout_timer
	movt	r1, :upper16:display_menu_timeout_timer
	ldr	r1, [r1]
	.loc	1 245 23                @ ../Src/display.c:245:23
	subs	r0, r0, r1
	.loc	1 245 56                @ ../Src/display.c:245:56
	movw	r1, :lower16:display_menu_timeout_time
	movt	r1, :upper16:display_menu_timeout_time
	ldr	r1, [r1]
	movw	r6, #65535
.Ltmp41:
	.loc	1 245 8                 @ ../Src/display.c:245:8
	cmp	r0, r1
	bhs.w	.LBB0_65
.Ltmp42:
@ %bb.17:
	@DEBUG_VALUE: DISPLAY_Service:read_byte <- [DW_OP_plus_uconst 3] [$sp+0]
	.loc	1 250 15 is_stmt 1      @ ../Src/display.c:250:15
	movw	r0, :lower16:font_size
	movt	r0, :upper16:font_size
	movs	r1, #2
	strb	r1, [r0]
	.loc	1 251 17                @ ../Src/display.c:251:17
	movw	r7, :lower16:POINT_COLOR
	movt	r7, :upper16:POINT_COLOR
	strh	r6, [r7]
.Ltmp43:
	.loc	1 253 19                @ ../Src/display.c:253:19
	ldrb	r0, [r5]
.Ltmp44:
	.loc	1 253 8 is_stmt 0       @ ../Src/display.c:253:8
	cmp	r0, #3
	beq.w	.LBB0_20
.Ltmp45:
@ %bb.18:
	@DEBUG_VALUE: DISPLAY_Service:read_byte <- [DW_OP_plus_uconst 3] [$sp+0]
	cmp	r0, #2
	bne.w	.LBB0_2
.Ltmp46:
@ %bb.19:
	@DEBUG_VALUE: DISPLAY_Service:read_byte <- [DW_OP_plus_uconst 3] [$sp+0]
	.loc	1 0 8                   @ ../Src/display.c:0:8
	movs	r4, #0
.Ltmp47:
	.loc	1 255 21 is_stmt 1      @ ../Src/display.c:255:21
	movs	r0, #0
	bl	LCD_Clear
	.loc	1 257 33                @ ../Src/display.c:257:33
	strh	r6, [r7]
	.loc	1 256 32                @ ../Src/display.c:256:32
	movw	r0, :lower16:BACK_COLOR
	movt	r0, :upper16:BACK_COLOR
	strh	r4, [r0]
	.loc	1 258 21                @ ../Src/display.c:258:21
	movw	r2, :lower16:settings_item_1
	movt	r2, :upper16:settings_item_1
	movs	r0, #0
	movs	r1, #20
	bl	LCD_ShowString
	.loc	1 259 21                @ ../Src/display.c:259:21
	movw	r2, :lower16:settings_item_2
	movt	r2, :upper16:settings_item_2
	movs	r0, #0
	movs	r1, #40
	bl	LCD_ShowString
	.loc	1 260 21                @ ../Src/display.c:260:21
	movw	r2, :lower16:settings_item_3
	movt	r2, :upper16:settings_item_3
	movs	r0, #0
	movs	r1, #60
	bl	LCD_ShowString
	.loc	1 261 21                @ ../Src/display.c:261:21
	movw	r2, :lower16:settings_item_4
	movt	r2, :upper16:settings_item_4
	movs	r0, #0
	movs	r1, #80
	bl	LCD_ShowString
	.loc	1 262 21                @ ../Src/display.c:262:21
	movw	r2, :lower16:settings_item_5
	movt	r2, :upper16:settings_item_5
	movs	r0, #0
	movs	r1, #100
	bl	LCD_ShowString
	.loc	1 263 21                @ ../Src/display.c:263:21
	movw	r2, :lower16:settings_item_6
	movt	r2, :upper16:settings_item_6
	movs	r0, #0
	movs	r1, #120
	bl	LCD_ShowString
	.loc	1 264 21                @ ../Src/display.c:264:21
	movw	r2, :lower16:settings_item_7
	movt	r2, :upper16:settings_item_7
	movs	r0, #0
	movs	r1, #140
	bl	LCD_ShowString
	.loc	1 265 21                @ ../Src/display.c:265:21
	movw	r2, :lower16:settings_item_8
	movt	r2, :upper16:settings_item_8
	movs	r0, #0
	movs	r1, #160
	bl	LCD_ShowString
	.loc	1 266 21                @ ../Src/display.c:266:21
	movw	r2, :lower16:button_label_1
	movt	r2, :upper16:button_label_1
	movs	r0, #10
	movs	r1, #200
	bl	LCD_ShowString
	.loc	1 267 21                @ ../Src/display.c:267:21
	movw	r2, :lower16:button_label_2
	movt	r2, :upper16:button_label_2
	movs	r0, #10
	movs	r1, #220
	bl	LCD_ShowString
	.loc	1 269 58                @ ../Src/display.c:269:58
	movw	r0, :lower16:system_id
	movt	r0, :upper16:system_id
	ldrb	r1, [r0]
	.loc	1 269 80 is_stmt 0      @ ../Src/display.c:269:80
	ldrb	r2, [r0, #1]
	.loc	1 269 21                @ ../Src/display.c:269:21
	adds	r0, r5, #3
	.loc	1 269 78                @ ../Src/display.c:269:78
	orr.w	r1, r2, r1, lsl #8
	.loc	1 269 21                @ ../Src/display.c:269:21
	movs	r2, #5
	bl	Int2StrSized
	.loc	1 270 21 is_stmt 1      @ ../Src/display.c:270:21
	ldrb	r2, [r5, #3]
	movs	r0, #250
	movs	r1, #60
	bl	LCD_ShowChar
	.loc	1 271 21                @ ../Src/display.c:271:21
	ldrb	r2, [r5, #4]
	mov.w	r0, #260
	movs	r1, #60
	bl	LCD_ShowChar
	.loc	1 272 21                @ ../Src/display.c:272:21
	ldrb	r2, [r5, #5]
	mov.w	r0, #270
	movs	r1, #60
	bl	LCD_ShowChar
	.loc	1 273 21                @ ../Src/display.c:273:21
	ldrb	r2, [r5, #6]
	mov.w	r0, #280
	movs	r1, #60
	bl	LCD_ShowChar
	.loc	1 274 21                @ ../Src/display.c:274:21
	ldrb	r2, [r5, #7]
	mov.w	r0, #290
	movs	r1, #60
	bl	LCD_ShowChar
	.loc	1 276 58                @ ../Src/display.c:276:58
	movw	r0, :lower16:rs485_interface_address
	movt	r0, :upper16:rs485_interface_address
	ldrb	r1, [r0]
	.loc	1 276 94 is_stmt 0      @ ../Src/display.c:276:94
	ldrb	r2, [r0, #1]
	.loc	1 276 21                @ ../Src/display.c:276:21
	add.w	r0, r5, #11
	.loc	1 276 92                @ ../Src/display.c:276:92
	orr.w	r1, r2, r1, lsl #8
	.loc	1 276 21                @ ../Src/display.c:276:21
	movs	r2, #5
	bl	Int2StrSized
	.loc	1 277 21 is_stmt 1      @ ../Src/display.c:277:21
	ldrb	r2, [r5, #11]
	movs	r0, #250
	movs	r1, #80
	bl	LCD_ShowChar
	.loc	1 278 21                @ ../Src/display.c:278:21
	ldrb	r2, [r5, #12]
	mov.w	r0, #260
	movs	r1, #80
	bl	LCD_ShowChar
	.loc	1 279 21                @ ../Src/display.c:279:21
	ldrb	r2, [r5, #13]
	mov.w	r0, #270
	movs	r1, #80
	bl	LCD_ShowChar
	.loc	1 280 21                @ ../Src/display.c:280:21
	ldrb	r2, [r5, #14]
	mov.w	r0, #280
	movs	r1, #80
	bl	LCD_ShowChar
	.loc	1 281 21                @ ../Src/display.c:281:21
	ldrb	r2, [r5, #15]
	mov.w	r0, #290
	movs	r1, #80
	bl	LCD_ShowChar
	.loc	1 283 21                @ ../Src/display.c:283:21
	add.w	r2, r5, #19
	movw	r4, :lower16:DISPLAY_Service.time_d
	movt	r4, :upper16:DISPLAY_Service.time_d
	mov	r0, r4
	movs	r1, #1
	bl	Hex2Str
	.loc	1 284 21                @ ../Src/display.c:284:21
	adds	r0, r4, #1
	add.w	r2, r5, #21
	movs	r1, #1
	bl	Hex2Str
	.loc	1 285 21                @ ../Src/display.c:285:21
	movw	r4, :lower16:DISPLAY_Service.date_d
	movt	r4, :upper16:DISPLAY_Service.date_d
	adds	r0, r4, #2
	add.w	r2, r5, #23
	movs	r1, #1
	bl	Hex2Str
	.loc	1 286 21                @ ../Src/display.c:286:21
	adds	r0, r4, #1
	add.w	r2, r5, #25
	movs	r1, #1
	bl	Hex2Str
	.loc	1 287 21                @ ../Src/display.c:287:21
	adds	r0, r4, #3
	add.w	r2, r5, #27
	movs	r1, #1
	bl	Hex2Str
	.loc	1 289 21                @ ../Src/display.c:289:21
	ldrb	r2, [r5, #19]
	movs	r0, #150
	movs	r1, #160
	bl	LCD_ShowChar
	.loc	1 290 21                @ ../Src/display.c:290:21
	ldrb	r2, [r5, #20]
	movs	r0, #160
	movs	r1, #160
	bl	LCD_ShowChar
	.loc	1 291 21                @ ../Src/display.c:291:21
	movs	r0, #170
	movs	r1, #160
	movs	r2, #58
	bl	LCD_ShowChar
	.loc	1 292 21                @ ../Src/display.c:292:21
	ldrb	r2, [r5, #21]
	movs	r0, #180
	movs	r1, #160
	bl	LCD_ShowChar
	.loc	1 293 21                @ ../Src/display.c:293:21
	ldrb	r2, [r5, #22]
	movs	r0, #190
	movs	r1, #160
	bl	LCD_ShowChar
	.loc	1 294 21                @ ../Src/display.c:294:21
	movs	r0, #200
	movs	r1, #160
	movs	r2, #32
	bl	LCD_ShowChar
	.loc	1 295 21                @ ../Src/display.c:295:21
	ldrb	r2, [r5, #23]
	movs	r0, #210
	movs	r1, #160
	bl	LCD_ShowChar
	.loc	1 296 21                @ ../Src/display.c:296:21
	ldrb	r2, [r5, #24]
	movs	r0, #220
	movs	r1, #160
	bl	LCD_ShowChar
	.loc	1 297 21                @ ../Src/display.c:297:21
	movs	r0, #230
	movs	r1, #160
	movs	r2, #46
	bl	LCD_ShowChar
	.loc	1 298 21                @ ../Src/display.c:298:21
	ldrb	r2, [r5, #25]
	movs	r0, #240
	movs	r1, #160
	bl	LCD_ShowChar
	.loc	1 299 21                @ ../Src/display.c:299:21
	ldrb	r2, [r5, #26]
	movs	r0, #250
	movs	r1, #160
	bl	LCD_ShowChar
	.loc	1 300 21                @ ../Src/display.c:300:21
	mov.w	r0, #260
	movs	r1, #160
	movs	r2, #46
	bl	LCD_ShowChar
	.loc	1 301 21                @ ../Src/display.c:301:21
	mov.w	r0, #270
	movs	r1, #160
	movs	r2, #50
	bl	LCD_ShowChar
	.loc	1 302 21                @ ../Src/display.c:302:21
	mov.w	r0, #280
	movs	r1, #160
	movs	r2, #48
	bl	LCD_ShowChar
	.loc	1 303 21                @ ../Src/display.c:303:21
	ldrb	r2, [r5, #27]
	mov.w	r0, #290
	movs	r1, #160
	bl	LCD_ShowChar
	.loc	1 304 21                @ ../Src/display.c:304:21
	ldrb	r2, [r5, #28]
	mov.w	r0, #300
	movs	r1, #160
	bl	LCD_ShowChar
	movs	r0, #3
	.loc	1 305 37                @ ../Src/display.c:305:37
	strb	r0, [r5]
.Ltmp48:
.LBB0_20:
	@DEBUG_VALUE: DISPLAY_Service:read_byte <- [DW_OP_plus_uconst 3] [$sp+0]
	.loc	1 310 39                @ ../Src/display.c:310:39
	ldrb	r0, [r5, #1]
	.loc	1 310 21 is_stmt 0      @ ../Src/display.c:310:21
	cmp	r0, #19
	bhi.w	.LBB0_88
.Ltmp49:
@ %bb.21:
	@DEBUG_VALUE: DISPLAY_Service:read_byte <- [DW_OP_plus_uconst 3] [$sp+0]
	.loc	1 0 21                  @ ../Src/display.c:0:21
.LCPI0_10:
	tbh	[pc, r0, lsl #1]
.Ltmp50:
@ %bb.22:
.LJTI0_1:
	.short	(.LBB0_23-(.LCPI0_10+4))/2
	.short	(.LBB0_67-(.LCPI0_10+4))/2
	.short	(.LBB0_68-(.LCPI0_10+4))/2
	.short	(.LBB0_69-(.LCPI0_10+4))/2
	.short	(.LBB0_70-(.LCPI0_10+4))/2
	.short	(.LBB0_71-(.LCPI0_10+4))/2
	.short	(.LBB0_72-(.LCPI0_10+4))/2
	.short	(.LBB0_73-(.LCPI0_10+4))/2
	.short	(.LBB0_74-(.LCPI0_10+4))/2
	.short	(.LBB0_75-(.LCPI0_10+4))/2
	.short	(.LBB0_76-(.LCPI0_10+4))/2
	.short	(.LBB0_77-(.LCPI0_10+4))/2
	.short	(.LBB0_78-(.LCPI0_10+4))/2
	.short	(.LBB0_79-(.LCPI0_10+4))/2
	.short	(.LBB0_80-(.LCPI0_10+4))/2
	.short	(.LBB0_81-(.LCPI0_10+4))/2
	.short	(.LBB0_82-(.LCPI0_10+4))/2
	.short	(.LBB0_83-(.LCPI0_10+4))/2
	.short	(.LBB0_84-(.LCPI0_10+4))/2
	.short	(.LBB0_85-(.LCPI0_10+4))/2
	.p2align	1
.LBB0_23:
.Ltmp51:
	@DEBUG_VALUE: DISPLAY_Service:read_byte <- [DW_OP_plus_uconst 3] [$sp+0]
	.loc	1 314 29 is_stmt 1      @ ../Src/display.c:314:29
	ldrb	r2, [r5, #27]
	mov.w	r0, #290
	movs	r1, #160
	bl	LCD_ShowChar
	.loc	1 315 29                @ ../Src/display.c:315:29
	ldrb	r2, [r5, #28]
	mov.w	r0, #300
	movs	r1, #160
	bl	LCD_ShowChar
	movs	r0, #0
	.loc	1 317 41                @ ../Src/display.c:317:41
	strh	r0, [r7]
	.loc	1 316 40                @ ../Src/display.c:316:40
	movw	r0, :lower16:BACK_COLOR
	movt	r0, :upper16:BACK_COLOR
	movw	r1, #50712
	strh	r1, [r0]
	.loc	1 318 29                @ ../Src/display.c:318:29
	movw	r2, :lower16:settings_item_1
	movt	r2, :upper16:settings_item_1
	movs	r0, #0
	movs	r1, #20
	bl	LCD_ShowString
	b	.LBB0_88
.Ltmp52:
.LBB0_24:
	@DEBUG_VALUE: DISPLAY_Service:read_byte <- [DW_OP_plus_uconst 3] [$sp+0]
	.loc	1 205 54                @ ../Src/display.c:205:54
	lsls	r0, r1, #13
	bmi	.LBB0_26
.Ltmp53:
@ %bb.25:
	@DEBUG_VALUE: DISPLAY_Service:read_byte <- [DW_OP_plus_uconst 3] [$sp+0]
	.loc	1 205 57 is_stmt 0      @ ../Src/display.c:205:57
	ldr	r0, [r7]
.Ltmp54:
	.loc	1 205 21                @ ../Src/display.c:205:21
	tst.w	r0, #524288
	beq.w	.LBB0_10
.Ltmp55:
.LBB0_26:
	@DEBUG_VALUE: DISPLAY_Service:read_byte <- [DW_OP_plus_uconst 3] [$sp+0]
	.loc	1 207 27 is_stmt 1      @ ../Src/display.c:207:27
	movw	r4, :lower16:font_size
	movt	r4, :upper16:font_size
	movs	r0, #2
	strb	r0, [r4]
	.loc	1 208 17                @ ../Src/display.c:208:17
	movw	r2, :lower16:.L.str
	movt	r2, :upper16:.L.str
	movs	r0, #0
	movs	r1, #188
	bl	LCD_ShowString
	.loc	1 209 27                @ ../Src/display.c:209:27
	movs	r0, #3
	strb	r0, [r4]
.Ltmp56:
	.loc	1 211 26                @ ../Src/display.c:211:26
	ldr	r0, [r7]
.Ltmp57:
	.loc	1 211 26 is_stmt 0      @ ../Src/display.c:211:26
	tst.w	r0, #262144
	bne	.LBB0_42
.Ltmp58:
@ %bb.27:
	@DEBUG_VALUE: DISPLAY_Service:read_byte <- [DW_OP_plus_uconst 3] [$sp+0]
	.loc	1 212 26 is_stmt 1      @ ../Src/display.c:212:26
	ldr	r0, [r7]
.Ltmp59:
	.loc	1 212 26 is_stmt 0      @ ../Src/display.c:212:26
	tst.w	r0, #524288
	beq	.LBB0_44
.Ltmp60:
@ %bb.28:
	@DEBUG_VALUE: DISPLAY_Service:read_byte <- [DW_OP_plus_uconst 3] [$sp+0]
	.loc	1 212 73                @ ../Src/display.c:212:73
	movw	r2, :lower16:.L.str.13
	movt	r2, :upper16:.L.str.13
	b	.LBB0_43
.Ltmp61:
.LBB0_29:
	@DEBUG_VALUE: DISPLAY_Service:read_byte <- [DW_OP_plus_uconst 3] [$sp+0]
	.loc	1 161 34 is_stmt 1      @ ../Src/display.c:161:34
	mov.w	r0, #2000
	str	r0, [r6]
	.loc	1 162 31                @ ../Src/display.c:162:31
	movw	r4, :lower16:font_size
	movt	r4, :upper16:font_size
	movs	r0, #2
	strb	r0, [r4]
	.loc	1 160 21                @ ../Src/display.c:160:21
	ldr	r0, [r7]
	orr	r0, r0, #65536
	str	r0, [r7]
	.loc	1 163 21                @ ../Src/display.c:163:21
	movw	r2, :lower16:.L.str
	movt	r2, :upper16:.L.str
	movs	r0, #0
	movs	r1, #188
	bl	LCD_ShowString
	.loc	1 164 31                @ ../Src/display.c:164:31
	movs	r0, #3
	strb	r0, [r4]
.Ltmp62:
	.loc	1 166 24                @ ../Src/display.c:166:24
	ldr	r0, [r7]
	.loc	1 166 59 is_stmt 0      @ ../Src/display.c:166:59
	tst.w	r0, #1
	bne	.LBB0_35
.Ltmp63:
@ %bb.30:
	@DEBUG_VALUE: DISPLAY_Service:read_byte <- [DW_OP_plus_uconst 3] [$sp+0]
	.loc	1 166 62                @ ../Src/display.c:166:62
	ldr	r0, [r7]
.Ltmp64:
	.loc	1 166 24                @ ../Src/display.c:166:24
	tst.w	r0, #2
	bne	.LBB0_35
.Ltmp65:
@ %bb.31:
	@DEBUG_VALUE: DISPLAY_Service:read_byte <- [DW_OP_plus_uconst 3] [$sp+0]
	.loc	1 178 81 is_stmt 1      @ ../Src/display.c:178:81
	adr.w	r2, .LCPI0_2
	movs	r0, #0
	movs	r1, #214
	bl	LCD_ShowString
.Ltmp66:
	.loc	1 179 34                @ ../Src/display.c:179:34
	movw	r4, :lower16:activ_command
	movt	r4, :upper16:activ_command
	ldrb	r1, [r4]
.Ltmp67:
	.loc	1 179 34 is_stmt 0      @ ../Src/display.c:179:34
	sub.w	r0, r1, #119
	cmp	r0, #4
	bhi.w	.LBB0_57
.Ltmp68:
@ %bb.32:
	@DEBUG_VALUE: DISPLAY_Service:read_byte <- [DW_OP_plus_uconst 3] [$sp+0]
	.loc	1 0 34                  @ ../Src/display.c:0:34
.LCPI0_11:
	tbh	[pc, r0, lsl #1]
.Ltmp69:
@ %bb.33:
.LJTI0_0:
	.short	(.LBB0_34-(.LCPI0_11+4))/2
	.short	(.LBB0_59-(.LCPI0_11+4))/2
	.short	(.LBB0_60-(.LCPI0_11+4))/2
	.short	(.LBB0_61-(.LCPI0_11+4))/2
	.short	(.LBB0_62-(.LCPI0_11+4))/2
	.p2align	1
.LBB0_34:
.Ltmp70:
	@DEBUG_VALUE: DISPLAY_Service:read_byte <- [DW_OP_plus_uconst 3] [$sp+0]
	.loc	1 179 81                @ ../Src/display.c:179:81
	adr.w	r2, .LCPI0_7
	b	.LBB0_63
.Ltmp71:
.LBB0_35:
	@DEBUG_VALUE: DISPLAY_Service:read_byte <- [DW_OP_plus_uconst 3] [$sp+0]
	.loc	1 168 34 is_stmt 1      @ ../Src/display.c:168:34
	ldr	r0, [r7]
.Ltmp72:
	.loc	1 168 34 is_stmt 0      @ ../Src/display.c:168:34
	tst.w	r0, #1
	bne	.LBB0_46
.Ltmp73:
@ %bb.36:
	@DEBUG_VALUE: DISPLAY_Service:read_byte <- [DW_OP_plus_uconst 3] [$sp+0]
	.loc	1 169 33 is_stmt 1      @ ../Src/display.c:169:33
	ldr	r0, [r7]
.Ltmp74:
	.loc	1 169 33 is_stmt 0      @ ../Src/display.c:169:33
	tst.w	r0, #2
	beq	.LBB0_48
.Ltmp75:
@ %bb.37:
	@DEBUG_VALUE: DISPLAY_Service:read_byte <- [DW_OP_plus_uconst 3] [$sp+0]
	.loc	1 169 81                @ ../Src/display.c:169:81
	adr.w	r2, .LCPI0_1
	b	.LBB0_47
.Ltmp76:
.LBB0_38:
	@DEBUG_VALUE: DISPLAY_Service:read_byte <- [DW_OP_plus_uconst 3] [$sp+0]
	.loc	1 201 45 is_stmt 1      @ ../Src/display.c:201:45
	movw	r2, :lower16:.L.str.10
	movt	r2, :upper16:.L.str.10
.Ltmp77:
.LBB0_39:
	@DEBUG_VALUE: DISPLAY_Service:read_byte <- [DW_OP_plus_uconst 3] [$sp+0]
	.loc	1 0 45 is_stmt 0        @ ../Src/display.c:0:45
	movs	r0, #0
	b	.LBB0_64
.Ltmp78:
.LBB0_40:
	@DEBUG_VALUE: DISPLAY_Service:read_byte <- [DW_OP_plus_uconst 3] [$sp+0]
	.loc	1 221 47 is_stmt 1      @ ../Src/display.c:221:47
	movw	r0, :lower16:dout_0_7
	movt	r0, :upper16:dout_0_7
	ldrsb.w	r0, [r0]
	.loc	1 221 63 is_stmt 0      @ ../Src/display.c:221:63
	cmp	r0, #0
	blt.w	.LBB0_11
.Ltmp79:
@ %bb.41:
	@DEBUG_VALUE: DISPLAY_Service:read_byte <- [DW_OP_plus_uconst 3] [$sp+0]
	.loc	1 221 104               @ ../Src/display.c:221:104
	movw	r0, :lower16:servisMenu
	movt	r0, :upper16:servisMenu
	.loc	1 221 89                @ ../Src/display.c:221:89
	ldrb	r0, [r0]
	.loc	1 221 66                @ ../Src/display.c:221:66
	ldr	r1, [r5]
	.loc	1 221 89                @ ../Src/display.c:221:89
	tst.w	r1, #1
	bne.w	.LBB0_12
	b	.LBB0_13
.Ltmp80:
.LBB0_42:
	@DEBUG_VALUE: DISPLAY_Service:read_byte <- [DW_OP_plus_uconst 3] [$sp+0]
	.loc	1 211 73 is_stmt 1      @ ../Src/display.c:211:73
	adr.w	r2, .LCPI0_9
.Ltmp81:
.LBB0_43:
	@DEBUG_VALUE: DISPLAY_Service:read_byte <- [DW_OP_plus_uconst 3] [$sp+0]
	.loc	1 0 73 is_stmt 0        @ ../Src/display.c:0:73
	movs	r0, #0
	movs	r1, #214
	bl	LCD_ShowString
.Ltmp82:
.LBB0_44:
	@DEBUG_VALUE: DISPLAY_Service:read_byte <- [DW_OP_plus_uconst 3] [$sp+0]
	.loc	1 214 17 is_stmt 1      @ ../Src/display.c:214:17
	ldr	r0, [r7]
	bic	r0, r0, #524288
	str	r0, [r7]
	.loc	1 216 30                @ ../Src/display.c:216:30
	mov.w	r0, #2000
	str	r0, [r6]
	.loc	1 215 17                @ ../Src/display.c:215:17
	ldr	r0, [r7]
	bic	r0, r0, #262144
.Ltmp83:
.LBB0_45:
	@DEBUG_VALUE: DISPLAY_Service:read_byte <- [DW_OP_plus_uconst 3] [$sp+0]
	.loc	1 0 17 is_stmt 0        @ ../Src/display.c:0:17
	str	r0, [r7]
	.loc	1 596 1 is_stmt 1       @ ../Src/display.c:596:1
	add	sp, #68
.Ltmp84:
	pop	{r4, r5, r6, r7, pc}
.LBB0_46:
.Ltmp85:
	@DEBUG_VALUE: DISPLAY_Service:read_byte <- [DW_OP_plus_uconst 3] [$sp+0]
	.loc	1 168 81                @ ../Src/display.c:168:81
	adr.w	r2, .LCPI0_0
.Ltmp86:
.LBB0_47:
	@DEBUG_VALUE: DISPLAY_Service:read_byte <- [DW_OP_plus_uconst 3] [$sp+0]
	.loc	1 0 81 is_stmt 0        @ ../Src/display.c:0:81
	movs	r0, #0
	movs	r1, #214
	bl	LCD_ShowString
.Ltmp87:
.LBB0_48:
	@DEBUG_VALUE: DISPLAY_Service:read_byte <- [DW_OP_plus_uconst 3] [$sp+0]
	.loc	1 171 25 is_stmt 1      @ ../Src/display.c:171:25
	ldr	r0, [r7]
	bic	r0, r0, #1
	str	r0, [r7]
	.loc	1 172 25                @ ../Src/display.c:172:25
	ldr	r0, [r7]
	bic	r0, r0, #2
	str	r0, [r7]
	.loc	1 173 25                @ ../Src/display.c:173:25
	ldr	r0, [r7]
	bic	r0, r0, #65536
	str	r0, [r7]
	.loc	1 174 25                @ ../Src/display.c:174:25
	ldr	r0, [r7]
	orr	r0, r0, #-2147483648
	str	r0, [r7]
	.loc	1 175 25                @ ../Src/display.c:175:25
	ldr	r0, [r5]
	bic	r0, r0, #1
	str	r0, [r5]
.Ltmp88:
	.loc	1 596 1                 @ ../Src/display.c:596:1
	add	sp, #68
.Ltmp89:
	pop	{r4, r5, r6, r7, pc}
.LBB0_49:
.Ltmp90:
	@DEBUG_VALUE: DISPLAY_Service:read_byte <- [DW_OP_plus_uconst 3] [$sp+0]
	.loc	1 225 5                 @ ../Src/display.c:225:5
	bic	r0, r0, #256
	str	r0, [r7]
	.loc	1 226 18                @ ../Src/display.c:226:18
	movw	r0, #5000
	str	r0, [r6]
	.loc	1 227 21                @ ../Src/display.c:227:21
	movw	r4, :lower16:servisMenu
	movt	r4, :upper16:servisMenu
	movs	r0, #0
	strb	r0, [r4]
	.loc	1 225 5                 @ ../Src/display.c:225:5
	ldr	r0, [r7]
	orr	r0, r0, #-2147483648
	str	r0, [r7]
.Ltmp91:
	.loc	1 229 14                @ ../Src/display.c:229:14
	movw	r0, :lower16:sCard
	movt	r0, :upper16:sCard
	ldrb	r0, [r0, #6]
.Ltmp92:
	.loc	1 229 8 is_stmt 0       @ ../Src/display.c:229:8
	cmp	r0, #83
	bne.w	.LBB0_2
.Ltmp93:
@ %bb.50:
	@DEBUG_VALUE: DISPLAY_Service:read_byte <- [DW_OP_plus_uconst 3] [$sp+0]
	.loc	1 232 33 is_stmt 1      @ ../Src/display.c:232:33
	movw	r0, :lower16:POINT_COLOR
	movt	r0, :upper16:POINT_COLOR
	movw	r1, #65535
	strh	r1, [r0]
	.loc	1 231 31                @ ../Src/display.c:231:31
	movw	r0, :lower16:font_size
	movt	r0, :upper16:font_size
	movs	r5, #1
	strb	r5, [r0]
	.loc	1 233 6                 @ ../Src/display.c:233:6
	movw	r2, :lower16:.L.str.14
	movt	r2, :upper16:.L.str.14
	movs	r0, #0
	movs	r1, #224
	bl	LCD_ShowString
	.loc	1 234 22                @ ../Src/display.c:234:22
	strb	r5, [r4]
.Ltmp94:
	.loc	1 596 1                 @ ../Src/display.c:596:1
	add	sp, #68
.Ltmp95:
	pop	{r4, r5, r6, r7, pc}
.LBB0_51:
.Ltmp96:
	@DEBUG_VALUE: DISPLAY_Service:read_byte <- [DW_OP_plus_uconst 3] [$sp+0]
	.loc	1 239 5                 @ ../Src/display.c:239:5
	ldr	r0, [r7]
	bic	r0, r0, #512
	str	r0, [r7]
	.loc	1 240 18                @ ../Src/display.c:240:18
	movw	r0, #5000
	str	r0, [r6]
	.loc	1 241 21                @ ../Src/display.c:241:21
	movw	r0, :lower16:servisMenu
	movt	r0, :upper16:servisMenu
	movs	r1, #0
	strb	r1, [r0]
	.loc	1 239 5                 @ ../Src/display.c:239:5
	ldr	r0, [r7]
	orr	r0, r0, #-2147483648
	b	.LBB0_45
.Ltmp97:
.LBB0_52:
	@DEBUG_VALUE: DISPLAY_Service:read_byte <- [DW_OP_plus_uconst 3] [$sp+0]
	.loc	1 526 12                @ ../Src/display.c:526:12
	ldr	r0, [r7]
.Ltmp98:
	.loc	1 526 12 is_stmt 0      @ ../Src/display.c:526:12
	cmp.w	r0, #-1
	ble.w	.LBB0_66
.Ltmp99:
@ %bb.53:
	@DEBUG_VALUE: DISPLAY_Service:read_byte <- [DW_OP_plus_uconst 3] [$sp+0]
	.loc	1 534 17 is_stmt 1      @ ../Src/display.c:534:17
	movw	r0, :lower16:hrtc
	movt	r0, :upper16:hrtc
	movw	r5, :lower16:DISPLAY_Service.time_d
	movt	r5, :upper16:DISPLAY_Service.time_d
	mov	r1, r5
	movs	r2, #1
	bl	HAL_RTC_GetTime
.Ltmp100:
	.loc	1 536 32                @ ../Src/display.c:536:32
	ldrb	r0, [r5, #2]
	.loc	1 536 20 is_stmt 0      @ ../Src/display.c:536:20
	movw	r1, :lower16:DISPLAY_Service.temp_sec
	movt	r1, :upper16:DISPLAY_Service.temp_sec
	ldr	r2, [r1]
.Ltmp101:
	.loc	1 536 20                @ ../Src/display.c:536:20
	cmp	r2, r0
	beq.w	.LBB0_2
.Ltmp102:
@ %bb.54:
	@DEBUG_VALUE: DISPLAY_Service:read_byte <- [DW_OP_plus_uconst 3] [$sp+0]
	.loc	1 538 30 is_stmt 1      @ ../Src/display.c:538:30
	str	r0, [r1]
	.loc	1 542 21                @ ../Src/display.c:542:21
	movw	r0, :lower16:hrtc
	movt	r0, :upper16:hrtc
	movw	r6, :lower16:DISPLAY_Service.date_d
	movt	r6, :upper16:DISPLAY_Service.date_d
	mov	r1, r6
	movs	r2, #1
	bl	HAL_RTC_GetDate
.Ltmp103:
	.loc	1 544 36                @ ../Src/display.c:544:36
	ldrb	r2, [r6, #2]
	.loc	1 544 24 is_stmt 0      @ ../Src/display.c:544:24
	movw	r0, :lower16:DISPLAY_Service.temp_day
	movt	r0, :upper16:DISPLAY_Service.temp_day
	ldr	r1, [r0]
.Ltmp104:
	.loc	1 544 24                @ ../Src/display.c:544:24
	cmp	r1, r2
	beq	.LBB0_56
.Ltmp105:
@ %bb.55:
	@DEBUG_VALUE: DISPLAY_Service:read_byte <- [DW_OP_plus_uconst 3] [$sp+0]
	.loc	1 546 34 is_stmt 1      @ ../Src/display.c:546:34
	str	r2, [r0]
	.loc	1 547 25                @ ../Src/display.c:547:25
	ldr	r0, [r7]
	orr	r0, r0, #-2147483648
	str	r0, [r7]
	.loc	1 548 25                @ ../Src/display.c:548:25
	movw	r7, :lower16:hrtc
	movt	r7, :upper16:hrtc
	mov	r0, r7
	movs	r1, #2
	bl	HAL_RTCEx_BKUPWrite
	.loc	1 549 65                @ ../Src/display.c:549:65
	ldrb	r2, [r6, #1]
	.loc	1 549 25 is_stmt 0      @ ../Src/display.c:549:25
	mov	r0, r7
	movs	r1, #3
	bl	HAL_RTCEx_BKUPWrite
	.loc	1 550 65 is_stmt 1      @ ../Src/display.c:550:65
	ldrb	r2, [r6]
	.loc	1 550 25 is_stmt 0      @ ../Src/display.c:550:25
	mov	r0, r7
	movs	r1, #4
	bl	HAL_RTCEx_BKUPWrite
	.loc	1 551 65 is_stmt 1      @ ../Src/display.c:551:65
	ldrb	r2, [r6, #3]
	.loc	1 551 25 is_stmt 0      @ ../Src/display.c:551:25
	mov	r0, r7
	movs	r1, #5
	bl	HAL_RTCEx_BKUPWrite
.Ltmp106:
.LBB0_56:
	@DEBUG_VALUE: DISPLAY_Service:read_byte <- [DW_OP_plus_uconst 3] [$sp+0]
	.loc	1 554 21 is_stmt 1      @ ../Src/display.c:554:21
	adds	r0, r6, #2
	movs	r1, #1
	mov	r2, r4
	bl	Hex2Str
	.loc	1 555 34                @ ../Src/display.c:555:34
	movs	r0, #46
	strb.w	r0, [sp, #6]
	.loc	1 556 21                @ ../Src/display.c:556:21
	adds	r0, r6, #1
	.loc	1 556 49 is_stmt 0      @ ../Src/display.c:556:49
	adds	r2, r4, #3
	.loc	1 556 21                @ ../Src/display.c:556:21
	movs	r1, #1
	bl	Hex2Str
	.loc	1 559 34 is_stmt 1      @ ../Src/display.c:559:34
	movs	r0, #48
	strb.w	r0, [sp, #11]
	.loc	1 557 34                @ ../Src/display.c:557:34
	movw	r0, #12846
	strh.w	r0, [sp, #9]
	.loc	1 560 21                @ ../Src/display.c:560:21
	adds	r0, r6, #3
	.loc	1 560 48 is_stmt 0      @ ../Src/display.c:560:48
	add.w	r2, r4, #8
	.loc	1 560 21                @ ../Src/display.c:560:21
	movs	r1, #1
	bl	Hex2Str
	.loc	1 561 35 is_stmt 1      @ ../Src/display.c:561:35
	movw	r0, #8238
	strh.w	r0, [sp, #14]
	.loc	1 563 49                @ ../Src/display.c:563:49
	add.w	r2, r4, #12
	.loc	1 563 21 is_stmt 0      @ ../Src/display.c:563:21
	mov	r0, r5
	movs	r1, #1
	bl	Hex2Str
	.loc	1 564 35 is_stmt 1      @ ../Src/display.c:564:35
	movs	r6, #58
	strb.w	r6, [sp, #18]
	.loc	1 565 21                @ ../Src/display.c:565:21
	adds	r0, r5, #1
	.loc	1 565 51 is_stmt 0      @ ../Src/display.c:565:51
	add.w	r2, r4, #15
	.loc	1 565 21                @ ../Src/display.c:565:21
	movs	r1, #1
	bl	Hex2Str
	.loc	1 566 35 is_stmt 1      @ ../Src/display.c:566:35
	strb.w	r6, [sp, #21]
	.loc	1 567 21                @ ../Src/display.c:567:21
	adds	r0, r5, #2
	.loc	1 567 51 is_stmt 0      @ ../Src/display.c:567:51
	add.w	r2, r4, #18
	.loc	1 567 21                @ ../Src/display.c:567:21
	movs	r1, #1
	bl	Hex2Str
	.loc	1 569 31 is_stmt 1      @ ../Src/display.c:569:31
	movw	r0, :lower16:font_size
	movt	r0, :upper16:font_size
	movs	r1, #3
	strb	r1, [r0]
	movs	r0, #0
	.loc	1 568 35                @ ../Src/display.c:568:35
	strb.w	r0, [sp, #24]
	.loc	1 570 21                @ ../Src/display.c:570:21
	movs	r0, #0
	movs	r1, #214
	mov	r2, r4
	bl	LCD_ShowString
.Ltmp107:
	.loc	1 596 1                 @ ../Src/display.c:596:1
	add	sp, #68
.Ltmp108:
	pop	{r4, r5, r6, r7, pc}
.LBB0_57:
.Ltmp109:
	@DEBUG_VALUE: DISPLAY_Service:read_byte <- [DW_OP_plus_uconst 3] [$sp+0]
	.loc	1 184 78                @ ../Src/display.c:184:78
	sub.w	r0, r1, #100
	uxtb	r0, r0
	cmp	r0, #28
	bhi.w	.LBB0_2
.Ltmp110:
@ %bb.58:
	@DEBUG_VALUE: DISPLAY_Service:read_byte <- [DW_OP_plus_uconst 3] [$sp+0]
	.loc	1 186 29                @ ../Src/display.c:186:29
	adr.w	r2, .LCPI0_8
	movs	r0, #140
	movs	r1, #214
	bl	LCD_ShowString
	.loc	1 187 57                @ ../Src/display.c:187:57
	ldrb	r0, [r4]
	.loc	1 187 71 is_stmt 0      @ ../Src/display.c:187:71
	sub.w	r2, r0, #99
	.loc	1 187 29                @ ../Src/display.c:187:29
	mov.w	r0, #260
	movs	r1, #214
	movs	r3, #2
	bl	LCD_ShowNum
.Ltmp111:
	.loc	1 596 1 is_stmt 1       @ ../Src/display.c:596:1
	add	sp, #68
.Ltmp112:
	pop	{r4, r5, r6, r7, pc}
.LBB0_59:
.Ltmp113:
	@DEBUG_VALUE: DISPLAY_Service:read_byte <- [DW_OP_plus_uconst 3] [$sp+0]
	.loc	1 180 81                @ ../Src/display.c:180:81
	adr.w	r2, .LCPI0_6
	b	.LBB0_63
.Ltmp114:
.LBB0_60:
	@DEBUG_VALUE: DISPLAY_Service:read_byte <- [DW_OP_plus_uconst 3] [$sp+0]
	.loc	1 181 81                @ ../Src/display.c:181:81
	adr.w	r2, .LCPI0_5
	b	.LBB0_63
.Ltmp115:
.LBB0_61:
	@DEBUG_VALUE: DISPLAY_Service:read_byte <- [DW_OP_plus_uconst 3] [$sp+0]
	.loc	1 182 81                @ ../Src/display.c:182:81
	adr.w	r2, .LCPI0_4
	b	.LBB0_63
.Ltmp116:
.LBB0_62:
	@DEBUG_VALUE: DISPLAY_Service:read_byte <- [DW_OP_plus_uconst 3] [$sp+0]
	.loc	1 183 81                @ ../Src/display.c:183:81
	adr.w	r2, .LCPI0_3
.Ltmp117:
.LBB0_63:
	@DEBUG_VALUE: DISPLAY_Service:read_byte <- [DW_OP_plus_uconst 3] [$sp+0]
	.loc	1 0 81 is_stmt 0        @ ../Src/display.c:0:81
	movs	r0, #140
.Ltmp118:
.LBB0_64:
	@DEBUG_VALUE: DISPLAY_Service:read_byte <- [DW_OP_plus_uconst 3] [$sp+0]
	movs	r1, #214
	bl	LCD_ShowString
	.loc	1 596 1 is_stmt 1       @ ../Src/display.c:596:1
	add	sp, #68
.Ltmp119:
	pop	{r4, r5, r6, r7, pc}
.LBB0_65:
.Ltmp120:
	@DEBUG_VALUE: DISPLAY_Service:read_byte <- [DW_OP_plus_uconst 3] [$sp+0]
	.loc	1 250 15                @ ../Src/display.c:250:15
	movw	r0, :lower16:font_size
	movt	r0, :upper16:font_size
	movs	r1, #2
	strb	r1, [r0]
.Ltmp121:
	.loc	1 247 22                @ ../Src/display.c:247:22
	movs	r0, #0
	strb	r0, [r5]
.Ltmp122:
	.loc	1 251 17                @ ../Src/display.c:251:17
	movw	r0, :lower16:POINT_COLOR
	movt	r0, :upper16:POINT_COLOR
	strh	r6, [r0]
.Ltmp123:
	.loc	1 596 1                 @ ../Src/display.c:596:1
	add	sp, #68
.Ltmp124:
	pop	{r4, r5, r6, r7, pc}
.LBB0_66:
.Ltmp125:
	@DEBUG_VALUE: DISPLAY_Service:read_byte <- [DW_OP_plus_uconst 3] [$sp+0]
	.loc	1 528 5                 @ ../Src/display.c:528:5
	ldr	r0, [r7]
	bic	r0, r0, #-2147483648
	str	r0, [r7]
	movs	r4, #0
	.loc	1 529 5                 @ ../Src/display.c:529:5
	movs	r0, #0
	bl	DISPLAY_Image
	.loc	1 530 21                @ ../Src/display.c:530:21
	strb	r4, [r5]
.Ltmp126:
	.loc	1 596 1                 @ ../Src/display.c:596:1
	add	sp, #68
.Ltmp127:
	pop	{r4, r5, r6, r7, pc}
.LBB0_67:
.Ltmp128:
	@DEBUG_VALUE: DISPLAY_Service:read_byte <- [DW_OP_plus_uconst 3] [$sp+0]
	.loc	1 0 1 is_stmt 0         @ ../Src/display.c:0:1
	movs	r4, #0
.Ltmp129:
	.loc	1 324 29 is_stmt 1      @ ../Src/display.c:324:29
	movw	r2, :lower16:settings_item_1
	movt	r2, :upper16:settings_item_1
	movs	r0, #0
	movs	r1, #20
	bl	LCD_ShowString
	.loc	1 326 41                @ ../Src/display.c:326:41
	strh	r4, [r7]
	.loc	1 325 40                @ ../Src/display.c:325:40
	movw	r0, :lower16:BACK_COLOR
	movt	r0, :upper16:BACK_COLOR
	movw	r1, #50712
	strh	r1, [r0]
	.loc	1 327 29                @ ../Src/display.c:327:29
	movw	r2, :lower16:settings_item_2
	movt	r2, :upper16:settings_item_2
	movs	r0, #0
	movs	r1, #40
	bl	LCD_ShowString
	b	.LBB0_88
.Ltmp130:
.LBB0_68:
	@DEBUG_VALUE: DISPLAY_Service:read_byte <- [DW_OP_plus_uconst 3] [$sp+0]
	.loc	1 334 29                @ ../Src/display.c:334:29
	movw	r2, :lower16:settings_item_2
	movt	r2, :upper16:settings_item_2
	movs	r0, #0
	movs	r1, #40
	bl	LCD_ShowString
.Ltmp131:
	.loc	1 335 43                @ ../Src/display.c:335:43
	ldrb	r0, [r5, #2]
.Ltmp132:
	.loc	1 337 29                @ ../Src/display.c:337:29
	ldrb	r2, [r5, #3]
	movw	r1, #33840
	movt	r1, #65535
	.loc	1 335 32                @ ../Src/display.c:335:32
	cmp	r0, #0
	itt	eq
	movweq	r1, #50712
	movteq	r1, #65535
	movw	r0, :lower16:BACK_COLOR
	movt	r0, :upper16:BACK_COLOR
	strh	r1, [r0]
	.loc	1 337 29                @ ../Src/display.c:337:29
	mov.w	r0, #250
	mov.w	r1, #60
	b	.LBB0_87
.Ltmp133:
.LBB0_69:
	@DEBUG_VALUE: DISPLAY_Service:read_byte <- [DW_OP_plus_uconst 3] [$sp+0]
	.loc	1 344 29                @ ../Src/display.c:344:29
	ldrb	r2, [r5, #3]
	movs	r0, #250
	movs	r1, #60
	bl	LCD_ShowChar
.Ltmp134:
	.loc	1 345 43                @ ../Src/display.c:345:43
	ldrb	r0, [r5, #2]
.Ltmp135:
	.loc	1 347 29                @ ../Src/display.c:347:29
	ldrb	r2, [r5, #4]
	movw	r1, #33840
	movt	r1, #65535
	.loc	1 345 32                @ ../Src/display.c:345:32
	cmp	r0, #0
	itt	eq
	movweq	r1, #50712
	movteq	r1, #65535
	movw	r0, :lower16:BACK_COLOR
	movt	r0, :upper16:BACK_COLOR
	strh	r1, [r0]
	.loc	1 347 29                @ ../Src/display.c:347:29
	mov.w	r0, #260
	mov.w	r1, #60
	b	.LBB0_87
.Ltmp136:
.LBB0_70:
	@DEBUG_VALUE: DISPLAY_Service:read_byte <- [DW_OP_plus_uconst 3] [$sp+0]
	.loc	1 354 29                @ ../Src/display.c:354:29
	ldrb	r2, [r5, #4]
	mov.w	r0, #260
	movs	r1, #60
	bl	LCD_ShowChar
.Ltmp137:
	.loc	1 355 43                @ ../Src/display.c:355:43
	ldrb	r0, [r5, #2]
.Ltmp138:
	.loc	1 357 29                @ ../Src/display.c:357:29
	ldrb	r2, [r5, #5]
	movw	r1, #33840
	movt	r1, #65535
	.loc	1 355 32                @ ../Src/display.c:355:32
	cmp	r0, #0
	itt	eq
	movweq	r1, #50712
	movteq	r1, #65535
	movw	r0, :lower16:BACK_COLOR
	movt	r0, :upper16:BACK_COLOR
	strh	r1, [r0]
	.loc	1 357 29                @ ../Src/display.c:357:29
	mov.w	r0, #270
	mov.w	r1, #60
	b	.LBB0_87
.Ltmp139:
.LBB0_71:
	@DEBUG_VALUE: DISPLAY_Service:read_byte <- [DW_OP_plus_uconst 3] [$sp+0]
	.loc	1 364 29                @ ../Src/display.c:364:29
	ldrb	r2, [r5, #5]
	mov.w	r0, #270
	movs	r1, #60
	bl	LCD_ShowChar
.Ltmp140:
	.loc	1 365 43                @ ../Src/display.c:365:43
	ldrb	r0, [r5, #2]
.Ltmp141:
	.loc	1 367 29                @ ../Src/display.c:367:29
	ldrb	r2, [r5, #6]
	movw	r1, #33840
	movt	r1, #65535
	.loc	1 365 32                @ ../Src/display.c:365:32
	cmp	r0, #0
	itt	eq
	movweq	r1, #50712
	movteq	r1, #65535
	movw	r0, :lower16:BACK_COLOR
	movt	r0, :upper16:BACK_COLOR
	strh	r1, [r0]
	.loc	1 367 29                @ ../Src/display.c:367:29
	mov.w	r0, #280
	mov.w	r1, #60
	b	.LBB0_87
.Ltmp142:
.LBB0_72:
	@DEBUG_VALUE: DISPLAY_Service:read_byte <- [DW_OP_plus_uconst 3] [$sp+0]
	.loc	1 374 29                @ ../Src/display.c:374:29
	ldrb	r2, [r5, #6]
	mov.w	r0, #280
	movs	r1, #60
	bl	LCD_ShowChar
.Ltmp143:
	.loc	1 375 43                @ ../Src/display.c:375:43
	ldrb	r0, [r5, #2]
.Ltmp144:
	.loc	1 377 29                @ ../Src/display.c:377:29
	ldrb	r2, [r5, #7]
	movw	r1, #33840
	movt	r1, #65535
	.loc	1 375 32                @ ../Src/display.c:375:32
	cmp	r0, #0
	itt	eq
	movweq	r1, #50712
	movteq	r1, #65535
	movw	r0, :lower16:BACK_COLOR
	movt	r0, :upper16:BACK_COLOR
	strh	r1, [r0]
	.loc	1 377 29                @ ../Src/display.c:377:29
	mov.w	r0, #290
	mov.w	r1, #60
	b	.LBB0_87
.Ltmp145:
.LBB0_73:
	@DEBUG_VALUE: DISPLAY_Service:read_byte <- [DW_OP_plus_uconst 3] [$sp+0]
	.loc	1 384 29                @ ../Src/display.c:384:29
	ldrb	r2, [r5, #7]
	mov.w	r0, #290
	movs	r1, #60
	bl	LCD_ShowChar
	.loc	1 386 41                @ ../Src/display.c:386:41
	movs	r0, #0
	strh	r0, [r7]
	.loc	1 385 40                @ ../Src/display.c:385:40
	movw	r0, :lower16:BACK_COLOR
	movt	r0, :upper16:BACK_COLOR
	movw	r1, #50712
	strh	r1, [r0]
	.loc	1 387 29                @ ../Src/display.c:387:29
	ldrb	r2, [r5, #11]
	movs	r0, #250
	movs	r1, #80
	b	.LBB0_87
.Ltmp146:
.LBB0_74:
	@DEBUG_VALUE: DISPLAY_Service:read_byte <- [DW_OP_plus_uconst 3] [$sp+0]
	.loc	1 394 29                @ ../Src/display.c:394:29
	ldrb	r2, [r5, #11]
	movs	r0, #250
	movs	r1, #80
	bl	LCD_ShowChar
	.loc	1 396 41                @ ../Src/display.c:396:41
	movs	r0, #0
	strh	r0, [r7]
	.loc	1 395 40                @ ../Src/display.c:395:40
	movw	r0, :lower16:BACK_COLOR
	movt	r0, :upper16:BACK_COLOR
	movw	r1, #50712
	strh	r1, [r0]
	.loc	1 397 29                @ ../Src/display.c:397:29
	ldrb	r2, [r5, #12]
	mov.w	r0, #260
	movs	r1, #80
	b	.LBB0_87
.Ltmp147:
.LBB0_75:
	@DEBUG_VALUE: DISPLAY_Service:read_byte <- [DW_OP_plus_uconst 3] [$sp+0]
	.loc	1 404 29                @ ../Src/display.c:404:29
	ldrb	r2, [r5, #12]
	mov.w	r0, #260
	movs	r1, #80
	bl	LCD_ShowChar
	.loc	1 406 41                @ ../Src/display.c:406:41
	movs	r0, #0
	strh	r0, [r7]
	.loc	1 405 40                @ ../Src/display.c:405:40
	movw	r0, :lower16:BACK_COLOR
	movt	r0, :upper16:BACK_COLOR
	movw	r1, #50712
	strh	r1, [r0]
	.loc	1 407 29                @ ../Src/display.c:407:29
	ldrb	r2, [r5, #13]
	mov.w	r0, #270
	movs	r1, #80
	b	.LBB0_87
.Ltmp148:
.LBB0_76:
	@DEBUG_VALUE: DISPLAY_Service:read_byte <- [DW_OP_plus_uconst 3] [$sp+0]
	.loc	1 414 29                @ ../Src/display.c:414:29
	ldrb	r2, [r5, #13]
	mov.w	r0, #270
	movs	r1, #80
	bl	LCD_ShowChar
	.loc	1 416 41                @ ../Src/display.c:416:41
	movs	r0, #0
	strh	r0, [r7]
	.loc	1 415 40                @ ../Src/display.c:415:40
	movw	r0, :lower16:BACK_COLOR
	movt	r0, :upper16:BACK_COLOR
	movw	r1, #50712
	strh	r1, [r0]
	.loc	1 417 29                @ ../Src/display.c:417:29
	ldrb	r2, [r5, #14]
	mov.w	r0, #280
	movs	r1, #80
	b	.LBB0_87
.Ltmp149:
.LBB0_77:
	@DEBUG_VALUE: DISPLAY_Service:read_byte <- [DW_OP_plus_uconst 3] [$sp+0]
	.loc	1 424 29                @ ../Src/display.c:424:29
	ldrb	r2, [r5, #14]
	mov.w	r0, #280
	movs	r1, #80
	bl	LCD_ShowChar
	.loc	1 426 41                @ ../Src/display.c:426:41
	movs	r0, #0
	strh	r0, [r7]
	.loc	1 425 40                @ ../Src/display.c:425:40
	movw	r0, :lower16:BACK_COLOR
	movt	r0, :upper16:BACK_COLOR
	movw	r1, #50712
	strh	r1, [r0]
	.loc	1 427 29                @ ../Src/display.c:427:29
	ldrb	r2, [r5, #15]
	mov.w	r0, #290
	movs	r1, #80
	b	.LBB0_87
.Ltmp150:
.LBB0_78:
	@DEBUG_VALUE: DISPLAY_Service:read_byte <- [DW_OP_plus_uconst 3] [$sp+0]
	.loc	1 434 29                @ ../Src/display.c:434:29
	ldrb	r2, [r5, #15]
	mov.w	r0, #290
	movs	r1, #80
	bl	LCD_ShowChar
	movs	r0, #0
	.loc	1 436 41                @ ../Src/display.c:436:41
	strh	r0, [r7]
	.loc	1 435 40                @ ../Src/display.c:435:40
	movw	r0, :lower16:BACK_COLOR
	movt	r0, :upper16:BACK_COLOR
	movw	r1, #50712
	strh	r1, [r0]
	.loc	1 437 29                @ ../Src/display.c:437:29
	movw	r2, :lower16:settings_item_5
	movt	r2, :upper16:settings_item_5
	movs	r0, #0
	movs	r1, #100
	bl	LCD_ShowString
	b	.LBB0_88
.Ltmp151:
.LBB0_79:
	@DEBUG_VALUE: DISPLAY_Service:read_byte <- [DW_OP_plus_uconst 3] [$sp+0]
	.loc	1 0 29 is_stmt 0        @ ../Src/display.c:0:29
	movs	r4, #0
.Ltmp152:
	.loc	1 443 29 is_stmt 1      @ ../Src/display.c:443:29
	movw	r2, :lower16:settings_item_5
	movt	r2, :upper16:settings_item_5
	movs	r0, #0
	movs	r1, #100
	bl	LCD_ShowString
	.loc	1 445 41                @ ../Src/display.c:445:41
	strh	r4, [r7]
	.loc	1 444 40                @ ../Src/display.c:444:40
	movw	r0, :lower16:BACK_COLOR
	movt	r0, :upper16:BACK_COLOR
	movw	r1, #50712
	strh	r1, [r0]
	.loc	1 446 29                @ ../Src/display.c:446:29
	movw	r2, :lower16:settings_item_6
	movt	r2, :upper16:settings_item_6
	movs	r0, #0
	movs	r1, #120
	bl	LCD_ShowString
	b	.LBB0_88
.Ltmp153:
.LBB0_80:
	@DEBUG_VALUE: DISPLAY_Service:read_byte <- [DW_OP_plus_uconst 3] [$sp+0]
	.loc	1 0 29 is_stmt 0        @ ../Src/display.c:0:29
	movs	r4, #0
.Ltmp154:
	.loc	1 452 29 is_stmt 1      @ ../Src/display.c:452:29
	movw	r2, :lower16:settings_item_6
	movt	r2, :upper16:settings_item_6
	movs	r0, #0
	movs	r1, #120
	bl	LCD_ShowString
	.loc	1 454 41                @ ../Src/display.c:454:41
	strh	r4, [r7]
	.loc	1 453 40                @ ../Src/display.c:453:40
	movw	r0, :lower16:BACK_COLOR
	movt	r0, :upper16:BACK_COLOR
	movw	r1, #50712
	strh	r1, [r0]
	.loc	1 455 29                @ ../Src/display.c:455:29
	movw	r2, :lower16:settings_item_7
	movt	r2, :upper16:settings_item_7
	movs	r0, #0
	movs	r1, #140
	bl	LCD_ShowString
	b	.LBB0_88
.Ltmp155:
.LBB0_81:
	@DEBUG_VALUE: DISPLAY_Service:read_byte <- [DW_OP_plus_uconst 3] [$sp+0]
	.loc	1 0 29 is_stmt 0        @ ../Src/display.c:0:29
	movs	r4, #0
.Ltmp156:
	.loc	1 462 29 is_stmt 1      @ ../Src/display.c:462:29
	movw	r2, :lower16:settings_item_7
	movt	r2, :upper16:settings_item_7
	movs	r0, #0
	movs	r1, #140
	bl	LCD_ShowString
	.loc	1 464 41                @ ../Src/display.c:464:41
	strh	r4, [r7]
	.loc	1 463 40                @ ../Src/display.c:463:40
	movw	r0, :lower16:BACK_COLOR
	movt	r0, :upper16:BACK_COLOR
	movw	r1, #50712
	strh	r1, [r0]
	.loc	1 465 29                @ ../Src/display.c:465:29
	ldrb	r2, [r5, #19]
	movs	r0, #150
	movs	r1, #160
	bl	LCD_ShowChar
	.loc	1 466 29                @ ../Src/display.c:466:29
	ldrb	r2, [r5, #20]
	movs	r0, #160
	b	.LBB0_86
.Ltmp157:
.LBB0_82:
	@DEBUG_VALUE: DISPLAY_Service:read_byte <- [DW_OP_plus_uconst 3] [$sp+0]
	.loc	1 473 29                @ ../Src/display.c:473:29
	ldrb	r2, [r5, #19]
	movs	r0, #150
	movs	r1, #160
	bl	LCD_ShowChar
	.loc	1 474 29                @ ../Src/display.c:474:29
	ldrb	r2, [r5, #20]
	movs	r0, #160
	movs	r1, #160
	bl	LCD_ShowChar
.Ltmp158:
	.loc	1 475 43                @ ../Src/display.c:475:43
	ldrb	r0, [r5, #2]
.Ltmp159:
	.loc	1 477 29                @ ../Src/display.c:477:29
	ldrb	r2, [r5, #21]
	movw	r1, #33840
	movt	r1, #65535
	.loc	1 475 32                @ ../Src/display.c:475:32
	cmp	r0, #0
	itt	eq
	movweq	r1, #50712
	movteq	r1, #65535
	movw	r0, :lower16:BACK_COLOR
	movt	r0, :upper16:BACK_COLOR
	strh	r1, [r0]
	.loc	1 477 29                @ ../Src/display.c:477:29
	mov.w	r0, #180
	mov.w	r1, #160
	bl	LCD_ShowChar
	.loc	1 478 29                @ ../Src/display.c:478:29
	ldrb	r2, [r5, #22]
	mov.w	r0, #190
	b	.LBB0_86
.Ltmp160:
.LBB0_83:
	@DEBUG_VALUE: DISPLAY_Service:read_byte <- [DW_OP_plus_uconst 3] [$sp+0]
	.loc	1 485 29                @ ../Src/display.c:485:29
	ldrb	r2, [r5, #21]
	movs	r0, #180
	movs	r1, #160
	bl	LCD_ShowChar
	.loc	1 486 29                @ ../Src/display.c:486:29
	ldrb	r2, [r5, #22]
	movs	r0, #190
	movs	r1, #160
	bl	LCD_ShowChar
.Ltmp161:
	.loc	1 487 43                @ ../Src/display.c:487:43
	ldrb	r0, [r5, #2]
.Ltmp162:
	.loc	1 489 29                @ ../Src/display.c:489:29
	ldrb	r2, [r5, #23]
	movw	r1, #33840
	movt	r1, #65535
	.loc	1 487 32                @ ../Src/display.c:487:32
	cmp	r0, #0
	itt	eq
	movweq	r1, #50712
	movteq	r1, #65535
	movw	r0, :lower16:BACK_COLOR
	movt	r0, :upper16:BACK_COLOR
	strh	r1, [r0]
	.loc	1 489 29                @ ../Src/display.c:489:29
	mov.w	r0, #210
	mov.w	r1, #160
	bl	LCD_ShowChar
	.loc	1 490 29                @ ../Src/display.c:490:29
	ldrb	r2, [r5, #24]
	mov.w	r0, #220
	b	.LBB0_86
.Ltmp163:
.LBB0_84:
	@DEBUG_VALUE: DISPLAY_Service:read_byte <- [DW_OP_plus_uconst 3] [$sp+0]
	.loc	1 497 29                @ ../Src/display.c:497:29
	ldrb	r2, [r5, #23]
	movs	r0, #210
	movs	r1, #160
	bl	LCD_ShowChar
	.loc	1 498 29                @ ../Src/display.c:498:29
	ldrb	r2, [r5, #24]
	movs	r0, #220
	movs	r1, #160
	bl	LCD_ShowChar
.Ltmp164:
	.loc	1 499 43                @ ../Src/display.c:499:43
	ldrb	r0, [r5, #2]
.Ltmp165:
	.loc	1 501 29                @ ../Src/display.c:501:29
	ldrb	r2, [r5, #25]
	movw	r1, #33840
	movt	r1, #65535
	.loc	1 499 32                @ ../Src/display.c:499:32
	cmp	r0, #0
	itt	eq
	movweq	r1, #50712
	movteq	r1, #65535
	movw	r0, :lower16:BACK_COLOR
	movt	r0, :upper16:BACK_COLOR
	strh	r1, [r0]
	.loc	1 501 29                @ ../Src/display.c:501:29
	mov.w	r0, #240
	mov.w	r1, #160
	bl	LCD_ShowChar
	.loc	1 502 29                @ ../Src/display.c:502:29
	ldrb	r2, [r5, #26]
	mov.w	r0, #250
	b	.LBB0_86
.Ltmp166:
.LBB0_85:
	@DEBUG_VALUE: DISPLAY_Service:read_byte <- [DW_OP_plus_uconst 3] [$sp+0]
	.loc	1 509 29                @ ../Src/display.c:509:29
	ldrb	r2, [r5, #25]
	movs	r0, #240
	movs	r1, #160
	bl	LCD_ShowChar
	.loc	1 510 29                @ ../Src/display.c:510:29
	ldrb	r2, [r5, #26]
	movs	r0, #250
	movs	r1, #160
	bl	LCD_ShowChar
.Ltmp167:
	.loc	1 511 43                @ ../Src/display.c:511:43
	ldrb	r0, [r5, #2]
.Ltmp168:
	.loc	1 513 29                @ ../Src/display.c:513:29
	ldrb	r2, [r5, #27]
	movw	r1, #33840
	movt	r1, #65535
	.loc	1 511 32                @ ../Src/display.c:511:32
	cmp	r0, #0
	itt	eq
	movweq	r1, #50712
	movteq	r1, #65535
	movw	r0, :lower16:BACK_COLOR
	movt	r0, :upper16:BACK_COLOR
	strh	r1, [r0]
	.loc	1 513 29                @ ../Src/display.c:513:29
	mov.w	r0, #290
	mov.w	r1, #160
	bl	LCD_ShowChar
	.loc	1 514 29                @ ../Src/display.c:514:29
	ldrb	r2, [r5, #28]
	mov.w	r0, #300
.Ltmp169:
.LBB0_86:
	@DEBUG_VALUE: DISPLAY_Service:read_byte <- [DW_OP_plus_uconst 3] [$sp+0]
	.loc	1 0 29 is_stmt 0        @ ../Src/display.c:0:29
	movs	r1, #160
.Ltmp170:
.LBB0_87:
	@DEBUG_VALUE: DISPLAY_Service:read_byte <- [DW_OP_plus_uconst 3] [$sp+0]
	bl	LCD_ShowChar
.Ltmp171:
.LBB0_88:
	@DEBUG_VALUE: DISPLAY_Service:read_byte <- [DW_OP_plus_uconst 3] [$sp+0]
	.loc	1 520 33 is_stmt 1      @ ../Src/display.c:520:33
	strh	r6, [r7]
	.loc	1 519 32                @ ../Src/display.c:519:32
	movw	r0, :lower16:BACK_COLOR
	movt	r0, :upper16:BACK_COLOR
	movs	r1, #0
	strh	r1, [r0]
	.loc	1 521 37                @ ../Src/display.c:521:37
	movs	r0, #4
	strb	r0, [r5]
.Ltmp172:
	.loc	1 596 1                 @ ../Src/display.c:596:1
	add	sp, #68
.Ltmp173:
	pop	{r4, r5, r6, r7, pc}
.Ltmp174:
	.p2align	2
@ %bb.89:
	.loc	1 0 1 is_stmt 0         @ ../Src/display.c:0:1
.LCPI0_0:
.L.str.1:
	.asciz	"Bootloader Updated  \000\000\000"
.LCPI0_1:
.L.str.2:
	.asciz	"Bootloader Failed   \000\000\000"
.LCPI0_2:
.L.str.3:
	.asciz	"UPDATE:             \000\000\000"
.LCPI0_3:
.L.str.8:
	.asciz	"BIG FONT\000\000\000"
.LCPI0_4:
.L.str.7:
	.asciz	"MIDDLE FONT"
.LCPI0_5:
.L.str.6:
	.asciz	"SMALL FONT\000"
.LCPI0_6:
.L.str.5:
	.asciz	"BOOTLOADER\000"
.LCPI0_7:
.L.str.4:
	.asciz	"FIRMWARE\000\000\000"
.LCPI0_8:
.L.str.9:
	.asciz	"IMAGE\000\000"
.LCPI0_9:
.L.str.12:
	.asciz	"Firmware Updated    \000\000\000"
.Lfunc_end0:
	.size	DISPLAY_Service, .Lfunc_end0-DISPLAY_Service
	.cfi_endproc
	.cantunwind
	.fnend
                                        @ -- End function
	.section	.text.DISPLAY_Image,"ax",%progbits
	.hidden	DISPLAY_Image           @ -- Begin function DISPLAY_Image
	.globl	DISPLAY_Image
	.p2align	2
	.type	DISPLAY_Image,%function
	.code	16                      @ @DISPLAY_Image
	.thumb_func
DISPLAY_Image:
.Lfunc_begin1:
	.loc	1 600 0 is_stmt 1       @ ../Src/display.c:600:0
	.fnstart
	.cfi_startproc
@ %bb.0:
	.save	{r4, lr}
	push	{r4, lr}
	.cfi_def_cfa_offset 8
	.cfi_offset lr, -4
	.cfi_offset r4, -8
	@DEBUG_VALUE: DISPLAY_Image:selected <- $r0
	movs	r4, #0
.Ltmp175:
	.loc	1 601 2 prologue_end    @ ../Src/display.c:601:2
	movs	r0, #0
.Ltmp176:
	bl	LCD_Clear
	.loc	1 603 14                @ ../Src/display.c:603:14
	movw	r0, :lower16:POINT_COLOR
	movt	r0, :upper16:POINT_COLOR
	movw	r1, #65535
	strh	r1, [r0]
	.loc	1 602 13                @ ../Src/display.c:602:13
	movw	r0, :lower16:BACK_COLOR
	movt	r0, :upper16:BACK_COLOR
	strh	r4, [r0]
	.loc	1 604 12                @ ../Src/display.c:604:12
	movw	r0, :lower16:font_size
	movt	r0, :upper16:font_size
	movs	r1, #1
	strb	r1, [r0]
	.loc	1 605 2                 @ ../Src/display.c:605:2
	adr	r2, .LCPI1_0
	movs	r0, #0
	movs	r1, #128
	bl	LCD_ShowString
	.loc	1 606 34                @ ../Src/display.c:606:34
	movw	r0, :lower16:system_id
	movt	r0, :upper16:system_id
	ldrb	r1, [r0]
	.loc	1 606 56 is_stmt 0      @ ../Src/display.c:606:56
	ldrb	r0, [r0, #1]
	.loc	1 606 54                @ ../Src/display.c:606:54
	orr.w	r2, r0, r1, lsl #8
	.loc	1 606 5                 @ ../Src/display.c:606:5
	movs	r0, #140
	movs	r1, #128
	movs	r3, #5
	bl	LCD_ShowNum
	.loc	1 607 5 is_stmt 1       @ ../Src/display.c:607:5
	adr	r2, .LCPI1_1
	movs	r0, #0
	movs	r1, #144
	bl	LCD_ShowString
	.loc	1 608 44                @ ../Src/display.c:608:44
	movw	r0, :lower16:huart1
	movt	r0, :upper16:huart1
	ldr	r2, [r0, #4]
	.loc	1 608 5 is_stmt 0       @ ../Src/display.c:608:5
	movs	r0, #140
	movs	r1, #144
	movs	r3, #6
	bl	LCD_ShowNum
	.loc	1 609 5 is_stmt 1       @ ../Src/display.c:609:5
	adr	r2, .LCPI1_2
	movs	r0, #0
	movs	r1, #160
	bl	LCD_ShowString
	.loc	1 610 35                @ ../Src/display.c:610:35
	movw	r0, :lower16:rs485_interface_address
	movt	r0, :upper16:rs485_interface_address
	ldrb	r1, [r0]
	.loc	1 610 71 is_stmt 0      @ ../Src/display.c:610:71
	ldrb	r0, [r0, #1]
	.loc	1 610 69                @ ../Src/display.c:610:69
	orr.w	r2, r0, r1, lsl #8
	.loc	1 610 5                 @ ../Src/display.c:610:5
	movs	r0, #140
	movs	r1, #160
	movs	r3, #5
	bl	LCD_ShowNum
	.loc	1 611 5 is_stmt 1       @ ../Src/display.c:611:5
	adr	r2, .LCPI1_3
	movs	r0, #0
	movs	r1, #176
	bl	LCD_ShowString
	.loc	1 612 5                 @ ../Src/display.c:612:5
	adr	r2, .LCPI1_4
	movs	r0, #140
	movs	r1, #176
	pop.w	{r4, lr}
	b	LCD_ShowString
.Ltmp177:
	.p2align	2
@ %bb.1:
	.loc	1 0 5 is_stmt 0         @ ../Src/display.c:0:5
.LCPI1_0:
.L.str.15:
	.asciz	"System ID:\000"
.LCPI1_1:
.L.str.16:
	.asciz	"RS485 baudrate:"
.LCPI1_2:
.L.str.17:
	.asciz	"RS485 address:\000"
.LCPI1_3:
.L.str.18:
	.asciz	"OneWire device:"
.LCPI1_4:
.L.str.19:
	.asciz	"NOT DETECTED\000\000\000"
.Lfunc_end1:
	.size	DISPLAY_Image, .Lfunc_end1-DISPLAY_Image
	.cfi_endproc
	.cantunwind
	.fnend
                                        @ -- End function
	.hidden	settings_item_1         @ @settings_item_1
	.type	settings_item_1,%object
	.section	.rodata.settings_item_1,"a",%progbits
	.globl	settings_item_1
settings_item_1:
	.asciz	"EXIT SETTINGS MENU"
	.size	settings_item_1, 19

	.hidden	settings_item_2         @ @settings_item_2
	.type	settings_item_2,%object
	.section	.rodata.settings_item_2,"a",%progbits
	.globl	settings_item_2
settings_item_2:
	.asciz	"RESTART CONTROLLER"
	.size	settings_item_2, 19

	.hidden	settings_item_3         @ @settings_item_3
	.type	settings_item_3,%object
	.section	.rodata.settings_item_3,"a",%progbits
	.globl	settings_item_3
settings_item_3:
	.asciz	"SET SYSTEM ID"
	.size	settings_item_3, 14

	.hidden	settings_item_4         @ @settings_item_4
	.type	settings_item_4,%object
	.section	.rodata.settings_item_4,"a",%progbits
	.globl	settings_item_4
settings_item_4:
	.asciz	"SET RS485 ADDRESS"
	.size	settings_item_4, 18

	.hidden	settings_item_5         @ @settings_item_5
	.type	settings_item_5,%object
	.section	.rodata.settings_item_5,"a",%progbits
	.globl	settings_item_5
settings_item_5:
	.asciz	"SCAN ONEWIRE BUS"
	.size	settings_item_5, 17

	.hidden	settings_item_6         @ @settings_item_6
	.type	settings_item_6,%object
	.section	.rodata.settings_item_6,"a",%progbits
	.globl	settings_item_6
settings_item_6:
	.asciz	"REQUEST IMAGE UPDATE"
	.size	settings_item_6, 21

	.hidden	settings_item_7         @ @settings_item_7
	.type	settings_item_7,%object
	.section	.rodata.settings_item_7,"a",%progbits
	.globl	settings_item_7
settings_item_7:
	.asciz	"REQUEST FIRMWARE UPDATE"
	.size	settings_item_7, 24

	.hidden	settings_item_8         @ @settings_item_8
	.type	settings_item_8,%object
	.section	.rodata.settings_item_8,"a",%progbits
	.globl	settings_item_8
settings_item_8:
	.asciz	"TIME & DATE"
	.size	settings_item_8, 12

	.hidden	button_label_1          @ @button_label_1
	.type	button_label_1,%object
	.section	.rodata.button_label_1,"a",%progbits
	.globl	button_label_1
button_label_1:
	.asciz	"NEXT                  SELECT"
	.size	button_label_1, 29

	.hidden	button_label_2          @ @button_label_2
	.type	button_label_2,%object
	.section	.rodata.button_label_2,"a",%progbits
	.globl	button_label_2
button_label_2:
	.asciz	"INCREASE            DESELECT"
	.size	button_label_2, 29

	.type	DISPLAY_Service.time_d,%object @ @DISPLAY_Service.time_d
	.section	.bss.DISPLAY_Service.time_d,"aw",%nobits
DISPLAY_Service.time_d:
	.zero	3
	.size	DISPLAY_Service.time_d, 3

	.type	DISPLAY_Service.date_d,%object @ @DISPLAY_Service.date_d
	.section	.bss.DISPLAY_Service.date_d,"aw",%nobits
DISPLAY_Service.date_d:
	.zero	4
	.size	DISPLAY_Service.date_d, 4

	.type	DISPLAY_Service.display_time,%object @ @DISPLAY_Service.display_time
	.section	.bss.DISPLAY_Service.display_time,"aw",%nobits
	.p2align	2
DISPLAY_Service.display_time:
	.long	0                       @ 0x0
	.size	DISPLAY_Service.display_time, 4

	.type	DISPLAY_Service.display_timer,%object @ @DISPLAY_Service.display_timer
	.section	.bss.DISPLAY_Service.display_timer,"aw",%nobits
	.p2align	2
DISPLAY_Service.display_timer:
	.long	0                       @ 0x0
	.size	DISPLAY_Service.display_timer, 4

	.type	DISPLAY_Service.temp_sec,%object @ @DISPLAY_Service.temp_sec
	.section	.bss.DISPLAY_Service.temp_sec,"aw",%nobits
	.p2align	2
DISPLAY_Service.temp_sec:
	.long	0                       @ 0x0
	.size	DISPLAY_Service.temp_sec, 4

	.type	DISPLAY_Service.temp_day,%object @ @DISPLAY_Service.temp_day
	.section	.bss.DISPLAY_Service.temp_day,"aw",%nobits
	.p2align	2
DISPLAY_Service.temp_day:
	.long	0                       @ 0x0
	.size	DISPLAY_Service.temp_day, 4

	.type	DISPLAY_Service.DISP_ServiceState,%object @ @DISPLAY_Service.DISP_ServiceState
	.section	.bss.DISPLAY_Service.DISP_ServiceState,"aw",%nobits
	.p2align	2
DISPLAY_Service.DISP_ServiceState:
	.byte	0                       @ 0x0
	.size	DISPLAY_Service.DISP_ServiceState, 1

	.hidden	lcd_brightness          @ @lcd_brightness
	.type	lcd_brightness,%object
	.section	.bss.lcd_brightness,"aw",%nobits
	.globl	lcd_brightness
	.p2align	1
lcd_brightness:
	.short	0                       @ 0x0
	.size	lcd_brightness, 2

	.hidden	display_flags           @ @display_flags
	.type	display_flags,%object
	.section	.bss.display_flags,"aw",%nobits
	.globl	display_flags
	.p2align	2
display_flags:
	.long	0                       @ 0x0
	.size	display_flags, 4

	.type	.L.str,%object          @ @.str
	.section	.rodata.str1.1,"aMS",%progbits,1
.L.str:
	.asciz	"      "
	.size	.L.str, 7

	.type	.L.str.10,%object       @ @.str.10
.L.str.10:
	.asciz	"Transfer Successful "
	.size	.L.str.10, 21

	.type	.L.str.11,%object       @ @.str.11
.L.str.11:
	.asciz	"Transfer Fail       "
	.size	.L.str.11, 21

	.type	.L.str.13,%object       @ @.str.13
.L.str.13:
	.asciz	"Firmware Update Fail"
	.size	.L.str.13, 21

	.hidden	servisMenu              @ @servisMenu
	.type	servisMenu,%object
	.section	.bss.servisMenu,"aw",%nobits
	.globl	servisMenu
servisMenu:
	.zero	35
	.size	servisMenu, 35

	.type	.L.str.14,%object       @ @.str.14
	.section	.rodata.str1.1,"aMS",%progbits,1
.L.str.14:
	.asciz	"settings"
	.size	.L.str.14, 9

	.hidden	display_menu_timeout_timer @ @display_menu_timeout_timer
	.type	display_menu_timeout_timer,%object
	.section	.bss.display_menu_timeout_timer,"aw",%nobits
	.globl	display_menu_timeout_timer
	.p2align	2
display_menu_timeout_timer:
	.long	0                       @ 0x0
	.size	display_menu_timeout_timer, 4

	.hidden	display_menu_timeout_time @ @display_menu_timeout_time
	.type	display_menu_timeout_time,%object
	.section	.bss.display_menu_timeout_time,"aw",%nobits
	.globl	display_menu_timeout_time
	.p2align	2
display_menu_timeout_time:
	.long	0                       @ 0x0
	.size	display_menu_timeout_time, 4

	.section	".note.GNU-stack","",%progbits
	.eabi_attribute	30, 1	@ Tag_ABI_optimization_goals
	.ARM_attribute	16, 1	@ Tag_AV_eba