	.text
	.syntax unified
	.eabi_attribute	67, "2.09"	@ Tag_conformance
	.cpu	cortex-m3
	.eabi_attribute	6, 10	@ Tag_CPU_arch
	.eabi_attribute	7, 77	@ Tag_CPU_arch_profile
	.eabi_attribute	8, 0	@ Tag_ARM_ISA_use
	.eabi_attribute	9, 2	@ Tag_THUMB_ISA_use
	.eabi_attribute	34, 1	@ Tag_CPU_unaligned_access
	.eabi_attribute	17, 1	@ Tag_ABI_PCS_GOT_use
	.eabi_attribute	20, 2	@ Tag_ABI_FP_denormal
	.eabi_attribute	21, 0	@ Tag_ABI_FP_exceptions
	.eabi_attribute	23, 1	@ Tag_ABI_FP_number_model
	.eabi_attribute	24, 1	@ Tag_ABI_align_needed
	.eabi_attribute	25, 1	@ Tag_ABI_align_preserved
	.eabi_attribute	38, 1	@ Tag_ABI_FP_16bit_format
	.eabi_attribute	18, 4	@ Tag_ABI_PCS_wchar_t
	.eabi_attribute	26, 2	@ Tag_ABI_enum_size
	.eabi_attribute	14, 0	@ Tag_ABI_PCS_R9_use
	.file	"eeprom.c"
	.file	1 "C:\\Keil\\ARM\\ARMCLANG\\Bin\\..\\include" "stdint.h"
	.file	2 "../Src" "eeprom.c"
	.file	3 "../Drivers/STM32F1xx_HAL_Driver/Inc" "stm32f1xx_hal_gpio.h"
	.file	4 "../Drivers/STM32F1xx_HAL_Driver/Inc" "stm32f1xx_hal_def.h"
	.file	5 "../Drivers/CMSIS/Device/ST/STM32F1xx/Include" "stm32f103xb.h"
	.section	.text.SPI_FLASH_ReadByte,"ax",%progbits
	.hidden	SPI_FLASH_ReadByte      @ -- Begin function SPI_FLASH_ReadByte
	.globl	SPI_FLASH_ReadByte
	.p2align	2
	.type	SPI_FLASH_ReadByte,%function
	.code	16                      @ @SPI_FLASH_ReadByte
	.thumb_func
SPI_FLASH_ReadByte:
.Lfunc_begin0:
	.loc	2 40 0                  @ ../Src/eeprom.c:40:0
	.fnstart
	.cfi_sections .debug_frame
	.cfi_startproc
@ %bb.0:
	.save	{r4, r5, r6, r7, lr}
	push	{r4, r5, r6, r7, lr}
	.cfi_def_cfa_offset 20
	.cfi_offset lr, -4
	.cfi_offset r7, -8
	.cfi_offset r6, -12
	.cfi_offset r5, -16
	.cfi_offset r4, -20
	.pad	#4
	sub	sp, #4
	.cfi_def_cfa_offset 24
	@DEBUG_VALUE: SPI_FLASH_ReadByte:address <- $r0
	mov	r6, r0
.Ltmp0:
	@DEBUG_VALUE: SPI_FLASH_ReadByte:address <- $r6
	movw	r4, #3072
	movt	r4, #16385
	movs	r7, #0
.Ltmp1:
	.loc	2 41 5 prologue_end     @ ../Src/eeprom.c:41:5
	mov	r0, r4
	mov.w	r1, #4096
	movs	r2, #0
	bl	HAL_GPIO_WritePin
	.loc	2 43 27                 @ ../Src/eeprom.c:43:27
	lsrs	r0, r6, #16
	.loc	2 42 17                 @ ../Src/eeprom.c:42:17
	movw	r5, :lower16:spi_buff
	movt	r5, :upper16:spi_buff
	.loc	2 43 17                 @ ../Src/eeprom.c:43:17
	strb	r0, [r5, #1]
	movs	r0, #3
	.loc	2 42 17                 @ ../Src/eeprom.c:42:17
	strb	r0, [r5]
	.loc	2 44 27                 @ ../Src/eeprom.c:44:27
	lsrs	r0, r6, #8
	.loc	2 44 17 is_stmt 0       @ ../Src/eeprom.c:44:17
	strb	r0, [r5, #2]
	.loc	2 45 17 is_stmt 1       @ ../Src/eeprom.c:45:17
	strb	r6, [r5, #3]
	.loc	2 46 17                 @ ../Src/eeprom.c:46:17
	strb	r7, [r5, #4]
.Ltmp2:
	.loc	2 47 9                  @ ../Src/eeprom.c:47:9
	movw	r0, :lower16:hspi2
	movt	r0, :upper16:hspi2
	mov	r1, r5
	movs	r2, #4
	mov.w	r3, #500
	bl	HAL_SPI_Transmit
.Ltmp3:
	.loc	2 47 9 is_stmt 0        @ ../Src/eeprom.c:47:9
	cmp	r0, #0
.Ltmp4:
	.loc	2 47 78                 @ ../Src/eeprom.c:47:78
	it	ne
	blne	Error_Handler
.Ltmp5:
	.loc	2 48 9 is_stmt 1        @ ../Src/eeprom.c:48:9
	adds	r1, r5, #4
	movw	r0, :lower16:hspi2
	movt	r0, :upper16:hspi2
	movs	r2, #1
	mov.w	r3, #500
	bl	HAL_SPI_Receive
.Ltmp6:
	.loc	2 48 9 is_stmt 0        @ ../Src/eeprom.c:48:9
	cmp	r0, #0
.Ltmp7:
	.loc	2 48 81                 @ ../Src/eeprom.c:48:81
	it	ne
	blne	Error_Handler
.Ltmp8:
	.loc	2 49 5 is_stmt 1        @ ../Src/eeprom.c:49:5
	mov	r0, r4
	mov.w	r1, #4096
	movs	r2, #1
	bl	HAL_GPIO_WritePin
	.loc	2 50 5                  @ ../Src/eeprom.c:50:5
	ldrb	r0, [r5, #4]
	add	sp, #4
	pop	{r4, r5, r6, r7, pc}
.Ltmp9:
.Lfunc_end0:
	.size	SPI_FLASH_ReadByte, .Lfunc_end0-SPI_FLASH_ReadByte
	.cfi_endproc
	.cantunwind
	.fnend
                                        @ -- End function
	.section	.text.SPI_FLASH_WriteByte,"ax",%progbits
	.hidden	SPI_FLASH_WriteByte     @ -- Begin function SPI_FLASH_WriteByte
	.globl	SPI_FLASH_WriteByte
	.p2align	2
	.type	SPI_FLASH_WriteByte,%function
	.code	16                      @ @SPI_FLASH_WriteByte
	.thumb_func
SPI_FLASH_WriteByte:
.Lfunc_begin1:
	.loc	2 55 0                  @ ../Src/eeprom.c:55:0
	.fnstart
	.cfi_startproc
@ %bb.0:
	.save	{r4, r5, r6, lr}
	push	{r4, r5, r6, lr}
	.cfi_def_cfa_offset 16
	.cfi_offset lr, -4
	.cfi_offset r6, -8
	.cfi_offset r5, -12
	.cfi_offset r4, -16
	@DEBUG_VALUE: SPI_FLASH_WriteByte:address <- $r0
	@DEBUG_VALUE: SPI_FLASH_WriteByte:data <- $r1
	mov	r5, r1
	mov	r6, r0
.Ltmp10:
	@DEBUG_VALUE: SPI_FLASH_WriteByte:data <- $r5
	@DEBUG_VALUE: SPI_FLASH_WriteByte:address <- $r6
	.loc	2 56 5 prologue_end     @ ../Src/eeprom.c:56:5
	bl	SPI_FLASH_WriteEnable
	movw	r4, #3072
	movt	r4, #16385
	.loc	2 57 5                  @ ../Src/eeprom.c:57:5
	mov	r0, r4
	mov.w	r1, #4096
	movs	r2, #0
	bl	HAL_GPIO_WritePin
	.loc	2 59 27                 @ ../Src/eeprom.c:59:27
	lsrs	r0, r6, #16
	.loc	2 58 17                 @ ../Src/eeprom.c:58:17
	movw	r1, :lower16:spi_buff
	movt	r1, :upper16:spi_buff
	.loc	2 59 17                 @ ../Src/eeprom.c:59:17
	strb	r0, [r1, #1]
	movs	r0, #2
	.loc	2 58 17                 @ ../Src/eeprom.c:58:17
	strb	r0, [r1]
	.loc	2 60 27                 @ ../Src/eeprom.c:60:27
	lsrs	r0, r6, #8
	.loc	2 60 17 is_stmt 0       @ ../Src/eeprom.c:60:17
	strb	r0, [r1, #2]
	.loc	2 61 17 is_stmt 1       @ ../Src/eeprom.c:61:17
	strb	r6, [r1, #3]
	.loc	2 62 17                 @ ../Src/eeprom.c:62:17
	strb	r5, [r1, #4]
.Ltmp11:
	.loc	2 63 9                  @ ../Src/eeprom.c:63:9
	movw	r0, :lower16:hspi2
	movt	r0, :upper16:hspi2
	movs	r2, #5
	mov.w	r3, #500
	bl	HAL_SPI_Transmit
.Ltmp12:
	.loc	2 63 9 is_stmt 0        @ ../Src/eeprom.c:63:9
	cmp	r0, #0
.Ltmp13:
	.loc	2 63 77                 @ ../Src/eeprom.c:63:77
	it	ne
	blne	Error_Handler
.Ltmp14:
	.loc	2 64 5 is_stmt 1        @ ../Src/eeprom.c:64:5
	mov	r0, r4
	mov.w	r1, #4096
	movs	r2, #1
	pop.w	{r4, r5, r6, lr}
.Ltmp15:
	b	HAL_GPIO_WritePin
.Ltmp16:
.Lfunc_end1:
	.size	SPI_FLASH_WriteByte, .Lfunc_end1-SPI_FLASH_WriteByte
	.cfi_endproc
	.cantunwind
	.fnend
                                        @ -- End function
	.section	.text.SPI_FLASH_WriteEnable,"ax",%progbits
	.p2align	2               @ -- Begin function SPI_FLASH_WriteEnable
	.type	SPI_FLASH_WriteEnable,%function
	.code	16                      @ @SPI_FLASH_WriteEnable
	.thumb_func
SPI_FLASH_WriteEnable:
.Lfunc_begin2:
	.loc	2 271 0                 @ ../Src/eeprom.c:271:0
	.fnstart
	.cfi_startproc
@ %bb.0:
	.save	{r4, lr}
	push	{r4, lr}
	.cfi_def_cfa_offset 8
	.cfi_offset lr, -4
	.cfi_offset r4, -8
	movw	r4, #3072
	movt	r4, #16385
.Ltmp17:
	.loc	2 272 5 prologue_end    @ ../Src/eeprom.c:272:5
	mov	r0, r4
	mov.w	r1, #4096
	movs	r2, #0
	bl	HAL_GPIO_WritePin
	.loc	2 273 17                @ ../Src/eeprom.c:273:17
	movw	r1, :lower16:spi_buff
	movt	r1, :upper16:spi_buff
	movs	r0, #6
	strb	r0, [r1]
.Ltmp18:
	.loc	2 274 9                 @ ../Src/eeprom.c:274:9
	movw	r0, :lower16:hspi2
	movt	r0, :upper16:hspi2
	movs	r2, #1
	mov.w	r3, #500
	bl	HAL_SPI_Transmit
.Ltmp19:
	.loc	2 274 9 is_stmt 0       @ ../Src/eeprom.c:274:9
	cmp	r0, #0
.Ltmp20:
	.loc	2 274 78                @ ../Src/eeprom.c:274:78
	it	ne
	blne	Error_Handler
.Ltmp21:
	.loc	2 275 5 is_stmt 1       @ ../Src/eeprom.c:275:5
	mov	r0, r4
	mov.w	r1, #4096
	movs	r2, #1
	pop.w	{r4, lr}
	b	HAL_GPIO_WritePin
.Ltmp22:
.Lfunc_end2:
	.size	SPI_FLASH_WriteEnable, .Lfunc_end2-SPI_FLASH_WriteEnable
	.cfi_endproc
	.cantunwind
	.fnend
                                        @ -- End function
	.section	.text.SPI_FLASH_ReadInt,"ax",%progbits
	.hidden	SPI_FLASH_ReadInt       @ -- Begin function SPI_FLASH_ReadInt
	.globl	SPI_FLASH_ReadInt
	.p2align	2
	.type	SPI_FLASH_ReadInt,%function
	.code	16                      @ @SPI_FLASH_ReadInt
	.thumb_func
SPI_FLASH_ReadInt:
.Lfunc_begin3:
	.loc	2 69 0                  @ ../Src/eeprom.c:69:0
	.fnstart
	.cfi_startproc
@ %bb.0:
	.save	{r4, r5, r6, r7, lr}
	push	{r4, r5, r6, r7, lr}
	.cfi_def_cfa_offset 20
	.cfi_offset lr, -4
	.cfi_offset r7, -8
	.cfi_offset r6, -12
	.cfi_offset r5, -16
	.cfi_offset r4, -20
	.pad	#4
	sub	sp, #4
	.cfi_def_cfa_offset 24
	@DEBUG_VALUE: SPI_FLASH_ReadInt:address <- $r0
	mov	r6, r0
.Ltmp23:
	@DEBUG_VALUE: SPI_FLASH_ReadInt:address <- $r6
	movw	r4, #3072
	movt	r4, #16385
	movs	r7, #0
.Ltmp24:
	.loc	2 72 5 prologue_end     @ ../Src/eeprom.c:72:5
	mov	r0, r4
	mov.w	r1, #4096
	movs	r2, #0
	bl	HAL_GPIO_WritePin
	.loc	2 74 27                 @ ../Src/eeprom.c:74:27
	lsrs	r0, r6, #16
	.loc	2 73 17                 @ ../Src/eeprom.c:73:17
	movw	r5, :lower16:spi_buff
	movt	r5, :upper16:spi_buff
	.loc	2 74 17                 @ ../Src/eeprom.c:74:17
	strb	r0, [r5, #1]
	movs	r0, #3
	.loc	2 73 17                 @ ../Src/eeprom.c:73:17
	strb	r0, [r5]
	.loc	2 75 27                 @ ../Src/eeprom.c:75:27
	lsrs	r0, r6, #8
	.loc	2 75 17 is_stmt 0       @ ../Src/eeprom.c:75:17
	strb	r0, [r5, #2]
	.loc	2 76 17 is_stmt 1       @ ../Src/eeprom.c:76:17
	strb	r6, [r5, #3]
	.loc	2 77 17                 @ ../Src/eeprom.c:77:17
	strh	r7, [r5, #4]
.Ltmp25:
	.loc	2 79 9                  @ ../Src/eeprom.c:79:9
	movw	r0, :lower16:hspi2
	movt	r0, :upper16:hspi2
	mov	r1, r5
	movs	r2, #4
	mov.w	r3, #500
	bl	HAL_SPI_Transmit
.Ltmp26:
	.loc	2 79 9 is_stmt 0        @ ../Src/eeprom.c:79:9
	cmp	r0, #0
.Ltmp27:
	.loc	2 79 78                 @ ../Src/eeprom.c:79:78
	it	ne
	blne	Error_Handler
.Ltmp28:
	.loc	2 80 9 is_stmt 1        @ ../Src/eeprom.c:80:9
	adds	r1, r5, #4
	movw	r0, :lower16:hspi2
	movt	r0, :upper16:hspi2
	movs	r2, #2
	mov.w	r3, #500
	bl	HAL_SPI_Receive
.Ltmp29:
	.loc	2 80 9 is_stmt 0        @ ../Src/eeprom.c:80:9
	cmp	r0, #0
.Ltmp30:
	.loc	2 80 81                 @ ../Src/eeprom.c:80:81
	it	ne
	blne	Error_Handler
.Ltmp31:
	.loc	2 81 5 is_stmt 1        @ ../Src/eeprom.c:81:5
	mov	r0, r4
	mov.w	r1, #4096
	movs	r2, #1
	bl	HAL_GPIO_WritePin
	.loc	2 82 32                 @ ../Src/eeprom.c:82:32
	ldrh	r0, [r5, #4]
	rev	r0, r0
	lsrs	r0, r0, #16
	.loc	2 83 5                  @ ../Src/eeprom.c:83:5
	add	sp, #4
	pop	{r4, r5, r6, r7, pc}
.Ltmp32:
.Lfunc_end3:
	.size	SPI_FLASH_ReadInt, .Lfunc_end3-SPI_FLASH_ReadInt
	.cfi_endproc
	.cantunwind
	.fnend
                                        @ -- End function
	.section	.text.SPI_FLASH_WriteInt,"ax",%progbits
	.hidden	SPI_FLASH_WriteInt      @ -- Begin function SPI_FLASH_WriteInt
	.globl	SPI_FLASH_WriteInt
	.p2align	2
	.type	SPI_FLASH_WriteInt,%function
	.code	16                      @ @SPI_FLASH_WriteInt
	.thumb_func
SPI_FLASH_WriteInt:
.Lfunc_begin4:
	.loc	2 88 0                  @ ../Src/eeprom.c:88:0
	.fnstart
	.cfi_startproc
@ %bb.0:
	.save	{r4, r5, r6, lr}
	push	{r4, r5, r6, lr}
	.cfi_def_cfa_offset 16
	.cfi_offset lr, -4
	.cfi_offset r6, -8
	.cfi_offset r5, -12
	.cfi_offset r4, -16
	@DEBUG_VALUE: SPI_FLASH_WriteInt:address <- $r0
	@DEBUG_VALUE: SPI_FLASH_WriteInt:data <- $r1
	mov	r5, r1
	mov	r6, r0
.Ltmp33:
	@DEBUG_VALUE: SPI_FLASH_WriteInt:data <- $r5
	@DEBUG_VALUE: SPI_FLASH_WriteInt:address <- $r6
	.loc	2 89 5 prologue_end     @ ../Src/eeprom.c:89:5
	bl	SPI_FLASH_WriteEnable
	movw	r4, #3072
	movt	r4, #16385
	.loc	2 90 5                  @ ../Src/eeprom.c:90:5
	mov	r0, r4
	mov.w	r1, #4096
	movs	r2, #0
	bl	HAL_GPIO_WritePin
	.loc	2 92 27                 @ ../Src/eeprom.c:92:27
	lsrs	r0, r6, #16
	.loc	2 91 17                 @ ../Src/eeprom.c:91:17
	movw	r1, :lower16:spi_buff
	movt	r1, :upper16:spi_buff
	.loc	2 92 17                 @ ../Src/eeprom.c:92:17
	strb	r0, [r1, #1]
	movs	r0, #2
	.loc	2 91 17                 @ ../Src/eeprom.c:91:17
	strb	r0, [r1]
	.loc	2 93 27                 @ ../Src/eeprom.c:93:27
	lsrs	r0, r6, #8
	.loc	2 93 17 is_stmt 0       @ ../Src/eeprom.c:93:17
	strb	r0, [r1, #2]
	.loc	2 94 17 is_stmt 1       @ ../Src/eeprom.c:94:17
	strb	r6, [r1, #3]
	.loc	2 95 19                 @ ../Src/eeprom.c:95:19
	lsrs	r0, r5, #8
	.loc	2 95 17 is_stmt 0       @ ../Src/eeprom.c:95:17
	strb	r0, [r1, #4]
	.loc	2 96 17 is_stmt 1       @ ../Src/eeprom.c:96:17
	strb	r5, [r1, #5]
.Ltmp34:
	.loc	2 97 9                  @ ../Src/eeprom.c:97:9
	movw	r0, :lower16:hspi2
	movt	r0, :upper16:hspi2
	movs	r2, #6
	mov.w	r3, #500
	bl	HAL_SPI_Transmit
.Ltmp35:
	.loc	2 97 9 is_stmt 0        @ ../Src/eeprom.c:97:9
	cmp	r0, #0
.Ltmp36:
	.loc	2 97 78                 @ ../Src/eeprom.c:97:78
	it	ne
	blne	Error_Handler
.Ltmp37:
	.loc	2 98 5 is_stmt 1        @ ../Src/eeprom.c:98:5
	mov	r0, r4
	mov.w	r1, #4096
	movs	r2, #1
	pop.w	{r4, r5, r6, lr}
.Ltmp38:
	b	HAL_GPIO_WritePin
.Ltmp39:
.Lfunc_end4:
	.size	SPI_FLASH_WriteInt, .Lfunc_end4-SPI_FLASH_WriteInt
	.cfi_endproc
	.cantunwind
	.fnend
                                        @ -- End function
	.section	.text.SPI_FLASH_WriteWord,"ax",%progbits
	.hidden	SPI_FLASH_WriteWord     @ -- Begin function SPI_FLASH_WriteWord
	.globl	SPI_FLASH_WriteWord
	.p2align	2
	.type	SPI_FLASH_WriteWord,%function
	.code	16                      @ @SPI_FLASH_WriteWord
	.thumb_func
SPI_FLASH_WriteWord:
.Lfunc_begin5:
	.loc	2 103 0                 @ ../Src/eeprom.c:103:0
	.fnstart
	.cfi_startproc
@ %bb.0:
	.save	{r4, r5, r6, lr}
	push	{r4, r5, r6, lr}
	.cfi_def_cfa_offset 16
	.cfi_offset lr, -4
	.cfi_offset r6, -8
	.cfi_offset r5, -12
	.cfi_offset r4, -16
	@DEBUG_VALUE: SPI_FLASH_WriteWord:address <- $r0
	@DEBUG_VALUE: SPI_FLASH_WriteWord:data <- $r1
	mov	r5, r1
	mov	r6, r0
.Ltmp40:
	@DEBUG_VALUE: SPI_FLASH_WriteWord:data <- $r5
	@DEBUG_VALUE: SPI_FLASH_WriteWord:address <- $r6
	.loc	2 104 5 prologue_end    @ ../Src/eeprom.c:104:5
	bl	SPI_FLASH_WriteEnable
	movw	r4, #3072
	movt	r4, #16385
	.loc	2 105 5                 @ ../Src/eeprom.c:105:5
	mov	r0, r4
	mov.w	r1, #4096
	movs	r2, #0
	bl	HAL_GPIO_WritePin
	.loc	2 107 29                @ ../Src/eeprom.c:107:29
	lsrs	r0, r6, #16
	.loc	2 106 17                @ ../Src/eeprom.c:106:17
	movw	r1, :lower16:spi_buff
	movt	r1, :upper16:spi_buff
	.loc	2 107 17                @ ../Src/eeprom.c:107:17
	strb	r0, [r1, #1]
	movs	r0, #2
	.loc	2 106 17                @ ../Src/eeprom.c:106:17
	strb	r0, [r1]
	.loc	2 108 29                @ ../Src/eeprom.c:108:29
	lsrs	r0, r6, #8
	.loc	2 108 17 is_stmt 0      @ ../Src/eeprom.c:108:17
	strb	r0, [r1, #2]
	.loc	2 109 17 is_stmt 1      @ ../Src/eeprom.c:109:17
	strb	r6, [r1, #3]
	.loc	2 110 26                @ ../Src/eeprom.c:110:26
	lsrs	r0, r5, #24
	.loc	2 110 17 is_stmt 0      @ ../Src/eeprom.c:110:17
	strb	r0, [r1, #4]
	.loc	2 111 26 is_stmt 1      @ ../Src/eeprom.c:111:26
	lsrs	r0, r5, #16
	.loc	2 111 17 is_stmt 0      @ ../Src/eeprom.c:111:17
	strb	r0, [r1, #5]
	.loc	2 112 26 is_stmt 1      @ ../Src/eeprom.c:112:26
	lsrs	r0, r5, #8
	.loc	2 112 17 is_stmt 0      @ ../Src/eeprom.c:112:17
	strb	r0, [r1, #6]
	.loc	2 113 17 is_stmt 1      @ ../Src/eeprom.c:113:17
	strb	r5, [r1, #7]
.Ltmp41:
	.loc	2 114 9                 @ ../Src/eeprom.c:114:9
	movw	r0, :lower16:hspi2
	movt	r0, :upper16:hspi2
	movs	r2, #8
	mov.w	r3, #500
	bl	HAL_SPI_Transmit
.Ltmp42:
	.loc	2 114 9 is_stmt 0       @ ../Src/eeprom.c:114:9
	cmp	r0, #0
.Ltmp43:
	.loc	2 114 78                @ ../Src/eeprom.c:114:78
	it	ne
	blne	Error_Handler
.Ltmp44:
	.loc	2 115 5 is_stmt 1       @ ../Src/eeprom.c:115:5
	mov	r0, r4
	mov.w	r1, #4096
	movs	r2, #1
	pop.w	{r4, r5, r6, lr}
.Ltmp45:
	b	HAL_GPIO_WritePin
.Ltmp46:
.Lfunc_end5:
	.size	SPI_FLASH_WriteWord, .Lfunc_end5-SPI_FLASH_WriteWord
	.cfi_endproc
	.cantunwind
	.fnend
                                        @ -- End function
	.section	.text.SPI_FLASH_ReadWord,"ax",%progbits
	.hidden	SPI_FLASH_ReadWord      @ -- Begin function SPI_FLASH_ReadWord
	.globl	SPI_FLASH_ReadWord
	.p2align	2
	.type	SPI_FLASH_ReadWord,%function
	.code	16                      @ @SPI_FLASH_ReadWord
	.thumb_func
SPI_FLASH_ReadWord:
.Lfunc_begin6:
	.loc	2 120 0                 @ ../Src/eeprom.c:120:0
	.fnstart
	.cfi_startproc
@ %bb.0:
	.save	{r4, r5, r6, r7, lr}
	push	{r4, r5, r6, r7, lr}
	.cfi_def_cfa_offset 20
	.cfi_offset lr, -4
	.cfi_offset r7, -8
	.cfi_offset r6, -12
	.cfi_offset r5, -16
	.cfi_offset r4, -20
	.pad	#4
	sub	sp, #4
	.cfi_def_cfa_offset 24
	@DEBUG_VALUE: SPI_FLASH_ReadWord:address <- $r0
	mov	r6, r0
.Ltmp47:
	@DEBUG_VALUE: SPI_FLASH_ReadWord:address <- $r6
	movw	r4, #3072
	movt	r4, #16385
	movs	r7, #0
.Ltmp48:
	.loc	2 123 5 prologue_end    @ ../Src/eeprom.c:123:5
	mov	r0, r4
	mov.w	r1, #4096
	movs	r2, #0
	bl	HAL_GPIO_WritePin
	.loc	2 125 29                @ ../Src/eeprom.c:125:29
	lsrs	r0, r6, #16
	.loc	2 124 17                @ ../Src/eeprom.c:124:17
	movw	r5, :lower16:spi_buff
	movt	r5, :upper16:spi_buff
	.loc	2 125 17                @ ../Src/eeprom.c:125:17
	strb	r0, [r5, #1]
	movs	r0, #3
	.loc	2 124 17                @ ../Src/eeprom.c:124:17
	strb	r0, [r5]
	.loc	2 126 29                @ ../Src/eeprom.c:126:29
	lsrs	r0, r6, #8
	.loc	2 126 17 is_stmt 0      @ ../Src/eeprom.c:126:17
	strb	r0, [r5, #2]
	.loc	2 127 17 is_stmt 1      @ ../Src/eeprom.c:127:17
	strb	r6, [r5, #3]
	.loc	2 129 17                @ ../Src/eeprom.c:129:17
	str	r7, [r5, #4]
.Ltmp49:
	.loc	2 132 9                 @ ../Src/eeprom.c:132:9
	movw	r0, :lower16:hspi2
	movt	r0, :upper16:hspi2
	mov	r1, r5
	movs	r2, #4
	mov.w	r3, #500
	bl	HAL_SPI_Transmit
.Ltmp50:
	.loc	2 132 9 is_stmt 0       @ ../Src/eeprom.c:132:9
	cmp	r0, #0
.Ltmp51:
	.loc	2 132 78                @ ../Src/eeprom.c:132:78
	it	ne
	blne	Error_Handler
.Ltmp52:
	.loc	2 133 9 is_stmt 1       @ ../Src/eeprom.c:133:9
	adds	r1, r5, #4
	movw	r0, :lower16:hspi2
	movt	r0, :upper16:hspi2
	movs	r2, #4
	mov.w	r3, #500
	bl	HAL_SPI_Receive
.Ltmp53:
	.loc	2 133 9 is_stmt 0       @ ../Src/eeprom.c:133:9
	cmp	r0, #0
.Ltmp54:
	.loc	2 133 81                @ ../Src/eeprom.c:133:81
	it	ne
	blne	Error_Handler
.Ltmp55:
	.loc	2 134 5 is_stmt 1       @ ../Src/eeprom.c:134:5
	mov	r0, r4
	mov.w	r1, #4096
	movs	r2, #1
	bl	HAL_GPIO_WritePin
	.loc	2 135 79                @ ../Src/eeprom.c:135:79
	ldr	r0, [r5, #4]
	rev	r0, r0
.Ltmp56:
	@DEBUG_VALUE: SPI_FLASH_ReadWord:data <- $r0
	.loc	2 136 5                 @ ../Src/eeprom.c:136:5
	add	sp, #4
	pop	{r4, r5, r6, r7, pc}
.Ltmp57:
.Lfunc_end6:
	.size	SPI_FLASH_ReadWord, .Lfunc_end6-SPI_FLASH_ReadWord
	.cfi_endproc
	.cantunwind
	.fnend
                                        @ -- End function
	.section	.text.SPI_FLASH_ReadPage,"ax",%progbits
	.hidden	SPI_FLASH_ReadPage      @ -- Begin function SPI_FLASH_ReadPage
	.globl	SPI_FLASH_ReadPage
	.p2align	2
	.type	SPI_FLASH_ReadPage,%function
	.code	16                      @ @SPI_FLASH_ReadPage
	.thumb_func
SPI_FLASH_ReadPage:
.Lfunc_begin7:
	.loc	2 141 0                 @ ../Src/eeprom.c:141:0
	.fnstart
	.cfi_startproc
@ %bb.0:
	.save	{r4, r5, r6, r7, lr}
	push	{r4, r5, r6, r7, lr}
	.cfi_def_cfa_offset 20
	.cfi_offset lr, -4
	.cfi_offset r7, -8
	.cfi_offset r6, -12
	.cfi_offset r5, -16
	.cfi_offset r4, -20
	.pad	#4
	sub	sp, #4
	.cfi_def_cfa_offset 24
	@DEBUG_VALUE: SPI_FLASH_ReadPage:address <- $r0
	@DEBUG_VALUE: SPI_FLASH_ReadPage:data <- $r1
	@DEBUG_VALUE: SPI_FLASH_ReadPage:size <- $r2
	mov	r5, r2
	mov	r6, r1
	mov	r7, r0
.Ltmp58:
	@DEBUG_VALUE: SPI_FLASH_ReadPage:size <- $r5
	@DEBUG_VALUE: SPI_FLASH_ReadPage:data <- $r6
	@DEBUG_VALUE: SPI_FLASH_ReadPage:address <- $r7
	movw	r4, #3072
	movt	r4, #16385
.Ltmp59:
	.loc	2 142 5 prologue_end    @ ../Src/eeprom.c:142:5
	mov	r0, r4
	mov.w	r1, #4096
	movs	r2, #0
	bl	HAL_GPIO_WritePin
	.loc	2 144 27                @ ../Src/eeprom.c:144:27
	lsrs	r0, r7, #16
	.loc	2 143 17                @ ../Src/eeprom.c:143:17
	movw	r1, :lower16:spi_buff
	movt	r1, :upper16:spi_buff
	.loc	2 144 17                @ ../Src/eeprom.c:144:17
	strb	r0, [r1, #1]
	movs	r0, #3
	.loc	2 143 17                @ ../Src/eeprom.c:143:17
	strb	r0, [r1]
	.loc	2 145 27                @ ../Src/eeprom.c:145:27
	lsrs	r0, r7, #8
	.loc	2 145 17 is_stmt 0      @ ../Src/eeprom.c:145:17
	strb	r0, [r1, #2]
	.loc	2 146 17 is_stmt 1      @ ../Src/eeprom.c:146:17
	strb	r7, [r1, #3]
.Ltmp60:
	.loc	2 147 9                 @ ../Src/eeprom.c:147:9
	movw	r0, :lower16:hspi2
	movt	r0, :upper16:hspi2
	movs	r2, #4
	mov.w	r3, #500
	bl	HAL_SPI_Transmit
.Ltmp61:
	.loc	2 147 9 is_stmt 0       @ ../Src/eeprom.c:147:9
	cmp	r0, #0
.Ltmp62:
	.loc	2 147 78                @ ../Src/eeprom.c:147:78
	it	ne
	blne	Error_Handler
.Ltmp63:
	.loc	2 148 9 is_stmt 1       @ ../Src/eeprom.c:148:9
	movw	r0, :lower16:hspi2
	movt	r0, :upper16:hspi2
	mov	r1, r6
	mov	r2, r5
	mov.w	r3, #500
	bl	HAL_SPI_Receive
.Ltmp64:
	.loc	2 148 9 is_stmt 0       @ ../Src/eeprom.c:148:9
	cmp	r0, #0
.Ltmp65:
	.loc	2 148 75                @ ../Src/eeprom.c:148:75
	it	ne
	blne	Error_Handler
.Ltmp66:
	.loc	2 149 5 is_stmt 1       @ ../Src/eeprom.c:149:5
	mov	r0, r4
	mov.w	r1, #4096
	movs	r2, #1
	add	sp, #4
	pop.w	{r4, r5, r6, r7, lr}
.Ltmp67:
	b	HAL_GPIO_WritePin
.Ltmp68:
.Lfunc_end7:
	.size	SPI_FLASH_ReadPage, .Lfunc_end7-SPI_FLASH_ReadPage
	.cfi_endproc
	.cantunwind
	.fnend
                                        @ -- End function
	.section	.text.SPI_FLASH_WritePage,"ax",%progbits
	.hidden	SPI_FLASH_WritePage     @ -- Begin function SPI_FLASH_WritePage
	.globl	SPI_FLASH_WritePage
	.p2align	2
	.type	SPI_FLASH_WritePage,%function
	.code	16                      @ @SPI_FLASH_WritePage
	.thumb_func
SPI_FLASH_WritePage:
.Lfunc_begin8:
	.loc	2 154 0                 @ ../Src/eeprom.c:154:0
	.fnstart
	.cfi_startproc
@ %bb.0:
	.save	{r4, r5, r6, r7, lr}
	push	{r4, r5, r6, r7, lr}
	.cfi_def_cfa_offset 20
	.cfi_offset lr, -4
	.cfi_offset r7, -8
	.cfi_offset r6, -12
	.cfi_offset r5, -16
	.cfi_offset r4, -20
	.pad	#4
	sub	sp, #4
	.cfi_def_cfa_offset 24
	@DEBUG_VALUE: SPI_FLASH_WritePage:address <- $r0
	@DEBUG_VALUE: SPI_FLASH_WritePage:data <- $r1
	@DEBUG_VALUE: SPI_FLASH_WritePage:size <- $r2
	mov	r5, r2
	mov	r6, r1
	mov	r7, r0
.Ltmp69:
	@DEBUG_VALUE: SPI_FLASH_WritePage:size <- $r5
	@DEBUG_VALUE: SPI_FLASH_WritePage:data <- $r6
	@DEBUG_VALUE: SPI_FLASH_WritePage:address <- $r7
	.loc	2 155 5 prologue_end    @ ../Src/eeprom.c:155:5
	bl	SPI_FLASH_WriteEnable
	movw	r4, #3072
	movt	r4, #16385
	.loc	2 156 5                 @ ../Src/eeprom.c:156:5
	mov	r0, r4
	mov.w	r1, #4096
	movs	r2, #0
	bl	HAL_GPIO_WritePin
	.loc	2 158 27                @ ../Src/eeprom.c:158:27
	lsrs	r0, r7, #16
	.loc	2 157 17                @ ../Src/eeprom.c:157:17
	movw	r1, :lower16:spi_buff
	movt	r1, :upper16:spi_buff
	.loc	2 158 17                @ ../Src/eeprom.c:158:17
	strb	r0, [r1, #1]
	movs	r0, #2
	.loc	2 157 17                @ ../Src/eeprom.c:157:17
	strb	r0, [r1]
	.loc	2 159 27                @ ../Src/eeprom.c:159:27
	lsrs	r0, r7, #8
	.loc	2 159 17 is_stmt 0      @ ../Src/eeprom.c:159:17
	strb	r0, [r1, #2]
	.loc	2 160 17 is_stmt 1      @ ../Src/eeprom.c:160:17
	strb	r7, [r1, #3]
.Ltmp70:
	.loc	2 161 9                 @ ../Src/eeprom.c:161:9
	movw	r0, :lower16:hspi2
	movt	r0, :upper16:hspi2
	movs	r2, #4
	mov.w	r3, #500
	bl	HAL_SPI_Transmit
.Ltmp71:
	.loc	2 161 9 is_stmt 0       @ ../Src/eeprom.c:161:9
	cmp	r0, #0
.Ltmp72:
	.loc	2 161 78                @ ../Src/eeprom.c:161:78
	it	ne
	blne	Error_Handler
.Ltmp73:
	.loc	2 162 9 is_stmt 1       @ ../Src/eeprom.c:162:9
	movw	r0, :lower16:hspi2
	movt	r0, :upper16:hspi2
	mov	r1, r6
	mov	r2, r5
	mov.w	r3, #500
	bl	HAL_SPI_Transmit
.Ltmp74:
	.loc	2 162 9 is_stmt 0       @ ../Src/eeprom.c:162:9
	cmp	r0, #0
.Ltmp75:
	.loc	2 162 76                @ ../Src/eeprom.c:162:76
	it	ne
	blne	Error_Handler
.Ltmp76:
	.loc	2 163 5 is_stmt 1       @ ../Src/eeprom.c:163:5
	mov	r0, r4
	mov.w	r1, #4096
	movs	r2, #1
	add	sp, #4
	pop.w	{r4, r5, r6, r7, lr}
.Ltmp77:
	b	HAL_GPIO_WritePin
.Ltmp78:
.Lfunc_end8:
	.size	SPI_FLASH_WritePage, .Lfunc_end8-SPI_FLASH_WritePage
	.cfi_endproc
	.cantunwind
	.fnend
                                        @ -- End function
	.section	.text.SPI_FLASH_WriteStatusRegister,"ax",%progbits
	.hidden	SPI_FLASH_WriteStatusRegister @ -- Begin function SPI_FLASH_WriteStatusRegister
	.globl	SPI_FLASH_WriteStatusRegister
	.p2align	2
	.type	SPI_FLASH_WriteStatusRegister,%function
	.code	16                      @ @SPI_FLASH_WriteStatusRegister
	.thumb_func
SPI_FLASH_WriteStatusRegister:
.Lfunc_begin9:
	.loc	2 168 0                 @ ../Src/eeprom.c:168:0
	.fnstart
	.cfi_startproc
@ %bb.0:
	.save	{r4, r5, r7, lr}
	push	{r4, r5, r7, lr}
	.cfi_def_cfa_offset 16
	.cfi_offset lr, -4
	.cfi_offset r7, -8
	.cfi_offset r5, -12
	.cfi_offset r4, -16
	@DEBUG_VALUE: SPI_FLASH_WriteStatusRegister:status <- $r0
	mov	r5, r0
.Ltmp79:
	@DEBUG_VALUE: SPI_FLASH_WriteStatusRegister:status <- $r5
	.loc	2 169 2 prologue_end    @ ../Src/eeprom.c:169:2
	bl	SPI_FLASH_WriteEnable
	movw	r4, #3072
	movt	r4, #16385
	.loc	2 170 5                 @ ../Src/eeprom.c:170:5
	mov	r0, r4
	mov.w	r1, #4096
	movs	r2, #0
	bl	HAL_GPIO_WritePin
	.loc	2 171 17                @ ../Src/eeprom.c:171:17
	movw	r1, :lower16:spi_buff
	movt	r1, :upper16:spi_buff
	.loc	2 172 17                @ ../Src/eeprom.c:172:17
	strb	r5, [r1, #1]
	movs	r0, #1
	.loc	2 171 17                @ ../Src/eeprom.c:171:17
	strb	r0, [r1]
.Ltmp80:
	.loc	2 173 9                 @ ../Src/eeprom.c:173:9
	movw	r0, :lower16:hspi2
	movt	r0, :upper16:hspi2
	movs	r2, #2
	mov.w	r3, #500
	bl	HAL_SPI_Transmit
.Ltmp81:
	.loc	2 173 9 is_stmt 0       @ ../Src/eeprom.c:173:9
	cmp	r0, #0
.Ltmp82:
	.loc	2 173 78                @ ../Src/eeprom.c:173:78
	it	ne
	blne	Error_Handler
.Ltmp83:
	.loc	2 174 5 is_stmt 1       @ ../Src/eeprom.c:174:5
	mov	r0, r4
	mov.w	r1, #4096
	movs	r2, #1
	pop.w	{r4, r5, r7, lr}
.Ltmp84:
	b	HAL_GPIO_WritePin
.Ltmp85:
.Lfunc_end9:
	.size	SPI_FLASH_WriteStatusRegister, .Lfunc_end9-SPI_FLASH_WriteStatusRegister
	.cfi_endproc
	.cantunwind
	.fnend
                                        @ -- End function
	.section	.text.SPI_FLASH_UnprotectSector,"ax",%progbits
	.hidden	SPI_FLASH_UnprotectSector @ -- Begin function SPI_FLASH_UnprotectSector
	.globl	SPI_FLASH_UnprotectSector
	.p2align	2
	.type	SPI_FLASH_UnprotectSector,%function
	.code	16                      @ @SPI_FLASH_UnprotectSector
	.thumb_func
SPI_FLASH_UnprotectSector:
.Lfunc_begin10:
	.loc	2 179 0                 @ ../Src/eeprom.c:179:0
	.fnstart
	.cfi_startproc
@ %bb.0:
	.save	{r4, r5, r7, lr}
	push	{r4, r5, r7, lr}
	.cfi_def_cfa_offset 16
	.cfi_offset lr, -4
	.cfi_offset r7, -8
	.cfi_offset r5, -12
	.cfi_offset r4, -16
	@DEBUG_VALUE: SPI_FLASH_UnprotectSector:address <- $r0
	mov	r5, r0
.Ltmp86:
	@DEBUG_VALUE: SPI_FLASH_UnprotectSector:address <- $r5
	.loc	2 180 5 prologue_end    @ ../Src/eeprom.c:180:5
	bl	SPI_FLASH_WriteEnable
	movw	r4, #3072
	movt	r4, #16385
	.loc	2 181 2                 @ ../Src/eeprom.c:181:2
	mov	r0, r4
	mov.w	r1, #4096
	movs	r2, #0
	bl	HAL_GPIO_WritePin
	.loc	2 183 27                @ ../Src/eeprom.c:183:27
	lsrs	r0, r5, #16
	.loc	2 182 17                @ ../Src/eeprom.c:182:17
	movw	r1, :lower16:spi_buff
	movt	r1, :upper16:spi_buff
	.loc	2 183 17                @ ../Src/eeprom.c:183:17
	strb	r0, [r1, #1]
	.loc	2 182 17                @ ../Src/eeprom.c:182:17
	movs	r0, #57
	strb	r0, [r1]
	.loc	2 184 27                @ ../Src/eeprom.c:184:27
	lsrs	r0, r5, #8
	.loc	2 184 17 is_stmt 0      @ ../Src/eeprom.c:184:17
	strb	r0, [r1, #2]
	.loc	2 185 17 is_stmt 1      @ ../Src/eeprom.c:185:17
	strb	r5, [r1, #3]
.Ltmp87:
	.loc	2 186 9                 @ ../Src/eeprom.c:186:9
	movw	r0, :lower16:hspi2
	movt	r0, :upper16:hspi2
	movs	r2, #4
	mov.w	r3, #500
	bl	HAL_SPI_Transmit
.Ltmp88:
	.loc	2 186 9 is_stmt 0       @ ../Src/eeprom.c:186:9
	cmp	r0, #0
.Ltmp89:
	.loc	2 186 78                @ ../Src/eeprom.c:186:78
	it	ne
	blne	Error_Handler
.Ltmp90:
	.loc	2 187 5 is_stmt 1       @ ../Src/eeprom.c:187:5
	mov	r0, r4
	mov.w	r1, #4096
	movs	r2, #1
	pop.w	{r4, r5, r7, lr}
.Ltmp91:
	b	HAL_GPIO_WritePin
.Ltmp92:
.Lfunc_end10:
	.size	SPI_FLASH_UnprotectSector, .Lfunc_end10-SPI_FLASH_UnprotectSector
	.cfi_endproc
	.cantunwind
	.fnend
                                        @ -- End function
	.section	.text.SPI_FLASH_WaitReadyStatus,"ax",%progbits
	.hidden	SPI_FLASH_WaitReadyStatus @ -- Begin function SPI_FLASH_WaitReadyStatus
	.globl	SPI_FLASH_WaitReadyStatus
	.p2align	2
	.type	SPI_FLASH_WaitReadyStatus,%function
	.code	16                      @ @SPI_FLASH_WaitReadyStatus
	.thumb_func
SPI_FLASH_WaitReadyStatus:
.Lfunc_begin11:
	.loc	2 192 0                 @ ../Src/eeprom.c:192:0
	.fnstart
	.cfi_startproc
@ %bb.0:
	.save	{r4, r5, r7, lr}
	push	{r4, r5, r7, lr}
	.cfi_def_cfa_offset 16
	.cfi_offset lr, -4
	.cfi_offset r7, -8
	.cfi_offset r5, -12
	.cfi_offset r4, -16
	@DEBUG_VALUE: SPI_FLASH_WaitReadyStatus:timeout <- $r0
	mov	r4, r0
.Ltmp93:
	@DEBUG_VALUE: SPI_FLASH_WaitReadyStatus:timeout <- $r4
	.loc	2 193 26 prologue_end   @ ../Src/eeprom.c:193:26
	bl	HAL_GetTick
	mov	r5, r0
.Ltmp94:
	@DEBUG_VALUE: SPI_FLASH_WaitReadyStatus:tickstart <- $r5
	.loc	2 195 12                @ ../Src/eeprom.c:195:12
	bl	HAL_GetTick
	.loc	2 195 26 is_stmt 0      @ ../Src/eeprom.c:195:26
	subs	r0, r0, r5
	.loc	2 195 5                 @ ../Src/eeprom.c:195:5
	cmp	r0, r4
	itt	hs
	movhs	r0, #0
	.loc	2 207 1 is_stmt 1       @ ../Src/eeprom.c:207:1
	pophs	{r4, r5, r7, pc}
.Ltmp95:
	.loc	2 0 1 is_stmt 0         @ ../Src/eeprom.c:0:1
	b	.LBB11_2
	.p2align	2
.LBB11_1:                               @   in Loop: Header=BB11_2 Depth=1
	.loc	2 195 12 is_stmt 1      @ ../Src/eeprom.c:195:12
	bl	HAL_GetTick
	.loc	2 195 26 is_stmt 0      @ ../Src/eeprom.c:195:26
	subs	r0, r0, r5
	.loc	2 195 5                 @ ../Src/eeprom.c:195:5
	cmp	r0, r4
	itt	hs
	movhs	r0, #0
	.loc	2 207 1 is_stmt 1       @ ../Src/eeprom.c:207:1
	pophs	{r4, r5, r7, pc}
.LBB11_2:                               @ =>This Inner Loop Header: Depth=1
.Ltmp96:
	.loc	2 197 13                @ ../Src/eeprom.c:197:13
	bl	SPI_FLASH_ReadStatusRegister
.Ltmp97:
	.loc	2 197 12 is_stmt 0      @ ../Src/eeprom.c:197:12
	lsls	r0, r0, #31
	itt	eq
	moveq	r0, #1
.Ltmp98:
	.loc	2 207 1 is_stmt 1       @ ../Src/eeprom.c:207:1
	popeq	{r4, r5, r7, pc}
	b	.LBB11_1
.Ltmp99:
.Lfunc_end11:
	.size	SPI_FLASH_WaitReadyStatus, .Lfunc_end11-SPI_FLASH_WaitReadyStatus
	.cfi_endproc
	.cantunwind
	.fnend
                                        @ -- End function
	.section	.text.SPI_FLASH_ReadStatusRegister,"ax",%progbits
	.p2align	2               @ -- Begin function SPI_FLASH_ReadStatusRegister
	.type	SPI_FLASH_ReadStatusRegister,%function
	.code	16                      @ @SPI_FLASH_ReadStatusRegister
	.thumb_func
SPI_FLASH_ReadStatusRegister:
.Lfunc_begin12:
	.loc	2 244 0                 @ ../Src/eeprom.c:244:0
	.fnstart
	.cfi_startproc
@ %bb.0:
	.save	{r4, r5, r7, lr}
	push	{r4, r5, r7, lr}
	.cfi_def_cfa_offset 16
	.cfi_offset lr, -4
	.cfi_offset r7, -8
	.cfi_offset r5, -12
	.cfi_offset r4, -16
	movw	r4, #3072
	movt	r4, #16385
.Ltmp100:
	.loc	2 245 2 prologue_end    @ ../Src/eeprom.c:245:2
	mov	r0, r4
	mov.w	r1, #4096
	movs	r2, #0
	bl	HAL_GPIO_WritePin
	.loc	2 246 17                @ ../Src/eeprom.c:246:17
	movw	r5, :lower16:spi_buff
	movt	r5, :upper16:spi_buff
	movs	r0, #5
	strh	r0, [r5]
.Ltmp101:
	.loc	2 248 9                 @ ../Src/eeprom.c:248:9
	movw	r0, :lower16:hspi2
	movt	r0, :upper16:hspi2
	mov	r1, r5
	movs	r2, #1
	mov.w	r3, #500
	bl	HAL_SPI_Transmit
.Ltmp102:
	.loc	2 248 9 is_stmt 0       @ ../Src/eeprom.c:248:9
	cmp	r0, #0
.Ltmp103:
	.loc	2 248 78                @ ../Src/eeprom.c:248:78
	it	ne
	blne	Error_Handler
.Ltmp104:
	.loc	2 249 6 is_stmt 1       @ ../Src/eeprom.c:249:6
	adds	r1, r5, #1
	movw	r0, :lower16:hspi2
	movt	r0, :upper16:hspi2
	movs	r2, #1
	mov.w	r3, #500
	bl	HAL_SPI_Receive
.Ltmp105:
	.loc	2 249 6 is_stmt 0       @ ../Src/eeprom.c:249:6
	cmp	r0, #0
.Ltmp106:
	.loc	2 249 78                @ ../Src/eeprom.c:249:78
	it	ne
	blne	Error_Handler
.Ltmp107:
	.loc	2 250 5 is_stmt 1       @ ../Src/eeprom.c:250:5
	mov	r0, r4
	mov.w	r1, #4096
	movs	r2, #1
	bl	HAL_GPIO_WritePin
	.loc	2 251 5                 @ ../Src/eeprom.c:251:5
	ldrb	r0, [r5, #1]
	pop	{r4, r5, r7, pc}
.Ltmp108:
.Lfunc_end12:
	.size	SPI_FLASH_ReadStatusRegister, .Lfunc_end12-SPI_FLASH_ReadStatusRegister
	.cfi_endproc
	.cantunwind
	.fnend
                                        @ -- End function
	.section	.text.SPI_FLASH_ReleasePowerDown,"ax",%progbits
	.hidden	SPI_FLASH_ReleasePowerDown @ -- Begin function SPI_FLASH_ReleasePowerDown
	.globl	SPI_FLASH_ReleasePowerDown
	.p2align	2
	.type	SPI_FLASH_ReleasePowerDown,%function
	.code	16                      @ @SPI_FLASH_ReleasePowerDown
	.thumb_func
SPI_FLASH_ReleasePowerDown:
.Lfunc_begin13:
	.loc	2 211 0                 @ ../Src/eeprom.c:211:0
	.fnstart
	.cfi_startproc
@ %bb.0:
	.save	{r4, lr}
	push	{r4, lr}
	.cfi_def_cfa_offset 8
	.cfi_offset lr, -4
	.cfi_offset r4, -8
	movw	r4, #3072
	movt	r4, #16385
.Ltmp109:
	.loc	2 212 5 prologue_end    @ ../Src/eeprom.c:212:5
	mov	r0, r4
	mov.w	r1, #4096
	movs	r2, #0
	bl	HAL_GPIO_WritePin
	.loc	2 213 17                @ ../Src/eeprom.c:213:17
	movw	r1, :lower16:spi_buff
	movt	r1, :upper16:spi_buff
	movs	r0, #171
	strb	r0, [r1]
.Ltmp110:
	.loc	2 214 9                 @ ../Src/eeprom.c:214:9
	movw	r0, :lower16:hspi2
	movt	r0, :upper16:hspi2
	movs	r2, #1
	mov.w	r3, #500
	bl	HAL_SPI_Transmit
.Ltmp111:
	.loc	2 214 9 is_stmt 0       @ ../Src/eeprom.c:214:9
	cmp	r0, #0
.Ltmp112:
	.loc	2 214 78                @ ../Src/eeprom.c:214:78
	it	ne
	blne	Error_Handler
.Ltmp113:
	.loc	2 215 5 is_stmt 1       @ ../Src/eeprom.c:215:5
	mov	r0, r4
	mov.w	r1, #4096
	movs	r2, #1
	bl	HAL_GPIO_WritePin
	.loc	2 216 5                 @ ../Src/eeprom.c:216:5
	movs	r0, #1
	bl	HAL_Delay
	.loc	2 217 13                @ ../Src/eeprom.c:217:13
	pop.w	{r4, lr}
	b	SPI_FLASH_ReadDeviceInfo
.Ltmp114:
.Lfunc_end13:
	.size	SPI_FLASH_ReleasePowerDown, .Lfunc_end13-SPI_FLASH_ReleasePowerDown
	.cfi_endproc
	.cantunwind
	.fnend
                                        @ -- End function
	.section	.text.SPI_FLASH_ReadDeviceInfo,"ax",%progbits
	.p2align	2               @ -- Begin function SPI_FLASH_ReadDeviceInfo
	.type	SPI_FLASH_ReadDeviceInfo,%function
	.code	16                      @ @SPI_FLASH_ReadDeviceInfo
	.thumb_func
SPI_FLASH_ReadDeviceInfo:
.Lfunc_begin14:
	.loc	2 256 0                 @ ../Src/eeprom.c:256:0
	.fnstart
	.cfi_startproc
@ %bb.0:
	.save	{r4, r5, r7, lr}
	push	{r4, r5, r7, lr}
	.cfi_def_cfa_offset 16
	.cfi_offset lr, -4
	.cfi_offset r7, -8
	.cfi_offset r5, -12
	.cfi_offset r4, -16
	movw	r4, #3072
	movt	r4, #16385
.Ltmp115:
	.loc	2 257 2 prologue_end    @ ../Src/eeprom.c:257:2
	mov	r0, r4
	mov.w	r1, #4096
	movs	r2, #0
	bl	HAL_GPIO_WritePin
	.loc	2 258 14                @ ../Src/eeprom.c:258:14
	movw	r5, :lower16:spi_buff
	movt	r5, :upper16:spi_buff
	movs	r0, #159
	str	r0, [r5]
.Ltmp116:
	.loc	2 262 6                 @ ../Src/eeprom.c:262:6
	movw	r0, :lower16:hspi2
	movt	r0, :upper16:hspi2
	mov	r1, r5
	movs	r2, #1
	mov.w	r3, #500
	bl	HAL_SPI_Transmit
.Ltmp117:
	.loc	2 262 6 is_stmt 0       @ ../Src/eeprom.c:262:6
	cmp	r0, #0
.Ltmp118:
	.loc	2 262 75                @ ../Src/eeprom.c:262:75
	it	ne
	blne	Error_Handler
.Ltmp119:
	.loc	2 263 6 is_stmt 1       @ ../Src/eeprom.c:263:6
	adds	r1, r5, #1
	movw	r0, :lower16:hspi2
	movt	r0, :upper16:hspi2
	movs	r2, #3
	mov.w	r3, #500
	bl	HAL_SPI_Receive
.Ltmp120:
	.loc	2 263 6 is_stmt 0       @ ../Src/eeprom.c:263:6
	cmp	r0, #0
.Ltmp121:
	.loc	2 263 78                @ ../Src/eeprom.c:263:78
	it	ne
	blne	Error_Handler
.Ltmp122:
	.loc	2 264 2 is_stmt 1       @ ../Src/eeprom.c:264:2
	mov	r0, r4
	mov.w	r1, #4096
	movs	r2, #1
	bl	HAL_GPIO_WritePin
.Ltmp123:
	.loc	2 265 8                 @ ../Src/eeprom.c:265:8
	ldrb	r0, [r5, #1]
	.loc	2 265 31 is_stmt 0      @ ../Src/eeprom.c:265:31
	ldrb	r1, [r5, #2]
	.loc	2 265 52                @ ../Src/eeprom.c:265:52
	ldrb	r2, [r5, #3]
	.loc	2 265 43                @ ../Src/eeprom.c:265:43
	lsls	r1, r1, #8
	.loc	2 265 28                @ ../Src/eeprom.c:265:28
	orr.w	r0, r1, r0, lsl #16
	.loc	2 265 50                @ ../Src/eeprom.c:265:50
	orrs	r0, r2
	.loc	2 265 65                @ ../Src/eeprom.c:265:65
	movw	r1, #49129
	movt	r1, #65296
	add	r0, r1
	clz	r0, r0
	lsrs	r0, r0, #5
.Ltmp124:
	.loc	2 267 1 is_stmt 1       @ ../Src/eeprom.c:267:1
	pop	{r4, r5, r7, pc}
.Ltmp125:
.Lfunc_end14:
	.size	SPI_FLASH_ReadDeviceInfo, .Lfunc_end14-SPI_FLASH_ReadDeviceInfo
	.cfi_endproc
	.cantunwind
	.fnend
                                        @ -- End function
	.section	.text.SPI_FLASH_Erase,"ax",%progbits
	.hidden	SPI_FLASH_Erase         @ -- Begin function SPI_FLASH_Erase
	.globl	SPI_FLASH_Erase
	.p2align	2
	.type	SPI_FLASH_Erase,%function
	.code	16                      @ @SPI_FLASH_Erase
	.thumb_func
SPI_FLASH_Erase:
.Lfunc_begin15:
	.loc	2 222 0                 @ ../Src/eeprom.c:222:0
	.fnstart
	.cfi_startproc
@ %bb.0:
	.save	{r4, r5, r6, lr}
	push	{r4, r5, r6, lr}
	.cfi_def_cfa_offset 16
	.cfi_offset lr, -4
	.cfi_offset r6, -8
	.cfi_offset r5, -12
	.cfi_offset r4, -16
	@DEBUG_VALUE: SPI_FLASH_Erase:address <- $r0
	@DEBUG_VALUE: SPI_FLASH_Erase:erase_type <- $r1
	mov	r5, r1
	mov	r6, r0
.Ltmp126:
	@DEBUG_VALUE: SPI_FLASH_Erase:erase_type <- $r5
	@DEBUG_VALUE: SPI_FLASH_Erase:address <- $r6
	.loc	2 223 5 prologue_end    @ ../Src/eeprom.c:223:5
	bl	SPI_FLASH_WriteEnable
	movw	r4, #3072
	movt	r4, #16385
	.loc	2 224 5                 @ ../Src/eeprom.c:224:5
	mov	r0, r4
	mov.w	r1, #4096
	movs	r2, #0
	bl	HAL_GPIO_WritePin
	.loc	2 226 27                @ ../Src/eeprom.c:226:27
	lsrs	r0, r6, #16
	.loc	2 225 17                @ ../Src/eeprom.c:225:17
	movw	r1, :lower16:spi_buff
	movt	r1, :upper16:spi_buff
	.loc	2 226 17                @ ../Src/eeprom.c:226:17
	strb	r0, [r1, #1]
	.loc	2 225 17                @ ../Src/eeprom.c:225:17
	strb	r5, [r1]
	.loc	2 227 27                @ ../Src/eeprom.c:227:27
	lsrs	r0, r6, #8
	.loc	2 227 17 is_stmt 0      @ ../Src/eeprom.c:227:17
	strb	r0, [r1, #2]
	.loc	2 228 17 is_stmt 1      @ ../Src/eeprom.c:228:17
	strb	r6, [r1, #3]
.Ltmp127:
	.loc	2 230 46                @ ../Src/eeprom.c:230:46
	cmp	r5, #95
	ble	.LBB15_5
.Ltmp128:
@ %bb.1:
	@DEBUG_VALUE: SPI_FLASH_Erase:address <- $r6
	@DEBUG_VALUE: SPI_FLASH_Erase:erase_type <- $r5
	cmp	r5, #96
	beq	.LBB15_4
.Ltmp129:
@ %bb.2:
	@DEBUG_VALUE: SPI_FLASH_Erase:address <- $r6
	@DEBUG_VALUE: SPI_FLASH_Erase:erase_type <- $r5
	cmp	r5, #216
	beq	.LBB15_7
.Ltmp130:
@ %bb.3:
	@DEBUG_VALUE: SPI_FLASH_Erase:address <- $r6
	@DEBUG_VALUE: SPI_FLASH_Erase:erase_type <- $r5
	cmp	r5, #199
	bne	.LBB15_9
.Ltmp131:
.LBB15_4:
	@DEBUG_VALUE: SPI_FLASH_Erase:address <- $r6
	@DEBUG_VALUE: SPI_FLASH_Erase:erase_type <- $r5
	.loc	2 232 13                @ ../Src/eeprom.c:232:13
	movw	r0, :lower16:hspi2
	movt	r0, :upper16:hspi2
	movw	r1, :lower16:spi_buff
	movt	r1, :upper16:spi_buff
	movs	r2, #1
	mov.w	r3, #500
	bl	HAL_SPI_Transmit
.Ltmp132:
	.loc	2 232 13 is_stmt 0      @ ../Src/eeprom.c:232:13
	cmp	r0, #0
.Ltmp133:
	.loc	2 232 82                @ ../Src/eeprom.c:232:82
	it	ne
	blne	Error_Handler
	b	.LBB15_9
.Ltmp134:
.LBB15_5:
	@DEBUG_VALUE: SPI_FLASH_Erase:address <- $r6
	@DEBUG_VALUE: SPI_FLASH_Erase:erase_type <- $r5
	.loc	2 230 46 is_stmt 1      @ ../Src/eeprom.c:230:46
	cmp	r5, #32
	beq	.LBB15_7
.Ltmp135:
@ %bb.6:
	@DEBUG_VALUE: SPI_FLASH_Erase:address <- $r6
	@DEBUG_VALUE: SPI_FLASH_Erase:erase_type <- $r5
	cmp	r5, #82
	bne	.LBB15_9
.Ltmp136:
.LBB15_7:
	@DEBUG_VALUE: SPI_FLASH_Erase:address <- $r6
	@DEBUG_VALUE: SPI_FLASH_Erase:erase_type <- $r5
	.loc	2 236 13                @ ../Src/eeprom.c:236:13
	movw	r0, :lower16:hspi2
	movt	r0, :upper16:hspi2
	movw	r1, :lower16:spi_buff
	movt	r1, :upper16:spi_buff
	movs	r2, #4
	mov.w	r3, #500
	bl	HAL_SPI_Transmit
	cbz	r0, .LBB15_9
.Ltmp137:
@ %bb.8:
	@DEBUG_VALUE: SPI_FLASH_Erase:address <- $r6
	@DEBUG_VALUE: SPI_FLASH_Erase:erase_type <- $r5
	.loc	2 236 82 is_stmt 0      @ ../Src/eeprom.c:236:82
	bl	Error_Handler
.Ltmp138:
.LBB15_9:
	@DEBUG_VALUE: SPI_FLASH_Erase:address <- $r6
	@DEBUG_VALUE: SPI_FLASH_Erase:erase_type <- $r5
	.loc	2 239 5 is_stmt 1       @ ../Src/eeprom.c:239:5
	mov	r0, r4
	mov.w	r1, #4096
	movs	r2, #1
	pop.w	{r4, r5, r6, lr}
.Ltmp139:
	b	HAL_GPIO_WritePin
.Ltmp140:
.Lfunc_end15:
	.size	SPI_FLASH_Erase, .Lfunc_end15-SPI_FLASH_Erase
	.cfi_endproc
	.cantunwind
	.fnend
                                        @ -- End function
	.type	spi_buff,%object        @ @spi_buff
	.section	.bss.spi_buff,"aw",%nobits
spi_buff:
	.zero	8
	.size	spi_buff, 8

	.section	".note.GNU-stack","",%progbits
	.eabi_attribute	30, 1	@ Tag_ABI_optimization_goals
	.ARM_attribute	16, 1	@ Tag_AV_eba