	.text
	.syntax unified
	.eabi_attribute	67, "2.09"	@ Tag_conformance
	.cpu	cortex-m3
	.eabi_attribute	6, 10	@ Tag_CPU_arch
	.eabi_attribute	7, 77	@ Tag_CPU_arch_profile
	.eabi_attribute	8, 0	@ Tag_ARM_ISA_use
	.eabi_attribute	9, 2	@ Tag_THUMB_ISA_use
	.eabi_attribute	34, 1	@ Tag_CPU_unaligned_access
	.eabi_attribute	17, 1	@ Tag_ABI_PCS_GOT_use
	.eabi_attribute	20, 2	@ Tag_ABI_FP_denormal
	.eabi_attribute	21, 0	@ Tag_ABI_FP_exceptions
	.eabi_attribute	23, 1	@ Tag_ABI_FP_number_model
	.eabi_attribute	24, 1	@ Tag_ABI_align_needed
	.eabi_attribute	25, 1	@ Tag_ABI_align_preserved
	.eabi_attribute	38, 1	@ Tag_ABI_FP_16bit_format
	.eabi_attribute	18, 4	@ Tag_ABI_PCS_wchar_t
	.eabi_attribute	26, 2	@ Tag_ABI_enum_size
	.eabi_attribute	14, 0	@ Tag_ABI_PCS_R9_use
	.file	"rc522.c"
	.file	1 "C:\\Keil\\ARM\\ARMCLANG\\Bin\\..\\include" "stdint.h"
	.file	2 "../Src" "rc522.c"
	.file	3 "../Inc" "rc522.h"
	.file	4 "../Inc" "rs485.h"
	.file	5 "../Inc" "signal.h"
	.file	6 "../Drivers/STM32F1xx_HAL_Driver/Inc" "stm32f1xx_hal_def.h"
	.section	.text.RC522_Init,"ax",%progbits
	.hidden	RC522_Init              @ -- Begin function RC522_Init
	.globl	RC522_Init
	.p2align	2
	.type	RC522_Init,%function
	.code	16                      @ @RC522_Init
	.thumb_func
RC522_Init:
.Lfunc_begin0:
	.loc	2 249 0                 @ ../Src/rc522.c:249:0
	.fnstart
	.cfi_sections .debug_frame
	.cfi_startproc
@ %bb.0:
	.save	{r4, lr}
	push	{r4, lr}
	.cfi_def_cfa_offset 8
	.cfi_offset lr, -4
	.cfi_offset r4, -8
.Ltmp0:
	.loc	2 250 2 prologue_end    @ ../Src/rc522.c:250:2
	movw	r4, :lower16:hc595_dout
	movt	r4, :upper16:hc595_dout
	ldrb	r0, [r4]
	and	r0, r0, #127
	strb	r0, [r4]
	.loc	2 251 2                 @ ../Src/rc522.c:251:2
	bl	DIO_SetOuput
	.loc	2 252 2                 @ ../Src/rc522.c:252:2
	movs	r0, #10
	bl	HAL_Delay
	.loc	2 253 2                 @ ../Src/rc522.c:253:2
	ldrb	r0, [r4]
	orr	r0, r0, #128
	strb	r0, [r4]
	.loc	2 254 2                 @ ../Src/rc522.c:254:2
	bl	DIO_SetOuput
	.loc	2 255 2                 @ ../Src/rc522.c:255:2
	movs	r0, #50
	bl	HAL_Delay
	.loc	2 256 2                 @ ../Src/rc522.c:256:2
	movs	r0, #1
	movs	r1, #15
	bl	RC522_WriteRegister
	.loc	2 257 2                 @ ../Src/rc522.c:257:2
	movs	r0, #42
	movs	r1, #141
	bl	RC522_WriteRegister
	.loc	2 258 2                 @ ../Src/rc522.c:258:2
	movs	r0, #43
	movs	r1, #62
	bl	RC522_WriteRegister
	.loc	2 259 2                 @ ../Src/rc522.c:259:2
	movs	r0, #44
	movs	r1, #0
	bl	RC522_WriteRegister
	.loc	2 260 2                 @ ../Src/rc522.c:260:2
	movs	r0, #45
	movs	r1, #30
	bl	RC522_WriteRegister
	.loc	2 261 2                 @ ../Src/rc522.c:261:2
	movs	r0, #21
	movs	r1, #64
	bl	RC522_WriteRegister
	.loc	2 262 2                 @ ../Src/rc522.c:262:2
	movs	r0, #17
	movs	r1, #61
	bl	RC522_WriteRegister
	.loc	2 263 2                 @ ../Src/rc522.c:263:2
	bl	RC522_AntennaOn
	.loc	2 264 2                 @ ../Src/rc522.c:264:2
	movw	r0, :lower16:mifare_process_flags
	movt	r0, :upper16:mifare_process_flags
	ldr	r1, [r0]
	bic	r1, r1, #1
	str	r1, [r0]
	.loc	2 265 1                 @ ../Src/rc522.c:265:1
	pop	{r4, pc}
.Ltmp1:
.Lfunc_end0:
	.size	RC522_Init, .Lfunc_end0-RC522_Init
	.cfi_endproc
	.cantunwind
	.fnend
                                        @ -- End function
	.section	.text.RC522_WriteRegister,"ax",%progbits
	.p2align	2               @ -- Begin function RC522_WriteRegister
	.type	RC522_WriteRegister,%function
	.code	16                      @ @RC522_WriteRegister
	.thumb_func
RC522_WriteRegister:
.Lfunc_begin1:
	.loc	2 658 0                 @ ../Src/rc522.c:658:0
	.fnstart
	.cfi_startproc
@ %bb.0:
	.save	{r7, lr}
	push	{r7, lr}
	.cfi_def_cfa_offset 8
	.cfi_offset lr, -4
	.cfi_offset r7, -8
	.pad	#8
	sub	sp, #8
	.cfi_def_cfa_offset 16
	@DEBUG_VALUE: RC522_WriteRegister:addr <- $r0
	@DEBUG_VALUE: RC522_WriteRegister:addr <- $r0
	@DEBUG_VALUE: RC522_WriteRegister:val <- $r1
	@DEBUG_VALUE: RC522_WriteRegister:val <- $r1
.Ltmp2:
	.loc	2 659 19 prologue_end   @ ../Src/rc522.c:659:19
	movw	r2, :lower16:rc522_tx_buff
	movt	r2, :upper16:rc522_tx_buff
	.loc	2 660 22                @ ../Src/rc522.c:660:22
	strb	r1, [r2, #1]
	.loc	2 659 19                @ ../Src/rc522.c:659:19
	strb	r0, [r2]
.Ltmp3:
	.loc	2 661 5                 @ ../Src/rc522.c:661:5
	movs	r0, #5
.Ltmp4:
	str	r0, [sp]
	movw	r0, :lower16:hi2c1
	movt	r0, :upper16:hi2c1
	movs	r1, #126
.Ltmp5:
	movs	r3, #2
	bl	HAL_I2C_Master_Transmit
.Ltmp6:
	.loc	2 661 5 is_stmt 0       @ ../Src/rc522.c:661:5
	cmp	r0, #0
	.loc	2 662 1 is_stmt 1       @ ../Src/rc522.c:662:1
	add	sp, #8
.Ltmp7:
	.loc	2 661 95                @ ../Src/rc522.c:661:95
	ite	ne
	popne.w	{r7, lr}
.Ltmp8:
	.loc	2 662 1                 @ ../Src/rc522.c:662:1
	popeq	{r7, pc}
.Ltmp9:
	.loc	2 661 95                @ ../Src/rc522.c:661:95
	b	Error_Handler
.Ltmp10:
.Lfunc_end1:
	.size	RC522_WriteRegister, .Lfunc_end1-RC522_WriteRegister
	.cfi_endproc
	.cantunwind
	.fnend
                                        @ -- End function
	.section	.text.RC522_AntennaOn,"ax",%progbits
	.p2align	2               @ -- Begin function RC522_AntennaOn
	.type	RC522_AntennaOn,%function
	.code	16                      @ @RC522_AntennaOn
	.thumb_func
RC522_AntennaOn:
.Lfunc_begin2:
	.loc	2 687 0                 @ ../Src/rc522.c:687:0
	.fnstart
	.cfi_startproc
@ %bb.0:
	.save	{r7, lr}
	push	{r7, lr}
	.cfi_def_cfa_offset 8
	.cfi_offset lr, -4
	.cfi_offset r7, -8
.Ltmp11:
	.loc	2 690 9 prologue_end    @ ../Src/rc522.c:690:9
	movs	r0, #20
	bl	RC522_ReadRegister
	.loc	2 692 6                 @ ../Src/rc522.c:692:6
	lsls	r0, r0, #30
	.loc	2 696 1                 @ ../Src/rc522.c:696:1
	it	ne
	popne	{r7, pc}
.Ltmp12:
	.loc	2 694 3                 @ ../Src/rc522.c:694:3
	movs	r0, #20
	movs	r1, #3
	pop.w	{r7, lr}
	b	RC522_SetBitMask
.Ltmp13:
.Lfunc_end2:
	.size	RC522_AntennaOn, .Lfunc_end2-RC522_AntennaOn
	.cfi_endproc
	.cantunwind
	.fnend
                                        @ -- End function
	.section	.text.RC522_Service,"ax",%progbits
	.hidden	RC522_Service           @ -- Begin function RC522_Service
	.globl	RC522_Service
	.p2align	2
	.type	RC522_Service,%function
	.code	16                      @ @RC522_Service
	.thumb_func
RC522_Service:
.Lfunc_begin3:
	.loc	2 269 0                 @ ../Src/rc522.c:269:0
	.fnstart
	.cfi_startproc
@ %bb.0:
	.save	{r4, r5, r6, r7, r8, r9, r10, r11, lr}
	push.w	{r4, r5, r6, r7, r8, r9, r10, r11, lr}
	.cfi_def_cfa_offset 36
	.cfi_offset lr, -4
	.cfi_offset r11, -8
	.cfi_offset r10, -12
	.cfi_offset r9, -16
	.cfi_offset r8, -20
	.cfi_offset r7, -24
	.cfi_offset r6, -28
	.cfi_offset r5, -32
	.cfi_offset r4, -36
	.pad	#20
	sub	sp, #20
	.cfi_def_cfa_offset 56
.Ltmp14:
	.loc	2 280 8 prologue_end    @ ../Src/rc522.c:280:8
	movw	r4, :lower16:eComState
	movt	r4, :upper16:eComState
	ldr	r0, [r4]
.Ltmp15:
	.loc	2 280 8 is_stmt 0       @ ../Src/rc522.c:280:8
	cmp	r0, #2
.Ltmp16:
	.loc	2 280 42                @ ../Src/rc522.c:280:42
	it	eq
	bleq	RS485_Service
.Ltmp17:
	.loc	2 282 8 is_stmt 1       @ ../Src/rc522.c:282:8
	movw	r5, :lower16:mifare_process_flags
	movt	r5, :upper16:mifare_process_flags
	ldr	r0, [r5]
.Ltmp18:
	.loc	2 282 8 is_stmt 0       @ ../Src/rc522.c:282:8
	tst.w	r0, #2
	beq	.LBB3_2
@ %bb.1:
.Ltmp19:
	.loc	2 284 9 is_stmt 1       @ ../Src/rc522.c:284:9
	ldr	r0, [r5]
	bic	r0, r0, #2
	str	r0, [r5]
	.loc	2 285 24                @ ../Src/rc522.c:285:24
	bl	HAL_GetTick
	.loc	2 285 22 is_stmt 0      @ ../Src/rc522.c:285:22
	movw	r1, :lower16:RC522_Service.mifare_timer
	movt	r1, :upper16:RC522_Service.mifare_timer
	str	r0, [r1]
	.loc	2 286 21 is_stmt 1      @ ../Src/rc522.c:286:21
	movw	r0, :lower16:RC522_Service.mifare_time
	movt	r0, :upper16:RC522_Service.mifare_time
	movw	r1, #3210
	str	r1, [r0]
.Ltmp20:
.LBB3_2:
	.loc	2 289 6                 @ ../Src/rc522.c:289:6
	bl	HAL_GetTick
	.loc	2 289 22 is_stmt 0      @ ../Src/rc522.c:289:22
	movw	r11, :lower16:RC522_Service.handmaid_card_timer
	movt	r11, :upper16:RC522_Service.handmaid_card_timer
	ldr.w	r1, [r11]
	.loc	2 289 20                @ ../Src/rc522.c:289:20
	subs	r0, r0, r1
	movw	r7, :lower16:RC522_Service.handmaid_card_time
	movt	r7, :upper16:RC522_Service.handmaid_card_time
	ldrb	r1, [r7]
	cmp	r1, #0
	it	ne
	movwne	r1, #2345
.Ltmp21:
	.loc	2 289 5                 @ ../Src/rc522.c:289:5
	cmp	r0, r1
	blo	.LBB3_6
@ %bb.3:
.Ltmp22:
	.loc	2 291 8 is_stmt 1       @ ../Src/rc522.c:291:8
	movw	r0, :lower16:RC522_Service.handmaid_card_cycles
	movt	r0, :upper16:RC522_Service.handmaid_card_cycles
	ldrb	r1, [r0]
	.loc	2 291 36 is_stmt 0      @ ../Src/rc522.c:291:36
	cmp	r1, #1
	bne	.LBB3_5
@ %bb.4:
	.loc	2 0 36                  @ ../Src/rc522.c:0:36
	movw	r1, :lower16:ROOM_Status
	movt	r1, :upper16:ROOM_Status
	ldr	r1, [r1]
	.loc	2 291 36                @ ../Src/rc522.c:291:36
	cmp	r1, #8
	.loc	2 291 74                @ ../Src/rc522.c:291:74
	ittt	eq
	ldreq	r1, [r5]
	orreq	r1, r1, #1
	streq	r1, [r5]
.Ltmp23:
.LBB3_5:
	.loc	2 292 24 is_stmt 1      @ ../Src/rc522.c:292:24
	movs	r1, #0
	strb	r1, [r0]
.Ltmp24:
.LBB3_6:
	.loc	2 295 10                @ ../Src/rc522.c:295:10
	bl	HAL_GetTick
	.loc	2 295 26 is_stmt 0      @ ../Src/rc522.c:295:26
	movw	r6, :lower16:RC522_Service.mifare_timer
	movt	r6, :upper16:RC522_Service.mifare_timer
	ldr	r1, [r6]
	.loc	2 295 24                @ ../Src/rc522.c:295:24
	subs	r0, r0, r1
	.loc	2 295 42                @ ../Src/rc522.c:295:42
	movw	r8, :lower16:RC522_Service.mifare_time
	movt	r8, :upper16:RC522_Service.mifare_time
	ldr.w	r1, [r8]
	.loc	2 295 55                @ ../Src/rc522.c:295:55
	cmp	r0, r1
	blo.w	.LBB3_63
@ %bb.7:
	.loc	2 295 58                @ ../Src/rc522.c:295:58
	movw	r0, :lower16:rs485_flags
	movt	r0, :upper16:rs485_flags
	ldr	r0, [r0]
.Ltmp25:
	.loc	2 295 8                 @ ../Src/rc522.c:295:8
	tst.w	r0, #1
	bne.w	.LBB3_63
@ %bb.8:
.Ltmp26:
	.loc	2 296 25 is_stmt 1      @ ../Src/rc522.c:296:25
	bl	HAL_GetTick
	.loc	2 296 23 is_stmt 0      @ ../Src/rc522.c:296:23
	str	r0, [r6]
.Ltmp27:
	.loc	2 298 6 is_stmt 1       @ ../Src/rc522.c:298:6
	bl	RC522_Check
.Ltmp28:
	.loc	2 298 6 is_stmt 0       @ ../Src/rc522.c:298:6
	cmp	r0, #1
	bne	.LBB3_12
@ %bb.9:
.Ltmp29:
	.loc	2 300 3 is_stmt 1       @ ../Src/rc522.c:300:3
	bl	RC522_ClearData
	.loc	2 301 3                 @ ../Src/rc522.c:301:3
	bl	RC522_ReadCard
	.loc	2 302 3                 @ ../Src/rc522.c:302:3
	bl	RC522_VerifyData
	.loc	2 304 9                 @ ../Src/rc522.c:304:9
	movw	r4, :lower16:hrtc
	movt	r4, :upper16:hrtc
	add	r1, sp, #8
.Ltmp30:
	@DEBUG_VALUE: RC522_Service:time_m <- [DW_OP_plus_uconst 8] [$sp+0]
	movs	r5, #1
	mov	r0, r4
	movs	r2, #1
	bl	HAL_RTC_GetTime
	add	r1, sp, #4
.Ltmp31:
	@DEBUG_VALUE: RC522_Service:date_m <- [DW_OP_plus_uconst 4] [$sp+0]
	.loc	2 305 9                 @ ../Src/rc522.c:305:9
	mov	r0, r4
	movs	r2, #1
	bl	HAL_RTC_GetDate
.Ltmp32:
	.loc	2 307 14                @ ../Src/rc522.c:307:14
	movw	r4, :lower16:sCard
	movt	r4, :upper16:sCard
	ldrh	r0, [r4, #16]
	.loc	2 307 46 is_stmt 0      @ ../Src/rc522.c:307:46
	cmp	r0, #125
	beq.w	.LBB3_21
.Ltmp33:
@ %bb.10:
	@DEBUG_VALUE: RC522_Service:date_m <- [DW_OP_plus_uconst 4] [$sp+0]
	@DEBUG_VALUE: RC522_Service:time_m <- [DW_OP_plus_uconst 8] [$sp+0]
	cmp	r0, #123
	bne.w	.LBB3_28
.Ltmp34:
@ %bb.11:
	@DEBUG_VALUE: RC522_Service:date_m <- [DW_OP_plus_uconst 4] [$sp+0]
	@DEBUG_VALUE: RC522_Service:time_m <- [DW_OP_plus_uconst 8] [$sp+0]
	.loc	2 550 17 is_stmt 1      @ ../Src/rc522.c:550:17
	movw	r0, :lower16:SignalBuzzer
	movt	r0, :upper16:SignalBuzzer
	movs	r1, #1
	str	r1, [r0]
	.loc	2 549 25                @ ../Src/rc522.c:549:25
	movw	r0, :lower16:RC522_Service.handmaid_card_cycles
	movt	r0, :upper16:RC522_Service.handmaid_card_cycles
	movs	r1, #0
	strb	r1, [r0]
	.loc	2 551 25                @ ../Src/rc522.c:551:25
	movw	r0, #987
	str.w	r0, [r8]
	b	.LBB3_24
.Ltmp35:
.LBB3_12:
	.loc	2 579 11                @ ../Src/rc522.c:579:11
	ldr	r0, [r5]
.Ltmp36:
	.loc	2 579 11 is_stmt 0      @ ../Src/rc522.c:579:11
	tst.w	r0, #1
	bne	.LBB3_20
@ %bb.13:
.Ltmp37:
	.loc	2 608 8 is_stmt 1       @ ../Src/rc522.c:608:8
	movw	r0, :lower16:dout_0_7_remote
	movt	r0, :upper16:dout_0_7_remote
	ldrh	r0, [r0]
.Ltmp38:
	.loc	2 608 6 is_stmt 0       @ ../Src/rc522.c:608:6
	tst.w	r0, #64
	bne	.LBB3_15
@ %bb.14:
.Ltmp39:
	.loc	2 608 38                @ ../Src/rc522.c:608:38
	movw	r0, :lower16:dout_0_7
	movt	r0, :upper16:dout_0_7
	ldrb	r1, [r0]
	and	r1, r1, #191
	strb	r1, [r0]
.Ltmp40:
.LBB3_15:
	.loc	2 609 3 is_stmt 1       @ ../Src/rc522.c:609:3
	movw	r5, :lower16:hc595_dout
	movt	r5, :upper16:hc595_dout
	ldrb	r0, [r5]
	and	r0, r0, #127
	strb	r0, [r5]
	.loc	2 610 3                 @ ../Src/rc522.c:610:3
	bl	DIO_SetOuput
	mvn	r6, #9
.Ltmp41:
	@DEBUG_VALUE: RC522_Service:i <- 10
	.p2align	2
.LBB3_16:                               @ =>This Inner Loop Header: Depth=1
	.loc	2 614 4                 @ ../Src/rc522.c:614:4
	movs	r0, #1
	bl	HAL_Delay
.Ltmp42:
	.loc	2 615 7                 @ ../Src/rc522.c:615:7
	ldr	r0, [r4]
.Ltmp43:
	.loc	2 615 7 is_stmt 0       @ ../Src/rc522.c:615:7
	cmp	r0, #2
.Ltmp44:
	.loc	2 615 41                @ ../Src/rc522.c:615:41
	it	eq
	bleq	RS485_Service
.Ltmp45:
	.loc	2 612 19 is_stmt 1      @ ../Src/rc522.c:612:19
	adds	r6, #1
.Ltmp46:
	.loc	2 612 3 is_stmt 0       @ ../Src/rc522.c:612:3
	bne	.LBB3_16
.Ltmp47:
@ %bb.17:
	.loc	2 618 3 is_stmt 1       @ ../Src/rc522.c:618:3
	ldrb	r0, [r5]
	orr	r0, r0, #128
	strb	r0, [r5]
	.loc	2 619 3                 @ ../Src/rc522.c:619:3
	bl	DIO_SetOuput
	mvn	r5, #9
	@DEBUG_VALUE: RC522_Service:i <- 10
	.p2align	2
.LBB3_18:                               @ =>This Inner Loop Header: Depth=1
.Ltmp48:
	.loc	2 623 4                 @ ../Src/rc522.c:623:4
	movs	r0, #1
	bl	HAL_Delay
.Ltmp49:
	.loc	2 624 7                 @ ../Src/rc522.c:624:7
	ldr	r0, [r4]
.Ltmp50:
	.loc	2 624 7 is_stmt 0       @ ../Src/rc522.c:624:7
	cmp	r0, #2
.Ltmp51:
	.loc	2 624 41                @ ../Src/rc522.c:624:41
	it	eq
	bleq	RS485_Service
.Ltmp52:
	.loc	2 621 19 is_stmt 1      @ ../Src/rc522.c:621:19
	adds	r5, #1
.Ltmp53:
	.loc	2 621 3 is_stmt 0       @ ../Src/rc522.c:621:3
	bne	.LBB3_18
.Ltmp54:
@ %bb.19:
	.loc	2 627 3 is_stmt 1       @ ../Src/rc522.c:627:3
	bl	RC522_Reset
	.loc	2 628 3                 @ ../Src/rc522.c:628:3
	movs	r0, #42
	movs	r1, #141
	bl	RC522_WriteRegister
	.loc	2 629 3                 @ ../Src/rc522.c:629:3
	movs	r0, #43
	movs	r1, #62
	bl	RC522_WriteRegister
	.loc	2 630 3                 @ ../Src/rc522.c:630:3
	movs	r0, #45
	movs	r1, #30
	bl	RC522_WriteRegister
	.loc	2 631 3                 @ ../Src/rc522.c:631:3
	movs	r0, #44
	movs	r1, #0
	bl	RC522_WriteRegister
	.loc	2 632 3                 @ ../Src/rc522.c:632:3
	movs	r0, #21
	movs	r1, #64
	bl	RC522_WriteRegister
	.loc	2 633 3                 @ ../Src/rc522.c:633:3
	movs	r0, #17
	movs	r1, #61
	bl	RC522_WriteRegister
	.loc	2 634 3                 @ ../Src/rc522.c:634:3
	bl	RC522_AntennaOn
	.loc	2 635 21                @ ../Src/rc522.c:635:21
	movs	r0, #234
	str.w	r0, [r8]
	b	.LBB3_63
.Ltmp55:
.LBB3_20:
	.loc	2 581 3                 @ ../Src/rc522.c:581:3
	movw	r4, :lower16:hrtc
	movt	r4, :upper16:hrtc
	add	r1, sp, #8
.Ltmp56:
	@DEBUG_VALUE: RC522_Service:time_m <- [DW_OP_plus_uconst 8] [$sp+0]
	mov	r0, r4
	movs	r2, #1
	bl	HAL_RTC_GetTime
	add	r1, sp, #4
.Ltmp57:
	@DEBUG_VALUE: RC522_Service:date_m <- [DW_OP_plus_uconst 4] [$sp+0]
	.loc	2 582 3                 @ ../Src/rc522.c:582:3
	mov	r0, r4
	movs	r2, #1
	bl	HAL_RTC_GetDate
	.loc	2 588 3                 @ ../Src/rc522.c:588:3
	movw	r0, :lower16:signal_flags
	movt	r0, :upper16:signal_flags
	ldr	r1, [r0]
	bic	r1, r1, #1
	str	r1, [r0]
	.loc	2 599 3                 @ ../Src/rc522.c:599:3
	movw	r0, :lower16:dout_0_7
	movt	r0, :upper16:dout_0_7
	ldrb	r1, [r0]
	orr	r1, r1, #64
	strb	r1, [r0]
	.loc	2 600 3                 @ ../Src/rc522.c:600:3
	ldrb	r1, [r0]
	and	r1, r1, #254
	strb	r1, [r0]
	.loc	2 584 31                @ ../Src/rc522.c:584:31
	movw	r0, :lower16:aRoomPowerExpiryDateTime
	movt	r0, :upper16:aRoomPowerExpiryDateTime
	.loc	2 585 40                @ ../Src/rc522.c:585:40
	ldrb.w	r1, [sp, #5]
	.loc	2 584 40                @ ../Src/rc522.c:584:40
	ldrb.w	r2, [sp, #6]
	.loc	2 586 40                @ ../Src/rc522.c:586:40
	ldrb.w	r3, [sp, #7]
	.loc	2 584 31                @ ../Src/rc522.c:584:31
	strb	r2, [r0]
	.loc	2 585 31                @ ../Src/rc522.c:585:31
	strb	r1, [r0, #1]
	.loc	2 586 31                @ ../Src/rc522.c:586:31
	strb	r3, [r0, #2]
.Ltmp58:
	.loc	2 590 7                 @ ../Src/rc522.c:590:7
	ldrb.w	r1, [sp, #8]
.Ltmp59:
	.loc	2 587 40                @ ../Src/rc522.c:587:40
	ldrb.w	r2, [sp, #9]
	.loc	2 587 31 is_stmt 0      @ ../Src/rc522.c:587:31
	strb	r2, [r0, #4]
.Ltmp60:
	.loc	2 590 20 is_stmt 1      @ ../Src/rc522.c:590:20
	adds	r1, #2
.Ltmp61:
	.loc	2 590 6 is_stmt 0       @ ../Src/rc522.c:590:6
	cmp	r1, #36
	it	hs
	movhs	r1, #36
	strb	r1, [r0, #3]
	.loc	2 601 3 is_stmt 1       @ ../Src/rc522.c:601:3
	movw	r0, :lower16:display_flags
	movt	r0, :upper16:display_flags
	ldr	r1, [r0]
	orr	r1, r1, #256
	str	r1, [r0]
	.loc	2 602 16                @ ../Src/rc522.c:602:16
	movw	r0, :lower16:SignalBuzzer
	movt	r0, :upper16:SignalBuzzer
	movs	r1, #2
	str	r1, [r0]
	.loc	2 603 21                @ ../Src/rc522.c:603:21
	movw	r0, #3210
	str.w	r0, [r8]
	.loc	2 604 3                 @ ../Src/rc522.c:604:3
	ldr	r0, [r5]
	bic	r0, r0, #1
	str	r0, [r5]
.Ltmp62:
	.loc	2 637 1                 @ ../Src/rc522.c:637:1
	add	sp, #20
.Ltmp63:
	pop.w	{r4, r5, r6, r7, r8, r9, r10, r11, pc}
.LBB3_21:
.Ltmp64:
	@DEBUG_VALUE: RC522_Service:date_m <- [DW_OP_plus_uconst 4] [$sp+0]
	@DEBUG_VALUE: RC522_Service:time_m <- [DW_OP_plus_uconst 8] [$sp+0]
	.loc	2 550 17                @ ../Src/rc522.c:550:17
	movw	r0, :lower16:SignalBuzzer
	movt	r0, :upper16:SignalBuzzer
	str	r5, [r0]
	.loc	2 549 25                @ ../Src/rc522.c:549:25
	movw	r0, :lower16:RC522_Service.handmaid_card_cycles
	movt	r0, :upper16:RC522_Service.handmaid_card_cycles
	movs	r1, #0
	strb	r1, [r0]
	.loc	2 551 25                @ ../Src/rc522.c:551:25
	movw	r0, #987
	str.w	r0, [r8]
.Ltmp65:
.LBB3_22:
	@DEBUG_VALUE: RC522_Service:date_m <- [DW_OP_plus_uconst 4] [$sp+0]
	@DEBUG_VALUE: RC522_Service:time_m <- [DW_OP_plus_uconst 8] [$sp+0]
	.loc	2 557 18                @ ../Src/rc522.c:557:18
	ldrb	r0, [r4, #6]
.Ltmp66:
	.loc	2 557 12 is_stmt 0      @ ../Src/rc522.c:557:12
	cmp	r0, #71
	bne.w	.LBB3_63
.Ltmp67:
@ %bb.23:
	@DEBUG_VALUE: RC522_Service:date_m <- [DW_OP_plus_uconst 4] [$sp+0]
	@DEBUG_VALUE: RC522_Service:time_m <- [DW_OP_plus_uconst 8] [$sp+0]
	.loc	2 559 15 is_stmt 1      @ ../Src/rc522.c:559:15
	ldrh	r0, [r4, #14]
.Ltmp68:
	.loc	2 559 9 is_stmt 0       @ ../Src/rc522.c:559:9
	cmp	r0, #46
	bne.w	.LBB3_46
.Ltmp69:
.LBB3_24:
	@DEBUG_VALUE: RC522_Service:date_m <- [DW_OP_plus_uconst 4] [$sp+0]
	@DEBUG_VALUE: RC522_Service:time_m <- [DW_OP_plus_uconst 8] [$sp+0]
	.loc	2 0 9                   @ ../Src/rc522.c:0:9
	movw	r0, :lower16:display_flags
	movt	r0, :upper16:display_flags
	ldr	r1, [r0]
	orr	r1, r1, #1024
.Ltmp70:
.LBB3_25:
	@DEBUG_VALUE: RC522_Service:date_m <- [DW_OP_plus_uconst 4] [$sp+0]
	@DEBUG_VALUE: RC522_Service:time_m <- [DW_OP_plus_uconst 8] [$sp+0]
	str	r1, [r0]
.Ltmp71:
.LBB3_26:
	@DEBUG_VALUE: RC522_Service:date_m <- [DW_OP_plus_uconst 4] [$sp+0]
	@DEBUG_VALUE: RC522_Service:time_m <- [DW_OP_plus_uconst 8] [$sp+0]
	ldr	r1, [r0]
	orr	r1, r1, #-2147483648
.Ltmp72:
.LBB3_27:
	@DEBUG_VALUE: RC522_Service:date_m <- [DW_OP_plus_uconst 4] [$sp+0]
	@DEBUG_VALUE: RC522_Service:time_m <- [DW_OP_plus_uconst 8] [$sp+0]
	str	r1, [r0]
	.loc	2 637 1 is_stmt 1       @ ../Src/rc522.c:637:1
	add	sp, #20
.Ltmp73:
	pop.w	{r4, r5, r6, r7, r8, r9, r10, r11, pc}
.LBB3_28:
.Ltmp74:
	@DEBUG_VALUE: RC522_Service:date_m <- [DW_OP_plus_uconst 4] [$sp+0]
	@DEBUG_VALUE: RC522_Service:time_m <- [DW_OP_plus_uconst 8] [$sp+0]
	.loc	2 309 12                @ ../Src/rc522.c:309:12
	ldrb	r2, [r4]
	ldrb	r1, [r4, #6]
	.loc	2 309 39 is_stmt 0      @ ../Src/rc522.c:309:39
	cmp	r2, #6
	bne	.LBB3_33
.Ltmp75:
@ %bb.29:
	@DEBUG_VALUE: RC522_Service:date_m <- [DW_OP_plus_uconst 4] [$sp+0]
	@DEBUG_VALUE: RC522_Service:time_m <- [DW_OP_plus_uconst 8] [$sp+0]
	.loc	2 314 7 is_stmt 1       @ ../Src/rc522.c:314:7
	cmp	r1, #72
	beq	.LBB3_37
.Ltmp76:
@ %bb.30:
	@DEBUG_VALUE: RC522_Service:date_m <- [DW_OP_plus_uconst 4] [$sp+0]
	@DEBUG_VALUE: RC522_Service:time_m <- [DW_OP_plus_uconst 8] [$sp+0]
	cmp	r1, #71
	bne	.LBB3_40
.Ltmp77:
@ %bb.31:
	@DEBUG_VALUE: RC522_Service:date_m <- [DW_OP_plus_uconst 4] [$sp+0]
	@DEBUG_VALUE: RC522_Service:time_m <- [DW_OP_plus_uconst 8] [$sp+0]
	.loc	2 316 8                 @ ../Src/rc522.c:316:8
	movw	r0, :lower16:ROOM_Status
	movt	r0, :upper16:ROOM_Status
	ldr	r1, [r0]
.Ltmp78:
	.loc	2 316 8 is_stmt 0       @ ../Src/rc522.c:316:8
	cmp	r1, #6
	beq.w	.LBB3_54
.Ltmp79:
@ %bb.32:
	@DEBUG_VALUE: RC522_Service:date_m <- [DW_OP_plus_uconst 4] [$sp+0]
	@DEBUG_VALUE: RC522_Service:time_m <- [DW_OP_plus_uconst 8] [$sp+0]
	.loc	2 332 6 is_stmt 1       @ ../Src/rc522.c:332:6
	movw	r2, :lower16:signal_flags
	movt	r2, :upper16:signal_flags
	ldr	r3, [r2]
	orr	r3, r3, #1
	str	r3, [r2]
	.loc	2 325 17                @ ../Src/rc522.c:325:17
	mov.w	r2, #12288
	strh.w	r2, [sp, #12]
	.loc	2 327 19                @ ../Src/rc522.c:327:19
	ldrb	r2, [r4, #7]
	.loc	2 327 17 is_stmt 0      @ ../Src/rc522.c:327:17
	strb.w	r2, [sp, #14]
	.loc	2 328 19 is_stmt 1      @ ../Src/rc522.c:328:19
	ldr	r2, [r4, #8]
	.loc	2 328 17 is_stmt 0      @ ../Src/rc522.c:328:17
	str.w	r2, [sp, #15]
.Ltmp80:
	.loc	2 333 36 is_stmt 1      @ ../Src/rc522.c:333:36
	cmp	r1, #1
	.loc	2 333 80 is_stmt 0      @ ../Src/rc522.c:333:80
	itt	ls
	movls	r1, #2
	strls	r1, [r0]
.Ltmp81:
	.loc	2 334 10 is_stmt 1      @ ../Src/rc522.c:334:10
	movs	r0, #5
	str	r0, [sp]
	movw	r0, :lower16:hi2c1
	movt	r0, :upper16:hi2c1
	add	r2, sp, #12
	movs	r1, #160
	movs	r3, #7
	bl	HAL_I2C_Master_Transmit
.Ltmp82:
	.loc	2 334 10 is_stmt 0      @ ../Src/rc522.c:334:10
	cmp	r0, #0
.Ltmp83:
	.loc	2 334 96                @ ../Src/rc522.c:334:96
	it	ne
	blne	Error_Handler
.Ltmp84:
	.loc	2 335 10 is_stmt 1      @ ../Src/rc522.c:335:10
	movw	r0, :lower16:hi2c1
	movt	r0, :upper16:hi2c1
	movs	r1, #161
	movs	r2, #100
	movs	r3, #15
	bl	HAL_I2C_IsDeviceReady
.Ltmp85:
	.loc	2 335 10 is_stmt 0      @ ../Src/rc522.c:335:10
	cmp	r0, #0
.Ltmp86:
	.loc	2 335 99                @ ../Src/rc522.c:335:99
	it	ne
	blne	Error_Handler
.Ltmp87:
	@DEBUG_VALUE: RC522_Service:i <- 6
	.loc	2 342 35 is_stmt 1      @ ../Src/rc522.c:342:35
	ldrh.w	r0, [r4, #11]
	movw	r1, :lower16:aRoomPowerExpiryDateTime
	movt	r1, :upper16:aRoomPowerExpiryDateTime
	strh	r0, [r1, #4]
	ldr.w	r0, [r4, #7]
	str	r0, [r1]
	b	.LBB3_57
.Ltmp88:
.LBB3_33:
	@DEBUG_VALUE: RC522_Service:date_m <- [DW_OP_plus_uconst 4] [$sp+0]
	@DEBUG_VALUE: RC522_Service:time_m <- [DW_OP_plus_uconst 8] [$sp+0]
	.loc	2 310 50                @ ../Src/rc522.c:310:50
	cmp	r1, #72
	beq	.LBB3_37
.Ltmp89:
@ %bb.34:
	@DEBUG_VALUE: RC522_Service:date_m <- [DW_OP_plus_uconst 4] [$sp+0]
	@DEBUG_VALUE: RC522_Service:time_m <- [DW_OP_plus_uconst 8] [$sp+0]
	cmp	r1, #77
	beq	.LBB3_39
.Ltmp90:
@ %bb.35:
	@DEBUG_VALUE: RC522_Service:date_m <- [DW_OP_plus_uconst 4] [$sp+0]
	@DEBUG_VALUE: RC522_Service:time_m <- [DW_OP_plus_uconst 8] [$sp+0]
	cmp	r1, #83
	beq	.LBB3_39
.Ltmp91:
@ %bb.36:
	@DEBUG_VALUE: RC522_Service:date_m <- [DW_OP_plus_uconst 4] [$sp+0]
	@DEBUG_VALUE: RC522_Service:time_m <- [DW_OP_plus_uconst 8] [$sp+0]
	.loc	2 550 17                @ ../Src/rc522.c:550:17
	movw	r1, :lower16:SignalBuzzer
	movt	r1, :upper16:SignalBuzzer
	movs	r2, #1
	str	r2, [r1]
	.loc	2 549 25                @ ../Src/rc522.c:549:25
	movw	r1, :lower16:RC522_Service.handmaid_card_cycles
	movt	r1, :upper16:RC522_Service.handmaid_card_cycles
	movs	r2, #0
	strb	r2, [r1]
	.loc	2 551 25                @ ../Src/rc522.c:551:25
	movw	r1, #987
	str.w	r1, [r8]
	.loc	2 553 8                 @ ../Src/rc522.c:553:8
	cmp	r0, #123
	bne.w	.LBB3_22
	b	.LBB3_24
.Ltmp92:
.LBB3_37:
	@DEBUG_VALUE: RC522_Service:date_m <- [DW_OP_plus_uconst 4] [$sp+0]
	@DEBUG_VALUE: RC522_Service:time_m <- [DW_OP_plus_uconst 8] [$sp+0]
	.loc	2 347 64                @ ../Src/rc522.c:347:64
	movw	r0, :lower16:din_0_7
	movt	r0, :upper16:din_0_7
	ldrb	r0, [r0]
	.loc	2 347 89 is_stmt 0      @ ../Src/rc522.c:347:89
	tst.w	r0, #1
	bne	.LBB3_39
.Ltmp93:
@ %bb.38:
	@DEBUG_VALUE: RC522_Service:date_m <- [DW_OP_plus_uconst 4] [$sp+0]
	@DEBUG_VALUE: RC522_Service:time_m <- [DW_OP_plus_uconst 8] [$sp+0]
	.loc	2 347 93                @ ../Src/rc522.c:347:93
	movw	r0, :lower16:dio_flags
	movt	r0, :upper16:dio_flags
	ldr	r0, [r0]
	.loc	2 347 117               @ ../Src/rc522.c:347:117
	tst.w	r0, #1
	beq	.LBB3_42
.Ltmp94:
.LBB3_39:
	@DEBUG_VALUE: RC522_Service:date_m <- [DW_OP_plus_uconst 4] [$sp+0]
	@DEBUG_VALUE: RC522_Service:time_m <- [DW_OP_plus_uconst 8] [$sp+0]
	.loc	2 348 13 is_stmt 1      @ ../Src/rc522.c:348:13
	ldrb	r1, [r4, #6]
.Ltmp95:
.LBB3_40:
	@DEBUG_VALUE: RC522_Service:date_m <- [DW_OP_plus_uconst 4] [$sp+0]
	@DEBUG_VALUE: RC522_Service:time_m <- [DW_OP_plus_uconst 8] [$sp+0]
	.loc	2 348 52 is_stmt 0      @ ../Src/rc522.c:348:52
	cmp	r1, #83
	beq	.LBB3_42
.Ltmp96:
@ %bb.41:
	@DEBUG_VALUE: RC522_Service:date_m <- [DW_OP_plus_uconst 4] [$sp+0]
	@DEBUG_VALUE: RC522_Service:time_m <- [DW_OP_plus_uconst 8] [$sp+0]
	cmp	r1, #77
	bne	.LBB3_57
.Ltmp97:
.LBB3_42:
	@DEBUG_VALUE: RC522_Service:date_m <- [DW_OP_plus_uconst 4] [$sp+0]
	@DEBUG_VALUE: RC522_Service:time_m <- [DW_OP_plus_uconst 8] [$sp+0]
	.loc	2 351 15 is_stmt 1      @ ../Src/rc522.c:351:15
	ldrb	r0, [r4, #6]
	.loc	2 351 54 is_stmt 0      @ ../Src/rc522.c:351:54
	cmp	r0, #72
	beq	.LBB3_53
.Ltmp98:
@ %bb.43:
	@DEBUG_VALUE: RC522_Service:date_m <- [DW_OP_plus_uconst 4] [$sp+0]
	@DEBUG_VALUE: RC522_Service:time_m <- [DW_OP_plus_uconst 8] [$sp+0]
	cmp	r0, #83
	beq	.LBB3_45
.Ltmp99:
@ %bb.44:
	@DEBUG_VALUE: RC522_Service:date_m <- [DW_OP_plus_uconst 4] [$sp+0]
	@DEBUG_VALUE: RC522_Service:time_m <- [DW_OP_plus_uconst 8] [$sp+0]
	cmp	r0, #77
	bne	.LBB3_60
.Ltmp100:
.LBB3_45:
	@DEBUG_VALUE: RC522_Service:date_m <- [DW_OP_plus_uconst 4] [$sp+0]
	@DEBUG_VALUE: RC522_Service:time_m <- [DW_OP_plus_uconst 8] [$sp+0]
	.loc	2 0 54                  @ ../Src/rc522.c:0:54
	movw	r0, :lower16:aRoomPowerExpiryDateTime
	movt	r0, :upper16:aRoomPowerExpiryDateTime
	ldrb.w	r1, [sp, #5]
	ldrb.w	r2, [sp, #6]
	ldrb.w	r3, [sp, #7]
	strb	r2, [r0]
	strb	r1, [r0, #1]
	strb	r3, [r0, #2]
	ldrb.w	r1, [sp, #8]
	ldrb.w	r2, [sp, #9]
	strb	r2, [r0, #4]
	movw	r2, :lower16:signal_flags
	movt	r2, :upper16:signal_flags
	ldr	r3, [r2]
	bic	r3, r3, #1
	str	r3, [r2]
	adds	r1, #2
	cmp	r1, #35
	it	hi
	movhi	r1, #36
	strb	r1, [r0, #3]
	b	.LBB3_57
.Ltmp101:
.LBB3_46:
	@DEBUG_VALUE: RC522_Service:date_m <- [DW_OP_plus_uconst 4] [$sp+0]
	@DEBUG_VALUE: RC522_Service:time_m <- [DW_OP_plus_uconst 8] [$sp+0]
	.loc	2 563 59 is_stmt 1      @ ../Src/rc522.c:563:59
	ldrb.w	r12, [r4, #12]
	ldrb	r3, [r4, #11]
	.loc	2 563 14 is_stmt 0      @ ../Src/rc522.c:563:14
	ldrb	r1, [r4, #7]
	.loc	2 563 59                @ ../Src/rc522.c:563:59
	ldrb	r5, [r4, #8]
	ldrb	r6, [r4, #9]
	ldrb	r7, [r4, #10]
	movw	r0, :lower16:display_flags
	movt	r0, :upper16:display_flags
	ldr	r2, [r0]
	cmp	r1, #62
	it	ne
	cmpne	r5, #62
	bne	.LBB3_48
.Ltmp102:
.LBB3_47:
	@DEBUG_VALUE: RC522_Service:date_m <- [DW_OP_plus_uconst 4] [$sp+0]
	@DEBUG_VALUE: RC522_Service:time_m <- [DW_OP_plus_uconst 8] [$sp+0]
	.loc	2 570 6 is_stmt 1       @ ../Src/rc522.c:570:6
	orr	r1, r2, #2048
	b	.LBB3_25
.Ltmp103:
.LBB3_48:
	@DEBUG_VALUE: RC522_Service:date_m <- [DW_OP_plus_uconst 4] [$sp+0]
	@DEBUG_VALUE: RC522_Service:time_m <- [DW_OP_plus_uconst 8] [$sp+0]
	.loc	2 563 59                @ ../Src/rc522.c:563:59
	cmp	r6, #62
	beq	.LBB3_47
.Ltmp104:
@ %bb.49:
	@DEBUG_VALUE: RC522_Service:date_m <- [DW_OP_plus_uconst 4] [$sp+0]
	@DEBUG_VALUE: RC522_Service:time_m <- [DW_OP_plus_uconst 8] [$sp+0]
	cmp	r7, #62
	beq	.LBB3_47
.Ltmp105:
@ %bb.50:
	@DEBUG_VALUE: RC522_Service:date_m <- [DW_OP_plus_uconst 4] [$sp+0]
	@DEBUG_VALUE: RC522_Service:time_m <- [DW_OP_plus_uconst 8] [$sp+0]
	cmp	r3, #62
	beq	.LBB3_47
.Ltmp106:
@ %bb.51:
	@DEBUG_VALUE: RC522_Service:date_m <- [DW_OP_plus_uconst 4] [$sp+0]
	@DEBUG_VALUE: RC522_Service:time_m <- [DW_OP_plus_uconst 8] [$sp+0]
	cmp.w	r12, #62
	beq	.LBB3_47
.Ltmp107:
@ %bb.52:
	@DEBUG_VALUE: RC522_Service:date_m <- [DW_OP_plus_uconst 4] [$sp+0]
	@DEBUG_VALUE: RC522_Service:time_m <- [DW_OP_plus_uconst 8] [$sp+0]
	.loc	2 574 6                 @ ../Src/rc522.c:574:6
	orr	r1, r2, #512
	b	.LBB3_27
.Ltmp108:
.LBB3_53:
	@DEBUG_VALUE: RC522_Service:date_m <- [DW_OP_plus_uconst 4] [$sp+0]
	@DEBUG_VALUE: RC522_Service:time_m <- [DW_OP_plus_uconst 8] [$sp+0]
	.loc	2 371 9                 @ ../Src/rc522.c:371:9
	movw	r5, :lower16:ROOM_Status
	movt	r5, :upper16:ROOM_Status
	ldr	r0, [r5]
.Ltmp109:
	.loc	2 371 9 is_stmt 0       @ ../Src/rc522.c:371:9
	cmp	r0, #6
	bne.w	.LBB3_78
.Ltmp110:
.LBB3_54:
	@DEBUG_VALUE: RC522_Service:date_m <- [DW_OP_plus_uconst 4] [$sp+0]
	@DEBUG_VALUE: RC522_Service:time_m <- [DW_OP_plus_uconst 8] [$sp+0]
	.loc	2 0 9                   @ ../Src/rc522.c:0:9
	movw	r0, :lower16:display_flags
	movt	r0, :upper16:display_flags
	ldr	r1, [r0]
	orr	r1, r1, #4096
.Ltmp111:
.LBB3_55:
	@DEBUG_VALUE: RC522_Service:date_m <- [DW_OP_plus_uconst 4] [$sp+0]
	@DEBUG_VALUE: RC522_Service:time_m <- [DW_OP_plus_uconst 8] [$sp+0]
	str	r1, [r0]
	movw	r1, :lower16:RC522_Service.handmaid_card_cycles
	movt	r1, :upper16:RC522_Service.handmaid_card_cycles
	movs	r2, #1
	strb	r2, [r1]
	movw	r1, :lower16:SignalBuzzer
	movt	r1, :upper16:SignalBuzzer
	str	r2, [r1]
	movw	r1, #987
	str.w	r1, [r8]
	ldr	r1, [r0]
	orr	r1, r1, #-2147483648
.Ltmp112:
.LBB3_56:
	@DEBUG_VALUE: RC522_Service:date_m <- [DW_OP_plus_uconst 4] [$sp+0]
	@DEBUG_VALUE: RC522_Service:time_m <- [DW_OP_plus_uconst 8] [$sp+0]
	str	r1, [r0]
.Ltmp113:
.LBB3_57:
	@DEBUG_VALUE: RC522_Service:date_m <- [DW_OP_plus_uconst 4] [$sp+0]
	@DEBUG_VALUE: RC522_Service:time_m <- [DW_OP_plus_uconst 8] [$sp+0]
	.loc	2 455 14 is_stmt 1      @ ../Src/rc522.c:455:14
	ldrb	r0, [r4, #6]
	.loc	2 455 54 is_stmt 0      @ ../Src/rc522.c:455:54
	cmp	r0, #72
	bne	.LBB3_60
.Ltmp114:
@ %bb.58:
	@DEBUG_VALUE: RC522_Service:date_m <- [DW_OP_plus_uconst 4] [$sp+0]
	@DEBUG_VALUE: RC522_Service:time_m <- [DW_OP_plus_uconst 8] [$sp+0]
	.loc	2 456 6 is_stmt 1       @ ../Src/rc522.c:456:6
	movw	r5, :lower16:din_0_7
	movt	r5, :upper16:din_0_7
	ldrb	r0, [r5]
	.loc	2 456 31 is_stmt 0      @ ../Src/rc522.c:456:31
	tst.w	r0, #1
	bne	.LBB3_64
.Ltmp115:
@ %bb.59:
	@DEBUG_VALUE: RC522_Service:date_m <- [DW_OP_plus_uconst 4] [$sp+0]
	@DEBUG_VALUE: RC522_Service:time_m <- [DW_OP_plus_uconst 8] [$sp+0]
	.loc	2 456 34                @ ../Src/rc522.c:456:34
	movw	r0, :lower16:dio_flags
	movt	r0, :upper16:dio_flags
	ldr	r0, [r0]
.Ltmp116:
	.loc	2 455 7 is_stmt 1       @ ../Src/rc522.c:455:7
	tst.w	r0, #1
	bne	.LBB3_64
.Ltmp117:
.LBB3_60:
	@DEBUG_VALUE: RC522_Service:date_m <- [DW_OP_plus_uconst 4] [$sp+0]
	@DEBUG_VALUE: RC522_Service:time_m <- [DW_OP_plus_uconst 8] [$sp+0]
	.loc	2 506 12                @ ../Src/rc522.c:506:12
	movw	r0, :lower16:RC522_Service.handmaid_card_cycles
	movt	r0, :upper16:RC522_Service.handmaid_card_cycles
	ldrb	r1, [r0]
.Ltmp118:
	.loc	2 506 12 is_stmt 0      @ ../Src/rc522.c:506:12
	cmp	r1, #3
	beq	.LBB3_66
.Ltmp119:
@ %bb.61:
	@DEBUG_VALUE: RC522_Service:date_m <- [DW_OP_plus_uconst 4] [$sp+0]
	@DEBUG_VALUE: RC522_Service:time_m <- [DW_OP_plus_uconst 8] [$sp+0]
	.loc	2 0 12                  @ ../Src/rc522.c:0:12
	cbnz	r1, .LBB3_63
.Ltmp120:
@ %bb.62:
	@DEBUG_VALUE: RC522_Service:date_m <- [DW_OP_plus_uconst 4] [$sp+0]
	@DEBUG_VALUE: RC522_Service:time_m <- [DW_OP_plus_uconst 8] [$sp+0]
	.loc	2 536 5 is_stmt 1       @ ../Src/rc522.c:536:5
	movw	r0, :lower16:dout_0_7
	movt	r0, :upper16:dout_0_7
	ldrb	r1, [r0]
	orr	r1, r1, #64
	strb	r1, [r0]
	.loc	2 537 5                 @ ../Src/rc522.c:537:5
	ldrb	r1, [r0]
	and	r1, r1, #254
	strb	r1, [r0]
	.loc	2 539 18                @ ../Src/rc522.c:539:18
	movw	r0, :lower16:SignalBuzzer
	movt	r0, :upper16:SignalBuzzer
	movs	r1, #2
	str	r1, [r0]
	.loc	2 540 29                @ ../Src/rc522.c:540:29
	movw	r0, #3210
	str.w	r0, [r8]
	.loc	2 538 5                 @ ../Src/rc522.c:538:5
	movw	r0, :lower16:display_flags
	movt	r0, :upper16:display_flags
	ldr	r1, [r0]
	orr	r1, r1, #256
	b	.LBB3_27
.Ltmp121:
.LBB3_63:
	.loc	2 637 1                 @ ../Src/rc522.c:637:1
	add	sp, #20
	pop.w	{r4, r5, r6, r7, r8, r9, r10, r11, pc}
.LBB3_64:
.Ltmp122:
	@DEBUG_VALUE: RC522_Service:date_m <- [DW_OP_plus_uconst 4] [$sp+0]
	@DEBUG_VALUE: RC522_Service:time_m <- [DW_OP_plus_uconst 8] [$sp+0]
	.loc	2 459 8                 @ ../Src/rc522.c:459:8
	movw	r9, :lower16:ROOM_Status
	movt	r9, :upper16:ROOM_Status
	ldr.w	r0, [r9]
.Ltmp123:
	.loc	2 459 8 is_stmt 0       @ ../Src/rc522.c:459:8
	cmp	r0, #6
	bne	.LBB3_67
.Ltmp124:
@ %bb.65:
	@DEBUG_VALUE: RC522_Service:date_m <- [DW_OP_plus_uconst 4] [$sp+0]
	@DEBUG_VALUE: RC522_Service:time_m <- [DW_OP_plus_uconst 8] [$sp+0]
	.loc	2 462 6 is_stmt 1       @ ../Src/rc522.c:462:6
	movw	r0, :lower16:display_flags
	movt	r0, :upper16:display_flags
	ldr	r1, [r0]
	orr	r1, r1, #4096
	b	.LBB3_77
.Ltmp125:
.LBB3_66:
	@DEBUG_VALUE: RC522_Service:date_m <- [DW_OP_plus_uconst 4] [$sp+0]
	@DEBUG_VALUE: RC522_Service:time_m <- [DW_OP_plus_uconst 8] [$sp+0]
	.loc	2 544 26                @ ../Src/rc522.c:544:26
	movs	r1, #0
	strb	r1, [r0]
.Ltmp126:
	.loc	2 637 1                 @ ../Src/rc522.c:637:1
	add	sp, #20
.Ltmp127:
	pop.w	{r4, r5, r6, r7, r8, r9, r10, r11, pc}
.LBB3_67:
.Ltmp128:
	@DEBUG_VALUE: RC522_Service:date_m <- [DW_OP_plus_uconst 4] [$sp+0]
	@DEBUG_VALUE: RC522_Service:time_m <- [DW_OP_plus_uconst 8] [$sp+0]
	.loc	2 466 15                @ ../Src/rc522.c:466:15
	ldrb	r0, [r4, #7]
	.loc	2 466 60 is_stmt 0      @ ../Src/rc522.c:466:60
	cmp	r0, #62
	beq	.LBB3_76
.Ltmp129:
@ %bb.68:
	@DEBUG_VALUE: RC522_Service:date_m <- [DW_OP_plus_uconst 4] [$sp+0]
	@DEBUG_VALUE: RC522_Service:time_m <- [DW_OP_plus_uconst 8] [$sp+0]
	ldrb	r0, [r4, #8]
	cmp	r0, #62
	beq	.LBB3_76
.Ltmp130:
@ %bb.69:
	@DEBUG_VALUE: RC522_Service:date_m <- [DW_OP_plus_uconst 4] [$sp+0]
	@DEBUG_VALUE: RC522_Service:time_m <- [DW_OP_plus_uconst 8] [$sp+0]
	ldrb	r0, [r4, #9]
	cmp	r0, #62
	beq	.LBB3_76
.Ltmp131:
@ %bb.70:
	@DEBUG_VALUE: RC522_Service:date_m <- [DW_OP_plus_uconst 4] [$sp+0]
	@DEBUG_VALUE: RC522_Service:time_m <- [DW_OP_plus_uconst 8] [$sp+0]
	ldrb	r0, [r4, #10]
	cmp	r0, #62
	beq	.LBB3_76
.Ltmp132:
@ %bb.71:
	@DEBUG_VALUE: RC522_Service:date_m <- [DW_OP_plus_uconst 4] [$sp+0]
	@DEBUG_VALUE: RC522_Service:time_m <- [DW_OP_plus_uconst 8] [$sp+0]
	ldrb	r0, [r4, #11]
	cmp	r0, #62
	beq	.LBB3_76
.Ltmp133:
@ %bb.72:
	@DEBUG_VALUE: RC522_Service:date_m <- [DW_OP_plus_uconst 4] [$sp+0]
	@DEBUG_VALUE: RC522_Service:time_m <- [DW_OP_plus_uconst 8] [$sp+0]
	ldrb	r0, [r4, #12]
	cmp	r0, #62
	beq	.LBB3_76
.Ltmp134:
@ %bb.73:
	@DEBUG_VALUE: RC522_Service:date_m <- [DW_OP_plus_uconst 4] [$sp+0]
	@DEBUG_VALUE: RC522_Service:time_m <- [DW_OP_plus_uconst 8] [$sp+0]
	.loc	2 0 60                  @ ../Src/rc522.c:0:60
	movs	r0, #1
	strb	r0, [r7]
.Ltmp135:
	.loc	2 481 43 is_stmt 1      @ ../Src/rc522.c:481:43
	bl	HAL_GetTick
	.loc	2 481 41 is_stmt 0      @ ../Src/rc522.c:481:41
	str.w	r0, [r11]
.Ltmp136:
	.loc	2 483 9 is_stmt 1       @ ../Src/rc522.c:483:9
	movw	r0, :lower16:RC522_Service.handmaid_card_cycles
	movt	r0, :upper16:RC522_Service.handmaid_card_cycles
	ldrb	r1, [r0]
	adds	r1, #1
	strb	r1, [r0]
	uxtb	r1, r1
.Ltmp137:
	.loc	2 483 9 is_stmt 0       @ ../Src/rc522.c:483:9
	cmp	r1, #3
	bne	.LBB3_86
.Ltmp138:
@ %bb.74:
	@DEBUG_VALUE: RC522_Service:date_m <- [DW_OP_plus_uconst 4] [$sp+0]
	@DEBUG_VALUE: RC522_Service:time_m <- [DW_OP_plus_uconst 8] [$sp+0]
	.loc	2 486 20 is_stmt 1      @ ../Src/rc522.c:486:20
	movw	r1, :lower16:SignalBuzzer
	movt	r1, :upper16:SignalBuzzer
	movs	r2, #4
	str	r2, [r1]
	movs	r1, #0
	.loc	2 485 28                @ ../Src/rc522.c:485:28
	strb	r1, [r0]
	.loc	2 487 37                @ ../Src/rc522.c:487:37
	movw	r0, #3210
	str.w	r0, [r8]
.Ltmp139:
	.loc	2 489 10                @ ../Src/rc522.c:489:10
	ldrb	r0, [r5]
.Ltmp140:
	.loc	2 489 10 is_stmt 0      @ ../Src/rc522.c:489:10
	tst.w	r0, #8
	bne	.LBB3_89
.Ltmp141:
@ %bb.75:
	@DEBUG_VALUE: RC522_Service:date_m <- [DW_OP_plus_uconst 4] [$sp+0]
	@DEBUG_VALUE: RC522_Service:time_m <- [DW_OP_plus_uconst 8] [$sp+0]
	.loc	2 492 20 is_stmt 1      @ ../Src/rc522.c:492:20
	movs	r0, #9
	str.w	r0, [r9]
	.loc	2 491 23                @ ../Src/rc522.c:491:23
	movw	r0, :lower16:ROOM_OldStatus
	movt	r0, :upper16:ROOM_OldStatus
	b	.LBB3_87
.Ltmp142:
.LBB3_76:
	@DEBUG_VALUE: RC522_Service:date_m <- [DW_OP_plus_uconst 4] [$sp+0]
	@DEBUG_VALUE: RC522_Service:time_m <- [DW_OP_plus_uconst 8] [$sp+0]
	.loc	2 474 6                 @ ../Src/rc522.c:474:6
	movw	r0, :lower16:display_flags
	movt	r0, :upper16:display_flags
	ldr	r1, [r0]
	orr	r1, r1, #2048
.Ltmp143:
.LBB3_77:
	@DEBUG_VALUE: RC522_Service:date_m <- [DW_OP_plus_uconst 4] [$sp+0]
	@DEBUG_VALUE: RC522_Service:time_m <- [DW_OP_plus_uconst 8] [$sp+0]
	.loc	2 0 6 is_stmt 0         @ ../Src/rc522.c:0:6
	str	r1, [r0]
	movw	r1, :lower16:RC522_Service.handmaid_card_cycles
	movt	r1, :upper16:RC522_Service.handmaid_card_cycles
	movs	r2, #1
	strb	r2, [r1]
	movw	r1, :lower16:SignalBuzzer
	movt	r1, :upper16:SignalBuzzer
	str	r2, [r1]
	movw	r1, #987
	str.w	r1, [r8]
	b	.LBB3_26
.Ltmp144:
.LBB3_78:
	@DEBUG_VALUE: RC522_Service:date_m <- [DW_OP_plus_uconst 4] [$sp+0]
	@DEBUG_VALUE: RC522_Service:time_m <- [DW_OP_plus_uconst 8] [$sp+0]
	.loc	2 378 16 is_stmt 1      @ ../Src/rc522.c:378:16
	ldrb	r0, [r4, #7]
	.loc	2 378 61 is_stmt 0      @ ../Src/rc522.c:378:61
	cmp	r0, #62
	beq	.LBB3_88
.Ltmp145:
@ %bb.79:
	@DEBUG_VALUE: RC522_Service:date_m <- [DW_OP_plus_uconst 4] [$sp+0]
	@DEBUG_VALUE: RC522_Service:time_m <- [DW_OP_plus_uconst 8] [$sp+0]
	ldrb	r0, [r4, #8]
	cmp	r0, #62
	beq	.LBB3_88
.Ltmp146:
@ %bb.80:
	@DEBUG_VALUE: RC522_Service:date_m <- [DW_OP_plus_uconst 4] [$sp+0]
	@DEBUG_VALUE: RC522_Service:time_m <- [DW_OP_plus_uconst 8] [$sp+0]
	ldrb	r0, [r4, #9]
	cmp	r0, #62
	beq	.LBB3_88
.Ltmp147:
@ %bb.81:
	@DEBUG_VALUE: RC522_Service:date_m <- [DW_OP_plus_uconst 4] [$sp+0]
	@DEBUG_VALUE: RC522_Service:time_m <- [DW_OP_plus_uconst 8] [$sp+0]
	ldrb	r0, [r4, #10]
	cmp	r0, #62
	beq	.LBB3_88
.Ltmp148:
@ %bb.82:
	@DEBUG_VALUE: RC522_Service:date_m <- [DW_OP_plus_uconst 4] [$sp+0]
	@DEBUG_VALUE: RC522_Service:time_m <- [DW_OP_plus_uconst 8] [$sp+0]
	ldrb	r0, [r4, #11]
	cmp	r0, #62
	beq	.LBB3_88
.Ltmp149:
@ %bb.83:
	@DEBUG_VALUE: RC522_Service:date_m <- [DW_OP_plus_uconst 4] [$sp+0]
	@DEBUG_VALUE: RC522_Service:time_m <- [DW_OP_plus_uconst 8] [$sp+0]
	ldrb	r0, [r4, #12]
	cmp	r0, #62
	beq	.LBB3_88
.Ltmp150:
@ %bb.84:
	@DEBUG_VALUE: RC522_Service:date_m <- [DW_OP_plus_uconst 4] [$sp+0]
	@DEBUG_VALUE: RC522_Service:time_m <- [DW_OP_plus_uconst 8] [$sp+0]
	.loc	2 393 20 is_stmt 1      @ ../Src/rc522.c:393:20
	movw	r10, :lower16:SignalBuzzer
	movt	r10, :upper16:SignalBuzzer
	movs	r0, #2
	str.w	r0, [r10]
	.loc	2 394 37                @ ../Src/rc522.c:394:37
	movw	r0, #987
	str.w	r0, [r8]
	movs	r0, #1
	strb	r0, [r7]
	.loc	2 392 7                 @ ../Src/rc522.c:392:7
	movw	r9, :lower16:RC522_Service.handmaid_card_cycles
	movt	r9, :upper16:RC522_Service.handmaid_card_cycles
	ldrb.w	r0, [r9]
	adds	r0, #1
	strb.w	r0, [r9]
	.loc	2 396 29                @ ../Src/rc522.c:396:29
	bl	HAL_GetTick
	.loc	2 396 27 is_stmt 0      @ ../Src/rc522.c:396:27
	str.w	r0, [r11]
.Ltmp151:
	.loc	2 398 12 is_stmt 1      @ ../Src/rc522.c:398:12
	ldr	r0, [r5]
	.loc	2 398 42 is_stmt 0      @ ../Src/rc522.c:398:42
	subs	r1, r0, #3
	cmp	r1, #2
	bhi	.LBB3_90
.Ltmp152:
@ %bb.85:
	@DEBUG_VALUE: RC522_Service:date_m <- [DW_OP_plus_uconst 4] [$sp+0]
	@DEBUG_VALUE: RC522_Service:time_m <- [DW_OP_plus_uconst 8] [$sp+0]
	.loc	2 0 42                  @ ../Src/rc522.c:0:42
	movs	r0, #8
.Ltmp153:
	.loc	2 401 20 is_stmt 1      @ ../Src/rc522.c:401:20
	str	r0, [r5]
	.loc	2 400 29                @ ../Src/rc522.c:400:29
	movs	r0, #0
	strb.w	r0, [r9]
	b	.LBB3_45
.Ltmp154:
.LBB3_86:
	@DEBUG_VALUE: RC522_Service:date_m <- [DW_OP_plus_uconst 4] [$sp+0]
	@DEBUG_VALUE: RC522_Service:time_m <- [DW_OP_plus_uconst 8] [$sp+0]
	.loc	2 502 37                @ ../Src/rc522.c:502:37
	movw	r0, #987
	str.w	r0, [r8]
	.loc	2 501 20                @ ../Src/rc522.c:501:20
	movw	r0, :lower16:SignalBuzzer
	movt	r0, :upper16:SignalBuzzer
.Ltmp155:
.LBB3_87:
	@DEBUG_VALUE: RC522_Service:date_m <- [DW_OP_plus_uconst 4] [$sp+0]
	@DEBUG_VALUE: RC522_Service:time_m <- [DW_OP_plus_uconst 8] [$sp+0]
	.loc	2 0 20 is_stmt 0        @ ../Src/rc522.c:0:20
	movs	r1, #2
	b	.LBB3_27
.Ltmp156:
.LBB3_88:
	@DEBUG_VALUE: RC522_Service:date_m <- [DW_OP_plus_uconst 4] [$sp+0]
	@DEBUG_VALUE: RC522_Service:time_m <- [DW_OP_plus_uconst 8] [$sp+0]
	.loc	2 386 7 is_stmt 1       @ ../Src/rc522.c:386:7
	movw	r0, :lower16:display_flags
	movt	r0, :upper16:display_flags
	ldr	r1, [r0]
	orr	r1, r1, #2048
	b	.LBB3_55
.Ltmp157:
.LBB3_89:
	@DEBUG_VALUE: RC522_Service:date_m <- [DW_OP_plus_uconst 4] [$sp+0]
	@DEBUG_VALUE: RC522_Service:time_m <- [DW_OP_plus_uconst 8] [$sp+0]
	.loc	2 496 20                @ ../Src/rc522.c:496:20
	movs	r0, #2
	str.w	r0, [r9]
.Ltmp158:
	.loc	2 637 1                 @ ../Src/rc522.c:637:1
	add	sp, #20
.Ltmp159:
	pop.w	{r4, r5, r6, r7, r8, r9, r10, r11, pc}
.LBB3_90:
.Ltmp160:
	@DEBUG_VALUE: RC522_Service:date_m <- [DW_OP_plus_uconst 4] [$sp+0]
	@DEBUG_VALUE: RC522_Service:time_m <- [DW_OP_plus_uconst 8] [$sp+0]
	.loc	2 417 15                @ ../Src/rc522.c:417:15
	ldrb.w	r1, [r9]
.Ltmp161:
	.loc	2 417 15 is_stmt 0      @ ../Src/rc522.c:417:15
	cmp	r1, #3
	bne	.LBB3_92
.Ltmp162:
@ %bb.91:
	@DEBUG_VALUE: RC522_Service:date_m <- [DW_OP_plus_uconst 4] [$sp+0]
	@DEBUG_VALUE: RC522_Service:time_m <- [DW_OP_plus_uconst 8] [$sp+0]
	.loc	2 420 21 is_stmt 1      @ ../Src/rc522.c:420:21
	movs	r0, #4
	str.w	r0, [r10]
	.loc	2 419 20                @ ../Src/rc522.c:419:20
	movs	r0, #1
	str	r0, [r5]
	.loc	2 421 41                @ ../Src/rc522.c:421:41
	movw	r0, #3210
	str.w	r0, [r8]
	b	.LBB3_57
.Ltmp163:
.LBB3_92:
	@DEBUG_VALUE: RC522_Service:date_m <- [DW_OP_plus_uconst 4] [$sp+0]
	@DEBUG_VALUE: RC522_Service:time_m <- [DW_OP_plus_uconst 8] [$sp+0]
	.loc	2 423 16                @ ../Src/rc522.c:423:16
	cmp	r0, #8
	beq.w	.LBB3_57
.Ltmp164:
@ %bb.93:
	@DEBUG_VALUE: RC522_Service:date_m <- [DW_OP_plus_uconst 4] [$sp+0]
	@DEBUG_VALUE: RC522_Service:time_m <- [DW_OP_plus_uconst 8] [$sp+0]
	.loc	2 0 16 is_stmt 0        @ ../Src/rc522.c:0:16
	movs	r0, #0
.Ltmp165:
	.loc	2 425 29 is_stmt 1      @ ../Src/rc522.c:425:29
	strb.w	r0, [r9]
.Ltmp166:
	.loc	2 427 11                @ ../Src/rc522.c:427:11
	movw	r0, :lower16:din_0_7
	movt	r0, :upper16:din_0_7
	ldrb	r0, [r0]
.Ltmp167:
	.loc	2 427 11 is_stmt 0      @ ../Src/rc522.c:427:11
	tst.w	r0, #8
	bne	.LBB3_95
.Ltmp168:
@ %bb.94:
	@DEBUG_VALUE: RC522_Service:date_m <- [DW_OP_plus_uconst 4] [$sp+0]
	@DEBUG_VALUE: RC522_Service:time_m <- [DW_OP_plus_uconst 8] [$sp+0]
	.loc	2 430 21 is_stmt 1      @ ../Src/rc522.c:430:21
	movs	r0, #9
	str	r0, [r5]
	.loc	2 429 24                @ ../Src/rc522.c:429:24
	movw	r0, :lower16:ROOM_OldStatus
	movt	r0, :upper16:ROOM_OldStatus
	movs	r1, #2
	b	.LBB3_56
.Ltmp169:
.LBB3_95:
	@DEBUG_VALUE: RC522_Service:date_m <- [DW_OP_plus_uconst 4] [$sp+0]
	@DEBUG_VALUE: RC522_Service:time_m <- [DW_OP_plus_uconst 8] [$sp+0]
	.loc	2 0 24 is_stmt 0        @ ../Src/rc522.c:0:24
	movs	r0, #1
.Ltmp170:
	.loc	2 434 21 is_stmt 1      @ ../Src/rc522.c:434:21
	str	r0, [r5]
	b	.LBB3_45
.Ltmp171:
.Lfunc_end3:
	.size	RC522_Service, .Lfunc_end3-RC522_Service
	.cfi_endproc
	.cantunwind
	.fnend
                                        @ -- End function
	.section	.text.RC522_Check,"ax",%progbits
	.p2align	2               @ -- Begin function RC522_Check
	.type	RC522_Check,%function
	.code	16                      @ @RC522_Check
	.thumb_func
RC522_Check:
.Lfunc_begin4:
	.loc	2 641 0                 @ ../Src/rc522.c:641:0
	.fnstart
	.cfi_startproc
@ %bb.0:
	.save	{r4, lr}
	push	{r4, lr}
	.cfi_def_cfa_offset 8
	.cfi_offset lr, -4
	.cfi_offset r4, -8
.Ltmp172:
	.loc	2 644 11 prologue_end   @ ../Src/rc522.c:644:11
	movw	r0, :lower16:card_serial
	movt	r0, :upper16:card_serial
	@DEBUG_VALUE: RC522_Check:id <- $r0
	bl	RC522_Request
.Ltmp173:
	mov	r4, r0
.Ltmp174:
	@DEBUG_VALUE: RC522_Check:status <- $r4
	.loc	2 646 6                 @ ../Src/rc522.c:646:6
	cmp	r0, #1
	bne	.LBB4_2
.Ltmp175:
@ %bb.1:
	@DEBUG_VALUE: RC522_Check:status <- $r4
	.loc	2 648 12                @ ../Src/rc522.c:648:12
	movw	r0, :lower16:card_serial
	movt	r0, :upper16:card_serial
	bl	RC522_Anticoll
	mov	r4, r0
.Ltmp176:
	@DEBUG_VALUE: RC522_Check:status <- $r4
.LBB4_2:
	@DEBUG_VALUE: RC522_Check:status <- $r4
	@DEBUG_VALUE: RC522_Check:status <- $r4
	.loc	2 651 2                 @ ../Src/rc522.c:651:2
	bl	RC522_Halt
	.loc	2 653 2                 @ ../Src/rc522.c:653:2
	mov	r0, r4
	pop	{r4, pc}
.Ltmp177:
.Lfunc_end4:
	.size	RC522_Check, .Lfunc_end4-RC522_Check
	.cfi_endproc
	.cantunwind
	.fnend
                                        @ -- End function
	.section	.text.RC522_ClearData,"ax",%progbits
	.p2align	2               @ -- Begin function RC522_ClearData
	.type	RC522_ClearData,%function
	.code	16                      @ @RC522_ClearData
	.thumb_func
RC522_ClearData:
.Lfunc_begin5:
	.loc	2 1270 0                @ ../Src/rc522.c:1270:0
	.fnstart
	.cfi_startproc
@ %bb.0:
	.save	{r7, lr}
	push	{r7, lr}
	.cfi_def_cfa_offset 8
	.cfi_offset lr, -4
	.cfi_offset r7, -8
.Ltmp178:
	@DEBUG_VALUE: RC522_ClearData:i <- 0
	.loc	2 1276 23 prologue_end  @ ../Src/rc522.c:1276:23
	movw	r0, :lower16:Sector_0
	movt	r0, :upper16:Sector_0
	movs	r1, #64
	bl	__aeabi_memclr4
	.loc	2 1281 23               @ ../Src/rc522.c:1281:23
	movw	r0, :lower16:Sector_1
	movt	r0, :upper16:Sector_1
	movs	r1, #64
	bl	__aeabi_memclr4
	.loc	2 1286 23               @ ../Src/rc522.c:1286:23
	movw	r0, :lower16:Sector_2
	movt	r0, :upper16:Sector_2
	movs	r1, #64
	bl	__aeabi_memclr4
	.loc	2 1291 23               @ ../Src/rc522.c:1291:23
	movw	r0, :lower16:Sector_3
	movt	r0, :upper16:Sector_3
	movs	r1, #64
	bl	__aeabi_memclr4
	.loc	2 1296 23               @ ../Src/rc522.c:1296:23
	movw	r0, :lower16:Sector_4
	movt	r0, :upper16:Sector_4
	movs	r1, #64
	bl	__aeabi_memclr4
	.loc	2 1301 23               @ ../Src/rc522.c:1301:23
	movw	r0, :lower16:Sector_5
	movt	r0, :upper16:Sector_5
	movs	r1, #64
	bl	__aeabi_memclr4
	.loc	2 1306 23               @ ../Src/rc522.c:1306:23
	movw	r0, :lower16:Sector_6
	movt	r0, :upper16:Sector_6
	movs	r1, #64
	bl	__aeabi_memclr4
	.loc	2 1311 23               @ ../Src/rc522.c:1311:23
	movw	r0, :lower16:Sector_7
	movt	r0, :upper16:Sector_7
	movs	r1, #64
	bl	__aeabi_memclr4
.Ltmp179:
	.loc	2 1315 1                @ ../Src/rc522.c:1315:1
	pop	{r7, pc}
.Ltmp180:
.Lfunc_end5:
	.size	RC522_ClearData, .Lfunc_end5-RC522_ClearData
	.cfi_endproc
	.cantunwind
	.fnend
                                        @ -- End function
	.section	.text.RC522_ReadCard,"ax",%progbits
	.p2align	2               @ -- Begin function RC522_ReadCard
	.type	RC522_ReadCard,%function
	.code	16                      @ @RC522_ReadCard
	.thumb_func
RC522_ReadCard:
.Lfunc_begin6:
	.loc	2 1027 0                @ ../Src/rc522.c:1027:0
	.fnstart
	.cfi_startproc
@ %bb.0:
	.save	{r4, lr}
	push	{r4, lr}
	.cfi_def_cfa_offset 8
	.cfi_offset lr, -4
	.cfi_offset r4, -8
	.pad	#16
	sub	sp, #16
	.cfi_def_cfa_offset 24
	mov	r4, sp
.Ltmp181:
	.loc	2 1032 5 prologue_end   @ ../Src/rc522.c:1032:5
	mov	r0, r4
	bl	RC522_Request
	.loc	2 1033 14               @ ../Src/rc522.c:1033:14
	mov	r0, r4
	bl	RC522_Anticoll
.Ltmp182:
	@DEBUG_VALUE: RC522_ReadCard:i <- 0
	.loc	2 1037 20               @ ../Src/rc522.c:1037:20
	movw	r0, :lower16:card_id
	movt	r0, :upper16:card_id
	ldr	r1, [sp]
	str	r1, [r0]
	ldrb.w	r1, [sp, #4]
	strb	r1, [r0, #4]
.Ltmp183:
	.loc	2 1040 5                @ ../Src/rc522.c:1040:5
	bl	RC522_SelectTag
	.loc	2 1042 14               @ ../Src/rc522.c:1042:14
	movs	r0, #0
	bl	RC522_Auth
.Ltmp184:
	@DEBUG_VALUE: RC522_ReadCard:status <- $r0
	.loc	2 1044 8                @ ../Src/rc522.c:1044:8
	cmp	r0, #1
	bne	.LBB6_4
.Ltmp185:
@ %bb.1:
	@DEBUG_VALUE: RC522_ReadCard:status <- $r0
	.loc	2 1051 9                @ ../Src/rc522.c:1051:9
	movw	r4, :lower16:Sector_0
	movt	r4, :upper16:Sector_0
	movs	r0, #0
.Ltmp186:
	mov	r1, r4
	bl	RC522_Read
	.loc	2 1052 9                @ ../Src/rc522.c:1052:9
	add.w	r1, r4, #16
	movs	r0, #1
	bl	RC522_Read
	.loc	2 1053 9                @ ../Src/rc522.c:1053:9
	add.w	r1, r4, #32
	movs	r0, #2
	bl	RC522_Read
	.loc	2 1054 9                @ ../Src/rc522.c:1054:9
	add.w	r1, r4, #48
	movs	r0, #3
	bl	RC522_Read
.Ltmp187:
	.loc	2 1057 11               @ ../Src/rc522.c:1057:11
	movs	r0, #4
	bl	RC522_Auth
.Ltmp188:
	@DEBUG_VALUE: RC522_ReadCard:status <- $r0
	.loc	2 1059 8                @ ../Src/rc522.c:1059:8
	cmp	r0, #1
	bne	.LBB6_4
.Ltmp189:
@ %bb.2:
	@DEBUG_VALUE: RC522_ReadCard:status <- $r0
	.loc	2 1066 9                @ ../Src/rc522.c:1066:9
	movw	r4, :lower16:Sector_1
	movt	r4, :upper16:Sector_1
	movs	r0, #4
.Ltmp190:
	mov	r1, r4
	bl	RC522_Read
	.loc	2 1067 9                @ ../Src/rc522.c:1067:9
	add.w	r1, r4, #16
	movs	r0, #5
	bl	RC522_Read
	.loc	2 1068 9                @ ../Src/rc522.c:1068:9
	add.w	r1, r4, #32
	movs	r0, #6
	bl	RC522_Read
	.loc	2 1069 9                @ ../Src/rc522.c:1069:9
	add.w	r1, r4, #48
	movs	r0, #7
	bl	RC522_Read
.Ltmp191:
	.loc	2 1072 11               @ ../Src/rc522.c:1072:11
	movs	r0, #8
	bl	RC522_Auth
.Ltmp192:
	@DEBUG_VALUE: RC522_ReadCard:status <- $r0
	.loc	2 1074 8                @ ../Src/rc522.c:1074:8
	cmp	r0, #1
	bne	.LBB6_4
.Ltmp193:
@ %bb.3:
	@DEBUG_VALUE: RC522_ReadCard:status <- $r0
	.loc	2 1081 9                @ ../Src/rc522.c:1081:9
	movw	r4, :lower16:Sector_2
	movt	r4, :upper16:Sector_2
	movs	r0, #8
.Ltmp194:
	mov	r1, r4
	bl	RC522_Read
	.loc	2 1082 9                @ ../Src/rc522.c:1082:9
	add.w	r1, r4, #16
	movs	r0, #9
	bl	RC522_Read
	.loc	2 1083 9                @ ../Src/rc522.c:1083:9
	add.w	r1, r4, #32
	movs	r0, #10
	bl	RC522_Read
	.loc	2 1084 9                @ ../Src/rc522.c:1084:9
	add.w	r1, r4, #48
	movs	r0, #11
	bl	RC522_Read
.Ltmp195:
.LBB6_4:
	.loc	2 0 9 is_stmt 0         @ ../Src/rc522.c:0:9
	bl	RC522_Halt
	add	sp, #16
	pop	{r4, pc}
.Lfunc_end6:
	.size	RC522_ReadCard, .Lfunc_end6-RC522_ReadCard
	.cfi_endproc
	.cantunwind
	.fnend
                                        @ -- End function
	.section	.text.RC522_VerifyData,"ax",%progbits
	.p2align	2               @ -- Begin function RC522_VerifyData
	.type	RC522_VerifyData,%function
	.code	16                      @ @RC522_VerifyData
	.thumb_func
RC522_VerifyData:
.Lfunc_begin7:
	.loc	2 1093 0 is_stmt 1      @ ../Src/rc522.c:1093:0
	.fnstart
	.cfi_startproc
@ %bb.0:
	.save	{r4, r5, r6, r7, r8, r9, r10, lr}
	push.w	{r4, r5, r6, r7, r8, r9, r10, lr}
	.cfi_def_cfa_offset 32
	.cfi_offset lr, -4
	.cfi_offset r10, -8
	.cfi_offset r9, -12
	.cfi_offset r8, -16
	.cfi_offset r7, -20
	.cfi_offset r6, -24
	.cfi_offset r5, -28
	.cfi_offset r4, -32
	.pad	#32
	sub	sp, #32
	.cfi_def_cfa_offset 64
.Ltmp196:
	.loc	2 1100 20 prologue_end  @ ../Src/rc522.c:1100:20
	movw	r6, :lower16:sCard
	movt	r6, :upper16:sCard
	movs	r5, #0
	strb	r5, [r6]
	.loc	2 1101 2                @ ../Src/rc522.c:1101:2
	adds	r0, r6, #1
	movs	r4, #5
	movs	r1, #5
	bl	ClearBuffer
	.loc	2 1102 2                @ ../Src/rc522.c:1102:2
	adds	r0, r6, #7
	movs	r1, #6
	bl	ClearBuffer
	.loc	2 1103 22               @ ../Src/rc522.c:1103:22
	str.w	r5, [r6, #14]
.Ltmp197:
	@DEBUG_VALUE: RC522_VerifyData:b_cnt <- 0
	.loc	2 1109 24               @ ../Src/rc522.c:1109:24
	movw	r8, :lower16:card_serial
	movt	r8, :upper16:card_serial
	ldr.w	r0, [r8]
	str.w	r0, [r6, #1]
	ldrb.w	r0, [r8, #4]
	strb	r0, [r6, #5]
.Ltmp198:
	.loc	2 1112 12               @ ../Src/rc522.c:1112:12
	mov.w	r0, #20480
	strh.w	r0, [sp, #8]
.Ltmp199:
	.loc	2 1114 5                @ ../Src/rc522.c:1114:5
	str	r4, [sp]
	movw	r0, :lower16:hi2c1
	movt	r0, :upper16:hi2c1
	add	r2, sp, #8
	movs	r1, #160
	movs	r3, #2
	bl	HAL_I2C_Master_Transmit
.Ltmp200:
	.loc	2 1114 5 is_stmt 0      @ ../Src/rc522.c:1114:5
	cmp	r0, #0
.Ltmp201:
	.loc	2 1114 90               @ ../Src/rc522.c:1114:90
	it	ne
	blne	Error_Handler
.Ltmp202:
	.loc	2 1115 5 is_stmt 1      @ ../Src/rc522.c:1115:5
	str	r4, [sp]
	movw	r0, :lower16:hi2c1
	movt	r0, :upper16:hi2c1
	add	r4, sp, #8
	movs	r1, #161
	mov	r2, r4
	movs	r3, #16
	bl	HAL_I2C_Master_Receive
.Ltmp203:
	.loc	2 1115 5 is_stmt 0      @ ../Src/rc522.c:1115:5
	cmp	r0, #0
.Ltmp204:
	.loc	2 1115 89               @ ../Src/rc522.c:1115:89
	it	ne
	blne	Error_Handler
	movs	r1, #0
	movw	r9, :lower16:Sector_1
	movt	r9, :upper16:Sector_1
.Ltmp205:
.LBB7_1:                                @ =>This Loop Header: Depth=1
                                        @     Child Loop BB7_2 Depth 2
	.loc	2 0 89                  @ ../Src/rc522.c:0:89
	uxtb	r2, r1
.Ltmp206:
	@DEBUG_VALUE: RC522_VerifyData:m_cnt <- 0
	@DEBUG_VALUE: RC522_VerifyData:b_cnt <- $r2
	ldrb.w	r2, [r9, r2]
.Ltmp207:
	movs	r3, #0
	.p2align	2
.LBB7_2:                                @   Parent Loop BB7_1 Depth=1
                                        @ =>  This Inner Loop Header: Depth=2
.Ltmp208:
	.loc	2 1119 19 is_stmt 1     @ ../Src/rc522.c:1119:19
	uxtb	r7, r3
.Ltmp209:
	@DEBUG_VALUE: RC522_VerifyData:m_cnt <- $r7
	.loc	2 1121 35               @ ../Src/rc522.c:1121:35
	ldrb	r7, [r4, r7]
.Ltmp210:
	.loc	2 1121 50 is_stmt 0     @ ../Src/rc522.c:1121:50
	cmp	r2, r7
	bne	.LBB7_4
@ %bb.3:                                @   in Loop: Header=BB7_2 Depth=2
	.loc	2 1122 5 is_stmt 1      @ ../Src/rc522.c:1122:5
	cmp	r7, #0
	it	ne
	cmpne	r7, #127
	bne	.LBB7_8
.LBB7_4:                                @   in Loop: Header=BB7_2 Depth=2
	.loc	2 0 5 is_stmt 0         @ ../Src/rc522.c:0:5
	movs	r7, #60
.Ltmp211:
	.loc	2 1128 44 is_stmt 1     @ ../Src/rc522.c:1128:44
	cbz	r2, .LBB7_6
@ %bb.5:                                @   in Loop: Header=BB7_2 Depth=2
	cmp	r2, #127
	it	ne
	movne	r7, #61
.Ltmp212:
.LBB7_6:                                @   in Loop: Header=BB7_2 Depth=2
	.loc	2 0 44 is_stmt 0        @ ../Src/rc522.c:0:44
	strb	r7, [r6, #6]
	.loc	2 1119 37 is_stmt 1     @ ../Src/rc522.c:1119:37
	adds	r3, #1
	uxtb	r7, r3
.Ltmp213:
	.loc	2 1119 3 is_stmt 0      @ ../Src/rc522.c:1119:3
	cmp	r7, #16
	blo	.LBB7_2
.Ltmp214:
@ %bb.7:                                @   in Loop: Header=BB7_1 Depth=1
	.loc	2 1117 36 is_stmt 1     @ ../Src/rc522.c:1117:36
	adds	r1, #1
	uxtb	r2, r1
.Ltmp215:
	.loc	2 1117 2 is_stmt 0      @ ../Src/rc522.c:1117:2
	cmp	r2, #16
	blo	.LBB7_1
	b	.LBB7_9
.LBB7_8:
.Ltmp216:
	.loc	2 1124 22 is_stmt 1     @ ../Src/rc522.c:1124:22
	strb	r7, [r6, #6]
.Ltmp217:
	@DEBUG_VALUE: RC522_VerifyData:m_cnt <- 16
	@DEBUG_VALUE: RC522_VerifyData:b_cnt <- 16
.LBB7_9:
	@DEBUG_VALUE: RC522_VerifyData:temp_address <- 0
	.loc	2 1143 7                @ ../Src/rc522.c:1143:7
	ldrb.w	r4, [r9, #16]
.Ltmp218:
	.loc	2 1144 7                @ ../Src/rc522.c:1144:7
	ldrb.w	r7, [r9, #17]
.Ltmp219:
	.loc	2 1145 7                @ ../Src/rc522.c:1145:7
	ldrb.w	r3, [r9, #18]
.Ltmp220:
	.loc	2 1146 7                @ ../Src/rc522.c:1146:7
	ldrb.w	r10, [r9, #19]
.Ltmp221:
	.loc	2 1143 128              @ ../Src/rc522.c:1143:128
	movw	r12, #44288
	movt	r12, #65528
	movw	lr, #10000
.Ltmp222:
	@DEBUG_VALUE: RC522_VerifyData:temp_address <- undef
	.loc	2 1143 43 is_stmt 0     @ ../Src/rc522.c:1143:43
	sub.w	r5, r4, #49
	movs	r1, #0
	cmp	r5, #9
	it	lo
	mlalo	r1, r4, lr, r12
.Ltmp223:
	@DEBUG_VALUE: RC522_VerifyData:temp_address <- $r1
	.loc	2 1144 128 is_stmt 1    @ ../Src/rc522.c:1144:128
	mov.w	r5, #1000
.Ltmp224:
	.loc	2 1143 43               @ ../Src/rc522.c:1143:43
	mla	r5, r7, r5, r1
.Ltmp225:
	.loc	2 1144 43               @ ../Src/rc522.c:1144:43
	movw	r12, #48000
	sub.w	r0, r7, #49
	cmp	r0, #9
	it	lo
	sublo.w	r1, r5, r12
.Ltmp226:
	@DEBUG_VALUE: RC522_VerifyData:temp_address <- $r1
	.loc	2 1145 128              @ ../Src/rc522.c:1145:128
	movs	r0, #100
.Ltmp227:
	.loc	2 1144 43               @ ../Src/rc522.c:1144:43
	mla	r0, r3, r0, r1
.Ltmp228:
	.loc	2 1145 43               @ ../Src/rc522.c:1145:43
	sub.w	r5, r3, #49
	cmp	r5, #9
	it	lo
	sublo.w	r1, r0, #4800
.Ltmp229:
	@DEBUG_VALUE: RC522_VerifyData:temp_address <- $r1
	.loc	2 1146 128              @ ../Src/rc522.c:1146:128
	add.w	r0, r10, r10, lsl #2
.Ltmp230:
	.loc	2 1145 43               @ ../Src/rc522.c:1145:43
	add.w	r0, r1, r0, lsl #1
.Ltmp231:
	.loc	2 1146 43               @ ../Src/rc522.c:1146:43
	sub.w	r5, r10, #49
	cmp	r5, #9
	it	lo
	sublo.w	r1, r0, #480
.Ltmp232:
	@DEBUG_VALUE: RC522_VerifyData:temp_address <- $r1
	.loc	2 1147 7                @ ../Src/rc522.c:1147:7
	ldrb.w	r0, [r9, #20]
.Ltmp233:
	.loc	2 1146 43               @ ../Src/rc522.c:1146:43
	adds	r5, r1, r0
.Ltmp234:
	.loc	2 1147 43               @ ../Src/rc522.c:1147:43
	sub.w	r2, r0, #49
	cmp	r2, #9
	it	lo
	sublo.w	r1, r5, #48
.Ltmp235:
	@DEBUG_VALUE: RC522_VerifyData:temp_address <- $r1
	.loc	2 1149 36               @ ../Src/rc522.c:1149:36
	ubfx	r2, r1, #8, #8
	.loc	2 1149 39 is_stmt 0     @ ../Src/rc522.c:1149:39
	movw	r12, :lower16:system_id
	movt	r12, :upper16:system_id
	ldrb.w	r5, [r12]
	.loc	2 1149 53               @ ../Src/rc522.c:1149:53
	cmp	r5, r2
	bne	.LBB7_11
.Ltmp236:
@ %bb.10:
	@DEBUG_VALUE: RC522_VerifyData:temp_address <- $r1
	.loc	2 1149 80               @ ../Src/rc522.c:1149:80
	uxtb	r2, r1
	.loc	2 1149 83               @ ../Src/rc522.c:1149:83
	ldrb.w	r5, [r12, #1]
.Ltmp237:
	.loc	2 1149 5                @ ../Src/rc522.c:1149:5
	cmp	r5, r2
	beq	.LBB7_15
.Ltmp238:
.LBB7_11:
	@DEBUG_VALUE: RC522_VerifyData:temp_address <- $r1
	.loc	2 0 5                   @ ../Src/rc522.c:0:5
	movs	r1, #125
.Ltmp239:
	.loc	2 1153 38 is_stmt 1     @ ../Src/rc522.c:1153:38
	cmp	r4, #0
	it	ne
	cmpne	r7, #0
	beq	.LBB7_15
@ %bb.12:
	cbz	r3, .LBB7_15
@ %bb.13:
	cmp.w	r10, #0
	beq	.LBB7_15
@ %bb.14:
	.loc	2 1157 32               @ ../Src/rc522.c:1157:32
	movs	r1, #123
	cmp	r0, #0
	it	eq
	moveq	r1, #125
	cmp	r4, #127
	it	eq
	moveq	r1, #125
	cmp	r7, #127
	it	eq
	moveq	r1, #125
	cmp	r3, #127
	it	eq
	moveq	r1, #125
	cmp.w	r10, #127
	it	eq
	moveq	r1, #125
	cmp	r0, #127
	it	eq
	moveq	r1, #125
.Ltmp240:
.LBB7_15:
	.loc	2 0 32 is_stmt 0        @ ../Src/rc522.c:0:32
	strh	r1, [r6, #16]
.Ltmp241:
	.loc	2 1171 30 is_stmt 1     @ ../Src/rc522.c:1171:30
	movw	r2, :lower16:rs485_interface_address
	movt	r2, :upper16:rs485_interface_address
	ldrb	r1, [r2]
	.loc	2 1171 7 is_stmt 0      @ ../Src/rc522.c:1171:7
	movw	r7, :lower16:Sector_2
	movt	r7, :upper16:Sector_2
	ldrb	r0, [r7, #6]
	.loc	2 1171 58               @ ../Src/rc522.c:1171:58
	cmp	r0, r1
	bne	.LBB7_18
@ %bb.16:
	.loc	2 1171 85               @ ../Src/rc522.c:1171:85
	ldrb	r2, [r2, #1]
	.loc	2 1171 62               @ ../Src/rc522.c:1171:62
	ldrb	r3, [r7, #7]
.Ltmp242:
	.loc	2 1171 6                @ ../Src/rc522.c:1171:6
	cmp	r3, r2
	bne	.LBB7_18
@ %bb.17:
.Ltmp243:
	.loc	2 1173 59 is_stmt 1     @ ../Src/rc522.c:1173:59
	orr.w	r0, r2, r1, lsl #8
	b	.LBB7_21
.Ltmp244:
.LBB7_18:
	.loc	2 1175 43               @ ../Src/rc522.c:1175:43
	ldrb	r1, [r7, #7]
	.loc	2 1175 39 is_stmt 0     @ ../Src/rc522.c:1175:39
	orrs.w	r2, r1, r0
	beq	.LBB7_20
@ %bb.19:
	.loc	2 1176 82 is_stmt 1     @ ../Src/rc522.c:1176:82
	eor	r1, r1, #127
	.loc	2 1176 35 is_stmt 0     @ ../Src/rc522.c:1176:35
	eor	r0, r0, #127
	.loc	2 1176 58               @ ../Src/rc522.c:1176:58
	orrs	r0, r1
	mov.w	r0, #46
	it	eq
	moveq	r0, #47
	b	.LBB7_21
.Ltmp245:
.LBB7_20:
	.loc	2 0 58                  @ ../Src/rc522.c:0:58
	movs	r0, #47
.LBB7_21:
	strh	r0, [r6, #14]
	.loc	2 1185 2 is_stmt 1      @ ../Src/rc522.c:1185:2
	movw	r4, :lower16:hrtc
	movt	r4, :upper16:hrtc
	add	r1, sp, #28
.Ltmp246:
	@DEBUG_VALUE: RC522_VerifyData:time_m <- [DW_OP_plus_uconst 28] [$sp+0]
	mov	r0, r4
	movs	r2, #1
	bl	HAL_RTC_GetTime
	add	r1, sp, #24
.Ltmp247:
	@DEBUG_VALUE: RC522_VerifyData:date_m <- [DW_OP_plus_uconst 24] [$sp+0]
	.loc	2 1186 2                @ ../Src/rc522.c:1186:2
	mov	r0, r4
	movs	r2, #1
	bl	HAL_RTC_GetDate
.Ltmp248:
	.loc	2 1188 8                @ ../Src/rc522.c:1188:8
	ldrb	r0, [r7]
	.loc	2 1188 40 is_stmt 0     @ ../Src/rc522.c:1188:40
	cmp	r0, #63
	bls	.LBB7_36
.Ltmp249:
.LBB7_22:
	@DEBUG_VALUE: RC522_VerifyData:date_m <- [DW_OP_plus_uconst 24] [$sp+0]
	@DEBUG_VALUE: RC522_VerifyData:time_m <- [DW_OP_plus_uconst 28] [$sp+0]
	.loc	2 1191 24 is_stmt 1     @ ../Src/rc522.c:1191:24
	movs	r0, #63
	strb	r0, [r6, #7]
.Ltmp250:
.LBB7_23:
	@DEBUG_VALUE: RC522_VerifyData:date_m <- [DW_OP_plus_uconst 24] [$sp+0]
	@DEBUG_VALUE: RC522_VerifyData:time_m <- [DW_OP_plus_uconst 28] [$sp+0]
	.loc	2 1233 13               @ ../Src/rc522.c:1233:13
	ldrb	r0, [r6, #6]
	.loc	2 1233 47 is_stmt 0     @ ../Src/rc522.c:1233:47
	and	r0, r0, #254
	cmp	r0, #60
	beq	.LBB7_31
.Ltmp251:
@ %bb.24:
	@DEBUG_VALUE: RC522_VerifyData:date_m <- [DW_OP_plus_uconst 24] [$sp+0]
	@DEBUG_VALUE: RC522_VerifyData:time_m <- [DW_OP_plus_uconst 28] [$sp+0]
	.loc	2 1234 7 is_stmt 1      @ ../Src/rc522.c:1234:7
	ldrb	r1, [r6, #7]
	.loc	2 1234 57 is_stmt 0     @ ../Src/rc522.c:1234:57
	cmp	r1, #63
	beq	.LBB7_31
.Ltmp252:
@ %bb.25:
	@DEBUG_VALUE: RC522_VerifyData:date_m <- [DW_OP_plus_uconst 24] [$sp+0]
	@DEBUG_VALUE: RC522_VerifyData:time_m <- [DW_OP_plus_uconst 28] [$sp+0]
	.loc	2 1234 61               @ ../Src/rc522.c:1234:61
	ldrb	r2, [r6, #8]
	.loc	2 1235 3 is_stmt 1      @ ../Src/rc522.c:1235:3
	cmp	r2, #63
	beq	.LBB7_31
.Ltmp253:
@ %bb.26:
	@DEBUG_VALUE: RC522_VerifyData:date_m <- [DW_OP_plus_uconst 24] [$sp+0]
	@DEBUG_VALUE: RC522_VerifyData:time_m <- [DW_OP_plus_uconst 28] [$sp+0]
	.loc	2 1235 7 is_stmt 0      @ ../Src/rc522.c:1235:7
	ldrb	r3, [r6, #9]
	.loc	2 1235 57               @ ../Src/rc522.c:1235:57
	cmp	r3, #63
	beq	.LBB7_31
.Ltmp254:
@ %bb.27:
	@DEBUG_VALUE: RC522_VerifyData:date_m <- [DW_OP_plus_uconst 24] [$sp+0]
	@DEBUG_VALUE: RC522_VerifyData:time_m <- [DW_OP_plus_uconst 28] [$sp+0]
	.loc	2 1235 61               @ ../Src/rc522.c:1235:61
	ldrb	r7, [r6, #10]
	.loc	2 1236 3 is_stmt 1      @ ../Src/rc522.c:1236:3
	cmp	r7, #63
	beq	.LBB7_31
.Ltmp255:
@ %bb.28:
	@DEBUG_VALUE: RC522_VerifyData:date_m <- [DW_OP_plus_uconst 24] [$sp+0]
	@DEBUG_VALUE: RC522_VerifyData:time_m <- [DW_OP_plus_uconst 28] [$sp+0]
	.loc	2 1236 7 is_stmt 0      @ ../Src/rc522.c:1236:7
	ldrb	r4, [r6, #11]
	.loc	2 1236 57               @ ../Src/rc522.c:1236:57
	cmp	r4, #63
	beq	.LBB7_31
.Ltmp256:
@ %bb.29:
	@DEBUG_VALUE: RC522_VerifyData:date_m <- [DW_OP_plus_uconst 24] [$sp+0]
	@DEBUG_VALUE: RC522_VerifyData:time_m <- [DW_OP_plus_uconst 28] [$sp+0]
	.loc	2 1236 61               @ ../Src/rc522.c:1236:61
	ldrb.w	r12, [r6, #12]
	.loc	2 1237 3 is_stmt 1      @ ../Src/rc522.c:1237:3
	cmp.w	r12, #63
	beq	.LBB7_31
.Ltmp257:
@ %bb.30:
	@DEBUG_VALUE: RC522_VerifyData:date_m <- [DW_OP_plus_uconst 24] [$sp+0]
	@DEBUG_VALUE: RC522_VerifyData:time_m <- [DW_OP_plus_uconst 28] [$sp+0]
	.loc	2 1237 13 is_stmt 0     @ ../Src/rc522.c:1237:13
	ldrh	r0, [r6, #14]
	.loc	2 1237 53               @ ../Src/rc522.c:1237:53
	bic	r0, r0, #1
	cmp	r0, #46
	bne	.LBB7_53
.Ltmp258:
.LBB7_31:
	@DEBUG_VALUE: RC522_VerifyData:date_m <- [DW_OP_plus_uconst 24] [$sp+0]
	@DEBUG_VALUE: RC522_VerifyData:time_m <- [DW_OP_plus_uconst 28] [$sp+0]
	.loc	2 0 53                  @ ../Src/rc522.c:0:53
	movs	r0, #21
.Ltmp259:
.LBB7_32:
	@DEBUG_VALUE: RC522_VerifyData:date_m <- [DW_OP_plus_uconst 24] [$sp+0]
	@DEBUG_VALUE: RC522_VerifyData:time_m <- [DW_OP_plus_uconst 28] [$sp+0]
	strb	r0, [r6]
	movs	r0, #0
.Ltmp260:
	@DEBUG_VALUE: RC522_VerifyData:m_cnt <- 0
	@DEBUG_VALUE: RC522_VerifyData:b_cnt <- 0
	movw	r1, :lower16:reset_card_serial
	movt	r1, :upper16:reset_card_serial
	movs	r2, #0
.Ltmp261:
	.p2align	2
.LBB7_33:                               @ =>This Inner Loop Header: Depth=1
	@DEBUG_VALUE: RC522_VerifyData:date_m <- [DW_OP_plus_uconst 24] [$sp+0]
	@DEBUG_VALUE: RC522_VerifyData:time_m <- [DW_OP_plus_uconst 28] [$sp+0]
	@DEBUG_VALUE: RC522_VerifyData:b_cnt <- $r0
	.loc	2 1258 28 is_stmt 1     @ ../Src/rc522.c:1258:28
	ldrb	r3, [r1, r0]
	.loc	2 1258 6 is_stmt 0      @ ../Src/rc522.c:1258:6
	ldrb.w	r7, [r8, r0]
.Ltmp262:
	.loc	2 1258 6                @ ../Src/rc522.c:1258:6
	cmp	r7, r3
	it	eq
	addeq	r2, #1
.Ltmp263:
	.loc	2 1256 35 is_stmt 1     @ ../Src/rc522.c:1256:35
	adds	r0, #1
.Ltmp264:
	.loc	2 1256 2 is_stmt 0      @ ../Src/rc522.c:1256:2
	cmp	r0, #5
	bne	.LBB7_33
.Ltmp265:
@ %bb.34:
	@DEBUG_VALUE: RC522_VerifyData:date_m <- [DW_OP_plus_uconst 24] [$sp+0]
	@DEBUG_VALUE: RC522_VerifyData:time_m <- [DW_OP_plus_uconst 28] [$sp+0]
	.loc	2 1261 11 is_stmt 1     @ ../Src/rc522.c:1261:11
	uxtb	r0, r2
.Ltmp266:
	.loc	2 1261 5 is_stmt 0      @ ../Src/rc522.c:1261:5
	cmp	r0, #5
	blo	.LBB7_61
.Ltmp267:
@ %bb.35:
	@DEBUG_VALUE: RC522_VerifyData:date_m <- [DW_OP_plus_uconst 24] [$sp+0]
	@DEBUG_VALUE: RC522_VerifyData:time_m <- [DW_OP_plus_uconst 28] [$sp+0]
	.loc	2 1263 9 is_stmt 1      @ ../Src/rc522.c:1263:9
	bl	Error_Handler
	add	sp, #32
.Ltmp268:
	.loc	2 0 9 is_stmt 0         @ ../Src/rc522.c:0:9
	pop.w	{r4, r5, r6, r7, r8, r9, r10, pc}
.Ltmp269:
.LBB7_36:
	@DEBUG_VALUE: RC522_VerifyData:date_m <- [DW_OP_plus_uconst 24] [$sp+0]
	@DEBUG_VALUE: RC522_VerifyData:time_m <- [DW_OP_plus_uconst 28] [$sp+0]
	.loc	2 1188 80 is_stmt 1     @ ../Src/rc522.c:1188:80
	cmp	r0, #0
	beq	.LBB7_22
.Ltmp270:
@ %bb.37:
	@DEBUG_VALUE: RC522_VerifyData:date_m <- [DW_OP_plus_uconst 24] [$sp+0]
	@DEBUG_VALUE: RC522_VerifyData:time_m <- [DW_OP_plus_uconst 28] [$sp+0]
	.loc	2 0 80 is_stmt 0        @ ../Src/rc522.c:0:80
	and	r1, r0, #14
	uxtb	r1, r1
	.loc	2 1188 80               @ ../Src/rc522.c:1188:80
	cmp	r1, #10
	bhs	.LBB7_22
.Ltmp271:
@ %bb.38:
	@DEBUG_VALUE: RC522_VerifyData:date_m <- [DW_OP_plus_uconst 24] [$sp+0]
	@DEBUG_VALUE: RC522_VerifyData:time_m <- [DW_OP_plus_uconst 28] [$sp+0]
	.loc	2 1193 13 is_stmt 1     @ ../Src/rc522.c:1193:13
	ldrb	r1, [r7, #1]
	.loc	2 1193 45 is_stmt 0     @ ../Src/rc522.c:1193:45
	cmp	r1, #31
	bls	.LBB7_40
.Ltmp272:
.LBB7_39:
	@DEBUG_VALUE: RC522_VerifyData:date_m <- [DW_OP_plus_uconst 24] [$sp+0]
	@DEBUG_VALUE: RC522_VerifyData:time_m <- [DW_OP_plus_uconst 28] [$sp+0]
	.loc	2 1196 24 is_stmt 1     @ ../Src/rc522.c:1196:24
	movs	r0, #63
	strb	r0, [r6, #8]
	b	.LBB7_23
.Ltmp273:
.LBB7_40:
	@DEBUG_VALUE: RC522_VerifyData:date_m <- [DW_OP_plus_uconst 24] [$sp+0]
	@DEBUG_VALUE: RC522_VerifyData:time_m <- [DW_OP_plus_uconst 28] [$sp+0]
	.loc	2 1193 84               @ ../Src/rc522.c:1193:84
	cmp	r1, #0
	beq	.LBB7_39
.Ltmp274:
@ %bb.41:
	@DEBUG_VALUE: RC522_VerifyData:date_m <- [DW_OP_plus_uconst 24] [$sp+0]
	@DEBUG_VALUE: RC522_VerifyData:time_m <- [DW_OP_plus_uconst 28] [$sp+0]
	.loc	2 0 84 is_stmt 0        @ ../Src/rc522.c:0:84
	and	r2, r1, #14
	uxtb	r2, r2
	.loc	2 1193 84               @ ../Src/rc522.c:1193:84
	cmp	r2, #10
	bhs	.LBB7_39
.Ltmp275:
@ %bb.42:
	@DEBUG_VALUE: RC522_VerifyData:date_m <- [DW_OP_plus_uconst 24] [$sp+0]
	@DEBUG_VALUE: RC522_VerifyData:time_m <- [DW_OP_plus_uconst 28] [$sp+0]
	.loc	2 1198 13 is_stmt 1     @ ../Src/rc522.c:1198:13
	ldrb	r4, [r7, #2]
	.loc	2 1198 45 is_stmt 0     @ ../Src/rc522.c:1198:45
	cmp	r4, #159
	bhi	.LBB7_50
.Ltmp276:
@ %bb.43:
	@DEBUG_VALUE: RC522_VerifyData:date_m <- [DW_OP_plus_uconst 24] [$sp+0]
	@DEBUG_VALUE: RC522_VerifyData:time_m <- [DW_OP_plus_uconst 28] [$sp+0]
	.loc	2 0 45                  @ ../Src/rc522.c:0:45
	and	r2, r4, #14
	uxtb	r2, r2
	.loc	2 1198 45               @ ../Src/rc522.c:1198:45
	cmp	r2, #10
	bhs	.LBB7_50
.Ltmp277:
@ %bb.44:
	@DEBUG_VALUE: RC522_VerifyData:date_m <- [DW_OP_plus_uconst 24] [$sp+0]
	@DEBUG_VALUE: RC522_VerifyData:time_m <- [DW_OP_plus_uconst 28] [$sp+0]
	.loc	2 1202 13 is_stmt 1     @ ../Src/rc522.c:1202:13
	ldrb	r2, [r7, #3]
	.loc	2 1202 45 is_stmt 0     @ ../Src/rc522.c:1202:45
	cmp	r2, #47
	bhi	.LBB7_51
.Ltmp278:
@ %bb.45:
	@DEBUG_VALUE: RC522_VerifyData:date_m <- [DW_OP_plus_uconst 24] [$sp+0]
	@DEBUG_VALUE: RC522_VerifyData:time_m <- [DW_OP_plus_uconst 28] [$sp+0]
	.loc	2 0 45                  @ ../Src/rc522.c:0:45
	and	r3, r2, #14
	uxtb	r3, r3
	.loc	2 1202 45               @ ../Src/rc522.c:1202:45
	cmp	r3, #10
	bhs	.LBB7_51
.Ltmp279:
@ %bb.46:
	@DEBUG_VALUE: RC522_VerifyData:date_m <- [DW_OP_plus_uconst 24] [$sp+0]
	@DEBUG_VALUE: RC522_VerifyData:time_m <- [DW_OP_plus_uconst 28] [$sp+0]
	.loc	2 1206 13 is_stmt 1     @ ../Src/rc522.c:1206:13
	ldrb	r3, [r7, #4]
	.loc	2 1206 45 is_stmt 0     @ ../Src/rc522.c:1206:45
	cmp	r3, #95
	bhi	.LBB7_52
.Ltmp280:
@ %bb.47:
	@DEBUG_VALUE: RC522_VerifyData:date_m <- [DW_OP_plus_uconst 24] [$sp+0]
	@DEBUG_VALUE: RC522_VerifyData:time_m <- [DW_OP_plus_uconst 28] [$sp+0]
	.loc	2 0 45                  @ ../Src/rc522.c:0:45
	and	r5, r3, #14
	uxtb	r5, r5
	.loc	2 1206 45               @ ../Src/rc522.c:1206:45
	cmp	r5, #10
	bhs	.LBB7_52
.Ltmp281:
@ %bb.48:
	@DEBUG_VALUE: RC522_VerifyData:date_m <- [DW_OP_plus_uconst 24] [$sp+0]
	@DEBUG_VALUE: RC522_VerifyData:time_m <- [DW_OP_plus_uconst 28] [$sp+0]
	.loc	2 1212 36 is_stmt 1     @ ../Src/rc522.c:1212:36
	ldrb.w	r5, [sp, #27]
	.loc	2 1213 4                @ ../Src/rc522.c:1213:4
	cmp	r4, r5
	bls	.LBB7_62
.Ltmp282:
.LBB7_49:
	@DEBUG_VALUE: RC522_VerifyData:date_m <- [DW_OP_plus_uconst 24] [$sp+0]
	@DEBUG_VALUE: RC522_VerifyData:time_m <- [DW_OP_plus_uconst 28] [$sp+0]
	@DEBUG_VALUE: RC522_VerifyData:b_cnt <- 0
	.loc	2 1221 30               @ ../Src/rc522.c:1221:30
	ldrh	r0, [r7, #4]
	strh.w	r0, [r6, #11]
	ldr	r0, [r7]
	b	.LBB7_74
.Ltmp283:
.LBB7_50:
	@DEBUG_VALUE: RC522_VerifyData:date_m <- [DW_OP_plus_uconst 24] [$sp+0]
	@DEBUG_VALUE: RC522_VerifyData:time_m <- [DW_OP_plus_uconst 28] [$sp+0]
	.loc	2 1200 24               @ ../Src/rc522.c:1200:24
	movs	r0, #63
	strb	r0, [r6, #9]
	b	.LBB7_23
.Ltmp284:
.LBB7_51:
	@DEBUG_VALUE: RC522_VerifyData:date_m <- [DW_OP_plus_uconst 24] [$sp+0]
	@DEBUG_VALUE: RC522_VerifyData:time_m <- [DW_OP_plus_uconst 28] [$sp+0]
	.loc	2 1204 24               @ ../Src/rc522.c:1204:24
	movs	r0, #63
	strb	r0, [r6, #10]
	b	.LBB7_23
.Ltmp285:
.LBB7_52:
	@DEBUG_VALUE: RC522_VerifyData:date_m <- [DW_OP_plus_uconst 24] [$sp+0]
	@DEBUG_VALUE: RC522_VerifyData:time_m <- [DW_OP_plus_uconst 28] [$sp+0]
	.loc	2 1208 24               @ ../Src/rc522.c:1208:24
	movs	r0, #63
	strb	r0, [r6, #11]
	b	.LBB7_23
.Ltmp286:
.LBB7_53:
	@DEBUG_VALUE: RC522_VerifyData:date_m <- [DW_OP_plus_uconst 24] [$sp+0]
	@DEBUG_VALUE: RC522_VerifyData:time_m <- [DW_OP_plus_uconst 28] [$sp+0]
	.loc	2 1238 13               @ ../Src/rc522.c:1238:13
	ldrh	r5, [r6, #16]
	movs	r0, #21
	.loc	2 1238 45 is_stmt 0     @ ../Src/rc522.c:1238:45
	cmp	r5, #123
	beq	.LBB7_32
.Ltmp287:
@ %bb.54:
	@DEBUG_VALUE: RC522_VerifyData:date_m <- [DW_OP_plus_uconst 24] [$sp+0]
	@DEBUG_VALUE: RC522_VerifyData:time_m <- [DW_OP_plus_uconst 28] [$sp+0]
	cmp	r5, #125
	beq	.LBB7_32
.Ltmp288:
@ %bb.55:
	@DEBUG_VALUE: RC522_VerifyData:date_m <- [DW_OP_plus_uconst 24] [$sp+0]
	@DEBUG_VALUE: RC522_VerifyData:time_m <- [DW_OP_plus_uconst 28] [$sp+0]
	.loc	2 0 45                  @ ../Src/rc522.c:0:45
	movs	r0, #62
.Ltmp289:
	.loc	2 1242 58 is_stmt 1     @ ../Src/rc522.c:1242:58
	cmp	r1, #62
	it	ne
	cmpne	r2, #62
	beq	.LBB7_32
.Ltmp290:
@ %bb.56:
	@DEBUG_VALUE: RC522_VerifyData:date_m <- [DW_OP_plus_uconst 24] [$sp+0]
	@DEBUG_VALUE: RC522_VerifyData:time_m <- [DW_OP_plus_uconst 28] [$sp+0]
	cmp	r3, #62
	beq	.LBB7_32
.Ltmp291:
@ %bb.57:
	@DEBUG_VALUE: RC522_VerifyData:date_m <- [DW_OP_plus_uconst 24] [$sp+0]
	@DEBUG_VALUE: RC522_VerifyData:time_m <- [DW_OP_plus_uconst 28] [$sp+0]
	cmp	r7, #62
	beq	.LBB7_32
.Ltmp292:
@ %bb.58:
	@DEBUG_VALUE: RC522_VerifyData:date_m <- [DW_OP_plus_uconst 24] [$sp+0]
	@DEBUG_VALUE: RC522_VerifyData:time_m <- [DW_OP_plus_uconst 28] [$sp+0]
	cmp	r4, #62
	beq.w	.LBB7_32
.Ltmp293:
@ %bb.59:
	@DEBUG_VALUE: RC522_VerifyData:date_m <- [DW_OP_plus_uconst 24] [$sp+0]
	@DEBUG_VALUE: RC522_VerifyData:time_m <- [DW_OP_plus_uconst 28] [$sp+0]
	cmp.w	r12, #62
	beq.w	.LBB7_32
.Ltmp294:
@ %bb.60:
	@DEBUG_VALUE: RC522_VerifyData:date_m <- [DW_OP_plus_uconst 24] [$sp+0]
	@DEBUG_VALUE: RC522_VerifyData:time_m <- [DW_OP_plus_uconst 28] [$sp+0]
	.loc	2 1250 22               @ ../Src/rc522.c:1250:22
	movs	r0, #6
	strb	r0, [r6]
.Ltmp295:
.LBB7_61:
	@DEBUG_VALUE: RC522_VerifyData:date_m <- [DW_OP_plus_uconst 24] [$sp+0]
	@DEBUG_VALUE: RC522_VerifyData:time_m <- [DW_OP_plus_uconst 28] [$sp+0]
	.loc	2 0 22 is_stmt 0        @ ../Src/rc522.c:0:22
	add	sp, #32
.Ltmp296:
	pop.w	{r4, r5, r6, r7, r8, r9, r10, pc}
.LBB7_62:
.Ltmp297:
	@DEBUG_VALUE: RC522_VerifyData:date_m <- [DW_OP_plus_uconst 24] [$sp+0]
	@DEBUG_VALUE: RC522_VerifyData:time_m <- [DW_OP_plus_uconst 28] [$sp+0]
	.loc	2 1213 45 is_stmt 1     @ ../Src/rc522.c:1213:45
	bne	.LBB7_73
.Ltmp298:
@ %bb.63:
	@DEBUG_VALUE: RC522_VerifyData:date_m <- [DW_OP_plus_uconst 24] [$sp+0]
	@DEBUG_VALUE: RC522_VerifyData:time_m <- [DW_OP_plus_uconst 28] [$sp+0]
	.loc	2 1213 78 is_stmt 0     @ ../Src/rc522.c:1213:78
	ldrb.w	r5, [sp, #25]
	.loc	2 1214 4 is_stmt 1      @ ../Src/rc522.c:1214:4
	cmp	r1, r5
	bhi	.LBB7_49
.Ltmp299:
@ %bb.64:
	@DEBUG_VALUE: RC522_VerifyData:date_m <- [DW_OP_plus_uconst 24] [$sp+0]
	@DEBUG_VALUE: RC522_VerifyData:time_m <- [DW_OP_plus_uconst 28] [$sp+0]
	.loc	2 1214 79 is_stmt 0     @ ../Src/rc522.c:1214:79
	ldrb.w	r5, [sp, #25]
	.loc	2 1214 86               @ ../Src/rc522.c:1214:86
	cmp	r1, r5
	bne	.LBB7_66
.Ltmp300:
@ %bb.65:
	@DEBUG_VALUE: RC522_VerifyData:date_m <- [DW_OP_plus_uconst 24] [$sp+0]
	@DEBUG_VALUE: RC522_VerifyData:time_m <- [DW_OP_plus_uconst 28] [$sp+0]
	.loc	2 1214 119              @ ../Src/rc522.c:1214:119
	ldrb.w	r5, [sp, #26]
	.loc	2 1215 4 is_stmt 1      @ ../Src/rc522.c:1215:4
	cmp	r0, r5
	bhi	.LBB7_49
.Ltmp301:
.LBB7_66:
	@DEBUG_VALUE: RC522_VerifyData:date_m <- [DW_OP_plus_uconst 24] [$sp+0]
	@DEBUG_VALUE: RC522_VerifyData:time_m <- [DW_OP_plus_uconst 28] [$sp+0]
	.loc	2 1215 79 is_stmt 0     @ ../Src/rc522.c:1215:79
	ldrb.w	r5, [sp, #25]
	.loc	2 1215 86               @ ../Src/rc522.c:1215:86
	cmp	r1, r5
	bne	.LBB7_69
.Ltmp302:
@ %bb.67:
	@DEBUG_VALUE: RC522_VerifyData:date_m <- [DW_OP_plus_uconst 24] [$sp+0]
	@DEBUG_VALUE: RC522_VerifyData:time_m <- [DW_OP_plus_uconst 28] [$sp+0]
	.loc	2 1215 120              @ ../Src/rc522.c:1215:120
	ldrb.w	r5, [sp, #26]
	.loc	2 1215 126              @ ../Src/rc522.c:1215:126
	cmp	r0, r5
	bne	.LBB7_69
.Ltmp303:
@ %bb.68:
	@DEBUG_VALUE: RC522_VerifyData:date_m <- [DW_OP_plus_uconst 24] [$sp+0]
	@DEBUG_VALUE: RC522_VerifyData:time_m <- [DW_OP_plus_uconst 28] [$sp+0]
	.loc	2 0 126                 @ ../Src/rc522.c:0:126
	ldrb.w	r5, [sp, #28]
	.loc	2 1215 126              @ ../Src/rc522.c:1215:126
	cmp	r2, r5
	bhi	.LBB7_49
.Ltmp304:
.LBB7_69:
	@DEBUG_VALUE: RC522_VerifyData:date_m <- [DW_OP_plus_uconst 24] [$sp+0]
	@DEBUG_VALUE: RC522_VerifyData:time_m <- [DW_OP_plus_uconst 28] [$sp+0]
	.loc	2 1216 79 is_stmt 1     @ ../Src/rc522.c:1216:79
	ldrb.w	r5, [sp, #25]
	.loc	2 1216 86 is_stmt 0     @ ../Src/rc522.c:1216:86
	cmp	r1, r5
	bne	.LBB7_73
.Ltmp305:
@ %bb.70:
	@DEBUG_VALUE: RC522_VerifyData:date_m <- [DW_OP_plus_uconst 24] [$sp+0]
	@DEBUG_VALUE: RC522_VerifyData:time_m <- [DW_OP_plus_uconst 28] [$sp+0]
	.loc	2 1216 120              @ ../Src/rc522.c:1216:120
	ldrb.w	r1, [sp, #26]
	.loc	2 1216 126              @ ../Src/rc522.c:1216:126
	cmp	r0, r1
	bne	.LBB7_73
.Ltmp306:
@ %bb.71:
	@DEBUG_VALUE: RC522_VerifyData:date_m <- [DW_OP_plus_uconst 24] [$sp+0]
	@DEBUG_VALUE: RC522_VerifyData:time_m <- [DW_OP_plus_uconst 28] [$sp+0]
	.loc	2 0 126                 @ ../Src/rc522.c:0:126
	ldrb.w	r0, [sp, #28]
	.loc	2 1216 126              @ ../Src/rc522.c:1216:126
	cmp	r2, r0
	bne	.LBB7_73
.Ltmp307:
@ %bb.72:
	@DEBUG_VALUE: RC522_VerifyData:date_m <- [DW_OP_plus_uconst 24] [$sp+0]
	@DEBUG_VALUE: RC522_VerifyData:time_m <- [DW_OP_plus_uconst 28] [$sp+0]
	.loc	2 1217 38 is_stmt 1     @ ../Src/rc522.c:1217:38
	ldrb.w	r0, [sp, #29]
.Ltmp308:
	.loc	2 1212 6                @ ../Src/rc522.c:1212:6
	cmp	r3, r0
	bhs	.LBB7_49
.Ltmp309:
.LBB7_73:
	@DEBUG_VALUE: RC522_VerifyData:date_m <- [DW_OP_plus_uconst 24] [$sp+0]
	@DEBUG_VALUE: RC522_VerifyData:time_m <- [DW_OP_plus_uconst 28] [$sp+0]
	@DEBUG_VALUE: RC522_VerifyData:b_cnt <- 0
	.loc	2 1228 30               @ ../Src/rc522.c:1228:30
	movw	r0, #15934
	strh.w	r0, [r6, #11]
	mov.w	r0, #1044266558
.Ltmp310:
.LBB7_74:
	@DEBUG_VALUE: RC522_VerifyData:date_m <- [DW_OP_plus_uconst 24] [$sp+0]
	@DEBUG_VALUE: RC522_VerifyData:time_m <- [DW_OP_plus_uconst 28] [$sp+0]
	.loc	2 0 30 is_stmt 0        @ ../Src/rc522.c:0:30
	str.w	r0, [r6, #7]
	b	.LBB7_23
.Lfunc_end7:
	.size	RC522_VerifyData, .Lfunc_end7-RC522_VerifyData
	.cfi_endproc
	.cantunwind
	.fnend
                                        @ -- End function
	.section	.text.RC522_Reset,"ax",%progbits
	.p2align	2               @ -- Begin function RC522_Reset
	.type	RC522_Reset,%function
	.code	16                      @ @RC522_Reset
	.thumb_func
RC522_Reset:
.Lfunc_begin8:
	.loc	2 700 0 is_stmt 1       @ ../Src/rc522.c:700:0
	.fnstart
	.cfi_startproc
@ %bb.0:
	.save	{r4, r5, r7, lr}
	push	{r4, r5, r7, lr}
	.cfi_def_cfa_offset 16
	.cfi_offset lr, -4
	.cfi_offset r7, -8
	.cfi_offset r5, -12
	.cfi_offset r4, -16
.Ltmp311:
	.loc	2 705 2 prologue_end    @ ../Src/rc522.c:705:2
	movs	r0, #1
	movs	r1, #15
	bl	RC522_WriteRegister
	.loc	2 711 5                 @ ../Src/rc522.c:711:5
	movs	r0, #5
	bl	HAL_Delay
.Ltmp312:
	@DEBUG_VALUE: RC522_Reset:delay <- 500
	.loc	2 717 12                @ ../Src/rc522.c:717:12
	movs	r0, #1
	bl	RC522_ReadRegister
	.loc	2 717 5 is_stmt 0       @ ../Src/rc522.c:717:5
	lsls	r0, r0, #27
	bpl	.LBB8_3
@ %bb.1:
	.loc	2 0 5                   @ ../Src/rc522.c:0:5
	movw	r4, #65036
	movt	r4, #65535
	movw	r5, :lower16:eComState
	movt	r5, :upper16:eComState
	.p2align	2
.LBB8_2:                                @ =>This Inner Loop Header: Depth=1
.Ltmp313:
	.loc	2 719 6 is_stmt 1       @ ../Src/rc522.c:719:6
	ldr	r0, [r5]
.Ltmp314:
	.loc	2 719 6 is_stmt 0       @ ../Src/rc522.c:719:6
	cmp	r0, #1
.Ltmp315:
	.loc	2 719 39                @ ../Src/rc522.c:719:39
	it	ne
	blne	RS485_Service
.Ltmp316:
	.loc	2 726 18 is_stmt 1      @ ../Src/rc522.c:726:18
	adds	r4, #1
	it	eq
	popeq	{r4, r5, r7, pc}
.Ltmp317:
	.loc	2 732 4                 @ ../Src/rc522.c:732:4
	movs	r0, #1
	bl	HAL_Delay
.Ltmp318:
	.loc	2 717 12                @ ../Src/rc522.c:717:12
	movs	r0, #1
	bl	RC522_ReadRegister
	.loc	2 717 5 is_stmt 0       @ ../Src/rc522.c:717:5
	lsls	r0, r0, #27
	bmi	.LBB8_2
.Ltmp319:
.LBB8_3:
	.loc	2 0 5                   @ ../Src/rc522.c:0:5
	pop	{r4, r5, r7, pc}
.Lfunc_end8:
	.size	RC522_Reset, .Lfunc_end8-RC522_Reset
	.cfi_endproc
	.cantunwind
	.fnend
                                        @ -- End function
	.section	.text.RC522_Request,"ax",%progbits
	.p2align	2               @ -- Begin function RC522_Request
	.type	RC522_Request,%function
	.code	16                      @ @RC522_Request
	.thumb_func
RC522_Request:
.Lfunc_begin9:
	.loc	2 743 0 is_stmt 1       @ ../Src/rc522.c:743:0
	.fnstart
	.cfi_startproc
@ %bb.0:
	.save	{r4, lr}
	push	{r4, lr}
	.cfi_def_cfa_offset 8
	.cfi_offset lr, -4
	.cfi_offset r4, -8
	.pad	#8
	sub	sp, #8
	.cfi_def_cfa_offset 16
	@DEBUG_VALUE: RC522_Request:TagType <- $r0
	mov	r4, r0
	@DEBUG_VALUE: RC522_Request:reqMode <- 38
.Ltmp320:
	@DEBUG_VALUE: RC522_Request:TagType <- $r4
	.loc	2 747 2 prologue_end    @ ../Src/rc522.c:747:2
	movs	r0, #13
	movs	r1, #7
	bl	RC522_WriteRegister
	.loc	2 749 13                @ ../Src/rc522.c:749:13
	movs	r0, #38
	strb	r0, [r4]
	add.w	r0, sp, #6
.Ltmp321:
	@DEBUG_VALUE: RC522_Request:backBits <- [DW_OP_plus_uconst 6] [$sp+0]
	.loc	2 750 11                @ ../Src/rc522.c:750:11
	str	r0, [sp]
	movs	r0, #12
	mov	r1, r4
	movs	r2, #1
	mov	r3, r4
	bl	RC522_ToCard
.Ltmp322:
	@DEBUG_VALUE: RC522_Request:status <- $r0
	.loc	2 0 11 is_stmt 0        @ ../Src/rc522.c:0:11
	movs	r2, #0
.Ltmp323:
	.loc	2 752 28 is_stmt 1      @ ../Src/rc522.c:752:28
	ldrh.w	r1, [sp, #6]
.Ltmp324:
	@DEBUG_VALUE: RC522_Request:status <- 0
	.loc	2 752 24 is_stmt 0      @ ../Src/rc522.c:752:24
	cmp	r1, #16
	mov.w	r1, #0
	it	eq
	moveq	r1, r0
	cmp	r0, #1
	it	ne
	movne	r1, r2
.Ltmp325:
	@DEBUG_VALUE: RC522_Request:status <- $r1
	.loc	2 757 2 is_stmt 1       @ ../Src/rc522.c:757:2
	mov	r0, r1
	add	sp, #8
.Ltmp326:
	pop	{r4, pc}
.Ltmp327:
.Lfunc_end9:
	.size	RC522_Request, .Lfunc_end9-RC522_Request
	.cfi_endproc
	.cantunwind
	.fnend
                                        @ -- End function
	.section	.text.RC522_Anticoll,"ax",%progbits
	.p2align	2               @ -- Begin function RC522_Anticoll
	.type	RC522_Anticoll,%function
	.code	16                      @ @RC522_Anticoll
	.thumb_func
RC522_Anticoll:
.Lfunc_begin10:
	.loc	2 861 0                 @ ../Src/rc522.c:861:0
	.fnstart
	.cfi_startproc
@ %bb.0:
	.save	{r4, r5, r7, lr}
	push	{r4, r5, r7, lr}
	.cfi_def_cfa_offset 16
	.cfi_offset lr, -4
	.cfi_offset r7, -8
	.cfi_offset r5, -12
	.cfi_offset r4, -16
	.pad	#8
	sub	sp, #8
	.cfi_def_cfa_offset 24
	@DEBUG_VALUE: RC522_Anticoll:serNum <- $r0
	mov	r5, r0
.Ltmp328:
	@DEBUG_VALUE: RC522_Anticoll:serNumCheck <- 0
	@DEBUG_VALUE: RC522_Anticoll:serNum <- $r5
	.loc	2 867 2 prologue_end    @ ../Src/rc522.c:867:2
	movs	r0, #13
	movs	r1, #0
	bl	RC522_WriteRegister
	.loc	2 868 12                @ ../Src/rc522.c:868:12
	movw	r0, #8339
	strh	r0, [r5]
	add.w	r0, sp, #6
.Ltmp329:
	@DEBUG_VALUE: RC522_Anticoll:unLen <- [DW_OP_plus_uconst 6] [$sp+0]
	.loc	2 870 11                @ ../Src/rc522.c:870:11
	str	r0, [sp]
	movs	r0, #12
	mov	r1, r5
	movs	r2, #2
	mov	r3, r5
	bl	RC522_ToCard
.Ltmp330:
	@DEBUG_VALUE: RC522_Anticoll:status <- $r0
	.loc	2 872 6                 @ ../Src/rc522.c:872:6
	cmp	r0, #1
	bne	.LBB10_4
.Ltmp331:
@ %bb.1:
	@DEBUG_VALUE: RC522_Anticoll:status <- $r0
	@DEBUG_VALUE: RC522_Anticoll:unLen <- [DW_OP_plus_uconst 6] [$sp+0]
	@DEBUG_VALUE: RC522_Anticoll:serNum <- $r5
	@DEBUG_VALUE: RC522_Anticoll:i <- 0
	.loc	2 0 6 is_stmt 0         @ ../Src/rc522.c:0:6
	ldrb	r4, [r5], #1
.Ltmp332:
	movs	r1, #0
	movs	r2, #0
.Ltmp333:
	.p2align	2
.LBB10_2:                               @ =>This Inner Loop Header: Depth=1
	@DEBUG_VALUE: RC522_Anticoll:status <- $r0
	@DEBUG_VALUE: RC522_Anticoll:unLen <- [DW_OP_plus_uconst 6] [$sp+0]
	@DEBUG_VALUE: RC522_Anticoll:i <- $r2
	ldrb	r3, [r5, r2]
	uxtb	r4, r4
.Ltmp334:
	.loc	2 879 16 is_stmt 1      @ ../Src/rc522.c:879:16
	eors	r1, r4
.Ltmp335:
	.loc	2 877 25                @ ../Src/rc522.c:877:25
	adds	r2, #1
.Ltmp336:
	@DEBUG_VALUE: RC522_Anticoll:i <- $r2
	.loc	2 877 3 is_stmt 0       @ ../Src/rc522.c:877:3
	cmp	r2, #4
	mov	r4, r3
	bne	.LBB10_2
.Ltmp337:
@ %bb.3:
	@DEBUG_VALUE: RC522_Anticoll:i <- $r2
	@DEBUG_VALUE: RC522_Anticoll:status <- $r0
	@DEBUG_VALUE: RC522_Anticoll:unLen <- [DW_OP_plus_uconst 6] [$sp+0]
	.loc	2 882 7 is_stmt 1       @ ../Src/rc522.c:882:7
	cmp	r1, r3
	it	ne
	movne	r0, #0
.Ltmp338:
.LBB10_4:
	@DEBUG_VALUE: RC522_Anticoll:unLen <- [DW_OP_plus_uconst 6] [$sp+0]
	@DEBUG_VALUE: RC522_Anticoll:status <- $r0
	.loc	2 888 2                 @ ../Src/rc522.c:888:2
	add	sp, #8
.Ltmp339:
	pop	{r4, r5, r7, pc}
.Ltmp340:
.Lfunc_end10:
	.size	RC522_Anticoll, .Lfunc_end10-RC522_Anticoll
	.cfi_endproc
	.cantunwind
	.fnend
                                        @ -- End function
	.section	.text.RC522_Halt,"ax",%progbits
	.p2align	2               @ -- Begin function RC522_Halt
	.type	RC522_Halt,%function
	.code	16                      @ @RC522_Halt
	.thumb_func
RC522_Halt:
.Lfunc_begin11:
	.loc	2 1015 0                @ ../Src/rc522.c:1015:0
	.fnstart
	.cfi_startproc
@ %bb.0:
	.save	{r4, lr}
	push	{r4, lr}
	.cfi_def_cfa_offset 8
	.cfi_offset lr, -4
	.cfi_offset r4, -8
	.pad	#16
	sub	sp, #16
	.cfi_def_cfa_offset 24
.Ltmp341:
	.loc	2 1019 10 prologue_end  @ ../Src/rc522.c:1019:10
	movs	r0, #80
	strh.w	r0, [sp, #10]
	add.w	r4, sp, #10
	.loc	2 1021 32               @ ../Src/rc522.c:1021:32
	adds	r2, r4, #2
	.loc	2 1021 2 is_stmt 0      @ ../Src/rc522.c:1021:2
	mov	r0, r4
	movs	r1, #2
	bl	RC522_CalculateCRC
	add.w	r0, sp, #14
.Ltmp342:
	@DEBUG_VALUE: RC522_Halt:unLen <- [DW_OP_plus_uconst 14] [$sp+0]
	.loc	2 1022 2 is_stmt 1      @ ../Src/rc522.c:1022:2
	str	r0, [sp]
	movs	r0, #12
	mov	r1, r4
	movs	r2, #4
	mov	r3, r4
	bl	RC522_ToCard
	.loc	2 1023 1                @ ../Src/rc522.c:1023:1
	add	sp, #16
.Ltmp343:
	pop	{r4, pc}
.Ltmp344:
.Lfunc_end11:
	.size	RC522_Halt, .Lfunc_end11-RC522_Halt
	.cfi_endproc
	.cantunwind
	.fnend
                                        @ -- End function
	.section	.text.RC522_ToCard,"ax",%progbits
	.p2align	2               @ -- Begin function RC522_ToCard
	.type	RC522_ToCard,%function
	.code	16                      @ @RC522_ToCard
	.thumb_func
RC522_ToCard:
.Lfunc_begin12:
	.loc	2 762 0                 @ ../Src/rc522.c:762:0
	.fnstart
	.cfi_startproc
@ %bb.0:
	.save	{r4, r5, r6, r7, r8, r9, r10, lr}
	push.w	{r4, r5, r6, r7, r8, r9, r10, lr}
	.cfi_def_cfa_offset 32
	.cfi_offset lr, -4
	.cfi_offset r10, -8
	.cfi_offset r9, -12
	.cfi_offset r8, -16
	.cfi_offset r7, -20
	.cfi_offset r6, -24
	.cfi_offset r5, -28
	.cfi_offset r4, -32
	@DEBUG_VALUE: RC522_ToCard:command <- $r0
	@DEBUG_VALUE: RC522_ToCard:sendData <- $r1
	@DEBUG_VALUE: RC522_ToCard:sendLen <- $r2
	@DEBUG_VALUE: RC522_ToCard:backData <- $r3
	mov	r4, r3
	mov	r6, r2
	mov	r7, r1
	mov	r9, r0
.Ltmp345:
	@DEBUG_VALUE: RC522_ToCard:waitIRq <- 0
	@DEBUG_VALUE: RC522_ToCard:irqEn <- 0
	@DEBUG_VALUE: RC522_ToCard:status <- 0
	@DEBUG_VALUE: RC522_ToCard:backLen <- [DW_OP_plus_uconst 32] [$sp+0]
	@DEBUG_VALUE: RC522_ToCard:backData <- $r4
	@DEBUG_VALUE: RC522_ToCard:sendLen <- $r6
	@DEBUG_VALUE: RC522_ToCard:sendData <- $r7
	@DEBUG_VALUE: RC522_ToCard:command <- $r9
	.loc	2 768 2 prologue_end    @ ../Src/rc522.c:768:2
	cmp	r0, #12
	beq	.LBB12_3
.Ltmp346:
@ %bb.1:
	@DEBUG_VALUE: RC522_ToCard:command <- $r9
	@DEBUG_VALUE: RC522_ToCard:sendData <- $r7
	@DEBUG_VALUE: RC522_ToCard:sendLen <- $r6
	@DEBUG_VALUE: RC522_ToCard:backData <- $r4
	@DEBUG_VALUE: RC522_ToCard:backLen <- [DW_OP_plus_uconst 32] [$sp+0]
	cmp.w	r9, #14
	bne	.LBB12_4
.Ltmp347:
@ %bb.2:
	@DEBUG_VALUE: RC522_ToCard:command <- $r9
	@DEBUG_VALUE: RC522_ToCard:sendData <- $r7
	@DEBUG_VALUE: RC522_ToCard:sendLen <- $r6
	@DEBUG_VALUE: RC522_ToCard:backData <- $r4
	@DEBUG_VALUE: RC522_ToCard:backLen <- [DW_OP_plus_uconst 32] [$sp+0]
	.loc	2 0 2 is_stmt 0         @ ../Src/rc522.c:0:2
	movs	r5, #17
	mov.w	r8, #18
.Ltmp348:
	@DEBUG_VALUE: RC522_ToCard:waitIRq <- 16
	@DEBUG_VALUE: RC522_ToCard:irqEn <- 18
	b	.LBB12_5
.Ltmp349:
.LBB12_3:
	@DEBUG_VALUE: RC522_ToCard:command <- $r9
	@DEBUG_VALUE: RC522_ToCard:sendData <- $r7
	@DEBUG_VALUE: RC522_ToCard:sendLen <- $r6
	@DEBUG_VALUE: RC522_ToCard:backData <- $r4
	@DEBUG_VALUE: RC522_ToCard:backLen <- [DW_OP_plus_uconst 32] [$sp+0]
	movs	r5, #49
	mov.w	r8, #119
.Ltmp350:
	@DEBUG_VALUE: RC522_ToCard:waitIRq <- 48
	@DEBUG_VALUE: RC522_ToCard:irqEn <- 119
	b	.LBB12_5
.Ltmp351:
.LBB12_4:
	@DEBUG_VALUE: RC522_ToCard:command <- $r9
	@DEBUG_VALUE: RC522_ToCard:sendData <- $r7
	@DEBUG_VALUE: RC522_ToCard:sendLen <- $r6
	@DEBUG_VALUE: RC522_ToCard:backData <- $r4
	@DEBUG_VALUE: RC522_ToCard:backLen <- [DW_OP_plus_uconst 32] [$sp+0]
	movs	r5, #1
	mov.w	r8, #0
.Ltmp352:
.LBB12_5:
	@DEBUG_VALUE: RC522_ToCard:command <- $r9
	@DEBUG_VALUE: RC522_ToCard:sendData <- $r7
	@DEBUG_VALUE: RC522_ToCard:sendLen <- $r6
	@DEBUG_VALUE: RC522_ToCard:backData <- $r4
	@DEBUG_VALUE: RC522_ToCard:backLen <- [DW_OP_plus_uconst 32] [$sp+0]
	.loc	2 784 43 is_stmt 1      @ ../Src/rc522.c:784:43
	orr	r0, r8, #128
	.loc	2 784 2 is_stmt 0       @ ../Src/rc522.c:784:2
	uxtb	r1, r0
	movs	r0, #2
	bl	RC522_WriteRegister
	.loc	2 785 2 is_stmt 1       @ ../Src/rc522.c:785:2
	movs	r0, #4
	movs	r1, #128
	bl	RC522_ClearBitMask
	.loc	2 786 2                 @ ../Src/rc522.c:786:2
	movs	r0, #10
	movs	r1, #128
	bl	RC522_SetBitMask
	.loc	2 787 2                 @ ../Src/rc522.c:787:2
	movs	r0, #1
	movs	r1, #0
	bl	RC522_WriteRegister
.Ltmp353:
	@DEBUG_VALUE: RC522_ToCard:i <- 0
	.loc	2 789 2                 @ ../Src/rc522.c:789:2
	cbz	r6, .LBB12_7
.Ltmp354:
	.p2align	2
.LBB12_6:                               @ =>This Inner Loop Header: Depth=1
	@DEBUG_VALUE: RC522_ToCard:command <- $r9
	@DEBUG_VALUE: RC522_ToCard:sendData <- $r7
	@DEBUG_VALUE: RC522_ToCard:sendLen <- $r6
	@DEBUG_VALUE: RC522_ToCard:backData <- $r4
	@DEBUG_VALUE: RC522_ToCard:backLen <- [DW_OP_plus_uconst 32] [$sp+0]
	.loc	2 791 3                 @ ../Src/rc522.c:791:3
	ldrb	r1, [r7], #1
.Ltmp355:
	movs	r0, #9
	bl	RC522_WriteRegister
.Ltmp356:
	.loc	2 789 17                @ ../Src/rc522.c:789:17
	subs	r6, #1
.Ltmp357:
	.loc	2 789 2 is_stmt 0       @ ../Src/rc522.c:789:2
	bne	.LBB12_6
.Ltmp358:
.LBB12_7:
	@DEBUG_VALUE: RC522_ToCard:command <- $r9
	@DEBUG_VALUE: RC522_ToCard:backData <- $r4
	@DEBUG_VALUE: RC522_ToCard:backLen <- [DW_OP_plus_uconst 32] [$sp+0]
	.loc	2 794 2 is_stmt 1       @ ../Src/rc522.c:794:2
	movs	r0, #1
	mov	r1, r9
	bl	RC522_WriteRegister
	.loc	2 796 6                 @ ../Src/rc522.c:796:6
	cmp.w	r9, #12
	bne	.LBB12_9
.Ltmp359:
@ %bb.8:
	@DEBUG_VALUE: RC522_ToCard:command <- $r9
	@DEBUG_VALUE: RC522_ToCard:backData <- $r4
	@DEBUG_VALUE: RC522_ToCard:backLen <- [DW_OP_plus_uconst 32] [$sp+0]
	.loc	2 798 3                 @ ../Src/rc522.c:798:3
	movs	r0, #13
	movs	r1, #128
	bl	RC522_SetBitMask
.Ltmp360:
.LBB12_9:
	@DEBUG_VALUE: RC522_ToCard:command <- $r9
	@DEBUG_VALUE: RC522_ToCard:backData <- $r4
	@DEBUG_VALUE: RC522_ToCard:backLen <- [DW_OP_plus_uconst 32] [$sp+0]
	.loc	2 0 3 is_stmt 0         @ ../Src/rc522.c:0:3
	ldr.w	r10, [sp, #32]
	movw	r7, #63536
	movt	r7, #65535
.Ltmp361:
	.p2align	2
.LBB12_10:                              @ =>This Inner Loop Header: Depth=1
	@DEBUG_VALUE: RC522_ToCard:command <- $r9
	@DEBUG_VALUE: RC522_ToCard:backData <- $r4
	@DEBUG_VALUE: RC522_ToCard:backLen <- [DW_OP_plus_uconst 32] [$sp+0]
	.loc	2 810 7 is_stmt 1       @ ../Src/rc522.c:810:7
	movs	r0, #4
	bl	RC522_ReadRegister
	mov	r6, r0
.Ltmp362:
	@DEBUG_VALUE: RC522_ToCard:n <- $r6
	.loc	2 813 15                @ ../Src/rc522.c:813:15
	adds	r7, #1
	.loc	2 813 22 is_stmt 0      @ ../Src/rc522.c:813:22
	beq	.LBB12_16
.Ltmp363:
@ %bb.11:                               @   in Loop: Header=BB12_10 Depth=1
	@DEBUG_VALUE: RC522_ToCard:n <- $r6
	@DEBUG_VALUE: RC522_ToCard:command <- $r9
	@DEBUG_VALUE: RC522_ToCard:backData <- $r4
	@DEBUG_VALUE: RC522_ToCard:backLen <- [DW_OP_plus_uconst 32] [$sp+0]
	.loc	2 813 42                @ ../Src/rc522.c:813:42
	tst	r5, r6
	beq	.LBB12_10
.Ltmp364:
@ %bb.12:
	@DEBUG_VALUE: RC522_ToCard:n <- $r6
	@DEBUG_VALUE: RC522_ToCard:command <- $r9
	@DEBUG_VALUE: RC522_ToCard:backData <- $r4
	@DEBUG_VALUE: RC522_ToCard:backLen <- [DW_OP_plus_uconst 32] [$sp+0]
	.loc	2 817 2 is_stmt 1       @ ../Src/rc522.c:817:2
	movs	r0, #13
	movs	r1, #128
	bl	RC522_ClearBitMask
.Ltmp365:
	.loc	2 821 9                 @ ../Src/rc522.c:821:9
	movs	r0, #6
	bl	RC522_ReadRegister
.Ltmp366:
	.loc	2 821 7 is_stmt 0       @ ../Src/rc522.c:821:7
	tst.w	r0, #27
	bne	.LBB12_17
.Ltmp367:
@ %bb.13:
	@DEBUG_VALUE: RC522_ToCard:n <- $r6
	@DEBUG_VALUE: RC522_ToCard:command <- $r9
	@DEBUG_VALUE: RC522_ToCard:backData <- $r4
	@DEBUG_VALUE: RC522_ToCard:backLen <- [DW_OP_plus_uconst 32] [$sp+0]
	.loc	2 825 10 is_stmt 1      @ ../Src/rc522.c:825:10
	and.w	r0, r8, r6
	.loc	2 825 18 is_stmt 0      @ ../Src/rc522.c:825:18
	and	r0, r0, #1
.Ltmp368:
	@DEBUG_VALUE: RC522_ToCard:status <- 1
	.loc	2 825 8                 @ ../Src/rc522.c:825:8
	adds	r6, r0, #1
.Ltmp369:
	@DEBUG_VALUE: RC522_ToCard:status <- $r6
	.loc	2 830 8 is_stmt 1       @ ../Src/rc522.c:830:8
	cmp.w	r9, #12
	bne	.LBB12_21
.Ltmp370:
@ %bb.14:
	@DEBUG_VALUE: RC522_ToCard:status <- $r6
	@DEBUG_VALUE: RC522_ToCard:command <- $r9
	@DEBUG_VALUE: RC522_ToCard:backData <- $r4
	@DEBUG_VALUE: RC522_ToCard:backLen <- [DW_OP_plus_uconst 32] [$sp+0]
	.loc	2 832 9                 @ ../Src/rc522.c:832:9
	movs	r0, #10
	bl	RC522_ReadRegister
	mov	r5, r0
.Ltmp371:
	@DEBUG_VALUE: RC522_ToCard:n <- $r5
	.loc	2 833 17                @ ../Src/rc522.c:833:17
	movs	r0, #12
	bl	RC522_ReadRegister
	.loc	2 833 55 is_stmt 0      @ ../Src/rc522.c:833:55
	ands	r0, r0, #7
	.loc	2 835 9 is_stmt 1       @ ../Src/rc522.c:835:9
	beq	.LBB12_18
.Ltmp372:
@ %bb.15:
	@DEBUG_VALUE: RC522_ToCard:n <- $r5
	@DEBUG_VALUE: RC522_ToCard:status <- $r6
	@DEBUG_VALUE: RC522_ToCard:command <- $r9
	@DEBUG_VALUE: RC522_ToCard:backData <- $r4
	@DEBUG_VALUE: RC522_ToCard:backLen <- [DW_OP_plus_uconst 32] [$sp+0]
	.loc	2 835 46 is_stmt 0      @ ../Src/rc522.c:835:46
	movw	r1, #65528
	add.w	r1, r1, r5, lsl #3
.Ltmp373:
	.loc	2 833 55 is_stmt 1      @ ../Src/rc522.c:833:55
	uxtb	r0, r0
.Ltmp374:
	@DEBUG_VALUE: RC522_ToCard:lastBits <- $r0
	.loc	2 835 51                @ ../Src/rc522.c:835:51
	orrs	r0, r1
.Ltmp375:
	.loc	2 0 51 is_stmt 0        @ ../Src/rc522.c:0:51
	b	.LBB12_19
.Ltmp376:
.LBB12_16:
	@DEBUG_VALUE: RC522_ToCard:n <- $r6
	@DEBUG_VALUE: RC522_ToCard:command <- $r9
	@DEBUG_VALUE: RC522_ToCard:backData <- $r4
	@DEBUG_VALUE: RC522_ToCard:backLen <- [DW_OP_plus_uconst 32] [$sp+0]
	.loc	2 817 2 is_stmt 1       @ ../Src/rc522.c:817:2
	movs	r0, #13
	movs	r1, #128
	bl	RC522_ClearBitMask
.Ltmp377:
.LBB12_17:
	@DEBUG_VALUE: RC522_ToCard:n <- $r6
	@DEBUG_VALUE: RC522_ToCard:command <- $r9
	@DEBUG_VALUE: RC522_ToCard:backData <- $r4
	@DEBUG_VALUE: RC522_ToCard:backLen <- [DW_OP_plus_uconst 32] [$sp+0]
	.loc	2 0 2 is_stmt 0         @ ../Src/rc522.c:0:2
	movs	r6, #0
.Ltmp378:
	.loc	2 856 2 is_stmt 1       @ ../Src/rc522.c:856:2
	mov	r0, r6
.Ltmp379:
	@DEBUG_VALUE: RC522_ToCard:status <- $r6
	pop.w	{r4, r5, r6, r7, r8, r9, r10, pc}
.Ltmp380:
.LBB12_18:
	@DEBUG_VALUE: RC522_ToCard:n <- $r5
	@DEBUG_VALUE: RC522_ToCard:status <- $r6
	@DEBUG_VALUE: RC522_ToCard:command <- $r9
	@DEBUG_VALUE: RC522_ToCard:backData <- $r4
	@DEBUG_VALUE: RC522_ToCard:backLen <- [DW_OP_plus_uconst 32] [$sp+0]
	.loc	2 836 33                @ ../Src/rc522.c:836:33
	lsls	r0, r5, #3
.Ltmp381:
.LBB12_19:
	@DEBUG_VALUE: RC522_ToCard:n <- $r5
	@DEBUG_VALUE: RC522_ToCard:status <- $r6
	@DEBUG_VALUE: RC522_ToCard:command <- $r9
	@DEBUG_VALUE: RC522_ToCard:backData <- $r4
	@DEBUG_VALUE: RC522_ToCard:backLen <- [DW_OP_plus_uconst 32] [$sp+0]
	.loc	2 0 33 is_stmt 0        @ ../Src/rc522.c:0:33
	strh.w	r0, [r10]
	.loc	2 840 9 is_stmt 1       @ ../Src/rc522.c:840:9
	cmp	r5, #16
	mov	r7, r5
	it	hs
	movhs	r7, #16
	.loc	2 838 9                 @ ../Src/rc522.c:838:9
	cmp	r5, #0
	it	eq
	moveq	r7, #1
.Ltmp382:
	@DEBUG_VALUE: RC522_ToCard:n <- $r7
	@DEBUG_VALUE: RC522_ToCard:i <- 0
	.loc	2 844 5                 @ ../Src/rc522.c:844:5
	cbz	r7, .LBB12_21
.Ltmp383:
	.p2align	2
.LBB12_20:                              @ =>This Inner Loop Header: Depth=1
	@DEBUG_VALUE: RC522_ToCard:n <- $r7
	@DEBUG_VALUE: RC522_ToCard:status <- $r6
	@DEBUG_VALUE: RC522_ToCard:command <- $r9
	@DEBUG_VALUE: RC522_ToCard:backData <- $r4
	@DEBUG_VALUE: RC522_ToCard:backLen <- [DW_OP_plus_uconst 32] [$sp+0]
	.loc	2 846 20                @ ../Src/rc522.c:846:20
	movs	r0, #9
	bl	RC522_ReadRegister
	.loc	2 846 18 is_stmt 0      @ ../Src/rc522.c:846:18
	strb	r0, [r4], #1
.Ltmp384:
	.loc	2 844 20 is_stmt 1      @ ../Src/rc522.c:844:20
	subs	r7, #1
.Ltmp385:
	.loc	2 844 5 is_stmt 0       @ ../Src/rc522.c:844:5
	bne	.LBB12_20
.Ltmp386:
.LBB12_21:
	@DEBUG_VALUE: RC522_ToCard:status <- $r6
	@DEBUG_VALUE: RC522_ToCard:command <- $r9
	@DEBUG_VALUE: RC522_ToCard:backLen <- [DW_OP_plus_uconst 32] [$sp+0]
	.loc	2 856 2 is_stmt 1       @ ../Src/rc522.c:856:2
	mov	r0, r6
	@DEBUG_VALUE: RC522_ToCard:status <- $r6
	pop.w	{r4, r5, r6, r7, r8, r9, r10, pc}
.Ltmp387:
.Lfunc_end12:
	.size	RC522_ToCard, .Lfunc_end12-RC522_ToCard
	.cfi_endproc
	.cantunwind
	.fnend
                                        @ -- End function
	.section	.text.RC522_ClearBitMask,"ax",%progbits
	.p2align	2               @ -- Begin function RC522_ClearBitMask
	.type	RC522_ClearBitMask,%function
	.code	16                      @ @RC522_ClearBitMask
	.thumb_func
RC522_ClearBitMask:
.Lfunc_begin13:
	.loc	2 681 0                 @ ../Src/rc522.c:681:0
	.fnstart
	.cfi_startproc
@ %bb.0:
	.save	{r4, r5, r7, lr}
	push	{r4, r5, r7, lr}
	.cfi_def_cfa_offset 16
	.cfi_offset lr, -4
	.cfi_offset r7, -8
	.cfi_offset r5, -12
	.cfi_offset r4, -16
	@DEBUG_VALUE: RC522_ClearBitMask:reg <- $r0
	@DEBUG_VALUE: RC522_ClearBitMask:mask <- $r1
	mov	r4, r1
	mov	r5, r0
.Ltmp388:
	@DEBUG_VALUE: RC522_ClearBitMask:mask <- $r4
	@DEBUG_VALUE: RC522_ClearBitMask:reg <- $r5
	.loc	2 682 27 prologue_end   @ ../Src/rc522.c:682:27
	bl	RC522_ReadRegister
	.loc	2 682 51 is_stmt 0      @ ../Src/rc522.c:682:51
	bic.w	r1, r0, r4
	.loc	2 682 2                 @ ../Src/rc522.c:682:2
	mov	r0, r5
	pop.w	{r4, r5, r7, lr}
.Ltmp389:
	b	RC522_WriteRegister
.Ltmp390:
.Lfunc_end13:
	.size	RC522_ClearBitMask, .Lfunc_end13-RC522_ClearBitMask
	.cfi_endproc
	.cantunwind
	.fnend
                                        @ -- End function
	.section	.text.RC522_SetBitMask,"ax",%progbits
	.p2align	2               @ -- Begin function RC522_SetBitMask
	.type	RC522_SetBitMask,%function
	.code	16                      @ @RC522_SetBitMask
	.thumb_func
RC522_SetBitMask:
.Lfunc_begin14:
	.loc	2 675 0 is_stmt 1       @ ../Src/rc522.c:675:0
	.fnstart
	.cfi_startproc
@ %bb.0:
	.save	{r4, r5, r7, lr}
	push	{r4, r5, r7, lr}
	.cfi_def_cfa_offset 16
	.cfi_offset lr, -4
	.cfi_offset r7, -8
	.cfi_offset r5, -12
	.cfi_offset r4, -16
	@DEBUG_VALUE: RC522_SetBitMask:reg <- $r0
	@DEBUG_VALUE: RC522_SetBitMask:mask <- $r1
	mov	r4, r1
	mov	r5, r0
.Ltmp391:
	@DEBUG_VALUE: RC522_SetBitMask:mask <- $r4
	@DEBUG_VALUE: RC522_SetBitMask:reg <- $r5
	.loc	2 676 27 prologue_end   @ ../Src/rc522.c:676:27
	bl	RC522_ReadRegister
	orr.w	r1, r0, r4
	.loc	2 676 2 is_stmt 0       @ ../Src/rc522.c:676:2
	mov	r0, r5
	pop.w	{r4, r5, r7, lr}
.Ltmp392:
	b	RC522_WriteRegister
.Ltmp393:
.Lfunc_end14:
	.size	RC522_SetBitMask, .Lfunc_end14-RC522_SetBitMask
	.cfi_endproc
	.cantunwind
	.fnend
                                        @ -- End function
	.section	.text.RC522_ReadRegister,"ax",%progbits
	.p2align	2               @ -- Begin function RC522_ReadRegister
	.type	RC522_ReadRegister,%function
	.code	16                      @ @RC522_ReadRegister
	.thumb_func
RC522_ReadRegister:
.Lfunc_begin15:
	.loc	2 666 0 is_stmt 1       @ ../Src/rc522.c:666:0
	.fnstart
	.cfi_startproc
@ %bb.0:
	.save	{r4, lr}
	push	{r4, lr}
	.cfi_def_cfa_offset 8
	.cfi_offset lr, -4
	.cfi_offset r4, -8
	.pad	#8
	sub	sp, #8
	.cfi_def_cfa_offset 16
	@DEBUG_VALUE: RC522_ReadRegister:addr <- $r0
	@DEBUG_VALUE: RC522_ReadRegister:addr <- $r0
.Ltmp394:
	.loc	2 667 19 prologue_end   @ ../Src/rc522.c:667:19
	movw	r2, :lower16:rc522_tx_buff
	movt	r2, :upper16:rc522_tx_buff
	strb	r0, [r2]
.Ltmp395:
	.loc	2 668 5                 @ ../Src/rc522.c:668:5
	movs	r4, #5
	str	r4, [sp]
	movw	r0, :lower16:hi2c1
.Ltmp396:
	movt	r0, :upper16:hi2c1
	movs	r1, #126
	movs	r3, #1
	bl	HAL_I2C_Master_Transmit
.Ltmp397:
	.loc	2 668 5 is_stmt 0       @ ../Src/rc522.c:668:5
	cmp	r0, #0
.Ltmp398:
	.loc	2 668 95                @ ../Src/rc522.c:668:95
	it	ne
	blne	Error_Handler
.Ltmp399:
	.loc	2 669 5 is_stmt 1       @ ../Src/rc522.c:669:5
	str	r4, [sp]
	movw	r0, :lower16:hi2c1
	movt	r0, :upper16:hi2c1
	movw	r4, :lower16:rc522_rx_buff
	movt	r4, :upper16:rc522_rx_buff
	movs	r1, #127
	mov	r2, r4
	movs	r3, #1
	bl	HAL_I2C_Master_Receive
.Ltmp400:
	.loc	2 669 5 is_stmt 0       @ ../Src/rc522.c:669:5
	cmp	r0, #0
.Ltmp401:
	.loc	2 669 93                @ ../Src/rc522.c:669:93
	it	ne
	blne	Error_Handler
.Ltmp402:
	.loc	2 670 5 is_stmt 1       @ ../Src/rc522.c:670:5
	ldrb	r0, [r4]
	add	sp, #8
	pop	{r4, pc}
.Ltmp403:
.Lfunc_end15:
	.size	RC522_ReadRegister, .Lfunc_end15-RC522_ReadRegister
	.cfi_endproc
	.cantunwind
	.fnend
                                        @ -- End function
	.section	.text.RC522_CalculateCRC,"ax",%progbits
	.p2align	2               @ -- Begin function RC522_CalculateCRC
	.type	RC522_CalculateCRC,%function
	.code	16                      @ @RC522_CalculateCRC
	.thumb_func
RC522_CalculateCRC:
.Lfunc_begin16:
	.loc	2 893 0                 @ ../Src/rc522.c:893:0
	.fnstart
	.cfi_startproc
@ %bb.0:
	.save	{r4, r5, r6, lr}
	push	{r4, r5, r6, lr}
	.cfi_def_cfa_offset 16
	.cfi_offset lr, -4
	.cfi_offset r6, -8
	.cfi_offset r5, -12
	.cfi_offset r4, -16
	@DEBUG_VALUE: RC522_CalculateCRC:pIndata <- $r0
	@DEBUG_VALUE: RC522_CalculateCRC:len <- $r1
	@DEBUG_VALUE: RC522_CalculateCRC:pOutData <- $r2
	mov	r4, r2
	mov	r5, r1
	mov	r6, r0
.Ltmp404:
	@DEBUG_VALUE: RC522_CalculateCRC:pOutData <- $r4
	@DEBUG_VALUE: RC522_CalculateCRC:len <- $r5
	@DEBUG_VALUE: RC522_CalculateCRC:pIndata <- $r6
	.loc	2 896 2 prologue_end    @ ../Src/rc522.c:896:2
	movs	r0, #1
	movs	r1, #0
	bl	RC522_WriteRegister
	.loc	2 897 2                 @ ../Src/rc522.c:897:2
	movs	r0, #5
	movs	r1, #4
	bl	RC522_ClearBitMask
	.loc	2 898 2                 @ ../Src/rc522.c:898:2
	movs	r0, #10
	movs	r1, #128
	bl	RC522_SetBitMask
.Ltmp405:
	@DEBUG_VALUE: RC522_CalculateCRC:i <- 0
	.loc	2 903 2                 @ ../Src/rc522.c:903:2
	cbz	r5, .LBB16_2
.Ltmp406:
	.p2align	2
.LBB16_1:                               @ =>This Inner Loop Header: Depth=1
	@DEBUG_VALUE: RC522_CalculateCRC:pIndata <- $r6
	@DEBUG_VALUE: RC522_CalculateCRC:len <- $r5
	@DEBUG_VALUE: RC522_CalculateCRC:pOutData <- $r4
	.loc	2 905 3                 @ ../Src/rc522.c:905:3
	ldrb	r1, [r6], #1
.Ltmp407:
	movs	r0, #9
	bl	RC522_WriteRegister
.Ltmp408:
	.loc	2 903 17                @ ../Src/rc522.c:903:17
	subs	r5, #1
.Ltmp409:
	.loc	2 903 2 is_stmt 0       @ ../Src/rc522.c:903:2
	bne	.LBB16_1
.Ltmp410:
.LBB16_2:
	@DEBUG_VALUE: RC522_CalculateCRC:pOutData <- $r4
	.loc	2 910 2 is_stmt 1       @ ../Src/rc522.c:910:2
	movs	r0, #1
	movs	r1, #3
	bl	RC522_WriteRegister
	mvn	r5, #253
.Ltmp411:
	@DEBUG_VALUE: RC522_CalculateCRC:i <- 255
	.p2align	2
.LBB16_3:                               @ =>This Inner Loop Header: Depth=1
	@DEBUG_VALUE: RC522_CalculateCRC:pOutData <- $r4
	.loc	2 918 13                @ ../Src/rc522.c:918:13
	movs	r0, #5
	bl	RC522_ReadRegister
.Ltmp412:
	.loc	2 921 22                @ ../Src/rc522.c:921:22
	cbz	r5, .LBB16_5
.Ltmp413:
@ %bb.4:                                @   in Loop: Header=BB16_3 Depth=1
	@DEBUG_VALUE: RC522_CalculateCRC:pOutData <- $r4
	adds	r5, #1
	ands	r0, r0, #4
	beq	.LBB16_3
.Ltmp414:
.LBB16_5:
	@DEBUG_VALUE: RC522_CalculateCRC:pOutData <- $r4
	.loc	2 923 2                 @ ../Src/rc522.c:923:2
	movs	r0, #1
	movs	r1, #0
	bl	RC522_WriteRegister
	.loc	2 927 16                @ ../Src/rc522.c:927:16
	movs	r0, #34
	bl	RC522_ReadRegister
	.loc	2 927 14 is_stmt 0      @ ../Src/rc522.c:927:14
	strb	r0, [r4]
	.loc	2 928 16 is_stmt 1      @ ../Src/rc522.c:928:16
	movs	r0, #33
	bl	RC522_ReadRegister
	.loc	2 928 14 is_stmt 0      @ ../Src/rc522.c:928:14
	strb	r0, [r4, #1]
	.loc	2 929 1 is_stmt 1       @ ../Src/rc522.c:929:1
	pop	{r4, r5, r6, pc}
.Ltmp415:
.Lfunc_end16:
	.size	RC522_CalculateCRC, .Lfunc_end16-RC522_CalculateCRC
	.cfi_endproc
	.cantunwind
	.fnend
                                        @ -- End function
	.section	.text.RC522_SelectTag,"ax",%progbits
	.p2align	2               @ -- Begin function RC522_SelectTag
	.type	RC522_SelectTag,%function
	.code	16                      @ @RC522_SelectTag
	.thumb_func
RC522_SelectTag:
.Lfunc_begin17:
	.loc	2 933 0                 @ ../Src/rc522.c:933:0
	.fnstart
	.cfi_startproc
@ %bb.0:
	.save	{r4, lr}
	push	{r4, lr}
	.cfi_def_cfa_offset 8
	.cfi_offset lr, -4
	.cfi_offset r4, -8
	.pad	#16
	sub	sp, #16
	.cfi_def_cfa_offset 24
	@DEBUG_VALUE: RC522_SelectTag:serNum <- $r0
.Ltmp416:
	.loc	2 939 12 prologue_end   @ ../Src/rc522.c:939:12
	movw	r0, #28819
.Ltmp417:
	@DEBUG_VALUE: RC522_SelectTag:serNum <- $r0
	strh.w	r0, [sp, #5]
.Ltmp418:
	@DEBUG_VALUE: RC522_SelectTag:i <- 0
	.loc	2 944 18                @ ../Src/rc522.c:944:18
	movw	r0, :lower16:card_id
.Ltmp419:
	movt	r0, :upper16:card_id
.Ltmp420:
	@DEBUG_VALUE: RC522_SelectTag:serNum <- $r0
	ldr	r1, [r0]
	str.w	r1, [sp, #7]
	ldrb	r0, [r0, #4]
.Ltmp421:
	@DEBUG_VALUE: RC522_SelectTag:serNum <- $r0
	strb.w	r0, [sp, #11]
	add.w	r4, sp, #5
.Ltmp422:
	.loc	2 947 34                @ ../Src/rc522.c:947:34
	adds	r2, r4, #7
	.loc	2 947 2 is_stmt 0       @ ../Src/rc522.c:947:2
	mov	r0, r4
.Ltmp423:
	@DEBUG_VALUE: RC522_SelectTag:serNum <- $r0
	movs	r1, #7
	bl	RC522_CalculateCRC
.Ltmp424:
	.loc	2 0 2                   @ ../Src/rc522.c:0:2
	add.w	r0, sp, #14
.Ltmp425:
	@DEBUG_VALUE: RC522_SelectTag:recvBits <- [DW_OP_plus_uconst 14] [$sp+0]
	@DEBUG_VALUE: RC522_SelectTag:serNum <- $r0
	.loc	2 948 11 is_stmt 1      @ ../Src/rc522.c:948:11
	str	r0, [sp]
	movs	r0, #12
.Ltmp426:
	@DEBUG_VALUE: RC522_SelectTag:serNum <- $r0
	mov	r1, r4
	movs	r2, #9
	mov	r3, r4
	bl	RC522_ToCard
.Ltmp427:
	@DEBUG_VALUE: RC522_SelectTag:serNum <- $r0
	.loc	2 0 11 is_stmt 0        @ ../Src/rc522.c:0:11
	add	sp, #16
.Ltmp428:
	pop	{r4, pc}
.Ltmp429:
.Lfunc_end17:
	.size	RC522_SelectTag, .Lfunc_end17-RC522_SelectTag
	.cfi_endproc
	.cantunwind
	.fnend
                                        @ -- End function
	.section	.text.RC522_Auth,"ax",%progbits
	.p2align	2               @ -- Begin function RC522_Auth
	.type	RC522_Auth,%function
	.code	16                      @ @RC522_Auth
	.thumb_func
RC522_Auth:
.Lfunc_begin18:
	.loc	2 964 0 is_stmt 1       @ ../Src/rc522.c:964:0
	.fnstart
	.cfi_startproc
@ %bb.0:
	.save	{r7, lr}
	push	{r7, lr}
	.cfi_def_cfa_offset 8
	.cfi_offset lr, -4
	.cfi_offset r7, -8
	.pad	#24
	sub	sp, #24
	.cfi_def_cfa_offset 32
	@DEBUG_VALUE: RC522_Auth:BlockAddr <- $r0
	@DEBUG_VALUE: RC522_Auth:BlockAddr <- $r0
	@DEBUG_VALUE: RC522_Auth:authMode <- 96
	@DEBUG_VALUE: RC522_Auth:Sectorkey <- $r0
.Ltmp430:
	.loc	2 972 10 prologue_end   @ ../Src/rc522.c:972:10
	strb.w	r0, [sp, #11]
	.loc	2 971 10                @ ../Src/rc522.c:971:10
	movs	r0, #96
.Ltmp431:
	@DEBUG_VALUE: RC522_Auth:Sectorkey <- $r0
	strb.w	r0, [sp, #10]
.Ltmp432:
	@DEBUG_VALUE: RC522_Auth:i <- 0
	.loc	2 976 16                @ ../Src/rc522.c:976:16
	movw	r0, :lower16:mifare_key_a
.Ltmp433:
	movt	r0, :upper16:mifare_key_a
.Ltmp434:
	@DEBUG_VALUE: RC522_Auth:Sectorkey <- $r0
	ldr	r1, [r0]
	str	r1, [sp, #12]
	ldrh	r0, [r0, #4]
.Ltmp435:
	@DEBUG_VALUE: RC522_Auth:Sectorkey <- $r0
	strh.w	r0, [sp, #16]
.Ltmp436:
	.loc	2 981 16                @ ../Src/rc522.c:981:16
	movw	r0, :lower16:card_id
.Ltmp437:
	movt	r0, :upper16:card_id
.Ltmp438:
	@DEBUG_VALUE: RC522_Auth:Sectorkey <- $r0
	ldr	r0, [r0]
.Ltmp439:
	@DEBUG_VALUE: RC522_Auth:Sectorkey <- $r0
	str.w	r0, [sp, #18]
	add.w	r0, sp, #22
.Ltmp440:
	@DEBUG_VALUE: RC522_Auth:recvBits <- [DW_OP_plus_uconst 22] [$sp+0]
	@DEBUG_VALUE: RC522_Auth:Sectorkey <- $r0
	.loc	2 984 11                @ ../Src/rc522.c:984:11
	str	r0, [sp]
	add.w	r1, sp, #10
	movs	r0, #14
.Ltmp441:
	@DEBUG_VALUE: RC522_Auth:Sectorkey <- $r0
	movs	r2, #12
	mov	r3, r1
	bl	RC522_ToCard
.Ltmp442:
	@DEBUG_VALUE: RC522_Auth:Sectorkey <- $r0
	@DEBUG_VALUE: RC522_Auth:status <- $r0
	.loc	2 986 24                @ ../Src/rc522.c:986:24
	cmp	r0, #1
	bne	.LBB18_2
.Ltmp443:
@ %bb.1:
	@DEBUG_VALUE: RC522_Auth:status <- $r0
	@DEBUG_VALUE: RC522_Auth:recvBits <- [DW_OP_plus_uconst 22] [$sp+0]
	@DEBUG_VALUE: RC522_Auth:Sectorkey <- $r0
	.loc	2 986 30 is_stmt 0      @ ../Src/rc522.c:986:30
	movs	r0, #8
.Ltmp444:
	bl	RC522_ReadRegister
.Ltmp445:
	.loc	2 986 6                 @ ../Src/rc522.c:986:6
	lsls	r0, r0, #28
	ittt	mi
	movmi	r0, #1
.Ltmp446:
	@DEBUG_VALUE: RC522_Auth:status <- $r0
	.loc	2 991 2 is_stmt 1       @ ../Src/rc522.c:991:2
	addmi	sp, #24
.Ltmp447:
	popmi	{r7, pc}
.Ltmp448:
.LBB18_2:
	@DEBUG_VALUE: RC522_Auth:status <- $r0
	.loc	2 0 2 is_stmt 0         @ ../Src/rc522.c:0:2
	movs	r0, #0
.Ltmp449:
	@DEBUG_VALUE: RC522_Auth:status <- 0
	@DEBUG_VALUE: RC522_Auth:status <- $r0
	.loc	2 991 2                 @ ../Src/rc522.c:991:2
	add	sp, #24
	pop	{r7, pc}
.Ltmp450:
.Lfunc_end18:
	.size	RC522_Auth, .Lfunc_end18-RC522_Auth
	.cfi_endproc
	.cantunwind
	.fnend
                                        @ -- End function
	.section	.text.RC522_Read,"ax",%progbits
	.p2align	2               @ -- Begin function RC522_Read
	.type	RC522_Read,%function
	.code	16                      @ @RC522_Read
	.thumb_func
RC522_Read:
.Lfunc_begin19:
	.loc	2 996 0 is_stmt 1       @ ../Src/rc522.c:996:0
	.fnstart
	.cfi_startproc
@ %bb.0:
	.save	{r4, lr}
	push	{r4, lr}
	.cfi_def_cfa_offset 8
	.cfi_offset lr, -4
	.cfi_offset r4, -8
	.pad	#8
	sub	sp, #8
	.cfi_def_cfa_offset 16
	@DEBUG_VALUE: RC522_Read:blockAddr <- $r0
	@DEBUG_VALUE: RC522_Read:recvData <- $r1
	mov	r4, r1
.Ltmp451:
	@DEBUG_VALUE: RC522_Read:recvData <- $r4
	@DEBUG_VALUE: RC522_Read:blockAddr <- $r0
	.loc	2 1001 14 prologue_end  @ ../Src/rc522.c:1001:14
	strb	r0, [r1, #1]
	.loc	2 1000 14               @ ../Src/rc522.c:1000:14
	movs	r0, #48
.Ltmp452:
	strb	r0, [r1]
	.loc	2 1002 36               @ ../Src/rc522.c:1002:36
	adds	r2, r1, #2
	.loc	2 1002 2 is_stmt 0      @ ../Src/rc522.c:1002:2
	mov	r0, r1
	movs	r1, #2
	bl	RC522_CalculateCRC
	add.w	r0, sp, #6
.Ltmp453:
	@DEBUG_VALUE: RC522_Read:unLen <- [DW_OP_plus_uconst 6] [$sp+0]
	.loc	2 1003 11 is_stmt 1     @ ../Src/rc522.c:1003:11
	str	r0, [sp]
	movs	r0, #12
	mov	r1, r4
	movs	r2, #4
	mov	r3, r4
	bl	RC522_ToCard
	add	sp, #8
.Ltmp454:
	.loc	2 0 11 is_stmt 0        @ ../Src/rc522.c:0:11
	pop	{r4, pc}
.Ltmp455:
.Lfunc_end19:
	.size	RC522_Read, .Lfunc_end19-RC522_Read
	.cfi_endproc
	.cantunwind
	.fnend
                                        @ -- End function
	.hidden	reset_card_serial       @ @reset_card_serial
	.type	reset_card_serial,%object
	.section	.data.reset_card_serial,"aw",%progbits
	.globl	reset_card_serial
reset_card_serial:
	.ascii	"4u\246\247@"
	.size	reset_card_serial, 5

	.hidden	mifare_process_flags    @ @mifare_process_flags
	.type	mifare_process_flags,%object
	.section	.bss.mifare_process_flags,"aw",%nobits
	.globl	mifare_process_flags
	.p2align	2
mifare_process_flags:
	.long	0                       @ 0x0
	.size	mifare_process_flags, 4

	.type	RC522_Service.mifare_time,%object @ @RC522_Service.mifare_time
	.section	.bss.RC522_Service.mifare_time,"aw",%nobits
	.p2align	2
RC522_Service.mifare_time:
	.long	0                       @ 0x0
	.size	RC522_Service.mifare_time, 4

	.type	RC522_Service.mifare_timer,%object @ @RC522_Service.mifare_timer
	.section	.bss.RC522_Service.mifare_timer,"aw",%nobits
	.p2align	2
RC522_Service.mifare_timer:
	.long	0                       @ 0x0
	.size	RC522_Service.mifare_timer, 4

	.type	RC522_Service.handmaid_card_time,%object @ @RC522_Service.handmaid_card_time
	.section	.bss.RC522_Service.handmaid_card_time,"aw",%nobits
	.p2align	2
RC522_Service.handmaid_card_time:
	.byte	0                       @ 0x0
	.size	RC522_Service.handmaid_card_time, 1

	.type	RC522_Service.handmaid_card_timer,%object @ @RC522_Service.handmaid_card_timer
	.section	.bss.RC522_Service.handmaid_card_timer,"aw",%nobits
	.p2align	2
RC522_Service.handmaid_card_timer:
	.long	0                       @ 0x0
	.size	RC522_Service.handmaid_card_timer, 4

	.type	RC522_Service.handmaid_card_cycles,%object @ @RC522_Service.handmaid_card_cycles
	.section	.bss.RC522_Service.handmaid_card_cycles,"aw",%nobits
RC522_Service.handmaid_card_cycles:
	.byte	0                       @ 0x0
	.size	RC522_Service.handmaid_card_cycles, 1

	.hidden	card_serial             @ @card_serial
	.type	card_serial,%object
	.section	.bss.card_serial,"aw",%nobits
	.globl	card_serial
card_serial:
	.zero	5
	.size	card_serial, 5

	.hidden	sCard                   @ @sCard
	.type	sCard,%object
	.section	.bss.sCard,"aw",%nobits
	.globl	sCard
	.p2align	1
sCard:
	.zero	18
	.size	sCard, 18

	.hidden	Sector_0                @ @Sector_0
	.type	Sector_0,%object
	.section	.bss.Sector_0,"aw",%nobits
	.globl	Sector_0
	.p2align	2
Sector_0:
	.zero	64
	.size	Sector_0, 64

	.hidden	Sector_1                @ @Sector_1
	.type	Sector_1,%object
	.section	.bss.Sector_1,"aw",%nobits
	.globl	Sector_1
	.p2align	2
Sector_1:
	.zero	64
	.size	Sector_1, 64

	.hidden	Sector_2                @ @Sector_2
	.type	Sector_2,%object
	.section	.bss.Sector_2,"aw",%nobits
	.globl	Sector_2
	.p2align	2
Sector_2:
	.zero	64
	.size	Sector_2, 64

	.hidden	Sector_3                @ @Sector_3
	.type	Sector_3,%object
	.section	.bss.Sector_3,"aw",%nobits
	.globl	Sector_3
	.p2align	2
Sector_3:
	.zero	64
	.size	Sector_3, 64

	.hidden	Sector_4                @ @Sector_4
	.type	Sector_4,%object
	.section	.bss.Sector_4,"aw",%nobits
	.globl	Sector_4
	.p2align	2
Sector_4:
	.zero	64
	.size	Sector_4, 64

	.hidden	Sector_5                @ @Sector_5
	.type	Sector_5,%object
	.section	.bss.Sector_5,"aw",%nobits
	.globl	Sector_5
	.p2align	2
Sector_5:
	.zero	64
	.size	Sector_5, 64

	.hidden	Sector_6                @ @Sector_6
	.type	Sector_6,%object
	.section	.bss.Sector_6,"aw",%nobits
	.globl	Sector_6
	.p2align	2
Sector_6:
	.zero	64
	.size	Sector_6, 64

	.hidden	Sector_7                @ @Sector_7
	.type	Sector_7,%object
	.section	.bss.Sector_7,"aw",%nobits
	.globl	Sector_7
	.p2align	2
Sector_7:
	.zero	64
	.size	Sector_7, 64

	.hidden	rc522_rx_buff           @ @rc522_rx_buff
	.type	rc522_rx_buff,%object
	.section	.bss.rc522_rx_buff,"aw",%nobits
	.globl	rc522_rx_buff
rc522_rx_buff:
	.zero	16
	.size	rc522_rx_buff, 16

	.hidden	rc522_tx_buff           @ @rc522_tx_buff
	.type	rc522_tx_buff,%object
	.section	.bss.rc522_tx_buff,"aw",%nobits
	.globl	rc522_tx_buff
rc522_tx_buff:
	.zero	16
	.size	rc522_tx_buff, 16

	.hidden	system_id               @ @system_id
	.type	system_id,%object
	.section	.bss.system_id,"aw",%nobits
	.globl	system_id
system_id:
	.zero	2
	.size	system_id, 2

	.hidden	mifare_key_a            @ @mifare_key_a
	.type	mifare_key_a,%object
	.section	.bss.mifare_key_a,"aw",%nobits
	.globl	mifare_key_a
mifare_key_a:
	.zero	6
	.size	mifare_key_a, 6

	.hidden	mifare_key_b            @ @mifare_key_b
	.type	mifare_key_b,%object
	.section	.bss.mifare_key_b,"aw",%nobits
	.globl	mifare_key_b
mifare_key_b:
	.zero	6
	.size	mifare_key_b, 6

	.hidden	card_id                 @ @card_id
	.type	card_id,%object
	.section	.bss.card_id,"aw",%nobits
	.globl	card_id
	.p2align	2
card_id:
	.zero	5
	.size	card_id, 5

	.file	7 "../Drivers/STM32F1xx_HAL_Driver/Inc" "stm32f1xx_hal_rtc.h"
	.section	".note.GNU-stack","",%progbits
	.eabi_attribute	30, 1	@ Tag_ABI_optimization_goals
	.ARM_attribute	16, 1	@ Tag_AV_eba