	.text
	.syntax unified
	.eabi_attribute	67, "2.09"	@ Tag_conformance
	.cpu	cortex-m3
	.eabi_attribute	6, 10	@ Tag_CPU_arch
	.eabi_attribute	7, 77	@ Tag_CPU_arch_profile
	.eabi_attribute	8, 0	@ Tag_ARM_ISA_use
	.eabi_attribute	9, 2	@ Tag_THUMB_ISA_use
	.eabi_attribute	34, 1	@ Tag_CPU_unaligned_access
	.eabi_attribute	17, 1	@ Tag_ABI_PCS_GOT_use
	.eabi_attribute	20, 2	@ Tag_ABI_FP_denormal
	.eabi_attribute	21, 0	@ Tag_ABI_FP_exceptions
	.eabi_attribute	23, 1	@ Tag_ABI_FP_number_model
	.eabi_attribute	24, 1	@ Tag_ABI_align_needed
	.eabi_attribute	25, 1	@ Tag_ABI_align_preserved
	.eabi_attribute	38, 1	@ Tag_ABI_FP_16bit_format
	.eabi_attribute	18, 4	@ Tag_ABI_PCS_wchar_t
	.eabi_attribute	26, 2	@ Tag_ABI_enum_size
	.eabi_attribute	14, 0	@ Tag_ABI_PCS_R9_use
	.file	"rs485.c"
	.file	1 "../Inc" "rs485.h"
	.file	2 "../Src" "rs485.c"
	.file	3 "C:\\Keil\\ARM\\ARMCLANG\\Bin\\..\\include" "stdint.h"
	.file	4 "../Drivers/STM32F1xx_HAL_Driver/Inc" "stm32f1xx_hal_gpio.h"
	.file	5 "../Drivers/STM32F1xx_HAL_Driver/Inc" "stm32f1xx_hal_uart.h"
	.file	6 "../Drivers/STM32F1xx_HAL_Driver/Inc" "stm32f1xx_hal_def.h"
	.file	7 "../Inc" "signal.h"
	.file	8 "../Drivers/STM32F1xx_HAL_Driver/Inc" "stm32f1xx_hal_dma.h"
	.file	9 "../Drivers/CMSIS/Device/ST/STM32F1xx/Include" "stm32f103xb.h"
	.section	.text.RS485_Init,"ax",%progbits
	.hidden	RS485_Init              @ -- Begin function RS485_Init
	.globl	RS485_Init
	.p2align	2
	.type	RS485_Init,%function
	.code	16                      @ @RS485_Init
	.thumb_func
RS485_Init:
.Lfunc_begin0:
	.loc	2 101 0                 @ ../Src/rs485.c:101:0
	.fnstart
	.cfi_sections .debug_frame
	.cfi_startproc
@ %bb.0:
	.save	{r4, lr}
	push	{r4, lr}
	.cfi_def_cfa_offset 8
	.cfi_offset lr, -4
	.cfi_offset r4, -8
.Ltmp0:
	.loc	2 102 2 prologue_end    @ ../Src/rs485.c:102:2
	movw	r0, :lower16:rs485_buff
	movt	r0, :upper16:rs485_buff
	movs	r1, #128
	bl	ClearBuffer
	.loc	2 107 5                 @ ../Src/rs485.c:107:5
	movw	r0, #2048
	movt	r0, #16385
	movs	r4, #0
	mov.w	r1, #2048
	movs	r2, #0
	bl	HAL_GPIO_WritePin
	.loc	2 108 14                @ ../Src/rs485.c:108:14
	movw	r0, :lower16:packet_type
	movt	r0, :upper16:packet_type
	str	r4, [r0]
	.loc	2 109 15                @ ../Src/rs485.c:109:15
	movw	r0, :lower16:receive_pcnt
	movt	r0, :upper16:receive_pcnt
	str	r4, [r0]
	.loc	2 110 11                @ ../Src/rs485.c:110:11
	movw	r0, :lower16:rec_bcnt
	movt	r0, :upper16:rec_bcnt
	str	r4, [r0]
	.loc	2 111 16                @ ../Src/rs485.c:111:16
	movw	r0, :lower16:eTransferMode
	movt	r0, :upper16:eTransferMode
	str	r4, [r0]
.Ltmp1:
	.loc	2 113 13                @ ../Src/rs485.c:113:13
	movw	r0, :lower16:huart1
	movt	r0, :upper16:huart1
	ldr	r1, [r0, #64]
.Ltmp2:
	.loc	2 113 6 is_stmt 0       @ ../Src/rs485.c:113:6
	cmp	r1, #34
	bne	.LBB0_2
@ %bb.1:
.Ltmp3:
	.loc	2 115 3 is_stmt 1       @ ../Src/rs485.c:115:3
	ldr	r1, [r0]
	ldr	r2, [r1, #12]
	bic	r2, r2, #32
	str	r2, [r1, #12]
	.loc	2 116 18                @ ../Src/rs485.c:116:18
	movs	r1, #32
	str	r1, [r0, #64]
	.loc	2 117 17                @ ../Src/rs485.c:117:17
	str	r1, [r0, #60]
.Ltmp4:
.LBB0_2:
	.loc	2 120 5                 @ ../Src/rs485.c:120:5
	movw	r0, :lower16:huart1
	movt	r0, :upper16:huart1
	movw	r1, :lower16:rs485_buff
	movt	r1, :upper16:rs485_buff
	movs	r2, #128
	bl	HAL_UART_Receive_IT
.Ltmp5:
	.loc	2 120 5 is_stmt 0       @ ../Src/rs485.c:120:5
	cbz	r0, .LBB0_4
@ %bb.3:
.Ltmp6:
	.loc	2 126 3 is_stmt 1       @ ../Src/rs485.c:126:3
	movw	r0, :lower16:rs485_timer
	movt	r0, :upper16:rs485_timer
	movw	r1, #5678
	str	r1, [r0]
.Ltmp7:
	.loc	2 128 1                 @ ../Src/rs485.c:128:1
	pop	{r4, pc}
.LBB0_4:
.Ltmp8:
	.loc	2 122 13                @ ../Src/rs485.c:122:13
	movw	r0, :lower16:eComState
	movt	r0, :upper16:eComState
	movs	r1, #1
	str	r1, [r0]
.Ltmp9:
	.loc	2 128 1                 @ ../Src/rs485.c:128:1
	pop	{r4, pc}
.Ltmp10:
.Lfunc_end0:
	.size	RS485_Init, .Lfunc_end0-RS485_Init
	.cfi_endproc
	.cantunwind
	.fnend
                                        @ -- End function
	.section	.text.RS485_Service,"ax",%progbits
	.hidden	RS485_Service           @ -- Begin function RS485_Service
	.globl	RS485_Service
	.p2align	2
	.type	RS485_Service,%function
	.code	16                      @ @RS485_Service
	.thumb_func
RS485_Service:
.Lfunc_begin1:
	.loc	2 132 0                 @ ../Src/rs485.c:132:0
	.fnstart
	.cfi_startproc
@ %bb.0:
	.save	{r4, r5, r6, r7, r8, r9, r10, lr}
	push.w	{r4, r5, r6, r7, r8, r9, r10, lr}
	.cfi_def_cfa_offset 32
	.cfi_offset lr, -4
	.cfi_offset r10, -8
	.cfi_offset r9, -12
	.cfi_offset r8, -16
	.cfi_offset r7, -20
	.cfi_offset r6, -24
	.cfi_offset r5, -28
	.cfi_offset r4, -32
	.pad	#32
	sub	sp, #32
	.cfi_def_cfa_offset 64
.Ltmp11:
	.loc	2 150 8 prologue_end    @ ../Src/rs485.c:150:8
	movw	r10, :lower16:rs485_flags
	movt	r10, :upper16:rs485_flags
	ldr.w	r0, [r10]
.Ltmp12:
	.loc	2 150 8 is_stmt 0       @ ../Src/rs485.c:150:8
	tst.w	r0, #1
	beq	.LBB1_3
@ %bb.1:
.Ltmp13:
	.loc	2 152 13 is_stmt 1      @ ../Src/rs485.c:152:13
	bl	HAL_GetTick
	.loc	2 152 29 is_stmt 0      @ ../Src/rs485.c:152:29
	movw	r1, :lower16:RS485_Service.rs485_update_timeout_timer
	movt	r1, :upper16:RS485_Service.rs485_update_timeout_timer
	ldr	r1, [r1]
	.loc	2 152 27                @ ../Src/rs485.c:152:27
	subs	r0, r0, r1
.Ltmp14:
	.loc	2 152 12                @ ../Src/rs485.c:152:12
	movw	r1, #6000
	cmp	r0, r1
	blo	.LBB1_3
@ %bb.2:
.Ltmp15:
	.loc	2 154 13 is_stmt 1      @ ../Src/rs485.c:154:13
	ldr.w	r0, [r10]
	bic	r0, r0, #1
	str.w	r0, [r10]
	.loc	2 155 4                 @ ../Src/rs485.c:155:4
	movw	r0, :lower16:sys_status
	movt	r0, :upper16:sys_status
	ldrb	r1, [r0]
	.loc	2 156 4                 @ ../Src/rs485.c:156:4
	and	r1, r1, #243
	orr	r1, r1, #8
	strb	r1, [r0]
.Ltmp16:
.LBB1_3:
	.loc	2 160 5                 @ ../Src/rs485.c:160:5
	movw	r0, :lower16:eComState
	movt	r0, :upper16:eComState
	ldr	r0, [r0]
.Ltmp17:
	.loc	2 160 5 is_stmt 0       @ ../Src/rs485.c:160:5
	cmp	r0, #2
	bne.w	.LBB1_45
@ %bb.4:
.Ltmp18:
	.loc	2 162 6 is_stmt 1       @ ../Src/rs485.c:162:6
	movw	r0, :lower16:packet_type
	movt	r0, :upper16:packet_type
	ldr	r1, [r0]
.Ltmp19:
	.loc	2 162 6 is_stmt 0       @ ../Src/rs485.c:162:6
	cmp	r1, #1
	bne	.LBB1_8
@ %bb.5:
.Ltmp20:
	.loc	2 164 8 is_stmt 1       @ ../Src/rs485.c:164:8
	movw	r9, :lower16:rs485_buff
	movt	r9, :upper16:rs485_buff
	ldrb.w	r0, [r9]
	.loc	2 164 51 is_stmt 0      @ ../Src/rs485.c:164:51
	sub.w	r1, r0, #100
	uxtb	r1, r1
	cmp	r1, #23
	bhi.w	.LBB1_18
@ %bb.6:
.Ltmp21:
	.loc	2 167 36 is_stmt 1      @ ../Src/rs485.c:167:36
	movw	r1, :lower16:RS485_Service.next_packet_number
	movt	r1, :upper16:RS485_Service.next_packet_number
	movs	r6, #1
	str	r6, [r1]
	.loc	2 166 34                @ ../Src/rs485.c:166:34
	movw	r1, :lower16:receiving_errors
	movt	r1, :upper16:receiving_errors
	movs	r2, #0
	str	r2, [r1]
	.loc	2 168 31                @ ../Src/rs485.c:168:31
	movw	r5, :lower16:activ_command
	movt	r5, :upper16:activ_command
	strb	r0, [r5]
	.loc	2 169 40                @ ../Src/rs485.c:169:40
	ldrb.w	r0, [r9, #1]
	.loc	2 169 63 is_stmt 0      @ ../Src/rs485.c:169:63
	ldrb.w	r1, [r9, #2]
	.loc	2 169 61                @ ../Src/rs485.c:169:61
	orr.w	r0, r1, r0, lsl #8
	.loc	2 169 37                @ ../Src/rs485.c:169:37
	movw	r1, :lower16:RS485_Service.total_packet_number
	movt	r1, :upper16:RS485_Service.total_packet_number
	str	r0, [r1]
	.loc	2 170 103 is_stmt 1     @ ../Src/rs485.c:170:103
	ldr.w	r0, [r9, #7]
	rev	r0, r0
	.loc	2 170 29 is_stmt 0      @ ../Src/rs485.c:170:29
	movw	r1, :lower16:RS485_Service.crc_32_file
	movt	r1, :upper16:RS485_Service.crc_32_file
	str	r0, [r1]
	.loc	2 171 111 is_stmt 1     @ ../Src/rs485.c:171:111
	ldr.w	r0, [r9, #3]
	rev	r0, r0
	.loc	2 171 37 is_stmt 0      @ ../Src/rs485.c:171:37
	movw	r4, :lower16:RS485_Service.total_bytes_in_file
	movt	r4, :upper16:RS485_Service.total_bytes_in_file
	str	r0, [r4]
	.loc	2 172 46 is_stmt 1      @ ../Src/rs485.c:172:46
	bl	HAL_GetTick
	.loc	2 172 44 is_stmt 0      @ ../Src/rs485.c:172:44
	movw	r1, :lower16:RS485_Service.rs485_update_timeout_timer
	movt	r1, :upper16:RS485_Service.rs485_update_timeout_timer
	str	r0, [r1]
	.loc	2 173 17 is_stmt 1      @ ../Src/rs485.c:173:17
	movw	r1, :lower16:sys_status
	movt	r1, :upper16:sys_status
	ldrb	r2, [r1]
	and	r0, r2, #247
	strb	r0, [r1]
	.loc	2 174 17                @ ../Src/rs485.c:174:17
	ldr.w	r0, [r10]
	orr	r0, r0, #1
	str.w	r0, [r10]
.Ltmp22:
	.loc	2 176 21                @ ../Src/rs485.c:176:21
	ldrb	r0, [r5]
	.loc	2 176 63 is_stmt 0      @ ../Src/rs485.c:176:63
	sub.w	r3, r0, #119
	uxtb	r3, r3
	cmp	r3, #2
	bhs.w	.LBB1_23
@ %bb.7:
.Ltmp23:
	.loc	2 188 21 is_stmt 1      @ ../Src/rs485.c:188:21
	and	r2, r2, #119
	strb	r2, [r1]
	.loc	2 189 85                @ ../Src/rs485.c:189:85
	add.w	r1, r0, r0, lsl #1
	movs	r2, #0
	movt	r2, #65236
	add.w	r1, r2, r1, lsl #16
	.loc	2 189 39 is_stmt 0      @ ../Src/rs485.c:189:39
	movw	r2, :lower16:RS485_Service.flash_destination
	movt	r2, :upper16:RS485_Service.flash_destination
	str	r1, [r2]
	.loc	2 190 24 is_stmt 1      @ ../Src/rs485.c:190:24
	cmp	r0, #119
.Ltmp24:
	.loc	2 191 73                @ ../Src/rs485.c:191:73
	ite	ne
	movne.w	r0, #3932160
.Ltmp25:
	.loc	2 190 66                @ ../Src/rs485.c:190:66
	moveq.w	r0, #3735552
	b	.LBB1_24
.Ltmp26:
.LBB1_8:
	.loc	2 620 11                @ ../Src/rs485.c:620:11
	ldr	r0, [r0]
.Ltmp27:
	.loc	2 620 11 is_stmt 0      @ ../Src/rs485.c:620:11
	cmp	r0, #2
	bne.w	.LBB1_36
@ %bb.9:
.Ltmp28:
	.loc	2 622 75 is_stmt 1      @ ../Src/rs485.c:622:75
	movw	r8, :lower16:RS485_Service.flash_destination
	movt	r8, :upper16:RS485_Service.flash_destination
	ldr.w	r0, [r8]
	.loc	2 622 71 is_stmt 0      @ ../Src/rs485.c:622:71
	cmp	r0, #0
	beq.w	.LBB1_27
@ %bb.10:
	.loc	2 0 71                  @ ../Src/rs485.c:0:71
	movw	r6, :lower16:RS485_Service.next_packet_number
	movt	r6, :upper16:RS485_Service.next_packet_number
	ldr	r0, [r6]
	movw	r4, :lower16:rs485_buff
	movt	r4, :upper16:rs485_buff
	ldrb	r1, [r4]
	ldrb	r2, [r4, #1]
	orr.w	r1, r2, r1, lsl #8
	.loc	2 622 71                @ ../Src/rs485.c:622:71
	cmp	r0, r1
	bne.w	.LBB1_27
@ %bb.11:
.Ltmp29:
	.loc	2 624 8 is_stmt 1       @ ../Src/rs485.c:624:8
	cmp	r0, #1
.Ltmp30:
	.loc	2 624 34 is_stmt 0      @ ../Src/rs485.c:624:34
	it	eq
	bleq	CRC_ResetDR
.Ltmp31:
	.loc	2 625 25 is_stmt 1      @ ../Src/rs485.c:625:25
	ldr.w	r0, [r8]
	.loc	2 625 61 is_stmt 0      @ ../Src/rs485.c:625:61
	movw	r5, :lower16:rs485_packet_data_lenght
	movt	r5, :upper16:rs485_packet_data_lenght
	ldr	r1, [r5]
	.loc	2 625 5                 @ ../Src/rs485.c:625:5
	adds	r4, #2
	.loc	2 625 60                @ ../Src/rs485.c:625:60
	subs	r1, #2
	.loc	2 625 5                 @ ../Src/rs485.c:625:5
	uxth	r2, r1
	mov	r1, r4
	bl	SPI_FLASH_WritePage
.Ltmp32:
	.loc	2 626 8 is_stmt 1       @ ../Src/rs485.c:626:8
	mov.w	r0, #500
	bl	SPI_FLASH_WaitReadyStatus
.Ltmp33:
	.loc	2 626 8 is_stmt 0       @ ../Src/rs485.c:626:8
	cmp	r0, #0
.Ltmp34:
	.loc	2 626 60                @ ../Src/rs485.c:626:60
	it	eq
	bleq	Error_Handler
.Ltmp35:
	.loc	2 627 23 is_stmt 1      @ ../Src/rs485.c:627:23
	ldr.w	r0, [r8]
	.loc	2 627 27 is_stmt 0      @ ../Src/rs485.c:627:27
	ldr	r1, [r5]
	.loc	2 627 52                @ ../Src/rs485.c:627:52
	add	r0, r1
	.loc	2 627 23                @ ../Src/rs485.c:627:23
	subs	r0, #2
	str.w	r0, [r8]
.Ltmp36:
	.loc	2 628 9 is_stmt 1       @ ../Src/rs485.c:628:9
	movw	r0, :lower16:eTransferMode
	movt	r0, :upper16:eTransferMode
	ldr	r0, [r0]
.Ltmp37:
	.loc	2 628 9 is_stmt 0       @ ../Src/rs485.c:628:9
	cmp	r0, #1
	bne	.LBB1_13
@ %bb.12:
.Ltmp38:
	.loc	2 628 40                @ ../Src/rs485.c:628:40
	movs	r0, #6
	bl	Serial_PutByte
.Ltmp39:
.LBB1_13:
	.loc	2 629 58 is_stmt 1      @ ../Src/rs485.c:629:58
	ldr	r0, [r5]
	.loc	2 629 83 is_stmt 0      @ ../Src/rs485.c:629:83
	subs	r1, r0, #2
	.loc	2 629 25                @ ../Src/rs485.c:629:25
	mov	r0, r4
	bl	CRC_Calculate8
	.loc	2 629 23                @ ../Src/rs485.c:629:23
	movw	r4, :lower16:RS485_Service.crc_32_calculated
	movt	r4, :upper16:RS485_Service.crc_32_calculated
	str	r0, [r4]
	.loc	2 630 46 is_stmt 1      @ ../Src/rs485.c:630:46
	bl	HAL_GetTick
	.loc	2 630 44 is_stmt 0      @ ../Src/rs485.c:630:44
	movw	r1, :lower16:RS485_Service.rs485_update_timeout_timer
	movt	r1, :upper16:RS485_Service.rs485_update_timeout_timer
	str	r0, [r1]
.Ltmp40:
	.loc	2 632 8 is_stmt 1       @ ../Src/rs485.c:632:8
	ldr	r0, [r6]
	.loc	2 632 30 is_stmt 0      @ ../Src/rs485.c:632:30
	movw	r1, :lower16:RS485_Service.total_packet_number
	movt	r1, :upper16:RS485_Service.total_packet_number
	ldr	r1, [r1]
.Ltmp41:
	.loc	2 632 8                 @ ../Src/rs485.c:632:8
	cmp	r0, r1
	bne.w	.LBB1_29
@ %bb.14:
.Ltmp42:
	.loc	2 634 30 is_stmt 1      @ ../Src/rs485.c:634:30
	movw	r0, :lower16:RS485_Service.crc_32_file
	movt	r0, :upper16:RS485_Service.crc_32_file
	ldr	r0, [r0]
	.loc	2 634 9 is_stmt 0       @ ../Src/rs485.c:634:9
	ldr	r1, [r4]
.Ltmp43:
	.loc	2 634 9                 @ ../Src/rs485.c:634:9
	cmp	r1, r0
	bne.w	.LBB1_30
@ %bb.15:
.Ltmp44:
	.loc	2 636 10 is_stmt 1      @ ../Src/rs485.c:636:10
	movw	r0, :lower16:activ_command
	movt	r0, :upper16:activ_command
	ldrb	r0, [r0]
.Ltmp45:
	.loc	2 636 10 is_stmt 0      @ ../Src/rs485.c:636:10
	cmp	r0, #119
	bne.w	.LBB1_31
@ %bb.16:
.Ltmp46:
	.loc	2 638 19 is_stmt 1      @ ../Src/rs485.c:638:19
	mov.w	r0, #8448
	strh.w	r0, [sp, #4]
	.loc	2 640 22                @ ../Src/rs485.c:640:22
	movw	r0, :lower16:RS485_Service.total_bytes_in_file
	movt	r0, :upper16:RS485_Service.total_bytes_in_file
	ldr	r0, [r0]
	.loc	2 643 19                @ ../Src/rs485.c:643:19
	strb.w	r0, [sp, #9]
	.loc	2 640 42                @ ../Src/rs485.c:640:42
	lsrs	r1, r0, #24
	.loc	2 640 19 is_stmt 0      @ ../Src/rs485.c:640:19
	strb.w	r1, [sp, #6]
	.loc	2 641 42 is_stmt 1      @ ../Src/rs485.c:641:42
	lsrs	r1, r0, #16
	.loc	2 641 19 is_stmt 0      @ ../Src/rs485.c:641:19
	strb.w	r1, [sp, #7]
	.loc	2 642 42 is_stmt 1      @ ../Src/rs485.c:642:42
	lsrs	r0, r0, #8
	.loc	2 642 19 is_stmt 0      @ ../Src/rs485.c:642:19
	strb.w	r0, [sp, #8]
	movs	r0, #5
.Ltmp47:
	.loc	2 644 12 is_stmt 1      @ ../Src/rs485.c:644:12
	str	r0, [sp]
	movw	r0, :lower16:hi2c1
	movt	r0, :upper16:hi2c1
	add	r2, sp, #4
	movs	r1, #160
	movs	r3, #6
	bl	HAL_I2C_Master_Transmit
.Ltmp48:
	.loc	2 644 12 is_stmt 0      @ ../Src/rs485.c:644:12
	cmp	r0, #0
.Ltmp49:
	.loc	2 644 98                @ ../Src/rs485.c:644:98
	it	ne
	blne	Error_Handler
.Ltmp50:
	.loc	2 645 12 is_stmt 1      @ ../Src/rs485.c:645:12
	movw	r0, :lower16:hi2c1
	movt	r0, :upper16:hi2c1
	movs	r1, #161
	movs	r2, #100
	movs	r3, #15
	bl	HAL_I2C_IsDeviceReady
.Ltmp51:
	.loc	2 645 12 is_stmt 0      @ ../Src/rs485.c:645:12
	cmp	r0, #0
	beq.w	.LBB1_33
@ %bb.17:
.Ltmp52:
	.loc	2 645 101               @ ../Src/rs485.c:645:101
	bl	Error_Handler
	b	.LBB1_33
.Ltmp53:
.LBB1_18:
	.loc	2 203 5 is_stmt 1       @ ../Src/rs485.c:203:5
	subs	r0, #133
	cmp	r0, #89
	bhi.w	.LBB1_46
@ %bb.19:
	.loc	2 0 5 is_stmt 0         @ ../Src/rs485.c:0:5
.LCPI1_0:
	tbh	[pc, r0, lsl #1]
@ %bb.20:
.LJTI1_0:
	.short	(.LBB1_21-(.LCPI1_0+4))/2
	.short	(.LBB1_46-(.LCPI1_0+4))/2
	.short	(.LBB1_46-(.LCPI1_0+4))/2
	.short	(.LBB1_46-(.LCPI1_0+4))/2
	.short	(.LBB1_46-(.LCPI1_0+4))/2
	.short	(.LBB1_46-(.LCPI1_0+4))/2
	.short	(.LBB1_46-(.LCPI1_0+4))/2
	.short	(.LBB1_46-(.LCPI1_0+4))/2
	.short	(.LBB1_46-(.LCPI1_0+4))/2
	.short	(.LBB1_46-(.LCPI1_0+4))/2
	.short	(.LBB1_46-(.LCPI1_0+4))/2
	.short	(.LBB1_46-(.LCPI1_0+4))/2
	.short	(.LBB1_46-(.LCPI1_0+4))/2
	.short	(.LBB1_46-(.LCPI1_0+4))/2
	.short	(.LBB1_46-(.LCPI1_0+4))/2
	.short	(.LBB1_46-(.LCPI1_0+4))/2
	.short	(.LBB1_46-(.LCPI1_0+4))/2
	.short	(.LBB1_46-(.LCPI1_0+4))/2
	.short	(.LBB1_46-(.LCPI1_0+4))/2
	.short	(.LBB1_46-(.LCPI1_0+4))/2
	.short	(.LBB1_46-(.LCPI1_0+4))/2
	.short	(.LBB1_46-(.LCPI1_0+4))/2
	.short	(.LBB1_46-(.LCPI1_0+4))/2
	.short	(.LBB1_46-(.LCPI1_0+4))/2
	.short	(.LBB1_46-(.LCPI1_0+4))/2
	.short	(.LBB1_46-(.LCPI1_0+4))/2
	.short	(.LBB1_46-(.LCPI1_0+4))/2
	.short	(.LBB1_47-(.LCPI1_0+4))/2
	.short	(.LBB1_50-(.LCPI1_0+4))/2
	.short	(.LBB1_46-(.LCPI1_0+4))/2
	.short	(.LBB1_36-(.LCPI1_0+4))/2
	.short	(.LBB1_46-(.LCPI1_0+4))/2
	.short	(.LBB1_46-(.LCPI1_0+4))/2
	.short	(.LBB1_46-(.LCPI1_0+4))/2
	.short	(.LBB1_46-(.LCPI1_0+4))/2
	.short	(.LBB1_46-(.LCPI1_0+4))/2
	.short	(.LBB1_46-(.LCPI1_0+4))/2
	.short	(.LBB1_46-(.LCPI1_0+4))/2
	.short	(.LBB1_46-(.LCPI1_0+4))/2
	.short	(.LBB1_46-(.LCPI1_0+4))/2
	.short	(.LBB1_46-(.LCPI1_0+4))/2
	.short	(.LBB1_46-(.LCPI1_0+4))/2
	.short	(.LBB1_46-(.LCPI1_0+4))/2
	.short	(.LBB1_46-(.LCPI1_0+4))/2
	.short	(.LBB1_46-(.LCPI1_0+4))/2
	.short	(.LBB1_46-(.LCPI1_0+4))/2
	.short	(.LBB1_46-(.LCPI1_0+4))/2
	.short	(.LBB1_46-(.LCPI1_0+4))/2
	.short	(.LBB1_46-(.LCPI1_0+4))/2
	.short	(.LBB1_46-(.LCPI1_0+4))/2
	.short	(.LBB1_46-(.LCPI1_0+4))/2
	.short	(.LBB1_46-(.LCPI1_0+4))/2
	.short	(.LBB1_46-(.LCPI1_0+4))/2
	.short	(.LBB1_46-(.LCPI1_0+4))/2
	.short	(.LBB1_46-(.LCPI1_0+4))/2
	.short	(.LBB1_79-(.LCPI1_0+4))/2
	.short	(.LBB1_46-(.LCPI1_0+4))/2
	.short	(.LBB1_46-(.LCPI1_0+4))/2
	.short	(.LBB1_46-(.LCPI1_0+4))/2
	.short	(.LBB1_55-(.LCPI1_0+4))/2
	.short	(.LBB1_46-(.LCPI1_0+4))/2
	.short	(.LBB1_58-(.LCPI1_0+4))/2
	.short	(.LBB1_46-(.LCPI1_0+4))/2
	.short	(.LBB1_46-(.LCPI1_0+4))/2
	.short	(.LBB1_46-(.LCPI1_0+4))/2
	.short	(.LBB1_46-(.LCPI1_0+4))/2
	.short	(.LBB1_46-(.LCPI1_0+4))/2
	.short	(.LBB1_46-(.LCPI1_0+4))/2
	.short	(.LBB1_46-(.LCPI1_0+4))/2
	.short	(.LBB1_46-(.LCPI1_0+4))/2
	.short	(.LBB1_46-(.LCPI1_0+4))/2
	.short	(.LBB1_46-(.LCPI1_0+4))/2
	.short	(.LBB1_46-(.LCPI1_0+4))/2
	.short	(.LBB1_46-(.LCPI1_0+4))/2
	.short	(.LBB1_46-(.LCPI1_0+4))/2
	.short	(.LBB1_60-(.LCPI1_0+4))/2
	.short	(.LBB1_82-(.LCPI1_0+4))/2
	.short	(.LBB1_84-(.LCPI1_0+4))/2
	.short	(.LBB1_62-(.LCPI1_0+4))/2
	.short	(.LBB1_64-(.LCPI1_0+4))/2
	.short	(.LBB1_67-(.LCPI1_0+4))/2
	.short	(.LBB1_69-(.LCPI1_0+4))/2
	.short	(.LBB1_71-(.LCPI1_0+4))/2
	.short	(.LBB1_73-(.LCPI1_0+4))/2
	.short	(.LBB1_93-(.LCPI1_0+4))/2
	.short	(.LBB1_95-(.LCPI1_0+4))/2
	.short	(.LBB1_75-(.LCPI1_0+4))/2
	.short	(.LBB1_46-(.LCPI1_0+4))/2
	.short	(.LBB1_46-(.LCPI1_0+4))/2
	.short	(.LBB1_77-(.LCPI1_0+4))/2
	.p2align	1
.LBB1_21:
.Ltmp54:
	.loc	2 256 10 is_stmt 1      @ ../Src/rs485.c:256:10
	movw	r0, :lower16:eTransferMode
	movt	r0, :upper16:eTransferMode
	ldr	r0, [r0]
.Ltmp55:
	.loc	2 256 10 is_stmt 0      @ ../Src/rs485.c:256:10
	cmp	r0, #1
	bne.w	.LBB1_36
@ %bb.22:
.Ltmp56:
	.loc	2 258 22 is_stmt 1      @ ../Src/rs485.c:258:22
	movw	r0, #34049
	strh.w	r0, [r9, #5]
	b	.LBB1_26
.Ltmp57:
.LBB1_23:
	.loc	2 179 39                @ ../Src/rs485.c:179:39
	movw	r3, :lower16:RS485_Service.flash_destination
	movt	r3, :upper16:RS485_Service.flash_destination
	mov.w	r7, #4718592
	str	r7, [r3]
	movw	r3, :lower16:RS485_Service.post_process
	movt	r3, :upper16:RS485_Service.post_process
	strb	r6, [r3]
	movw	r3, :lower16:RS485_Service.file_copy_source_address
	movt	r3, :upper16:RS485_Service.file_copy_source_address
	strb	r6, [r3]
	.loc	2 178 21                @ ../Src/rs485.c:178:21
	and	r2, r2, #183
	strb	r2, [r1]
	.loc	2 183 38                @ ../Src/rs485.c:183:38
	ldr	r1, [r4]
	.loc	2 183 36 is_stmt 0      @ ../Src/rs485.c:183:36
	movw	r2, :lower16:RS485_Service.file_copy_size
	movt	r2, :upper16:RS485_Service.file_copy_size
	str	r1, [r2]
	.loc	2 182 97 is_stmt 1      @ ../Src/rs485.c:182:97
	add.w	r0, r0, r0, lsl #1
	movs	r1, #0
	movt	r1, #65236
	add.w	r0, r1, r0, lsl #16
	.loc	2 182 51 is_stmt 0      @ ../Src/rs485.c:182:51
	movw	r1, :lower16:RS485_Service.file_copy_destination_address
	movt	r1, :upper16:RS485_Service.file_copy_destination_address
	str	r0, [r1]
	.loc	2 184 21 is_stmt 1      @ ../Src/rs485.c:184:21
	mov.w	r0, #4718592
.Ltmp58:
.LBB1_24:
	.loc	2 0 21 is_stmt 0        @ ../Src/rs485.c:0:21
	movs	r1, #3
	bl	FormatFileStorage
.Ltmp59:
	.loc	2 194 20 is_stmt 1      @ ../Src/rs485.c:194:20
	movw	r0, :lower16:eTransferMode
	movt	r0, :upper16:eTransferMode
	ldr	r0, [r0]
.Ltmp60:
	.loc	2 194 20 is_stmt 0      @ ../Src/rs485.c:194:20
	cmp	r0, #1
	bne	.LBB1_36
@ %bb.25:
.Ltmp61:
	.loc	2 196 35 is_stmt 1      @ ../Src/rs485.c:196:35
	movs	r0, #1
	strb.w	r0, [r9, #5]
	.loc	2 197 37                @ ../Src/rs485.c:197:37
	ldrb	r0, [r5]
	.loc	2 197 35 is_stmt 0      @ ../Src/rs485.c:197:35
	strb.w	r0, [r9, #6]
.Ltmp62:
.LBB1_26:
	.loc	2 0 35                  @ ../Src/rs485.c:0:35
	ldr.w	r0, [r10]
	orr	r0, r0, #2
	b	.LBB1_35
.LBB1_27:
.Ltmp63:
	.loc	2 667 12 is_stmt 1      @ ../Src/rs485.c:667:12
	movw	r0, :lower16:eTransferMode
	movt	r0, :upper16:eTransferMode
	ldr	r0, [r0]
.Ltmp64:
	.loc	2 667 12 is_stmt 0      @ ../Src/rs485.c:667:12
	cmp	r0, #1
	bne	.LBB1_36
@ %bb.28:
.Ltmp65:
	.loc	2 667 43                @ ../Src/rs485.c:667:43
	movs	r0, #21
	bl	Serial_PutByte
	b	.LBB1_36
.Ltmp66:
.LBB1_29:
	.loc	2 665 10 is_stmt 1      @ ../Src/rs485.c:665:10
	adds	r0, #1
	str	r0, [r6]
	b	.LBB1_36
.LBB1_30:
	.loc	2 0 10 is_stmt 0        @ ../Src/rs485.c:0:10
	movs	r0, #8
	b	.LBB1_34
.LBB1_31:
	movw	r0, :lower16:RS485_Service.post_process
	movt	r0, :upper16:RS485_Service.post_process
	ldrb	r0, [r0]
.Ltmp67:
	.loc	2 647 15 is_stmt 1      @ ../Src/rs485.c:647:15
	cmp	r0, #1
	bne	.LBB1_33
@ %bb.32:
.Ltmp68:
	.loc	2 649 74                @ ../Src/rs485.c:649:74
	movw	r0, :lower16:RS485_Service.file_copy_size
	movt	r0, :upper16:RS485_Service.file_copy_size
	ldr	r2, [r0]
	.loc	2 649 43 is_stmt 0      @ ../Src/rs485.c:649:43
	movw	r0, :lower16:RS485_Service.file_copy_destination_address
	movt	r0, :upper16:RS485_Service.file_copy_destination_address
	ldr	r1, [r0]
	movw	r0, :lower16:RS485_Service.file_copy_source_address
	movt	r0, :upper16:RS485_Service.file_copy_source_address
	ldrb	r0, [r0]
	cmp	r0, #0
	it	ne
	movne.w	r0, #4718592
	.loc	2 649 8                 @ ../Src/rs485.c:649:8
	bl	CopyFile
	.loc	2 650 8 is_stmt 1       @ ../Src/rs485.c:650:8
	movw	r0, :lower16:sys_status
	movt	r0, :upper16:sys_status
	ldrb	r1, [r0]
	orr	r1, r1, #16
	strb	r1, [r0]
.Ltmp69:
.LBB1_33:
	.loc	2 0 8 is_stmt 0         @ ../Src/rs485.c:0:8
	movs	r0, #4
.LBB1_34:
	movw	r1, :lower16:RS485_Service.post_process
	movt	r1, :upper16:RS485_Service.post_process
	movs	r2, #0
	strb	r2, [r1]
	.loc	2 661 20 is_stmt 1      @ ../Src/rs485.c:661:20
	movw	r1, :lower16:activ_command
	movt	r1, :upper16:activ_command
	strb	r2, [r1]
	.loc	2 662 24                @ ../Src/rs485.c:662:24
	str.w	r2, [r8]
	movw	r1, :lower16:sys_status
	movt	r1, :upper16:sys_status
	ldrb	r2, [r1]
	orrs	r0, r2
	strb	r0, [r1]
	.loc	2 663 6                 @ ../Src/rs485.c:663:6
	ldr.w	r0, [r10]
	bic	r0, r0, #1
.Ltmp70:
.LBB1_35:
	.loc	2 0 6 is_stmt 0         @ ../Src/rs485.c:0:6
	str.w	r0, [r10]
.LBB1_36:
.Ltmp71:
	.loc	2 670 6 is_stmt 1       @ ../Src/rs485.c:670:6
	ldr.w	r0, [r10]
.Ltmp72:
	.loc	2 670 6 is_stmt 0       @ ../Src/rs485.c:670:6
	tst.w	r0, #2
	beq	.LBB1_44
@ %bb.37:
.Ltmp73:
	.loc	2 672 18 is_stmt 1      @ ../Src/rs485.c:672:18
	movw	r4, :lower16:rs485_buff
	movt	r4, :upper16:rs485_buff
	movs	r0, #6
	strb	r0, [r4]
	.loc	2 675 20                @ ../Src/rs485.c:675:20
	movw	r0, :lower16:rs485_interface_address
	movt	r0, :upper16:rs485_interface_address
	ldrh	r0, [r0]
	.loc	2 675 18 is_stmt 0      @ ../Src/rs485.c:675:18
	strh.w	r0, [r4, #3]
	.loc	2 673 20 is_stmt 1      @ ../Src/rs485.c:673:20
	movw	r0, :lower16:rs485_sender_address
	movt	r0, :upper16:rs485_sender_address
	ldr	r2, [r0]
	.loc	2 674 20                @ ../Src/rs485.c:674:20
	ldr	r3, [r0]
	.loc	2 677 26                @ ../Src/rs485.c:677:26
	movw	r0, :lower16:rs485_packet_checksum
	movt	r0, :upper16:rs485_packet_checksum
	movs	r1, #0
	str	r1, [r0]
	.loc	2 673 41                @ ../Src/rs485.c:673:41
	lsrs	r2, r2, #8
	.loc	2 673 18 is_stmt 0      @ ../Src/rs485.c:673:18
	strb	r2, [r4, #1]
	.loc	2 674 18 is_stmt 1      @ ../Src/rs485.c:674:18
	strb	r3, [r4, #2]
.Ltmp74:
	@DEBUG_VALUE: i <- 6
	.loc	2 679 29                @ ../Src/rs485.c:679:29
	ldrb	r2, [r4, #5]
.Ltmp75:
	.loc	2 679 4 is_stmt 0       @ ../Src/rs485.c:679:4
	cbz	r2, .LBB1_40
@ %bb.38:
	.loc	2 0 4                   @ ../Src/rs485.c:0:4
	ldrb	r1, [r4, #5]
	adds	r2, r1, #6
	movs	r3, #6
	movs	r6, #6
	.p2align	2
.LBB1_39:                               @ =>This Inner Loop Header: Depth=1
.Ltmp76:
	.loc	2 681 30 is_stmt 1      @ ../Src/rs485.c:681:30
	ldrb	r3, [r4, r3]
	.loc	2 681 27 is_stmt 0      @ ../Src/rs485.c:681:27
	ldr	r7, [r0]
	add	r3, r7
	str	r3, [r0]
.Ltmp77:
	.loc	2 679 51 is_stmt 1      @ ../Src/rs485.c:679:51
	adds	r6, #1
	.loc	2 679 24 is_stmt 0      @ ../Src/rs485.c:679:24
	uxtb	r3, r6
.Ltmp78:
	.loc	2 679 4                 @ ../Src/rs485.c:679:4
	cmp	r2, r3
	bhi	.LBB1_39
	b	.LBB1_41
.Ltmp79:
.LBB1_40:
	.loc	2 0 4                   @ ../Src/rs485.c:0:4
	adds	r2, #6
.LBB1_41:
	.loc	2 683 37 is_stmt 1      @ ../Src/rs485.c:683:37
	ldr	r3, [r0]
	.loc	2 683 59 is_stmt 0      @ ../Src/rs485.c:683:59
	lsrs	r3, r3, #8
	.loc	2 683 35                @ ../Src/rs485.c:683:35
	strb	r3, [r4, r2]
	.loc	2 683 4                 @ ../Src/rs485.c:683:4
	add	r1, r4
	.loc	2 684 37 is_stmt 1      @ ../Src/rs485.c:684:37
	ldr	r0, [r0]
	.loc	2 685 35                @ ../Src/rs485.c:685:35
	movs	r2, #4
	strb	r2, [r1, #8]
	.loc	2 684 35                @ ../Src/rs485.c:684:35
	strb	r0, [r1, #7]
	movw	r5, #2048
	movt	r5, #16385
	.loc	2 686 4                 @ ../Src/rs485.c:686:4
	mov	r0, r5
	mov.w	r1, #2048
	movs	r2, #1
	bl	HAL_GPIO_WritePin
	.loc	2 687 44                @ ../Src/rs485.c:687:44
	ldrb	r0, [r4, #5]
	.loc	2 687 58 is_stmt 0      @ ../Src/rs485.c:687:58
	add.w	r2, r0, #9
	.loc	2 687 4                 @ ../Src/rs485.c:687:4
	movw	r6, :lower16:huart1
	movt	r6, :upper16:huart1
	mov	r0, r6
	mov	r1, r4
	movs	r3, #123
	bl	HAL_UART_Transmit
	.p2align	2
.LBB1_42:                               @ =>This Inner Loop Header: Depth=1
	.loc	2 688 17 is_stmt 1      @ ../Src/rs485.c:688:17
	ldr	r0, [r6, #60]
	.loc	2 688 4 is_stmt 0       @ ../Src/rs485.c:688:4
	cmp	r0, #32
	bne	.LBB1_42
@ %bb.43:
	.loc	2 689 4 is_stmt 1       @ ../Src/rs485.c:689:4
	ldr.w	r0, [r10]
	bic	r0, r0, #2
	str.w	r0, [r10]
	.loc	2 690 4                 @ ../Src/rs485.c:690:4
	mov	r0, r5
	mov.w	r1, #2048
	movs	r2, #0
	bl	HAL_GPIO_WritePin
.Ltmp80:
.LBB1_44:
	.loc	2 693 3                 @ ../Src/rs485.c:693:3
	bl	RS485_Init
.Ltmp81:
.LBB1_45:
	.loc	2 695 1                 @ ../Src/rs485.c:695:1
	add	sp, #32
	pop.w	{r4, r5, r6, r7, r8, r9, r10, pc}
.LBB1_46:
.Ltmp82:
	.loc	2 614 7                 @ ../Src/rs485.c:614:7
	ldr.w	r0, [r10]
	bic	r0, r0, #2
	b	.LBB1_35
.Ltmp83:
.LBB1_47:
	.loc	2 288 10                @ ../Src/rs485.c:288:10
	movw	r0, :lower16:eTransferMode
	movt	r0, :upper16:eTransferMode
	ldr	r0, [r0]
.Ltmp84:
	.loc	2 288 10 is_stmt 0      @ ../Src/rs485.c:288:10
	cmp	r0, #1
	bne	.LBB1_36
@ %bb.48:
.Ltmp85:
	.loc	2 290 22 is_stmt 1      @ ../Src/rs485.c:290:22
	movw	r0, #40969
	strh.w	r0, [r9, #5]
	movw	r0, :lower16:sys_status
	movt	r0, :upper16:sys_status
	ldrb	r0, [r0]
	movs	r1, #0
	movs	r2, #1
.LBB1_49:                               @ =>This Inner Loop Header: Depth=1
.Ltmp86:
	.loc	2 295 28                @ ../Src/rs485.c:295:28
	lsl.w	r3, r2, r1
.Ltmp87:
	.loc	2 295 12 is_stmt 0      @ ../Src/rs485.c:295:12
	tst	r3, r0
	mov.w	r3, #49
	it	eq
	moveq	r3, #48
	add.w	r7, r9, r1
	strb	r3, [r7, #7]
.Ltmp88:
	.loc	2 293 41 is_stmt 1      @ ../Src/rs485.c:293:41
	adds	r1, #1
.Ltmp89:
	.loc	2 293 8 is_stmt 0       @ ../Src/rs485.c:293:8
	cmp	r1, #8
	bne	.LBB1_49
	b	.LBB1_26
.Ltmp90:
.LBB1_50:
	.loc	2 459 10 is_stmt 1      @ ../Src/rs485.c:459:10
	movw	r0, :lower16:eTransferMode
	movt	r0, :upper16:eTransferMode
	ldr	r0, [r0]
.Ltmp91:
	.loc	2 459 10 is_stmt 0      @ ../Src/rs485.c:459:10
	cmp	r0, #1
	bne.w	.LBB1_36
@ %bb.51:
.Ltmp92:
	.loc	2 461 22 is_stmt 1      @ ../Src/rs485.c:461:22
	movw	r0, #41266
	strh.w	r0, [r9, #5]
	.loc	2 465 22                @ ../Src/rs485.c:465:22
	movw	r0, #12376
	movt	r0, #12336
	str.w	r0, [r9, #8]
	.loc	2 469 44                @ ../Src/rs485.c:469:44
	movw	r0, #17220
	strh.w	r0, [r9, #12]
	.loc	2 472 44                @ ../Src/rs485.c:472:44
	mov.w	r0, #808464432
	str.w	r0, [r9, #14]
	.loc	2 463 24                @ ../Src/rs485.c:463:24
	movw	r0, :lower16:ROOM_Status
	movt	r0, :upper16:ROOM_Status
	ldrb	r0, [r0]
	add.w	r1, r0, #48
	uxtb	r2, r1
	.loc	2 464 11                @ ../Src/rs485.c:464:11
	cmp	r2, #57
	it	hi
	addhi.w	r1, r0, #55
	strb.w	r1, [r9, #7]
	movs	r0, #0
	movs	r1, #1
	movw	r2, :lower16:din_0_7
	movt	r2, :upper16:din_0_7
	movw	r3, :lower16:dout_0_7
	movt	r3, :upper16:dout_0_7
.LBB1_52:                               @ =>This Inner Loop Header: Depth=1
.Ltmp93:
	.loc	2 478 26                @ ../Src/rs485.c:478:26
	lsl.w	r7, r1, r0
	.loc	2 478 12 is_stmt 0      @ ../Src/rs485.c:478:12
	ldrb	r6, [r2]
.Ltmp94:
	.loc	2 478 12                @ ../Src/rs485.c:478:12
	tst	r7, r6
	mov.w	r6, #49
	it	eq
	moveq	r6, #48
	add.w	r5, r9, r0
	strb	r6, [r5, #18]
.Ltmp95:
	.loc	2 480 12 is_stmt 1      @ ../Src/rs485.c:480:12
	ldrb	r6, [r3]
.Ltmp96:
	.loc	2 480 12 is_stmt 0      @ ../Src/rs485.c:480:12
	tst	r7, r6
	mov.w	r7, #49
	it	eq
	moveq	r7, #48
	strb	r7, [r5, #26]
.Ltmp97:
	.loc	2 476 41 is_stmt 1      @ ../Src/rs485.c:476:41
	adds	r0, #1
.Ltmp98:
	.loc	2 476 8 is_stmt 0       @ ../Src/rs485.c:476:8
	cmp	r0, #8
	bne	.LBB1_52
.Ltmp99:
@ %bb.53:
	.loc	2 486 28 is_stmt 1      @ ../Src/rs485.c:486:28
	movw	r0, :lower16:sys_info_fw
	movt	r0, :upper16:sys_info_fw
	ldr	r1, [r0, #4]
	ldr	r0, [r0, #8]
	str.w	r0, [r9, #38]
	str.w	r1, [r9, #34]
.Ltmp100:
	.loc	2 489 19                @ ../Src/rs485.c:489:19
	mov.w	r0, #14592
	strh.w	r0, [sp, #4]
.Ltmp101:
	.loc	2 491 12                @ ../Src/rs485.c:491:12
	movs	r4, #5
	str	r4, [sp]
	movw	r0, :lower16:hi2c1
	movt	r0, :upper16:hi2c1
	add	r2, sp, #4
	movs	r1, #160
	movs	r3, #2
	bl	HAL_I2C_Master_Transmit
.Ltmp102:
	.loc	2 491 12 is_stmt 0      @ ../Src/rs485.c:491:12
	cmp	r0, #0
.Ltmp103:
	.loc	2 491 98                @ ../Src/rs485.c:491:98
	it	ne
	blne	Error_Handler
.Ltmp104:
	.loc	2 492 12 is_stmt 1      @ ../Src/rs485.c:492:12
	str	r4, [sp]
	add.w	r2, r9, #43
	movw	r0, :lower16:hi2c1
	movt	r0, :upper16:hi2c1
	movs	r1, #161
	movs	r3, #1
	bl	HAL_I2C_Master_Receive
.Ltmp105:
	.loc	2 492 12 is_stmt 0      @ ../Src/rs485.c:492:12
	cmp	r0, #0
.Ltmp106:
	.loc	2 492 104               @ ../Src/rs485.c:492:104
	it	ne
	blne	Error_Handler
.Ltmp107:
	.loc	2 493 11 is_stmt 1      @ ../Src/rs485.c:493:11
	ldrb.w	r0, [r9, #43]
.Ltmp108:
	.loc	2 493 11 is_stmt 0      @ ../Src/rs485.c:493:11
	cmp	r0, #100
	blo.w	.LBB1_97
@ %bb.54:
	.loc	2 494 23 is_stmt 1      @ ../Src/rs485.c:494:23
	movw	r0, #25401
	strh.w	r0, [r9, #42]
	movs	r0, #99
	b	.LBB1_98
.Ltmp109:
.LBB1_55:
	.loc	2 233 11                @ ../Src/rs485.c:233:11
	movw	r0, :lower16:eTransferMode
	movt	r0, :upper16:eTransferMode
	ldr	r0, [r0]
.Ltmp110:
	.loc	2 233 11 is_stmt 0      @ ../Src/rs485.c:233:11
	cmp	r0, #1
	bne	.LBB1_57
@ %bb.56:
.Ltmp111:
	.loc	2 233 42                @ ../Src/rs485.c:233:42
	movs	r0, #6
	bl	Serial_PutByte
.Ltmp112:
.LBB1_57:
	.loc	2 234 7 is_stmt 1       @ ../Src/rs485.c:234:7
	movs	r0, #10
	bl	HAL_Delay
	.loc	2 235 7                 @ ../Src/rs485.c:235:7
	bl	Error_Handler
	b	.LBB1_36
.Ltmp113:
.LBB1_58:
	.loc	2 207 54                @ ../Src/rs485.c:207:54
	bl	HAL_GetTick
	.loc	2 207 52 is_stmt 0      @ ../Src/rs485.c:207:52
	movw	r1, :lower16:RS485_Service.rs485_update_timeout_timer
	movt	r1, :upper16:RS485_Service.rs485_update_timeout_timer
	str	r0, [r1]
	.loc	2 208 7 is_stmt 1       @ ../Src/rs485.c:208:7
	ldr.w	r0, [r10]
	orr	r0, r0, #1
	str.w	r0, [r10]
.Ltmp114:
	.loc	2 210 10                @ ../Src/rs485.c:210:10
	bl	UpdateBootloader
	movs	r1, #1
.Ltmp115:
	.loc	2 210 10 is_stmt 0      @ ../Src/rs485.c:210:10
	cmp	r0, #0
	it	eq
	moveq	r1, #2
	movw	r2, :lower16:display_flags
	movt	r2, :upper16:display_flags
	ldr	r3, [r2]
	orrs	r1, r3
	str	r1, [r2]
	movs	r1, #16
	cmp	r0, #0
	it	eq
	moveq	r1, #32
	movw	r0, :lower16:sys_status
	movt	r0, :upper16:sys_status
	ldrb	r2, [r0]
	orrs	r1, r2
	strb	r1, [r0]
.Ltmp116:
	.loc	2 221 10 is_stmt 1      @ ../Src/rs485.c:221:10
	movw	r0, :lower16:eTransferMode
	movt	r0, :upper16:eTransferMode
	ldr	r0, [r0]
.Ltmp117:
	.loc	2 221 10 is_stmt 0      @ ../Src/rs485.c:221:10
	cmp	r0, #1
	bne.w	.LBB1_36
@ %bb.59:
.Ltmp118:
	.loc	2 223 22 is_stmt 1      @ ../Src/rs485.c:223:22
	movw	r0, #49665
	strh.w	r0, [r9, #5]
	b	.LBB1_26
.Ltmp119:
.LBB1_60:
	.loc	2 517 43                @ ../Src/rs485.c:517:43
	ldrb.w	r0, [r9, #1]
.Ltmp120:
	.loc	2 518 10                @ ../Src/rs485.c:518:10
	ldrb.w	r1, [r9, #2]
.Ltmp121:
	.loc	2 517 57                @ ../Src/rs485.c:517:57
	sub.w	r3, r0, #48
	.loc	2 517 19 is_stmt 0      @ ../Src/rs485.c:517:19
	movw	r2, :lower16:ROOM_Status
	movt	r2, :upper16:ROOM_Status
	str	r3, [r2]
.Ltmp122:
	.loc	2 518 10 is_stmt 1      @ ../Src/rs485.c:518:10
	sub.w	r3, r1, #48
	uxtb	r3, r3
	cmp	r3, #9
	.loc	2 518 72 is_stmt 0      @ ../Src/rs485.c:518:72
	ittt	ls
	addls	r0, r1
	.loc	2 518 44                @ ../Src/rs485.c:518:44
	subls	r0, #87
	strls	r0, [r2]
.Ltmp123:
	.loc	2 520 10 is_stmt 1      @ ../Src/rs485.c:520:10
	movw	r0, :lower16:eTransferMode
	movt	r0, :upper16:eTransferMode
	ldr	r0, [r0]
.Ltmp124:
	.loc	2 520 10 is_stmt 0      @ ../Src/rs485.c:520:10
	cmp	r0, #1
	bne.w	.LBB1_36
@ %bb.61:
.Ltmp125:
	.loc	2 522 22 is_stmt 1      @ ../Src/rs485.c:522:22
	movw	r0, #53249
	strh.w	r0, [r9, #5]
	b	.LBB1_26
.Ltmp126:
.LBB1_62:
	.loc	2 355 10                @ ../Src/rs485.c:355:10
	movw	r0, :lower16:eTransferMode
	movt	r0, :upper16:eTransferMode
	ldr	r0, [r0]
.Ltmp127:
	.loc	2 355 10 is_stmt 0      @ ../Src/rs485.c:355:10
	cmp	r0, #1
	bne.w	.LBB1_36
@ %bb.63:
.Ltmp128:
	.loc	2 357 22 is_stmt 1      @ ../Src/rs485.c:357:22
	movw	r0, #54017
	strh.w	r0, [r9, #5]
	b	.LBB1_26
.Ltmp129:
.LBB1_64:
	.loc	2 544 11                @ ../Src/rs485.c:544:11
	ldrb.w	r0, [r9, #1]
	.loc	2 544 33 is_stmt 0      @ ../Src/rs485.c:544:33
	cmp	r0, #49
	bne	.LBB1_66
@ %bb.65:
	.loc	2 544 36                @ ../Src/rs485.c:544:36
	movw	r0, :lower16:dio_flags
	movt	r0, :upper16:dio_flags
	ldr	r1, [r0]
.Ltmp130:
	.loc	2 544 10                @ ../Src/rs485.c:544:10
	tst.w	r1, #8
	bne.w	.LBB1_100
.Ltmp131:
.LBB1_66:
	.loc	2 0 10                  @ ../Src/rs485.c:0:10
	movs	r0, #48
	b	.LBB1_101
.LBB1_67:
.Ltmp132:
	.loc	2 306 25 is_stmt 1      @ ../Src/rs485.c:306:25
	add.w	r0, r9, #1
	add.w	r8, sp, #4
.Ltmp133:
	@DEBUG_VALUE: RS485_Service:date_rs <- [DW_OP_plus_uconst 4] [$sp+0]
	.loc	2 306 62 is_stmt 0      @ ../Src/rs485.c:306:62
	orr	r2, r8, #2
	.loc	2 306 25                @ ../Src/rs485.c:306:25
	movs	r1, #1
	bl	Str2Hex
	.loc	2 307 25 is_stmt 1      @ ../Src/rs485.c:307:25
	add.w	r0, r9, #3
	.loc	2 307 62 is_stmt 0      @ ../Src/rs485.c:307:62
	orr	r2, r8, #1
	.loc	2 307 25                @ ../Src/rs485.c:307:25
	movs	r1, #1
	bl	Str2Hex
	.loc	2 308 25 is_stmt 1      @ ../Src/rs485.c:308:25
	add.w	r0, r9, #5
	.loc	2 308 62 is_stmt 0      @ ../Src/rs485.c:308:62
	orr	r2, r8, #3
	.loc	2 308 25                @ ../Src/rs485.c:308:25
	movs	r1, #1
	bl	Str2Hex
	.loc	2 309 25 is_stmt 1      @ ../Src/rs485.c:309:25
	add.w	r0, r9, #7
	add	r5, sp, #28
.Ltmp134:
	@DEBUG_VALUE: RS485_Service:time_rs <- [DW_OP_plus_uconst 28] [$sp+0]
	movs	r1, #1
	mov	r2, r5
	bl	Str2Hex
	.loc	2 310 25                @ ../Src/rs485.c:310:25
	add.w	r0, r9, #9
	.loc	2 310 62 is_stmt 0      @ ../Src/rs485.c:310:62
	orr	r2, r5, #1
	.loc	2 310 25                @ ../Src/rs485.c:310:25
	movs	r1, #1
	bl	Str2Hex
	.loc	2 311 25 is_stmt 1      @ ../Src/rs485.c:311:25
	add.w	r0, r9, #11
	.loc	2 311 62 is_stmt 0      @ ../Src/rs485.c:311:62
	orr	r2, r5, #2
	.loc	2 311 25                @ ../Src/rs485.c:311:25
	movs	r1, #1
	bl	Str2Hex
	.loc	2 313 7 is_stmt 1       @ ../Src/rs485.c:313:7
	movw	r6, :lower16:hrtc
	movt	r6, :upper16:hrtc
	mov	r0, r6
	mov	r1, r5
	movs	r2, #1
	bl	HAL_RTC_SetTime
	.loc	2 314 7                 @ ../Src/rs485.c:314:7
	mov	r0, r6
	mov	r1, r8
	movs	r2, #1
	bl	HAL_RTC_SetDate
.Ltmp135:
	.loc	2 318 10                @ ../Src/rs485.c:318:10
	movw	r0, :lower16:eTransferMode
	movt	r0, :upper16:eTransferMode
	ldr	r0, [r0]
.Ltmp136:
	.loc	2 318 10 is_stmt 0      @ ../Src/rs485.c:318:10
	cmp	r0, #1
	bne.w	.LBB1_36
.Ltmp137:
@ %bb.68:
	@DEBUG_VALUE: RS485_Service:time_rs <- [DW_OP_plus_uconst 28] [$sp+0]
	@DEBUG_VALUE: RS485_Service:date_rs <- [DW_OP_plus_uconst 4] [$sp+0]
	.loc	2 320 22 is_stmt 1      @ ../Src/rs485.c:320:22
	movw	r0, #54529
	strh.w	r0, [r9, #5]
	b	.LBB1_26
.Ltmp138:
.LBB1_69:
	.loc	2 568 10                @ ../Src/rs485.c:568:10
	movw	r0, :lower16:eTransferMode
	movt	r0, :upper16:eTransferMode
	ldr	r0, [r0]
.Ltmp139:
	.loc	2 568 10 is_stmt 0      @ ../Src/rs485.c:568:10
	cmp	r0, #1
	bne.w	.LBB1_36
@ %bb.70:
.Ltmp140:
	.loc	2 570 22 is_stmt 1      @ ../Src/rs485.c:570:22
	movw	r0, #54785
	strh.w	r0, [r9, #5]
	b	.LBB1_26
.Ltmp141:
.LBB1_71:
	.loc	2 438 25                @ ../Src/rs485.c:438:25
	ldrb.w	r0, [r9, #1]
	.loc	2 438 48 is_stmt 0      @ ../Src/rs485.c:438:48
	ldrb.w	r1, [r9, #2]
	.loc	2 438 46                @ ../Src/rs485.c:438:46
	orr.w	r2, r1, r0, lsl #8
	.loc	2 438 22                @ ../Src/rs485.c:438:22
	movw	r3, :lower16:lcd_brightness
	movt	r3, :upper16:lcd_brightness
	strh	r2, [r3]
	.loc	2 439 7 is_stmt 1       @ ../Src/rs485.c:439:7
	movw	r3, :lower16:htim2
	movt	r3, :upper16:htim2
	ldr	r3, [r3]
	uxth	r2, r2
	str	r2, [r3, #52]
	.loc	2 442 18                @ ../Src/rs485.c:442:18
	strb.w	r0, [sp, #6]
	.loc	2 440 18                @ ../Src/rs485.c:440:18
	mov.w	r0, #15104
	strh.w	r0, [sp, #4]
	.loc	2 443 18                @ ../Src/rs485.c:443:18
	strb.w	r1, [sp, #7]
.Ltmp142:
	.loc	2 444 11                @ ../Src/rs485.c:444:11
	movs	r0, #5
	str	r0, [sp]
	movw	r0, :lower16:hi2c1
	movt	r0, :upper16:hi2c1
	add	r2, sp, #4
	movs	r1, #160
	movs	r3, #4
	bl	HAL_I2C_Master_Transmit
.Ltmp143:
	.loc	2 444 11 is_stmt 0      @ ../Src/rs485.c:444:11
	cmp	r0, #0
.Ltmp144:
	.loc	2 444 97                @ ../Src/rs485.c:444:97
	it	ne
	blne	Error_Handler
.Ltmp145:
	.loc	2 445 11 is_stmt 1      @ ../Src/rs485.c:445:11
	movw	r0, :lower16:hi2c1
	movt	r0, :upper16:hi2c1
	movs	r1, #161
	movs	r2, #100
	movs	r3, #15
	bl	HAL_I2C_IsDeviceReady
.Ltmp146:
	.loc	2 445 11 is_stmt 0      @ ../Src/rs485.c:445:11
	cmp	r0, #0
.Ltmp147:
	.loc	2 445 100               @ ../Src/rs485.c:445:100
	it	ne
	blne	Error_Handler
.Ltmp148:
	.loc	2 447 10 is_stmt 1      @ ../Src/rs485.c:447:10
	movw	r0, :lower16:eTransferMode
	movt	r0, :upper16:eTransferMode
	ldr	r0, [r0]
.Ltmp149:
	.loc	2 447 10 is_stmt 0      @ ../Src/rs485.c:447:10
	cmp	r0, #1
	bne.w	.LBB1_36
@ %bb.72:
.Ltmp150:
	.loc	2 449 22 is_stmt 1      @ ../Src/rs485.c:449:22
	movw	r0, #55041
	strh.w	r0, [r9, #5]
	b	.LBB1_26
.Ltmp151:
.LBB1_73:
	.loc	2 580 22                @ ../Src/rs485.c:580:22
	ldrb.w	r0, [r9, #1]
	.loc	2 581 22                @ ../Src/rs485.c:581:22
	ldrb.w	r1, [r9, #2]
	.loc	2 580 20                @ ../Src/rs485.c:580:20
	movw	r2, :lower16:system_id
	movt	r2, :upper16:system_id
	strb	r0, [r2]
	.loc	2 581 20                @ ../Src/rs485.c:581:20
	strb	r1, [r2, #1]
	.loc	2 582 18                @ ../Src/rs485.c:582:18
	mov.w	r2, #13824
	strh.w	r2, [sp, #4]
	.loc	2 584 18                @ ../Src/rs485.c:584:18
	strb.w	r0, [sp, #6]
	.loc	2 585 18                @ ../Src/rs485.c:585:18
	strb.w	r1, [sp, #7]
.Ltmp152:
	.loc	2 586 11                @ ../Src/rs485.c:586:11
	movs	r0, #5
	str	r0, [sp]
	movw	r0, :lower16:hi2c1
	movt	r0, :upper16:hi2c1
	add	r2, sp, #4
	movs	r1, #160
	movs	r3, #4
	bl	HAL_I2C_Master_Transmit
.Ltmp153:
	.loc	2 586 11 is_stmt 0      @ ../Src/rs485.c:586:11
	cmp	r0, #0
.Ltmp154:
	.loc	2 586 97                @ ../Src/rs485.c:586:97
	it	ne
	blne	Error_Handler
.Ltmp155:
	.loc	2 587 11 is_stmt 1      @ ../Src/rs485.c:587:11
	movw	r0, :lower16:hi2c1
	movt	r0, :upper16:hi2c1
	movs	r1, #161
	movs	r2, #100
	movs	r3, #15
	bl	HAL_I2C_IsDeviceReady
.Ltmp156:
	.loc	2 587 11 is_stmt 0      @ ../Src/rs485.c:587:11
	cmp	r0, #0
.Ltmp157:
	.loc	2 587 100               @ ../Src/rs485.c:587:100
	it	ne
	blne	Error_Handler
.Ltmp158:
	.loc	2 589 10 is_stmt 1      @ ../Src/rs485.c:589:10
	movw	r0, :lower16:eTransferMode
	movt	r0, :upper16:eTransferMode
	ldr	r0, [r0]
.Ltmp159:
	.loc	2 589 10 is_stmt 0      @ ../Src/rs485.c:589:10
	cmp	r0, #1
	bne.w	.LBB1_36
@ %bb.74:
.Ltmp160:
	.loc	2 591 22 is_stmt 1      @ ../Src/rs485.c:591:22
	movw	r0, #55297
	strh.w	r0, [r9, #5]
	b	.LBB1_26
.Ltmp161:
.LBB1_75:
	.loc	2 397 18                @ ../Src/rs485.c:397:18
	mov.w	r0, #20480
	strh.w	r0, [sp, #4]
.Ltmp162:
	.loc	2 402 28                @ ../Src/rs485.c:402:28
	ldr.w	r0, [r9, #1]
	ldr.w	r1, [r9, #5]
	ldr.w	r2, [r9, #9]
	ldr.w	r3, [r9, #13]
	str.w	r0, [sp, #6]
	str.w	r1, [sp, #10]
	str.w	r2, [sp, #14]
	str.w	r3, [sp, #18]
	movs	r0, #5
.Ltmp163:
	.loc	2 405 11                @ ../Src/rs485.c:405:11
	str	r0, [sp]
	movw	r0, :lower16:hi2c1
	movt	r0, :upper16:hi2c1
	add	r2, sp, #4
	movs	r1, #160
	movs	r3, #18
	bl	HAL_I2C_Master_Transmit
.Ltmp164:
	.loc	2 405 11 is_stmt 0      @ ../Src/rs485.c:405:11
	cmp	r0, #0
.Ltmp165:
	.loc	2 405 98                @ ../Src/rs485.c:405:98
	it	ne
	blne	Error_Handler
.Ltmp166:
	.loc	2 406 11 is_stmt 1      @ ../Src/rs485.c:406:11
	movw	r0, :lower16:hi2c1
	movt	r0, :upper16:hi2c1
	movs	r1, #161
	movs	r2, #100
	movs	r3, #15
	bl	HAL_I2C_IsDeviceReady
.Ltmp167:
	.loc	2 406 11 is_stmt 0      @ ../Src/rs485.c:406:11
	cmp	r0, #0
.Ltmp168:
	.loc	2 406 100               @ ../Src/rs485.c:406:100
	it	ne
	blne	Error_Handler
.Ltmp169:
	.loc	2 408 10 is_stmt 1      @ ../Src/rs485.c:408:10
	movw	r0, :lower16:eTransferMode
	movt	r0, :upper16:eTransferMode
	ldr	r0, [r0]
.Ltmp170:
	.loc	2 408 10 is_stmt 0      @ ../Src/rs485.c:408:10
	cmp	r0, #1
	bne.w	.LBB1_36
@ %bb.76:
.Ltmp171:
	.loc	2 410 22 is_stmt 1      @ ../Src/rs485.c:410:22
	movw	r0, #56065
	strh.w	r0, [r9, #5]
	b	.LBB1_26
.Ltmp172:
.LBB1_77:
	.loc	2 532 28                @ ../Src/rs485.c:532:28
	movw	r0, :lower16:eTransferMode
	movt	r0, :upper16:eTransferMode
	ldr	r0, [r0]
.Ltmp173:
	.loc	2 532 28 is_stmt 0      @ ../Src/rs485.c:532:28
	cmp	r0, #1
	bne.w	.LBB1_36
@ %bb.78:
.Ltmp174:
	.loc	2 534 22 is_stmt 1      @ ../Src/rs485.c:534:22
	movw	r0, #56833
	strh.w	r0, [r9, #5]
	b	.LBB1_26
.Ltmp175:
.LBB1_79:
	.loc	2 242 11                @ ../Src/rs485.c:242:11
	movw	r0, :lower16:eTransferMode
	movt	r0, :upper16:eTransferMode
	ldr	r0, [r0]
.Ltmp176:
	.loc	2 242 11 is_stmt 0      @ ../Src/rs485.c:242:11
	cmp	r0, #1
	bne	.LBB1_81
@ %bb.80:
.Ltmp177:
	.loc	2 242 42                @ ../Src/rs485.c:242:42
	movs	r0, #6
	bl	Serial_PutByte
.Ltmp178:
.LBB1_81:
	.loc	2 245 18 is_stmt 1      @ ../Src/rs485.c:245:18
	movs	r0, #87
	strb.w	r0, [sp, #6]
	.loc	2 243 18                @ ../Src/rs485.c:243:18
	mov.w	r0, #9472
	strh.w	r0, [sp, #4]
.Ltmp179:
	.loc	2 246 11                @ ../Src/rs485.c:246:11
	movs	r0, #5
	str	r0, [sp]
	movw	r0, :lower16:hi2c1
	movt	r0, :upper16:hi2c1
	add	r2, sp, #4
	movs	r1, #160
	movs	r3, #3
	bl	HAL_I2C_Master_Transmit
.Ltmp180:
	.loc	2 246 11 is_stmt 0      @ ../Src/rs485.c:246:11
	cmp	r0, #0
.Ltmp181:
	.loc	2 246 97                @ ../Src/rs485.c:246:97
	it	ne
	blne	Error_Handler
.Ltmp182:
	.loc	2 247 11 is_stmt 1      @ ../Src/rs485.c:247:11
	movw	r0, :lower16:hi2c1
	movt	r0, :upper16:hi2c1
	movs	r1, #161
	movs	r2, #100
	movs	r3, #15
	bl	HAL_I2C_IsDeviceReady
.Ltmp183:
	.loc	2 247 11 is_stmt 0      @ ../Src/rs485.c:247:11
	cmp	r0, #0
.Ltmp184:
	.loc	2 247 100               @ ../Src/rs485.c:247:100
	it	ne
	blne	Error_Handler
.Ltmp185:
	.loc	2 248 7 is_stmt 1       @ ../Src/rs485.c:248:7
	bl	BackupOldFirmware
	.loc	2 249 7                 @ ../Src/rs485.c:249:7
	bl	Error_Handler
	b	.LBB1_36
.Ltmp186:
.LBB1_82:
	.loc	2 367 7                 @ ../Src/rs485.c:367:7
	add.w	r0, r9, #1
	movw	r8, :lower16:rs485_interface_address
	movt	r8, :upper16:rs485_interface_address
	movs	r1, #2
	mov	r2, r8
	bl	Str2Hex
	.loc	2 368 7                 @ ../Src/rs485.c:368:7
	add.w	r0, r9, #5
	movw	r5, :lower16:rs485_group_address
	movt	r5, :upper16:rs485_group_address
	movs	r1, #2
	mov	r2, r5
	bl	Str2Hex
	.loc	2 369 7                 @ ../Src/rs485.c:369:7
	add.w	r0, r9, #9
	movw	r6, :lower16:rs485_broadcast_address
	movt	r6, :upper16:rs485_broadcast_address
	movs	r1, #2
	mov	r2, r6
	bl	Str2Hex
	.loc	2 370 34                @ ../Src/rs485.c:370:34
	ldrb.w	r0, [r9, #13]
	.loc	2 370 32 is_stmt 0      @ ../Src/rs485.c:370:32
	movw	r1, :lower16:rs485_interface_baudrate
	movt	r1, :upper16:rs485_interface_baudrate
	strb	r0, [r1]
	.loc	2 372 18 is_stmt 1      @ ../Src/rs485.c:372:18
	mov.w	r1, #10240
	strh.w	r1, [sp, #4]
	.loc	2 374 20                @ ../Src/rs485.c:374:20
	ldrh.w	r1, [r8]
	.loc	2 374 18 is_stmt 0      @ ../Src/rs485.c:374:18
	strh.w	r1, [sp, #6]
	.loc	2 376 20 is_stmt 1      @ ../Src/rs485.c:376:20
	ldrh	r1, [r5]
	.loc	2 376 18 is_stmt 0      @ ../Src/rs485.c:376:18
	strh.w	r1, [sp, #8]
	.loc	2 378 20 is_stmt 1      @ ../Src/rs485.c:378:20
	ldrh	r1, [r6]
	.loc	2 378 18 is_stmt 0      @ ../Src/rs485.c:378:18
	strh.w	r1, [sp, #10]
	.loc	2 380 18 is_stmt 1      @ ../Src/rs485.c:380:18
	strb.w	r0, [sp, #12]
	movs	r0, #5
.Ltmp187:
	.loc	2 382 11                @ ../Src/rs485.c:382:11
	str	r0, [sp]
	movw	r0, :lower16:hi2c1
	movt	r0, :upper16:hi2c1
	add	r2, sp, #4
	movs	r1, #160
	movs	r3, #9
	bl	HAL_I2C_Master_Transmit
.Ltmp188:
	.loc	2 382 11 is_stmt 0      @ ../Src/rs485.c:382:11
	cmp	r0, #0
.Ltmp189:
	.loc	2 382 97                @ ../Src/rs485.c:382:97
	it	ne
	blne	Error_Handler
.Ltmp190:
	.loc	2 383 11 is_stmt 1      @ ../Src/rs485.c:383:11
	movw	r0, :lower16:hi2c1
	movt	r0, :upper16:hi2c1
	movs	r1, #161
	movs	r2, #100
	movs	r3, #15
	bl	HAL_I2C_IsDeviceReady
.Ltmp191:
	.loc	2 383 11 is_stmt 0      @ ../Src/rs485.c:383:11
	cmp	r0, #0
.Ltmp192:
	.loc	2 383 100               @ ../Src/rs485.c:383:100
	it	ne
	blne	Error_Handler
.Ltmp193:
	.loc	2 385 10 is_stmt 1      @ ../Src/rs485.c:385:10
	movw	r0, :lower16:eTransferMode
	movt	r0, :upper16:eTransferMode
	ldr	r0, [r0]
.Ltmp194:
	.loc	2 385 10 is_stmt 0      @ ../Src/rs485.c:385:10
	cmp	r0, #1
	bne.w	.LBB1_36
@ %bb.83:
.Ltmp195:
	.loc	2 387 22 is_stmt 1      @ ../Src/rs485.c:387:22
	movw	r0, #53505
	strh.w	r0, [r9, #5]
	b	.LBB1_26
.Ltmp196:
.LBB1_84:
	.loc	2 0 22 is_stmt 0        @ ../Src/rs485.c:0:22
	movs	r3, #0
	movs	r0, #1
	movw	r1, :lower16:dout_0_7_remote
	movt	r1, :upper16:dout_0_7_remote
.LBB1_85:                               @ =>This Inner Loop Header: Depth=1
.Ltmp197:
	.loc	2 422 11 is_stmt 1      @ ../Src/rs485.c:422:11
	add.w	r2, r9, r3
	ldrb	r6, [r2, #1]
	.loc	2 422 28 is_stmt 0      @ ../Src/rs485.c:422:28
	adds	r2, r3, #1
.Ltmp198:
	.loc	2 422 11                @ ../Src/rs485.c:422:11
	cmp	r6, #48
	beq	.LBB1_88
@ %bb.86:                               @   in Loop: Header=BB1_85 Depth=1
	cmp	r6, #49
	bne	.LBB1_90
@ %bb.87:                               @   in Loop: Header=BB1_85 Depth=1
.Ltmp199:
	.loc	2 422 76                @ ../Src/rs485.c:422:76
	lsl.w	r3, r0, r3
	.loc	2 422 58                @ ../Src/rs485.c:422:58
	ldrh	r7, [r1]
	orrs	r3, r7
	b	.LBB1_89
.LBB1_88:                               @   in Loop: Header=BB1_85 Depth=1
.Ltmp200:
	.loc	2 423 83 is_stmt 1      @ ../Src/rs485.c:423:83
	lsl.w	r3, r0, r3
	.loc	2 423 63 is_stmt 0      @ ../Src/rs485.c:423:63
	ldrh	r7, [r1]
	bic.w	r3, r7, r3
.Ltmp201:
.LBB1_89:                               @   in Loop: Header=BB1_85 Depth=1
	.loc	2 0 63                  @ ../Src/rs485.c:0:63
	strh	r3, [r1]
.LBB1_90:                               @   in Loop: Header=BB1_85 Depth=1
	.loc	2 420 7 is_stmt 1       @ ../Src/rs485.c:420:7
	cmp	r2, #9
	mov	r3, r2
	bne	.LBB1_85
.Ltmp202:
@ %bb.91:
	.loc	2 426 10                @ ../Src/rs485.c:426:10
	movw	r0, :lower16:eTransferMode
	movt	r0, :upper16:eTransferMode
	ldr	r0, [r0]
.Ltmp203:
	.loc	2 426 10 is_stmt 0      @ ../Src/rs485.c:426:10
	cmp	r0, #1
	bne.w	.LBB1_36
@ %bb.92:
.Ltmp204:
	.loc	2 428 22 is_stmt 1      @ ../Src/rs485.c:428:22
	movw	r0, #53761
	strh.w	r0, [r9, #5]
	b	.LBB1_26
.Ltmp205:
.LBB1_93:
	.loc	2 601 7                 @ ../Src/rs485.c:601:7
	movw	r0, :lower16:display_flags
	movt	r0, :upper16:display_flags
	ldr	r1, [r0]
	orr	r1, r1, #4
	str	r1, [r0]
.Ltmp206:
	.loc	2 603 10                @ ../Src/rs485.c:603:10
	movw	r0, :lower16:eTransferMode
	movt	r0, :upper16:eTransferMode
	ldr	r0, [r0]
.Ltmp207:
	.loc	2 603 10 is_stmt 0      @ ../Src/rs485.c:603:10
	cmp	r0, #1
	bne.w	.LBB1_36
@ %bb.94:
.Ltmp208:
	.loc	2 605 22 is_stmt 1      @ ../Src/rs485.c:605:22
	movw	r0, #55553
	strh.w	r0, [r9, #5]
	b	.LBB1_26
.Ltmp209:
.LBB1_95:
	.loc	2 268 18                @ ../Src/rs485.c:268:18
	mov.w	r0, #14592
	strh.w	r0, [sp, #4]
	.loc	2 270 21                @ ../Src/rs485.c:270:21
	ldrb.w	r0, [r9, #1]
	.loc	2 271 22                @ ../Src/rs485.c:271:22
	ldrb.w	r1, [r9, #2]
	.loc	2 270 42                @ ../Src/rs485.c:270:42
	add.w	r0, r0, r0, lsl #2
	.loc	2 271 18                @ ../Src/rs485.c:271:18
	add.w	r0, r1, r0, lsl #1
	subs	r0, #16
	strb.w	r0, [sp, #6]
.Ltmp210:
	.loc	2 273 11                @ ../Src/rs485.c:273:11
	movs	r0, #5
	str	r0, [sp]
	movw	r0, :lower16:hi2c1
	movt	r0, :upper16:hi2c1
	add	r2, sp, #4
	movs	r1, #160
	movs	r3, #3
	bl	HAL_I2C_Master_Transmit
.Ltmp211:
	.loc	2 273 11 is_stmt 0      @ ../Src/rs485.c:273:11
	cmp	r0, #0
.Ltmp212:
	.loc	2 273 96                @ ../Src/rs485.c:273:96
	it	ne
	blne	Error_Handler
.Ltmp213:
	.loc	2 274 11 is_stmt 1      @ ../Src/rs485.c:274:11
	movw	r0, :lower16:hi2c1
	movt	r0, :upper16:hi2c1
	movs	r1, #161
	movs	r2, #100
	movs	r3, #15
	bl	HAL_I2C_IsDeviceReady
.Ltmp214:
	.loc	2 274 11 is_stmt 0      @ ../Src/rs485.c:274:11
	cmp	r0, #0
.Ltmp215:
	.loc	2 274 100               @ ../Src/rs485.c:274:100
	it	ne
	blne	Error_Handler
.Ltmp216:
	.loc	2 276 10 is_stmt 1      @ ../Src/rs485.c:276:10
	movw	r0, :lower16:eTransferMode
	movt	r0, :upper16:eTransferMode
	ldr	r0, [r0]
.Ltmp217:
	.loc	2 276 10 is_stmt 0      @ ../Src/rs485.c:276:10
	cmp	r0, #1
	bne.w	.LBB1_36
@ %bb.96:
.Ltmp218:
	.loc	2 278 22 is_stmt 1      @ ../Src/rs485.c:278:22
	movw	r0, #55809
	strh.w	r0, [r9, #5]
	b.w	.LBB1_26
.Ltmp219:
.LBB1_97:
	.loc	2 494 42                @ ../Src/rs485.c:494:42
	movw	r1, #52429
	movt	r1, #52428
	umull	r1, r2, r0, r1
	.loc	2 494 49 is_stmt 0      @ ../Src/rs485.c:494:49
	movs	r1, #48
	add.w	r1, r1, r2, lsr #3
	.loc	2 494 23                @ ../Src/rs485.c:494:23
	strb.w	r1, [r9, #42]
	.loc	2 495 8 is_stmt 1       @ ../Src/rs485.c:495:8
	cmp	r0, #10
	blo	.LBB1_99
.LBB1_98:
	subs	r0, #10
	uxtb	r0, r0
	movw	r1, #52429
	movt	r1, #52428
	umull	r1, r2, r0, r1
	lsrs	r1, r2, #3
	add.w	r1, r1, r1, lsl #2
	sub.w	r0, r0, r1, lsl #1
	.loc	2 495 50 is_stmt 0      @ ../Src/rs485.c:495:50
	strb.w	r0, [r9, #43]
.LBB1_99:
	.loc	2 498 44 is_stmt 1      @ ../Src/rs485.c:498:44
	mov.w	r1, #808464432
	movw	r2, #12336
	movt	r2, #17220
	strd	r1, r1, [r9, #44]
	str.w	r2, [r9, #52]
	.loc	2 496 23                @ ../Src/rs485.c:496:23
	adds	r0, #48
	strb.w	r0, [r9, #43]
	b.w	.LBB1_26
.Ltmp220:
.LBB1_100:
	.loc	2 546 8                 @ ../Src/rs485.c:546:8
	ldr	r1, [r0]
	bic	r1, r1, #8
	str	r1, [r0]
	.loc	2 547 8                 @ ../Src/rs485.c:547:8
	movw	r0, :lower16:display_flags
	movt	r0, :upper16:display_flags
	ldr	r1, [r0]
	bic	r1, r1, #32
	str	r1, [r0]
	.loc	2 548 21                @ ../Src/rs485.c:548:21
	movw	r1, :lower16:SignalBuzzer
	movt	r1, :upper16:SignalBuzzer
	movs	r2, #0
	str	r2, [r1]
	.loc	2 547 8                 @ ../Src/rs485.c:547:8
	ldr	r1, [r0]
	orr	r1, r1, #-2147483648
	str	r1, [r0]
	movs	r0, #49
.Ltmp221:
.LBB1_101:
	.loc	2 0 8 is_stmt 0         @ ../Src/rs485.c:0:8
	strb.w	r0, [r9, #7]
.Ltmp222:
	.loc	2 556 10 is_stmt 1      @ ../Src/rs485.c:556:10
	movw	r0, :lower16:eTransferMode
	movt	r0, :upper16:eTransferMode
	ldr	r0, [r0]
.Ltmp223:
	.loc	2 556 10 is_stmt 0      @ ../Src/rs485.c:556:10
	cmp	r0, #1
	bne.w	.LBB1_36
@ %bb.102:
.Ltmp224:
	.loc	2 558 22 is_stmt 1      @ ../Src/rs485.c:558:22
	movw	r0, #54274
	strh.w	r0, [r9, #5]
	b.w	.LBB1_26
.Ltmp225:
.Lfunc_end1:
	.size	RS485_Service, .Lfunc_end1-RS485_Service
	.cfi_endproc
	.cantunwind
	.fnend
                                        @ -- End function
	.section	.text.FormatFileStorage,"ax",%progbits
	.p2align	2               @ -- Begin function FormatFileStorage
	.type	FormatFileStorage,%function
	.code	16                      @ @FormatFileStorage
	.thumb_func
FormatFileStorage:
.Lfunc_begin2:
	.loc	2 713 0                 @ ../Src/rs485.c:713:0
	.fnstart
	.cfi_startproc
@ %bb.0:
	.save	{r4, r5, r7, lr}
	push	{r4, r5, r7, lr}
	.cfi_def_cfa_offset 16
	.cfi_offset lr, -4
	.cfi_offset r7, -8
	.cfi_offset r5, -12
	.cfi_offset r4, -16
	@DEBUG_VALUE: FormatFileStorage:start_address <- $r0
	@DEBUG_VALUE: FormatFileStorage:number_of_blocks <- $r1
	mov	r4, r1
	mov	r5, r0
.Ltmp226:
	@DEBUG_VALUE: FormatFileStorage:number_of_blocks <- $r4
	@DEBUG_VALUE: FormatFileStorage:start_address <- $r5
	.loc	2 714 2 prologue_end    @ ../Src/rs485.c:714:2
	cmp	r1, #0
	.loc	2 725 1                 @ ../Src/rs485.c:725:1
	it	eq
	popeq	{r4, r5, r7, pc}
.Ltmp227:
	.p2align	2
.LBB2_1:                                @ =>This Inner Loop Header: Depth=1
	.loc	2 716 3                 @ ../Src/rs485.c:716:3
	movs	r0, #0
	bl	SPI_FLASH_WriteStatusRegister
.Ltmp228:
	.loc	2 717 6                 @ ../Src/rs485.c:717:6
	mov.w	r0, #500
	bl	SPI_FLASH_WaitReadyStatus
.Ltmp229:
	.loc	2 717 6 is_stmt 0       @ ../Src/rs485.c:717:6
	cmp	r0, #0
.Ltmp230:
	.loc	2 717 58                @ ../Src/rs485.c:717:58
	it	eq
	bleq	Error_Handler
.Ltmp231:
	@DEBUG_VALUE: FormatFileStorage:start_address <- $r5
	.loc	2 718 3 is_stmt 1       @ ../Src/rs485.c:718:3
	mov	r0, r5
	bl	SPI_FLASH_UnprotectSector
.Ltmp232:
	.loc	2 719 6                 @ ../Src/rs485.c:719:6
	mov.w	r0, #500
	bl	SPI_FLASH_WaitReadyStatus
.Ltmp233:
	.loc	2 719 6 is_stmt 0       @ ../Src/rs485.c:719:6
	cmp	r0, #0
.Ltmp234:
	.loc	2 719 58                @ ../Src/rs485.c:719:58
	it	eq
	bleq	Error_Handler
.Ltmp235:
	.loc	2 720 3 is_stmt 1       @ ../Src/rs485.c:720:3
	mov	r0, r5
	movs	r1, #216
	bl	SPI_FLASH_Erase
.Ltmp236:
	.loc	2 721 12                @ ../Src/rs485.c:721:12
	mov.w	r0, #2000
	bl	SPI_FLASH_WaitReadyStatus
.Ltmp237:
	.loc	2 721 12 is_stmt 0      @ ../Src/rs485.c:721:12
	cmp	r0, #0
.Ltmp238:
	.loc	2 721 74                @ ../Src/rs485.c:721:74
	it	eq
	bleq	Error_Handler
.Ltmp239:
	.loc	2 723 3 is_stmt 1       @ ../Src/rs485.c:723:3
	subs	r4, #1
	.loc	2 722 17                @ ../Src/rs485.c:722:17
	add.w	r5, r5, #65536
.Ltmp240:
	@DEBUG_VALUE: FormatFileStorage:start_address <- $r5
	.loc	2 714 2                 @ ../Src/rs485.c:714:2
	tst.w	r4, #255
	bne	.LBB2_1
.Ltmp241:
@ %bb.2:
	@DEBUG_VALUE: FormatFileStorage:start_address <- $r5
	.loc	2 725 1                 @ ../Src/rs485.c:725:1
	pop	{r4, r5, r7, pc}
.Ltmp242:
.Lfunc_end2:
	.size	FormatFileStorage, .Lfunc_end2-FormatFileStorage
	.cfi_endproc
	.cantunwind
	.fnend
                                        @ -- End function
	.section	.text.UpdateBootloader,"ax",%progbits
	.p2align	2               @ -- Begin function UpdateBootloader
	.type	UpdateBootloader,%function
	.code	16                      @ @UpdateBootloader
	.thumb_func
UpdateBootloader:
.Lfunc_begin3:
	.loc	2 792 0                 @ ../Src/rs485.c:792:0
	.fnstart
	.cfi_startproc
@ %bb.0:
	.save	{r4, r5, r6, r7, r8, r9, lr}
	push.w	{r4, r5, r6, r7, r8, r9, lr}
	.cfi_def_cfa_offset 28
	.cfi_offset lr, -4
	.cfi_offset r9, -8
	.cfi_offset r8, -12
	.cfi_offset r7, -16
	.cfi_offset r6, -20
	.cfi_offset r5, -24
	.cfi_offset r4, -28
	.pad	#2064
	sub.w	sp, sp, #2064
	.pad	#4
	sub	sp, #4
	.cfi_def_cfa_offset 2096
.Ltmp243:
	.loc	2 804 2 prologue_end    @ ../Src/rs485.c:804:2
	bl	HAL_FLASH_Unlock
	mov.w	r8, #0
	.loc	2 805 28                @ ../Src/rs485.c:805:28
	str.w	r8, [sp, #4]
	.loc	2 806 30                @ ../Src/rs485.c:806:30
	mov.w	r0, #134217728
	str	r0, [sp, #12]
	movs	r0, #1
	.loc	2 807 24                @ ../Src/rs485.c:807:24
	str	r0, [sp, #8]
	movs	r0, #12
	.loc	2 808 26                @ ../Src/rs485.c:808:26
	str	r0, [sp, #16]
	add	r0, sp, #4
.Ltmp244:
	@DEBUG_VALUE: UpdateBootloader:FLASH_EraseInit <- [DW_OP_plus_uconst 4] [$sp+0]
	.loc	2 0 26 is_stmt 0        @ ../Src/rs485.c:0:26
	mov	r1, sp
.Ltmp245:
	@DEBUG_VALUE: UpdateBootloader:page_erase_error <- [$sp+0]
	.loc	2 809 5 is_stmt 1       @ ../Src/rs485.c:809:5
	bl	HAL_FLASHEx_Erase
.Ltmp246:
	.loc	2 809 5 is_stmt 0       @ ../Src/rs485.c:809:5
	cbnz	r0, .LBB3_6
.Ltmp247:
@ %bb.1:
	@DEBUG_VALUE: UpdateBootloader:page_erase_error <- [$sp+0]
	@DEBUG_VALUE: UpdateBootloader:FLASH_EraseInit <- [DW_OP_plus_uconst 4] [$sp+0]
	.loc	2 810 2 is_stmt 1       @ ../Src/rs485.c:810:2
	bl	HAL_FLASH_Lock
	mov.w	r5, #134217728
	mov.w	r6, #3932160
	mov.w	r7, #12288
.Ltmp248:
	@DEBUG_VALUE: UpdateBootloader:file_size <- 12288
	@DEBUG_VALUE: UpdateBootloader:fl_address <- 3932160
	@DEBUG_VALUE: UpdateBootloader:fl_destination <- 134217728
	.loc	2 0 2 is_stmt 0         @ ../Src/rs485.c:0:2
	add.w	r9, sp, #20
.Ltmp249:
	.p2align	2
.LBB3_2:                                @ =>This Inner Loop Header: Depth=1
	@DEBUG_VALUE: UpdateBootloader:page_erase_error <- [$sp+0]
	@DEBUG_VALUE: UpdateBootloader:FLASH_EraseInit <- [DW_OP_plus_uconst 4] [$sp+0]
	@DEBUG_VALUE: UpdateBootloader:file_size <- $r7
	movs	r0, #0
.Ltmp250:
	.loc	2 818 6 is_stmt 1       @ ../Src/rs485.c:818:6
	cmp.w	r0, r7, lsr #11
	mov	r4, r7
	it	ne
	movne.w	r4, #2048
.Ltmp251:
	@DEBUG_VALUE: UpdateBootloader:bcnt <- $r4
	.loc	2 829 9                 @ ../Src/rs485.c:829:9
	uxth	r2, r4
.Ltmp252:
	@DEBUG_VALUE: UpdateBootloader:ram_source <- [DW_OP_plus_uconst 20] [$sp+0]
	@DEBUG_VALUE: UpdateBootloader:fl_address <- $r6
	mov	r0, r6
	mov	r1, r9
	bl	SPI_FLASH_ReadPage
.Ltmp253:
	.loc	2 831 73                @ ../Src/rs485.c:831:73
	lsrs	r2, r4, #2
.Ltmp254:
	@DEBUG_VALUE: UpdateBootloader:fl_destination <- $r5
	.loc	2 831 12 is_stmt 0      @ ../Src/rs485.c:831:12
	mov	r0, r5
	mov	r1, r9
	bl	FLASH_If_Write
.Ltmp255:
	.loc	2 831 12                @ ../Src/rs485.c:831:12
	cbz	r0, .LBB3_5
.Ltmp256:
@ %bb.3:                                @   in Loop: Header=BB3_2 Depth=1
	@DEBUG_VALUE: UpdateBootloader:fl_destination <- $r5
	@DEBUG_VALUE: UpdateBootloader:fl_address <- $r6
	@DEBUG_VALUE: UpdateBootloader:ram_source <- [DW_OP_plus_uconst 20] [$sp+0]
	@DEBUG_VALUE: UpdateBootloader:bcnt <- $r4
	@DEBUG_VALUE: UpdateBootloader:file_size <- $r7
	@DEBUG_VALUE: UpdateBootloader:page_erase_error <- [$sp+0]
	@DEBUG_VALUE: UpdateBootloader:FLASH_EraseInit <- [DW_OP_plus_uconst 4] [$sp+0]
	.loc	2 818 6 is_stmt 1       @ ../Src/rs485.c:818:6
	lsrs	r0, r7, #11
	cmp.w	r8, r7, lsr #11
	it	ne
	subne.w	r0, r7, #2048
.Ltmp257:
	@DEBUG_VALUE: UpdateBootloader:file_size <- $r0
	.loc	2 833 20                @ ../Src/rs485.c:833:20
	add	r6, r4
.Ltmp258:
	@DEBUG_VALUE: UpdateBootloader:fl_address <- $r6
	.loc	2 832 24                @ ../Src/rs485.c:832:24
	add	r5, r4
.Ltmp259:
	@DEBUG_VALUE: UpdateBootloader:fl_destination <- $r5
	.loc	2 816 5                 @ ../Src/rs485.c:816:5
	cmp	r0, #0
	mov	r7, r0
.Ltmp260:
	@DEBUG_VALUE: UpdateBootloader:file_size <- $r7
	bne	.LBB3_2
.Ltmp261:
@ %bb.4:
	@DEBUG_VALUE: UpdateBootloader:fl_destination <- $r5
	@DEBUG_VALUE: UpdateBootloader:fl_address <- $r6
	@DEBUG_VALUE: UpdateBootloader:ram_source <- [DW_OP_plus_uconst 20] [$sp+0]
	@DEBUG_VALUE: UpdateBootloader:bcnt <- $r4
	@DEBUG_VALUE: UpdateBootloader:file_size <- $r7
	@DEBUG_VALUE: UpdateBootloader:page_erase_error <- [$sp+0]
	@DEBUG_VALUE: UpdateBootloader:FLASH_EraseInit <- [DW_OP_plus_uconst 4] [$sp+0]
	.loc	2 0 5 is_stmt 0         @ ../Src/rs485.c:0:5
	mov.w	r8, #1
	b	.LBB3_6
.Ltmp262:
.LBB3_5:
	@DEBUG_VALUE: UpdateBootloader:fl_destination <- $r5
	@DEBUG_VALUE: UpdateBootloader:fl_address <- $r6
	@DEBUG_VALUE: UpdateBootloader:ram_source <- [DW_OP_plus_uconst 20] [$sp+0]
	@DEBUG_VALUE: UpdateBootloader:bcnt <- $r4
	@DEBUG_VALUE: UpdateBootloader:file_size <- $r7
	@DEBUG_VALUE: UpdateBootloader:page_erase_error <- [$sp+0]
	@DEBUG_VALUE: UpdateBootloader:FLASH_EraseInit <- [DW_OP_plus_uconst 4] [$sp+0]
	mov.w	r8, #0
.Ltmp263:
.LBB3_6:
	@DEBUG_VALUE: UpdateBootloader:page_erase_error <- [$sp+0]
	@DEBUG_VALUE: UpdateBootloader:FLASH_EraseInit <- [DW_OP_plus_uconst 4] [$sp+0]
	.loc	2 837 1 is_stmt 1       @ ../Src/rs485.c:837:1
	mov	r0, r8
	add.w	sp, sp, #2064
.Ltmp264:
	add	sp, #4
	pop.w	{r4, r5, r6, r7, r8, r9, pc}
.Ltmp265:
.Lfunc_end3:
	.size	UpdateBootloader, .Lfunc_end3-UpdateBootloader
	.cfi_endproc
	.cantunwind
	.fnend
                                        @ -- End function
	.section	.text.Serial_PutByte,"ax",%progbits
	.p2align	2               @ -- Begin function Serial_PutByte
	.type	Serial_PutByte,%function
	.code	16                      @ @Serial_PutByte
	.thumb_func
Serial_PutByte:
.Lfunc_begin4:
	.loc	2 877 0                 @ ../Src/rs485.c:877:0
	.fnstart
	.cfi_startproc
@ %bb.0:
	.save	{r4, r5, r6, lr}
	push	{r4, r5, r6, lr}
	.cfi_def_cfa_offset 16
	.cfi_offset lr, -4
	.cfi_offset r6, -8
	.cfi_offset r5, -12
	.cfi_offset r4, -16
	.pad	#8
	sub	sp, #8
	.cfi_def_cfa_offset 24
	@DEBUG_VALUE: Serial_PutByte:param <- $r0
	@DEBUG_VALUE: Serial_PutByte:param <- $r0
	strb.w	r0, [sp, #7]
	movw	r4, #2048
	movt	r4, #16385
.Ltmp266:
	.loc	2 878 2 prologue_end    @ ../Src/rs485.c:878:2
	mov	r0, r4
.Ltmp267:
	mov.w	r1, #2048
	movs	r2, #1
	bl	HAL_GPIO_WritePin
	.loc	2 879 2                 @ ../Src/rs485.c:879:2
	movw	r6, :lower16:rs485_timer
	movt	r6, :upper16:rs485_timer
	movs	r0, #123
	str	r0, [r6]
.Ltmp268:
	.loc	2 880 9                 @ ../Src/rs485.c:880:9
	movw	r5, :lower16:huart1
	movt	r5, :upper16:huart1
	add.w	r1, sp, #7
.Ltmp269:
	@DEBUG_VALUE: Serial_PutByte:param <- [DW_OP_plus_uconst 7] [$sp+0]
	mov	r0, r5
	movs	r2, #1
	movs	r3, #123
	bl	HAL_UART_Transmit
.Ltmp270:
	.loc	2 880 9 is_stmt 0       @ ../Src/rs485.c:880:9
	cmp	r0, #0
.Ltmp271:
	.loc	2 880 84                @ ../Src/rs485.c:880:84
	it	ne
	blne	Error_Handler
.Ltmp272:
	.p2align	2
.LBB4_1:                                @ =>This Inner Loop Header: Depth=1
	@DEBUG_VALUE: Serial_PutByte:param <- [DW_OP_plus_uconst 7] [$sp+0]
	.loc	2 881 15 is_stmt 1      @ ../Src/rs485.c:881:15
	ldr	r0, [r5, #60]
	.loc	2 881 2 is_stmt 0       @ ../Src/rs485.c:881:2
	cmp	r0, #32
	bne	.LBB4_1
.Ltmp273:
@ %bb.2:
	@DEBUG_VALUE: Serial_PutByte:param <- [DW_OP_plus_uconst 7] [$sp+0]
	.loc	2 882 2 is_stmt 1       @ ../Src/rs485.c:882:2
	movs	r0, #0
	str	r0, [r6]
	.loc	2 883 2                 @ ../Src/rs485.c:883:2
	mov	r0, r4
	mov.w	r1, #2048
	movs	r2, #0
	bl	HAL_GPIO_WritePin
	.loc	2 884 1                 @ ../Src/rs485.c:884:1
	add	sp, #8
.Ltmp274:
	pop	{r4, r5, r6, pc}
.Ltmp275:
.Lfunc_end4:
	.size	Serial_PutByte, .Lfunc_end4-Serial_PutByte
	.cfi_endproc
	.cantunwind
	.fnend
                                        @ -- End function
	.section	.text.BackupOldFirmware,"ax",%progbits
	.p2align	2               @ -- Begin function BackupOldFirmware
	.type	BackupOldFirmware,%function
	.code	16                      @ @BackupOldFirmware
	.thumb_func
BackupOldFirmware:
.Lfunc_begin5:
	.loc	2 760 0                 @ ../Src/rs485.c:760:0
	.fnstart
	.cfi_startproc
@ %bb.0:
	.save	{r4, r5, r6, r7, lr}
	push	{r4, r5, r6, r7, lr}
	.cfi_def_cfa_offset 20
	.cfi_offset lr, -4
	.cfi_offset r7, -8
	.cfi_offset r6, -12
	.cfi_offset r5, -16
	.cfi_offset r4, -20
	.pad	#260
	sub	sp, #260
	.cfi_def_cfa_offset 280
.Ltmp276:
	@DEBUG_VALUE: BackupOldFirmware:b_cnt <- 0
	@DEBUG_VALUE: BackupOldFirmware:b_total <- 0
	@DEBUG_VALUE: BackupOldFirmware:fl_destination <- 4915200
	mov.w	r4, #4915200
.Ltmp277:
	.loc	2 772 2 prologue_end    @ ../Src/rs485.c:772:2
	mov.w	r0, #4915200
	movs	r1, #1
	bl	FormatFileStorage
	movw	r7, #12288
	movt	r7, #2048
.Ltmp278:
	@DEBUG_VALUE: BackupOldFirmware:fl_address <- $r7
	.loc	2 0 2 is_stmt 0         @ ../Src/rs485.c:0:2
	movs	r6, #0
	add	r5, sp, #4
	b	.LBB5_2
.Ltmp279:
	.p2align	2
.LBB5_1:                                @   in Loop: Header=BB5_2 Depth=1
	@DEBUG_VALUE: BackupOldFirmware:b_cnt <- $r1
	@DEBUG_VALUE: BackupOldFirmware:fl_address <- $r0
	@DEBUG_VALUE: BackupOldFirmware:fl_destination <- $r4
	.loc	2 784 3 is_stmt 1       @ ../Src/rs485.c:784:3
	mov	r0, r4
.Ltmp280:
	mov	r1, r5
.Ltmp281:
	mov.w	r2, #256
	bl	SPI_FLASH_WritePage
.Ltmp282:
	@DEBUG_VALUE: BackupOldFirmware:b_total <- $r6
	.loc	2 776 3                 @ ../Src/rs485.c:776:3
	add.w	r6, r6, #256
.Ltmp283:
	.loc	2 785 6                 @ ../Src/rs485.c:785:6
	mov.w	r0, #500
	bl	SPI_FLASH_WaitReadyStatus
.Ltmp284:
	.loc	2 785 6 is_stmt 0       @ ../Src/rs485.c:785:6
	cmp	r0, #0
.Ltmp285:
	.loc	2 785 58                @ ../Src/rs485.c:785:58
	it	eq
	bleq	Error_Handler
.Ltmp286:
	.loc	2 786 18 is_stmt 1      @ ../Src/rs485.c:786:18
	add.w	r4, r4, #256
.Ltmp287:
	@DEBUG_VALUE: BackupOldFirmware:fl_destination <- $r4
	@DEBUG_VALUE: BackupOldFirmware:b_cnt <- 0
	.loc	2 774 2                 @ ../Src/rs485.c:774:2
	cmp.w	r6, #53248
	.loc	2 789 1                 @ ../Src/rs485.c:789:1
	itt	hs
	addhs	sp, #260
	pophs	{r4, r5, r6, r7, pc}
.Ltmp288:
.LBB5_2:                                @ =>This Loop Header: Depth=1
                                        @     Child Loop BB5_3 Depth 2
	@DEBUG_VALUE: BackupOldFirmware:fl_address <- $r7
	.loc	2 0 1 is_stmt 0         @ ../Src/rs485.c:0:1
	mov	r0, r7
.Ltmp289:
	@DEBUG_VALUE: BackupOldFirmware:fl_address <- $r0
	@DEBUG_VALUE: BackupOldFirmware:b_cnt <- 0
	.loc	2 776 3 is_stmt 1       @ ../Src/rs485.c:776:3
	add.w	r7, r7, #256
	movs	r1, #0
.Ltmp290:
	.p2align	2
.LBB5_3:                                @   Parent Loop BB5_2 Depth=1
                                        @ =>  This Inner Loop Header: Depth=2
	@DEBUG_VALUE: BackupOldFirmware:fl_address <- $r0
	@DEBUG_VALUE: BackupOldFirmware:b_cnt <- $r1
	.loc	2 778 18                @ ../Src/rs485.c:778:18
	ldrb	r2, [r0, r1]
	.loc	2 778 16 is_stmt 0      @ ../Src/rs485.c:778:16
	strb	r2, [r5, r1]
	.loc	2 780 4 is_stmt 1       @ ../Src/rs485.c:780:4
	adds	r1, #1
.Ltmp291:
	@DEBUG_VALUE: BackupOldFirmware:b_cnt <- $r1
	.loc	2 776 3                 @ ../Src/rs485.c:776:3
	cmp.w	r1, #256
	bne	.LBB5_3
	b	.LBB5_1
.Ltmp292:
.Lfunc_end5:
	.size	BackupOldFirmware, .Lfunc_end5-BackupOldFirmware
	.cfi_endproc
	.cantunwind
	.fnend
                                        @ -- End function
	.section	.text.CopyFile,"ax",%progbits
	.p2align	2               @ -- Begin function CopyFile
	.type	CopyFile,%function
	.code	16                      @ @CopyFile
	.thumb_func
CopyFile:
.Lfunc_begin6:
	.loc	2 729 0                 @ ../Src/rs485.c:729:0
	.fnstart
	.cfi_startproc
@ %bb.0:
	.save	{r4, r5, r6, r7, r8, r9, lr}
	push.w	{r4, r5, r6, r7, r8, r9, lr}
	.cfi_def_cfa_offset 28
	.cfi_offset lr, -4
	.cfi_offset r9, -8
	.cfi_offset r8, -12
	.cfi_offset r7, -16
	.cfi_offset r6, -20
	.cfi_offset r5, -24
	.cfi_offset r4, -28
	.pad	#260
	sub	sp, #260
	.cfi_def_cfa_offset 288
	@DEBUG_VALUE: CopyFile:file_source_address <- $r0
	@DEBUG_VALUE: CopyFile:file_destination_address <- $r1
	@DEBUG_VALUE: CopyFile:file_size <- $r2
	mov	r5, r2
	mov	r9, r1
	mov	r6, r0
.Ltmp293:
	@DEBUG_VALUE: CopyFile:file_size <- $r5
	@DEBUG_VALUE: CopyFile:file_destination_address <- $r9
	@DEBUG_VALUE: CopyFile:file_source_address <- $r6
	.loc	2 734 22 prologue_end   @ ../Src/rs485.c:734:22
	movw	r0, #65535
	bic.w	r0, r2, r0
.Ltmp294:
	.loc	2 734 5 is_stmt 0       @ ../Src/rs485.c:734:5
	movs	r1, #1
	.loc	2 733 21 is_stmt 1      @ ../Src/rs485.c:733:21
	lsrs	r2, r2, #16
.Ltmp295:
	@DEBUG_VALUE: CopyFile:cnt <- $r2
	.loc	2 734 5                 @ ../Src/rs485.c:734:5
	cmp	r0, r5
	it	lo
	addlo.w	r2, r1, r5, lsr #16
.Ltmp296:
	@DEBUG_VALUE: CopyFile:cnt <- $r2
	.loc	2 735 2                 @ ../Src/rs485.c:735:2
	uxtb	r1, r2
	mov	r0, r9
	bl	FormatFileStorage
.Ltmp297:
	.loc	2 737 2                 @ ../Src/rs485.c:737:2
	cbz	r5, .LBB6_4
.Ltmp298:
@ %bb.1:
	@DEBUG_VALUE: CopyFile:file_source_address <- $r6
	@DEBUG_VALUE: CopyFile:file_destination_address <- $r9
	@DEBUG_VALUE: CopyFile:file_size <- $r5
	.loc	2 0 2 is_stmt 0         @ ../Src/rs485.c:0:2
	add.w	r8, sp, #4
.Ltmp299:
	.p2align	2
.LBB6_2:                                @ =>This Inner Loop Header: Depth=1
	@DEBUG_VALUE: CopyFile:file_source_address <- $r6
	@DEBUG_VALUE: CopyFile:file_destination_address <- $r9
	@DEBUG_VALUE: CopyFile:file_size <- $r5
	@DEBUG_VALUE: CopyFile:file_size <- $r5
	.loc	2 739 6 is_stmt 1       @ ../Src/rs485.c:739:6
	cmp	r5, #255
	mov	r4, r5
	it	hi
	movhi.w	r4, #256
.Ltmp300:
	@DEBUG_VALUE: CopyFile:cnt <- $r4
	.loc	2 750 9                 @ ../Src/rs485.c:750:9
	uxth	r7, r4
	@DEBUG_VALUE: CopyFile:file_source_address <- $r6
	mov	r0, r6
	mov	r1, r8
	mov	r2, r7
	bl	SPI_FLASH_ReadPage
	@DEBUG_VALUE: CopyFile:file_destination_address <- $r9
	.loc	2 751 9                 @ ../Src/rs485.c:751:9
	mov	r0, r9
	mov	r1, r8
	mov	r2, r7
	bl	SPI_FLASH_WritePage
.Ltmp301:
	.loc	2 752 12                @ ../Src/rs485.c:752:12
	mov.w	r0, #500
	bl	SPI_FLASH_WaitReadyStatus
.Ltmp302:
	.loc	2 752 12 is_stmt 0      @ ../Src/rs485.c:752:12
	cmp	r0, #0
.Ltmp303:
	.loc	2 752 64                @ ../Src/rs485.c:752:64
	it	eq
	bleq	Error_Handler
	subs.w	r0, r5, #256
.Ltmp304:
	.loc	2 737 2 is_stmt 1       @ ../Src/rs485.c:737:2
	beq	.LBB6_4
.Ltmp305:
@ %bb.3:                                @   in Loop: Header=BB6_2 Depth=1
	@DEBUG_VALUE: CopyFile:cnt <- $r4
	@DEBUG_VALUE: CopyFile:file_source_address <- $r6
	@DEBUG_VALUE: CopyFile:file_destination_address <- $r9
	@DEBUG_VALUE: CopyFile:file_size <- $r5
	.loc	2 0 2 is_stmt 0         @ ../Src/rs485.c:0:2
	add	r6, r4
.Ltmp306:
	@DEBUG_VALUE: CopyFile:file_source_address <- $r6
	add	r9, r4
.Ltmp307:
	@DEBUG_VALUE: CopyFile:file_destination_address <- $r9
	.loc	2 737 2                 @ ../Src/rs485.c:737:2
	cmp	r5, #255
	mov	r5, r0
.Ltmp308:
	bhi	.LBB6_2
.Ltmp309:
.LBB6_4:
	@DEBUG_VALUE: CopyFile:file_source_address <- $r6
	@DEBUG_VALUE: CopyFile:file_destination_address <- $r9
	.loc	2 756 1 is_stmt 1       @ ../Src/rs485.c:756:1
	add	sp, #260
	pop.w	{r4, r5, r6, r7, r8, r9, pc}
.Ltmp310:
.Lfunc_end6:
	.size	CopyFile, .Lfunc_end6-CopyFile
	.cfi_endproc
	.cantunwind
	.fnend
                                        @ -- End function
	.section	.text.HAL_UART_ErrorCallback,"ax",%progbits
	.hidden	HAL_UART_ErrorCallback  @ -- Begin function HAL_UART_ErrorCallback
	.globl	HAL_UART_ErrorCallback
	.p2align	2
	.type	HAL_UART_ErrorCallback,%function
	.code	16                      @ @HAL_UART_ErrorCallback
	.thumb_func
HAL_UART_ErrorCallback:
.Lfunc_begin7:
	.loc	2 699 0                 @ ../Src/rs485.c:699:0
	.fnstart
	.cfi_startproc
@ %bb.0:
	.pad	#4
	sub	sp, #4
	.cfi_def_cfa_offset 4
	@DEBUG_VALUE: HAL_UART_ErrorCallback:huart <- $r0
	movs	r1, #0
.Ltmp311:
	@DEBUG_VALUE: tmpreg <- 0
	@DEBUG_VALUE: HAL_UART_ErrorCallback:huart <- $r0
	.loc	2 700 5 prologue_end    @ ../Src/rs485.c:700:5
	str	r1, [sp]
	movw	r2, :lower16:huart1
	movt	r2, :upper16:huart1
	ldr	r2, [r2]
	ldr	r3, [r2]
.Ltmp312:
	@DEBUG_VALUE: tmpreg <- $r3
	str	r3, [sp]
	ldr	r3, [r2, #4]
.Ltmp313:
	@DEBUG_VALUE: tmpreg <- $r3
	str	r3, [sp]
	ldr	r3, [sp]
.Ltmp314:
	@DEBUG_VALUE: tmpreg <- 0
	@DEBUG_VALUE: tmpreg <- $r3
	.loc	2 701 5                 @ ../Src/rs485.c:701:5
	str	r1, [sp]
	ldr	r3, [r2]
.Ltmp315:
	@DEBUG_VALUE: tmpreg <- $r3
	str	r3, [sp]
	ldr	r3, [r2, #4]
.Ltmp316:
	@DEBUG_VALUE: tmpreg <- $r3
	str	r3, [sp]
	ldr	r3, [sp]
.Ltmp317:
	@DEBUG_VALUE: tmpreg <- 0
	@DEBUG_VALUE: tmpreg <- $r3
	.loc	2 702 5                 @ ../Src/rs485.c:702:5
	str	r1, [sp]
	ldr	r3, [r2]
.Ltmp318:
	@DEBUG_VALUE: tmpreg <- $r3
	str	r3, [sp]
	ldr	r3, [r2, #4]
.Ltmp319:
	@DEBUG_VALUE: tmpreg <- $r3
	str	r3, [sp]
	ldr	r3, [sp]
.Ltmp320:
	@DEBUG_VALUE: tmpreg <- 0
	@DEBUG_VALUE: tmpreg <- $r3
	.loc	2 703 5                 @ ../Src/rs485.c:703:5
	str	r1, [sp]
	ldr	r3, [r2]
.Ltmp321:
	@DEBUG_VALUE: tmpreg <- $r3
	str	r3, [sp]
	ldr	r3, [r2, #4]
.Ltmp322:
	@DEBUG_VALUE: tmpreg <- $r3
	str	r3, [sp]
	ldr	r3, [sp]
.Ltmp323:
	@DEBUG_VALUE: tmpreg <- 0
	@DEBUG_VALUE: tmpreg <- $r3
	.loc	2 704 5                 @ ../Src/rs485.c:704:5
	str	r1, [sp]
	ldr	r3, [r2]
.Ltmp324:
	@DEBUG_VALUE: tmpreg <- $r3
	str	r3, [sp]
	ldr	r3, [r2, #4]
.Ltmp325:
	@DEBUG_VALUE: tmpreg <- $r3
	str	r3, [sp]
	ldr	r3, [sp]
.Ltmp326:
	@DEBUG_VALUE: tmpreg <- $r3
	.loc	2 705 2                 @ ../Src/rs485.c:705:2
	ldr	r2, [r2, #4]
	.loc	2 706 19                @ ../Src/rs485.c:706:19
	str	r1, [r0, #68]
	.loc	2 707 15                @ ../Src/rs485.c:707:15
	movw	r0, :lower16:receive_pcnt
.Ltmp327:
	movt	r0, :upper16:receive_pcnt
	str	r1, [r0]
	.loc	2 708 11                @ ../Src/rs485.c:708:11
	movw	r0, :lower16:rec_bcnt
	movt	r0, :upper16:rec_bcnt
	str	r1, [r0]
	.loc	2 709 1                 @ ../Src/rs485.c:709:1
	add	sp, #4
	bx	lr
.Ltmp328:
.Lfunc_end7:
	.size	HAL_UART_ErrorCallback, .Lfunc_end7-HAL_UART_ErrorCallback
	.cfi_endproc
	.cantunwind
	.fnend
                                        @ -- End function
	.section	.text.FLASH_If_Write,"ax",%progbits
	.p2align	2               @ -- Begin function FLASH_If_Write
	.type	FLASH_If_Write,%function
	.code	16                      @ @FLASH_If_Write
	.thumb_func
FLASH_If_Write:
.Lfunc_begin8:
	.loc	2 841 0                 @ ../Src/rs485.c:841:0
	.fnstart
	.cfi_startproc
@ %bb.0:
	.save	{r4, r5, r6, r7, r8, r9, lr}
	push.w	{r4, r5, r6, r7, r8, r9, lr}
	.cfi_def_cfa_offset 28
	.cfi_offset lr, -4
	.cfi_offset r9, -8
	.cfi_offset r8, -12
	.cfi_offset r7, -16
	.cfi_offset r6, -20
	.cfi_offset r5, -24
	.cfi_offset r4, -28
	.pad	#4
	sub	sp, #4
	.cfi_def_cfa_offset 32
	@DEBUG_VALUE: FLASH_If_Write:destination <- $r0
	@DEBUG_VALUE: FLASH_If_Write:p_source <- $r1
	@DEBUG_VALUE: FLASH_If_Write:length <- $r2
	mov	r9, r2
	mov	r5, r1
	mov	r6, r0
.Ltmp329:
	@DEBUG_VALUE: FLASH_If_Write:i <- 0
	@DEBUG_VALUE: FLASH_If_Write:length <- $r9
	@DEBUG_VALUE: FLASH_If_Write:p_source <- $r5
	@DEBUG_VALUE: FLASH_If_Write:destination <- $r6
	.loc	2 845 5 prologue_end    @ ../Src/rs485.c:845:5
	bl	HAL_FLASH_Unlock
	movw	r8, #65533
	movt	r8, #2048
.Ltmp330:
	.loc	2 847 5                 @ ../Src/rs485.c:847:5
	cmp	r6, r8
	bhs	.LBB8_7
.Ltmp331:
@ %bb.1:
	@DEBUG_VALUE: FLASH_If_Write:destination <- $r6
	@DEBUG_VALUE: FLASH_If_Write:p_source <- $r5
	@DEBUG_VALUE: FLASH_If_Write:length <- $r9
	cmp.w	r9, #0
	beq	.LBB8_7
.Ltmp332:
@ %bb.2:
	@DEBUG_VALUE: FLASH_If_Write:destination <- $r6
	@DEBUG_VALUE: FLASH_If_Write:p_source <- $r5
	@DEBUG_VALUE: FLASH_If_Write:length <- $r9
	.loc	2 0 5 is_stmt 0         @ ../Src/rs485.c:0:5
	movs	r4, #0
	movs	r7, #0
.Ltmp333:
	.p2align	2
.LBB8_3:                                @ =>This Inner Loop Header: Depth=1
	@DEBUG_VALUE: FLASH_If_Write:destination <- $r6
	@DEBUG_VALUE: FLASH_If_Write:p_source <- $r5
	@DEBUG_VALUE: FLASH_If_Write:length <- $r9
	@DEBUG_VALUE: FLASH_If_Write:i <- $r4
	.loc	2 851 68 is_stmt 1      @ ../Src/rs485.c:851:68
	ldr.w	r2, [r5, r4, lsl #2]
	@DEBUG_VALUE: FLASH_If_Write:destination <- $r6
	.loc	2 851 13 is_stmt 0      @ ../Src/rs485.c:851:13
	movs	r0, #2
	mov	r1, r6
	movs	r3, #0
	bl	HAL_FLASH_Program
.Ltmp334:
	.loc	2 851 13                @ ../Src/rs485.c:851:13
	cbnz	r0, .LBB8_9
.Ltmp335:
@ %bb.4:                                @   in Loop: Header=BB8_3 Depth=1
	@DEBUG_VALUE: FLASH_If_Write:i <- $r4
	@DEBUG_VALUE: FLASH_If_Write:destination <- $r6
	@DEBUG_VALUE: FLASH_If_Write:p_source <- $r5
	@DEBUG_VALUE: FLASH_If_Write:length <- $r9
	.loc	2 854 44 is_stmt 1      @ ../Src/rs485.c:854:44
	ldr.w	r0, [r5, r4, lsl #2]
	.loc	2 854 17 is_stmt 0      @ ../Src/rs485.c:854:17
	ldr	r1, [r6]
.Ltmp336:
	.loc	2 854 17                @ ../Src/rs485.c:854:17
	cmp	r1, r0
	bne	.LBB8_8
.Ltmp337:
@ %bb.5:                                @   in Loop: Header=BB8_3 Depth=1
	@DEBUG_VALUE: FLASH_If_Write:i <- $r4
	@DEBUG_VALUE: FLASH_If_Write:destination <- $r6
	@DEBUG_VALUE: FLASH_If_Write:p_source <- $r5
	@DEBUG_VALUE: FLASH_If_Write:length <- $r9
	.loc	2 860 25 is_stmt 1      @ ../Src/rs485.c:860:25
	adds	r6, #4
.Ltmp338:
	@DEBUG_VALUE: FLASH_If_Write:destination <- $r6
	.loc	2 847 5                 @ ../Src/rs485.c:847:5
	cmp	r6, r8
	bhs	.LBB8_7
.Ltmp339:
@ %bb.6:                                @   in Loop: Header=BB8_3 Depth=1
	@DEBUG_VALUE: FLASH_If_Write:i <- $r4
	@DEBUG_VALUE: FLASH_If_Write:destination <- $r6
	@DEBUG_VALUE: FLASH_If_Write:p_source <- $r5
	@DEBUG_VALUE: FLASH_If_Write:length <- $r9
	.loc	2 0 5 is_stmt 0         @ ../Src/rs485.c:0:5
	adds	r4, #1
.Ltmp340:
	@DEBUG_VALUE: FLASH_If_Write:i <- $r4
	.loc	2 847 5                 @ ../Src/rs485.c:847:5
	cmp	r4, r9
	blo	.LBB8_3
.Ltmp341:
.LBB8_7:
	@DEBUG_VALUE: FLASH_If_Write:destination <- $r6
	@DEBUG_VALUE: FLASH_If_Write:p_source <- $r5
	@DEBUG_VALUE: FLASH_If_Write:length <- $r9
	.loc	2 870 5 is_stmt 1       @ ../Src/rs485.c:870:5
	bl	HAL_FLASH_Lock
	movs	r7, #1
	b	.LBB8_9
.Ltmp342:
.LBB8_8:
	@DEBUG_VALUE: FLASH_If_Write:i <- $r4
	@DEBUG_VALUE: FLASH_If_Write:destination <- $r6
	@DEBUG_VALUE: FLASH_If_Write:p_source <- $r5
	@DEBUG_VALUE: FLASH_If_Write:length <- $r9
	.loc	2 0 5 is_stmt 0         @ ../Src/rs485.c:0:5
	movs	r7, #0
.Ltmp343:
.LBB8_9:
	@DEBUG_VALUE: FLASH_If_Write:destination <- $r6
	@DEBUG_VALUE: FLASH_If_Write:p_source <- $r5
	@DEBUG_VALUE: FLASH_If_Write:length <- $r9
	.loc	2 873 1 is_stmt 1       @ ../Src/rs485.c:873:1
	mov	r0, r7
	add	sp, #4
	pop.w	{r4, r5, r6, r7, r8, r9, pc}
.Ltmp344:
.Lfunc_end8:
	.size	FLASH_If_Write, .Lfunc_end8-FLASH_If_Write
	.cfi_endproc
	.cantunwind
	.fnend
                                        @ -- End function
	.hidden	eComState               @ @eComState
	.type	eComState,%object
	.section	.bss.eComState,"aw",%nobits
	.globl	eComState
	.p2align	2
eComState:
	.long	0                       @ 0x0
	.size	eComState, 4

	.hidden	rs485_buff              @ @rs485_buff
	.type	rs485_buff,%object
	.section	.bss.rs485_buff,"aw",%nobits
	.globl	rs485_buff
	.p2align	2
rs485_buff:
	.zero	128
	.size	rs485_buff, 128

	.hidden	packet_type             @ @packet_type
	.type	packet_type,%object
	.section	.bss.packet_type,"aw",%nobits
	.globl	packet_type
	.p2align	2
packet_type:
	.long	0                       @ 0x0
	.size	packet_type, 4

	.hidden	receive_pcnt            @ @receive_pcnt
	.type	receive_pcnt,%object
	.section	.bss.receive_pcnt,"aw",%nobits
	.globl	receive_pcnt
	.p2align	2
receive_pcnt:
	.long	0                       @ 0x0
	.size	receive_pcnt, 4

	.hidden	rec_bcnt                @ @rec_bcnt
	.type	rec_bcnt,%object
	.section	.bss.rec_bcnt,"aw",%nobits
	.globl	rec_bcnt
	.p2align	2
rec_bcnt:
	.long	0                       @ 0x0
	.size	rec_bcnt, 4

	.hidden	eTransferMode           @ @eTransferMode
	.type	eTransferMode,%object
	.section	.bss.eTransferMode,"aw",%nobits
	.globl	eTransferMode
	.p2align	2
eTransferMode:
	.long	0                       @ 0x0
	.size	eTransferMode, 4

	.hidden	rs485_timer             @ @rs485_timer
	.type	rs485_timer,%object
	.section	.bss.rs485_timer,"aw",%nobits
	.globl	rs485_timer
	.p2align	2
rs485_timer:
	.long	0                       @ 0x0
	.size	rs485_timer, 4

	.type	RS485_Service.rs485_update_timeout_timer,%object @ @RS485_Service.rs485_update_timeout_timer
	.section	.bss.RS485_Service.rs485_update_timeout_timer,"aw",%nobits
	.p2align	2
RS485_Service.rs485_update_timeout_timer:
	.long	0                       @ 0x0
	.size	RS485_Service.rs485_update_timeout_timer, 4

	.type	RS485_Service.total_bytes_in_file,%object @ @RS485_Service.total_bytes_in_file
	.section	.bss.RS485_Service.total_bytes_in_file,"aw",%nobits
	.p2align	2
RS485_Service.total_bytes_in_file:
	.long	0                       @ 0x0
	.size	RS485_Service.total_bytes_in_file, 4

	.type	RS485_Service.next_packet_number,%object @ @RS485_Service.next_packet_number
	.section	.bss.RS485_Service.next_packet_number,"aw",%nobits
	.p2align	2
RS485_Service.next_packet_number:
	.long	0                       @ 0x0
	.size	RS485_Service.next_packet_number, 4

	.type	RS485_Service.total_packet_number,%object @ @RS485_Service.total_packet_number
	.section	.bss.RS485_Service.total_packet_number,"aw",%nobits
	.p2align	2
RS485_Service.total_packet_number:
	.long	0                       @ 0x0
	.size	RS485_Service.total_packet_number, 4

	.type	RS485_Service.crc_32_calculated,%object @ @RS485_Service.crc_32_calculated
	.section	.bss.RS485_Service.crc_32_calculated,"aw",%nobits
	.p2align	2
RS485_Service.crc_32_calculated:
	.long	0                       @ 0x0
	.size	RS485_Service.crc_32_calculated, 4

	.type	RS485_Service.crc_32_file,%object @ @RS485_Service.crc_32_file
	.section	.bss.RS485_Service.crc_32_file,"aw",%nobits
	.p2align	2
RS485_Service.crc_32_file:
	.long	0                       @ 0x0
	.size	RS485_Service.crc_32_file, 4

	.type	RS485_Service.flash_destination,%object @ @RS485_Service.flash_destination
	.section	.bss.RS485_Service.flash_destination,"aw",%nobits
	.p2align	2
RS485_Service.flash_destination:
	.long	0                       @ 0x0
	.size	RS485_Service.flash_destination, 4

	.type	RS485_Service.file_copy_source_address,%object @ @RS485_Service.file_copy_source_address
	.section	.bss.RS485_Service.file_copy_source_address,"aw",%nobits
	.p2align	2
RS485_Service.file_copy_source_address:
	.byte	0                       @ 0x0
	.size	RS485_Service.file_copy_source_address, 1

	.type	RS485_Service.file_copy_destination_address,%object @ @RS485_Service.file_copy_destination_address
	.section	.bss.RS485_Service.file_copy_destination_address,"aw",%nobits
	.p2align	2
RS485_Service.file_copy_destination_address:
	.long	0                       @ 0x0
	.size	RS485_Service.file_copy_destination_address, 4

	.type	RS485_Service.file_copy_size,%object @ @RS485_Service.file_copy_size
	.section	.bss.RS485_Service.file_copy_size,"aw",%nobits
	.p2align	2
RS485_Service.file_copy_size:
	.long	0                       @ 0x0
	.size	RS485_Service.file_copy_size, 4

	.type	RS485_Service.post_process,%object @ @RS485_Service.post_process
	.section	.bss.RS485_Service.post_process,"aw",%nobits
	.p2align	2
RS485_Service.post_process:
	.byte	0                       @ 0x0
	.size	RS485_Service.post_process, 1

	.hidden	rs485_flags             @ @rs485_flags
	.type	rs485_flags,%object
	.section	.bss.rs485_flags,"aw",%nobits
	.globl	rs485_flags
	.p2align	2
rs485_flags:
	.long	0                       @ 0x0
	.size	rs485_flags, 4

	.hidden	sys_status              @ @sys_status
	.type	sys_status,%object
	.section	.bss.sys_status,"aw",%nobits
	.globl	sys_status
sys_status:
	.byte	0                       @ 0x0
	.size	sys_status, 1

	.hidden	receiving_errors        @ @receiving_errors
	.type	receiving_errors,%object
	.section	.bss.receiving_errors,"aw",%nobits
	.globl	receiving_errors
	.p2align	2
receiving_errors:
	.long	0                       @ 0x0
	.size	receiving_errors, 4

	.hidden	activ_command           @ @activ_command
	.type	activ_command,%object
	.section	.bss.activ_command,"aw",%nobits
	.globl	activ_command
activ_command:
	.byte	0                       @ 0x0
	.size	activ_command, 1

	.hidden	rs485_interface_address @ @rs485_interface_address
	.type	rs485_interface_address,%object
	.section	.bss.rs485_interface_address,"aw",%nobits
	.globl	rs485_interface_address
rs485_interface_address:
	.zero	2
	.size	rs485_interface_address, 2

	.hidden	rs485_group_address     @ @rs485_group_address
	.type	rs485_group_address,%object
	.section	.bss.rs485_group_address,"aw",%nobits
	.globl	rs485_group_address
rs485_group_address:
	.zero	2
	.size	rs485_group_address, 2

	.hidden	rs485_broadcast_address @ @rs485_broadcast_address
	.type	rs485_broadcast_address,%object
	.section	.bss.rs485_broadcast_address,"aw",%nobits
	.globl	rs485_broadcast_address
rs485_broadcast_address:
	.zero	2
	.size	rs485_broadcast_address, 2

	.hidden	rs485_interface_baudrate @ @rs485_interface_baudrate
	.type	rs485_interface_baudrate,%object
	.section	.bss.rs485_interface_baudrate,"aw",%nobits
	.globl	rs485_interface_baudrate
rs485_interface_baudrate:
	.byte	0                       @ 0x0
	.size	rs485_interface_baudrate, 1

	.hidden	rs485_packet_data_lenght @ @rs485_packet_data_lenght
	.type	rs485_packet_data_lenght,%object
	.section	.bss.rs485_packet_data_lenght,"aw",%nobits
	.globl	rs485_packet_data_lenght
	.p2align	2
rs485_packet_data_lenght:
	.long	0                       @ 0x0
	.size	rs485_packet_data_lenght, 4

	.hidden	rs485_sender_address    @ @rs485_sender_address
	.type	rs485_sender_address,%object
	.section	.bss.rs485_sender_address,"aw",%nobits
	.globl	rs485_sender_address
	.p2align	2
rs485_sender_address:
	.long	0                       @ 0x0
	.size	rs485_sender_address, 4

	.hidden	rs485_packet_checksum   @ @rs485_packet_checksum
	.type	rs485_packet_checksum,%object
	.section	.bss.rs485_packet_checksum,"aw",%nobits
	.globl	rs485_packet_checksum
	.p2align	2
rs485_packet_checksum:
	.long	0                       @ 0x0
	.size	rs485_packet_checksum, 4

	.hidden	fw_update_status        @ @fw_update_status
	.type	fw_update_status,%object
	.section	.bss.fw_update_status,"aw",%nobits
	.globl	fw_update_status
fw_update_status:
	.byte	0                       @ 0x0
	.size	fw_update_status, 1

	.file	10 "../Drivers/STM32F1xx_HAL_Driver/Inc" "stm32f1xx_hal_rtc.h"
	.file	11 "../Drivers/STM32F1xx_HAL_Driver/Inc" "stm32f1xx_hal_flash_ex.h"
	.section	".note.GNU-stack","",%progbits
	.eabi_attribute	30, 1	@ Tag_ABI_optimization_goals
	.ARM_attribute	16, 1	@ Tag_AV_eba