	.text
	.syntax unified
	.eabi_attribute	67, "2.09"	@ Tag_conformance
	.cpu	cortex-m3
	.eabi_attribute	6, 10	@ Tag_CPU_arch
	.eabi_attribute	7, 77	@ Tag_CPU_arch_profile
	.eabi_attribute	8, 0	@ Tag_ARM_ISA_use
	.eabi_attribute	9, 2	@ Tag_THUMB_ISA_use
	.eabi_attribute	34, 1	@ Tag_CPU_unaligned_access
	.eabi_attribute	17, 1	@ Tag_ABI_PCS_GOT_use
	.eabi_attribute	20, 2	@ Tag_ABI_FP_denormal
	.eabi_attribute	21, 0	@ Tag_ABI_FP_exceptions
	.eabi_attribute	23, 1	@ Tag_ABI_FP_number_model
	.eabi_attribute	24, 1	@ Tag_ABI_align_needed
	.eabi_attribute	25, 1	@ Tag_ABI_align_preserved
	.eabi_attribute	38, 1	@ Tag_ABI_FP_16bit_format
	.eabi_attribute	18, 4	@ Tag_ABI_PCS_wchar_t
	.eabi_attribute	26, 2	@ Tag_ABI_enum_size
	.eabi_attribute	14, 0	@ Tag_ABI_PCS_R9_use
	.file	"stm32f1xx_hal_crc.c"
	.file	1 "../Drivers/STM32F1xx_HAL_Driver/Inc" "stm32f1xx_hal_def.h"
	.file	2 "../Drivers/STM32F1xx_HAL_Driver/Inc" "stm32f1xx_hal_crc.h"
	.file	3 "C:\\Keil\\ARM\\ARMCLANG\\Bin\\..\\include" "stdint.h"
	.file	4 "../Drivers/CMSIS/Device/ST/STM32F1xx/Include" "stm32f103xb.h"
	.section	.text.HAL_CRC_Init,"ax",%progbits
	.hidden	HAL_CRC_Init            @ -- Begin function HAL_CRC_Init
	.globl	HAL_CRC_Init
	.p2align	2
	.type	HAL_CRC_Init,%function
	.code	16                      @ @HAL_CRC_Init
	.thumb_func
HAL_CRC_Init:
.Lfunc_begin0:
	.file	5 "../Drivers/STM32F1xx_HAL_Driver/Src" "stm32f1xx_hal_crc.c"
	.loc	5 113 0                 @ ../Drivers/STM32F1xx_HAL_Driver/Src/stm32f1xx_hal_crc.c:113:0
	.fnstart
	.cfi_sections .debug_frame
	.cfi_startproc
@ %bb.0:
	.save	{r4, lr}
	push	{r4, lr}
	.cfi_def_cfa_offset 8
	.cfi_offset lr, -4
	.cfi_offset r4, -8
	@DEBUG_VALUE: HAL_CRC_Init:hcrc <- $r0
	mov	r4, r0
.Ltmp0:
	@DEBUG_VALUE: HAL_CRC_Init:hcrc <- $r4
	.loc	5 115 6 prologue_end    @ ../Drivers/STM32F1xx_HAL_Driver/Src/stm32f1xx_hal_crc.c:115:6
	cmp	r0, #0
	itt	eq
	moveq	r0, #1
	.loc	5 137 1                 @ ../Drivers/STM32F1xx_HAL_Driver/Src/stm32f1xx_hal_crc.c:137:1
	popeq	{r4, pc}
.Ltmp1:
	.loc	5 123 12                @ ../Drivers/STM32F1xx_HAL_Driver/Src/stm32f1xx_hal_crc.c:123:12
	ldr	r0, [r4, #8]
.Ltmp2:
	.loc	5 123 6 is_stmt 0       @ ../Drivers/STM32F1xx_HAL_Driver/Src/stm32f1xx_hal_crc.c:123:6
	cbnz	r0, .LBB0_2
@ %bb.1:
.Ltmp3:
	.loc	5 126 16 is_stmt 1      @ ../Drivers/STM32F1xx_HAL_Driver/Src/stm32f1xx_hal_crc.c:126:16
	movs	r0, #0
	str	r0, [r4, #4]
	.loc	5 129 5                 @ ../Drivers/STM32F1xx_HAL_Driver/Src/stm32f1xx_hal_crc.c:129:5
	mov	r0, r4
	bl	HAL_CRC_MspInit
.Ltmp4:
.LBB0_2:
	.loc	5 133 15                @ ../Drivers/STM32F1xx_HAL_Driver/Src/stm32f1xx_hal_crc.c:133:15
	movs	r0, #1
	str	r0, [r4, #8]
	movs	r0, #0
	.loc	5 137 1                 @ ../Drivers/STM32F1xx_HAL_Driver/Src/stm32f1xx_hal_crc.c:137:1
	pop	{r4, pc}
.Ltmp5:
.Lfunc_end0:
	.size	HAL_CRC_Init, .Lfunc_end0-HAL_CRC_Init
	.cfi_endproc
	.cantunwind
	.fnend
                                        @ -- End function
	.section	.text.HAL_CRC_MspInit,"ax",%progbits
	.hidden	HAL_CRC_MspInit         @ -- Begin function HAL_CRC_MspInit
	.weak	HAL_CRC_MspInit
	.p2align	2
	.type	HAL_CRC_MspInit,%function
	.code	16                      @ @HAL_CRC_MspInit
	.thumb_func
HAL_CRC_MspInit:
.Lfunc_begin1:
	.loc	5 185 0                 @ ../Drivers/STM32F1xx_HAL_Driver/Src/stm32f1xx_hal_crc.c:185:0
	.fnstart
	.cfi_startproc
@ %bb.0:
	@DEBUG_VALUE: HAL_CRC_MspInit:hcrc <- $r0
	.loc	5 191 1 prologue_end    @ ../Drivers/STM32F1xx_HAL_Driver/Src/stm32f1xx_hal_crc.c:191:1
	bx	lr
.Ltmp6:
.Lfunc_end1:
	.size	HAL_CRC_MspInit, .Lfunc_end1-HAL_CRC_MspInit
	.cfi_endproc
	.cantunwind
	.fnend
                                        @ -- End function
	.section	.text.HAL_CRC_DeInit,"ax",%progbits
	.hidden	HAL_CRC_DeInit          @ -- Begin function HAL_CRC_DeInit
	.globl	HAL_CRC_DeInit
	.p2align	2
	.type	HAL_CRC_DeInit,%function
	.code	16                      @ @HAL_CRC_DeInit
	.thumb_func
HAL_CRC_DeInit:
.Lfunc_begin2:
	.loc	5 146 0                 @ ../Drivers/STM32F1xx_HAL_Driver/Src/stm32f1xx_hal_crc.c:146:0
	.fnstart
	.cfi_startproc
@ %bb.0:
	.save	{r4, lr}
	push	{r4, lr}
	.cfi_def_cfa_offset 8
	.cfi_offset lr, -4
	.cfi_offset r4, -8
	@DEBUG_VALUE: HAL_CRC_DeInit:hcrc <- $r0
	mov	r4, r0
.Ltmp7:
	@DEBUG_VALUE: HAL_CRC_DeInit:hcrc <- $r4
	.loc	5 148 6 prologue_end    @ ../Drivers/STM32F1xx_HAL_Driver/Src/stm32f1xx_hal_crc.c:148:6
	cmp	r0, #0
	itt	eq
	moveq	r0, #1
	.loc	5 176 1                 @ ../Drivers/STM32F1xx_HAL_Driver/Src/stm32f1xx_hal_crc.c:176:1
	popeq	{r4, pc}
.Ltmp8:
	.loc	5 157 15                @ ../Drivers/STM32F1xx_HAL_Driver/Src/stm32f1xx_hal_crc.c:157:15
	movs	r0, #2
	str	r0, [r4, #8]
	.loc	5 160 3                 @ ../Drivers/STM32F1xx_HAL_Driver/Src/stm32f1xx_hal_crc.c:160:3
	mov	r0, r4
	bl	HAL_CRC_MspDeInit
	.loc	5 163 3                 @ ../Drivers/STM32F1xx_HAL_Driver/Src/stm32f1xx_hal_crc.c:163:3
	ldr	r1, [r4]
	ldr	r0, [r1, #8]
	orr	r0, r0, #1
	str	r0, [r1, #8]
	.loc	5 166 3                 @ ../Drivers/STM32F1xx_HAL_Driver/Src/stm32f1xx_hal_crc.c:166:3
	ldrb	r0, [r1, #4]
	movs	r0, #0
	strb	r0, [r1, #4]
.Ltmp9:
	.loc	5 172 3                 @ ../Drivers/STM32F1xx_HAL_Driver/Src/stm32f1xx_hal_crc.c:172:3
	str	r0, [r4, #4]
.Ltmp10:
	.loc	5 169 15                @ ../Drivers/STM32F1xx_HAL_Driver/Src/stm32f1xx_hal_crc.c:169:15
	str	r0, [r4, #8]
	.loc	5 176 1                 @ ../Drivers/STM32F1xx_HAL_Driver/Src/stm32f1xx_hal_crc.c:176:1
	pop	{r4, pc}
.Ltmp11:
.Lfunc_end2:
	.size	HAL_CRC_DeInit, .Lfunc_end2-HAL_CRC_DeInit
	.cfi_endproc
	.cantunwind
	.fnend
                                        @ -- End function
	.section	.text.HAL_CRC_MspDeInit,"ax",%progbits
	.hidden	HAL_CRC_MspDeInit       @ -- Begin function HAL_CRC_MspDeInit
	.weak	HAL_CRC_MspDeInit
	.p2align	2
	.type	HAL_CRC_MspDeInit,%function
	.code	16                      @ @HAL_CRC_MspDeInit
	.thumb_func
HAL_CRC_MspDeInit:
.Lfunc_begin3:
	.loc	5 200 0                 @ ../Drivers/STM32F1xx_HAL_Driver/Src/stm32f1xx_hal_crc.c:200:0
	.fnstart
	.cfi_startproc
@ %bb.0:
	@DEBUG_VALUE: HAL_CRC_MspDeInit:hcrc <- $r0
	.loc	5 206 1 prologue_end    @ ../Drivers/STM32F1xx_HAL_Driver/Src/stm32f1xx_hal_crc.c:206:1
	bx	lr
.Ltmp12:
.Lfunc_end3:
	.size	HAL_CRC_MspDeInit, .Lfunc_end3-HAL_CRC_MspDeInit
	.cfi_endproc
	.cantunwind
	.fnend
                                        @ -- End function
	.section	.text.HAL_CRC_Accumulate,"ax",%progbits
	.hidden	HAL_CRC_Accumulate      @ -- Begin function HAL_CRC_Accumulate
	.globl	HAL_CRC_Accumulate
	.p2align	2
	.type	HAL_CRC_Accumulate,%function
	.code	16                      @ @HAL_CRC_Accumulate
	.thumb_func
HAL_CRC_Accumulate:
.Lfunc_begin4:
	.loc	5 239 0                 @ ../Drivers/STM32F1xx_HAL_Driver/Src/stm32f1xx_hal_crc.c:239:0
	.fnstart
	.cfi_startproc
@ %bb.0:
	@DEBUG_VALUE: HAL_CRC_Accumulate:hcrc <- $r0
	@DEBUG_VALUE: HAL_CRC_Accumulate:hcrc <- $r0
	@DEBUG_VALUE: HAL_CRC_Accumulate:pBuffer <- $r1
	@DEBUG_VALUE: HAL_CRC_Accumulate:pBuffer <- $r1
	@DEBUG_VALUE: HAL_CRC_Accumulate:BufferLength <- $r2
	@DEBUG_VALUE: HAL_CRC_Accumulate:BufferLength <- $r2
	@DEBUG_VALUE: HAL_CRC_Accumulate:index <- 0
	.loc	5 243 3 prologue_end    @ ../Drivers/STM32F1xx_HAL_Driver/Src/stm32f1xx_hal_crc.c:243:3
	ldr.w	r12, [r0, #4]
	movs	r3, #2
.Ltmp13:
	.loc	5 243 3 is_stmt 0       @ ../Drivers/STM32F1xx_HAL_Driver/Src/stm32f1xx_hal_crc.c:243:3
	cmp.w	r12, #1
	beq	.LBB4_4
.Ltmp14:
@ %bb.1:
	@DEBUG_VALUE: HAL_CRC_Accumulate:BufferLength <- $r2
	@DEBUG_VALUE: HAL_CRC_Accumulate:pBuffer <- $r1
	@DEBUG_VALUE: HAL_CRC_Accumulate:hcrc <- $r0
	.loc	5 0 3                   @ ../Drivers/STM32F1xx_HAL_Driver/Src/stm32f1xx_hal_crc.c:0:3
	.save	{r7, lr}
	push	{r7, lr}
	.cfi_def_cfa_offset 8
	.cfi_offset lr, -4
	.cfi_offset r7, -8
	.loc	5 246 15 is_stmt 1      @ ../Drivers/STM32F1xx_HAL_Driver/Src/stm32f1xx_hal_crc.c:246:15
	str	r3, [r0, #8]
.Ltmp15:
	.loc	5 243 3                 @ ../Drivers/STM32F1xx_HAL_Driver/Src/stm32f1xx_hal_crc.c:243:3
	mov.w	r12, #1
	@DEBUG_VALUE: HAL_CRC_Accumulate:index <- 0
	str.w	r12, [r0, #4]
.Ltmp16:
	.loc	5 249 3                 @ ../Drivers/STM32F1xx_HAL_Driver/Src/stm32f1xx_hal_crc.c:249:3
	cbz	r2, .LBB4_3
.Ltmp17:
	.p2align	2
.LBB4_2:                                @ =>This Inner Loop Header: Depth=1
	@DEBUG_VALUE: HAL_CRC_Accumulate:BufferLength <- $r2
	@DEBUG_VALUE: HAL_CRC_Accumulate:pBuffer <- $r1
	@DEBUG_VALUE: HAL_CRC_Accumulate:hcrc <- $r0
	.loc	5 251 11                @ ../Drivers/STM32F1xx_HAL_Driver/Src/stm32f1xx_hal_crc.c:251:11
	ldr.w	lr, [r0]
	.loc	5 251 26 is_stmt 0      @ ../Drivers/STM32F1xx_HAL_Driver/Src/stm32f1xx_hal_crc.c:251:26
	ldr	r3, [r1], #4
.Ltmp18:
	.loc	5 251 24                @ ../Drivers/STM32F1xx_HAL_Driver/Src/stm32f1xx_hal_crc.c:251:24
	str.w	r3, [lr]
.Ltmp19:
	.loc	5 249 25 is_stmt 1      @ ../Drivers/STM32F1xx_HAL_Driver/Src/stm32f1xx_hal_crc.c:249:25
	subs	r2, #1
.Ltmp20:
	.loc	5 249 3 is_stmt 0       @ ../Drivers/STM32F1xx_HAL_Driver/Src/stm32f1xx_hal_crc.c:249:3
	bne	.LBB4_2
.Ltmp21:
.LBB4_3:
	@DEBUG_VALUE: HAL_CRC_Accumulate:hcrc <- $r0
	.loc	5 0 3                   @ ../Drivers/STM32F1xx_HAL_Driver/Src/stm32f1xx_hal_crc.c:0:3
	movs	r1, #0
.Ltmp22:
	.loc	5 258 3 is_stmt 1       @ ../Drivers/STM32F1xx_HAL_Driver/Src/stm32f1xx_hal_crc.c:258:3
	str	r1, [r0, #4]
.Ltmp23:
	.loc	5 255 15                @ ../Drivers/STM32F1xx_HAL_Driver/Src/stm32f1xx_hal_crc.c:255:15
	str.w	r12, [r0, #8]
	.loc	5 261 16                @ ../Drivers/STM32F1xx_HAL_Driver/Src/stm32f1xx_hal_crc.c:261:16
	ldr	r0, [r0]
.Ltmp24:
	.loc	5 261 26 is_stmt 0      @ ../Drivers/STM32F1xx_HAL_Driver/Src/stm32f1xx_hal_crc.c:261:26
	ldr	r3, [r0]
	pop.w	{r7, lr}
.LBB4_4:
	.loc	5 262 1 is_stmt 1       @ ../Drivers/STM32F1xx_HAL_Driver/Src/stm32f1xx_hal_crc.c:262:1
	mov	r0, r3
	bx	lr
.Ltmp25:
.Lfunc_end4:
	.size	HAL_CRC_Accumulate, .Lfunc_end4-HAL_CRC_Accumulate
	.cfi_endproc
	.cantunwind
	.fnend
                                        @ -- End function
	.section	.text.HAL_CRC_Calculate,"ax",%progbits
	.hidden	HAL_CRC_Calculate       @ -- Begin function HAL_CRC_Calculate
	.globl	HAL_CRC_Calculate
	.p2align	2
	.type	HAL_CRC_Calculate,%function
	.code	16                      @ @HAL_CRC_Calculate
	.thumb_func
HAL_CRC_Calculate:
.Lfunc_begin5:
	.loc	5 274 0                 @ ../Drivers/STM32F1xx_HAL_Driver/Src/stm32f1xx_hal_crc.c:274:0
	.fnstart
	.cfi_startproc
@ %bb.0:
	@DEBUG_VALUE: HAL_CRC_Calculate:hcrc <- $r0
	@DEBUG_VALUE: HAL_CRC_Calculate:hcrc <- $r0
	@DEBUG_VALUE: HAL_CRC_Calculate:pBuffer <- $r1
	@DEBUG_VALUE: HAL_CRC_Calculate:pBuffer <- $r1
	@DEBUG_VALUE: HAL_CRC_Calculate:BufferLength <- $r2
	@DEBUG_VALUE: HAL_CRC_Calculate:BufferLength <- $r2
	@DEBUG_VALUE: HAL_CRC_Calculate:index <- 0
	.loc	5 278 3 prologue_end    @ ../Drivers/STM32F1xx_HAL_Driver/Src/stm32f1xx_hal_crc.c:278:3
	ldr.w	r12, [r0, #4]
	movs	r3, #2
.Ltmp26:
	.loc	5 278 3 is_stmt 0       @ ../Drivers/STM32F1xx_HAL_Driver/Src/stm32f1xx_hal_crc.c:278:3
	cmp.w	r12, #1
	beq	.LBB5_4
.Ltmp27:
@ %bb.1:
	@DEBUG_VALUE: HAL_CRC_Calculate:BufferLength <- $r2
	@DEBUG_VALUE: HAL_CRC_Calculate:pBuffer <- $r1
	@DEBUG_VALUE: HAL_CRC_Calculate:hcrc <- $r0
	.loc	5 0 3                   @ ../Drivers/STM32F1xx_HAL_Driver/Src/stm32f1xx_hal_crc.c:0:3
	.save	{r7, lr}
	push	{r7, lr}
	.cfi_def_cfa_offset 8
	.cfi_offset lr, -4
	.cfi_offset r7, -8
	.loc	5 281 15 is_stmt 1      @ ../Drivers/STM32F1xx_HAL_Driver/Src/stm32f1xx_hal_crc.c:281:15
	str	r3, [r0, #8]
.Ltmp28:
	.loc	5 278 3                 @ ../Drivers/STM32F1xx_HAL_Driver/Src/stm32f1xx_hal_crc.c:278:3
	mov.w	r12, #1
	str.w	r12, [r0, #4]
.Ltmp29:
	.loc	5 284 3                 @ ../Drivers/STM32F1xx_HAL_Driver/Src/stm32f1xx_hal_crc.c:284:3
	ldr.w	lr, [r0]
	ldr.w	r3, [lr, #8]
	orr	r3, r3, #1
	@DEBUG_VALUE: HAL_CRC_Calculate:index <- 0
	str.w	r3, [lr, #8]
.Ltmp30:
	.loc	5 287 3                 @ ../Drivers/STM32F1xx_HAL_Driver/Src/stm32f1xx_hal_crc.c:287:3
	cbz	r2, .LBB5_3
.Ltmp31:
	.p2align	2
.LBB5_2:                                @ =>This Inner Loop Header: Depth=1
	@DEBUG_VALUE: HAL_CRC_Calculate:BufferLength <- $r2
	@DEBUG_VALUE: HAL_CRC_Calculate:pBuffer <- $r1
	@DEBUG_VALUE: HAL_CRC_Calculate:hcrc <- $r0
	.loc	5 289 26                @ ../Drivers/STM32F1xx_HAL_Driver/Src/stm32f1xx_hal_crc.c:289:26
	ldr	r3, [r1], #4
.Ltmp32:
	.loc	5 289 24 is_stmt 0      @ ../Drivers/STM32F1xx_HAL_Driver/Src/stm32f1xx_hal_crc.c:289:24
	str.w	r3, [lr]
.Ltmp33:
	.loc	5 287 25 is_stmt 1      @ ../Drivers/STM32F1xx_HAL_Driver/Src/stm32f1xx_hal_crc.c:287:25
	subs	r2, #1
.Ltmp34:
	.loc	5 287 3 is_stmt 0       @ ../Drivers/STM32F1xx_HAL_Driver/Src/stm32f1xx_hal_crc.c:287:3
	bne	.LBB5_2
.Ltmp35:
.LBB5_3:
	@DEBUG_VALUE: HAL_CRC_Calculate:hcrc <- $r0
	.loc	5 0 3                   @ ../Drivers/STM32F1xx_HAL_Driver/Src/stm32f1xx_hal_crc.c:0:3
	movs	r1, #0
.Ltmp36:
	.loc	5 296 3 is_stmt 1       @ ../Drivers/STM32F1xx_HAL_Driver/Src/stm32f1xx_hal_crc.c:296:3
	str	r1, [r0, #4]
.Ltmp37:
	.loc	5 293 15                @ ../Drivers/STM32F1xx_HAL_Driver/Src/stm32f1xx_hal_crc.c:293:15
	str.w	r12, [r0, #8]
	.loc	5 299 26                @ ../Drivers/STM32F1xx_HAL_Driver/Src/stm32f1xx_hal_crc.c:299:26
	ldr.w	r3, [lr]
	pop.w	{r7, lr}
.LBB5_4:
	@DEBUG_VALUE: HAL_CRC_Calculate:hcrc <- $r0
	.loc	5 300 1                 @ ../Drivers/STM32F1xx_HAL_Driver/Src/stm32f1xx_hal_crc.c:300:1
	mov	r0, r3
	bx	lr
.Ltmp38:
.Lfunc_end5:
	.size	HAL_CRC_Calculate, .Lfunc_end5-HAL_CRC_Calculate
	.cfi_endproc
	.cantunwind
	.fnend
                                        @ -- End function
	.section	.text.HAL_CRC_GetState,"ax",%progbits
	.hidden	HAL_CRC_GetState        @ -- Begin function HAL_CRC_GetState
	.globl	HAL_CRC_GetState
	.p2align	2
	.type	HAL_CRC_GetState,%function
	.code	16                      @ @HAL_CRC_GetState
	.thumb_func
HAL_CRC_GetState:
.Lfunc_begin6:
	.loc	5 327 0                 @ ../Drivers/STM32F1xx_HAL_Driver/Src/stm32f1xx_hal_crc.c:327:0
	.fnstart
	.cfi_startproc
@ %bb.0:
	@DEBUG_VALUE: HAL_CRC_GetState:hcrc <- $r0
	@DEBUG_VALUE: HAL_CRC_GetState:hcrc <- $r0
	.loc	5 328 16 prologue_end   @ ../Drivers/STM32F1xx_HAL_Driver/Src/stm32f1xx_hal_crc.c:328:16
	ldr	r0, [r0, #8]
.Ltmp39:
	.loc	5 328 3 is_stmt 0       @ ../Drivers/STM32F1xx_HAL_Driver/Src/stm32f1xx_hal_crc.c:328:3
	bx	lr
.Ltmp40:
.Lfunc_end6:
	.size	HAL_CRC_GetState, .Lfunc_end6-HAL_CRC_GetState
	.cfi_endproc
	.cantunwind
	.fnend
                                        @ -- End function
	.section	.text.CRC_ResetDR,"ax",%progbits
	.hidden	CRC_ResetDR             @ -- Begin function CRC_ResetDR
	.globl	CRC_ResetDR
	.p2align	2
	.type	CRC_ResetDR,%function
	.code	16                      @ @CRC_ResetDR
	.thumb_func
CRC_ResetDR:
.Lfunc_begin7:
	.loc	5 335 0 is_stmt 1       @ ../Drivers/STM32F1xx_HAL_Driver/Src/stm32f1xx_hal_crc.c:335:0
	.fnstart
	.cfi_startproc
@ %bb.0:
	.loc	5 337 11 prologue_end   @ ../Drivers/STM32F1xx_HAL_Driver/Src/stm32f1xx_hal_crc.c:337:11
	movw	r0, #12296
	movt	r0, #16386
	movs	r1, #1
	str	r1, [r0]
	.loc	5 338 1                 @ ../Drivers/STM32F1xx_HAL_Driver/Src/stm32f1xx_hal_crc.c:338:1
	bx	lr
.Ltmp41:
.Lfunc_end7:
	.size	CRC_ResetDR, .Lfunc_end7-CRC_ResetDR
	.cfi_endproc
	.cantunwind
	.fnend
                                        @ -- End function
	.section	.text.CRC_Calculate8,"ax",%progbits
	.hidden	CRC_Calculate8          @ -- Begin function CRC_Calculate8
	.globl	CRC_Calculate8
	.p2align	2
	.type	CRC_Calculate8,%function
	.code	16                      @ @CRC_Calculate8
	.thumb_func
CRC_Calculate8:
.Lfunc_begin8:
	.loc	5 340 0                 @ ../Drivers/STM32F1xx_HAL_Driver/Src/stm32f1xx_hal_crc.c:340:0
	.fnstart
	.cfi_startproc
@ %bb.0:
	@DEBUG_VALUE: CRC_Calculate8:arr <- $r0
	@DEBUG_VALUE: CRC_Calculate8:count <- $r1
	movw	r2, #12288
	movt	r2, #16386
.Ltmp42:
	@DEBUG_VALUE: CRC_Calculate8:index <- 0
	@DEBUG_VALUE: CRC_Calculate8:count <- $r1
	@DEBUG_VALUE: CRC_Calculate8:arr <- $r0
	.loc	5 344 2 prologue_end    @ ../Drivers/STM32F1xx_HAL_Driver/Src/stm32f1xx_hal_crc.c:344:2
	cbz	r1, .LBB8_2
.Ltmp43:
	.p2align	2
.LBB8_1:                                @ =>This Inner Loop Header: Depth=1
	@DEBUG_VALUE: CRC_Calculate8:count <- $r1
	@DEBUG_VALUE: CRC_Calculate8:arr <- $r0
	@DEBUG_VALUE: CRC_Calculate8:arr <- $r0
	.loc	5 346 13                @ ../Drivers/STM32F1xx_HAL_Driver/Src/stm32f1xx_hal_crc.c:346:13
	ldrb	r3, [r0], #1
.Ltmp44:
	.loc	5 346 11 is_stmt 0      @ ../Drivers/STM32F1xx_HAL_Driver/Src/stm32f1xx_hal_crc.c:346:11
	str	r3, [r2]
.Ltmp45:
	.loc	5 344 23 is_stmt 1      @ ../Drivers/STM32F1xx_HAL_Driver/Src/stm32f1xx_hal_crc.c:344:23
	subs	r1, #1
.Ltmp46:
	.loc	5 344 2 is_stmt 0       @ ../Drivers/STM32F1xx_HAL_Driver/Src/stm32f1xx_hal_crc.c:344:2
	bne	.LBB8_1
.Ltmp47:
.LBB8_2:
	.loc	5 348 15 is_stmt 1      @ ../Drivers/STM32F1xx_HAL_Driver/Src/stm32f1xx_hal_crc.c:348:15
	ldr	r0, [r2]
	.loc	5 348 2 is_stmt 0       @ ../Drivers/STM32F1xx_HAL_Driver/Src/stm32f1xx_hal_crc.c:348:2
	bx	lr
.Ltmp48:
.Lfunc_end8:
	.size	CRC_Calculate8, .Lfunc_end8-CRC_Calculate8
	.cfi_endproc
	.cantunwind
	.fnend
                                        @ -- End function
	.section	.text.CRC_Calculate16,"ax",%progbits
	.hidden	CRC_Calculate16         @ -- Begin function CRC_Calculate16
	.globl	CRC_Calculate16
	.p2align	2
	.type	CRC_Calculate16,%function
	.code	16                      @ @CRC_Calculate16
	.thumb_func
CRC_Calculate16:
.Lfunc_begin9:
	.loc	5 351 0 is_stmt 1       @ ../Drivers/STM32F1xx_HAL_Driver/Src/stm32f1xx_hal_crc.c:351:0
	.fnstart
	.cfi_startproc
@ %bb.0:
	@DEBUG_VALUE: CRC_Calculate16:arr <- $r0
	@DEBUG_VALUE: CRC_Calculate16:count <- $r1
	movw	r2, #12288
	movt	r2, #16386
	@DEBUG_VALUE: CRC_Calculate16:count <- $r1
	@DEBUG_VALUE: CRC_Calculate16:arr <- $r0
.Ltmp49:
	.loc	5 355 2 prologue_end    @ ../Drivers/STM32F1xx_HAL_Driver/Src/stm32f1xx_hal_crc.c:355:2
	cbz	r1, .LBB9_2
.Ltmp50:
	.p2align	2
.LBB9_1:                                @ =>This Inner Loop Header: Depth=1
	@DEBUG_VALUE: CRC_Calculate16:count <- $r1
	@DEBUG_VALUE: CRC_Calculate16:arr <- $r0
	@DEBUG_VALUE: CRC_Calculate16:arr <- $r0
	@DEBUG_VALUE: CRC_Calculate16:count <- $r1
	.loc	5 357 13                @ ../Drivers/STM32F1xx_HAL_Driver/Src/stm32f1xx_hal_crc.c:357:13
	ldrh	r3, [r0], #2
.Ltmp51:
	.loc	5 357 11 is_stmt 0      @ ../Drivers/STM32F1xx_HAL_Driver/Src/stm32f1xx_hal_crc.c:357:11
	str	r3, [r2]
.Ltmp52:
	.loc	5 355 14 is_stmt 1      @ ../Drivers/STM32F1xx_HAL_Driver/Src/stm32f1xx_hal_crc.c:355:14
	subs	r1, #1
.Ltmp53:
	@DEBUG_VALUE: CRC_Calculate16:count <- $r1
	.loc	5 355 2 is_stmt 0       @ ../Drivers/STM32F1xx_HAL_Driver/Src/stm32f1xx_hal_crc.c:355:2
	bne	.LBB9_1
.Ltmp54:
.LBB9_2:
	@DEBUG_VALUE: CRC_Calculate16:count <- $r1
	.loc	5 361 14 is_stmt 1      @ ../Drivers/STM32F1xx_HAL_Driver/Src/stm32f1xx_hal_crc.c:361:14
	ldr	r0, [r2]
	.loc	5 361 2 is_stmt 0       @ ../Drivers/STM32F1xx_HAL_Driver/Src/stm32f1xx_hal_crc.c:361:2
	bx	lr
.Ltmp55:
.Lfunc_end9:
	.size	CRC_Calculate16, .Lfunc_end9-CRC_Calculate16
	.cfi_endproc
	.cantunwind
	.fnend
                                        @ -- End function
	.section	.text.CRC_Calculate32,"ax",%progbits
	.hidden	CRC_Calculate32         @ -- Begin function CRC_Calculate32
	.globl	CRC_Calculate32
	.p2align	2
	.type	CRC_Calculate32,%function
	.code	16                      @ @CRC_Calculate32
	.thumb_func
CRC_Calculate32:
.Lfunc_begin10:
	.loc	5 364 0 is_stmt 1       @ ../Drivers/STM32F1xx_HAL_Driver/Src/stm32f1xx_hal_crc.c:364:0
	.fnstart
	.cfi_startproc
@ %bb.0:
	@DEBUG_VALUE: CRC_Calculate32:arr <- $r0
	@DEBUG_VALUE: CRC_Calculate32:count <- $r1
	movw	r2, #12288
	movt	r2, #16386
	@DEBUG_VALUE: CRC_Calculate32:count <- $r1
	@DEBUG_VALUE: CRC_Calculate32:arr <- $r0
.Ltmp56:
	.loc	5 368 2 prologue_end    @ ../Drivers/STM32F1xx_HAL_Driver/Src/stm32f1xx_hal_crc.c:368:2
	cbz	r1, .LBB10_2
.Ltmp57:
	.p2align	2
.LBB10_1:                               @ =>This Inner Loop Header: Depth=1
	@DEBUG_VALUE: CRC_Calculate32:count <- $r1
	@DEBUG_VALUE: CRC_Calculate32:arr <- $r0
	@DEBUG_VALUE: CRC_Calculate32:arr <- $r0
	@DEBUG_VALUE: CRC_Calculate32:count <- $r1
	.loc	5 370 13                @ ../Drivers/STM32F1xx_HAL_Driver/Src/stm32f1xx_hal_crc.c:370:13
	ldr	r3, [r0], #4
.Ltmp58:
	.loc	5 370 11 is_stmt 0      @ ../Drivers/STM32F1xx_HAL_Driver/Src/stm32f1xx_hal_crc.c:370:11
	str	r3, [r2]
.Ltmp59:
	.loc	5 368 14 is_stmt 1      @ ../Drivers/STM32F1xx_HAL_Driver/Src/stm32f1xx_hal_crc.c:368:14
	subs	r1, #1
.Ltmp60:
	@DEBUG_VALUE: CRC_Calculate32:count <- $r1
	.loc	5 368 2 is_stmt 0       @ ../Drivers/STM32F1xx_HAL_Driver/Src/stm32f1xx_hal_crc.c:368:2
	bne	.LBB10_1
.Ltmp61:
.LBB10_2:
	@DEBUG_VALUE: CRC_Calculate32:count <- $r1
	.loc	5 374 14 is_stmt 1      @ ../Drivers/STM32F1xx_HAL_Driver/Src/stm32f1xx_hal_crc.c:374:14
	ldr	r0, [r2]
	.loc	5 374 2 is_stmt 0       @ ../Drivers/STM32F1xx_HAL_Driver/Src/stm32f1xx_hal_crc.c:374:2
	bx	lr
.Ltmp62:
.Lfunc_end10:
	.size	CRC_Calculate32, .Lfunc_end10-CRC_Calculate32
	.cfi_endproc
	.cantunwind
	.fnend
                                        @ -- End function
	.section	".note.GNU-stack","",%progbits
	.eabi_attribute	30, 1	@ Tag_ABI_optimization_goals
	.ARM_attribute	16, 1	@ Tag_AV_eba