	.text
	.syntax unified
	.eabi_attribute	67, "2.09"	@ Tag_conformance
	.cpu	cortex-m3
	.eabi_attribute	6, 10	@ Tag_CPU_arch
	.eabi_attribute	7, 77	@ Tag_CPU_arch_profile
	.eabi_attribute	8, 0	@ Tag_ARM_ISA_use
	.eabi_attribute	9, 2	@ Tag_THUMB_ISA_use
	.eabi_attribute	34, 1	@ Tag_CPU_unaligned_access
	.eabi_attribute	17, 1	@ Tag_ABI_PCS_GOT_use
	.eabi_attribute	20, 2	@ Tag_ABI_FP_denormal
	.eabi_attribute	21, 0	@ Tag_ABI_FP_exceptions
	.eabi_attribute	23, 1	@ Tag_ABI_FP_number_model
	.eabi_attribute	24, 1	@ Tag_ABI_align_needed
	.eabi_attribute	25, 1	@ Tag_ABI_align_preserved
	.eabi_attribute	38, 1	@ Tag_ABI_FP_16bit_format
	.eabi_attribute	18, 4	@ Tag_ABI_PCS_wchar_t
	.eabi_attribute	26, 2	@ Tag_ABI_enum_size
	.eabi_attribute	14, 0	@ Tag_ABI_PCS_R9_use
	.file	"stm32f1xx_hal_adc.c"
	.file	1 "../Drivers/STM32F1xx_HAL_Driver/Inc" "stm32f1xx_hal_def.h"
	.file	2 "../Drivers/STM32F1xx_HAL_Driver/Inc" "stm32f1xx_hal_dma.h"
	.file	3 "../Drivers/CMSIS/Device/ST/STM32F1xx/Include" "stm32f1xx.h"
	.file	4 "C:\\Keil\\ARM\\ARMCLANG\\Bin\\..\\include" "stdint.h"
	.file	5 "../Drivers/CMSIS/Device/ST/STM32F1xx/Include" "stm32f103xb.h"
	.file	6 "../Drivers/STM32F1xx_HAL_Driver/Inc" "stm32f1xx_hal_adc.h"
	.section	.text.HAL_ADC_Init,"ax",%progbits
	.hidden	HAL_ADC_Init            @ -- Begin function HAL_ADC_Init
	.globl	HAL_ADC_Init
	.p2align	2
	.type	HAL_ADC_Init,%function
	.code	16                      @ @HAL_ADC_Init
	.thumb_func
HAL_ADC_Init:
.Lfunc_begin0:
	.file	7 "../Drivers/STM32F1xx_HAL_Driver/Src" "stm32f1xx_hal_adc.c"
	.loc	7 375 0                 @ ../Drivers/STM32F1xx_HAL_Driver/Src/stm32f1xx_hal_adc.c:375:0
	.fnstart
	.cfi_sections .debug_frame
	.cfi_startproc
@ %bb.0:
	.save	{r4, r5, r6, lr}
	push	{r4, r5, r6, lr}
	.cfi_def_cfa_offset 16
	.cfi_offset lr, -4
	.cfi_offset r6, -8
	.cfi_offset r5, -12
	.cfi_offset r4, -16
	@DEBUG_VALUE: HAL_ADC_Init:hadc <- $r0
	mov	r4, r0
.Ltmp0:
	@DEBUG_VALUE: HAL_ADC_Init:tmp_sqr1 <- 0
	@DEBUG_VALUE: HAL_ADC_Init:tmp_cr2 <- 0
	@DEBUG_VALUE: HAL_ADC_Init:tmp_cr1 <- 0
	@DEBUG_VALUE: HAL_ADC_Init:tmp_hal_status <- 0
	@DEBUG_VALUE: HAL_ADC_Init:hadc <- $r4
	.loc	7 382 6 prologue_end    @ ../Drivers/STM32F1xx_HAL_Driver/Src/stm32f1xx_hal_adc.c:382:6
	cmp	r0, #0
	itt	eq
	moveq	r0, #1
	.loc	7 565 1                 @ ../Drivers/STM32F1xx_HAL_Driver/Src/stm32f1xx_hal_adc.c:565:1
	popeq	{r4, r5, r6, pc}
.Ltmp1:
	.loc	7 411 13                @ ../Drivers/STM32F1xx_HAL_Driver/Src/stm32f1xx_hal_adc.c:411:13
	mov	r5, r4
	ldr	r0, [r5, #40]!
.Ltmp2:
	.loc	7 411 7 is_stmt 0       @ ../Drivers/STM32F1xx_HAL_Driver/Src/stm32f1xx_hal_adc.c:411:7
	cbnz	r0, .LBB0_2
@ %bb.1:
	.loc	7 0 7                   @ ../Drivers/STM32F1xx_HAL_Driver/Src/stm32f1xx_hal_adc.c:0:7
	movs	r0, #0
.Ltmp3:
	.loc	7 417 16 is_stmt 1      @ ../Drivers/STM32F1xx_HAL_Driver/Src/stm32f1xx_hal_adc.c:417:16
	str	r0, [r4, #36]
	.loc	7 414 5                 @ ../Drivers/STM32F1xx_HAL_Driver/Src/stm32f1xx_hal_adc.c:414:5
	str	r0, [r4, #44]
	.loc	7 420 5                 @ ../Drivers/STM32F1xx_HAL_Driver/Src/stm32f1xx_hal_adc.c:420:5
	mov	r0, r4
	bl	HAL_ADC_MspInit
.Ltmp4:
.LBB0_2:
	.loc	7 428 20                @ ../Drivers/STM32F1xx_HAL_Driver/Src/stm32f1xx_hal_adc.c:428:20
	mov	r0, r4
	bl	ADC_ConversionStop_Disable
.Ltmp5:
	@DEBUG_VALUE: HAL_ADC_Init:tmp_hal_status <- $r0
	.loc	7 433 7                 @ ../Drivers/STM32F1xx_HAL_Driver/Src/stm32f1xx_hal_adc.c:433:7
	ldr	r1, [r4, #40]
	and	r1, r1, #16
	.loc	7 433 65 is_stmt 0      @ ../Drivers/STM32F1xx_HAL_Driver/Src/stm32f1xx_hal_adc.c:433:65
	orrs	r1, r0
	ldr	r1, [r4, #40]
	beq	.LBB0_4
.Ltmp6:
@ %bb.3:
	@DEBUG_VALUE: HAL_ADC_Init:tmp_hal_status <- $r0
	@DEBUG_VALUE: HAL_ADC_Init:tmp_hal_status <- 1
	.loc	7 558 5 is_stmt 1       @ ../Drivers/STM32F1xx_HAL_Driver/Src/stm32f1xx_hal_adc.c:558:5
	orr	r1, r1, #16
	movs	r0, #1
	str	r1, [r5]
.Ltmp7:
	.loc	7 565 1                 @ ../Drivers/STM32F1xx_HAL_Driver/Src/stm32f1xx_hal_adc.c:565:1
	pop	{r4, r5, r6, pc}
.LBB0_4:
.Ltmp8:
	@DEBUG_VALUE: HAL_ADC_Init:tmp_hal_status <- $r0
	.loc	7 437 5                 @ ../Drivers/STM32F1xx_HAL_Driver/Src/stm32f1xx_hal_adc.c:437:5
	movw	r2, #4354
	bics	r1, r2
	orr	r1, r1, #2
	str	r1, [r4, #40]
	.loc	7 453 28                @ ../Drivers/STM32F1xx_HAL_Driver/Src/stm32f1xx_hal_adc.c:453:28
	ldrd	r2, r1, [r4, #4]
	.loc	7 455 17                @ ../Drivers/STM32F1xx_HAL_Driver/Src/stm32f1xx_hal_adc.c:455:17
	ldr	r6, [r4, #12]
.Ltmp9:
	.loc	7 466 20                @ ../Drivers/STM32F1xx_HAL_Driver/Src/stm32f1xx_hal_adc.c:466:20
	ldr.w	lr, [r4, #20]
.Ltmp10:
	.loc	7 454 17                @ ../Drivers/STM32F1xx_HAL_Driver/Src/stm32f1xx_hal_adc.c:454:17
	ldr	r3, [r4, #28]
	.loc	7 453 68                @ ../Drivers/STM32F1xx_HAL_Driver/Src/stm32f1xx_hal_adc.c:453:68
	orrs	r2, r3
	.loc	7 454 68                @ ../Drivers/STM32F1xx_HAL_Driver/Src/stm32f1xx_hal_adc.c:454:68
	orr.w	r12, r2, r6, lsl #1
.Ltmp11:
	@DEBUG_VALUE: HAL_ADC_Init:tmp_cr2 <- $r12
	.loc	7 461 17                @ ../Drivers/STM32F1xx_HAL_Driver/Src/stm32f1xx_hal_adc.c:461:17
	subs	r2, r1, #1
	clz	r2, r2
	lsrs	r3, r2, #5
	cmp.w	r1, #256
	mov	r2, r1
	it	ne
	lslne	r2, r3, #8
.Ltmp12:
	@DEBUG_VALUE: HAL_ADC_Init:tmp_cr1 <- $r2
	.loc	7 466 9                 @ ../Drivers/STM32F1xx_HAL_Driver/Src/stm32f1xx_hal_adc.c:466:9
	cmp.w	lr, #1
	bne	.LBB0_8
.Ltmp13:
@ %bb.5:
	@DEBUG_VALUE: HAL_ADC_Init:tmp_cr1 <- $r2
	@DEBUG_VALUE: HAL_ADC_Init:tmp_cr2 <- $r12
	@DEBUG_VALUE: HAL_ADC_Init:tmp_hal_status <- $r0
	.loc	7 468 11                @ ../Drivers/STM32F1xx_HAL_Driver/Src/stm32f1xx_hal_adc.c:468:11
	cbz	r6, .LBB0_7
.Ltmp14:
@ %bb.6:
	@DEBUG_VALUE: HAL_ADC_Init:tmp_cr1 <- $r2
	@DEBUG_VALUE: HAL_ADC_Init:tmp_cr2 <- $r12
	@DEBUG_VALUE: HAL_ADC_Init:tmp_hal_status <- $r0
	.loc	7 481 9                 @ ../Drivers/STM32F1xx_HAL_Driver/Src/stm32f1xx_hal_adc.c:481:9
	ldr	r3, [r4, #40]
	orr	r3, r3, #32
	str	r3, [r4, #40]
	.loc	7 484 9                 @ ../Drivers/STM32F1xx_HAL_Driver/Src/stm32f1xx_hal_adc.c:484:9
	ldr	r3, [r4, #44]
	orr	r3, r3, #1
	str	r3, [r4, #44]
	b	.LBB0_8
.Ltmp15:
.LBB0_7:
	@DEBUG_VALUE: HAL_ADC_Init:tmp_cr1 <- $r2
	@DEBUG_VALUE: HAL_ADC_Init:tmp_cr2 <- $r12
	@DEBUG_VALUE: HAL_ADC_Init:tmp_hal_status <- $r0
	.loc	7 472 9                 @ ../Drivers/STM32F1xx_HAL_Driver/Src/stm32f1xx_hal_adc.c:472:9
	ldr	r3, [r4, #24]
	movw	r6, #57344
	movt	r6, #65535
	add.w	r3, r6, r3, lsl #13
	orrs	r2, r3
.Ltmp16:
	orr	r2, r2, #2048
.Ltmp17:
	@DEBUG_VALUE: HAL_ADC_Init:tmp_cr1 <- $r2
.LBB0_8:
	@DEBUG_VALUE: HAL_ADC_Init:tmp_cr1 <- $r2
	@DEBUG_VALUE: HAL_ADC_Init:tmp_cr2 <- $r12
	@DEBUG_VALUE: HAL_ADC_Init:tmp_hal_status <- $r0
	@DEBUG_VALUE: HAL_ADC_Init:tmp_cr1 <- $r2
	.loc	7 489 7                 @ ../Drivers/STM32F1xx_HAL_Driver/Src/stm32f1xx_hal_adc.c:489:7
	ldr	r3, [r4]
	ldr	r6, [r3, #4]
	bic	r6, r6, #59648
	orrs	r2, r6
.Ltmp18:
	str	r2, [r3, #4]
	.loc	7 496 7                 @ ../Drivers/STM32F1xx_HAL_Driver/Src/stm32f1xx_hal_adc.c:496:7
	ldr	r2, [r3, #8]
	movw	r6, #63485
	movt	r6, #65505
	ands	r2, r6
	orr.w	r2, r2, r12
	str	r2, [r3, #8]
.Ltmp19:
	.loc	7 512 9                 @ ../Drivers/STM32F1xx_HAL_Driver/Src/stm32f1xx_hal_adc.c:512:9
	cmp.w	r1, #256
	beq	.LBB0_10
.Ltmp20:
@ %bb.9:
	@DEBUG_VALUE: HAL_ADC_Init:tmp_cr2 <- $r12
	@DEBUG_VALUE: HAL_ADC_Init:tmp_hal_status <- $r0
	cmp	r1, #1
	bne	.LBB0_11
.Ltmp21:
.LBB0_10:
	@DEBUG_VALUE: HAL_ADC_Init:tmp_cr2 <- $r12
	@DEBUG_VALUE: HAL_ADC_Init:tmp_hal_status <- $r0
	.loc	7 514 18                @ ../Drivers/STM32F1xx_HAL_Driver/Src/stm32f1xx_hal_adc.c:514:18
	ldr	r1, [r4, #16]
	movs	r2, #0
	movt	r2, #65520
	add.w	r1, r2, r1, lsl #20
.Ltmp22:
	@DEBUG_VALUE: HAL_ADC_Init:tmp_sqr1 <- $r1
	.loc	7 0 18 is_stmt 0        @ ../Drivers/STM32F1xx_HAL_Driver/Src/stm32f1xx_hal_adc.c:0:18
	b	.LBB0_12
.Ltmp23:
.LBB0_11:
	@DEBUG_VALUE: HAL_ADC_Init:tmp_cr2 <- $r12
	@DEBUG_VALUE: HAL_ADC_Init:tmp_hal_status <- $r0
	movs	r1, #0
.Ltmp24:
.LBB0_12:
	@DEBUG_VALUE: HAL_ADC_Init:tmp_cr2 <- $r12
	@DEBUG_VALUE: HAL_ADC_Init:tmp_hal_status <- $r0
	@DEBUG_VALUE: HAL_ADC_Init:tmp_sqr1 <- $r1
	.loc	7 517 5 is_stmt 1       @ ../Drivers/STM32F1xx_HAL_Driver/Src/stm32f1xx_hal_adc.c:517:5
	ldr	r2, [r3, #44]
	bic	r2, r2, #15728640
	orrs	r1, r2
.Ltmp25:
	str	r1, [r3, #44]
.Ltmp26:
	.loc	7 527 9                 @ ../Drivers/STM32F1xx_HAL_Driver/Src/stm32f1xx_hal_adc.c:527:9
	ldr	r1, [r3, #8]
	movw	r2, #3838
	movt	r2, #65311
	ands	r1, r2
.Ltmp27:
	.loc	7 527 9 is_stmt 0       @ ../Drivers/STM32F1xx_HAL_Driver/Src/stm32f1xx_hal_adc.c:527:9
	cmp	r1, r12
	bne	.LBB0_14
.Ltmp28:
@ %bb.13:
	@DEBUG_VALUE: HAL_ADC_Init:tmp_cr2 <- $r12
	@DEBUG_VALUE: HAL_ADC_Init:tmp_hal_status <- $r0
	.loc	7 0 9                   @ ../Drivers/STM32F1xx_HAL_Driver/Src/stm32f1xx_hal_adc.c:0:9
	movs	r1, #0
.Ltmp29:
	.loc	7 534 7 is_stmt 1       @ ../Drivers/STM32F1xx_HAL_Driver/Src/stm32f1xx_hal_adc.c:534:7
	str	r1, [r4, #44]
	.loc	7 537 7                 @ ../Drivers/STM32F1xx_HAL_Driver/Src/stm32f1xx_hal_adc.c:537:7
	ldr	r1, [r4, #40]
	movs	r2, #1
	bfi	r1, r2, #0, #2
	str	r1, [r5]
.Ltmp30:
	.loc	7 565 1                 @ ../Drivers/STM32F1xx_HAL_Driver/Src/stm32f1xx_hal_adc.c:565:1
	pop	{r4, r5, r6, pc}
.Ltmp31:
.LBB0_14:
	@DEBUG_VALUE: HAL_ADC_Init:tmp_cr2 <- $r12
	@DEBUG_VALUE: HAL_ADC_Init:tmp_hal_status <- $r0
	.loc	7 544 7                 @ ../Drivers/STM32F1xx_HAL_Driver/Src/stm32f1xx_hal_adc.c:544:7
	ldr	r0, [r4, #40]
.Ltmp32:
	bic	r0, r0, #18
	orr	r0, r0, #16
	str	r0, [r4, #40]
	.loc	7 549 7                 @ ../Drivers/STM32F1xx_HAL_Driver/Src/stm32f1xx_hal_adc.c:549:7
	ldr	r0, [r4, #44]!
	orr	r1, r0, #1
	movs	r0, #1
.Ltmp33:
	@DEBUG_VALUE: HAL_ADC_Init:tmp_hal_status <- 1
	.loc	7 0 7 is_stmt 0         @ ../Drivers/STM32F1xx_HAL_Driver/Src/stm32f1xx_hal_adc.c:0:7
	str	r1, [r4]
.Ltmp34:
	.loc	7 565 1 is_stmt 1       @ ../Drivers/STM32F1xx_HAL_Driver/Src/stm32f1xx_hal_adc.c:565:1
	pop	{r4, r5, r6, pc}
.Ltmp35:
.Lfunc_end0:
	.size	HAL_ADC_Init, .Lfunc_end0-HAL_ADC_Init
	.cfi_endproc
	.cantunwind
	.fnend
                                        @ -- End function
	.section	.text.HAL_ADC_MspInit,"ax",%progbits
	.hidden	HAL_ADC_MspInit         @ -- Begin function HAL_ADC_MspInit
	.weak	HAL_ADC_MspInit
	.p2align	2
	.type	HAL_ADC_MspInit,%function
	.code	16                      @ @HAL_ADC_MspInit
	.thumb_func
HAL_ADC_MspInit:
.Lfunc_begin1:
	.loc	7 714 0                 @ ../Drivers/STM32F1xx_HAL_Driver/Src/stm32f1xx_hal_adc.c:714:0
	.fnstart
	.cfi_startproc
@ %bb.0:
	@DEBUG_VALUE: HAL_ADC_MspInit:hadc <- $r0
	.loc	7 720 1 prologue_end    @ ../Drivers/STM32F1xx_HAL_Driver/Src/stm32f1xx_hal_adc.c:720:1
	bx	lr
.Ltmp36:
.Lfunc_end1:
	.size	HAL_ADC_MspInit, .Lfunc_end1-HAL_ADC_MspInit
	.cfi_endproc
	.cantunwind
	.fnend
                                        @ -- End function
	.section	.text.ADC_ConversionStop_Disable,"ax",%progbits
	.hidden	ADC_ConversionStop_Disable @ -- Begin function ADC_ConversionStop_Disable
	.globl	ADC_ConversionStop_Disable
	.p2align	2
	.type	ADC_ConversionStop_Disable,%function
	.code	16                      @ @ADC_ConversionStop_Disable
	.thumb_func
ADC_ConversionStop_Disable:
.Lfunc_begin2:
	.loc	7 1990 0                @ ../Drivers/STM32F1xx_HAL_Driver/Src/stm32f1xx_hal_adc.c:1990:0
	.fnstart
	.cfi_startproc
@ %bb.0:
	.save	{r4, r5, r7, lr}
	push	{r4, r5, r7, lr}
	.cfi_def_cfa_offset 16
	.cfi_offset lr, -4
	.cfi_offset r7, -8
	.cfi_offset r5, -12
	.cfi_offset r4, -16
	@DEBUG_VALUE: ADC_ConversionStop_Disable:hadc <- $r0
	mov	r4, r0
.Ltmp37:
	@DEBUG_VALUE: ADC_ConversionStop_Disable:tickstart <- 0
	@DEBUG_VALUE: ADC_ConversionStop_Disable:hadc <- $r4
	.loc	7 1994 7 prologue_end   @ ../Drivers/STM32F1xx_HAL_Driver/Src/stm32f1xx_hal_adc.c:1994:7
	ldr	r0, [r0]
	ldr	r1, [r0, #8]
.Ltmp38:
	.loc	7 1994 7 is_stmt 0      @ ../Drivers/STM32F1xx_HAL_Driver/Src/stm32f1xx_hal_adc.c:1994:7
	tst.w	r1, #1
	beq	.LBB2_4
.Ltmp39:
@ %bb.1:
	@DEBUG_VALUE: ADC_ConversionStop_Disable:hadc <- $r4
	.loc	7 1997 5 is_stmt 1      @ ../Drivers/STM32F1xx_HAL_Driver/Src/stm32f1xx_hal_adc.c:1997:5
	ldr	r1, [r0, #8]
	bic	r1, r1, #1
	str	r1, [r0, #8]
	.loc	7 2000 17               @ ../Drivers/STM32F1xx_HAL_Driver/Src/stm32f1xx_hal_adc.c:2000:17
	bl	HAL_GetTick
	mov	r5, r0
.Ltmp40:
	@DEBUG_VALUE: ADC_ConversionStop_Disable:tickstart <- $r5
	.loc	7 2003 11               @ ../Drivers/STM32F1xx_HAL_Driver/Src/stm32f1xx_hal_adc.c:2003:11
	ldr	r0, [r4]
	ldr	r0, [r0, #8]
	.loc	7 2003 5 is_stmt 0      @ ../Drivers/STM32F1xx_HAL_Driver/Src/stm32f1xx_hal_adc.c:2003:5
	tst.w	r0, #1
	itt	eq
	moveq	r0, #0
.Ltmp41:
	.loc	7 2020 1 is_stmt 1      @ ../Drivers/STM32F1xx_HAL_Driver/Src/stm32f1xx_hal_adc.c:2020:1
	popeq	{r4, r5, r7, pc}
.Ltmp42:
	.p2align	2
.LBB2_2:                                @ =>This Inner Loop Header: Depth=1
	.loc	7 2005 11               @ ../Drivers/STM32F1xx_HAL_Driver/Src/stm32f1xx_hal_adc.c:2005:11
	bl	HAL_GetTick
	.loc	7 2005 25 is_stmt 0     @ ../Drivers/STM32F1xx_HAL_Driver/Src/stm32f1xx_hal_adc.c:2005:25
	subs	r0, r0, r5
.Ltmp43:
	.loc	7 2005 10               @ ../Drivers/STM32F1xx_HAL_Driver/Src/stm32f1xx_hal_adc.c:2005:10
	cmp	r0, #3
	bhs	.LBB2_5
.Ltmp44:
@ %bb.3:                                @   in Loop: Header=BB2_2 Depth=1
	.loc	7 2003 11 is_stmt 1     @ ../Drivers/STM32F1xx_HAL_Driver/Src/stm32f1xx_hal_adc.c:2003:11
	ldr	r0, [r4]
	ldr	r0, [r0, #8]
	.loc	7 2003 5 is_stmt 0      @ ../Drivers/STM32F1xx_HAL_Driver/Src/stm32f1xx_hal_adc.c:2003:5
	tst.w	r0, #1
	bne	.LBB2_2
.Ltmp45:
.LBB2_4:
	.loc	7 0 5                   @ ../Drivers/STM32F1xx_HAL_Driver/Src/stm32f1xx_hal_adc.c:0:5
	movs	r0, #0
	.loc	7 2020 1 is_stmt 1      @ ../Drivers/STM32F1xx_HAL_Driver/Src/stm32f1xx_hal_adc.c:2020:1
	pop	{r4, r5, r7, pc}
.LBB2_5:
.Ltmp46:
	.loc	7 2008 9                @ ../Drivers/STM32F1xx_HAL_Driver/Src/stm32f1xx_hal_adc.c:2008:9
	ldr	r0, [r4, #40]
	orr	r0, r0, #16
	str	r0, [r4, #40]
	.loc	7 2011 9                @ ../Drivers/STM32F1xx_HAL_Driver/Src/stm32f1xx_hal_adc.c:2011:9
	ldr	r0, [r4, #44]
	orr	r0, r0, #1
	str	r0, [r4, #44]
	movs	r0, #1
.Ltmp47:
	.loc	7 2020 1                @ ../Drivers/STM32F1xx_HAL_Driver/Src/stm32f1xx_hal_adc.c:2020:1
	pop	{r4, r5, r7, pc}
.Ltmp48:
.Lfunc_end2:
	.size	ADC_ConversionStop_Disable, .Lfunc_end2-ADC_ConversionStop_Disable
	.cfi_endproc
	.cantunwind
	.fnend
                                        @ -- End function
	.section	.text.HAL_ADC_DeInit,"ax",%progbits
	.hidden	HAL_ADC_DeInit          @ -- Begin function HAL_ADC_DeInit
	.globl	HAL_ADC_DeInit
	.p2align	2
	.type	HAL_ADC_DeInit,%function
	.code	16                      @ @HAL_ADC_DeInit
	.thumb_func
HAL_ADC_DeInit:
.Lfunc_begin3:
	.loc	7 576 0                 @ ../Drivers/STM32F1xx_HAL_Driver/Src/stm32f1xx_hal_adc.c:576:0
	.fnstart
	.cfi_startproc
@ %bb.0:
	.save	{r4, r5, r7, lr}
	push	{r4, r5, r7, lr}
	.cfi_def_cfa_offset 16
	.cfi_offset lr, -4
	.cfi_offset r7, -8
	.cfi_offset r5, -12
	.cfi_offset r4, -16
	@DEBUG_VALUE: HAL_ADC_DeInit:hadc <- $r0
	mov	r4, r0
.Ltmp49:
	@DEBUG_VALUE: HAL_ADC_DeInit:tmp_hal_status <- 0
	@DEBUG_VALUE: HAL_ADC_DeInit:hadc <- $r4
	.loc	7 580 6 prologue_end    @ ../Drivers/STM32F1xx_HAL_Driver/Src/stm32f1xx_hal_adc.c:580:6
	cmp	r0, #0
	beq	.LBB3_4
.Ltmp50:
@ %bb.1:
	@DEBUG_VALUE: HAL_ADC_DeInit:hadc <- $r4
	.loc	7 589 3                 @ ../Drivers/STM32F1xx_HAL_Driver/Src/stm32f1xx_hal_adc.c:589:3
	ldr	r0, [r4, #40]
	orr	r0, r0, #2
	str	r0, [r4, #40]
	.loc	7 593 20                @ ../Drivers/STM32F1xx_HAL_Driver/Src/stm32f1xx_hal_adc.c:593:20
	mov	r0, r4
	bl	ADC_ConversionStop_Disable
	mov	r5, r0
.Ltmp51:
	@DEBUG_VALUE: HAL_ADC_DeInit:tmp_hal_status <- $r5
	.loc	7 598 7                 @ ../Drivers/STM32F1xx_HAL_Driver/Src/stm32f1xx_hal_adc.c:598:7
	cmp	r0, #0
	bne	.LBB3_3
.Ltmp52:
@ %bb.2:
	@DEBUG_VALUE: HAL_ADC_DeInit:tmp_hal_status <- $r5
	@DEBUG_VALUE: HAL_ADC_DeInit:hadc <- $r4
	.loc	7 606 5                 @ ../Drivers/STM32F1xx_HAL_Driver/Src/stm32f1xx_hal_adc.c:606:5
	ldr	r0, [r4]
	mvn	r1, #31
	str	r1, [r0]
	movs	r1, #0
	movt	r1, #65472
	.loc	7 610 5                 @ ../Drivers/STM32F1xx_HAL_Driver/Src/stm32f1xx_hal_adc.c:610:5
	sub.w	r1, r1, #8454144
	ldr	r2, [r0, #4]
	ands	r1, r2
	str	r1, [r0, #4]
	.loc	7 616 5                 @ ../Drivers/STM32F1xx_HAL_Driver/Src/stm32f1xx_hal_adc.c:616:5
	ldr	r1, [r0, #8]
	movw	r2, #1776
	movt	r2, #65281
	ands	r1, r2
	str	r1, [r0, #8]
	.loc	7 623 5                 @ ../Drivers/STM32F1xx_HAL_Driver/Src/stm32f1xx_hal_adc.c:623:5
	ldr	r1, [r0, #12]
	and	r1, r1, #-16777216
	str	r1, [r0, #12]
	.loc	7 628 5                 @ ../Drivers/STM32F1xx_HAL_Driver/Src/stm32f1xx_hal_adc.c:628:5
	ldr	r1, [r0, #16]
	and	r1, r1, #-1073741824
	str	r1, [r0, #16]
	.loc	7 634 5                 @ ../Drivers/STM32F1xx_HAL_Driver/Src/stm32f1xx_hal_adc.c:634:5
	ldr	r1, [r0, #20]
	movw	r2, #4095
	bics	r1, r2
	str	r1, [r0, #20]
	.loc	7 636 5                 @ ../Drivers/STM32F1xx_HAL_Driver/Src/stm32f1xx_hal_adc.c:636:5
	ldr	r1, [r0, #24]
	bfc	r1, #0, #12
	str	r1, [r0, #24]
	.loc	7 638 5                 @ ../Drivers/STM32F1xx_HAL_Driver/Src/stm32f1xx_hal_adc.c:638:5
	ldr	r1, [r0, #28]
	bfc	r1, #0, #12
	str	r1, [r0, #28]
	.loc	7 640 5                 @ ../Drivers/STM32F1xx_HAL_Driver/Src/stm32f1xx_hal_adc.c:640:5
	ldr	r1, [r0, #32]
	bfc	r1, #0, #12
	str	r1, [r0, #32]
	.loc	7 643 5                 @ ../Drivers/STM32F1xx_HAL_Driver/Src/stm32f1xx_hal_adc.c:643:5
	ldr	r1, [r0, #36]
	bfc	r1, #0, #12
	str	r1, [r0, #36]
	.loc	7 645 5                 @ ../Drivers/STM32F1xx_HAL_Driver/Src/stm32f1xx_hal_adc.c:645:5
	ldr	r1, [r0, #40]
	bfc	r1, #0, #12
	str	r1, [r0, #40]
	.loc	7 648 5                 @ ../Drivers/STM32F1xx_HAL_Driver/Src/stm32f1xx_hal_adc.c:648:5
	ldr	r1, [r0, #44]
	and	r1, r1, #-16777216
	str	r1, [r0, #44]
	.loc	7 653 5                 @ ../Drivers/STM32F1xx_HAL_Driver/Src/stm32f1xx_hal_adc.c:653:5
	ldr	r1, [r0, #44]
	and	r1, r1, #-16777216
	str	r1, [r0, #44]
	.loc	7 658 5                 @ ../Drivers/STM32F1xx_HAL_Driver/Src/stm32f1xx_hal_adc.c:658:5
	ldr	r1, [r0, #48]
	and	r1, r1, #-1073741824
	str	r1, [r0, #48]
	.loc	7 662 5                 @ ../Drivers/STM32F1xx_HAL_Driver/Src/stm32f1xx_hal_adc.c:662:5
	ldr	r1, [r0, #52]
	and	r1, r1, #-1073741824
	str	r1, [r0, #52]
	.loc	7 666 5                 @ ../Drivers/STM32F1xx_HAL_Driver/Src/stm32f1xx_hal_adc.c:666:5
	ldr	r1, [r0, #56]
	bfc	r1, #0, #22
	str	r1, [r0, #56]
	.loc	7 671 5                 @ ../Drivers/STM32F1xx_HAL_Driver/Src/stm32f1xx_hal_adc.c:671:5
	ldr	r1, [r0, #56]
	bfc	r1, #0, #22
	str	r1, [r0, #56]
	.loc	7 691 5                 @ ../Drivers/STM32F1xx_HAL_Driver/Src/stm32f1xx_hal_adc.c:691:5
	mov	r0, r4
	bl	HAL_ADC_MspDeInit
	movs	r0, #0
	.loc	7 694 5                 @ ../Drivers/STM32F1xx_HAL_Driver/Src/stm32f1xx_hal_adc.c:694:5
	str	r0, [r4, #44]
	.loc	7 697 17                @ ../Drivers/STM32F1xx_HAL_Driver/Src/stm32f1xx_hal_adc.c:697:17
	str	r0, [r4, #40]
.Ltmp53:
.LBB3_3:
	@DEBUG_VALUE: HAL_ADC_DeInit:tmp_hal_status <- $r5
	@DEBUG_VALUE: HAL_ADC_DeInit:hadc <- $r4
	.loc	7 702 3                 @ ../Drivers/STM32F1xx_HAL_Driver/Src/stm32f1xx_hal_adc.c:702:3
	movs	r0, #0
	str	r0, [r4, #36]
.Ltmp54:
	.loc	7 706 1                 @ ../Drivers/STM32F1xx_HAL_Driver/Src/stm32f1xx_hal_adc.c:706:1
	mov	r0, r5
	pop	{r4, r5, r7, pc}
.Ltmp55:
.LBB3_4:
	@DEBUG_VALUE: HAL_ADC_DeInit:hadc <- $r4
	.loc	7 0 1 is_stmt 0         @ ../Drivers/STM32F1xx_HAL_Driver/Src/stm32f1xx_hal_adc.c:0:1
	movs	r5, #1
	.loc	7 706 1                 @ ../Drivers/STM32F1xx_HAL_Driver/Src/stm32f1xx_hal_adc.c:706:1
	mov	r0, r5
	pop	{r4, r5, r7, pc}
.Ltmp56:
.Lfunc_end3:
	.size	HAL_ADC_DeInit, .Lfunc_end3-HAL_ADC_DeInit
	.cfi_endproc
	.cantunwind
	.fnend
                                        @ -- End function
	.section	.text.HAL_ADC_MspDeInit,"ax",%progbits
	.hidden	HAL_ADC_MspDeInit       @ -- Begin function HAL_ADC_MspDeInit
	.weak	HAL_ADC_MspDeInit
	.p2align	2
	.type	HAL_ADC_MspDeInit,%function
	.code	16                      @ @HAL_ADC_MspDeInit
	.thumb_func
HAL_ADC_MspDeInit:
.Lfunc_begin4:
	.loc	7 728 0 is_stmt 1       @ ../Drivers/STM32F1xx_HAL_Driver/Src/stm32f1xx_hal_adc.c:728:0
	.fnstart
	.cfi_startproc
@ %bb.0:
	@DEBUG_VALUE: HAL_ADC_MspDeInit:hadc <- $r0
	.loc	7 734 1 prologue_end    @ ../Drivers/STM32F1xx_HAL_Driver/Src/stm32f1xx_hal_adc.c:734:1
	bx	lr
.Ltmp57:
.Lfunc_end4:
	.size	HAL_ADC_MspDeInit, .Lfunc_end4-HAL_ADC_MspDeInit
	.cfi_endproc
	.cantunwind
	.fnend
                                        @ -- End function
	.section	.text.HAL_ADC_Start,"ax",%progbits
	.hidden	HAL_ADC_Start           @ -- Begin function HAL_ADC_Start
	.globl	HAL_ADC_Start
	.p2align	2
	.type	HAL_ADC_Start,%function
	.code	16                      @ @HAL_ADC_Start
	.thumb_func
HAL_ADC_Start:
.Lfunc_begin5:
	.loc	7 769 0                 @ ../Drivers/STM32F1xx_HAL_Driver/Src/stm32f1xx_hal_adc.c:769:0
	.fnstart
	.cfi_startproc
@ %bb.0:
	.save	{r4, lr}
	push	{r4, lr}
	.cfi_def_cfa_offset 8
	.cfi_offset lr, -4
	.cfi_offset r4, -8
	@DEBUG_VALUE: HAL_ADC_Start:hadc <- $r0
	mov	r4, r0
.Ltmp58:
	@DEBUG_VALUE: HAL_ADC_Start:tmp_hal_status <- 0
	@DEBUG_VALUE: HAL_ADC_Start:hadc <- $r4
	.loc	7 776 3 prologue_end    @ ../Drivers/STM32F1xx_HAL_Driver/Src/stm32f1xx_hal_adc.c:776:3
	ldr	r0, [r0, #36]
.Ltmp59:
	.loc	7 776 3 is_stmt 0       @ ../Drivers/STM32F1xx_HAL_Driver/Src/stm32f1xx_hal_adc.c:776:3
	cmp	r0, #1
	itt	eq
	moveq	r0, #2
.Ltmp60:
	.loc	7 870 1 is_stmt 1       @ ../Drivers/STM32F1xx_HAL_Driver/Src/stm32f1xx_hal_adc.c:870:1
	popeq	{r4, pc}
.Ltmp61:
	.loc	7 0 1 is_stmt 0         @ ../Drivers/STM32F1xx_HAL_Driver/Src/stm32f1xx_hal_adc.c:0:1
	movs	r0, #1
.Ltmp62:
	.loc	7 776 3 is_stmt 1       @ ../Drivers/STM32F1xx_HAL_Driver/Src/stm32f1xx_hal_adc.c:776:3
	str	r0, [r4, #36]
.Ltmp63:
	.loc	7 779 20                @ ../Drivers/STM32F1xx_HAL_Driver/Src/stm32f1xx_hal_adc.c:779:20
	mov	r0, r4
	bl	ADC_Enable
.Ltmp64:
	@DEBUG_VALUE: HAL_ADC_Start:tmp_hal_status <- $r0
	.loc	7 782 7                 @ ../Drivers/STM32F1xx_HAL_Driver/Src/stm32f1xx_hal_adc.c:782:7
	cmp	r0, #0
.Ltmp65:
	.loc	7 865 5                 @ ../Drivers/STM32F1xx_HAL_Driver/Src/stm32f1xx_hal_adc.c:865:5
	ittt	ne
	movne	r1, #0
	strne	r1, [r4, #36]
.Ltmp66:
	.loc	7 870 1                 @ ../Drivers/STM32F1xx_HAL_Driver/Src/stm32f1xx_hal_adc.c:870:1
	popne	{r4, pc}
.Ltmp67:
	.loc	7 794 9                 @ ../Drivers/STM32F1xx_HAL_Driver/Src/stm32f1xx_hal_adc.c:794:9
	ldr	r0, [r4]
.Ltmp68:
	.loc	7 787 5                 @ ../Drivers/STM32F1xx_HAL_Driver/Src/stm32f1xx_hal_adc.c:787:5
	ldr	r1, [r4, #40]
	movw	r2, #769
	bics	r1, r2
	orr	r1, r1, #256
	str	r1, [r4, #40]
	movw	r12, #9220
	movt	r12, #16385
.Ltmp69:
	.loc	7 794 9                 @ ../Drivers/STM32F1xx_HAL_Driver/Src/stm32f1xx_hal_adc.c:794:9
	add.w	r2, r12, #1020
.Ltmp70:
	.loc	7 794 9 is_stmt 0       @ ../Drivers/STM32F1xx_HAL_Driver/Src/stm32f1xx_hal_adc.c:794:9
	cmp	r0, r2
	beq	.LBB5_2
.LBB5_1:
.Ltmp71:
	@DEBUG_VALUE: HAL_ADC_Start:tmp_hal_status <- $r0
	.loc	7 797 7 is_stmt 1       @ ../Drivers/STM32F1xx_HAL_Driver/Src/stm32f1xx_hal_adc.c:797:7
	ldr	r1, [r4, #40]
	bic	r1, r1, #1048576
	str	r1, [r4, #40]
.Ltmp72:
	.loc	7 801 11                @ ../Drivers/STM32F1xx_HAL_Driver/Src/stm32f1xx_hal_adc.c:801:11
	ldr	r1, [r0, #4]
	tst.w	r1, #1024
	bne	.LBB5_6
	b	.LBB5_7
.Ltmp73:
.LBB5_2:
	@DEBUG_VALUE: HAL_ADC_Start:tmp_hal_status <- $r0
	.loc	7 794 9                 @ ../Drivers/STM32F1xx_HAL_Driver/Src/stm32f1xx_hal_adc.c:794:9
	ldr.w	r1, [r12]
	tst.w	r1, #983040
	beq	.LBB5_1
.Ltmp74:
@ %bb.3:
	@DEBUG_VALUE: HAL_ADC_Start:tmp_hal_status <- $r0
	.loc	7 809 7                 @ ../Drivers/STM32F1xx_HAL_Driver/Src/stm32f1xx_hal_adc.c:809:7
	ldr	r1, [r4, #40]
	orr	r1, r1, #1048576
	str	r1, [r4, #40]
.Ltmp75:
	.loc	7 813 11                @ ../Drivers/STM32F1xx_HAL_Driver/Src/stm32f1xx_hal_adc.c:813:11
	movw	r1, #10240
	movt	r1, #16385
	cmp	r0, r1
	beq	.LBB5_5
.Ltmp76:
@ %bb.4:
	@DEBUG_VALUE: HAL_ADC_Start:tmp_hal_status <- $r0
	.loc	7 0 11 is_stmt 0        @ ../Drivers/STM32F1xx_HAL_Driver/Src/stm32f1xx_hal_adc.c:0:11
	movw	r1, #9216
	movt	r1, #16385
	.loc	7 813 11                @ ../Drivers/STM32F1xx_HAL_Driver/Src/stm32f1xx_hal_adc.c:813:11
	cmp	r0, r1
	bne	.LBB5_7
.Ltmp77:
.LBB5_5:
	@DEBUG_VALUE: HAL_ADC_Start:tmp_hal_status <- $r0
	ldr.w	r1, [r12]
	tst.w	r1, #1024
	beq	.LBB5_7
.Ltmp78:
.LBB5_6:
	@DEBUG_VALUE: HAL_ADC_Start:tmp_hal_status <- $r0
	.loc	7 0 11                  @ ../Drivers/STM32F1xx_HAL_Driver/Src/stm32f1xx_hal_adc.c:0:11
	ldr	r1, [r4, #40]
	movs	r3, #1
	bfi	r1, r3, #12, #2
	str	r1, [r4, #40]
.Ltmp79:
.LBB5_7:
	@DEBUG_VALUE: HAL_ADC_Start:tmp_hal_status <- $r0
	.loc	7 820 9 is_stmt 1       @ ../Drivers/STM32F1xx_HAL_Driver/Src/stm32f1xx_hal_adc.c:820:9
	ldr	r1, [r4, #40]
	movs	r3, #0
.Ltmp80:
	.loc	7 820 9 is_stmt 0       @ ../Drivers/STM32F1xx_HAL_Driver/Src/stm32f1xx_hal_adc.c:820:9
	tst.w	r1, #4096
	mov.w	r1, #0
.Ltmp81:
	.loc	7 823 7 is_stmt 1       @ ../Drivers/STM32F1xx_HAL_Driver/Src/stm32f1xx_hal_adc.c:823:7
	itt	ne
	ldrne	r1, [r4, #44]
	bicne	r1, r1, #6
.Ltmp82:
	.loc	7 834 5                 @ ../Drivers/STM32F1xx_HAL_Driver/Src/stm32f1xx_hal_adc.c:834:5
	str	r3, [r4, #36]
	str	r1, [r4, #44]
.Ltmp83:
	.loc	7 838 5                 @ ../Drivers/STM32F1xx_HAL_Driver/Src/stm32f1xx_hal_adc.c:838:5
	mvn	r1, #2
	str	r1, [r0]
.Ltmp84:
	.loc	7 850 9                 @ ../Drivers/STM32F1xx_HAL_Driver/Src/stm32f1xx_hal_adc.c:850:9
	ldr	r1, [r0, #8]
	and	r1, r1, #917504
	.loc	7 850 50 is_stmt 0      @ ../Drivers/STM32F1xx_HAL_Driver/Src/stm32f1xx_hal_adc.c:850:50
	cmp.w	r1, #917504
	bne	.LBB5_11
.Ltmp85:
@ %bb.8:
	@DEBUG_VALUE: HAL_ADC_Start:tmp_hal_status <- $r0
	.loc	7 850 9                 @ ../Drivers/STM32F1xx_HAL_Driver/Src/stm32f1xx_hal_adc.c:850:9
	cmp	r0, r2
	beq	.LBB5_10
.Ltmp86:
.LBB5_9:
	@DEBUG_VALUE: HAL_ADC_Start:tmp_hal_status <- $r0
	.loc	7 854 7 is_stmt 1       @ ../Drivers/STM32F1xx_HAL_Driver/Src/stm32f1xx_hal_adc.c:854:7
	ldr	r1, [r0, #8]
	orr	r1, r1, #5242880
	b	.LBB5_12
.Ltmp87:
.LBB5_10:
	@DEBUG_VALUE: HAL_ADC_Start:tmp_hal_status <- $r0
	.loc	7 851 9                 @ ../Drivers/STM32F1xx_HAL_Driver/Src/stm32f1xx_hal_adc.c:851:9
	ldr.w	r1, [r12]
	tst.w	r1, #983040
	beq	.LBB5_9
.Ltmp88:
.LBB5_11:
	@DEBUG_VALUE: HAL_ADC_Start:tmp_hal_status <- $r0
	.loc	7 859 7                 @ ../Drivers/STM32F1xx_HAL_Driver/Src/stm32f1xx_hal_adc.c:859:7
	ldr	r1, [r0, #8]
	orr	r1, r1, #1048576
.Ltmp89:
.LBB5_12:
	@DEBUG_VALUE: HAL_ADC_Start:tmp_hal_status <- $r0
	.loc	7 0 7 is_stmt 0         @ ../Drivers/STM32F1xx_HAL_Driver/Src/stm32f1xx_hal_adc.c:0:7
	str	r1, [r0, #8]
	movs	r0, #0
.Ltmp90:
	.loc	7 870 1 is_stmt 1       @ ../Drivers/STM32F1xx_HAL_Driver/Src/stm32f1xx_hal_adc.c:870:1
	pop	{r4, pc}
.Ltmp91:
.Lfunc_end5:
	.size	HAL_ADC_Start, .Lfunc_end5-HAL_ADC_Start
	.cfi_endproc
	.cantunwind
	.fnend
                                        @ -- End function
	.section	.text.ADC_Enable,"ax",%progbits
	.hidden	ADC_Enable              @ -- Begin function ADC_Enable
	.globl	ADC_Enable
	.p2align	2
	.type	ADC_Enable,%function
	.code	16                      @ @ADC_Enable
	.thumb_func
ADC_Enable:
.Lfunc_begin6:
	.loc	7 1935 0                @ ../Drivers/STM32F1xx_HAL_Driver/Src/stm32f1xx_hal_adc.c:1935:0
	.fnstart
	.cfi_startproc
@ %bb.0:
	.save	{r4, r5, r7, lr}
	push	{r4, r5, r7, lr}
	.cfi_def_cfa_offset 16
	.cfi_offset lr, -4
	.cfi_offset r7, -8
	.cfi_offset r5, -12
	.cfi_offset r4, -16
	.pad	#8
	sub	sp, #8
	.cfi_def_cfa_offset 24
	@DEBUG_VALUE: ADC_Enable:hadc <- $r0
	mov	r4, r0
	movs	r0, #0
.Ltmp92:
	@DEBUG_VALUE: ADC_Enable:wait_loop_index <- 0
	@DEBUG_VALUE: ADC_Enable:tickstart <- 0
	@DEBUG_VALUE: ADC_Enable:hadc <- $r4
	.loc	7 1937 17 prologue_end  @ ../Drivers/STM32F1xx_HAL_Driver/Src/stm32f1xx_hal_adc.c:1937:17
	str	r0, [sp, #4]
.Ltmp93:
	.loc	7 1943 7                @ ../Drivers/STM32F1xx_HAL_Driver/Src/stm32f1xx_hal_adc.c:1943:7
	ldr	r1, [r4]
	ldr	r2, [r1, #8]
.Ltmp94:
	.loc	7 1943 7 is_stmt 0      @ ../Drivers/STM32F1xx_HAL_Driver/Src/stm32f1xx_hal_adc.c:1943:7
	tst.w	r2, #1
	bne	.LBB6_8
.Ltmp95:
@ %bb.1:
	@DEBUG_VALUE: ADC_Enable:hadc <- $r4
	.loc	7 1946 5 is_stmt 1      @ ../Drivers/STM32F1xx_HAL_Driver/Src/stm32f1xx_hal_adc.c:1946:5
	ldr	r0, [r1, #8]
	orr	r0, r0, #1
	str	r0, [r1, #8]
	.loc	7 1950 45               @ ../Drivers/STM32F1xx_HAL_Driver/Src/stm32f1xx_hal_adc.c:1950:45
	movw	r0, :lower16:SystemCoreClock
	movt	r0, :upper16:SystemCoreClock
	ldr	r0, [r0]
	.loc	7 1950 61 is_stmt 0     @ ../Drivers/STM32F1xx_HAL_Driver/Src/stm32f1xx_hal_adc.c:1950:61
	movw	r1, #56963
	movt	r1, #17179
	umull	r0, r1, r0, r1
	lsrs	r0, r1, #18
	b	.LBB6_3
.Ltmp96:
	.p2align	2
.LBB6_2:                                @   in Loop: Header=BB6_3 Depth=1
	@DEBUG_VALUE: ADC_Enable:wait_loop_index <- $r0
	@DEBUG_VALUE: ADC_Enable:hadc <- $r4
	.loc	7 1953 22 is_stmt 1     @ ../Drivers/STM32F1xx_HAL_Driver/Src/stm32f1xx_hal_adc.c:1953:22
	ldr	r0, [sp, #4]
.Ltmp97:
	@DEBUG_VALUE: ADC_Enable:wait_loop_index <- $r0
	subs	r0, #1
.Ltmp98:
.LBB6_3:                                @ =>This Inner Loop Header: Depth=1
	@DEBUG_VALUE: ADC_Enable:hadc <- $r4
	@DEBUG_VALUE: ADC_Enable:wait_loop_index <- $r0
	.loc	7 0 22 is_stmt 0        @ ../Drivers/STM32F1xx_HAL_Driver/Src/stm32f1xx_hal_adc.c:0:22
	str	r0, [sp, #4]
	.loc	7 1951 11 is_stmt 1     @ ../Drivers/STM32F1xx_HAL_Driver/Src/stm32f1xx_hal_adc.c:1951:11
	ldr	r0, [sp, #4]
.Ltmp99:
	@DEBUG_VALUE: ADC_Enable:wait_loop_index <- $r0
	.loc	7 1951 5 is_stmt 0      @ ../Drivers/STM32F1xx_HAL_Driver/Src/stm32f1xx_hal_adc.c:1951:5
	cmp	r0, #0
	bne	.LBB6_2
.Ltmp100:
@ %bb.4:
	@DEBUG_VALUE: ADC_Enable:wait_loop_index <- $r0
	@DEBUG_VALUE: ADC_Enable:hadc <- $r4
	.loc	7 1957 17 is_stmt 1     @ ../Drivers/STM32F1xx_HAL_Driver/Src/stm32f1xx_hal_adc.c:1957:17
	bl	HAL_GetTick
.Ltmp101:
	mov	r5, r0
.Ltmp102:
	.p2align	2
.LBB6_5:                                @ =>This Inner Loop Header: Depth=1
	@DEBUG_VALUE: ADC_Enable:hadc <- $r4
	.loc	7 1960 11               @ ../Drivers/STM32F1xx_HAL_Driver/Src/stm32f1xx_hal_adc.c:1960:11
	ldr	r0, [r4]
	ldr	r0, [r0, #8]
	.loc	7 1960 5 is_stmt 0      @ ../Drivers/STM32F1xx_HAL_Driver/Src/stm32f1xx_hal_adc.c:1960:5
	tst.w	r0, #1
	bne	.LBB6_9
.Ltmp103:
@ %bb.6:                                @   in Loop: Header=BB6_5 Depth=1
	@DEBUG_VALUE: ADC_Enable:hadc <- $r4
	.loc	7 1962 11 is_stmt 1     @ ../Drivers/STM32F1xx_HAL_Driver/Src/stm32f1xx_hal_adc.c:1962:11
	bl	HAL_GetTick
	.loc	7 1962 25 is_stmt 0     @ ../Drivers/STM32F1xx_HAL_Driver/Src/stm32f1xx_hal_adc.c:1962:25
	subs	r0, r0, r5
.Ltmp104:
	.loc	7 1962 10               @ ../Drivers/STM32F1xx_HAL_Driver/Src/stm32f1xx_hal_adc.c:1962:10
	cmp	r0, #3
	blo	.LBB6_5
.Ltmp105:
@ %bb.7:
	@DEBUG_VALUE: ADC_Enable:hadc <- $r4
	.loc	7 1965 9 is_stmt 1      @ ../Drivers/STM32F1xx_HAL_Driver/Src/stm32f1xx_hal_adc.c:1965:9
	ldr	r0, [r4, #40]
	orr	r0, r0, #16
	str	r0, [r4, #40]
	movs	r0, #0
.Ltmp106:
	.loc	7 1971 9                @ ../Drivers/STM32F1xx_HAL_Driver/Src/stm32f1xx_hal_adc.c:1971:9
	str	r0, [r4, #36]
.Ltmp107:
	.loc	7 1968 9                @ ../Drivers/STM32F1xx_HAL_Driver/Src/stm32f1xx_hal_adc.c:1968:9
	ldr	r0, [r4, #44]
	orr	r0, r0, #1
	str	r0, [r4, #44]
	movs	r0, #1
.Ltmp108:
.LBB6_8:
	@DEBUG_VALUE: ADC_Enable:hadc <- $r4
	.loc	7 1980 1                @ ../Drivers/STM32F1xx_HAL_Driver/Src/stm32f1xx_hal_adc.c:1980:1
	add	sp, #8
	pop	{r4, r5, r7, pc}
.Ltmp109:
.LBB6_9:
	@DEBUG_VALUE: ADC_Enable:hadc <- $r4
	.loc	7 0 1 is_stmt 0         @ ../Drivers/STM32F1xx_HAL_Driver/Src/stm32f1xx_hal_adc.c:0:1
	movs	r0, #0
	.loc	7 1980 1                @ ../Drivers/STM32F1xx_HAL_Driver/Src/stm32f1xx_hal_adc.c:1980:1
	add	sp, #8
	pop	{r4, r5, r7, pc}
.Ltmp110:
.Lfunc_end6:
	.size	ADC_Enable, .Lfunc_end6-ADC_Enable
	.cfi_endproc
	.cantunwind
	.fnend
                                        @ -- End function
	.section	.text.HAL_ADC_Stop,"ax",%progbits
	.hidden	HAL_ADC_Stop            @ -- Begin function HAL_ADC_Stop
	.globl	HAL_ADC_Stop
	.p2align	2
	.type	HAL_ADC_Stop,%function
	.code	16                      @ @HAL_ADC_Stop
	.thumb_func
HAL_ADC_Stop:
.Lfunc_begin7:
	.loc	7 882 0 is_stmt 1       @ ../Drivers/STM32F1xx_HAL_Driver/Src/stm32f1xx_hal_adc.c:882:0
	.fnstart
	.cfi_startproc
@ %bb.0:
	.save	{r4, lr}
	push	{r4, lr}
	.cfi_def_cfa_offset 8
	.cfi_offset lr, -4
	.cfi_offset r4, -8
	@DEBUG_VALUE: HAL_ADC_Stop:hadc <- $r0
	mov	r4, r0
.Ltmp111:
	@DEBUG_VALUE: HAL_ADC_Stop:tmp_hal_status <- 0
	@DEBUG_VALUE: HAL_ADC_Stop:hadc <- $r4
	.loc	7 889 3 prologue_end    @ ../Drivers/STM32F1xx_HAL_Driver/Src/stm32f1xx_hal_adc.c:889:3
	ldr	r0, [r0, #36]
.Ltmp112:
	.loc	7 889 3 is_stmt 0       @ ../Drivers/STM32F1xx_HAL_Driver/Src/stm32f1xx_hal_adc.c:889:3
	cmp	r0, #1
	itt	eq
	moveq	r0, #2
.Ltmp113:
	.loc	7 909 1 is_stmt 1       @ ../Drivers/STM32F1xx_HAL_Driver/Src/stm32f1xx_hal_adc.c:909:1
	popeq	{r4, pc}
.Ltmp114:
	.loc	7 0 1 is_stmt 0         @ ../Drivers/STM32F1xx_HAL_Driver/Src/stm32f1xx_hal_adc.c:0:1
	movs	r0, #1
.Ltmp115:
	.loc	7 889 3 is_stmt 1       @ ../Drivers/STM32F1xx_HAL_Driver/Src/stm32f1xx_hal_adc.c:889:3
	str	r0, [r4, #36]
.Ltmp116:
	.loc	7 893 20                @ ../Drivers/STM32F1xx_HAL_Driver/Src/stm32f1xx_hal_adc.c:893:20
	mov	r0, r4
	bl	ADC_ConversionStop_Disable
.Ltmp117:
	@DEBUG_VALUE: HAL_ADC_Stop:tmp_hal_status <- $r0
	.loc	7 896 7                 @ ../Drivers/STM32F1xx_HAL_Driver/Src/stm32f1xx_hal_adc.c:896:7
	cbnz	r0, .LBB7_2
.Ltmp118:
@ %bb.1:
	@DEBUG_VALUE: HAL_ADC_Stop:tmp_hal_status <- $r0
	.loc	7 899 5                 @ ../Drivers/STM32F1xx_HAL_Driver/Src/stm32f1xx_hal_adc.c:899:5
	ldr	r1, [r4, #40]
	movw	r2, #4353
	bics	r1, r2
	orr	r1, r1, #1
	str	r1, [r4, #40]
.Ltmp119:
.LBB7_2:
	@DEBUG_VALUE: HAL_ADC_Stop:tmp_hal_status <- $r0
	.loc	7 905 3                 @ ../Drivers/STM32F1xx_HAL_Driver/Src/stm32f1xx_hal_adc.c:905:3
	movs	r1, #0
	str	r1, [r4, #36]
.Ltmp120:
	.loc	7 909 1                 @ ../Drivers/STM32F1xx_HAL_Driver/Src/stm32f1xx_hal_adc.c:909:1
	pop	{r4, pc}
.Ltmp121:
.Lfunc_end7:
	.size	HAL_ADC_Stop, .Lfunc_end7-HAL_ADC_Stop
	.cfi_endproc
	.cantunwind
	.fnend
                                        @ -- End function
	.section	.text.HAL_ADC_PollForConversion,"ax",%progbits
	.hidden	HAL_ADC_PollForConversion @ -- Begin function HAL_ADC_PollForConversion
	.globl	HAL_ADC_PollForConversion
	.p2align	2
	.type	HAL_ADC_PollForConversion,%function
	.code	16                      @ @HAL_ADC_PollForConversion
	.thumb_func
HAL_ADC_PollForConversion:
.Lfunc_begin8:
	.loc	7 926 0                 @ ../Drivers/STM32F1xx_HAL_Driver/Src/stm32f1xx_hal_adc.c:926:0
	.fnstart
	.cfi_startproc
@ %bb.0:
	.save	{r4, r5, r6, r7, r8, lr}
	push.w	{r4, r5, r6, r7, r8, lr}
	.cfi_def_cfa_offset 24
	.cfi_offset lr, -4
	.cfi_offset r8, -8
	.cfi_offset r7, -12
	.cfi_offset r6, -16
	.cfi_offset r5, -20
	.cfi_offset r4, -24
	.pad	#8
	sub	sp, #8
	.cfi_def_cfa_offset 32
	@DEBUG_VALUE: HAL_ADC_PollForConversion:hadc <- $r0
	@DEBUG_VALUE: HAL_ADC_PollForConversion:Timeout <- $r1
	mov	r5, r1
	mov	r4, r0
	movs	r6, #0
.Ltmp122:
	@DEBUG_VALUE: HAL_ADC_PollForConversion:Conversion_Timeout_CPU_cycles <- 0
	@DEBUG_VALUE: HAL_ADC_PollForConversion:tickstart <- 0
	@DEBUG_VALUE: HAL_ADC_PollForConversion:Timeout <- $r5
	@DEBUG_VALUE: HAL_ADC_PollForConversion:hadc <- $r4
	.loc	7 931 17 prologue_end   @ ../Drivers/STM32F1xx_HAL_Driver/Src/stm32f1xx_hal_adc.c:931:17
	str	r6, [sp, #4]
.Ltmp123:
	@DEBUG_VALUE: HAL_ADC_PollForConversion:Conversion_Timeout_CPU_cycles_max <- 0
	.loc	7 938 15                @ ../Drivers/STM32F1xx_HAL_Driver/Src/stm32f1xx_hal_adc.c:938:15
	bl	HAL_GetTick
	mov	r8, r0
.Ltmp124:
	@DEBUG_VALUE: HAL_ADC_PollForConversion:tickstart <- $r8
	.loc	7 943 7                 @ ../Drivers/STM32F1xx_HAL_Driver/Src/stm32f1xx_hal_adc.c:943:7
	ldr	r0, [r4]
	ldr	r1, [r0, #8]
.Ltmp125:
	.loc	7 943 7 is_stmt 0       @ ../Drivers/STM32F1xx_HAL_Driver/Src/stm32f1xx_hal_adc.c:943:7
	tst.w	r1, #256
	bne	.LBB8_9
.Ltmp126:
@ %bb.1:
	@DEBUG_VALUE: HAL_ADC_PollForConversion:tickstart <- $r8
	@DEBUG_VALUE: HAL_ADC_PollForConversion:hadc <- $r4
	@DEBUG_VALUE: HAL_ADC_PollForConversion:Timeout <- $r5
	.loc	7 968 7 is_stmt 1       @ ../Drivers/STM32F1xx_HAL_Driver/Src/stm32f1xx_hal_adc.c:968:7
	ldr	r1, [r0, #4]
	.loc	7 968 57 is_stmt 0      @ ../Drivers/STM32F1xx_HAL_Driver/Src/stm32f1xx_hal_adc.c:968:57
	tst.w	r1, #256
	bne	.LBB8_3
.Ltmp127:
@ %bb.2:
	@DEBUG_VALUE: HAL_ADC_PollForConversion:tickstart <- $r8
	@DEBUG_VALUE: HAL_ADC_PollForConversion:hadc <- $r4
	@DEBUG_VALUE: HAL_ADC_PollForConversion:Timeout <- $r5
	.loc	7 969 7 is_stmt 1       @ ../Drivers/STM32F1xx_HAL_Driver/Src/stm32f1xx_hal_adc.c:969:7
	ldr	r0, [r0, #44]
.Ltmp128:
	.loc	7 968 7                 @ ../Drivers/STM32F1xx_HAL_Driver/Src/stm32f1xx_hal_adc.c:968:7
	tst.w	r0, #15728640
	beq	.LBB8_10
.Ltmp129:
.LBB8_3:
	@DEBUG_VALUE: HAL_ADC_PollForConversion:tickstart <- $r8
	@DEBUG_VALUE: HAL_ADC_PollForConversion:hadc <- $r4
	@DEBUG_VALUE: HAL_ADC_PollForConversion:Timeout <- $r5
	.loc	7 996 43                @ ../Drivers/STM32F1xx_HAL_Driver/Src/stm32f1xx_hal_adc.c:996:43
	movw	r0, :lower16:SystemCoreClock
	movt	r0, :upper16:SystemCoreClock
	ldr	r6, [r0]
	.loc	7 997 45                @ ../Drivers/STM32F1xx_HAL_Driver/Src/stm32f1xx_hal_adc.c:997:45
	movs	r0, #2
	bl	HAL_RCCEx_GetPeriphCLKFreq
	.loc	7 997 43 is_stmt 0      @ ../Drivers/STM32F1xx_HAL_Driver/Src/stm32f1xx_hal_adc.c:997:43
	udiv	r0, r6, r0
	.loc	7 998 44 is_stmt 1      @ ../Drivers/STM32F1xx_HAL_Driver/Src/stm32f1xx_hal_adc.c:998:44
	ldr	r1, [r4]
	ldr	r2, [r1, #16]
	movw	r3, #9362
	movt	r3, #4681
	movw	r7, #18724
	movt	r7, #9362
	tst	r2, r7
	bne	.LBB8_5
.Ltmp130:
@ %bb.4:
	@DEBUG_VALUE: HAL_ADC_PollForConversion:tickstart <- $r8
	@DEBUG_VALUE: HAL_ADC_PollForConversion:hadc <- $r4
	@DEBUG_VALUE: HAL_ADC_PollForConversion:Timeout <- $r5
	ldr	r2, [r1, #12]
	movw	r7, #18724
	movt	r7, #146
	tst	r2, r7
	beq	.LBB8_16
.Ltmp131:
.LBB8_5:
	@DEBUG_VALUE: HAL_ADC_PollForConversion:tickstart <- $r8
	@DEBUG_VALUE: HAL_ADC_PollForConversion:hadc <- $r4
	@DEBUG_VALUE: HAL_ADC_PollForConversion:Timeout <- $r5
	ldr	r2, [r1, #16]
	tst	r2, r3
	bne	.LBB8_7
.Ltmp132:
@ %bb.6:
	@DEBUG_VALUE: HAL_ADC_PollForConversion:tickstart <- $r8
	@DEBUG_VALUE: HAL_ADC_PollForConversion:hadc <- $r4
	@DEBUG_VALUE: HAL_ADC_PollForConversion:Timeout <- $r5
	ldr	r2, [r1, #12]
	movw	r3, #9362
	movt	r3, #73
	tst	r2, r3
	beq	.LBB8_18
.Ltmp133:
.LBB8_7:
	@DEBUG_VALUE: HAL_ADC_PollForConversion:tickstart <- $r8
	@DEBUG_VALUE: HAL_ADC_PollForConversion:hadc <- $r4
	@DEBUG_VALUE: HAL_ADC_PollForConversion:Timeout <- $r5
	ldr	r7, [r1, #16]
	movs	r2, #252
	movw	r3, #37449
	movt	r3, #36
	tst	r7, r3
	bne	.LBB8_19
.Ltmp134:
@ %bb.8:
	@DEBUG_VALUE: HAL_ADC_PollForConversion:tickstart <- $r8
	@DEBUG_VALUE: HAL_ADC_PollForConversion:hadc <- $r4
	@DEBUG_VALUE: HAL_ADC_PollForConversion:Timeout <- $r5
	ldr	r1, [r1, #12]
	tst	r1, r3
	it	eq
	moveq	r2, #84
	b	.LBB8_19
.Ltmp135:
.LBB8_9:
	@DEBUG_VALUE: HAL_ADC_PollForConversion:tickstart <- $r8
	@DEBUG_VALUE: HAL_ADC_PollForConversion:hadc <- $r4
	@DEBUG_VALUE: HAL_ADC_PollForConversion:Timeout <- $r5
	.loc	7 949 5                 @ ../Drivers/STM32F1xx_HAL_Driver/Src/stm32f1xx_hal_adc.c:949:5
	str	r6, [r4, #36]
.Ltmp136:
	.loc	7 946 5                 @ ../Drivers/STM32F1xx_HAL_Driver/Src/stm32f1xx_hal_adc.c:946:5
	ldr	r0, [r4, #40]
	orr	r0, r0, #32
	str	r0, [r4, #40]
	movs	r0, #1
.Ltmp137:
	.loc	7 1045 1                @ ../Drivers/STM32F1xx_HAL_Driver/Src/stm32f1xx_hal_adc.c:1045:1
	add	sp, #8
	pop.w	{r4, r5, r6, r7, r8, pc}
.Ltmp138:
.LBB8_10:
	@DEBUG_VALUE: HAL_ADC_PollForConversion:tickstart <- $r8
	@DEBUG_VALUE: HAL_ADC_PollForConversion:hadc <- $r4
	@DEBUG_VALUE: HAL_ADC_PollForConversion:Timeout <- $r5
	.loc	7 972 11                @ ../Drivers/STM32F1xx_HAL_Driver/Src/stm32f1xx_hal_adc.c:972:11
	ldr	r0, [r4]
	ldr	r0, [r0]
	.loc	7 972 5 is_stmt 0       @ ../Drivers/STM32F1xx_HAL_Driver/Src/stm32f1xx_hal_adc.c:972:5
	tst.w	r0, #2
	bne	.LBB8_25
.Ltmp139:
@ %bb.11:
	@DEBUG_VALUE: HAL_ADC_PollForConversion:tickstart <- $r8
	@DEBUG_VALUE: HAL_ADC_PollForConversion:hadc <- $r4
	@DEBUG_VALUE: HAL_ADC_PollForConversion:Timeout <- $r5
	cmp	r5, #0
	beq	.LBB8_29
.Ltmp140:
@ %bb.12:
	@DEBUG_VALUE: HAL_ADC_PollForConversion:tickstart <- $r8
	@DEBUG_VALUE: HAL_ADC_PollForConversion:hadc <- $r4
	@DEBUG_VALUE: HAL_ADC_PollForConversion:Timeout <- $r5
	.loc	7 0 5                   @ ../Drivers/STM32F1xx_HAL_Driver/Src/stm32f1xx_hal_adc.c:0:5
	adds	r6, r5, #1
.Ltmp141:
	.p2align	2
.LBB8_13:                               @ =>This Inner Loop Header: Depth=1
	@DEBUG_VALUE: HAL_ADC_PollForConversion:tickstart <- $r8
	@DEBUG_VALUE: HAL_ADC_PollForConversion:hadc <- $r4
	@DEBUG_VALUE: HAL_ADC_PollForConversion:Timeout <- $r5
	.loc	7 975 10 is_stmt 1      @ ../Drivers/STM32F1xx_HAL_Driver/Src/stm32f1xx_hal_adc.c:975:10
	cbz	r6, .LBB8_15
.Ltmp142:
@ %bb.14:                               @   in Loop: Header=BB8_13 Depth=1
	@DEBUG_VALUE: HAL_ADC_PollForConversion:tickstart <- $r8
	@DEBUG_VALUE: HAL_ADC_PollForConversion:hadc <- $r4
	@DEBUG_VALUE: HAL_ADC_PollForConversion:Timeout <- $r5
	.loc	7 977 33                @ ../Drivers/STM32F1xx_HAL_Driver/Src/stm32f1xx_hal_adc.c:977:33
	bl	HAL_GetTick
	.loc	7 977 47 is_stmt 0      @ ../Drivers/STM32F1xx_HAL_Driver/Src/stm32f1xx_hal_adc.c:977:47
	sub.w	r0, r0, r8
.Ltmp143:
	.loc	7 977 12                @ ../Drivers/STM32F1xx_HAL_Driver/Src/stm32f1xx_hal_adc.c:977:12
	cmp	r0, r5
	bhi	.LBB8_29
.Ltmp144:
.LBB8_15:                               @   in Loop: Header=BB8_13 Depth=1
	@DEBUG_VALUE: HAL_ADC_PollForConversion:tickstart <- $r8
	@DEBUG_VALUE: HAL_ADC_PollForConversion:hadc <- $r4
	@DEBUG_VALUE: HAL_ADC_PollForConversion:Timeout <- $r5
	.loc	7 972 11 is_stmt 1      @ ../Drivers/STM32F1xx_HAL_Driver/Src/stm32f1xx_hal_adc.c:972:11
	ldr	r0, [r4]
	ldr	r0, [r0]
	.loc	7 972 5 is_stmt 0       @ ../Drivers/STM32F1xx_HAL_Driver/Src/stm32f1xx_hal_adc.c:972:5
	tst.w	r0, #2
	beq	.LBB8_13
	b	.LBB8_25
.Ltmp145:
.LBB8_16:
	@DEBUG_VALUE: HAL_ADC_PollForConversion:tickstart <- $r8
	@DEBUG_VALUE: HAL_ADC_PollForConversion:hadc <- $r4
	@DEBUG_VALUE: HAL_ADC_PollForConversion:Timeout <- $r5
	.loc	7 998 44 is_stmt 1      @ ../Drivers/STM32F1xx_HAL_Driver/Src/stm32f1xx_hal_adc.c:998:44
	ldr	r7, [r1, #16]
	movs	r2, #41
	tst	r7, r3
	bne	.LBB8_19
.Ltmp146:
@ %bb.17:
	@DEBUG_VALUE: HAL_ADC_PollForConversion:tickstart <- $r8
	@DEBUG_VALUE: HAL_ADC_PollForConversion:hadc <- $r4
	@DEBUG_VALUE: HAL_ADC_PollForConversion:Timeout <- $r5
	ldr	r1, [r1, #12]
	movw	r3, #9362
	movt	r3, #73
	tst	r1, r3
	it	eq
	moveq	r2, #20
	b	.LBB8_19
.Ltmp147:
.LBB8_18:
	@DEBUG_VALUE: HAL_ADC_PollForConversion:tickstart <- $r8
	@DEBUG_VALUE: HAL_ADC_PollForConversion:hadc <- $r4
	@DEBUG_VALUE: HAL_ADC_PollForConversion:Timeout <- $r5
	.loc	7 0 44 is_stmt 0        @ ../Drivers/STM32F1xx_HAL_Driver/Src/stm32f1xx_hal_adc.c:0:44
	movs	r2, #84
.Ltmp148:
.LBB8_19:
	@DEBUG_VALUE: HAL_ADC_PollForConversion:tickstart <- $r8
	@DEBUG_VALUE: HAL_ADC_PollForConversion:hadc <- $r4
	@DEBUG_VALUE: HAL_ADC_PollForConversion:Timeout <- $r5
	.loc	7 998 42                @ ../Drivers/STM32F1xx_HAL_Driver/Src/stm32f1xx_hal_adc.c:998:42
	mul	r7, r2, r0
.Ltmp149:
	@DEBUG_VALUE: HAL_ADC_PollForConversion:Conversion_Timeout_CPU_cycles_max <- $r7
	.loc	7 1000 11 is_stmt 1     @ ../Drivers/STM32F1xx_HAL_Driver/Src/stm32f1xx_hal_adc.c:1000:11
	ldr	r0, [sp, #4]
.Ltmp150:
	@DEBUG_VALUE: HAL_ADC_PollForConversion:Conversion_Timeout_CPU_cycles <- $r0
	.loc	7 1000 5 is_stmt 0      @ ../Drivers/STM32F1xx_HAL_Driver/Src/stm32f1xx_hal_adc.c:1000:5
	cmp	r0, r7
	bhs	.LBB8_25
.Ltmp151:
@ %bb.20:
	@DEBUG_VALUE: HAL_ADC_PollForConversion:Conversion_Timeout_CPU_cycles <- $r0
	@DEBUG_VALUE: HAL_ADC_PollForConversion:Conversion_Timeout_CPU_cycles_max <- $r7
	@DEBUG_VALUE: HAL_ADC_PollForConversion:tickstart <- $r8
	@DEBUG_VALUE: HAL_ADC_PollForConversion:hadc <- $r4
	@DEBUG_VALUE: HAL_ADC_PollForConversion:Timeout <- $r5
	cbz	r5, .LBB8_29
.Ltmp152:
@ %bb.21:
	@DEBUG_VALUE: HAL_ADC_PollForConversion:Conversion_Timeout_CPU_cycles <- $r0
	@DEBUG_VALUE: HAL_ADC_PollForConversion:Conversion_Timeout_CPU_cycles_max <- $r7
	@DEBUG_VALUE: HAL_ADC_PollForConversion:tickstart <- $r8
	@DEBUG_VALUE: HAL_ADC_PollForConversion:hadc <- $r4
	@DEBUG_VALUE: HAL_ADC_PollForConversion:Timeout <- $r5
	.loc	7 0 5                   @ ../Drivers/STM32F1xx_HAL_Driver/Src/stm32f1xx_hal_adc.c:0:5
	adds	r6, r5, #1
.Ltmp153:
	.p2align	2
.LBB8_22:                               @ =>This Inner Loop Header: Depth=1
	@DEBUG_VALUE: HAL_ADC_PollForConversion:Conversion_Timeout_CPU_cycles <- $r0
	@DEBUG_VALUE: HAL_ADC_PollForConversion:Conversion_Timeout_CPU_cycles_max <- $r7
	@DEBUG_VALUE: HAL_ADC_PollForConversion:tickstart <- $r8
	@DEBUG_VALUE: HAL_ADC_PollForConversion:hadc <- $r4
	@DEBUG_VALUE: HAL_ADC_PollForConversion:Timeout <- $r5
	.loc	7 1003 10 is_stmt 1     @ ../Drivers/STM32F1xx_HAL_Driver/Src/stm32f1xx_hal_adc.c:1003:10
	cbz	r6, .LBB8_24
.Ltmp154:
@ %bb.23:                               @   in Loop: Header=BB8_22 Depth=1
	@DEBUG_VALUE: HAL_ADC_PollForConversion:Conversion_Timeout_CPU_cycles <- $r0
	@DEBUG_VALUE: HAL_ADC_PollForConversion:Conversion_Timeout_CPU_cycles_max <- $r7
	@DEBUG_VALUE: HAL_ADC_PollForConversion:tickstart <- $r8
	@DEBUG_VALUE: HAL_ADC_PollForConversion:hadc <- $r4
	@DEBUG_VALUE: HAL_ADC_PollForConversion:Timeout <- $r5
	.loc	7 1005 33               @ ../Drivers/STM32F1xx_HAL_Driver/Src/stm32f1xx_hal_adc.c:1005:33
	bl	HAL_GetTick
.Ltmp155:
	.loc	7 1005 47 is_stmt 0     @ ../Drivers/STM32F1xx_HAL_Driver/Src/stm32f1xx_hal_adc.c:1005:47
	sub.w	r0, r0, r8
.Ltmp156:
	.loc	7 1005 12               @ ../Drivers/STM32F1xx_HAL_Driver/Src/stm32f1xx_hal_adc.c:1005:12
	cmp	r0, r5
	bhi	.LBB8_29
.Ltmp157:
.LBB8_24:                               @   in Loop: Header=BB8_22 Depth=1
	@DEBUG_VALUE: HAL_ADC_PollForConversion:Conversion_Timeout_CPU_cycles_max <- $r7
	@DEBUG_VALUE: HAL_ADC_PollForConversion:tickstart <- $r8
	@DEBUG_VALUE: HAL_ADC_PollForConversion:hadc <- $r4
	@DEBUG_VALUE: HAL_ADC_PollForConversion:Timeout <- $r5
	.loc	7 1016 37 is_stmt 1     @ ../Drivers/STM32F1xx_HAL_Driver/Src/stm32f1xx_hal_adc.c:1016:37
	ldr	r0, [sp, #4]
.Ltmp158:
	@DEBUG_VALUE: HAL_ADC_PollForConversion:Conversion_Timeout_CPU_cycles <- $r0
	adds	r0, #1
.Ltmp159:
	@DEBUG_VALUE: HAL_ADC_PollForConversion:Conversion_Timeout_CPU_cycles <- $r0
	str	r0, [sp, #4]
.Ltmp160:
	.loc	7 1000 11               @ ../Drivers/STM32F1xx_HAL_Driver/Src/stm32f1xx_hal_adc.c:1000:11
	ldr	r0, [sp, #4]
.Ltmp161:
	@DEBUG_VALUE: HAL_ADC_PollForConversion:Conversion_Timeout_CPU_cycles <- $r0
	.loc	7 1000 5 is_stmt 0      @ ../Drivers/STM32F1xx_HAL_Driver/Src/stm32f1xx_hal_adc.c:1000:5
	cmp	r0, r7
	blo	.LBB8_22
.Ltmp162:
.LBB8_25:
	@DEBUG_VALUE: HAL_ADC_PollForConversion:tickstart <- $r8
	@DEBUG_VALUE: HAL_ADC_PollForConversion:hadc <- $r4
	@DEBUG_VALUE: HAL_ADC_PollForConversion:Timeout <- $r5
	.loc	7 1021 3 is_stmt 1      @ ../Drivers/STM32F1xx_HAL_Driver/Src/stm32f1xx_hal_adc.c:1021:3
	ldr	r0, [r4]
	mvn	r1, #18
	str	r1, [r0]
	.loc	7 1024 3                @ ../Drivers/STM32F1xx_HAL_Driver/Src/stm32f1xx_hal_adc.c:1024:3
	ldr	r1, [r4, #40]
	orr	r1, r1, #512
	str	r1, [r4, #40]
.Ltmp163:
	.loc	7 1031 6                @ ../Drivers/STM32F1xx_HAL_Driver/Src/stm32f1xx_hal_adc.c:1031:6
	ldr	r0, [r0, #8]
	and	r0, r0, #917504
	.loc	7 1031 49 is_stmt 0     @ ../Drivers/STM32F1xx_HAL_Driver/Src/stm32f1xx_hal_adc.c:1031:49
	cmp.w	r0, #917504
	bne	.LBB8_28
.Ltmp164:
@ %bb.26:
	@DEBUG_VALUE: HAL_ADC_PollForConversion:tickstart <- $r8
	@DEBUG_VALUE: HAL_ADC_PollForConversion:hadc <- $r4
	@DEBUG_VALUE: HAL_ADC_PollForConversion:Timeout <- $r5
	.loc	7 1032 18 is_stmt 1     @ ../Drivers/STM32F1xx_HAL_Driver/Src/stm32f1xx_hal_adc.c:1032:18
	ldr	r0, [r4, #12]
.Ltmp165:
	.loc	7 1031 6                @ ../Drivers/STM32F1xx_HAL_Driver/Src/stm32f1xx_hal_adc.c:1031:6
	cbnz	r0, .LBB8_28
.Ltmp166:
@ %bb.27:
	@DEBUG_VALUE: HAL_ADC_PollForConversion:tickstart <- $r8
	@DEBUG_VALUE: HAL_ADC_PollForConversion:hadc <- $r4
	@DEBUG_VALUE: HAL_ADC_PollForConversion:Timeout <- $r5
	.loc	7 1035 5                @ ../Drivers/STM32F1xx_HAL_Driver/Src/stm32f1xx_hal_adc.c:1035:5
	ldr	r0, [r4, #40]
	bic	r0, r0, #256
	str	r0, [r4, #40]
.Ltmp167:
	.loc	7 1037 9                @ ../Drivers/STM32F1xx_HAL_Driver/Src/stm32f1xx_hal_adc.c:1037:9
	ldr	r0, [r4, #40]
.Ltmp168:
	.loc	7 1037 9 is_stmt 0      @ ../Drivers/STM32F1xx_HAL_Driver/Src/stm32f1xx_hal_adc.c:1037:9
	tst.w	r0, #4096
.Ltmp169:
	.loc	7 1039 7 is_stmt 1      @ ../Drivers/STM32F1xx_HAL_Driver/Src/stm32f1xx_hal_adc.c:1039:7
	ittt	eq
	ldreq	r0, [r4, #40]
	orreq	r0, r0, #1
	streq	r0, [r4, #40]
.Ltmp170:
.LBB8_28:
	@DEBUG_VALUE: HAL_ADC_PollForConversion:tickstart <- $r8
	@DEBUG_VALUE: HAL_ADC_PollForConversion:hadc <- $r4
	@DEBUG_VALUE: HAL_ADC_PollForConversion:Timeout <- $r5
	.loc	7 0 7 is_stmt 0         @ ../Drivers/STM32F1xx_HAL_Driver/Src/stm32f1xx_hal_adc.c:0:7
	movs	r0, #0
	.loc	7 1045 1 is_stmt 1      @ ../Drivers/STM32F1xx_HAL_Driver/Src/stm32f1xx_hal_adc.c:1045:1
	add	sp, #8
	pop.w	{r4, r5, r6, r7, r8, pc}
.Ltmp171:
.LBB8_29:
	@DEBUG_VALUE: HAL_ADC_PollForConversion:tickstart <- $r8
	@DEBUG_VALUE: HAL_ADC_PollForConversion:hadc <- $r4
	@DEBUG_VALUE: HAL_ADC_PollForConversion:Timeout <- $r5
	.loc	7 0 1 is_stmt 0         @ ../Drivers/STM32F1xx_HAL_Driver/Src/stm32f1xx_hal_adc.c:0:1
	movs	r0, #0
	str	r0, [r4, #36]
	ldr	r0, [r4, #40]
	orr	r0, r0, #4
	str	r0, [r4, #40]
	movs	r0, #3
	.loc	7 1045 1                @ ../Drivers/STM32F1xx_HAL_Driver/Src/stm32f1xx_hal_adc.c:1045:1
	add	sp, #8
	pop.w	{r4, r5, r6, r7, r8, pc}
.Ltmp172:
.Lfunc_end8:
	.size	HAL_ADC_PollForConversion, .Lfunc_end8-HAL_ADC_PollForConversion
	.cfi_endproc
	.cantunwind
	.fnend
                                        @ -- End function
	.section	.text.HAL_ADC_PollForEvent,"ax",%progbits
	.hidden	HAL_ADC_PollForEvent    @ -- Begin function HAL_ADC_PollForEvent
	.globl	HAL_ADC_PollForEvent
	.p2align	2
	.type	HAL_ADC_PollForEvent,%function
	.code	16                      @ @HAL_ADC_PollForEvent
	.thumb_func
HAL_ADC_PollForEvent:
.Lfunc_begin9:
	.loc	7 1057 0 is_stmt 1      @ ../Drivers/STM32F1xx_HAL_Driver/Src/stm32f1xx_hal_adc.c:1057:0
	.fnstart
	.cfi_startproc
@ %bb.0:
	.save	{r4, r5, r6, r7, r8, lr}
	push.w	{r4, r5, r6, r7, r8, lr}
	.cfi_def_cfa_offset 24
	.cfi_offset lr, -4
	.cfi_offset r8, -8
	.cfi_offset r7, -12
	.cfi_offset r6, -16
	.cfi_offset r5, -20
	.cfi_offset r4, -24
	@DEBUG_VALUE: HAL_ADC_PollForEvent:hadc <- $r0
	@DEBUG_VALUE: HAL_ADC_PollForEvent:EventType <- $r1
	@DEBUG_VALUE: HAL_ADC_PollForEvent:Timeout <- $r2
	mov	r5, r2
	mov	r6, r1
	mov	r4, r0
.Ltmp173:
	@DEBUG_VALUE: HAL_ADC_PollForEvent:tickstart <- 0
	@DEBUG_VALUE: HAL_ADC_PollForEvent:Timeout <- $r5
	@DEBUG_VALUE: HAL_ADC_PollForEvent:EventType <- $r6
	@DEBUG_VALUE: HAL_ADC_PollForEvent:hadc <- $r4
	.loc	7 1065 15 prologue_end  @ ../Drivers/STM32F1xx_HAL_Driver/Src/stm32f1xx_hal_adc.c:1065:15
	bl	HAL_GetTick
	mov	r8, r0
.Ltmp174:
	@DEBUG_VALUE: HAL_ADC_PollForEvent:tickstart <- $r8
	.loc	7 1068 9                @ ../Drivers/STM32F1xx_HAL_Driver/Src/stm32f1xx_hal_adc.c:1068:9
	ldr	r0, [r4]
	ldr	r1, [r0]
	ands	r1, r6
	.loc	7 1068 3 is_stmt 0      @ ../Drivers/STM32F1xx_HAL_Driver/Src/stm32f1xx_hal_adc.c:1068:3
	cmp	r1, r6
	beq	.LBB9_6
.Ltmp175:
@ %bb.1:
	@DEBUG_VALUE: HAL_ADC_PollForEvent:tickstart <- $r8
	@DEBUG_VALUE: HAL_ADC_PollForEvent:hadc <- $r4
	@DEBUG_VALUE: HAL_ADC_PollForEvent:EventType <- $r6
	@DEBUG_VALUE: HAL_ADC_PollForEvent:Timeout <- $r5
	cbz	r5, .LBB9_7
.Ltmp176:
@ %bb.2:
	@DEBUG_VALUE: HAL_ADC_PollForEvent:tickstart <- $r8
	@DEBUG_VALUE: HAL_ADC_PollForEvent:hadc <- $r4
	@DEBUG_VALUE: HAL_ADC_PollForEvent:EventType <- $r6
	@DEBUG_VALUE: HAL_ADC_PollForEvent:Timeout <- $r5
	.loc	7 0 3                   @ ../Drivers/STM32F1xx_HAL_Driver/Src/stm32f1xx_hal_adc.c:0:3
	adds	r7, r5, #1
.Ltmp177:
	.p2align	2
.LBB9_3:                                @ =>This Inner Loop Header: Depth=1
	@DEBUG_VALUE: HAL_ADC_PollForEvent:tickstart <- $r8
	@DEBUG_VALUE: HAL_ADC_PollForEvent:hadc <- $r4
	@DEBUG_VALUE: HAL_ADC_PollForEvent:EventType <- $r6
	@DEBUG_VALUE: HAL_ADC_PollForEvent:Timeout <- $r5
	.loc	7 1071 8 is_stmt 1      @ ../Drivers/STM32F1xx_HAL_Driver/Src/stm32f1xx_hal_adc.c:1071:8
	cbz	r7, .LBB9_5
.Ltmp178:
@ %bb.4:                                @   in Loop: Header=BB9_3 Depth=1
	@DEBUG_VALUE: HAL_ADC_PollForEvent:tickstart <- $r8
	@DEBUG_VALUE: HAL_ADC_PollForEvent:hadc <- $r4
	@DEBUG_VALUE: HAL_ADC_PollForEvent:EventType <- $r6
	@DEBUG_VALUE: HAL_ADC_PollForEvent:Timeout <- $r5
	.loc	7 1073 31               @ ../Drivers/STM32F1xx_HAL_Driver/Src/stm32f1xx_hal_adc.c:1073:31
	bl	HAL_GetTick
	.loc	7 1073 45 is_stmt 0     @ ../Drivers/STM32F1xx_HAL_Driver/Src/stm32f1xx_hal_adc.c:1073:45
	sub.w	r0, r0, r8
.Ltmp179:
	.loc	7 1073 10               @ ../Drivers/STM32F1xx_HAL_Driver/Src/stm32f1xx_hal_adc.c:1073:10
	cmp	r0, r5
	bhi	.LBB9_7
.Ltmp180:
.LBB9_5:                                @   in Loop: Header=BB9_3 Depth=1
	@DEBUG_VALUE: HAL_ADC_PollForEvent:tickstart <- $r8
	@DEBUG_VALUE: HAL_ADC_PollForEvent:hadc <- $r4
	@DEBUG_VALUE: HAL_ADC_PollForEvent:EventType <- $r6
	@DEBUG_VALUE: HAL_ADC_PollForEvent:Timeout <- $r5
	.loc	7 1068 9 is_stmt 1      @ ../Drivers/STM32F1xx_HAL_Driver/Src/stm32f1xx_hal_adc.c:1068:9
	ldr	r0, [r4]
	ldr	r1, [r0]
	ands	r1, r6
	.loc	7 1068 3 is_stmt 0      @ ../Drivers/STM32F1xx_HAL_Driver/Src/stm32f1xx_hal_adc.c:1068:3
	cmp	r1, r6
	bne	.LBB9_3
.Ltmp181:
.LBB9_6:
	@DEBUG_VALUE: HAL_ADC_PollForEvent:tickstart <- $r8
	@DEBUG_VALUE: HAL_ADC_PollForEvent:hadc <- $r4
	@DEBUG_VALUE: HAL_ADC_PollForEvent:EventType <- $r6
	@DEBUG_VALUE: HAL_ADC_PollForEvent:Timeout <- $r5
	.loc	7 1088 3 is_stmt 1      @ ../Drivers/STM32F1xx_HAL_Driver/Src/stm32f1xx_hal_adc.c:1088:3
	ldr	r1, [r4, #40]
	orr	r1, r1, #65536
	str	r1, [r4, #40]
	.loc	7 1091 3                @ ../Drivers/STM32F1xx_HAL_Driver/Src/stm32f1xx_hal_adc.c:1091:3
	mvn	r1, #1
	str	r1, [r0]
	movs	r0, #0
	.loc	7 1095 1                @ ../Drivers/STM32F1xx_HAL_Driver/Src/stm32f1xx_hal_adc.c:1095:1
	pop.w	{r4, r5, r6, r7, r8, pc}
.Ltmp182:
.LBB9_7:
	@DEBUG_VALUE: HAL_ADC_PollForEvent:tickstart <- $r8
	@DEBUG_VALUE: HAL_ADC_PollForEvent:hadc <- $r4
	@DEBUG_VALUE: HAL_ADC_PollForEvent:EventType <- $r6
	@DEBUG_VALUE: HAL_ADC_PollForEvent:Timeout <- $r5
	.loc	7 0 1 is_stmt 0         @ ../Drivers/STM32F1xx_HAL_Driver/Src/stm32f1xx_hal_adc.c:0:1
	movs	r0, #0
.Ltmp183:
	.loc	7 1079 9 is_stmt 1      @ ../Drivers/STM32F1xx_HAL_Driver/Src/stm32f1xx_hal_adc.c:1079:9
	str	r0, [r4, #36]
.Ltmp184:
	.loc	7 1076 9                @ ../Drivers/STM32F1xx_HAL_Driver/Src/stm32f1xx_hal_adc.c:1076:9
	ldr	r0, [r4, #40]
	orr	r0, r0, #4
	str	r0, [r4, #40]
	movs	r0, #3
.Ltmp185:
	.loc	7 1095 1                @ ../Drivers/STM32F1xx_HAL_Driver/Src/stm32f1xx_hal_adc.c:1095:1
	pop.w	{r4, r5, r6, r7, r8, pc}
.Ltmp186:
.Lfunc_end9:
	.size	HAL_ADC_PollForEvent, .Lfunc_end9-HAL_ADC_PollForEvent
	.cfi_endproc
	.cantunwind
	.fnend
                                        @ -- End function
	.section	.text.HAL_ADC_Start_IT,"ax",%progbits
	.hidden	HAL_ADC_Start_IT        @ -- Begin function HAL_ADC_Start_IT
	.globl	HAL_ADC_Start_IT
	.p2align	2
	.type	HAL_ADC_Start_IT,%function
	.code	16                      @ @HAL_ADC_Start_IT
	.thumb_func
HAL_ADC_Start_IT:
.Lfunc_begin10:
	.loc	7 1106 0                @ ../Drivers/STM32F1xx_HAL_Driver/Src/stm32f1xx_hal_adc.c:1106:0
	.fnstart
	.cfi_startproc
@ %bb.0:
	.save	{r4, lr}
	push	{r4, lr}
	.cfi_def_cfa_offset 8
	.cfi_offset lr, -4
	.cfi_offset r4, -8
	@DEBUG_VALUE: HAL_ADC_Start_IT:hadc <- $r0
	mov	r4, r0
.Ltmp187:
	@DEBUG_VALUE: HAL_ADC_Start_IT:tmp_hal_status <- 0
	@DEBUG_VALUE: HAL_ADC_Start_IT:hadc <- $r4
	.loc	7 1113 3 prologue_end   @ ../Drivers/STM32F1xx_HAL_Driver/Src/stm32f1xx_hal_adc.c:1113:3
	ldr	r0, [r0, #36]
.Ltmp188:
	.loc	7 1113 3 is_stmt 0      @ ../Drivers/STM32F1xx_HAL_Driver/Src/stm32f1xx_hal_adc.c:1113:3
	cmp	r0, #1
	itt	eq
	moveq	r0, #2
.Ltmp189:
	.loc	7 1207 1 is_stmt 1      @ ../Drivers/STM32F1xx_HAL_Driver/Src/stm32f1xx_hal_adc.c:1207:1
	popeq	{r4, pc}
.Ltmp190:
	.loc	7 0 1 is_stmt 0         @ ../Drivers/STM32F1xx_HAL_Driver/Src/stm32f1xx_hal_adc.c:0:1
	movs	r0, #1
.Ltmp191:
	.loc	7 1113 3 is_stmt 1      @ ../Drivers/STM32F1xx_HAL_Driver/Src/stm32f1xx_hal_adc.c:1113:3
	str	r0, [r4, #36]
.Ltmp192:
	.loc	7 1116 20               @ ../Drivers/STM32F1xx_HAL_Driver/Src/stm32f1xx_hal_adc.c:1116:20
	mov	r0, r4
	bl	ADC_Enable
.Ltmp193:
	@DEBUG_VALUE: HAL_ADC_Start_IT:tmp_hal_status <- $r0
	.loc	7 1119 7                @ ../Drivers/STM32F1xx_HAL_Driver/Src/stm32f1xx_hal_adc.c:1119:7
	cmp	r0, #0
.Ltmp194:
	.loc	7 1202 5                @ ../Drivers/STM32F1xx_HAL_Driver/Src/stm32f1xx_hal_adc.c:1202:5
	ittt	ne
	movne	r1, #0
	strne	r1, [r4, #36]
.Ltmp195:
	.loc	7 1207 1                @ ../Drivers/STM32F1xx_HAL_Driver/Src/stm32f1xx_hal_adc.c:1207:1
	popne	{r4, pc}
.Ltmp196:
	.loc	7 1131 9                @ ../Drivers/STM32F1xx_HAL_Driver/Src/stm32f1xx_hal_adc.c:1131:9
	ldr	r0, [r4]
.Ltmp197:
	.loc	7 1124 5                @ ../Drivers/STM32F1xx_HAL_Driver/Src/stm32f1xx_hal_adc.c:1124:5
	ldr	r1, [r4, #40]
	movw	r2, #3841
	bics	r1, r2
	orr	r1, r1, #256
	str	r1, [r4, #40]
	movw	r12, #9220
	movt	r12, #16385
.Ltmp198:
	.loc	7 1131 9                @ ../Drivers/STM32F1xx_HAL_Driver/Src/stm32f1xx_hal_adc.c:1131:9
	add.w	r2, r12, #1020
.Ltmp199:
	.loc	7 1131 9 is_stmt 0      @ ../Drivers/STM32F1xx_HAL_Driver/Src/stm32f1xx_hal_adc.c:1131:9
	cmp	r0, r2
	beq	.LBB10_2
.LBB10_1:
.Ltmp200:
	@DEBUG_VALUE: HAL_ADC_Start_IT:tmp_hal_status <- $r0
	.loc	7 1134 7 is_stmt 1      @ ../Drivers/STM32F1xx_HAL_Driver/Src/stm32f1xx_hal_adc.c:1134:7
	ldr	r1, [r4, #40]
	bic	r1, r1, #1048576
	str	r1, [r4, #40]
.Ltmp201:
	.loc	7 1138 11               @ ../Drivers/STM32F1xx_HAL_Driver/Src/stm32f1xx_hal_adc.c:1138:11
	ldr	r1, [r0, #4]
	tst.w	r1, #1024
	bne	.LBB10_6
	b	.LBB10_7
.Ltmp202:
.LBB10_2:
	@DEBUG_VALUE: HAL_ADC_Start_IT:tmp_hal_status <- $r0
	.loc	7 1131 9                @ ../Drivers/STM32F1xx_HAL_Driver/Src/stm32f1xx_hal_adc.c:1131:9
	ldr.w	r1, [r12]
	tst.w	r1, #983040
	beq	.LBB10_1
.Ltmp203:
@ %bb.3:
	@DEBUG_VALUE: HAL_ADC_Start_IT:tmp_hal_status <- $r0
	.loc	7 1146 7                @ ../Drivers/STM32F1xx_HAL_Driver/Src/stm32f1xx_hal_adc.c:1146:7
	ldr	r1, [r4, #40]
	orr	r1, r1, #1048576
	str	r1, [r4, #40]
.Ltmp204:
	.loc	7 1150 11               @ ../Drivers/STM32F1xx_HAL_Driver/Src/stm32f1xx_hal_adc.c:1150:11
	movw	r1, #10240
	movt	r1, #16385
	cmp	r0, r1
	beq	.LBB10_5
.Ltmp205:
@ %bb.4:
	@DEBUG_VALUE: HAL_ADC_Start_IT:tmp_hal_status <- $r0
	.loc	7 0 11 is_stmt 0        @ ../Drivers/STM32F1xx_HAL_Driver/Src/stm32f1xx_hal_adc.c:0:11
	movw	r1, #9216
	movt	r1, #16385
	.loc	7 1150 11               @ ../Drivers/STM32F1xx_HAL_Driver/Src/stm32f1xx_hal_adc.c:1150:11
	cmp	r0, r1
	bne	.LBB10_7
.Ltmp206:
.LBB10_5:
	@DEBUG_VALUE: HAL_ADC_Start_IT:tmp_hal_status <- $r0
	ldr.w	r1, [r12]
	tst.w	r1, #1024
	beq	.LBB10_7
.Ltmp207:
.LBB10_6:
	@DEBUG_VALUE: HAL_ADC_Start_IT:tmp_hal_status <- $r0
	.loc	7 0 11                  @ ../Drivers/STM32F1xx_HAL_Driver/Src/stm32f1xx_hal_adc.c:0:11
	ldr	r1, [r4, #40]
	movs	r3, #1
	bfi	r1, r3, #12, #2
	str	r1, [r4, #40]
.Ltmp208:
.LBB10_7:
	@DEBUG_VALUE: HAL_ADC_Start_IT:tmp_hal_status <- $r0
	.loc	7 1157 9 is_stmt 1      @ ../Drivers/STM32F1xx_HAL_Driver/Src/stm32f1xx_hal_adc.c:1157:9
	ldr	r1, [r4, #40]
	movs	r3, #0
.Ltmp209:
	.loc	7 1157 9 is_stmt 0      @ ../Drivers/STM32F1xx_HAL_Driver/Src/stm32f1xx_hal_adc.c:1157:9
	tst.w	r1, #4096
	mov.w	r1, #0
.Ltmp210:
	.loc	7 1160 7 is_stmt 1      @ ../Drivers/STM32F1xx_HAL_Driver/Src/stm32f1xx_hal_adc.c:1160:7
	itt	ne
	ldrne	r1, [r4, #44]
	bicne	r1, r1, #6
.Ltmp211:
	.loc	7 1171 5                @ ../Drivers/STM32F1xx_HAL_Driver/Src/stm32f1xx_hal_adc.c:1171:5
	str	r3, [r4, #36]
	str	r1, [r4, #44]
.Ltmp212:
	.loc	7 1175 5                @ ../Drivers/STM32F1xx_HAL_Driver/Src/stm32f1xx_hal_adc.c:1175:5
	mvn	r1, #2
	str	r1, [r0]
	.loc	7 1178 5                @ ../Drivers/STM32F1xx_HAL_Driver/Src/stm32f1xx_hal_adc.c:1178:5
	ldr	r1, [r0, #4]
	orr	r1, r1, #32
	str	r1, [r0, #4]
.Ltmp213:
	.loc	7 1187 9                @ ../Drivers/STM32F1xx_HAL_Driver/Src/stm32f1xx_hal_adc.c:1187:9
	ldr	r1, [r0, #8]
	and	r1, r1, #917504
	.loc	7 1187 50 is_stmt 0     @ ../Drivers/STM32F1xx_HAL_Driver/Src/stm32f1xx_hal_adc.c:1187:50
	cmp.w	r1, #917504
	bne	.LBB10_11
.Ltmp214:
@ %bb.8:
	@DEBUG_VALUE: HAL_ADC_Start_IT:tmp_hal_status <- $r0
	.loc	7 1187 9                @ ../Drivers/STM32F1xx_HAL_Driver/Src/stm32f1xx_hal_adc.c:1187:9
	cmp	r0, r2
	beq	.LBB10_10
.Ltmp215:
.LBB10_9:
	@DEBUG_VALUE: HAL_ADC_Start_IT:tmp_hal_status <- $r0
	.loc	7 1191 7 is_stmt 1      @ ../Drivers/STM32F1xx_HAL_Driver/Src/stm32f1xx_hal_adc.c:1191:7
	ldr	r1, [r0, #8]
	orr	r1, r1, #5242880
	b	.LBB10_12
.Ltmp216:
.LBB10_10:
	@DEBUG_VALUE: HAL_ADC_Start_IT:tmp_hal_status <- $r0
	.loc	7 1188 9                @ ../Drivers/STM32F1xx_HAL_Driver/Src/stm32f1xx_hal_adc.c:1188:9
	ldr.w	r1, [r12]
	tst.w	r1, #983040
	beq	.LBB10_9
.Ltmp217:
.LBB10_11:
	@DEBUG_VALUE: HAL_ADC_Start_IT:tmp_hal_status <- $r0
	.loc	7 1196 7                @ ../Drivers/STM32F1xx_HAL_Driver/Src/stm32f1xx_hal_adc.c:1196:7
	ldr	r1, [r0, #8]
	orr	r1, r1, #1048576
.Ltmp218:
.LBB10_12:
	@DEBUG_VALUE: HAL_ADC_Start_IT:tmp_hal_status <- $r0
	.loc	7 0 7 is_stmt 0         @ ../Drivers/STM32F1xx_HAL_Driver/Src/stm32f1xx_hal_adc.c:0:7
	str	r1, [r0, #8]
	movs	r0, #0
.Ltmp219:
	.loc	7 1207 1 is_stmt 1      @ ../Drivers/STM32F1xx_HAL_Driver/Src/stm32f1xx_hal_adc.c:1207:1
	pop	{r4, pc}
.Ltmp220:
.Lfunc_end10:
	.size	HAL_ADC_Start_IT, .Lfunc_end10-HAL_ADC_Start_IT
	.cfi_endproc
	.cantunwind
	.fnend
                                        @ -- End function
	.section	.text.HAL_ADC_Stop_IT,"ax",%progbits
	.hidden	HAL_ADC_Stop_IT         @ -- Begin function HAL_ADC_Stop_IT
	.globl	HAL_ADC_Stop_IT
	.p2align	2
	.type	HAL_ADC_Stop_IT,%function
	.code	16                      @ @HAL_ADC_Stop_IT
	.thumb_func
HAL_ADC_Stop_IT:
.Lfunc_begin11:
	.loc	7 1217 0                @ ../Drivers/STM32F1xx_HAL_Driver/Src/stm32f1xx_hal_adc.c:1217:0
	.fnstart
	.cfi_startproc
@ %bb.0:
	.save	{r4, lr}
	push	{r4, lr}
	.cfi_def_cfa_offset 8
	.cfi_offset lr, -4
	.cfi_offset r4, -8
	@DEBUG_VALUE: HAL_ADC_Stop_IT:hadc <- $r0
	mov	r4, r0
.Ltmp221:
	@DEBUG_VALUE: HAL_ADC_Stop_IT:tmp_hal_status <- 0
	@DEBUG_VALUE: HAL_ADC_Stop_IT:hadc <- $r4
	.loc	7 1224 3 prologue_end   @ ../Drivers/STM32F1xx_HAL_Driver/Src/stm32f1xx_hal_adc.c:1224:3
	ldr	r0, [r0, #36]
.Ltmp222:
	.loc	7 1224 3 is_stmt 0      @ ../Drivers/STM32F1xx_HAL_Driver/Src/stm32f1xx_hal_adc.c:1224:3
	cmp	r0, #1
	itt	eq
	moveq	r0, #2
.Ltmp223:
	.loc	7 1247 1 is_stmt 1      @ ../Drivers/STM32F1xx_HAL_Driver/Src/stm32f1xx_hal_adc.c:1247:1
	popeq	{r4, pc}
.Ltmp224:
	.loc	7 0 1 is_stmt 0         @ ../Drivers/STM32F1xx_HAL_Driver/Src/stm32f1xx_hal_adc.c:0:1
	movs	r0, #1
.Ltmp225:
	.loc	7 1224 3 is_stmt 1      @ ../Drivers/STM32F1xx_HAL_Driver/Src/stm32f1xx_hal_adc.c:1224:3
	str	r0, [r4, #36]
.Ltmp226:
	.loc	7 1228 20               @ ../Drivers/STM32F1xx_HAL_Driver/Src/stm32f1xx_hal_adc.c:1228:20
	mov	r0, r4
	bl	ADC_ConversionStop_Disable
.Ltmp227:
	@DEBUG_VALUE: HAL_ADC_Stop_IT:tmp_hal_status <- $r0
	.loc	7 1231 7                @ ../Drivers/STM32F1xx_HAL_Driver/Src/stm32f1xx_hal_adc.c:1231:7
	cbnz	r0, .LBB11_2
.Ltmp228:
@ %bb.1:
	@DEBUG_VALUE: HAL_ADC_Stop_IT:tmp_hal_status <- $r0
	.loc	7 1234 5                @ ../Drivers/STM32F1xx_HAL_Driver/Src/stm32f1xx_hal_adc.c:1234:5
	ldr	r1, [r4]
	ldr	r2, [r1, #4]
	bic	r2, r2, #32
	str	r2, [r1, #4]
	.loc	7 1237 5                @ ../Drivers/STM32F1xx_HAL_Driver/Src/stm32f1xx_hal_adc.c:1237:5
	ldr	r1, [r4, #40]
	movw	r2, #4353
	bics	r1, r2
	orr	r1, r1, #1
	str	r1, [r4, #40]
.Ltmp229:
.LBB11_2:
	@DEBUG_VALUE: HAL_ADC_Stop_IT:tmp_hal_status <- $r0
	.loc	7 1243 3                @ ../Drivers/STM32F1xx_HAL_Driver/Src/stm32f1xx_hal_adc.c:1243:3
	movs	r1, #0
	str	r1, [r4, #36]
.Ltmp230:
	.loc	7 1247 1                @ ../Drivers/STM32F1xx_HAL_Driver/Src/stm32f1xx_hal_adc.c:1247:1
	pop	{r4, pc}
.Ltmp231:
.Lfunc_end11:
	.size	HAL_ADC_Stop_IT, .Lfunc_end11-HAL_ADC_Stop_IT
	.cfi_endproc
	.cantunwind
	.fnend
                                        @ -- End function
	.section	.text.HAL_ADC_Start_DMA,"ax",%progbits
	.hidden	HAL_ADC_Start_DMA       @ -- Begin function HAL_ADC_Start_DMA
	.globl	HAL_ADC_Start_DMA
	.p2align	2
	.type	HAL_ADC_Start_DMA,%function
	.code	16                      @ @HAL_ADC_Start_DMA
	.thumb_func
HAL_ADC_Start_DMA:
.Lfunc_begin12:
	.loc	7 1274 0                @ ../Drivers/STM32F1xx_HAL_Driver/Src/stm32f1xx_hal_adc.c:1274:0
	.fnstart
	.cfi_startproc
@ %bb.0:
	.save	{r4, r5, r6, r7, lr}
	push	{r4, r5, r6, r7, lr}
	.cfi_def_cfa_offset 20
	.cfi_offset lr, -4
	.cfi_offset r7, -8
	.cfi_offset r6, -12
	.cfi_offset r5, -16
	.cfi_offset r4, -20
	.pad	#4
	sub	sp, #4
	.cfi_def_cfa_offset 24
	@DEBUG_VALUE: HAL_ADC_Start_DMA:hadc <- $r0
	@DEBUG_VALUE: HAL_ADC_Start_DMA:pData <- $r1
	@DEBUG_VALUE: HAL_ADC_Start_DMA:Length <- $r2
	mov	r5, r2
	mov	r6, r1
	mov	r4, r0
.Ltmp232:
	@DEBUG_VALUE: HAL_ADC_Start_DMA:tmp_hal_status <- 0
	@DEBUG_VALUE: HAL_ADC_Start_DMA:Length <- $r5
	@DEBUG_VALUE: HAL_ADC_Start_DMA:pData <- $r6
	@DEBUG_VALUE: HAL_ADC_Start_DMA:hadc <- $r4
	.loc	7 1283 6 prologue_end   @ ../Drivers/STM32F1xx_HAL_Driver/Src/stm32f1xx_hal_adc.c:1283:6
	ldr	r0, [r0]
	movw	r7, #10240
	movt	r7, #16385
	cmp	r0, r7
	beq	.LBB12_2
.Ltmp233:
@ %bb.1:
	@DEBUG_VALUE: HAL_ADC_Start_DMA:hadc <- $r4
	@DEBUG_VALUE: HAL_ADC_Start_DMA:pData <- $r6
	@DEBUG_VALUE: HAL_ADC_Start_DMA:Length <- $r5
	.loc	7 0 6 is_stmt 0         @ ../Drivers/STM32F1xx_HAL_Driver/Src/stm32f1xx_hal_adc.c:0:6
	movw	r1, #9216
	movt	r1, #16385
	.loc	7 1283 6                @ ../Drivers/STM32F1xx_HAL_Driver/Src/stm32f1xx_hal_adc.c:1283:6
	cmp	r0, r1
	bne	.LBB12_3
.Ltmp234:
.LBB12_2:
	@DEBUG_VALUE: HAL_ADC_Start_DMA:hadc <- $r4
	@DEBUG_VALUE: HAL_ADC_Start_DMA:pData <- $r6
	@DEBUG_VALUE: HAL_ADC_Start_DMA:Length <- $r5
	.loc	7 0 6                   @ ../Drivers/STM32F1xx_HAL_Driver/Src/stm32f1xx_hal_adc.c:0:6
	movw	r0, #9220
	movt	r0, #16385
	.loc	7 1283 6                @ ../Drivers/STM32F1xx_HAL_Driver/Src/stm32f1xx_hal_adc.c:1283:6
	ldr	r0, [r0]
.Ltmp235:
	.loc	7 1283 6                @ ../Drivers/STM32F1xx_HAL_Driver/Src/stm32f1xx_hal_adc.c:1283:6
	tst.w	r0, #983040
	ittt	ne
	movne	r0, #1
	.loc	7 1398 1 is_stmt 1      @ ../Drivers/STM32F1xx_HAL_Driver/Src/stm32f1xx_hal_adc.c:1398:1
	addne	sp, #4
	popne	{r4, r5, r6, r7, pc}
.Ltmp236:
.LBB12_3:
	.loc	7 1286 5                @ ../Drivers/STM32F1xx_HAL_Driver/Src/stm32f1xx_hal_adc.c:1286:5
	ldr	r0, [r4, #36]
.Ltmp237:
	.loc	7 1286 5 is_stmt 0      @ ../Drivers/STM32F1xx_HAL_Driver/Src/stm32f1xx_hal_adc.c:1286:5
	cmp	r0, #1
	ittt	eq
	moveq	r0, #2
.Ltmp238:
	.loc	7 1398 1 is_stmt 1      @ ../Drivers/STM32F1xx_HAL_Driver/Src/stm32f1xx_hal_adc.c:1398:1
	addeq	sp, #4
	popeq	{r4, r5, r6, r7, pc}
	movs	r0, #1
.Ltmp239:
	.loc	7 1286 5                @ ../Drivers/STM32F1xx_HAL_Driver/Src/stm32f1xx_hal_adc.c:1286:5
	str	r0, [r4, #36]
.Ltmp240:
	.loc	7 1289 22               @ ../Drivers/STM32F1xx_HAL_Driver/Src/stm32f1xx_hal_adc.c:1289:22
	mov	r0, r4
	bl	ADC_Enable
.Ltmp241:
	@DEBUG_VALUE: HAL_ADC_Start_DMA:tmp_hal_status <- $r0
	.loc	7 1292 9                @ ../Drivers/STM32F1xx_HAL_Driver/Src/stm32f1xx_hal_adc.c:1292:9
	cbz	r0, .LBB12_5
.Ltmp242:
@ %bb.4:
	@DEBUG_VALUE: HAL_ADC_Start_DMA:tmp_hal_status <- $r0
	.loc	7 1388 7                @ ../Drivers/STM32F1xx_HAL_Driver/Src/stm32f1xx_hal_adc.c:1388:7
	movs	r1, #0
	str	r1, [r4, #36]
.Ltmp243:
	.loc	7 1398 1                @ ../Drivers/STM32F1xx_HAL_Driver/Src/stm32f1xx_hal_adc.c:1398:1
	add	sp, #4
	pop	{r4, r5, r6, r7, pc}
.Ltmp244:
.LBB12_5:
	@DEBUG_VALUE: HAL_ADC_Start_DMA:tmp_hal_status <- $r0
	.loc	7 1304 9                @ ../Drivers/STM32F1xx_HAL_Driver/Src/stm32f1xx_hal_adc.c:1304:9
	ldr	r1, [r4]
.Ltmp245:
	.loc	7 1297 7                @ ../Drivers/STM32F1xx_HAL_Driver/Src/stm32f1xx_hal_adc.c:1297:7
	ldr	r0, [r4, #40]
.Ltmp246:
	movw	r2, #3841
	bics	r0, r2
	orr	r0, r0, #256
	str	r0, [r4, #40]
	movw	r0, #9220
	movt	r0, #16385
.Ltmp247:
	.loc	7 1304 9                @ ../Drivers/STM32F1xx_HAL_Driver/Src/stm32f1xx_hal_adc.c:1304:9
	add.w	r2, r0, #1020
.Ltmp248:
	.loc	7 1304 9 is_stmt 0      @ ../Drivers/STM32F1xx_HAL_Driver/Src/stm32f1xx_hal_adc.c:1304:9
	cmp	r1, r2
	beq	.LBB12_7
.LBB12_6:
.Ltmp249:
	.loc	7 1307 7 is_stmt 1      @ ../Drivers/STM32F1xx_HAL_Driver/Src/stm32f1xx_hal_adc.c:1307:7
	ldr	r0, [r4, #40]
	bic	r0, r0, #1048576
	str	r0, [r4, #40]
.Ltmp250:
	.loc	7 1311 11               @ ../Drivers/STM32F1xx_HAL_Driver/Src/stm32f1xx_hal_adc.c:1311:11
	ldr	r0, [r1, #4]
	tst.w	r0, #1024
	beq	.LBB12_12
	b	.LBB12_11
.Ltmp251:
.LBB12_7:
	.loc	7 1304 9                @ ../Drivers/STM32F1xx_HAL_Driver/Src/stm32f1xx_hal_adc.c:1304:9
	ldr	r2, [r0]
	tst.w	r2, #983040
	beq	.LBB12_6
@ %bb.8:
.Ltmp252:
	.loc	7 1319 7                @ ../Drivers/STM32F1xx_HAL_Driver/Src/stm32f1xx_hal_adc.c:1319:7
	ldr	r2, [r4, #40]
	orr	r2, r2, #1048576
	str	r2, [r4, #40]
.Ltmp253:
	.loc	7 1323 11               @ ../Drivers/STM32F1xx_HAL_Driver/Src/stm32f1xx_hal_adc.c:1323:11
	cmp	r1, r7
	beq	.LBB12_10
@ %bb.9:
	.loc	7 0 11 is_stmt 0        @ ../Drivers/STM32F1xx_HAL_Driver/Src/stm32f1xx_hal_adc.c:0:11
	movw	r2, #9216
	movt	r2, #16385
	.loc	7 1323 11               @ ../Drivers/STM32F1xx_HAL_Driver/Src/stm32f1xx_hal_adc.c:1323:11
	cmp	r1, r2
	bne	.LBB12_12
.LBB12_10:
	ldr	r0, [r0]
	tst.w	r0, #1024
	beq	.LBB12_12
.Ltmp254:
.LBB12_11:
	.loc	7 0 11                  @ ../Drivers/STM32F1xx_HAL_Driver/Src/stm32f1xx_hal_adc.c:0:11
	ldr	r0, [r4, #40]
	movs	r2, #1
	bfi	r0, r2, #12, #2
	str	r0, [r4, #40]
.LBB12_12:
.Ltmp255:
	.loc	7 1330 11 is_stmt 1     @ ../Drivers/STM32F1xx_HAL_Driver/Src/stm32f1xx_hal_adc.c:1330:11
	ldr	r2, [r4, #40]
	movs	r0, #0
.Ltmp256:
	.loc	7 1330 11 is_stmt 0     @ ../Drivers/STM32F1xx_HAL_Driver/Src/stm32f1xx_hal_adc.c:1330:11
	tst.w	r2, #4096
	mov.w	r2, #0
.Ltmp257:
	.loc	7 1333 9 is_stmt 1      @ ../Drivers/STM32F1xx_HAL_Driver/Src/stm32f1xx_hal_adc.c:1333:9
	itt	ne
	ldrne	r2, [r4, #44]
	bicne	r2, r2, #6
.Ltmp258:
	.loc	7 1344 7                @ ../Drivers/STM32F1xx_HAL_Driver/Src/stm32f1xx_hal_adc.c:1344:7
	str	r0, [r4, #36]
	str	r2, [r4, #44]
.Ltmp259:
	.loc	7 1347 13               @ ../Drivers/STM32F1xx_HAL_Driver/Src/stm32f1xx_hal_adc.c:1347:13
	ldr	r0, [r4, #32]
	.loc	7 1350 46               @ ../Drivers/STM32F1xx_HAL_Driver/Src/stm32f1xx_hal_adc.c:1350:46
	movw	r2, :lower16:ADC_DMAHalfConvCplt
	movt	r2, :upper16:ADC_DMAHalfConvCplt
	.loc	7 1347 42               @ ../Drivers/STM32F1xx_HAL_Driver/Src/stm32f1xx_hal_adc.c:1347:42
	movw	r3, :lower16:ADC_DMAConvCplt
	movt	r3, :upper16:ADC_DMAConvCplt
	.loc	7 1353 43               @ ../Drivers/STM32F1xx_HAL_Driver/Src/stm32f1xx_hal_adc.c:1353:43
	movw	r7, :lower16:ADC_DMAError
	movt	r7, :upper16:ADC_DMAError
	.loc	7 1347 42               @ ../Drivers/STM32F1xx_HAL_Driver/Src/stm32f1xx_hal_adc.c:1347:42
	strd	r3, r2, [r0, #44]
	.loc	7 1353 43               @ ../Drivers/STM32F1xx_HAL_Driver/Src/stm32f1xx_hal_adc.c:1353:43
	str	r7, [r0, #52]
	.loc	7 1362 7                @ ../Drivers/STM32F1xx_HAL_Driver/Src/stm32f1xx_hal_adc.c:1362:7
	mvn	r2, #2
	str	r2, [r1]
	.loc	7 1365 7                @ ../Drivers/STM32F1xx_HAL_Driver/Src/stm32f1xx_hal_adc.c:1365:7
	ldr	r2, [r1, #8]
	orr	r2, r2, #256
	str	r2, [r1, #8]
	.loc	7 1368 69               @ ../Drivers/STM32F1xx_HAL_Driver/Src/stm32f1xx_hal_adc.c:1368:69
	adds	r1, #76
	.loc	7 1368 7 is_stmt 0      @ ../Drivers/STM32F1xx_HAL_Driver/Src/stm32f1xx_hal_adc.c:1368:7
	mov	r2, r6
	mov	r3, r5
	bl	HAL_DMA_Start_IT
.Ltmp260:
	.loc	7 1374 11 is_stmt 1     @ ../Drivers/STM32F1xx_HAL_Driver/Src/stm32f1xx_hal_adc.c:1374:11
	ldr	r0, [r4]
	ldr	r2, [r0, #8]
	ldr	r1, [r0, #8]
	and	r2, r2, #917504
.Ltmp261:
	.loc	7 1374 11 is_stmt 0     @ ../Drivers/STM32F1xx_HAL_Driver/Src/stm32f1xx_hal_adc.c:1374:11
	cmp.w	r2, #917504
.Ltmp262:
	.loc	7 1377 9 is_stmt 1      @ ../Drivers/STM32F1xx_HAL_Driver/Src/stm32f1xx_hal_adc.c:1377:9
	ite	eq
	orreq	r1, r1, #5242880
.Ltmp263:
	.loc	7 1382 9                @ ../Drivers/STM32F1xx_HAL_Driver/Src/stm32f1xx_hal_adc.c:1382:9
	orrne	r1, r1, #1048576
	str	r1, [r0, #8]
	movs	r0, #0
.Ltmp264:
	.loc	7 1398 1                @ ../Drivers/STM32F1xx_HAL_Driver/Src/stm32f1xx_hal_adc.c:1398:1
	add	sp, #4
	pop	{r4, r5, r6, r7, pc}
.Ltmp265:
.Lfunc_end12:
	.size	HAL_ADC_Start_DMA, .Lfunc_end12-HAL_ADC_Start_DMA
	.cfi_endproc
	.cantunwind
	.fnend
                                        @ -- End function
	.section	.text.ADC_DMAConvCplt,"ax",%progbits
	.hidden	ADC_DMAConvCplt         @ -- Begin function ADC_DMAConvCplt
	.globl	ADC_DMAConvCplt
	.p2align	2
	.type	ADC_DMAConvCplt,%function
	.code	16                      @ @ADC_DMAConvCplt
	.thumb_func
ADC_DMAConvCplt:
.Lfunc_begin13:
	.loc	7 2028 0                @ ../Drivers/STM32F1xx_HAL_Driver/Src/stm32f1xx_hal_adc.c:2028:0
	.fnstart
	.cfi_startproc
@ %bb.0:
	@DEBUG_VALUE: ADC_DMAConvCplt:hdma <- $r0
	mov	r1, r0
.Ltmp266:
	@DEBUG_VALUE: ADC_DMAConvCplt:hdma <- $r1
	.loc	7 2030 80 prologue_end  @ ../Drivers/STM32F1xx_HAL_Driver/Src/stm32f1xx_hal_adc.c:2030:80
	ldr	r0, [r0, #40]
.Ltmp267:
	@DEBUG_VALUE: ADC_DMAConvCplt:hadc <- $r0
	.loc	7 2033 7                @ ../Drivers/STM32F1xx_HAL_Driver/Src/stm32f1xx_hal_adc.c:2033:7
	ldr	r2, [r0, #40]
.Ltmp268:
	.loc	7 2033 7 is_stmt 0      @ ../Drivers/STM32F1xx_HAL_Driver/Src/stm32f1xx_hal_adc.c:2033:7
	tst.w	r2, #80
	beq	.LBB13_2
.Ltmp269:
@ %bb.1:
	@DEBUG_VALUE: ADC_DMAConvCplt:hadc <- $r0
	@DEBUG_VALUE: ADC_DMAConvCplt:hdma <- $r1
	.loc	7 2061 11 is_stmt 1     @ ../Drivers/STM32F1xx_HAL_Driver/Src/stm32f1xx_hal_adc.c:2061:11
	ldr	r0, [r0, #32]
.Ltmp270:
	.loc	7 2061 23 is_stmt 0     @ ../Drivers/STM32F1xx_HAL_Driver/Src/stm32f1xx_hal_adc.c:2061:23
	ldr	r2, [r0, #52]
	.loc	7 2061 5                @ ../Drivers/STM32F1xx_HAL_Driver/Src/stm32f1xx_hal_adc.c:2061:5
	mov	r0, r1
	bx	r2
.Ltmp271:
.LBB13_2:
	@DEBUG_VALUE: ADC_DMAConvCplt:hadc <- $r0
	@DEBUG_VALUE: ADC_DMAConvCplt:hdma <- $r1
	.loc	7 2043 8 is_stmt 1      @ ../Drivers/STM32F1xx_HAL_Driver/Src/stm32f1xx_hal_adc.c:2043:8
	ldr	r1, [r0]
.Ltmp272:
	.loc	7 2036 5                @ ../Drivers/STM32F1xx_HAL_Driver/Src/stm32f1xx_hal_adc.c:2036:5
	ldr	r2, [r0, #40]
	orr	r2, r2, #512
	str	r2, [r0, #40]
.Ltmp273:
	.loc	7 2043 8                @ ../Drivers/STM32F1xx_HAL_Driver/Src/stm32f1xx_hal_adc.c:2043:8
	ldr	r1, [r1, #8]
	and	r1, r1, #917504
	.loc	7 2043 51 is_stmt 0     @ ../Drivers/STM32F1xx_HAL_Driver/Src/stm32f1xx_hal_adc.c:2043:51
	cmp.w	r1, #917504
.Ltmp274:
	.loc	7 2056 5 is_stmt 1      @ ../Drivers/STM32F1xx_HAL_Driver/Src/stm32f1xx_hal_adc.c:2056:5
	it	ne
	bne	HAL_ADC_ConvCpltCallback
.Ltmp275:
	.loc	7 2044 20               @ ../Drivers/STM32F1xx_HAL_Driver/Src/stm32f1xx_hal_adc.c:2044:20
	ldr	r1, [r0, #12]
.Ltmp276:
	.loc	7 2043 8                @ ../Drivers/STM32F1xx_HAL_Driver/Src/stm32f1xx_hal_adc.c:2043:8
	cbz	r1, .LBB13_4
.Ltmp277:
@ %bb.3:
	@DEBUG_VALUE: ADC_DMAConvCplt:hadc <- $r0
	.loc	7 2056 5                @ ../Drivers/STM32F1xx_HAL_Driver/Src/stm32f1xx_hal_adc.c:2056:5
	b	HAL_ADC_ConvCpltCallback
.Ltmp278:
.LBB13_4:
	@DEBUG_VALUE: ADC_DMAConvCplt:hadc <- $r0
	.loc	7 2047 7                @ ../Drivers/STM32F1xx_HAL_Driver/Src/stm32f1xx_hal_adc.c:2047:7
	ldr	r1, [r0, #40]
	bic	r1, r1, #256
	str	r1, [r0, #40]
.Ltmp279:
	.loc	7 2049 11               @ ../Drivers/STM32F1xx_HAL_Driver/Src/stm32f1xx_hal_adc.c:2049:11
	ldr	r1, [r0, #40]
.Ltmp280:
	.loc	7 2049 11 is_stmt 0     @ ../Drivers/STM32F1xx_HAL_Driver/Src/stm32f1xx_hal_adc.c:2049:11
	tst.w	r1, #4096
.Ltmp281:
	.loc	7 2051 9 is_stmt 1      @ ../Drivers/STM32F1xx_HAL_Driver/Src/stm32f1xx_hal_adc.c:2051:9
	ittt	eq
	ldreq	r1, [r0, #40]
	orreq	r1, r1, #1
	streq	r1, [r0, #40]
.Ltmp282:
	.loc	7 2056 5                @ ../Drivers/STM32F1xx_HAL_Driver/Src/stm32f1xx_hal_adc.c:2056:5
	b	HAL_ADC_ConvCpltCallback
.Ltmp283:
.Lfunc_end13:
	.size	ADC_DMAConvCplt, .Lfunc_end13-ADC_DMAConvCplt
	.cfi_endproc
	.cantunwind
	.fnend
                                        @ -- End function
	.section	.text.ADC_DMAHalfConvCplt,"ax",%progbits
	.hidden	ADC_DMAHalfConvCplt     @ -- Begin function ADC_DMAHalfConvCplt
	.globl	ADC_DMAHalfConvCplt
	.p2align	2
	.type	ADC_DMAHalfConvCplt,%function
	.code	16                      @ @ADC_DMAHalfConvCplt
	.thumb_func
ADC_DMAHalfConvCplt:
.Lfunc_begin14:
	.loc	7 2071 0                @ ../Drivers/STM32F1xx_HAL_Driver/Src/stm32f1xx_hal_adc.c:2071:0
	.fnstart
	.cfi_startproc
@ %bb.0:
	@DEBUG_VALUE: ADC_DMAHalfConvCplt:hdma <- $r0
	@DEBUG_VALUE: ADC_DMAHalfConvCplt:hdma <- $r0
	.loc	7 2073 80 prologue_end  @ ../Drivers/STM32F1xx_HAL_Driver/Src/stm32f1xx_hal_adc.c:2073:80
	ldr	r0, [r0, #40]
.Ltmp284:
	@DEBUG_VALUE: ADC_DMAHalfConvCplt:hadc <- $r0
	.loc	7 2076 3                @ ../Drivers/STM32F1xx_HAL_Driver/Src/stm32f1xx_hal_adc.c:2076:3
	b	HAL_ADC_ConvHalfCpltCallback
.Ltmp285:
.Lfunc_end14:
	.size	ADC_DMAHalfConvCplt, .Lfunc_end14-ADC_DMAHalfConvCplt
	.cfi_endproc
	.cantunwind
	.fnend
                                        @ -- End function
	.section	.text.ADC_DMAError,"ax",%progbits
	.hidden	ADC_DMAError            @ -- Begin function ADC_DMAError
	.globl	ADC_DMAError
	.p2align	2
	.type	ADC_DMAError,%function
	.code	16                      @ @ADC_DMAError
	.thumb_func
ADC_DMAError:
.Lfunc_begin15:
	.loc	7 2085 0                @ ../Drivers/STM32F1xx_HAL_Driver/Src/stm32f1xx_hal_adc.c:2085:0
	.fnstart
	.cfi_startproc
@ %bb.0:
	@DEBUG_VALUE: ADC_DMAError:hdma <- $r0
	@DEBUG_VALUE: ADC_DMAError:hdma <- $r0
	.loc	7 2087 80 prologue_end  @ ../Drivers/STM32F1xx_HAL_Driver/Src/stm32f1xx_hal_adc.c:2087:80
	ldr	r0, [r0, #40]
.Ltmp286:
	@DEBUG_VALUE: ADC_DMAError:hadc <- $r0
	.loc	7 2090 3                @ ../Drivers/STM32F1xx_HAL_Driver/Src/stm32f1xx_hal_adc.c:2090:3
	ldr	r1, [r0, #40]
	orr	r1, r1, #64
	str	r1, [r0, #40]
	.loc	7 2093 3                @ ../Drivers/STM32F1xx_HAL_Driver/Src/stm32f1xx_hal_adc.c:2093:3
	ldr	r1, [r0, #44]
	orr	r1, r1, #4
	str	r1, [r0, #44]
	.loc	7 2096 3                @ ../Drivers/STM32F1xx_HAL_Driver/Src/stm32f1xx_hal_adc.c:2096:3
	b	HAL_ADC_ErrorCallback
.Ltmp287:
.Lfunc_end15:
	.size	ADC_DMAError, .Lfunc_end15-ADC_DMAError
	.cfi_endproc
	.cantunwind
	.fnend
                                        @ -- End function
	.section	.text.HAL_ADC_Stop_DMA,"ax",%progbits
	.hidden	HAL_ADC_Stop_DMA        @ -- Begin function HAL_ADC_Stop_DMA
	.globl	HAL_ADC_Stop_DMA
	.p2align	2
	.type	HAL_ADC_Stop_DMA,%function
	.code	16                      @ @HAL_ADC_Stop_DMA
	.thumb_func
HAL_ADC_Stop_DMA:
.Lfunc_begin16:
	.loc	7 1415 0                @ ../Drivers/STM32F1xx_HAL_Driver/Src/stm32f1xx_hal_adc.c:1415:0
	.fnstart
	.cfi_startproc
@ %bb.0:
	.save	{r4, lr}
	push	{r4, lr}
	.cfi_def_cfa_offset 8
	.cfi_offset lr, -4
	.cfi_offset r4, -8
	@DEBUG_VALUE: HAL_ADC_Stop_DMA:hadc <- $r0
	mov	r4, r0
.Ltmp288:
	@DEBUG_VALUE: HAL_ADC_Stop_DMA:tmp_hal_status <- 0
	@DEBUG_VALUE: HAL_ADC_Stop_DMA:hadc <- $r4
	.loc	7 1422 3 prologue_end   @ ../Drivers/STM32F1xx_HAL_Driver/Src/stm32f1xx_hal_adc.c:1422:3
	ldr	r0, [r0, #36]
.Ltmp289:
	.loc	7 1422 3 is_stmt 0      @ ../Drivers/STM32F1xx_HAL_Driver/Src/stm32f1xx_hal_adc.c:1422:3
	cmp	r0, #1
	itt	eq
	moveq	r0, #2
.Ltmp290:
	.loc	7 1458 1 is_stmt 1      @ ../Drivers/STM32F1xx_HAL_Driver/Src/stm32f1xx_hal_adc.c:1458:1
	popeq	{r4, pc}
.Ltmp291:
	.loc	7 0 1 is_stmt 0         @ ../Drivers/STM32F1xx_HAL_Driver/Src/stm32f1xx_hal_adc.c:0:1
	movs	r0, #1
.Ltmp292:
	.loc	7 1422 3 is_stmt 1      @ ../Drivers/STM32F1xx_HAL_Driver/Src/stm32f1xx_hal_adc.c:1422:3
	str	r0, [r4, #36]
.Ltmp293:
	.loc	7 1426 20               @ ../Drivers/STM32F1xx_HAL_Driver/Src/stm32f1xx_hal_adc.c:1426:20
	mov	r0, r4
	bl	ADC_ConversionStop_Disable
.Ltmp294:
	@DEBUG_VALUE: HAL_ADC_Stop_DMA:tmp_hal_status <- $r0
	.loc	7 1429 7                @ ../Drivers/STM32F1xx_HAL_Driver/Src/stm32f1xx_hal_adc.c:1429:7
	cbnz	r0, .LBB16_2
.Ltmp295:
@ %bb.1:
	@DEBUG_VALUE: HAL_ADC_Stop_DMA:tmp_hal_status <- $r0
	.loc	7 1432 5                @ ../Drivers/STM32F1xx_HAL_Driver/Src/stm32f1xx_hal_adc.c:1432:5
	ldr	r0, [r4]
.Ltmp296:
	ldr	r1, [r0, #8]
	bic	r1, r1, #256
	str	r1, [r0, #8]
	.loc	7 1436 42               @ ../Drivers/STM32F1xx_HAL_Driver/Src/stm32f1xx_hal_adc.c:1436:42
	ldr	r0, [r4, #32]
	.loc	7 1436 22 is_stmt 0     @ ../Drivers/STM32F1xx_HAL_Driver/Src/stm32f1xx_hal_adc.c:1436:22
	bl	HAL_DMA_Abort
.Ltmp297:
	@DEBUG_VALUE: HAL_ADC_Stop_DMA:tmp_hal_status <- $r0
	.loc	7 0 22                  @ ../Drivers/STM32F1xx_HAL_Driver/Src/stm32f1xx_hal_adc.c:0:22
	ldr	r1, [r4, #40]
.Ltmp298:
	.loc	7 1442 7 is_stmt 1      @ ../Drivers/STM32F1xx_HAL_Driver/Src/stm32f1xx_hal_adc.c:1442:7
	movw	r2, #4353
	bic.w	r2, r1, r2
.Ltmp299:
	.loc	7 1449 7                @ ../Drivers/STM32F1xx_HAL_Driver/Src/stm32f1xx_hal_adc.c:1449:7
	orr	r1, r1, #64
.Ltmp300:
	.loc	7 1439 9                @ ../Drivers/STM32F1xx_HAL_Driver/Src/stm32f1xx_hal_adc.c:1439:9
	cmp	r0, #0
	it	eq
	orreq	r1, r2, #1
	str	r1, [r4, #40]
.Ltmp301:
.LBB16_2:
	@DEBUG_VALUE: HAL_ADC_Stop_DMA:tmp_hal_status <- $r0
	.loc	7 1454 3                @ ../Drivers/STM32F1xx_HAL_Driver/Src/stm32f1xx_hal_adc.c:1454:3
	movs	r1, #0
	str	r1, [r4, #36]
.Ltmp302:
	.loc	7 1458 1                @ ../Drivers/STM32F1xx_HAL_Driver/Src/stm32f1xx_hal_adc.c:1458:1
	pop	{r4, pc}
.Ltmp303:
.Lfunc_end16:
	.size	HAL_ADC_Stop_DMA, .Lfunc_end16-HAL_ADC_Stop_DMA
	.cfi_endproc
	.cantunwind
	.fnend
                                        @ -- End function
	.section	.text.HAL_ADC_GetValue,"ax",%progbits
	.hidden	HAL_ADC_GetValue        @ -- Begin function HAL_ADC_GetValue
	.globl	HAL_ADC_GetValue
	.p2align	2
	.type	HAL_ADC_GetValue,%function
	.code	16                      @ @HAL_ADC_GetValue
	.thumb_func
HAL_ADC_GetValue:
.Lfunc_begin17:
	.loc	7 1480 0                @ ../Drivers/STM32F1xx_HAL_Driver/Src/stm32f1xx_hal_adc.c:1480:0
	.fnstart
	.cfi_startproc
@ %bb.0:
	@DEBUG_VALUE: HAL_ADC_GetValue:hadc <- $r0
	@DEBUG_VALUE: HAL_ADC_GetValue:hadc <- $r0
	.loc	7 1488 16 prologue_end  @ ../Drivers/STM32F1xx_HAL_Driver/Src/stm32f1xx_hal_adc.c:1488:16
	ldr	r0, [r0]
.Ltmp304:
	.loc	7 1488 26 is_stmt 0     @ ../Drivers/STM32F1xx_HAL_Driver/Src/stm32f1xx_hal_adc.c:1488:26
	ldr	r0, [r0, #76]
	.loc	7 1488 3                @ ../Drivers/STM32F1xx_HAL_Driver/Src/stm32f1xx_hal_adc.c:1488:3
	bx	lr
.Ltmp305:
.Lfunc_end17:
	.size	HAL_ADC_GetValue, .Lfunc_end17-HAL_ADC_GetValue
	.cfi_endproc
	.cantunwind
	.fnend
                                        @ -- End function
	.section	.text.HAL_ADC_IRQHandler,"ax",%progbits
	.hidden	HAL_ADC_IRQHandler      @ -- Begin function HAL_ADC_IRQHandler
	.globl	HAL_ADC_IRQHandler
	.p2align	2
	.type	HAL_ADC_IRQHandler,%function
	.code	16                      @ @HAL_ADC_IRQHandler
	.thumb_func
HAL_ADC_IRQHandler:
.Lfunc_begin18:
	.loc	7 1497 0 is_stmt 1      @ ../Drivers/STM32F1xx_HAL_Driver/Src/stm32f1xx_hal_adc.c:1497:0
	.fnstart
	.cfi_startproc
@ %bb.0:
	.save	{r4, lr}
	push	{r4, lr}
	.cfi_def_cfa_offset 8
	.cfi_offset lr, -4
	.cfi_offset r4, -8
	@DEBUG_VALUE: HAL_ADC_IRQHandler:hadc <- $r0
	mov	r4, r0
.Ltmp306:
	@DEBUG_VALUE: HAL_ADC_IRQHandler:hadc <- $r4
	.loc	7 1505 6 prologue_end   @ ../Drivers/STM32F1xx_HAL_Driver/Src/stm32f1xx_hal_adc.c:1505:6
	ldr	r0, [r0]
	ldr	r1, [r0, #4]
.Ltmp307:
	.loc	7 1505 6 is_stmt 0      @ ../Drivers/STM32F1xx_HAL_Driver/Src/stm32f1xx_hal_adc.c:1505:6
	tst.w	r1, #32
	beq	.LBB18_6
.Ltmp308:
@ %bb.1:
	@DEBUG_VALUE: HAL_ADC_IRQHandler:hadc <- $r4
	.loc	7 1507 8 is_stmt 1      @ ../Drivers/STM32F1xx_HAL_Driver/Src/stm32f1xx_hal_adc.c:1507:8
	ldr	r1, [r0]
.Ltmp309:
	.loc	7 1507 8 is_stmt 0      @ ../Drivers/STM32F1xx_HAL_Driver/Src/stm32f1xx_hal_adc.c:1507:8
	tst.w	r1, #2
	beq	.LBB18_6
.Ltmp310:
@ %bb.2:
	@DEBUG_VALUE: HAL_ADC_IRQHandler:hadc <- $r4
	.loc	7 1510 11 is_stmt 1     @ ../Drivers/STM32F1xx_HAL_Driver/Src/stm32f1xx_hal_adc.c:1510:11
	ldr	r1, [r4, #40]
.Ltmp311:
	.loc	7 1510 11 is_stmt 0     @ ../Drivers/STM32F1xx_HAL_Driver/Src/stm32f1xx_hal_adc.c:1510:11
	tst.w	r1, #16
.Ltmp312:
	.loc	7 1513 9 is_stmt 1      @ ../Drivers/STM32F1xx_HAL_Driver/Src/stm32f1xx_hal_adc.c:1513:9
	ittt	eq
	ldreq	r1, [r4, #40]
	orreq	r1, r1, #512
	streq	r1, [r4, #40]
.Ltmp313:
	.loc	7 1521 10               @ ../Drivers/STM32F1xx_HAL_Driver/Src/stm32f1xx_hal_adc.c:1521:10
	ldr	r1, [r0, #8]
	and	r1, r1, #917504
	.loc	7 1521 53 is_stmt 0     @ ../Drivers/STM32F1xx_HAL_Driver/Src/stm32f1xx_hal_adc.c:1521:53
	cmp.w	r1, #917504
	bne	.LBB18_5
.Ltmp314:
@ %bb.3:
	@DEBUG_VALUE: HAL_ADC_IRQHandler:hadc <- $r4
	.loc	7 1522 22 is_stmt 1     @ ../Drivers/STM32F1xx_HAL_Driver/Src/stm32f1xx_hal_adc.c:1522:22
	ldr	r1, [r4, #12]
.Ltmp315:
	.loc	7 1521 10               @ ../Drivers/STM32F1xx_HAL_Driver/Src/stm32f1xx_hal_adc.c:1521:10
	cbnz	r1, .LBB18_5
.Ltmp316:
@ %bb.4:
	@DEBUG_VALUE: HAL_ADC_IRQHandler:hadc <- $r4
	.loc	7 1525 9                @ ../Drivers/STM32F1xx_HAL_Driver/Src/stm32f1xx_hal_adc.c:1525:9
	ldr	r1, [r0, #4]
	bic	r1, r1, #32
	str	r1, [r0, #4]
	.loc	7 1528 9                @ ../Drivers/STM32F1xx_HAL_Driver/Src/stm32f1xx_hal_adc.c:1528:9
	ldr	r0, [r4, #40]
	bic	r0, r0, #256
	str	r0, [r4, #40]
.Ltmp317:
	.loc	7 1530 13               @ ../Drivers/STM32F1xx_HAL_Driver/Src/stm32f1xx_hal_adc.c:1530:13
	ldr	r0, [r4, #40]
.Ltmp318:
	.loc	7 1530 13 is_stmt 0     @ ../Drivers/STM32F1xx_HAL_Driver/Src/stm32f1xx_hal_adc.c:1530:13
	tst.w	r0, #4096
.Ltmp319:
	.loc	7 1532 11 is_stmt 1     @ ../Drivers/STM32F1xx_HAL_Driver/Src/stm32f1xx_hal_adc.c:1532:11
	ittt	eq
	ldreq	r0, [r4, #40]
	orreq	r0, r0, #1
	streq	r0, [r4, #40]
.Ltmp320:
.LBB18_5:
	@DEBUG_VALUE: HAL_ADC_IRQHandler:hadc <- $r4
	.loc	7 1537 7                @ ../Drivers/STM32F1xx_HAL_Driver/Src/stm32f1xx_hal_adc.c:1537:7
	mov	r0, r4
	bl	HAL_ADC_ConvCpltCallback
	.loc	7 1540 7                @ ../Drivers/STM32F1xx_HAL_Driver/Src/stm32f1xx_hal_adc.c:1540:7
	ldr	r0, [r4]
	mvn	r1, #18
	str	r1, [r0]
.Ltmp321:
.LBB18_6:
	@DEBUG_VALUE: HAL_ADC_IRQHandler:hadc <- $r4
	.loc	7 1545 6                @ ../Drivers/STM32F1xx_HAL_Driver/Src/stm32f1xx_hal_adc.c:1545:6
	ldr	r0, [r4]
	ldr	r1, [r0, #4]
.Ltmp322:
	.loc	7 1545 6 is_stmt 0      @ ../Drivers/STM32F1xx_HAL_Driver/Src/stm32f1xx_hal_adc.c:1545:6
	tst.w	r1, #128
	beq	.LBB18_14
.Ltmp323:
@ %bb.7:
	@DEBUG_VALUE: HAL_ADC_IRQHandler:hadc <- $r4
	.loc	7 1547 8 is_stmt 1      @ ../Drivers/STM32F1xx_HAL_Driver/Src/stm32f1xx_hal_adc.c:1547:8
	ldr	r1, [r0]
.Ltmp324:
	.loc	7 1547 8 is_stmt 0      @ ../Drivers/STM32F1xx_HAL_Driver/Src/stm32f1xx_hal_adc.c:1547:8
	tst.w	r1, #4
	beq	.LBB18_14
.Ltmp325:
@ %bb.8:
	@DEBUG_VALUE: HAL_ADC_IRQHandler:hadc <- $r4
	.loc	7 1550 11 is_stmt 1     @ ../Drivers/STM32F1xx_HAL_Driver/Src/stm32f1xx_hal_adc.c:1550:11
	ldr	r1, [r4, #40]
.Ltmp326:
	.loc	7 1550 11 is_stmt 0     @ ../Drivers/STM32F1xx_HAL_Driver/Src/stm32f1xx_hal_adc.c:1550:11
	tst.w	r1, #16
.Ltmp327:
	.loc	7 1553 9 is_stmt 1      @ ../Drivers/STM32F1xx_HAL_Driver/Src/stm32f1xx_hal_adc.c:1553:9
	ittt	eq
	ldreq	r1, [r4, #40]
	orreq	r1, r1, #8192
	streq	r1, [r4, #40]
.Ltmp328:
	.loc	7 1563 10               @ ../Drivers/STM32F1xx_HAL_Driver/Src/stm32f1xx_hal_adc.c:1563:10
	ldr	r1, [r0, #8]
	and	r1, r1, #28672
	.loc	7 1563 67 is_stmt 0     @ ../Drivers/STM32F1xx_HAL_Driver/Src/stm32f1xx_hal_adc.c:1563:67
	cmp.w	r1, #28672
	bne	.LBB18_10
.Ltmp329:
.LBB18_9:
	@DEBUG_VALUE: HAL_ADC_IRQHandler:hadc <- $r4
	.loc	7 1569 9 is_stmt 1      @ ../Drivers/STM32F1xx_HAL_Driver/Src/stm32f1xx_hal_adc.c:1569:9
	ldr	r1, [r0, #4]
	bic	r1, r1, #128
	str	r1, [r0, #4]
	.loc	7 1572 9                @ ../Drivers/STM32F1xx_HAL_Driver/Src/stm32f1xx_hal_adc.c:1572:9
	ldr	r0, [r4, #40]
	bic	r0, r0, #4096
	str	r0, [r4, #40]
.Ltmp330:
	.loc	7 1574 13               @ ../Drivers/STM32F1xx_HAL_Driver/Src/stm32f1xx_hal_adc.c:1574:13
	ldr	r0, [r4, #40]
.Ltmp331:
	.loc	7 1574 13 is_stmt 0     @ ../Drivers/STM32F1xx_HAL_Driver/Src/stm32f1xx_hal_adc.c:1574:13
	tst.w	r0, #256
.Ltmp332:
	.loc	7 1576 11 is_stmt 1     @ ../Drivers/STM32F1xx_HAL_Driver/Src/stm32f1xx_hal_adc.c:1576:11
	ittt	eq
	ldreq	r0, [r4, #40]
	orreq	r0, r0, #1
	streq	r0, [r4, #40]
	b	.LBB18_13
.Ltmp333:
.LBB18_10:
	@DEBUG_VALUE: HAL_ADC_IRQHandler:hadc <- $r4
	.loc	7 1564 11               @ ../Drivers/STM32F1xx_HAL_Driver/Src/stm32f1xx_hal_adc.c:1564:11
	ldr	r1, [r0, #4]
	.loc	7 1564 62 is_stmt 0     @ ../Drivers/STM32F1xx_HAL_Driver/Src/stm32f1xx_hal_adc.c:1564:62
	tst.w	r1, #1024
	bne	.LBB18_13
.Ltmp334:
@ %bb.11:
	@DEBUG_VALUE: HAL_ADC_IRQHandler:hadc <- $r4
	.loc	7 1565 11 is_stmt 1     @ ../Drivers/STM32F1xx_HAL_Driver/Src/stm32f1xx_hal_adc.c:1565:11
	ldr	r1, [r0, #8]
	and	r1, r1, #917504
	.loc	7 1565 54 is_stmt 0     @ ../Drivers/STM32F1xx_HAL_Driver/Src/stm32f1xx_hal_adc.c:1565:54
	cmp.w	r1, #917504
	bne	.LBB18_13
.Ltmp335:
@ %bb.12:
	@DEBUG_VALUE: HAL_ADC_IRQHandler:hadc <- $r4
	.loc	7 1566 23 is_stmt 1     @ ../Drivers/STM32F1xx_HAL_Driver/Src/stm32f1xx_hal_adc.c:1566:23
	ldr	r1, [r4, #12]
.Ltmp336:
	.loc	7 1563 10               @ ../Drivers/STM32F1xx_HAL_Driver/Src/stm32f1xx_hal_adc.c:1563:10
	cmp	r1, #0
	beq	.LBB18_9
.Ltmp337:
.LBB18_13:
	@DEBUG_VALUE: HAL_ADC_IRQHandler:hadc <- $r4
	.loc	7 1581 7                @ ../Drivers/STM32F1xx_HAL_Driver/Src/stm32f1xx_hal_adc.c:1581:7
	mov	r0, r4
	bl	HAL_ADCEx_InjectedConvCpltCallback
	.loc	7 1584 7                @ ../Drivers/STM32F1xx_HAL_Driver/Src/stm32f1xx_hal_adc.c:1584:7
	ldr	r0, [r4]
	mvn	r1, #12
	str	r1, [r0]
.Ltmp338:
.LBB18_14:
	@DEBUG_VALUE: HAL_ADC_IRQHandler:hadc <- $r4
	.loc	7 1589 6                @ ../Drivers/STM32F1xx_HAL_Driver/Src/stm32f1xx_hal_adc.c:1589:6
	ldr	r0, [r4]
	ldr	r1, [r0, #4]
.Ltmp339:
	.loc	7 1589 6 is_stmt 0      @ ../Drivers/STM32F1xx_HAL_Driver/Src/stm32f1xx_hal_adc.c:1589:6
	tst.w	r1, #64
	beq	.LBB18_16
.Ltmp340:
@ %bb.15:
	@DEBUG_VALUE: HAL_ADC_IRQHandler:hadc <- $r4
	.loc	7 1591 8 is_stmt 1      @ ../Drivers/STM32F1xx_HAL_Driver/Src/stm32f1xx_hal_adc.c:1591:8
	ldr	r0, [r0]
.Ltmp341:
	.loc	7 1591 8 is_stmt 0      @ ../Drivers/STM32F1xx_HAL_Driver/Src/stm32f1xx_hal_adc.c:1591:8
	tst.w	r0, #1
.Ltmp342:
	.loc	7 1604 1 is_stmt 1      @ ../Drivers/STM32F1xx_HAL_Driver/Src/stm32f1xx_hal_adc.c:1604:1
	it	eq
	popeq	{r4, pc}
.Ltmp343:
	.loc	7 1594 7                @ ../Drivers/STM32F1xx_HAL_Driver/Src/stm32f1xx_hal_adc.c:1594:7
	ldr	r0, [r4, #40]
	orr	r0, r0, #65536
	str	r0, [r4, #40]
	.loc	7 1597 7                @ ../Drivers/STM32F1xx_HAL_Driver/Src/stm32f1xx_hal_adc.c:1597:7
	mov	r0, r4
	bl	HAL_ADC_LevelOutOfWindowCallback
	.loc	7 1600 7                @ ../Drivers/STM32F1xx_HAL_Driver/Src/stm32f1xx_hal_adc.c:1600:7
	ldr	r0, [r4]
	mvn	r1, #1
	str	r1, [r0]
.Ltmp344:
.LBB18_16:
	.loc	7 1604 1                @ ../Drivers/STM32F1xx_HAL_Driver/Src/stm32f1xx_hal_adc.c:1604:1
	pop	{r4, pc}
.Ltmp345:
.Lfunc_end18:
	.size	HAL_ADC_IRQHandler, .Lfunc_end18-HAL_ADC_IRQHandler
	.cfi_endproc
	.cantunwind
	.fnend
                                        @ -- End function
	.section	.text.HAL_ADC_ConvCpltCallback,"ax",%progbits
	.hidden	HAL_ADC_ConvCpltCallback @ -- Begin function HAL_ADC_ConvCpltCallback
	.weak	HAL_ADC_ConvCpltCallback
	.p2align	2
	.type	HAL_ADC_ConvCpltCallback,%function
	.code	16                      @ @HAL_ADC_ConvCpltCallback
	.thumb_func
HAL_ADC_ConvCpltCallback:
.Lfunc_begin19:
	.loc	7 1612 0                @ ../Drivers/STM32F1xx_HAL_Driver/Src/stm32f1xx_hal_adc.c:1612:0
	.fnstart
	.cfi_startproc
@ %bb.0:
	@DEBUG_VALUE: HAL_ADC_ConvCpltCallback:hadc <- $r0
	.loc	7 1618 1 prologue_end   @ ../Drivers/STM32F1xx_HAL_Driver/Src/stm32f1xx_hal_adc.c:1618:1
	bx	lr
.Ltmp346:
.Lfunc_end19:
	.size	HAL_ADC_ConvCpltCallback, .Lfunc_end19-HAL_ADC_ConvCpltCallback
	.cfi_endproc
	.cantunwind
	.fnend
                                        @ -- End function
	.section	.text.HAL_ADC_LevelOutOfWindowCallback,"ax",%progbits
	.hidden	HAL_ADC_LevelOutOfWindowCallback @ -- Begin function HAL_ADC_LevelOutOfWindowCallback
	.weak	HAL_ADC_LevelOutOfWindowCallback
	.p2align	2
	.type	HAL_ADC_LevelOutOfWindowCallback,%function
	.code	16                      @ @HAL_ADC_LevelOutOfWindowCallback
	.thumb_func
HAL_ADC_LevelOutOfWindowCallback:
.Lfunc_begin20:
	.loc	7 1640 0                @ ../Drivers/STM32F1xx_HAL_Driver/Src/stm32f1xx_hal_adc.c:1640:0
	.fnstart
	.cfi_startproc
@ %bb.0:
	@DEBUG_VALUE: HAL_ADC_LevelOutOfWindowCallback:hadc <- $r0
	.loc	7 1646 1 prologue_end   @ ../Drivers/STM32F1xx_HAL_Driver/Src/stm32f1xx_hal_adc.c:1646:1
	bx	lr
.Ltmp347:
.Lfunc_end20:
	.size	HAL_ADC_LevelOutOfWindowCallback, .Lfunc_end20-HAL_ADC_LevelOutOfWindowCallback
	.cfi_endproc
	.cantunwind
	.fnend
                                        @ -- End function
	.section	.text.HAL_ADC_ConvHalfCpltCallback,"ax",%progbits
	.hidden	HAL_ADC_ConvHalfCpltCallback @ -- Begin function HAL_ADC_ConvHalfCpltCallback
	.weak	HAL_ADC_ConvHalfCpltCallback
	.p2align	2
	.type	HAL_ADC_ConvHalfCpltCallback,%function
	.code	16                      @ @HAL_ADC_ConvHalfCpltCallback
	.thumb_func
HAL_ADC_ConvHalfCpltCallback:
.Lfunc_begin21:
	.loc	7 1626 0                @ ../Drivers/STM32F1xx_HAL_Driver/Src/stm32f1xx_hal_adc.c:1626:0
	.fnstart
	.cfi_startproc
@ %bb.0:
	@DEBUG_VALUE: HAL_ADC_ConvHalfCpltCallback:hadc <- $r0
	.loc	7 1632 1 prologue_end   @ ../Drivers/STM32F1xx_HAL_Driver/Src/stm32f1xx_hal_adc.c:1632:1
	bx	lr
.Ltmp348:
.Lfunc_end21:
	.size	HAL_ADC_ConvHalfCpltCallback, .Lfunc_end21-HAL_ADC_ConvHalfCpltCallback
	.cfi_endproc
	.cantunwind
	.fnend
                                        @ -- End function
	.section	.text.HAL_ADC_ErrorCallback,"ax",%progbits
	.hidden	HAL_ADC_ErrorCallback   @ -- Begin function HAL_ADC_ErrorCallback
	.weak	HAL_ADC_ErrorCallback
	.p2align	2
	.type	HAL_ADC_ErrorCallback,%function
	.code	16                      @ @HAL_ADC_ErrorCallback
	.thumb_func
HAL_ADC_ErrorCallback:
.Lfunc_begin22:
	.loc	7 1655 0                @ ../Drivers/STM32F1xx_HAL_Driver/Src/stm32f1xx_hal_adc.c:1655:0
	.fnstart
	.cfi_startproc
@ %bb.0:
	@DEBUG_VALUE: HAL_ADC_ErrorCallback:hadc <- $r0
	.loc	7 1661 1 prologue_end   @ ../Drivers/STM32F1xx_HAL_Driver/Src/stm32f1xx_hal_adc.c:1661:1
	bx	lr
.Ltmp349:
.Lfunc_end22:
	.size	HAL_ADC_ErrorCallback, .Lfunc_end22-HAL_ADC_ErrorCallback
	.cfi_endproc
	.cantunwind
	.fnend
                                        @ -- End function
	.section	.text.HAL_ADC_ConfigChannel,"ax",%progbits
	.hidden	HAL_ADC_ConfigChannel   @ -- Begin function HAL_ADC_ConfigChannel
	.globl	HAL_ADC_ConfigChannel
	.p2align	2
	.type	HAL_ADC_ConfigChannel,%function
	.code	16                      @ @HAL_ADC_ConfigChannel
	.thumb_func
HAL_ADC_ConfigChannel:
.Lfunc_begin23:
	.loc	7 1703 0                @ ../Drivers/STM32F1xx_HAL_Driver/Src/stm32f1xx_hal_adc.c:1703:0
	.fnstart
	.cfi_startproc
@ %bb.0:
	.save	{r4, lr}
	push	{r4, lr}
	.cfi_def_cfa_offset 8
	.cfi_offset lr, -4
	.cfi_offset r4, -8
	.pad	#4
	sub	sp, #4
	.cfi_def_cfa_offset 12
	@DEBUG_VALUE: HAL_ADC_ConfigChannel:hadc <- $r0
	@DEBUG_VALUE: HAL_ADC_ConfigChannel:sConfig <- $r1
	movs	r2, #0
.Ltmp350:
	@DEBUG_VALUE: HAL_ADC_ConfigChannel:wait_loop_index <- 0
	@DEBUG_VALUE: HAL_ADC_ConfigChannel:tmp_hal_status <- 0
	@DEBUG_VALUE: HAL_ADC_ConfigChannel:sConfig <- $r1
	@DEBUG_VALUE: HAL_ADC_ConfigChannel:hadc <- $r0
	.loc	7 1705 17 prologue_end  @ ../Drivers/STM32F1xx_HAL_Driver/Src/stm32f1xx_hal_adc.c:1705:17
	str	r2, [sp]
.Ltmp351:
	.loc	7 1714 3                @ ../Drivers/STM32F1xx_HAL_Driver/Src/stm32f1xx_hal_adc.c:1714:3
	ldr	r2, [r0, #36]
.Ltmp352:
	.loc	7 1714 3 is_stmt 0      @ ../Drivers/STM32F1xx_HAL_Driver/Src/stm32f1xx_hal_adc.c:1714:3
	cmp	r2, #1
	bne	.LBB23_2
.Ltmp353:
@ %bb.1:
	@DEBUG_VALUE: HAL_ADC_ConfigChannel:sConfig <- $r1
	@DEBUG_VALUE: HAL_ADC_ConfigChannel:hadc <- $r0
	.loc	7 0 3                   @ ../Drivers/STM32F1xx_HAL_Driver/Src/stm32f1xx_hal_adc.c:0:3
	movs	r1, #2
.Ltmp354:
	b	.LBB23_12
.LBB23_2:
.Ltmp355:
	@DEBUG_VALUE: HAL_ADC_ConfigChannel:sConfig <- $r1
	@DEBUG_VALUE: HAL_ADC_ConfigChannel:hadc <- $r0
	.loc	7 1714 3                @ ../Drivers/STM32F1xx_HAL_Driver/Src/stm32f1xx_hal_adc.c:1714:3
	movs	r2, #1
	str	r2, [r0, #36]
.Ltmp356:
	.loc	7 1719 16 is_stmt 1     @ ../Drivers/STM32F1xx_HAL_Driver/Src/stm32f1xx_hal_adc.c:1719:16
	ldr	r2, [r1, #4]
.Ltmp357:
	.loc	7 1719 7 is_stmt 0      @ ../Drivers/STM32F1xx_HAL_Driver/Src/stm32f1xx_hal_adc.c:1719:7
	cmp	r2, #6
	bhi	.LBB23_4
.Ltmp358:
@ %bb.3:
	@DEBUG_VALUE: HAL_ADC_ConfigChannel:sConfig <- $r1
	@DEBUG_VALUE: HAL_ADC_ConfigChannel:hadc <- $r0
	.loc	7 1721 5 is_stmt 1      @ ../Drivers/STM32F1xx_HAL_Driver/Src/stm32f1xx_hal_adc.c:1721:5
	ldr	r3, [r0]
	add.w	lr, r3, #52
	mvn	r12, #4
	b	.LBB23_5
.Ltmp359:
.LBB23_4:
	@DEBUG_VALUE: HAL_ADC_ConfigChannel:sConfig <- $r1
	@DEBUG_VALUE: HAL_ADC_ConfigChannel:hadc <- $r0
	.loc	7 0 5 is_stmt 0         @ ../Drivers/STM32F1xx_HAL_Driver/Src/stm32f1xx_hal_adc.c:0:5
	ldr	r3, [r0]
	.loc	7 1726 12 is_stmt 1     @ ../Drivers/STM32F1xx_HAL_Driver/Src/stm32f1xx_hal_adc.c:1726:12
	cmp	r2, #12
.Ltmp360:
	.loc	7 1735 5                @ ../Drivers/STM32F1xx_HAL_Driver/Src/stm32f1xx_hal_adc.c:1735:5
	ittee	hi
	addhi.w	lr, r3, #44
	mvnhi	r12, #64
.Ltmp361:
	.loc	7 1728 5                @ ../Drivers/STM32F1xx_HAL_Driver/Src/stm32f1xx_hal_adc.c:1728:5
	addls.w	lr, r3, #48
	mvnls	r12, #34
.Ltmp362:
.LBB23_5:
	@DEBUG_VALUE: HAL_ADC_ConfigChannel:sConfig <- $r1
	@DEBUG_VALUE: HAL_ADC_ConfigChannel:hadc <- $r0
	.loc	7 0 5 is_stmt 0         @ ../Drivers/STM32F1xx_HAL_Driver/Src/stm32f1xx_hal_adc.c:0:5
	add.w	r2, r2, r2, lsl #2
	add	r2, r12
	ldr.w	r12, [lr]
	ldr	r3, [r1]
	lsls	r3, r2
	movs	r4, #31
	lsl.w	r2, r4, r2
	bic.w	r2, r12, r2
	orrs	r2, r3
	str.w	r2, [lr]
	ldr	r2, [r0]
.Ltmp363:
	.loc	7 1743 16 is_stmt 1     @ ../Drivers/STM32F1xx_HAL_Driver/Src/stm32f1xx_hal_adc.c:1743:16
	ldr	r3, [r1]
.Ltmp364:
	.loc	7 1743 7 is_stmt 0      @ ../Drivers/STM32F1xx_HAL_Driver/Src/stm32f1xx_hal_adc.c:1743:7
	cmp	r3, #9
	bls	.LBB23_9
.Ltmp365:
@ %bb.6:
	@DEBUG_VALUE: HAL_ADC_ConfigChannel:sConfig <- $r1
	@DEBUG_VALUE: HAL_ADC_ConfigChannel:hadc <- $r0
	.loc	7 1745 5 is_stmt 1      @ ../Drivers/STM32F1xx_HAL_Driver/Src/stm32f1xx_hal_adc.c:1745:5
	ldr.w	r12, [r2, #12]
	add.w	r4, r3, r3, lsl #1
	subs	r4, #30
	ldr	r1, [r1, #8]
.Ltmp366:
	lsl.w	lr, r1, r4
	movs	r1, #7
	lsls	r1, r4
	bic.w	r1, r12, r1
	orr.w	r1, r1, lr
	str	r1, [r2, #12]
.Ltmp367:
	.loc	7 1758 52               @ ../Drivers/STM32F1xx_HAL_Driver/Src/stm32f1xx_hal_adc.c:1758:52
	bic	r1, r3, #1
	cmp	r1, #16
	bne	.LBB23_10
@ %bb.7:
	@DEBUG_VALUE: HAL_ADC_ConfigChannel:hadc <- $r0
.Ltmp368:
	.loc	7 1764 24               @ ../Drivers/STM32F1xx_HAL_Driver/Src/stm32f1xx_hal_adc.c:1764:24
	movw	r1, #9216
	movt	r1, #16385
.Ltmp369:
	.loc	7 1764 9 is_stmt 0      @ ../Drivers/STM32F1xx_HAL_Driver/Src/stm32f1xx_hal_adc.c:1764:9
	cmp	r2, r1
	beq	.LBB23_13
@ %bb.8:
	@DEBUG_VALUE: HAL_ADC_ConfigChannel:hadc <- $r0
.Ltmp370:
	.loc	7 1785 7 is_stmt 1      @ ../Drivers/STM32F1xx_HAL_Driver/Src/stm32f1xx_hal_adc.c:1785:7
	ldr	r1, [r0, #40]
	orr	r1, r1, #32
	str	r1, [r0, #40]
	movs	r1, #1
.Ltmp371:
	@DEBUG_VALUE: HAL_ADC_ConfigChannel:tmp_hal_status <- 1
	.loc	7 0 7 is_stmt 0         @ ../Drivers/STM32F1xx_HAL_Driver/Src/stm32f1xx_hal_adc.c:0:7
	b	.LBB23_11
.Ltmp372:
.LBB23_9:
	@DEBUG_VALUE: HAL_ADC_ConfigChannel:sConfig <- $r1
	@DEBUG_VALUE: HAL_ADC_ConfigChannel:hadc <- $r0
	.loc	7 1751 5 is_stmt 1      @ ../Drivers/STM32F1xx_HAL_Driver/Src/stm32f1xx_hal_adc.c:1751:5
	add.w	r3, r3, r3, lsl #1
	movs	r4, #7
	lsl.w	r12, r4, r3
	ldr	r4, [r2, #16]
	bic.w	r4, r4, r12
	ldr	r1, [r1, #8]
.Ltmp373:
	lsls	r1, r3
	orrs	r1, r4
	str	r1, [r2, #16]
.Ltmp374:
.LBB23_10:
	@DEBUG_VALUE: HAL_ADC_ConfigChannel:hadc <- $r0
	.loc	7 0 5 is_stmt 0         @ ../Drivers/STM32F1xx_HAL_Driver/Src/stm32f1xx_hal_adc.c:0:5
	movs	r1, #0
.LBB23_11:
	@DEBUG_VALUE: HAL_ADC_ConfigChannel:hadc <- $r0
.Ltmp375:
	.loc	7 1792 3 is_stmt 1      @ ../Drivers/STM32F1xx_HAL_Driver/Src/stm32f1xx_hal_adc.c:1792:3
	movs	r2, #0
	str	r2, [r0, #36]
.Ltmp376:
.LBB23_12:
	@DEBUG_VALUE: HAL_ADC_ConfigChannel:hadc <- $r0
	.loc	7 1796 1                @ ../Drivers/STM32F1xx_HAL_Driver/Src/stm32f1xx_hal_adc.c:1796:1
	mov	r0, r1
	add	sp, #4
	pop	{r4, pc}
.LBB23_13:
	@DEBUG_VALUE: HAL_ADC_ConfigChannel:hadc <- $r0
.Ltmp377:
	.loc	7 1766 11               @ ../Drivers/STM32F1xx_HAL_Driver/Src/stm32f1xx_hal_adc.c:1766:11
	ldr	r1, [r2, #8]
.Ltmp378:
	.loc	7 1766 11 is_stmt 0     @ ../Drivers/STM32F1xx_HAL_Driver/Src/stm32f1xx_hal_adc.c:1766:11
	tst.w	r1, #8388608
	bne	.LBB23_10
@ %bb.14:
	@DEBUG_VALUE: HAL_ADC_ConfigChannel:hadc <- $r0
.Ltmp379:
	.loc	7 1768 9 is_stmt 1      @ ../Drivers/STM32F1xx_HAL_Driver/Src/stm32f1xx_hal_adc.c:1768:9
	ldr	r1, [r2, #8]
	orr	r1, r1, #8388608
	str	r1, [r2, #8]
	.loc	7 1770 13               @ ../Drivers/STM32F1xx_HAL_Driver/Src/stm32f1xx_hal_adc.c:1770:13
	cmp	r3, #16
	bne	.LBB23_10
@ %bb.15:
	@DEBUG_VALUE: HAL_ADC_ConfigChannel:hadc <- $r0
.Ltmp380:
	.loc	7 1774 57               @ ../Drivers/STM32F1xx_HAL_Driver/Src/stm32f1xx_hal_adc.c:1774:57
	movw	r1, :lower16:SystemCoreClock
	movt	r1, :upper16:SystemCoreClock
	ldr	r1, [r1]
	.loc	7 1774 73 is_stmt 0     @ ../Drivers/STM32F1xx_HAL_Driver/Src/stm32f1xx_hal_adc.c:1774:73
	movw	r2, #56963
	movt	r2, #17179
	umull	r1, r2, r1, r2
	lsrs	r1, r2, #18
	.loc	7 1774 54               @ ../Drivers/STM32F1xx_HAL_Driver/Src/stm32f1xx_hal_adc.c:1774:54
	add.w	r1, r1, r1, lsl #2
	lsls	r1, r1, #1
.Ltmp381:
	@DEBUG_VALUE: HAL_ADC_ConfigChannel:wait_loop_index <- $r1
	.loc	7 1774 27               @ ../Drivers/STM32F1xx_HAL_Driver/Src/stm32f1xx_hal_adc.c:1774:27
	str	r1, [sp]
	.loc	7 1775 17 is_stmt 1     @ ../Drivers/STM32F1xx_HAL_Driver/Src/stm32f1xx_hal_adc.c:1775:17
	ldr	r1, [sp]
.Ltmp382:
	@DEBUG_VALUE: HAL_ADC_ConfigChannel:wait_loop_index <- $r1
	.loc	7 1775 11 is_stmt 0     @ ../Drivers/STM32F1xx_HAL_Driver/Src/stm32f1xx_hal_adc.c:1775:11
	cmp	r1, #0
	beq	.LBB23_10
.Ltmp383:
	.p2align	2
.LBB23_16:                              @ =>This Inner Loop Header: Depth=1
	@DEBUG_VALUE: HAL_ADC_ConfigChannel:wait_loop_index <- $r1
	@DEBUG_VALUE: HAL_ADC_ConfigChannel:hadc <- $r0
	.loc	7 1777 28 is_stmt 1     @ ../Drivers/STM32F1xx_HAL_Driver/Src/stm32f1xx_hal_adc.c:1777:28
	ldr	r1, [sp]
.Ltmp384:
	@DEBUG_VALUE: HAL_ADC_ConfigChannel:wait_loop_index <- $r1
	subs	r1, #1
.Ltmp385:
	@DEBUG_VALUE: HAL_ADC_ConfigChannel:wait_loop_index <- $r1
	str	r1, [sp]
	movs	r1, #0
.Ltmp386:
	.loc	7 1775 17               @ ../Drivers/STM32F1xx_HAL_Driver/Src/stm32f1xx_hal_adc.c:1775:17
	ldr	r2, [sp]
.Ltmp387:
	@DEBUG_VALUE: HAL_ADC_ConfigChannel:wait_loop_index <- $r2
	.loc	7 1775 11 is_stmt 0     @ ../Drivers/STM32F1xx_HAL_Driver/Src/stm32f1xx_hal_adc.c:1775:11
	cmp	r2, #0
	bne	.LBB23_16
	b	.LBB23_11
.Ltmp388:
.Lfunc_end23:
	.size	HAL_ADC_ConfigChannel, .Lfunc_end23-HAL_ADC_ConfigChannel
	.cfi_endproc
	.cantunwind
	.fnend
                                        @ -- End function
	.section	.text.HAL_ADC_AnalogWDGConfig,"ax",%progbits
	.hidden	HAL_ADC_AnalogWDGConfig @ -- Begin function HAL_ADC_AnalogWDGConfig
	.globl	HAL_ADC_AnalogWDGConfig
	.p2align	2
	.type	HAL_ADC_AnalogWDGConfig,%function
	.code	16                      @ @HAL_ADC_AnalogWDGConfig
	.thumb_func
HAL_ADC_AnalogWDGConfig:
.Lfunc_begin24:
	.loc	7 1813 0 is_stmt 1      @ ../Drivers/STM32F1xx_HAL_Driver/Src/stm32f1xx_hal_adc.c:1813:0
	.fnstart
	.cfi_startproc
@ %bb.0:
	@DEBUG_VALUE: HAL_ADC_AnalogWDGConfig:hadc <- $r0
	@DEBUG_VALUE: HAL_ADC_AnalogWDGConfig:hadc <- $r0
	@DEBUG_VALUE: HAL_ADC_AnalogWDGConfig:AnalogWDGConfig <- $r1
	@DEBUG_VALUE: HAL_ADC_AnalogWDGConfig:AnalogWDGConfig <- $r1
	.loc	7 1829 3 prologue_end   @ ../Drivers/STM32F1xx_HAL_Driver/Src/stm32f1xx_hal_adc.c:1829:3
	ldr	r2, [r0, #36]
.Ltmp389:
	.loc	7 1829 3 is_stmt 0      @ ../Drivers/STM32F1xx_HAL_Driver/Src/stm32f1xx_hal_adc.c:1829:3
	cmp	r2, #1
	ittt	eq
	moveq	r1, #2
.Ltmp390:
	.loc	7 1869 1 is_stmt 1      @ ../Drivers/STM32F1xx_HAL_Driver/Src/stm32f1xx_hal_adc.c:1869:1
	moveq	r0, r1
.Ltmp391:
	bxeq	lr
	.save	{r7, lr}
	push	{r7, lr}
	.cfi_def_cfa_offset 8
	.cfi_offset lr, -4
	.cfi_offset r7, -8
.Ltmp392:
	.loc	7 1829 3                @ ../Drivers/STM32F1xx_HAL_Driver/Src/stm32f1xx_hal_adc.c:1829:3
	movs	r2, #1
	str	r2, [r0, #36]
.Ltmp393:
	.loc	7 1834 23               @ ../Drivers/STM32F1xx_HAL_Driver/Src/stm32f1xx_hal_adc.c:1834:23
	ldr.w	r12, [r1, #8]
	ldr	r3, [r0]
	ldr.w	lr, [r3, #4]
.Ltmp394:
	.loc	7 1842 5                @ ../Drivers/STM32F1xx_HAL_Driver/Src/stm32f1xx_hal_adc.c:1842:5
	bic	r2, lr, #64
.Ltmp395:
	.loc	7 1834 6                @ ../Drivers/STM32F1xx_HAL_Driver/Src/stm32f1xx_hal_adc.c:1834:6
	cmp.w	r12, #1
	it	eq
	orreq	r2, lr, #64
	str	r2, [r3, #4]
	.loc	7 1850 3                @ ../Drivers/STM32F1xx_HAL_Driver/Src/stm32f1xx_hal_adc.c:1850:3
	ldr.w	r12, [r3, #4]
	movw	r2, #64992
	movt	r2, #65343
	and.w	r12, r12, r2
	ldrd	r2, lr, [r1]
	orr.w	r2, r2, r12
	orr.w	r2, r2, lr
	str	r2, [r3, #4]
	.loc	7 1859 3                @ ../Drivers/STM32F1xx_HAL_Driver/Src/stm32f1xx_hal_adc.c:1859:3
	ldr	r2, [r1, #12]
	str	r2, [r3, #36]
	.loc	7 1862 3                @ ../Drivers/STM32F1xx_HAL_Driver/Src/stm32f1xx_hal_adc.c:1862:3
	ldr	r1, [r1, #16]
	str	r1, [r3, #40]
	movs	r1, #0
.Ltmp396:
	.loc	7 1865 3                @ ../Drivers/STM32F1xx_HAL_Driver/Src/stm32f1xx_hal_adc.c:1865:3
	str	r1, [r0, #36]
	pop.w	{r7, lr}
.Ltmp397:
	.loc	7 1869 1                @ ../Drivers/STM32F1xx_HAL_Driver/Src/stm32f1xx_hal_adc.c:1869:1
	mov	r0, r1
	bx	lr
.Ltmp398:
.Lfunc_end24:
	.size	HAL_ADC_AnalogWDGConfig, .Lfunc_end24-HAL_ADC_AnalogWDGConfig
	.cfi_endproc
	.cantunwind
	.fnend
                                        @ -- End function
	.section	.text.HAL_ADC_GetState,"ax",%progbits
	.hidden	HAL_ADC_GetState        @ -- Begin function HAL_ADC_GetState
	.globl	HAL_ADC_GetState
	.p2align	2
	.type	HAL_ADC_GetState,%function
	.code	16                      @ @HAL_ADC_GetState
	.thumb_func
HAL_ADC_GetState:
.Lfunc_begin25:
	.loc	7 1900 0                @ ../Drivers/STM32F1xx_HAL_Driver/Src/stm32f1xx_hal_adc.c:1900:0
	.fnstart
	.cfi_startproc
@ %bb.0:
	@DEBUG_VALUE: HAL_ADC_GetState:hadc <- $r0
	@DEBUG_VALUE: HAL_ADC_GetState:hadc <- $r0
	.loc	7 1902 16 prologue_end  @ ../Drivers/STM32F1xx_HAL_Driver/Src/stm32f1xx_hal_adc.c:1902:16
	ldr	r0, [r0, #40]
.Ltmp399:
	.loc	7 1902 3 is_stmt 0      @ ../Drivers/STM32F1xx_HAL_Driver/Src/stm32f1xx_hal_adc.c:1902:3
	bx	lr
.Ltmp400:
.Lfunc_end25:
	.size	HAL_ADC_GetState, .Lfunc_end25-HAL_ADC_GetState
	.cfi_endproc
	.cantunwind
	.fnend
                                        @ -- End function
	.section	.text.HAL_ADC_GetError,"ax",%progbits
	.hidden	HAL_ADC_GetError        @ -- Begin function HAL_ADC_GetError
	.globl	HAL_ADC_GetError
	.p2align	2
	.type	HAL_ADC_GetError,%function
	.code	16                      @ @HAL_ADC_GetError
	.thumb_func
HAL_ADC_GetError:
.Lfunc_begin26:
	.loc	7 1911 0 is_stmt 1      @ ../Drivers/STM32F1xx_HAL_Driver/Src/stm32f1xx_hal_adc.c:1911:0
	.fnstart
	.cfi_startproc
@ %bb.0:
	@DEBUG_VALUE: HAL_ADC_GetError:hadc <- $r0
	@DEBUG_VALUE: HAL_ADC_GetError:hadc <- $r0
	.loc	7 1912 16 prologue_end  @ ../Drivers/STM32F1xx_HAL_Driver/Src/stm32f1xx_hal_adc.c:1912:16
	ldr	r0, [r0, #44]
.Ltmp401:
	.loc	7 1912 3 is_stmt 0      @ ../Drivers/STM32F1xx_HAL_Driver/Src/stm32f1xx_hal_adc.c:1912:3
	bx	lr
.Ltmp402:
.Lfunc_end26:
	.size	HAL_ADC_GetError, .Lfunc_end26-HAL_ADC_GetError
	.cfi_endproc
	.cantunwind
	.fnend
                                        @ -- End function
	.section	".note.GNU-stack","",%progbits
	.eabi_attribute	30, 1	@ Tag_ABI_optimization_goals
	.ARM_attribute	16, 1	@ Tag_AV_eba