	.text
	.syntax unified
	.eabi_attribute	67, "2.09"	@ Tag_conformance
	.cpu	cortex-m3
	.eabi_attribute	6, 10	@ Tag_CPU_arch
	.eabi_attribute	7, 77	@ Tag_CPU_arch_profile
	.eabi_attribute	8, 0	@ Tag_ARM_ISA_use
	.eabi_attribute	9, 2	@ Tag_THUMB_ISA_use
	.eabi_attribute	34, 1	@ Tag_CPU_unaligned_access
	.eabi_attribute	17, 1	@ Tag_ABI_PCS_GOT_use
	.eabi_attribute	20, 2	@ Tag_ABI_FP_denormal
	.eabi_attribute	21, 0	@ Tag_ABI_FP_exceptions
	.eabi_attribute	23, 1	@ Tag_ABI_FP_number_model
	.eabi_attribute	24, 1	@ Tag_ABI_align_needed
	.eabi_attribute	25, 1	@ Tag_ABI_align_preserved
	.eabi_attribute	38, 1	@ Tag_ABI_FP_16bit_format
	.eabi_attribute	18, 4	@ Tag_ABI_PCS_wchar_t
	.eabi_attribute	26, 2	@ Tag_ABI_enum_size
	.eabi_attribute	14, 0	@ Tag_ABI_PCS_R9_use
	.file	"stm32f1xx_hal_tim_ex.c"
	.file	1 "../Drivers/STM32F1xx_HAL_Driver/Inc" "stm32f1xx_hal_def.h"
	.file	2 "../Drivers/STM32F1xx_HAL_Driver/Inc" "stm32f1xx_hal_tim.h"
	.file	3 "../Drivers/STM32F1xx_HAL_Driver/Inc" "stm32f1xx_hal_dma.h"
	.file	4 "../Drivers/CMSIS/Device/ST/STM32F1xx/Include" "stm32f1xx.h"
	.file	5 "C:\\Keil\\ARM\\ARMCLANG\\Bin\\..\\include" "stdint.h"
	.file	6 "../Drivers/CMSIS/Device/ST/STM32F1xx/Include" "stm32f103xb.h"
	.section	.text.HAL_TIMEx_HallSensor_Init,"ax",%progbits
	.hidden	HAL_TIMEx_HallSensor_Init @ -- Begin function HAL_TIMEx_HallSensor_Init
	.globl	HAL_TIMEx_HallSensor_Init
	.p2align	2
	.type	HAL_TIMEx_HallSensor_Init,%function
	.code	16                      @ @HAL_TIMEx_HallSensor_Init
	.thumb_func
HAL_TIMEx_HallSensor_Init:
.Lfunc_begin0:
	.file	7 "../Drivers/STM32F1xx_HAL_Driver/Src" "stm32f1xx_hal_tim_ex.c"
	.loc	7 168 0                 @ ../Drivers/STM32F1xx_HAL_Driver/Src/stm32f1xx_hal_tim_ex.c:168:0
	.fnstart
	.cfi_sections .debug_frame
	.cfi_startproc
@ %bb.0:
	.save	{r4, r5, r6, lr}
	push	{r4, r5, r6, lr}
	.cfi_def_cfa_offset 16
	.cfi_offset lr, -4
	.cfi_offset r6, -8
	.cfi_offset r5, -12
	.cfi_offset r4, -16
	.pad	#32
	sub	sp, #32
	.cfi_def_cfa_offset 48
	@DEBUG_VALUE: HAL_TIMEx_HallSensor_Init:htim <- $r0
	@DEBUG_VALUE: HAL_TIMEx_HallSensor_Init:sConfig <- $r1
	mov	r5, r1
	mov	r4, r0
.Ltmp0:
	@DEBUG_VALUE: HAL_TIMEx_HallSensor_Init:sConfig <- $r5
	@DEBUG_VALUE: HAL_TIMEx_HallSensor_Init:htim <- $r4
	.loc	7 172 6 prologue_end    @ ../Drivers/STM32F1xx_HAL_Driver/Src/stm32f1xx_hal_tim_ex.c:172:6
	cmp	r0, #0
	beq	.LBB0_4
.Ltmp1:
@ %bb.1:
	@DEBUG_VALUE: HAL_TIMEx_HallSensor_Init:htim <- $r4
	@DEBUG_VALUE: HAL_TIMEx_HallSensor_Init:sConfig <- $r5
	.loc	7 185 12                @ ../Drivers/STM32F1xx_HAL_Driver/Src/stm32f1xx_hal_tim_ex.c:185:12
	ldr	r0, [r4, #64]
.Ltmp2:
	.loc	7 185 6 is_stmt 0       @ ../Drivers/STM32F1xx_HAL_Driver/Src/stm32f1xx_hal_tim_ex.c:185:6
	cbnz	r0, .LBB0_3
.Ltmp3:
@ %bb.2:
	@DEBUG_VALUE: HAL_TIMEx_HallSensor_Init:htim <- $r4
	@DEBUG_VALUE: HAL_TIMEx_HallSensor_Init:sConfig <- $r5
	.loc	7 188 16 is_stmt 1      @ ../Drivers/STM32F1xx_HAL_Driver/Src/stm32f1xx_hal_tim_ex.c:188:16
	movs	r0, #0
	str	r0, [r4, #60]
	.loc	7 191 5                 @ ../Drivers/STM32F1xx_HAL_Driver/Src/stm32f1xx_hal_tim_ex.c:191:5
	mov	r0, r4
	bl	HAL_TIMEx_HallSensor_MspInit
.Ltmp4:
.LBB0_3:
	@DEBUG_VALUE: HAL_TIMEx_HallSensor_Init:htim <- $r4
	@DEBUG_VALUE: HAL_TIMEx_HallSensor_Init:sConfig <- $r5
	.loc	7 195 14                @ ../Drivers/STM32F1xx_HAL_Driver/Src/stm32f1xx_hal_tim_ex.c:195:14
	movs	r0, #2
	str	r0, [r4, #64]
	.loc	7 198 28                @ ../Drivers/STM32F1xx_HAL_Driver/Src/stm32f1xx_hal_tim_ex.c:198:28
	ldr	r0, [r4]
	.loc	7 198 45 is_stmt 0      @ ../Drivers/STM32F1xx_HAL_Driver/Src/stm32f1xx_hal_tim_ex.c:198:45
	adds	r1, r4, #4
	.loc	7 198 3                 @ ../Drivers/STM32F1xx_HAL_Driver/Src/stm32f1xx_hal_tim_ex.c:198:3
	bl	TIM_Base_SetConfig
	.loc	7 201 46 is_stmt 1      @ ../Drivers/STM32F1xx_HAL_Driver/Src/stm32f1xx_hal_tim_ex.c:201:46
	ldr	r1, [r5]
	.loc	7 201 89 is_stmt 0      @ ../Drivers/STM32F1xx_HAL_Driver/Src/stm32f1xx_hal_tim_ex.c:201:89
	ldr	r3, [r5, #8]
	.loc	7 201 27                @ ../Drivers/STM32F1xx_HAL_Driver/Src/stm32f1xx_hal_tim_ex.c:201:27
	ldr	r0, [r4]
	.loc	7 201 3                 @ ../Drivers/STM32F1xx_HAL_Driver/Src/stm32f1xx_hal_tim_ex.c:201:3
	movs	r2, #3
	bl	TIM_TI1_SetConfig
	.loc	7 204 9 is_stmt 1       @ ../Drivers/STM32F1xx_HAL_Driver/Src/stm32f1xx_hal_tim_ex.c:204:9
	ldr	r0, [r4]
	.loc	7 204 25 is_stmt 0      @ ../Drivers/STM32F1xx_HAL_Driver/Src/stm32f1xx_hal_tim_ex.c:204:25
	ldr	r1, [r0, #24]
	bic	r1, r1, #12
	str	r1, [r0, #24]
	.loc	7 206 37 is_stmt 1      @ ../Drivers/STM32F1xx_HAL_Driver/Src/stm32f1xx_hal_tim_ex.c:206:37
	ldr	r1, [r5, #4]
	.loc	7 206 25 is_stmt 0      @ ../Drivers/STM32F1xx_HAL_Driver/Src/stm32f1xx_hal_tim_ex.c:206:25
	ldr	r2, [r0, #24]
	orrs	r1, r2
	str	r1, [r0, #24]
	.loc	7 209 23 is_stmt 1      @ ../Drivers/STM32F1xx_HAL_Driver/Src/stm32f1xx_hal_tim_ex.c:209:23
	ldr	r1, [r0, #4]
	orr	r1, r1, #128
	str	r1, [r0, #4]
	.loc	7 212 24                @ ../Drivers/STM32F1xx_HAL_Driver/Src/stm32f1xx_hal_tim_ex.c:212:24
	ldr	r1, [r0, #8]
	bic	r1, r1, #112
	str	r1, [r0, #8]
	.loc	7 213 24                @ ../Drivers/STM32F1xx_HAL_Driver/Src/stm32f1xx_hal_tim_ex.c:213:24
	ldr	r1, [r0, #8]
	orr	r1, r1, #64
	str	r1, [r0, #8]
	.loc	7 216 24                @ ../Drivers/STM32F1xx_HAL_Driver/Src/stm32f1xx_hal_tim_ex.c:216:24
	ldr	r1, [r0, #8]
	bic	r1, r1, #7
	str	r1, [r0, #8]
	.loc	7 217 24                @ ../Drivers/STM32F1xx_HAL_Driver/Src/stm32f1xx_hal_tim_ex.c:217:24
	ldr	r1, [r0, #8]
	orr	r1, r1, #4
	str	r1, [r0, #8]
	movs	r6, #0
	.loc	7 220 24                @ ../Drivers/STM32F1xx_HAL_Driver/Src/stm32f1xx_hal_tim_ex.c:220:24
	strd	r6, r6, [sp, #20]
	.loc	7 222 20                @ ../Drivers/STM32F1xx_HAL_Driver/Src/stm32f1xx_hal_tim_ex.c:222:20
	movs	r1, #112
	str	r1, [sp, #4]
	.loc	7 223 26                @ ../Drivers/STM32F1xx_HAL_Driver/Src/stm32f1xx_hal_tim_ex.c:223:26
	str	r6, [sp, #28]
	.loc	7 225 24                @ ../Drivers/STM32F1xx_HAL_Driver/Src/stm32f1xx_hal_tim_ex.c:225:24
	strd	r6, r6, [sp, #12]
	.loc	7 226 30                @ ../Drivers/STM32F1xx_HAL_Driver/Src/stm32f1xx_hal_tim_ex.c:226:30
	ldr	r1, [r5, #12]
	.loc	7 226 19 is_stmt 0      @ ../Drivers/STM32F1xx_HAL_Driver/Src/stm32f1xx_hal_tim_ex.c:226:19
	str	r1, [sp, #8]
	add	r1, sp, #4
.Ltmp5:
	@DEBUG_VALUE: HAL_TIMEx_HallSensor_Init:OC_Config <- [DW_OP_plus_uconst 4] [$sp+0]
	.loc	7 228 3 is_stmt 1       @ ../Drivers/STM32F1xx_HAL_Driver/Src/stm32f1xx_hal_tim_ex.c:228:3
	bl	TIM_OC2_SetConfig
	.loc	7 232 9                 @ ../Drivers/STM32F1xx_HAL_Driver/Src/stm32f1xx_hal_tim_ex.c:232:9
	ldr	r0, [r4]
	.loc	7 232 23 is_stmt 0      @ ../Drivers/STM32F1xx_HAL_Driver/Src/stm32f1xx_hal_tim_ex.c:232:23
	ldr	r1, [r0, #4]
	bic	r1, r1, #112
	str	r1, [r0, #4]
	.loc	7 233 23 is_stmt 1      @ ../Drivers/STM32F1xx_HAL_Driver/Src/stm32f1xx_hal_tim_ex.c:233:23
	ldr	r1, [r0, #4]
	orr	r1, r1, #80
	str	r1, [r0, #4]
	.loc	7 236 14                @ ../Drivers/STM32F1xx_HAL_Driver/Src/stm32f1xx_hal_tim_ex.c:236:14
	movs	r0, #1
	str	r0, [r4, #64]
	b	.LBB0_5
.Ltmp6:
.LBB0_4:
	@DEBUG_VALUE: HAL_TIMEx_HallSensor_Init:htim <- $r4
	@DEBUG_VALUE: HAL_TIMEx_HallSensor_Init:sConfig <- $r5
	.loc	7 0 14 is_stmt 0        @ ../Drivers/STM32F1xx_HAL_Driver/Src/stm32f1xx_hal_tim_ex.c:0:14
	movs	r6, #1
.Ltmp7:
.LBB0_5:
	@DEBUG_VALUE: HAL_TIMEx_HallSensor_Init:htim <- $r4
	@DEBUG_VALUE: HAL_TIMEx_HallSensor_Init:sConfig <- $r5
	.loc	7 239 1 is_stmt 1       @ ../Drivers/STM32F1xx_HAL_Driver/Src/stm32f1xx_hal_tim_ex.c:239:1
	mov	r0, r6
	add	sp, #32
	pop	{r4, r5, r6, pc}
.Ltmp8:
.Lfunc_end0:
	.size	HAL_TIMEx_HallSensor_Init, .Lfunc_end0-HAL_TIMEx_HallSensor_Init
	.cfi_endproc
	.cantunwind
	.fnend
                                        @ -- End function
	.section	.text.HAL_TIMEx_HallSensor_MspInit,"ax",%progbits
	.hidden	HAL_TIMEx_HallSensor_MspInit @ -- Begin function HAL_TIMEx_HallSensor_MspInit
	.weak	HAL_TIMEx_HallSensor_MspInit
	.p2align	2
	.type	HAL_TIMEx_HallSensor_MspInit,%function
	.code	16                      @ @HAL_TIMEx_HallSensor_MspInit
	.thumb_func
HAL_TIMEx_HallSensor_MspInit:
.Lfunc_begin1:
	.loc	7 274 0                 @ ../Drivers/STM32F1xx_HAL_Driver/Src/stm32f1xx_hal_tim_ex.c:274:0
	.fnstart
	.cfi_startproc
@ %bb.0:
	@DEBUG_VALUE: HAL_TIMEx_HallSensor_MspInit:htim <- $r0
	.loc	7 280 1 prologue_end    @ ../Drivers/STM32F1xx_HAL_Driver/Src/stm32f1xx_hal_tim_ex.c:280:1
	bx	lr
.Ltmp9:
.Lfunc_end1:
	.size	HAL_TIMEx_HallSensor_MspInit, .Lfunc_end1-HAL_TIMEx_HallSensor_MspInit
	.cfi_endproc
	.cantunwind
	.fnend
                                        @ -- End function
	.section	.text.HAL_TIMEx_HallSensor_DeInit,"ax",%progbits
	.hidden	HAL_TIMEx_HallSensor_DeInit @ -- Begin function HAL_TIMEx_HallSensor_DeInit
	.globl	HAL_TIMEx_HallSensor_DeInit
	.p2align	2
	.type	HAL_TIMEx_HallSensor_DeInit,%function
	.code	16                      @ @HAL_TIMEx_HallSensor_DeInit
	.thumb_func
HAL_TIMEx_HallSensor_DeInit:
.Lfunc_begin2:
	.loc	7 247 0                 @ ../Drivers/STM32F1xx_HAL_Driver/Src/stm32f1xx_hal_tim_ex.c:247:0
	.fnstart
	.cfi_startproc
@ %bb.0:
	.save	{r4, lr}
	push	{r4, lr}
	.cfi_def_cfa_offset 8
	.cfi_offset lr, -4
	.cfi_offset r4, -8
	@DEBUG_VALUE: HAL_TIMEx_HallSensor_DeInit:htim <- $r0
	mov	r4, r0
.Ltmp10:
	@DEBUG_VALUE: HAL_TIMEx_HallSensor_DeInit:htim <- $r4
	.loc	7 251 15 prologue_end   @ ../Drivers/STM32F1xx_HAL_Driver/Src/stm32f1xx_hal_tim_ex.c:251:15
	movs	r0, #2
	str	r0, [r4, #64]
.Ltmp11:
	.loc	7 254 3                 @ ../Drivers/STM32F1xx_HAL_Driver/Src/stm32f1xx_hal_tim_ex.c:254:3
	ldr	r0, [r4]
	ldr	r1, [r0, #32]
	movw	r2, #4369
.Ltmp12:
	.loc	7 254 3 is_stmt 0       @ ../Drivers/STM32F1xx_HAL_Driver/Src/stm32f1xx_hal_tim_ex.c:254:3
	tst	r1, r2
	bne	.LBB2_3
.Ltmp13:
@ %bb.1:
	@DEBUG_VALUE: HAL_TIMEx_HallSensor_DeInit:htim <- $r4
	.loc	7 254 3                 @ ../Drivers/STM32F1xx_HAL_Driver/Src/stm32f1xx_hal_tim_ex.c:254:3
	ldr	r1, [r0, #32]
	movw	r2, #1092
.Ltmp14:
	.loc	7 254 3                 @ ../Drivers/STM32F1xx_HAL_Driver/Src/stm32f1xx_hal_tim_ex.c:254:3
	tst	r1, r2
	bne	.LBB2_3
.Ltmp15:
@ %bb.2:
	@DEBUG_VALUE: HAL_TIMEx_HallSensor_DeInit:htim <- $r4
	.loc	7 254 3                 @ ../Drivers/STM32F1xx_HAL_Driver/Src/stm32f1xx_hal_tim_ex.c:254:3
	ldr	r1, [r0]
	bic	r1, r1, #1
	str	r1, [r0]
.Ltmp16:
.LBB2_3:
	@DEBUG_VALUE: HAL_TIMEx_HallSensor_DeInit:htim <- $r4
	.loc	7 257 3 is_stmt 1       @ ../Drivers/STM32F1xx_HAL_Driver/Src/stm32f1xx_hal_tim_ex.c:257:3
	mov	r0, r4
	bl	HAL_TIMEx_HallSensor_MspDeInit
	movs	r0, #0
.Ltmp17:
	.loc	7 263 3                 @ ../Drivers/STM32F1xx_HAL_Driver/Src/stm32f1xx_hal_tim_ex.c:263:3
	str	r0, [r4, #60]
.Ltmp18:
	.loc	7 260 15                @ ../Drivers/STM32F1xx_HAL_Driver/Src/stm32f1xx_hal_tim_ex.c:260:15
	str	r0, [r4, #64]
	.loc	7 265 3                 @ ../Drivers/STM32F1xx_HAL_Driver/Src/stm32f1xx_hal_tim_ex.c:265:3
	movs	r0, #0
	pop	{r4, pc}
.Ltmp19:
.Lfunc_end2:
	.size	HAL_TIMEx_HallSensor_DeInit, .Lfunc_end2-HAL_TIMEx_HallSensor_DeInit
	.cfi_endproc
	.cantunwind
	.fnend
                                        @ -- End function
	.section	.text.HAL_TIMEx_HallSensor_MspDeInit,"ax",%progbits
	.hidden	HAL_TIMEx_HallSensor_MspDeInit @ -- Begin function HAL_TIMEx_HallSensor_MspDeInit
	.weak	HAL_TIMEx_HallSensor_MspDeInit
	.p2align	2
	.type	HAL_TIMEx_HallSensor_MspDeInit,%function
	.code	16                      @ @HAL_TIMEx_HallSensor_MspDeInit
	.thumb_func
HAL_TIMEx_HallSensor_MspDeInit:
.Lfunc_begin3:
	.loc	7 288 0                 @ ../Drivers/STM32F1xx_HAL_Driver/Src/stm32f1xx_hal_tim_ex.c:288:0
	.fnstart
	.cfi_startproc
@ %bb.0:
	@DEBUG_VALUE: HAL_TIMEx_HallSensor_MspDeInit:htim <- $r0
	.loc	7 294 1 prologue_end    @ ../Drivers/STM32F1xx_HAL_Driver/Src/stm32f1xx_hal_tim_ex.c:294:1
	bx	lr
.Ltmp20:
.Lfunc_end3:
	.size	HAL_TIMEx_HallSensor_MspDeInit, .Lfunc_end3-HAL_TIMEx_HallSensor_MspDeInit
	.cfi_endproc
	.cantunwind
	.fnend
                                        @ -- End function
	.section	.text.HAL_TIMEx_HallSensor_Start,"ax",%progbits
	.hidden	HAL_TIMEx_HallSensor_Start @ -- Begin function HAL_TIMEx_HallSensor_Start
	.globl	HAL_TIMEx_HallSensor_Start
	.p2align	2
	.type	HAL_TIMEx_HallSensor_Start,%function
	.code	16                      @ @HAL_TIMEx_HallSensor_Start
	.thumb_func
HAL_TIMEx_HallSensor_Start:
.Lfunc_begin4:
	.loc	7 302 0                 @ ../Drivers/STM32F1xx_HAL_Driver/Src/stm32f1xx_hal_tim_ex.c:302:0
	.fnstart
	.cfi_startproc
@ %bb.0:
	.save	{r4, lr}
	push	{r4, lr}
	.cfi_def_cfa_offset 8
	.cfi_offset lr, -4
	.cfi_offset r4, -8
	@DEBUG_VALUE: HAL_TIMEx_HallSensor_Start:htim <- $r0
	mov	r4, r0
.Ltmp21:
	@DEBUG_VALUE: HAL_TIMEx_HallSensor_Start:htim <- $r4
	.loc	7 308 27 prologue_end   @ ../Drivers/STM32F1xx_HAL_Driver/Src/stm32f1xx_hal_tim_ex.c:308:27
	ldr	r0, [r0]
	.loc	7 308 3 is_stmt 0       @ ../Drivers/STM32F1xx_HAL_Driver/Src/stm32f1xx_hal_tim_ex.c:308:3
	movs	r1, #0
	movs	r2, #1
	bl	TIM_CCxChannelCmd
	.loc	7 311 3 is_stmt 1       @ ../Drivers/STM32F1xx_HAL_Driver/Src/stm32f1xx_hal_tim_ex.c:311:3
	ldr	r0, [r4]
	ldr	r1, [r0]
	orr	r1, r1, #1
	str	r1, [r0]
	.loc	7 314 3                 @ ../Drivers/STM32F1xx_HAL_Driver/Src/stm32f1xx_hal_tim_ex.c:314:3
	movs	r0, #0
	pop	{r4, pc}
.Ltmp22:
.Lfunc_end4:
	.size	HAL_TIMEx_HallSensor_Start, .Lfunc_end4-HAL_TIMEx_HallSensor_Start
	.cfi_endproc
	.cantunwind
	.fnend
                                        @ -- End function
	.section	.text.HAL_TIMEx_HallSensor_Stop,"ax",%progbits
	.hidden	HAL_TIMEx_HallSensor_Stop @ -- Begin function HAL_TIMEx_HallSensor_Stop
	.globl	HAL_TIMEx_HallSensor_Stop
	.p2align	2
	.type	HAL_TIMEx_HallSensor_Stop,%function
	.code	16                      @ @HAL_TIMEx_HallSensor_Stop
	.thumb_func
HAL_TIMEx_HallSensor_Stop:
.Lfunc_begin5:
	.loc	7 323 0                 @ ../Drivers/STM32F1xx_HAL_Driver/Src/stm32f1xx_hal_tim_ex.c:323:0
	.fnstart
	.cfi_startproc
@ %bb.0:
	.save	{r4, lr}
	push	{r4, lr}
	.cfi_def_cfa_offset 8
	.cfi_offset lr, -4
	.cfi_offset r4, -8
	@DEBUG_VALUE: HAL_TIMEx_HallSensor_Stop:htim <- $r0
	mov	r4, r0
.Ltmp23:
	@DEBUG_VALUE: HAL_TIMEx_HallSensor_Stop:htim <- $r4
	.loc	7 329 27 prologue_end   @ ../Drivers/STM32F1xx_HAL_Driver/Src/stm32f1xx_hal_tim_ex.c:329:27
	ldr	r0, [r0]
	.loc	7 329 3 is_stmt 0       @ ../Drivers/STM32F1xx_HAL_Driver/Src/stm32f1xx_hal_tim_ex.c:329:3
	movs	r1, #0
	movs	r2, #0
	bl	TIM_CCxChannelCmd
.Ltmp24:
	.loc	7 332 3 is_stmt 1       @ ../Drivers/STM32F1xx_HAL_Driver/Src/stm32f1xx_hal_tim_ex.c:332:3
	ldr	r0, [r4]
	ldr	r1, [r0, #32]
	movw	r2, #4369
.Ltmp25:
	.loc	7 332 3 is_stmt 0       @ ../Drivers/STM32F1xx_HAL_Driver/Src/stm32f1xx_hal_tim_ex.c:332:3
	tst	r1, r2
	bne	.LBB5_2
.Ltmp26:
@ %bb.1:
	@DEBUG_VALUE: HAL_TIMEx_HallSensor_Stop:htim <- $r4
	.loc	7 332 3                 @ ../Drivers/STM32F1xx_HAL_Driver/Src/stm32f1xx_hal_tim_ex.c:332:3
	ldr	r1, [r0, #32]
	movw	r2, #1092
.Ltmp27:
	.loc	7 332 3                 @ ../Drivers/STM32F1xx_HAL_Driver/Src/stm32f1xx_hal_tim_ex.c:332:3
	tst	r1, r2
	beq	.LBB5_3
.Ltmp28:
.LBB5_2:
	@DEBUG_VALUE: HAL_TIMEx_HallSensor_Stop:htim <- $r4
	.loc	7 335 3 is_stmt 1       @ ../Drivers/STM32F1xx_HAL_Driver/Src/stm32f1xx_hal_tim_ex.c:335:3
	movs	r0, #0
	pop	{r4, pc}
.Ltmp29:
.LBB5_3:
	@DEBUG_VALUE: HAL_TIMEx_HallSensor_Stop:htim <- $r4
	.loc	7 332 3                 @ ../Drivers/STM32F1xx_HAL_Driver/Src/stm32f1xx_hal_tim_ex.c:332:3
	ldr	r1, [r0]
	bic	r1, r1, #1
	str	r1, [r0]
.Ltmp30:
	.loc	7 335 3                 @ ../Drivers/STM32F1xx_HAL_Driver/Src/stm32f1xx_hal_tim_ex.c:335:3
	movs	r0, #0
	pop	{r4, pc}
.Ltmp31:
.Lfunc_end5:
	.size	HAL_TIMEx_HallSensor_Stop, .Lfunc_end5-HAL_TIMEx_HallSensor_Stop
	.cfi_endproc
	.cantunwind
	.fnend
                                        @ -- End function
	.section	.text.HAL_TIMEx_HallSensor_Start_IT,"ax",%progbits
	.hidden	HAL_TIMEx_HallSensor_Start_IT @ -- Begin function HAL_TIMEx_HallSensor_Start_IT
	.globl	HAL_TIMEx_HallSensor_Start_IT
	.p2align	2
	.type	HAL_TIMEx_HallSensor_Start_IT,%function
	.code	16                      @ @HAL_TIMEx_HallSensor_Start_IT
	.thumb_func
HAL_TIMEx_HallSensor_Start_IT:
.Lfunc_begin6:
	.loc	7 344 0                 @ ../Drivers/STM32F1xx_HAL_Driver/Src/stm32f1xx_hal_tim_ex.c:344:0
	.fnstart
	.cfi_startproc
@ %bb.0:
	.save	{r4, lr}
	push	{r4, lr}
	.cfi_def_cfa_offset 8
	.cfi_offset lr, -4
	.cfi_offset r4, -8
	@DEBUG_VALUE: HAL_TIMEx_HallSensor_Start_IT:htim <- $r0
	mov	r4, r0
.Ltmp32:
	@DEBUG_VALUE: HAL_TIMEx_HallSensor_Start_IT:htim <- $r4
	.loc	7 349 3 prologue_end    @ ../Drivers/STM32F1xx_HAL_Driver/Src/stm32f1xx_hal_tim_ex.c:349:3
	ldr	r0, [r0]
	ldr	r1, [r0, #12]
	orr	r1, r1, #2
	str	r1, [r0, #12]
	.loc	7 353 3                 @ ../Drivers/STM32F1xx_HAL_Driver/Src/stm32f1xx_hal_tim_ex.c:353:3
	movs	r1, #0
	movs	r2, #1
	bl	TIM_CCxChannelCmd
	.loc	7 356 3                 @ ../Drivers/STM32F1xx_HAL_Driver/Src/stm32f1xx_hal_tim_ex.c:356:3
	ldr	r0, [r4]
	ldr	r1, [r0]
	orr	r1, r1, #1
	str	r1, [r0]
	.loc	7 359 3                 @ ../Drivers/STM32F1xx_HAL_Driver/Src/stm32f1xx_hal_tim_ex.c:359:3
	movs	r0, #0
	pop	{r4, pc}
.Ltmp33:
.Lfunc_end6:
	.size	HAL_TIMEx_HallSensor_Start_IT, .Lfunc_end6-HAL_TIMEx_HallSensor_Start_IT
	.cfi_endproc
	.cantunwind
	.fnend
                                        @ -- End function
	.section	.text.HAL_TIMEx_HallSensor_Stop_IT,"ax",%progbits
	.hidden	HAL_TIMEx_HallSensor_Stop_IT @ -- Begin function HAL_TIMEx_HallSensor_Stop_IT
	.globl	HAL_TIMEx_HallSensor_Stop_IT
	.p2align	2
	.type	HAL_TIMEx_HallSensor_Stop_IT,%function
	.code	16                      @ @HAL_TIMEx_HallSensor_Stop_IT
	.thumb_func
HAL_TIMEx_HallSensor_Stop_IT:
.Lfunc_begin7:
	.loc	7 368 0                 @ ../Drivers/STM32F1xx_HAL_Driver/Src/stm32f1xx_hal_tim_ex.c:368:0
	.fnstart
	.cfi_startproc
@ %bb.0:
	.save	{r4, lr}
	push	{r4, lr}
	.cfi_def_cfa_offset 8
	.cfi_offset lr, -4
	.cfi_offset r4, -8
	@DEBUG_VALUE: HAL_TIMEx_HallSensor_Stop_IT:htim <- $r0
	mov	r4, r0
.Ltmp34:
	@DEBUG_VALUE: HAL_TIMEx_HallSensor_Stop_IT:htim <- $r4
	.loc	7 374 27 prologue_end   @ ../Drivers/STM32F1xx_HAL_Driver/Src/stm32f1xx_hal_tim_ex.c:374:27
	ldr	r0, [r0]
	.loc	7 374 3 is_stmt 0       @ ../Drivers/STM32F1xx_HAL_Driver/Src/stm32f1xx_hal_tim_ex.c:374:3
	movs	r1, #0
	movs	r2, #0
	bl	TIM_CCxChannelCmd
	.loc	7 377 3 is_stmt 1       @ ../Drivers/STM32F1xx_HAL_Driver/Src/stm32f1xx_hal_tim_ex.c:377:3
	ldr	r0, [r4]
	ldr	r1, [r0, #12]
	bic	r1, r1, #2
	str	r1, [r0, #12]
.Ltmp35:
	.loc	7 380 3                 @ ../Drivers/STM32F1xx_HAL_Driver/Src/stm32f1xx_hal_tim_ex.c:380:3
	ldr	r1, [r0, #32]
	movw	r2, #4369
.Ltmp36:
	.loc	7 380 3 is_stmt 0       @ ../Drivers/STM32F1xx_HAL_Driver/Src/stm32f1xx_hal_tim_ex.c:380:3
	tst	r1, r2
	bne	.LBB7_2
.Ltmp37:
@ %bb.1:
	@DEBUG_VALUE: HAL_TIMEx_HallSensor_Stop_IT:htim <- $r4
	.loc	7 380 3                 @ ../Drivers/STM32F1xx_HAL_Driver/Src/stm32f1xx_hal_tim_ex.c:380:3
	ldr	r1, [r0, #32]
	movw	r2, #1092
.Ltmp38:
	.loc	7 380 3                 @ ../Drivers/STM32F1xx_HAL_Driver/Src/stm32f1xx_hal_tim_ex.c:380:3
	tst	r1, r2
	beq	.LBB7_3
.Ltmp39:
.LBB7_2:
	@DEBUG_VALUE: HAL_TIMEx_HallSensor_Stop_IT:htim <- $r4
	.loc	7 383 3 is_stmt 1       @ ../Drivers/STM32F1xx_HAL_Driver/Src/stm32f1xx_hal_tim_ex.c:383:3
	movs	r0, #0
	pop	{r4, pc}
.Ltmp40:
.LBB7_3:
	@DEBUG_VALUE: HAL_TIMEx_HallSensor_Stop_IT:htim <- $r4
	.loc	7 380 3                 @ ../Drivers/STM32F1xx_HAL_Driver/Src/stm32f1xx_hal_tim_ex.c:380:3
	ldr	r1, [r0]
	bic	r1, r1, #1
	str	r1, [r0]
.Ltmp41:
	.loc	7 383 3                 @ ../Drivers/STM32F1xx_HAL_Driver/Src/stm32f1xx_hal_tim_ex.c:383:3
	movs	r0, #0
	pop	{r4, pc}
.Ltmp42:
.Lfunc_end7:
	.size	HAL_TIMEx_HallSensor_Stop_IT, .Lfunc_end7-HAL_TIMEx_HallSensor_Stop_IT
	.cfi_endproc
	.cantunwind
	.fnend
                                        @ -- End function
	.section	.text.HAL_TIMEx_HallSensor_Start_DMA,"ax",%progbits
	.hidden	HAL_TIMEx_HallSensor_Start_DMA @ -- Begin function HAL_TIMEx_HallSensor_Start_DMA
	.globl	HAL_TIMEx_HallSensor_Start_DMA
	.p2align	2
	.type	HAL_TIMEx_HallSensor_Start_DMA,%function
	.code	16                      @ @HAL_TIMEx_HallSensor_Start_DMA
	.thumb_func
HAL_TIMEx_HallSensor_Start_DMA:
.Lfunc_begin8:
	.loc	7 394 0                 @ ../Drivers/STM32F1xx_HAL_Driver/Src/stm32f1xx_hal_tim_ex.c:394:0
	.fnstart
	.cfi_startproc
@ %bb.0:
	.save	{r4, r5, r6, r7, lr}
	push	{r4, r5, r6, r7, lr}
	.cfi_def_cfa_offset 20
	.cfi_offset lr, -4
	.cfi_offset r7, -8
	.cfi_offset r6, -12
	.cfi_offset r5, -16
	.cfi_offset r4, -20
	.pad	#4
	sub	sp, #4
	.cfi_def_cfa_offset 24
	@DEBUG_VALUE: HAL_TIMEx_HallSensor_Start_DMA:htim <- $r0
	@DEBUG_VALUE: HAL_TIMEx_HallSensor_Start_DMA:pData <- $r1
	@DEBUG_VALUE: HAL_TIMEx_HallSensor_Start_DMA:Length <- $r2
	mov	r5, r2
	mov	r6, r1
	mov	r4, r0
.Ltmp43:
	@DEBUG_VALUE: HAL_TIMEx_HallSensor_Start_DMA:Length <- $r5
	@DEBUG_VALUE: HAL_TIMEx_HallSensor_Start_DMA:pData <- $r6
	@DEBUG_VALUE: HAL_TIMEx_HallSensor_Start_DMA:htim <- $r4
	.loc	7 398 14 prologue_end   @ ../Drivers/STM32F1xx_HAL_Driver/Src/stm32f1xx_hal_tim_ex.c:398:14
	ldr	r0, [r0, #64]
.Ltmp44:
	.loc	7 398 7 is_stmt 0       @ ../Drivers/STM32F1xx_HAL_Driver/Src/stm32f1xx_hal_tim_ex.c:398:7
	cmp	r0, #2
	bne	.LBB8_2
.Ltmp45:
@ %bb.1:
	@DEBUG_VALUE: HAL_TIMEx_HallSensor_Start_DMA:htim <- $r4
	@DEBUG_VALUE: HAL_TIMEx_HallSensor_Start_DMA:pData <- $r6
	@DEBUG_VALUE: HAL_TIMEx_HallSensor_Start_DMA:Length <- $r5
	.loc	7 0 7                   @ ../Drivers/STM32F1xx_HAL_Driver/Src/stm32f1xx_hal_tim_ex.c:0:7
	movs	r7, #2
	b	.LBB8_8
.Ltmp46:
.LBB8_2:
	@DEBUG_VALUE: HAL_TIMEx_HallSensor_Start_DMA:htim <- $r4
	@DEBUG_VALUE: HAL_TIMEx_HallSensor_Start_DMA:pData <- $r6
	@DEBUG_VALUE: HAL_TIMEx_HallSensor_Start_DMA:Length <- $r5
	.loc	7 402 18 is_stmt 1      @ ../Drivers/STM32F1xx_HAL_Driver/Src/stm32f1xx_hal_tim_ex.c:402:18
	ldr	r0, [r4, #64]
.Ltmp47:
	.loc	7 402 11 is_stmt 0      @ ../Drivers/STM32F1xx_HAL_Driver/Src/stm32f1xx_hal_tim_ex.c:402:11
	cmp	r0, #1
	bne	.LBB8_7
.Ltmp48:
@ %bb.3:
	@DEBUG_VALUE: HAL_TIMEx_HallSensor_Start_DMA:htim <- $r4
	@DEBUG_VALUE: HAL_TIMEx_HallSensor_Start_DMA:pData <- $r6
	@DEBUG_VALUE: HAL_TIMEx_HallSensor_Start_DMA:Length <- $r5
	.loc	7 404 32 is_stmt 1      @ ../Drivers/STM32F1xx_HAL_Driver/Src/stm32f1xx_hal_tim_ex.c:404:32
	cbnz	r6, .LBB8_6
.Ltmp49:
@ %bb.4:
	@DEBUG_VALUE: HAL_TIMEx_HallSensor_Start_DMA:htim <- $r4
	@DEBUG_VALUE: HAL_TIMEx_HallSensor_Start_DMA:pData <- $r6
	@DEBUG_VALUE: HAL_TIMEx_HallSensor_Start_DMA:Length <- $r5
	cbz	r5, .LBB8_6
.Ltmp50:
@ %bb.5:
	@DEBUG_VALUE: HAL_TIMEx_HallSensor_Start_DMA:htim <- $r4
	@DEBUG_VALUE: HAL_TIMEx_HallSensor_Start_DMA:pData <- $r6
	@DEBUG_VALUE: HAL_TIMEx_HallSensor_Start_DMA:Length <- $r5
	.loc	7 0 32 is_stmt 0        @ ../Drivers/STM32F1xx_HAL_Driver/Src/stm32f1xx_hal_tim_ex.c:0:32
	movs	r7, #1
	b	.LBB8_8
.Ltmp51:
.LBB8_6:
	@DEBUG_VALUE: HAL_TIMEx_HallSensor_Start_DMA:htim <- $r4
	@DEBUG_VALUE: HAL_TIMEx_HallSensor_Start_DMA:pData <- $r6
	@DEBUG_VALUE: HAL_TIMEx_HallSensor_Start_DMA:Length <- $r5
	.loc	7 410 19 is_stmt 1      @ ../Drivers/STM32F1xx_HAL_Driver/Src/stm32f1xx_hal_tim_ex.c:410:19
	movs	r0, #2
	str	r0, [r4, #64]
.Ltmp52:
.LBB8_7:
	@DEBUG_VALUE: HAL_TIMEx_HallSensor_Start_DMA:htim <- $r4
	@DEBUG_VALUE: HAL_TIMEx_HallSensor_Start_DMA:pData <- $r6
	@DEBUG_VALUE: HAL_TIMEx_HallSensor_Start_DMA:Length <- $r5
	@DEBUG_VALUE: HAL_TIMEx_HallSensor_Start_DMA:Length <- $r5
	.loc	7 415 27                @ ../Drivers/STM32F1xx_HAL_Driver/Src/stm32f1xx_hal_tim_ex.c:415:27
	ldr	r0, [r4]
	movs	r7, #0
	.loc	7 415 3 is_stmt 0       @ ../Drivers/STM32F1xx_HAL_Driver/Src/stm32f1xx_hal_tim_ex.c:415:3
	movs	r1, #0
	movs	r2, #1
	bl	TIM_CCxChannelCmd
	.loc	7 418 3 is_stmt 1       @ ../Drivers/STM32F1xx_HAL_Driver/Src/stm32f1xx_hal_tim_ex.c:418:3
	ldr	r0, [r4, #36]
	.loc	7 418 48 is_stmt 0      @ ../Drivers/STM32F1xx_HAL_Driver/Src/stm32f1xx_hal_tim_ex.c:418:48
	movw	r1, :lower16:TIM_DMACaptureCplt
	movt	r1, :upper16:TIM_DMACaptureCplt
	str	r1, [r0, #44]
	.loc	7 420 3 is_stmt 1       @ ../Drivers/STM32F1xx_HAL_Driver/Src/stm32f1xx_hal_tim_ex.c:420:3
	ldr	r0, [r4, #36]
	.loc	7 420 49 is_stmt 0      @ ../Drivers/STM32F1xx_HAL_Driver/Src/stm32f1xx_hal_tim_ex.c:420:49
	movw	r1, :lower16:TIM_DMAError
	movt	r1, :upper16:TIM_DMAError
	str	r1, [r0, #52]
	.loc	7 423 65 is_stmt 1      @ ../Drivers/STM32F1xx_HAL_Driver/Src/stm32f1xx_hal_tim_ex.c:423:65
	ldr	r1, [r4]
	.loc	7 423 20 is_stmt 0      @ ../Drivers/STM32F1xx_HAL_Driver/Src/stm32f1xx_hal_tim_ex.c:423:20
	ldr	r0, [r4, #36]
	.loc	7 423 75                @ ../Drivers/STM32F1xx_HAL_Driver/Src/stm32f1xx_hal_tim_ex.c:423:75
	adds	r1, #52
	.loc	7 423 3                 @ ../Drivers/STM32F1xx_HAL_Driver/Src/stm32f1xx_hal_tim_ex.c:423:3
	mov	r2, r6
	mov	r3, r5
	bl	HAL_DMA_Start_IT
	.loc	7 426 3 is_stmt 1       @ ../Drivers/STM32F1xx_HAL_Driver/Src/stm32f1xx_hal_tim_ex.c:426:3
	ldr	r0, [r4]
	ldr	r1, [r0, #12]
	orr	r1, r1, #512
	str	r1, [r0, #12]
	.loc	7 429 3                 @ ../Drivers/STM32F1xx_HAL_Driver/Src/stm32f1xx_hal_tim_ex.c:429:3
	ldr	r1, [r0]
	orr	r1, r1, #1
	str	r1, [r0]
.Ltmp53:
.LBB8_8:
	@DEBUG_VALUE: HAL_TIMEx_HallSensor_Start_DMA:htim <- $r4
	@DEBUG_VALUE: HAL_TIMEx_HallSensor_Start_DMA:pData <- $r6
	@DEBUG_VALUE: HAL_TIMEx_HallSensor_Start_DMA:Length <- $r5
	.loc	7 433 1                 @ ../Drivers/STM32F1xx_HAL_Driver/Src/stm32f1xx_hal_tim_ex.c:433:1
	mov	r0, r7
	add	sp, #4
	pop	{r4, r5, r6, r7, pc}
.Ltmp54:
.Lfunc_end8:
	.size	HAL_TIMEx_HallSensor_Start_DMA, .Lfunc_end8-HAL_TIMEx_HallSensor_Start_DMA
	.cfi_endproc
	.cantunwind
	.fnend
                                        @ -- End function
	.section	.text.HAL_TIMEx_HallSensor_Stop_DMA,"ax",%progbits
	.hidden	HAL_TIMEx_HallSensor_Stop_DMA @ -- Begin function HAL_TIMEx_HallSensor_Stop_DMA
	.globl	HAL_TIMEx_HallSensor_Stop_DMA
	.p2align	2
	.type	HAL_TIMEx_HallSensor_Stop_DMA,%function
	.code	16                      @ @HAL_TIMEx_HallSensor_Stop_DMA
	.thumb_func
HAL_TIMEx_HallSensor_Stop_DMA:
.Lfunc_begin9:
	.loc	7 441 0                 @ ../Drivers/STM32F1xx_HAL_Driver/Src/stm32f1xx_hal_tim_ex.c:441:0
	.fnstart
	.cfi_startproc
@ %bb.0:
	.save	{r4, lr}
	push	{r4, lr}
	.cfi_def_cfa_offset 8
	.cfi_offset lr, -4
	.cfi_offset r4, -8
	@DEBUG_VALUE: HAL_TIMEx_HallSensor_Stop_DMA:htim <- $r0
	mov	r4, r0
.Ltmp55:
	@DEBUG_VALUE: HAL_TIMEx_HallSensor_Stop_DMA:htim <- $r4
	.loc	7 447 27 prologue_end   @ ../Drivers/STM32F1xx_HAL_Driver/Src/stm32f1xx_hal_tim_ex.c:447:27
	ldr	r0, [r0]
	.loc	7 447 3 is_stmt 0       @ ../Drivers/STM32F1xx_HAL_Driver/Src/stm32f1xx_hal_tim_ex.c:447:3
	movs	r1, #0
	movs	r2, #0
	bl	TIM_CCxChannelCmd
	.loc	7 451 3 is_stmt 1       @ ../Drivers/STM32F1xx_HAL_Driver/Src/stm32f1xx_hal_tim_ex.c:451:3
	ldr	r0, [r4]
	ldr	r1, [r0, #12]
	bic	r1, r1, #512
	str	r1, [r0, #12]
.Ltmp56:
	.loc	7 454 3                 @ ../Drivers/STM32F1xx_HAL_Driver/Src/stm32f1xx_hal_tim_ex.c:454:3
	ldr	r1, [r0, #32]
	movw	r2, #4369
.Ltmp57:
	.loc	7 454 3 is_stmt 0       @ ../Drivers/STM32F1xx_HAL_Driver/Src/stm32f1xx_hal_tim_ex.c:454:3
	tst	r1, r2
	bne	.LBB9_2
.Ltmp58:
@ %bb.1:
	@DEBUG_VALUE: HAL_TIMEx_HallSensor_Stop_DMA:htim <- $r4
	.loc	7 454 3                 @ ../Drivers/STM32F1xx_HAL_Driver/Src/stm32f1xx_hal_tim_ex.c:454:3
	ldr	r1, [r0, #32]
	movw	r2, #1092
.Ltmp59:
	.loc	7 454 3                 @ ../Drivers/STM32F1xx_HAL_Driver/Src/stm32f1xx_hal_tim_ex.c:454:3
	tst	r1, r2
	beq	.LBB9_3
.Ltmp60:
.LBB9_2:
	@DEBUG_VALUE: HAL_TIMEx_HallSensor_Stop_DMA:htim <- $r4
	.loc	7 457 3 is_stmt 1       @ ../Drivers/STM32F1xx_HAL_Driver/Src/stm32f1xx_hal_tim_ex.c:457:3
	movs	r0, #0
	pop	{r4, pc}
.Ltmp61:
.LBB9_3:
	@DEBUG_VALUE: HAL_TIMEx_HallSensor_Stop_DMA:htim <- $r4
	.loc	7 454 3                 @ ../Drivers/STM32F1xx_HAL_Driver/Src/stm32f1xx_hal_tim_ex.c:454:3
	ldr	r1, [r0]
	bic	r1, r1, #1
	str	r1, [r0]
.Ltmp62:
	.loc	7 457 3                 @ ../Drivers/STM32F1xx_HAL_Driver/Src/stm32f1xx_hal_tim_ex.c:457:3
	movs	r0, #0
	pop	{r4, pc}
.Ltmp63:
.Lfunc_end9:
	.size	HAL_TIMEx_HallSensor_Stop_DMA, .Lfunc_end9-HAL_TIMEx_HallSensor_Stop_DMA
	.cfi_endproc
	.cantunwind
	.fnend
                                        @ -- End function
	.section	.text.HAL_TIMEx_OCN_Start,"ax",%progbits
	.hidden	HAL_TIMEx_OCN_Start     @ -- Begin function HAL_TIMEx_OCN_Start
	.globl	HAL_TIMEx_OCN_Start
	.p2align	2
	.type	HAL_TIMEx_OCN_Start,%function
	.code	16                      @ @HAL_TIMEx_OCN_Start
	.thumb_func
HAL_TIMEx_OCN_Start:
.Lfunc_begin10:
	.loc	7 501 0                 @ ../Drivers/STM32F1xx_HAL_Driver/Src/stm32f1xx_hal_tim_ex.c:501:0
	.fnstart
	.cfi_startproc
@ %bb.0:
	.save	{r4, lr}
	push	{r4, lr}
	.cfi_def_cfa_offset 8
	.cfi_offset lr, -4
	.cfi_offset r4, -8
	@DEBUG_VALUE: HAL_TIMEx_OCN_Start:htim <- $r0
	@DEBUG_VALUE: HAL_TIMEx_OCN_Start:Channel <- $r1
	mov	r4, r0
	@DEBUG_VALUE: HAL_TIMEx_OCN_Start:Channel <- $r1
.Ltmp64:
	@DEBUG_VALUE: HAL_TIMEx_OCN_Start:htim <- $r4
	.loc	7 506 28 prologue_end   @ ../Drivers/STM32F1xx_HAL_Driver/Src/stm32f1xx_hal_tim_ex.c:506:28
	ldr	r0, [r0]
	@DEBUG_VALUE: HAL_TIMEx_OCN_Start:Channel <- $r1
	.loc	7 506 3 is_stmt 0       @ ../Drivers/STM32F1xx_HAL_Driver/Src/stm32f1xx_hal_tim_ex.c:506:3
	movs	r2, #4
	bl	TIM_CCxNChannelCmd
.Ltmp65:
	.loc	7 509 3 is_stmt 1       @ ../Drivers/STM32F1xx_HAL_Driver/Src/stm32f1xx_hal_tim_ex.c:509:3
	ldr	r0, [r4]
	ldr	r1, [r0, #68]
	orr	r1, r1, #32768
	str	r1, [r0, #68]
	.loc	7 512 3                 @ ../Drivers/STM32F1xx_HAL_Driver/Src/stm32f1xx_hal_tim_ex.c:512:3
	ldr	r1, [r0]
	orr	r1, r1, #1
	str	r1, [r0]
	.loc	7 515 3                 @ ../Drivers/STM32F1xx_HAL_Driver/Src/stm32f1xx_hal_tim_ex.c:515:3
	movs	r0, #0
	pop	{r4, pc}
.Ltmp66:
.Lfunc_end10:
	.size	HAL_TIMEx_OCN_Start, .Lfunc_end10-HAL_TIMEx_OCN_Start
	.cfi_endproc
	.cantunwind
	.fnend
                                        @ -- End function
	.section	.text.TIM_CCxNChannelCmd,"ax",%progbits
	.p2align	2               @ -- Begin function TIM_CCxNChannelCmd
	.type	TIM_CCxNChannelCmd,%function
	.code	16                      @ @TIM_CCxNChannelCmd
	.thumb_func
TIM_CCxNChannelCmd:
.Lfunc_begin11:
	.loc	7 1832 0                @ ../Drivers/STM32F1xx_HAL_Driver/Src/stm32f1xx_hal_tim_ex.c:1832:0
	.fnstart
	.cfi_startproc
@ %bb.0:
	@DEBUG_VALUE: TIM_CCxNChannelCmd:TIMx <- $r0
	@DEBUG_VALUE: TIM_CCxNChannelCmd:TIMx <- $r0
	@DEBUG_VALUE: TIM_CCxNChannelCmd:Channel <- $r1
	@DEBUG_VALUE: TIM_CCxNChannelCmd:Channel <- $r1
	@DEBUG_VALUE: TIM_CCxNChannelCmd:ChannelNState <- $r2
	@DEBUG_VALUE: TIM_CCxNChannelCmd:ChannelNState <- $r2
	@DEBUG_VALUE: TIM_CCxNChannelCmd:tmp <- 0
	.loc	7 1835 24 prologue_end  @ ../Drivers/STM32F1xx_HAL_Driver/Src/stm32f1xx_hal_tim_ex.c:1835:24
	movs	r3, #4
	lsl.w	r12, r3, r1
.Ltmp67:
	@DEBUG_VALUE: TIM_CCxNChannelCmd:tmp <- $r12
	.loc	7 1838 14               @ ../Drivers/STM32F1xx_HAL_Driver/Src/stm32f1xx_hal_tim_ex.c:1838:14
	ldr	r3, [r0, #32]
	bic.w	r3, r3, r12
	str	r3, [r0, #32]
	.loc	7 1841 43               @ ../Drivers/STM32F1xx_HAL_Driver/Src/stm32f1xx_hal_tim_ex.c:1841:43
	lsl.w	r1, r2, r1
.Ltmp68:
	.loc	7 1841 14 is_stmt 0     @ ../Drivers/STM32F1xx_HAL_Driver/Src/stm32f1xx_hal_tim_ex.c:1841:14
	ldr	r2, [r0, #32]
.Ltmp69:
	orrs	r1, r2
	str	r1, [r0, #32]
	.loc	7 1842 1 is_stmt 1      @ ../Drivers/STM32F1xx_HAL_Driver/Src/stm32f1xx_hal_tim_ex.c:1842:1
	bx	lr
.Ltmp70:
.Lfunc_end11:
	.size	TIM_CCxNChannelCmd, .Lfunc_end11-TIM_CCxNChannelCmd
	.cfi_endproc
	.cantunwind
	.fnend
                                        @ -- End function
	.section	.text.HAL_TIMEx_OCN_Stop,"ax",%progbits
	.hidden	HAL_TIMEx_OCN_Stop      @ -- Begin function HAL_TIMEx_OCN_Stop
	.globl	HAL_TIMEx_OCN_Stop
	.p2align	2
	.type	HAL_TIMEx_OCN_Stop,%function
	.code	16                      @ @HAL_TIMEx_OCN_Stop
	.thumb_func
HAL_TIMEx_OCN_Stop:
.Lfunc_begin12:
	.loc	7 531 0                 @ ../Drivers/STM32F1xx_HAL_Driver/Src/stm32f1xx_hal_tim_ex.c:531:0
	.fnstart
	.cfi_startproc
@ %bb.0:
	.save	{r4, lr}
	push	{r4, lr}
	.cfi_def_cfa_offset 8
	.cfi_offset lr, -4
	.cfi_offset r4, -8
	@DEBUG_VALUE: HAL_TIMEx_OCN_Stop:htim <- $r0
	@DEBUG_VALUE: HAL_TIMEx_OCN_Stop:Channel <- $r1
	mov	r4, r0
	@DEBUG_VALUE: HAL_TIMEx_OCN_Stop:Channel <- $r1
.Ltmp71:
	@DEBUG_VALUE: HAL_TIMEx_OCN_Stop:htim <- $r4
	.loc	7 536 28 prologue_end   @ ../Drivers/STM32F1xx_HAL_Driver/Src/stm32f1xx_hal_tim_ex.c:536:28
	ldr	r0, [r0]
	@DEBUG_VALUE: HAL_TIMEx_OCN_Stop:Channel <- $r1
	.loc	7 536 3 is_stmt 0       @ ../Drivers/STM32F1xx_HAL_Driver/Src/stm32f1xx_hal_tim_ex.c:536:3
	movs	r2, #0
	bl	TIM_CCxNChannelCmd
.Ltmp72:
	.loc	7 539 3 is_stmt 1       @ ../Drivers/STM32F1xx_HAL_Driver/Src/stm32f1xx_hal_tim_ex.c:539:3
	ldr	r0, [r4]
	ldr	r2, [r0, #32]
	movw	r1, #4369
.Ltmp73:
	.loc	7 539 3 is_stmt 0       @ ../Drivers/STM32F1xx_HAL_Driver/Src/stm32f1xx_hal_tim_ex.c:539:3
	tst	r2, r1
	bne	.LBB12_3
.Ltmp74:
@ %bb.1:
	@DEBUG_VALUE: HAL_TIMEx_OCN_Stop:htim <- $r4
	.loc	7 539 3                 @ ../Drivers/STM32F1xx_HAL_Driver/Src/stm32f1xx_hal_tim_ex.c:539:3
	ldr	r2, [r0, #32]
	movw	r3, #1092
.Ltmp75:
	.loc	7 539 3                 @ ../Drivers/STM32F1xx_HAL_Driver/Src/stm32f1xx_hal_tim_ex.c:539:3
	tst	r2, r3
	bne	.LBB12_3
.Ltmp76:
@ %bb.2:
	@DEBUG_VALUE: HAL_TIMEx_OCN_Stop:htim <- $r4
	.loc	7 539 3                 @ ../Drivers/STM32F1xx_HAL_Driver/Src/stm32f1xx_hal_tim_ex.c:539:3
	ldr	r2, [r0, #68]
	bic	r2, r2, #32768
	str	r2, [r0, #68]
.Ltmp77:
.LBB12_3:
	@DEBUG_VALUE: HAL_TIMEx_OCN_Stop:htim <- $r4
	.loc	7 542 3 is_stmt 1       @ ../Drivers/STM32F1xx_HAL_Driver/Src/stm32f1xx_hal_tim_ex.c:542:3
	ldr	r2, [r0, #32]
.Ltmp78:
	.loc	7 542 3 is_stmt 0       @ ../Drivers/STM32F1xx_HAL_Driver/Src/stm32f1xx_hal_tim_ex.c:542:3
	tst	r2, r1
	bne	.LBB12_5
.Ltmp79:
@ %bb.4:
	@DEBUG_VALUE: HAL_TIMEx_OCN_Stop:htim <- $r4
	.loc	7 542 3                 @ ../Drivers/STM32F1xx_HAL_Driver/Src/stm32f1xx_hal_tim_ex.c:542:3
	ldr	r1, [r0, #32]
	movw	r2, #1092
.Ltmp80:
	.loc	7 542 3                 @ ../Drivers/STM32F1xx_HAL_Driver/Src/stm32f1xx_hal_tim_ex.c:542:3
	tst	r1, r2
	beq	.LBB12_6
.Ltmp81:
.LBB12_5:
	@DEBUG_VALUE: HAL_TIMEx_OCN_Stop:htim <- $r4
	.loc	7 545 3 is_stmt 1       @ ../Drivers/STM32F1xx_HAL_Driver/Src/stm32f1xx_hal_tim_ex.c:545:3
	movs	r0, #0
	pop	{r4, pc}
.Ltmp82:
.LBB12_6:
	@DEBUG_VALUE: HAL_TIMEx_OCN_Stop:htim <- $r4
	.loc	7 542 3                 @ ../Drivers/STM32F1xx_HAL_Driver/Src/stm32f1xx_hal_tim_ex.c:542:3
	ldr	r1, [r0]
	bic	r1, r1, #1
	str	r1, [r0]
.Ltmp83:
	.loc	7 545 3                 @ ../Drivers/STM32F1xx_HAL_Driver/Src/stm32f1xx_hal_tim_ex.c:545:3
	movs	r0, #0
	pop	{r4, pc}
.Ltmp84:
.Lfunc_end12:
	.size	HAL_TIMEx_OCN_Stop, .Lfunc_end12-HAL_TIMEx_OCN_Stop
	.cfi_endproc
	.cantunwind
	.fnend
                                        @ -- End function
	.section	.text.HAL_TIMEx_OCN_Start_IT,"ax",%progbits
	.hidden	HAL_TIMEx_OCN_Start_IT  @ -- Begin function HAL_TIMEx_OCN_Start_IT
	.globl	HAL_TIMEx_OCN_Start_IT
	.p2align	2
	.type	HAL_TIMEx_OCN_Start_IT,%function
	.code	16                      @ @HAL_TIMEx_OCN_Start_IT
	.thumb_func
HAL_TIMEx_OCN_Start_IT:
.Lfunc_begin13:
	.loc	7 561 0                 @ ../Drivers/STM32F1xx_HAL_Driver/Src/stm32f1xx_hal_tim_ex.c:561:0
	.fnstart
	.cfi_startproc
@ %bb.0:
	.save	{r4, lr}
	push	{r4, lr}
	.cfi_def_cfa_offset 8
	.cfi_offset lr, -4
	.cfi_offset r4, -8
	@DEBUG_VALUE: HAL_TIMEx_OCN_Start_IT:htim <- $r0
	@DEBUG_VALUE: HAL_TIMEx_OCN_Start_IT:Channel <- $r1
	mov	r4, r0
	@DEBUG_VALUE: HAL_TIMEx_OCN_Start_IT:Channel <- $r1
.Ltmp85:
	@DEBUG_VALUE: HAL_TIMEx_OCN_Start_IT:htim <- $r4
	.loc	7 565 3 prologue_end    @ ../Drivers/STM32F1xx_HAL_Driver/Src/stm32f1xx_hal_tim_ex.c:565:3
	ror.w	r0, r1, #2
	cmp	r0, #3
	bhi	.LBB13_2
.Ltmp86:
@ %bb.1:
	@DEBUG_VALUE: HAL_TIMEx_OCN_Start_IT:htim <- $r4
	@DEBUG_VALUE: HAL_TIMEx_OCN_Start_IT:Channel <- $r1
	adr	r2, .LCPI13_0
	ldr.w	r0, [r2, r0, lsl #2]
	ldr	r2, [r4]
	ldr	r3, [r2, #12]
	orrs	r0, r3
	str	r0, [r2, #12]
.Ltmp87:
.LBB13_2:
	@DEBUG_VALUE: HAL_TIMEx_OCN_Start_IT:htim <- $r4
	@DEBUG_VALUE: HAL_TIMEx_OCN_Start_IT:Channel <- $r1
	.loc	7 600 3                 @ ../Drivers/STM32F1xx_HAL_Driver/Src/stm32f1xx_hal_tim_ex.c:600:3
	ldr	r0, [r4]
	ldr	r2, [r0, #12]
	orr	r2, r2, #128
	str	r2, [r0, #12]
	.loc	7 603 3                 @ ../Drivers/STM32F1xx_HAL_Driver/Src/stm32f1xx_hal_tim_ex.c:603:3
	movs	r2, #4
	bl	TIM_CCxNChannelCmd
.Ltmp88:
	.loc	7 606 3                 @ ../Drivers/STM32F1xx_HAL_Driver/Src/stm32f1xx_hal_tim_ex.c:606:3
	ldr	r0, [r4]
	ldr	r1, [r0, #68]
	orr	r1, r1, #32768
	str	r1, [r0, #68]
	.loc	7 609 3                 @ ../Drivers/STM32F1xx_HAL_Driver/Src/stm32f1xx_hal_tim_ex.c:609:3
	ldr	r1, [r0]
	orr	r1, r1, #1
	str	r1, [r0]
	.loc	7 612 3                 @ ../Drivers/STM32F1xx_HAL_Driver/Src/stm32f1xx_hal_tim_ex.c:612:3
	movs	r0, #0
	pop	{r4, pc}
.Ltmp89:
	.p2align	2
@ %bb.3:
	.loc	7 0 3 is_stmt 0         @ ../Drivers/STM32F1xx_HAL_Driver/Src/stm32f1xx_hal_tim_ex.c:0:3
.LCPI13_0:
.Lswitch.table.HAL_TIMEx_OCN_Start_IT:
	.long	2                       @ 0x2
	.long	4                       @ 0x4
	.long	8                       @ 0x8
	.long	16                      @ 0x10
.Lfunc_end13:
	.size	HAL_TIMEx_OCN_Start_IT, .Lfunc_end13-HAL_TIMEx_OCN_Start_IT
	.cfi_endproc
	.cantunwind
	.fnend
                                        @ -- End function
	.section	.text.HAL_TIMEx_OCN_Stop_IT,"ax",%progbits
	.hidden	HAL_TIMEx_OCN_Stop_IT   @ -- Begin function HAL_TIMEx_OCN_Stop_IT
	.globl	HAL_TIMEx_OCN_Stop_IT
	.p2align	2
	.type	HAL_TIMEx_OCN_Stop_IT,%function
	.code	16                      @ @HAL_TIMEx_OCN_Stop_IT
	.thumb_func
HAL_TIMEx_OCN_Stop_IT:
.Lfunc_begin14:
	.loc	7 628 0 is_stmt 1       @ ../Drivers/STM32F1xx_HAL_Driver/Src/stm32f1xx_hal_tim_ex.c:628:0
	.fnstart
	.cfi_startproc
@ %bb.0:
	.save	{r4, lr}
	push	{r4, lr}
	.cfi_def_cfa_offset 8
	.cfi_offset lr, -4
	.cfi_offset r4, -8
	@DEBUG_VALUE: HAL_TIMEx_OCN_Stop_IT:htim <- $r0
	@DEBUG_VALUE: HAL_TIMEx_OCN_Stop_IT:Channel <- $r1
	mov	r4, r0
.Ltmp90:
	@DEBUG_VALUE: HAL_TIMEx_OCN_Stop_IT:tmpccer <- 0
	@DEBUG_VALUE: HAL_TIMEx_OCN_Stop_IT:Channel <- $r1
	@DEBUG_VALUE: HAL_TIMEx_OCN_Stop_IT:htim <- $r4
	.loc	7 634 3 prologue_end    @ ../Drivers/STM32F1xx_HAL_Driver/Src/stm32f1xx_hal_tim_ex.c:634:3
	ror.w	r0, r1, #2
	cmp	r0, #3
	bhi	.LBB14_2
.Ltmp91:
@ %bb.1:
	@DEBUG_VALUE: HAL_TIMEx_OCN_Stop_IT:htim <- $r4
	@DEBUG_VALUE: HAL_TIMEx_OCN_Stop_IT:Channel <- $r1
	adr	r2, .LCPI14_0
	ldr.w	r0, [r2, r0, lsl #2]
	ldr	r2, [r4]
	ldr	r3, [r2, #12]
	ands	r0, r3
	str	r0, [r2, #12]
.Ltmp92:
.LBB14_2:
	@DEBUG_VALUE: HAL_TIMEx_OCN_Stop_IT:htim <- $r4
	@DEBUG_VALUE: HAL_TIMEx_OCN_Stop_IT:Channel <- $r1
	.loc	7 669 28                @ ../Drivers/STM32F1xx_HAL_Driver/Src/stm32f1xx_hal_tim_ex.c:669:28
	ldr	r0, [r4]
	.loc	7 669 3 is_stmt 0       @ ../Drivers/STM32F1xx_HAL_Driver/Src/stm32f1xx_hal_tim_ex.c:669:3
	movs	r2, #0
	bl	TIM_CCxNChannelCmd
.Ltmp93:
	.loc	7 672 19 is_stmt 1      @ ../Drivers/STM32F1xx_HAL_Driver/Src/stm32f1xx_hal_tim_ex.c:672:19
	ldr	r0, [r4]
	.loc	7 672 29 is_stmt 0      @ ../Drivers/STM32F1xx_HAL_Driver/Src/stm32f1xx_hal_tim_ex.c:672:29
	ldr	r1, [r0, #32]
.Ltmp94:
	@DEBUG_VALUE: HAL_TIMEx_OCN_Stop_IT:tmpccer <- $r1
	.loc	7 673 16 is_stmt 1      @ ../Drivers/STM32F1xx_HAL_Driver/Src/stm32f1xx_hal_tim_ex.c:673:16
	movw	r2, #1092
.Ltmp95:
	.loc	7 673 7 is_stmt 0       @ ../Drivers/STM32F1xx_HAL_Driver/Src/stm32f1xx_hal_tim_ex.c:673:7
	tst	r1, r2
	bne	.LBB14_4
.Ltmp96:
@ %bb.3:
	@DEBUG_VALUE: HAL_TIMEx_OCN_Stop_IT:tmpccer <- $r1
	@DEBUG_VALUE: HAL_TIMEx_OCN_Stop_IT:htim <- $r4
	.loc	7 675 5 is_stmt 1       @ ../Drivers/STM32F1xx_HAL_Driver/Src/stm32f1xx_hal_tim_ex.c:675:5
	ldr	r1, [r0, #12]
.Ltmp97:
	bic	r1, r1, #128
	str	r1, [r0, #12]
.Ltmp98:
.LBB14_4:
	@DEBUG_VALUE: HAL_TIMEx_OCN_Stop_IT:htim <- $r4
	.loc	7 679 3                 @ ../Drivers/STM32F1xx_HAL_Driver/Src/stm32f1xx_hal_tim_ex.c:679:3
	ldr	r2, [r0, #32]
	movw	r1, #4369
.Ltmp99:
	.loc	7 679 3 is_stmt 0       @ ../Drivers/STM32F1xx_HAL_Driver/Src/stm32f1xx_hal_tim_ex.c:679:3
	tst	r2, r1
	bne	.LBB14_7
.Ltmp100:
@ %bb.5:
	@DEBUG_VALUE: HAL_TIMEx_OCN_Stop_IT:htim <- $r4
	.loc	7 679 3                 @ ../Drivers/STM32F1xx_HAL_Driver/Src/stm32f1xx_hal_tim_ex.c:679:3
	ldr	r2, [r0, #32]
	movw	r3, #1092
.Ltmp101:
	.loc	7 679 3                 @ ../Drivers/STM32F1xx_HAL_Driver/Src/stm32f1xx_hal_tim_ex.c:679:3
	tst	r2, r3
	bne	.LBB14_7
.Ltmp102:
@ %bb.6:
	@DEBUG_VALUE: HAL_TIMEx_OCN_Stop_IT:htim <- $r4
	.loc	7 679 3                 @ ../Drivers/STM32F1xx_HAL_Driver/Src/stm32f1xx_hal_tim_ex.c:679:3
	ldr	r2, [r0, #68]
	bic	r2, r2, #32768
	str	r2, [r0, #68]
.Ltmp103:
.LBB14_7:
	@DEBUG_VALUE: HAL_TIMEx_OCN_Stop_IT:htim <- $r4
	.loc	7 682 3 is_stmt 1       @ ../Drivers/STM32F1xx_HAL_Driver/Src/stm32f1xx_hal_tim_ex.c:682:3
	ldr	r2, [r0, #32]
.Ltmp104:
	.loc	7 682 3 is_stmt 0       @ ../Drivers/STM32F1xx_HAL_Driver/Src/stm32f1xx_hal_tim_ex.c:682:3
	tst	r2, r1
	bne	.LBB14_9
.Ltmp105:
@ %bb.8:
	@DEBUG_VALUE: HAL_TIMEx_OCN_Stop_IT:htim <- $r4
	.loc	7 682 3                 @ ../Drivers/STM32F1xx_HAL_Driver/Src/stm32f1xx_hal_tim_ex.c:682:3
	ldr	r1, [r0, #32]
	movw	r2, #1092
.Ltmp106:
	.loc	7 682 3                 @ ../Drivers/STM32F1xx_HAL_Driver/Src/stm32f1xx_hal_tim_ex.c:682:3
	tst	r1, r2
	beq	.LBB14_10
.Ltmp107:
.LBB14_9:
	@DEBUG_VALUE: HAL_TIMEx_OCN_Stop_IT:htim <- $r4
	.loc	7 685 3 is_stmt 1       @ ../Drivers/STM32F1xx_HAL_Driver/Src/stm32f1xx_hal_tim_ex.c:685:3
	movs	r0, #0
	pop	{r4, pc}
.Ltmp108:
.LBB14_10:
	@DEBUG_VALUE: HAL_TIMEx_OCN_Stop_IT:htim <- $r4
	.loc	7 682 3                 @ ../Drivers/STM32F1xx_HAL_Driver/Src/stm32f1xx_hal_tim_ex.c:682:3
	ldr	r1, [r0]
	bic	r1, r1, #1
	str	r1, [r0]
.Ltmp109:
	.loc	7 685 3                 @ ../Drivers/STM32F1xx_HAL_Driver/Src/stm32f1xx_hal_tim_ex.c:685:3
	movs	r0, #0
	pop	{r4, pc}
.Ltmp110:
	.p2align	2
@ %bb.11:
	.loc	7 0 3 is_stmt 0         @ ../Drivers/STM32F1xx_HAL_Driver/Src/stm32f1xx_hal_tim_ex.c:0:3
.LCPI14_0:
.Lswitch.table.HAL_TIMEx_OCN_Stop_IT:
	.long	4294967293              @ 0xfffffffd
	.long	4294967291              @ 0xfffffffb
	.long	4294967287              @ 0xfffffff7
	.long	4294967279              @ 0xffffffef
.Lfunc_end14:
	.size	HAL_TIMEx_OCN_Stop_IT, .Lfunc_end14-HAL_TIMEx_OCN_Stop_IT
	.cfi_endproc
	.cantunwind
	.fnend
                                        @ -- End function
	.section	.text.HAL_TIMEx_OCN_Start_DMA,"ax",%progbits
	.hidden	HAL_TIMEx_OCN_Start_DMA @ -- Begin function HAL_TIMEx_OCN_Start_DMA
	.globl	HAL_TIMEx_OCN_Start_DMA
	.p2align	2
	.type	HAL_TIMEx_OCN_Start_DMA,%function
	.code	16                      @ @HAL_TIMEx_OCN_Start_DMA
	.thumb_func
HAL_TIMEx_OCN_Start_DMA:
.Lfunc_begin15:
	.loc	7 703 0 is_stmt 1       @ ../Drivers/STM32F1xx_HAL_Driver/Src/stm32f1xx_hal_tim_ex.c:703:0
	.fnstart
	.cfi_startproc
@ %bb.0:
	.save	{r4, r5, r7, lr}
	push	{r4, r5, r7, lr}
	.cfi_def_cfa_offset 16
	.cfi_offset lr, -4
	.cfi_offset r7, -8
	.cfi_offset r5, -12
	.cfi_offset r4, -16
	@DEBUG_VALUE: HAL_TIMEx_OCN_Start_DMA:htim <- $r0
	@DEBUG_VALUE: HAL_TIMEx_OCN_Start_DMA:Channel <- $r1
	@DEBUG_VALUE: HAL_TIMEx_OCN_Start_DMA:pData <- $r2
	@DEBUG_VALUE: HAL_TIMEx_OCN_Start_DMA:Length <- $r3
	mov	r5, r1
	mov	r4, r0
	@DEBUG_VALUE: HAL_TIMEx_OCN_Start_DMA:Length <- $r3
	@DEBUG_VALUE: HAL_TIMEx_OCN_Start_DMA:pData <- $r2
.Ltmp111:
	@DEBUG_VALUE: HAL_TIMEx_OCN_Start_DMA:Channel <- $r5
	@DEBUG_VALUE: HAL_TIMEx_OCN_Start_DMA:htim <- $r4
	.loc	7 707 13 prologue_end   @ ../Drivers/STM32F1xx_HAL_Driver/Src/stm32f1xx_hal_tim_ex.c:707:13
	ldr	r0, [r0, #64]
.Ltmp112:
	.loc	7 707 6 is_stmt 0       @ ../Drivers/STM32F1xx_HAL_Driver/Src/stm32f1xx_hal_tim_ex.c:707:6
	cmp	r0, #2
	itt	eq
	moveq	r0, #2
	.loc	7 803 1 is_stmt 1       @ ../Drivers/STM32F1xx_HAL_Driver/Src/stm32f1xx_hal_tim_ex.c:803:1
	popeq	{r4, r5, r7, pc}
.Ltmp113:
	.loc	7 711 18                @ ../Drivers/STM32F1xx_HAL_Driver/Src/stm32f1xx_hal_tim_ex.c:711:18
	ldr	r0, [r4, #64]
.Ltmp114:
	.loc	7 711 11 is_stmt 0      @ ../Drivers/STM32F1xx_HAL_Driver/Src/stm32f1xx_hal_tim_ex.c:711:11
	cmp	r0, #1
	bne	.LBB15_4
.Ltmp115:
@ %bb.1:
	@DEBUG_VALUE: HAL_TIMEx_OCN_Start_DMA:Length <- $r3
	@DEBUG_VALUE: HAL_TIMEx_OCN_Start_DMA:pData <- $r2
	.loc	7 713 32 is_stmt 1      @ ../Drivers/STM32F1xx_HAL_Driver/Src/stm32f1xx_hal_tim_ex.c:713:32
	cbnz	r2, .LBB15_3
.Ltmp116:
@ %bb.2:
	@DEBUG_VALUE: HAL_TIMEx_OCN_Start_DMA:Length <- $r3
	@DEBUG_VALUE: HAL_TIMEx_OCN_Start_DMA:pData <- $r2
	cmp	r3, #0
	itt	ne
	movne	r0, #1
.Ltmp117:
	.loc	7 803 1                 @ ../Drivers/STM32F1xx_HAL_Driver/Src/stm32f1xx_hal_tim_ex.c:803:1
	popne	{r4, r5, r7, pc}
.Ltmp118:
.LBB15_3:
	@DEBUG_VALUE: HAL_TIMEx_OCN_Start_DMA:Length <- $r3
	@DEBUG_VALUE: HAL_TIMEx_OCN_Start_DMA:pData <- $r2
	.loc	7 719 19                @ ../Drivers/STM32F1xx_HAL_Driver/Src/stm32f1xx_hal_tim_ex.c:719:19
	movs	r0, #2
	str	r0, [r4, #64]
.Ltmp119:
.LBB15_4:
	@DEBUG_VALUE: HAL_TIMEx_OCN_Start_DMA:Length <- $r3
	@DEBUG_VALUE: HAL_TIMEx_OCN_Start_DMA:pData <- $r2
	.loc	7 722 3                 @ ../Drivers/STM32F1xx_HAL_Driver/Src/stm32f1xx_hal_tim_ex.c:722:3
	ror.w	r0, r5, #2
	cmp	r0, #3
	bhi	.LBB15_12
.Ltmp120:
@ %bb.5:
	@DEBUG_VALUE: HAL_TIMEx_OCN_Start_DMA:Length <- $r3
	@DEBUG_VALUE: HAL_TIMEx_OCN_Start_DMA:pData <- $r2
	@DEBUG_VALUE: HAL_TIMEx_OCN_Start_DMA:Length <- $r3
	.loc	7 0 3 is_stmt 0         @ ../Drivers/STM32F1xx_HAL_Driver/Src/stm32f1xx_hal_tim_ex.c:0:3
.LCPI15_0:
	tbb	[pc, r0]
.Ltmp121:
@ %bb.6:
.LJTI15_0:
	.byte	(.LBB15_7-(.LCPI15_0+4))/2
	.byte	(.LBB15_8-(.LCPI15_0+4))/2
	.byte	(.LBB15_9-(.LCPI15_0+4))/2
	.byte	(.LBB15_10-(.LCPI15_0+4))/2
	.p2align	1
.LBB15_7:
.Ltmp122:
	@DEBUG_VALUE: HAL_TIMEx_OCN_Start_DMA:Length <- $r3
	@DEBUG_VALUE: HAL_TIMEx_OCN_Start_DMA:pData <- $r2
	.loc	7 727 7 is_stmt 1       @ ../Drivers/STM32F1xx_HAL_Driver/Src/stm32f1xx_hal_tim_ex.c:727:7
	ldr	r0, [r4, #36]
	.loc	7 727 52 is_stmt 0      @ ../Drivers/STM32F1xx_HAL_Driver/Src/stm32f1xx_hal_tim_ex.c:727:52
	movw	r1, :lower16:TIM_DMADelayPulseCplt
	movt	r1, :upper16:TIM_DMADelayPulseCplt
	str	r1, [r0, #44]
	.loc	7 730 7 is_stmt 1       @ ../Drivers/STM32F1xx_HAL_Driver/Src/stm32f1xx_hal_tim_ex.c:730:7
	ldr	r0, [r4, #36]
	.loc	7 730 53 is_stmt 0      @ ../Drivers/STM32F1xx_HAL_Driver/Src/stm32f1xx_hal_tim_ex.c:730:53
	movw	r1, :lower16:TIM_DMAError
	movt	r1, :upper16:TIM_DMAError
	str	r1, [r0, #52]
	.loc	7 733 86 is_stmt 1      @ ../Drivers/STM32F1xx_HAL_Driver/Src/stm32f1xx_hal_tim_ex.c:733:86
	ldr	r1, [r4]
	.loc	7 733 24 is_stmt 0      @ ../Drivers/STM32F1xx_HAL_Driver/Src/stm32f1xx_hal_tim_ex.c:733:24
	ldr	r0, [r4, #36]
	.loc	7 733 96                @ ../Drivers/STM32F1xx_HAL_Driver/Src/stm32f1xx_hal_tim_ex.c:733:96
	add.w	r12, r1, #52
	.loc	7 733 7                 @ ../Drivers/STM32F1xx_HAL_Driver/Src/stm32f1xx_hal_tim_ex.c:733:7
	mov	r1, r2
	mov	r2, r12
.Ltmp123:
	bl	HAL_DMA_Start_IT
.Ltmp124:
	.loc	7 0 7                   @ ../Drivers/STM32F1xx_HAL_Driver/Src/stm32f1xx_hal_tim_ex.c:0:7
	mov.w	r0, #512
	b	.LBB15_11
.Ltmp125:
.LBB15_8:
	@DEBUG_VALUE: HAL_TIMEx_OCN_Start_DMA:Length <- $r3
	@DEBUG_VALUE: HAL_TIMEx_OCN_Start_DMA:pData <- $r2
	.loc	7 743 7 is_stmt 1       @ ../Drivers/STM32F1xx_HAL_Driver/Src/stm32f1xx_hal_tim_ex.c:743:7
	ldr	r0, [r4, #40]
	.loc	7 743 52 is_stmt 0      @ ../Drivers/STM32F1xx_HAL_Driver/Src/stm32f1xx_hal_tim_ex.c:743:52
	movw	r1, :lower16:TIM_DMADelayPulseCplt
	movt	r1, :upper16:TIM_DMADelayPulseCplt
	str	r1, [r0, #44]
	.loc	7 746 7 is_stmt 1       @ ../Drivers/STM32F1xx_HAL_Driver/Src/stm32f1xx_hal_tim_ex.c:746:7
	ldr	r0, [r4, #40]
	.loc	7 746 53 is_stmt 0      @ ../Drivers/STM32F1xx_HAL_Driver/Src/stm32f1xx_hal_tim_ex.c:746:53
	movw	r1, :lower16:TIM_DMAError
	movt	r1, :upper16:TIM_DMAError
	str	r1, [r0, #52]
	.loc	7 749 86 is_stmt 1      @ ../Drivers/STM32F1xx_HAL_Driver/Src/stm32f1xx_hal_tim_ex.c:749:86
	ldr	r1, [r4]
	.loc	7 749 24 is_stmt 0      @ ../Drivers/STM32F1xx_HAL_Driver/Src/stm32f1xx_hal_tim_ex.c:749:24
	ldr	r0, [r4, #40]
	.loc	7 749 96                @ ../Drivers/STM32F1xx_HAL_Driver/Src/stm32f1xx_hal_tim_ex.c:749:96
	add.w	r12, r1, #56
	.loc	7 749 7                 @ ../Drivers/STM32F1xx_HAL_Driver/Src/stm32f1xx_hal_tim_ex.c:749:7
	mov	r1, r2
	mov	r2, r12
.Ltmp126:
	bl	HAL_DMA_Start_IT
.Ltmp127:
	.loc	7 0 7                   @ ../Drivers/STM32F1xx_HAL_Driver/Src/stm32f1xx_hal_tim_ex.c:0:7
	mov.w	r0, #1024
	b	.LBB15_11
.Ltmp128:
.LBB15_9:
	@DEBUG_VALUE: HAL_TIMEx_OCN_Start_DMA:Length <- $r3
	@DEBUG_VALUE: HAL_TIMEx_OCN_Start_DMA:pData <- $r2
	.loc	7 759 7 is_stmt 1       @ ../Drivers/STM32F1xx_HAL_Driver/Src/stm32f1xx_hal_tim_ex.c:759:7
	ldr	r0, [r4, #44]
	.loc	7 759 52 is_stmt 0      @ ../Drivers/STM32F1xx_HAL_Driver/Src/stm32f1xx_hal_tim_ex.c:759:52
	movw	r1, :lower16:TIM_DMADelayPulseCplt
	movt	r1, :upper16:TIM_DMADelayPulseCplt
	str	r1, [r0, #44]
	.loc	7 762 7 is_stmt 1       @ ../Drivers/STM32F1xx_HAL_Driver/Src/stm32f1xx_hal_tim_ex.c:762:7
	ldr	r0, [r4, #44]
	.loc	7 762 53 is_stmt 0      @ ../Drivers/STM32F1xx_HAL_Driver/Src/stm32f1xx_hal_tim_ex.c:762:53
	movw	r1, :lower16:TIM_DMAError
	movt	r1, :upper16:TIM_DMAError
	str	r1, [r0, #52]
	.loc	7 765 86 is_stmt 1      @ ../Drivers/STM32F1xx_HAL_Driver/Src/stm32f1xx_hal_tim_ex.c:765:86
	ldr	r1, [r4]
	.loc	7 765 24 is_stmt 0      @ ../Drivers/STM32F1xx_HAL_Driver/Src/stm32f1xx_hal_tim_ex.c:765:24
	ldr	r0, [r4, #44]
	.loc	7 765 96                @ ../Drivers/STM32F1xx_HAL_Driver/Src/stm32f1xx_hal_tim_ex.c:765:96
	add.w	r12, r1, #60
	.loc	7 765 7                 @ ../Drivers/STM32F1xx_HAL_Driver/Src/stm32f1xx_hal_tim_ex.c:765:7
	mov	r1, r2
	mov	r2, r12
.Ltmp129:
	bl	HAL_DMA_Start_IT
.Ltmp130:
	.loc	7 0 7                   @ ../Drivers/STM32F1xx_HAL_Driver/Src/stm32f1xx_hal_tim_ex.c:0:7
	mov.w	r0, #2048
	b	.LBB15_11
.Ltmp131:
.LBB15_10:
	@DEBUG_VALUE: HAL_TIMEx_OCN_Start_DMA:Length <- $r3
	@DEBUG_VALUE: HAL_TIMEx_OCN_Start_DMA:pData <- $r2
	.loc	7 775 7 is_stmt 1       @ ../Drivers/STM32F1xx_HAL_Driver/Src/stm32f1xx_hal_tim_ex.c:775:7
	ldr	r0, [r4, #48]
	.loc	7 775 52 is_stmt 0      @ ../Drivers/STM32F1xx_HAL_Driver/Src/stm32f1xx_hal_tim_ex.c:775:52
	movw	r1, :lower16:TIM_DMADelayPulseCplt
	movt	r1, :upper16:TIM_DMADelayPulseCplt
	str	r1, [r0, #44]
	.loc	7 778 7 is_stmt 1       @ ../Drivers/STM32F1xx_HAL_Driver/Src/stm32f1xx_hal_tim_ex.c:778:7
	ldr	r0, [r4, #48]
	.loc	7 778 53 is_stmt 0      @ ../Drivers/STM32F1xx_HAL_Driver/Src/stm32f1xx_hal_tim_ex.c:778:53
	movw	r1, :lower16:TIM_DMAError
	movt	r1, :upper16:TIM_DMAError
	str	r1, [r0, #52]
	.loc	7 781 86 is_stmt 1      @ ../Drivers/STM32F1xx_HAL_Driver/Src/stm32f1xx_hal_tim_ex.c:781:86
	ldr	r1, [r4]
	.loc	7 781 24 is_stmt 0      @ ../Drivers/STM32F1xx_HAL_Driver/Src/stm32f1xx_hal_tim_ex.c:781:24
	ldr	r0, [r4, #48]
	.loc	7 781 96                @ ../Drivers/STM32F1xx_HAL_Driver/Src/stm32f1xx_hal_tim_ex.c:781:96
	add.w	r12, r1, #64
	.loc	7 781 7                 @ ../Drivers/STM32F1xx_HAL_Driver/Src/stm32f1xx_hal_tim_ex.c:781:7
	mov	r1, r2
	mov	r2, r12
.Ltmp132:
	bl	HAL_DMA_Start_IT
.Ltmp133:
	.loc	7 0 7                   @ ../Drivers/STM32F1xx_HAL_Driver/Src/stm32f1xx_hal_tim_ex.c:0:7
	mov.w	r0, #4096
.Ltmp134:
.LBB15_11:
	ldr	r1, [r4]
	ldr	r2, [r1, #12]
	orrs	r0, r2
	str	r0, [r1, #12]
.LBB15_12:
	.loc	7 793 28 is_stmt 1      @ ../Drivers/STM32F1xx_HAL_Driver/Src/stm32f1xx_hal_tim_ex.c:793:28
	ldr	r0, [r4]
	.loc	7 793 3 is_stmt 0       @ ../Drivers/STM32F1xx_HAL_Driver/Src/stm32f1xx_hal_tim_ex.c:793:3
	mov	r1, r5
	movs	r2, #4
	bl	TIM_CCxNChannelCmd
	.loc	7 796 3 is_stmt 1       @ ../Drivers/STM32F1xx_HAL_Driver/Src/stm32f1xx_hal_tim_ex.c:796:3
	ldr	r0, [r4]
	ldr	r1, [r0, #68]
	orr	r1, r1, #32768
	str	r1, [r0, #68]
	.loc	7 799 3                 @ ../Drivers/STM32F1xx_HAL_Driver/Src/stm32f1xx_hal_tim_ex.c:799:3
	ldr	r1, [r0]
	orr	r1, r1, #1
	str	r1, [r0]
	movs	r0, #0
	.loc	7 803 1                 @ ../Drivers/STM32F1xx_HAL_Driver/Src/stm32f1xx_hal_tim_ex.c:803:1
	pop	{r4, r5, r7, pc}
.Ltmp135:
.Lfunc_end15:
	.size	HAL_TIMEx_OCN_Start_DMA, .Lfunc_end15-HAL_TIMEx_OCN_Start_DMA
	.cfi_endproc
	.cantunwind
	.fnend
                                        @ -- End function
	.section	.text.HAL_TIMEx_OCN_Stop_DMA,"ax",%progbits
	.hidden	HAL_TIMEx_OCN_Stop_DMA  @ -- Begin function HAL_TIMEx_OCN_Stop_DMA
	.globl	HAL_TIMEx_OCN_Stop_DMA
	.p2align	2
	.type	HAL_TIMEx_OCN_Stop_DMA,%function
	.code	16                      @ @HAL_TIMEx_OCN_Stop_DMA
	.thumb_func
HAL_TIMEx_OCN_Stop_DMA:
.Lfunc_begin16:
	.loc	7 818 0                 @ ../Drivers/STM32F1xx_HAL_Driver/Src/stm32f1xx_hal_tim_ex.c:818:0
	.fnstart
	.cfi_startproc
@ %bb.0:
	.save	{r4, lr}
	push	{r4, lr}
	.cfi_def_cfa_offset 8
	.cfi_offset lr, -4
	.cfi_offset r4, -8
	@DEBUG_VALUE: HAL_TIMEx_OCN_Stop_DMA:htim <- $r0
	@DEBUG_VALUE: HAL_TIMEx_OCN_Stop_DMA:Channel <- $r1
	mov	r4, r0
	@DEBUG_VALUE: HAL_TIMEx_OCN_Stop_DMA:Channel <- $r1
.Ltmp136:
	@DEBUG_VALUE: HAL_TIMEx_OCN_Stop_DMA:htim <- $r4
	.loc	7 822 3 prologue_end    @ ../Drivers/STM32F1xx_HAL_Driver/Src/stm32f1xx_hal_tim_ex.c:822:3
	ror.w	r0, r1, #2
	cmp	r0, #3
	bhi	.LBB16_2
.Ltmp137:
@ %bb.1:
	@DEBUG_VALUE: HAL_TIMEx_OCN_Stop_DMA:htim <- $r4
	@DEBUG_VALUE: HAL_TIMEx_OCN_Stop_DMA:Channel <- $r1
	adr	r2, .LCPI16_0
	ldr.w	r0, [r2, r0, lsl #2]
	ldr	r2, [r4]
	ldr	r3, [r2, #12]
	ands	r0, r3
	str	r0, [r2, #12]
.Ltmp138:
.LBB16_2:
	@DEBUG_VALUE: HAL_TIMEx_OCN_Stop_DMA:htim <- $r4
	@DEBUG_VALUE: HAL_TIMEx_OCN_Stop_DMA:Channel <- $r1
	.loc	7 857 28                @ ../Drivers/STM32F1xx_HAL_Driver/Src/stm32f1xx_hal_tim_ex.c:857:28
	ldr	r0, [r4]
	.loc	7 857 3 is_stmt 0       @ ../Drivers/STM32F1xx_HAL_Driver/Src/stm32f1xx_hal_tim_ex.c:857:3
	movs	r2, #0
	bl	TIM_CCxNChannelCmd
.Ltmp139:
	.loc	7 860 3 is_stmt 1       @ ../Drivers/STM32F1xx_HAL_Driver/Src/stm32f1xx_hal_tim_ex.c:860:3
	ldr	r0, [r4]
	ldr	r2, [r0, #32]
	movw	r1, #4369
.Ltmp140:
	.loc	7 860 3 is_stmt 0       @ ../Drivers/STM32F1xx_HAL_Driver/Src/stm32f1xx_hal_tim_ex.c:860:3
	tst	r2, r1
	bne	.LBB16_5
.Ltmp141:
@ %bb.3:
	@DEBUG_VALUE: HAL_TIMEx_OCN_Stop_DMA:htim <- $r4
	.loc	7 860 3                 @ ../Drivers/STM32F1xx_HAL_Driver/Src/stm32f1xx_hal_tim_ex.c:860:3
	ldr	r2, [r0, #32]
	movw	r3, #1092
.Ltmp142:
	.loc	7 860 3                 @ ../Drivers/STM32F1xx_HAL_Driver/Src/stm32f1xx_hal_tim_ex.c:860:3
	tst	r2, r3
	bne	.LBB16_5
.Ltmp143:
@ %bb.4:
	@DEBUG_VALUE: HAL_TIMEx_OCN_Stop_DMA:htim <- $r4
	.loc	7 860 3                 @ ../Drivers/STM32F1xx_HAL_Driver/Src/stm32f1xx_hal_tim_ex.c:860:3
	ldr	r2, [r0, #68]
	bic	r2, r2, #32768
	str	r2, [r0, #68]
.Ltmp144:
.LBB16_5:
	@DEBUG_VALUE: HAL_TIMEx_OCN_Stop_DMA:htim <- $r4
	.loc	7 863 3 is_stmt 1       @ ../Drivers/STM32F1xx_HAL_Driver/Src/stm32f1xx_hal_tim_ex.c:863:3
	ldr	r2, [r0, #32]
.Ltmp145:
	.loc	7 863 3 is_stmt 0       @ ../Drivers/STM32F1xx_HAL_Driver/Src/stm32f1xx_hal_tim_ex.c:863:3
	tst	r2, r1
	bne	.LBB16_8
.Ltmp146:
@ %bb.6:
	@DEBUG_VALUE: HAL_TIMEx_OCN_Stop_DMA:htim <- $r4
	.loc	7 863 3                 @ ../Drivers/STM32F1xx_HAL_Driver/Src/stm32f1xx_hal_tim_ex.c:863:3
	ldr	r1, [r0, #32]
	movw	r2, #1092
.Ltmp147:
	.loc	7 863 3                 @ ../Drivers/STM32F1xx_HAL_Driver/Src/stm32f1xx_hal_tim_ex.c:863:3
	tst	r1, r2
	bne	.LBB16_8
.Ltmp148:
@ %bb.7:
	@DEBUG_VALUE: HAL_TIMEx_OCN_Stop_DMA:htim <- $r4
	.loc	7 863 3                 @ ../Drivers/STM32F1xx_HAL_Driver/Src/stm32f1xx_hal_tim_ex.c:863:3
	ldr	r1, [r0]
	bic	r1, r1, #1
	str	r1, [r0]
.Ltmp149:
.LBB16_8:
	@DEBUG_VALUE: HAL_TIMEx_OCN_Stop_DMA:htim <- $r4
	.loc	7 866 15 is_stmt 1      @ ../Drivers/STM32F1xx_HAL_Driver/Src/stm32f1xx_hal_tim_ex.c:866:15
	movs	r0, #1
	str	r0, [r4, #64]
	.loc	7 869 3                 @ ../Drivers/STM32F1xx_HAL_Driver/Src/stm32f1xx_hal_tim_ex.c:869:3
	movs	r0, #0
	pop	{r4, pc}
.Ltmp150:
	.p2align	2
@ %bb.9:
	.loc	7 0 3 is_stmt 0         @ ../Drivers/STM32F1xx_HAL_Driver/Src/stm32f1xx_hal_tim_ex.c:0:3
.LCPI16_0:
.Lswitch.table.HAL_TIMEx_OCN_Stop_DMA:
	.long	4294966783              @ 0xfffffdff
	.long	4294966271              @ 0xfffffbff
	.long	4294965247              @ 0xfffff7ff
	.long	4294963199              @ 0xffffefff
.Lfunc_end16:
	.size	HAL_TIMEx_OCN_Stop_DMA, .Lfunc_end16-HAL_TIMEx_OCN_Stop_DMA
	.cfi_endproc
	.cantunwind
	.fnend
                                        @ -- End function
	.section	.text.HAL_TIMEx_PWMN_Start,"ax",%progbits
	.hidden	HAL_TIMEx_PWMN_Start    @ -- Begin function HAL_TIMEx_PWMN_Start
	.globl	HAL_TIMEx_PWMN_Start
	.p2align	2
	.type	HAL_TIMEx_PWMN_Start,%function
	.code	16                      @ @HAL_TIMEx_PWMN_Start
	.thumb_func
HAL_TIMEx_PWMN_Start:
.Lfunc_begin17:
	.loc	7 918 0 is_stmt 1       @ ../Drivers/STM32F1xx_HAL_Driver/Src/stm32f1xx_hal_tim_ex.c:918:0
	.fnstart
	.cfi_startproc
@ %bb.0:
	.save	{r4, lr}
	push	{r4, lr}
	.cfi_def_cfa_offset 8
	.cfi_offset lr, -4
	.cfi_offset r4, -8
	@DEBUG_VALUE: HAL_TIMEx_PWMN_Start:htim <- $r0
	@DEBUG_VALUE: HAL_TIMEx_PWMN_Start:Channel <- $r1
	mov	r4, r0
	@DEBUG_VALUE: HAL_TIMEx_PWMN_Start:Channel <- $r1
.Ltmp151:
	@DEBUG_VALUE: HAL_TIMEx_PWMN_Start:htim <- $r4
	.loc	7 923 28 prologue_end   @ ../Drivers/STM32F1xx_HAL_Driver/Src/stm32f1xx_hal_tim_ex.c:923:28
	ldr	r0, [r0]
	@DEBUG_VALUE: HAL_TIMEx_PWMN_Start:Channel <- $r1
	.loc	7 923 3 is_stmt 0       @ ../Drivers/STM32F1xx_HAL_Driver/Src/stm32f1xx_hal_tim_ex.c:923:3
	movs	r2, #4
	bl	TIM_CCxNChannelCmd
.Ltmp152:
	.loc	7 926 3 is_stmt 1       @ ../Drivers/STM32F1xx_HAL_Driver/Src/stm32f1xx_hal_tim_ex.c:926:3
	ldr	r0, [r4]
	ldr	r1, [r0, #68]
	orr	r1, r1, #32768
	str	r1, [r0, #68]
	.loc	7 929 3                 @ ../Drivers/STM32F1xx_HAL_Driver/Src/stm32f1xx_hal_tim_ex.c:929:3
	ldr	r1, [r0]
	orr	r1, r1, #1
	str	r1, [r0]
	.loc	7 932 3                 @ ../Drivers/STM32F1xx_HAL_Driver/Src/stm32f1xx_hal_tim_ex.c:932:3
	movs	r0, #0
	pop	{r4, pc}
.Ltmp153:
.Lfunc_end17:
	.size	HAL_TIMEx_PWMN_Start, .Lfunc_end17-HAL_TIMEx_PWMN_Start
	.cfi_endproc
	.cantunwind
	.fnend
                                        @ -- End function
	.section	.text.HAL_TIMEx_PWMN_Stop,"ax",%progbits
	.hidden	HAL_TIMEx_PWMN_Stop     @ -- Begin function HAL_TIMEx_PWMN_Stop
	.globl	HAL_TIMEx_PWMN_Stop
	.p2align	2
	.type	HAL_TIMEx_PWMN_Stop,%function
	.code	16                      @ @HAL_TIMEx_PWMN_Stop
	.thumb_func
HAL_TIMEx_PWMN_Stop:
.Lfunc_begin18:
	.loc	7 947 0                 @ ../Drivers/STM32F1xx_HAL_Driver/Src/stm32f1xx_hal_tim_ex.c:947:0
	.fnstart
	.cfi_startproc
@ %bb.0:
	.save	{r4, lr}
	push	{r4, lr}
	.cfi_def_cfa_offset 8
	.cfi_offset lr, -4
	.cfi_offset r4, -8
	@DEBUG_VALUE: HAL_TIMEx_PWMN_Stop:htim <- $r0
	@DEBUG_VALUE: HAL_TIMEx_PWMN_Stop:Channel <- $r1
	mov	r4, r0
	@DEBUG_VALUE: HAL_TIMEx_PWMN_Stop:Channel <- $r1
.Ltmp154:
	@DEBUG_VALUE: HAL_TIMEx_PWMN_Stop:htim <- $r4
	.loc	7 952 28 prologue_end   @ ../Drivers/STM32F1xx_HAL_Driver/Src/stm32f1xx_hal_tim_ex.c:952:28
	ldr	r0, [r0]
	@DEBUG_VALUE: HAL_TIMEx_PWMN_Stop:Channel <- $r1
	.loc	7 952 3 is_stmt 0       @ ../Drivers/STM32F1xx_HAL_Driver/Src/stm32f1xx_hal_tim_ex.c:952:3
	movs	r2, #0
	bl	TIM_CCxNChannelCmd
.Ltmp155:
	.loc	7 955 3 is_stmt 1       @ ../Drivers/STM32F1xx_HAL_Driver/Src/stm32f1xx_hal_tim_ex.c:955:3
	ldr	r0, [r4]
	ldr	r2, [r0, #32]
	movw	r1, #4369
.Ltmp156:
	.loc	7 955 3 is_stmt 0       @ ../Drivers/STM32F1xx_HAL_Driver/Src/stm32f1xx_hal_tim_ex.c:955:3
	tst	r2, r1
	bne	.LBB18_3
.Ltmp157:
@ %bb.1:
	@DEBUG_VALUE: HAL_TIMEx_PWMN_Stop:htim <- $r4
	.loc	7 955 3                 @ ../Drivers/STM32F1xx_HAL_Driver/Src/stm32f1xx_hal_tim_ex.c:955:3
	ldr	r2, [r0, #32]
	movw	r3, #1092
.Ltmp158:
	.loc	7 955 3                 @ ../Drivers/STM32F1xx_HAL_Driver/Src/stm32f1xx_hal_tim_ex.c:955:3
	tst	r2, r3
	bne	.LBB18_3
.Ltmp159:
@ %bb.2:
	@DEBUG_VALUE: HAL_TIMEx_PWMN_Stop:htim <- $r4
	.loc	7 955 3                 @ ../Drivers/STM32F1xx_HAL_Driver/Src/stm32f1xx_hal_tim_ex.c:955:3
	ldr	r2, [r0, #68]
	bic	r2, r2, #32768
	str	r2, [r0, #68]
.Ltmp160:
.LBB18_3:
	@DEBUG_VALUE: HAL_TIMEx_PWMN_Stop:htim <- $r4
	.loc	7 958 3 is_stmt 1       @ ../Drivers/STM32F1xx_HAL_Driver/Src/stm32f1xx_hal_tim_ex.c:958:3
	ldr	r2, [r0, #32]
.Ltmp161:
	.loc	7 958 3 is_stmt 0       @ ../Drivers/STM32F1xx_HAL_Driver/Src/stm32f1xx_hal_tim_ex.c:958:3
	tst	r2, r1
	bne	.LBB18_5
.Ltmp162:
@ %bb.4:
	@DEBUG_VALUE: HAL_TIMEx_PWMN_Stop:htim <- $r4
	.loc	7 958 3                 @ ../Drivers/STM32F1xx_HAL_Driver/Src/stm32f1xx_hal_tim_ex.c:958:3
	ldr	r1, [r0, #32]
	movw	r2, #1092
.Ltmp163:
	.loc	7 958 3                 @ ../Drivers/STM32F1xx_HAL_Driver/Src/stm32f1xx_hal_tim_ex.c:958:3
	tst	r1, r2
	beq	.LBB18_6
.Ltmp164:
.LBB18_5:
	@DEBUG_VALUE: HAL_TIMEx_PWMN_Stop:htim <- $r4
	.loc	7 961 3 is_stmt 1       @ ../Drivers/STM32F1xx_HAL_Driver/Src/stm32f1xx_hal_tim_ex.c:961:3
	movs	r0, #0
	pop	{r4, pc}
.Ltmp165:
.LBB18_6:
	@DEBUG_VALUE: HAL_TIMEx_PWMN_Stop:htim <- $r4
	.loc	7 958 3                 @ ../Drivers/STM32F1xx_HAL_Driver/Src/stm32f1xx_hal_tim_ex.c:958:3
	ldr	r1, [r0]
	bic	r1, r1, #1
	str	r1, [r0]
.Ltmp166:
	.loc	7 961 3                 @ ../Drivers/STM32F1xx_HAL_Driver/Src/stm32f1xx_hal_tim_ex.c:961:3
	movs	r0, #0
	pop	{r4, pc}
.Ltmp167:
.Lfunc_end18:
	.size	HAL_TIMEx_PWMN_Stop, .Lfunc_end18-HAL_TIMEx_PWMN_Stop
	.cfi_endproc
	.cantunwind
	.fnend
                                        @ -- End function
	.section	.text.HAL_TIMEx_PWMN_Start_IT,"ax",%progbits
	.hidden	HAL_TIMEx_PWMN_Start_IT @ -- Begin function HAL_TIMEx_PWMN_Start_IT
	.globl	HAL_TIMEx_PWMN_Start_IT
	.p2align	2
	.type	HAL_TIMEx_PWMN_Start_IT,%function
	.code	16                      @ @HAL_TIMEx_PWMN_Start_IT
	.thumb_func
HAL_TIMEx_PWMN_Start_IT:
.Lfunc_begin19:
	.loc	7 977 0                 @ ../Drivers/STM32F1xx_HAL_Driver/Src/stm32f1xx_hal_tim_ex.c:977:0
	.fnstart
	.cfi_startproc
@ %bb.0:
	.save	{r4, lr}
	push	{r4, lr}
	.cfi_def_cfa_offset 8
	.cfi_offset lr, -4
	.cfi_offset r4, -8
	@DEBUG_VALUE: HAL_TIMEx_PWMN_Start_IT:htim <- $r0
	@DEBUG_VALUE: HAL_TIMEx_PWMN_Start_IT:Channel <- $r1
	mov	r4, r0
	@DEBUG_VALUE: HAL_TIMEx_PWMN_Start_IT:Channel <- $r1
.Ltmp168:
	@DEBUG_VALUE: HAL_TIMEx_PWMN_Start_IT:htim <- $r4
	.loc	7 981 3 prologue_end    @ ../Drivers/STM32F1xx_HAL_Driver/Src/stm32f1xx_hal_tim_ex.c:981:3
	ror.w	r0, r1, #2
	cmp	r0, #3
	bhi	.LBB19_2
.Ltmp169:
@ %bb.1:
	@DEBUG_VALUE: HAL_TIMEx_PWMN_Start_IT:htim <- $r4
	@DEBUG_VALUE: HAL_TIMEx_PWMN_Start_IT:Channel <- $r1
	adr	r2, .LCPI19_0
	ldr.w	r0, [r2, r0, lsl #2]
	ldr	r2, [r4]
	ldr	r3, [r2, #12]
	orrs	r0, r3
	str	r0, [r2, #12]
.Ltmp170:
.LBB19_2:
	@DEBUG_VALUE: HAL_TIMEx_PWMN_Start_IT:htim <- $r4
	@DEBUG_VALUE: HAL_TIMEx_PWMN_Start_IT:Channel <- $r1
	.loc	7 1016 3                @ ../Drivers/STM32F1xx_HAL_Driver/Src/stm32f1xx_hal_tim_ex.c:1016:3
	ldr	r0, [r4]
	ldr	r2, [r0, #12]
	orr	r2, r2, #128
	str	r2, [r0, #12]
	.loc	7 1019 3                @ ../Drivers/STM32F1xx_HAL_Driver/Src/stm32f1xx_hal_tim_ex.c:1019:3
	movs	r2, #4
	bl	TIM_CCxNChannelCmd
.Ltmp171:
	.loc	7 1022 3                @ ../Drivers/STM32F1xx_HAL_Driver/Src/stm32f1xx_hal_tim_ex.c:1022:3
	ldr	r0, [r4]
	ldr	r1, [r0, #68]
	orr	r1, r1, #32768
	str	r1, [r0, #68]
	.loc	7 1025 3                @ ../Drivers/STM32F1xx_HAL_Driver/Src/stm32f1xx_hal_tim_ex.c:1025:3
	ldr	r1, [r0]
	orr	r1, r1, #1
	str	r1, [r0]
	.loc	7 1028 3                @ ../Drivers/STM32F1xx_HAL_Driver/Src/stm32f1xx_hal_tim_ex.c:1028:3
	movs	r0, #0
	pop	{r4, pc}
.Ltmp172:
	.p2align	2
@ %bb.3:
	.loc	7 0 3 is_stmt 0         @ ../Drivers/STM32F1xx_HAL_Driver/Src/stm32f1xx_hal_tim_ex.c:0:3
.LCPI19_0:
.Lswitch.table.HAL_TIMEx_PWMN_Start_IT:
	.long	2                       @ 0x2
	.long	4                       @ 0x4
	.long	8                       @ 0x8
	.long	16                      @ 0x10
.Lfunc_end19:
	.size	HAL_TIMEx_PWMN_Start_IT, .Lfunc_end19-HAL_TIMEx_PWMN_Start_IT
	.cfi_endproc
	.cantunwind
	.fnend
                                        @ -- End function
	.section	.text.HAL_TIMEx_PWMN_Stop_IT,"ax",%progbits
	.hidden	HAL_TIMEx_PWMN_Stop_IT  @ -- Begin function HAL_TIMEx_PWMN_Stop_IT
	.globl	HAL_TIMEx_PWMN_Stop_IT
	.p2align	2
	.type	HAL_TIMEx_PWMN_Stop_IT,%function
	.code	16                      @ @HAL_TIMEx_PWMN_Stop_IT
	.thumb_func
HAL_TIMEx_PWMN_Stop_IT:
.Lfunc_begin20:
	.loc	7 1044 0 is_stmt 1      @ ../Drivers/STM32F1xx_HAL_Driver/Src/stm32f1xx_hal_tim_ex.c:1044:0
	.fnstart
	.cfi_startproc
@ %bb.0:
	.save	{r4, lr}
	push	{r4, lr}
	.cfi_def_cfa_offset 8
	.cfi_offset lr, -4
	.cfi_offset r4, -8
	@DEBUG_VALUE: HAL_TIMEx_PWMN_Stop_IT:htim <- $r0
	@DEBUG_VALUE: HAL_TIMEx_PWMN_Stop_IT:Channel <- $r1
	mov	r4, r0
.Ltmp173:
	@DEBUG_VALUE: HAL_TIMEx_PWMN_Stop_IT:tmpccer <- 0
	@DEBUG_VALUE: HAL_TIMEx_PWMN_Stop_IT:Channel <- $r1
	@DEBUG_VALUE: HAL_TIMEx_PWMN_Stop_IT:htim <- $r4
	.loc	7 1050 3 prologue_end   @ ../Drivers/STM32F1xx_HAL_Driver/Src/stm32f1xx_hal_tim_ex.c:1050:3
	ror.w	r0, r1, #2
	cmp	r0, #3
	bhi	.LBB20_2
.Ltmp174:
@ %bb.1:
	@DEBUG_VALUE: HAL_TIMEx_PWMN_Stop_IT:htim <- $r4
	@DEBUG_VALUE: HAL_TIMEx_PWMN_Stop_IT:Channel <- $r1
	adr	r2, .LCPI20_0
	ldr.w	r0, [r2, r0, lsl #2]
	ldr	r2, [r4]
	ldr	r3, [r2, #12]
	ands	r0, r3
	str	r0, [r2, #12]
.Ltmp175:
.LBB20_2:
	@DEBUG_VALUE: HAL_TIMEx_PWMN_Stop_IT:htim <- $r4
	@DEBUG_VALUE: HAL_TIMEx_PWMN_Stop_IT:Channel <- $r1
	.loc	7 1085 28               @ ../Drivers/STM32F1xx_HAL_Driver/Src/stm32f1xx_hal_tim_ex.c:1085:28
	ldr	r0, [r4]
	.loc	7 1085 3 is_stmt 0      @ ../Drivers/STM32F1xx_HAL_Driver/Src/stm32f1xx_hal_tim_ex.c:1085:3
	movs	r2, #0
	bl	TIM_CCxNChannelCmd
.Ltmp176:
	.loc	7 1088 19 is_stmt 1     @ ../Drivers/STM32F1xx_HAL_Driver/Src/stm32f1xx_hal_tim_ex.c:1088:19
	ldr	r0, [r4]
	.loc	7 1088 29 is_stmt 0     @ ../Drivers/STM32F1xx_HAL_Driver/Src/stm32f1xx_hal_tim_ex.c:1088:29
	ldr	r1, [r0, #32]
.Ltmp177:
	@DEBUG_VALUE: HAL_TIMEx_PWMN_Stop_IT:tmpccer <- $r1
	.loc	7 1089 16 is_stmt 1     @ ../Drivers/STM32F1xx_HAL_Driver/Src/stm32f1xx_hal_tim_ex.c:1089:16
	movw	r2, #1092
.Ltmp178:
	.loc	7 1089 7 is_stmt 0      @ ../Drivers/STM32F1xx_HAL_Driver/Src/stm32f1xx_hal_tim_ex.c:1089:7
	tst	r1, r2
	bne	.LBB20_4
.Ltmp179:
@ %bb.3:
	@DEBUG_VALUE: HAL_TIMEx_PWMN_Stop_IT:tmpccer <- $r1
	@DEBUG_VALUE: HAL_TIMEx_PWMN_Stop_IT:htim <- $r4
	.loc	7 1091 5 is_stmt 1      @ ../Drivers/STM32F1xx_HAL_Driver/Src/stm32f1xx_hal_tim_ex.c:1091:5
	ldr	r1, [r0, #12]
.Ltmp180:
	bic	r1, r1, #128
	str	r1, [r0, #12]
.Ltmp181:
.LBB20_4:
	@DEBUG_VALUE: HAL_TIMEx_PWMN_Stop_IT:htim <- $r4
	.loc	7 1095 3                @ ../Drivers/STM32F1xx_HAL_Driver/Src/stm32f1xx_hal_tim_ex.c:1095:3
	ldr	r2, [r0, #32]
	movw	r1, #4369
.Ltmp182:
	.loc	7 1095 3 is_stmt 0      @ ../Drivers/STM32F1xx_HAL_Driver/Src/stm32f1xx_hal_tim_ex.c:1095:3
	tst	r2, r1
	bne	.LBB20_7
.Ltmp183:
@ %bb.5:
	@DEBUG_VALUE: HAL_TIMEx_PWMN_Stop_IT:htim <- $r4
	.loc	7 1095 3                @ ../Drivers/STM32F1xx_HAL_Driver/Src/stm32f1xx_hal_tim_ex.c:1095:3
	ldr	r2, [r0, #32]
	movw	r3, #1092
.Ltmp184:
	.loc	7 1095 3                @ ../Drivers/STM32F1xx_HAL_Driver/Src/stm32f1xx_hal_tim_ex.c:1095:3
	tst	r2, r3
	bne	.LBB20_7
.Ltmp185:
@ %bb.6:
	@DEBUG_VALUE: HAL_TIMEx_PWMN_Stop_IT:htim <- $r4
	.loc	7 1095 3                @ ../Drivers/STM32F1xx_HAL_Driver/Src/stm32f1xx_hal_tim_ex.c:1095:3
	ldr	r2, [r0, #68]
	bic	r2, r2, #32768
	str	r2, [r0, #68]
.Ltmp186:
.LBB20_7:
	@DEBUG_VALUE: HAL_TIMEx_PWMN_Stop_IT:htim <- $r4
	.loc	7 1098 3 is_stmt 1      @ ../Drivers/STM32F1xx_HAL_Driver/Src/stm32f1xx_hal_tim_ex.c:1098:3
	ldr	r2, [r0, #32]
.Ltmp187:
	.loc	7 1098 3 is_stmt 0      @ ../Drivers/STM32F1xx_HAL_Driver/Src/stm32f1xx_hal_tim_ex.c:1098:3
	tst	r2, r1
	bne	.LBB20_9
.Ltmp188:
@ %bb.8:
	@DEBUG_VALUE: HAL_TIMEx_PWMN_Stop_IT:htim <- $r4
	.loc	7 1098 3                @ ../Drivers/STM32F1xx_HAL_Driver/Src/stm32f1xx_hal_tim_ex.c:1098:3
	ldr	r1, [r0, #32]
	movw	r2, #1092
.Ltmp189:
	.loc	7 1098 3                @ ../Drivers/STM32F1xx_HAL_Driver/Src/stm32f1xx_hal_tim_ex.c:1098:3
	tst	r1, r2
	beq	.LBB20_10
.Ltmp190:
.LBB20_9:
	@DEBUG_VALUE: HAL_TIMEx_PWMN_Stop_IT:htim <- $r4
	.loc	7 1101 3 is_stmt 1      @ ../Drivers/STM32F1xx_HAL_Driver/Src/stm32f1xx_hal_tim_ex.c:1101:3
	movs	r0, #0
	pop	{r4, pc}
.Ltmp191:
.LBB20_10:
	@DEBUG_VALUE: HAL_TIMEx_PWMN_Stop_IT:htim <- $r4
	.loc	7 1098 3                @ ../Drivers/STM32F1xx_HAL_Driver/Src/stm32f1xx_hal_tim_ex.c:1098:3
	ldr	r1, [r0]
	bic	r1, r1, #1
	str	r1, [r0]
.Ltmp192:
	.loc	7 1101 3                @ ../Drivers/STM32F1xx_HAL_Driver/Src/stm32f1xx_hal_tim_ex.c:1101:3
	movs	r0, #0
	pop	{r4, pc}
.Ltmp193:
	.p2align	2
@ %bb.11:
	.loc	7 0 3 is_stmt 0         @ ../Drivers/STM32F1xx_HAL_Driver/Src/stm32f1xx_hal_tim_ex.c:0:3
.LCPI20_0:
.Lswitch.table.HAL_TIMEx_PWMN_Stop_IT:
	.long	4294967293              @ 0xfffffffd
	.long	4294967291              @ 0xfffffffb
	.long	4294967287              @ 0xfffffff7
	.long	4294967279              @ 0xffffffef
.Lfunc_end20:
	.size	HAL_TIMEx_PWMN_Stop_IT, .Lfunc_end20-HAL_TIMEx_PWMN_Stop_IT
	.cfi_endproc
	.cantunwind
	.fnend
                                        @ -- End function
	.section	.text.HAL_TIMEx_PWMN_Start_DMA,"ax",%progbits
	.hidden	HAL_TIMEx_PWMN_Start_DMA @ -- Begin function HAL_TIMEx_PWMN_Start_DMA
	.globl	HAL_TIMEx_PWMN_Start_DMA
	.p2align	2
	.type	HAL_TIMEx_PWMN_Start_DMA,%function
	.code	16                      @ @HAL_TIMEx_PWMN_Start_DMA
	.thumb_func
HAL_TIMEx_PWMN_Start_DMA:
.Lfunc_begin21:
	.loc	7 1119 0 is_stmt 1      @ ../Drivers/STM32F1xx_HAL_Driver/Src/stm32f1xx_hal_tim_ex.c:1119:0
	.fnstart
	.cfi_startproc
@ %bb.0:
	.save	{r4, r5, r7, lr}
	push	{r4, r5, r7, lr}
	.cfi_def_cfa_offset 16
	.cfi_offset lr, -4
	.cfi_offset r7, -8
	.cfi_offset r5, -12
	.cfi_offset r4, -16
	@DEBUG_VALUE: HAL_TIMEx_PWMN_Start_DMA:htim <- $r0
	@DEBUG_VALUE: HAL_TIMEx_PWMN_Start_DMA:Channel <- $r1
	@DEBUG_VALUE: HAL_TIMEx_PWMN_Start_DMA:pData <- $r2
	@DEBUG_VALUE: HAL_TIMEx_PWMN_Start_DMA:Length <- $r3
	mov	r5, r1
	mov	r4, r0
	@DEBUG_VALUE: HAL_TIMEx_PWMN_Start_DMA:Length <- $r3
	@DEBUG_VALUE: HAL_TIMEx_PWMN_Start_DMA:pData <- $r2
.Ltmp194:
	@DEBUG_VALUE: HAL_TIMEx_PWMN_Start_DMA:Channel <- $r5
	@DEBUG_VALUE: HAL_TIMEx_PWMN_Start_DMA:htim <- $r4
	.loc	7 1123 13 prologue_end  @ ../Drivers/STM32F1xx_HAL_Driver/Src/stm32f1xx_hal_tim_ex.c:1123:13
	ldr	r0, [r0, #64]
.Ltmp195:
	.loc	7 1123 6 is_stmt 0      @ ../Drivers/STM32F1xx_HAL_Driver/Src/stm32f1xx_hal_tim_ex.c:1123:6
	cmp	r0, #2
	itt	eq
	moveq	r0, #2
	.loc	7 1219 1 is_stmt 1      @ ../Drivers/STM32F1xx_HAL_Driver/Src/stm32f1xx_hal_tim_ex.c:1219:1
	popeq	{r4, r5, r7, pc}
.Ltmp196:
	.loc	7 1127 18               @ ../Drivers/STM32F1xx_HAL_Driver/Src/stm32f1xx_hal_tim_ex.c:1127:18
	ldr	r0, [r4, #64]
.Ltmp197:
	.loc	7 1127 11 is_stmt 0     @ ../Drivers/STM32F1xx_HAL_Driver/Src/stm32f1xx_hal_tim_ex.c:1127:11
	cmp	r0, #1
	bne	.LBB21_4
.Ltmp198:
@ %bb.1:
	@DEBUG_VALUE: HAL_TIMEx_PWMN_Start_DMA:Length <- $r3
	@DEBUG_VALUE: HAL_TIMEx_PWMN_Start_DMA:pData <- $r2
	.loc	7 1129 32 is_stmt 1     @ ../Drivers/STM32F1xx_HAL_Driver/Src/stm32f1xx_hal_tim_ex.c:1129:32
	cbnz	r2, .LBB21_3
.Ltmp199:
@ %bb.2:
	@DEBUG_VALUE: HAL_TIMEx_PWMN_Start_DMA:Length <- $r3
	@DEBUG_VALUE: HAL_TIMEx_PWMN_Start_DMA:pData <- $r2
	cmp	r3, #0
	itt	ne
	movne	r0, #1
.Ltmp200:
	.loc	7 1219 1                @ ../Drivers/STM32F1xx_HAL_Driver/Src/stm32f1xx_hal_tim_ex.c:1219:1
	popne	{r4, r5, r7, pc}
.Ltmp201:
.LBB21_3:
	@DEBUG_VALUE: HAL_TIMEx_PWMN_Start_DMA:Length <- $r3
	@DEBUG_VALUE: HAL_TIMEx_PWMN_Start_DMA:pData <- $r2
	.loc	7 1135 19               @ ../Drivers/STM32F1xx_HAL_Driver/Src/stm32f1xx_hal_tim_ex.c:1135:19
	movs	r0, #2
	str	r0, [r4, #64]
.Ltmp202:
.LBB21_4:
	@DEBUG_VALUE: HAL_TIMEx_PWMN_Start_DMA:Length <- $r3
	@DEBUG_VALUE: HAL_TIMEx_PWMN_Start_DMA:pData <- $r2
	.loc	7 1138 3                @ ../Drivers/STM32F1xx_HAL_Driver/Src/stm32f1xx_hal_tim_ex.c:1138:3
	ror.w	r0, r5, #2
	cmp	r0, #3
	bhi	.LBB21_12
.Ltmp203:
@ %bb.5:
	@DEBUG_VALUE: HAL_TIMEx_PWMN_Start_DMA:Length <- $r3
	@DEBUG_VALUE: HAL_TIMEx_PWMN_Start_DMA:pData <- $r2
	@DEBUG_VALUE: HAL_TIMEx_PWMN_Start_DMA:Length <- $r3
	.loc	7 0 3 is_stmt 0         @ ../Drivers/STM32F1xx_HAL_Driver/Src/stm32f1xx_hal_tim_ex.c:0:3
.LCPI21_0:
	tbb	[pc, r0]
.Ltmp204:
@ %bb.6:
.LJTI21_0:
	.byte	(.LBB21_7-(.LCPI21_0+4))/2
	.byte	(.LBB21_8-(.LCPI21_0+4))/2
	.byte	(.LBB21_9-(.LCPI21_0+4))/2
	.byte	(.LBB21_10-(.LCPI21_0+4))/2
	.p2align	1
.LBB21_7:
.Ltmp205:
	@DEBUG_VALUE: HAL_TIMEx_PWMN_Start_DMA:Length <- $r3
	@DEBUG_VALUE: HAL_TIMEx_PWMN_Start_DMA:pData <- $r2
	.loc	7 1143 7 is_stmt 1      @ ../Drivers/STM32F1xx_HAL_Driver/Src/stm32f1xx_hal_tim_ex.c:1143:7
	ldr	r0, [r4, #36]
	.loc	7 1143 52 is_stmt 0     @ ../Drivers/STM32F1xx_HAL_Driver/Src/stm32f1xx_hal_tim_ex.c:1143:52
	movw	r1, :lower16:TIM_DMADelayPulseCplt
	movt	r1, :upper16:TIM_DMADelayPulseCplt
	str	r1, [r0, #44]
	.loc	7 1146 7 is_stmt 1      @ ../Drivers/STM32F1xx_HAL_Driver/Src/stm32f1xx_hal_tim_ex.c:1146:7
	ldr	r0, [r4, #36]
	.loc	7 1146 53 is_stmt 0     @ ../Drivers/STM32F1xx_HAL_Driver/Src/stm32f1xx_hal_tim_ex.c:1146:53
	movw	r1, :lower16:TIM_DMAError
	movt	r1, :upper16:TIM_DMAError
	str	r1, [r0, #52]
	.loc	7 1149 86 is_stmt 1     @ ../Drivers/STM32F1xx_HAL_Driver/Src/stm32f1xx_hal_tim_ex.c:1149:86
	ldr	r1, [r4]
	.loc	7 1149 24 is_stmt 0     @ ../Drivers/STM32F1xx_HAL_Driver/Src/stm32f1xx_hal_tim_ex.c:1149:24
	ldr	r0, [r4, #36]
	.loc	7 1149 96               @ ../Drivers/STM32F1xx_HAL_Driver/Src/stm32f1xx_hal_tim_ex.c:1149:96
	add.w	r12, r1, #52
	.loc	7 1149 7                @ ../Drivers/STM32F1xx_HAL_Driver/Src/stm32f1xx_hal_tim_ex.c:1149:7
	mov	r1, r2
	mov	r2, r12
.Ltmp206:
	bl	HAL_DMA_Start_IT
.Ltmp207:
	.loc	7 0 7                   @ ../Drivers/STM32F1xx_HAL_Driver/Src/stm32f1xx_hal_tim_ex.c:0:7
	mov.w	r0, #512
	b	.LBB21_11
.Ltmp208:
.LBB21_8:
	@DEBUG_VALUE: HAL_TIMEx_PWMN_Start_DMA:Length <- $r3
	@DEBUG_VALUE: HAL_TIMEx_PWMN_Start_DMA:pData <- $r2
	.loc	7 1159 7 is_stmt 1      @ ../Drivers/STM32F1xx_HAL_Driver/Src/stm32f1xx_hal_tim_ex.c:1159:7
	ldr	r0, [r4, #40]
	.loc	7 1159 52 is_stmt 0     @ ../Drivers/STM32F1xx_HAL_Driver/Src/stm32f1xx_hal_tim_ex.c:1159:52
	movw	r1, :lower16:TIM_DMADelayPulseCplt
	movt	r1, :upper16:TIM_DMADelayPulseCplt
	str	r1, [r0, #44]
	.loc	7 1162 7 is_stmt 1      @ ../Drivers/STM32F1xx_HAL_Driver/Src/stm32f1xx_hal_tim_ex.c:1162:7
	ldr	r0, [r4, #40]
	.loc	7 1162 53 is_stmt 0     @ ../Drivers/STM32F1xx_HAL_Driver/Src/stm32f1xx_hal_tim_ex.c:1162:53
	movw	r1, :lower16:TIM_DMAError
	movt	r1, :upper16:TIM_DMAError
	str	r1, [r0, #52]
	.loc	7 1165 86 is_stmt 1     @ ../Drivers/STM32F1xx_HAL_Driver/Src/stm32f1xx_hal_tim_ex.c:1165:86
	ldr	r1, [r4]
	.loc	7 1165 24 is_stmt 0     @ ../Drivers/STM32F1xx_HAL_Driver/Src/stm32f1xx_hal_tim_ex.c:1165:24
	ldr	r0, [r4, #40]
	.loc	7 1165 96               @ ../Drivers/STM32F1xx_HAL_Driver/Src/stm32f1xx_hal_tim_ex.c:1165:96
	add.w	r12, r1, #56
	.loc	7 1165 7                @ ../Drivers/STM32F1xx_HAL_Driver/Src/stm32f1xx_hal_tim_ex.c:1165:7
	mov	r1, r2
	mov	r2, r12
.Ltmp209:
	bl	HAL_DMA_Start_IT
.Ltmp210:
	.loc	7 0 7                   @ ../Drivers/STM32F1xx_HAL_Driver/Src/stm32f1xx_hal_tim_ex.c:0:7
	mov.w	r0, #1024
	b	.LBB21_11
.Ltmp211:
.LBB21_9:
	@DEBUG_VALUE: HAL_TIMEx_PWMN_Start_DMA:Length <- $r3
	@DEBUG_VALUE: HAL_TIMEx_PWMN_Start_DMA:pData <- $r2
	.loc	7 1175 7 is_stmt 1      @ ../Drivers/STM32F1xx_HAL_Driver/Src/stm32f1xx_hal_tim_ex.c:1175:7
	ldr	r0, [r4, #44]
	.loc	7 1175 52 is_stmt 0     @ ../Drivers/STM32F1xx_HAL_Driver/Src/stm32f1xx_hal_tim_ex.c:1175:52
	movw	r1, :lower16:TIM_DMADelayPulseCplt
	movt	r1, :upper16:TIM_DMADelayPulseCplt
	str	r1, [r0, #44]
	.loc	7 1178 7 is_stmt 1      @ ../Drivers/STM32F1xx_HAL_Driver/Src/stm32f1xx_hal_tim_ex.c:1178:7
	ldr	r0, [r4, #44]
	.loc	7 1178 53 is_stmt 0     @ ../Drivers/STM32F1xx_HAL_Driver/Src/stm32f1xx_hal_tim_ex.c:1178:53
	movw	r1, :lower16:TIM_DMAError
	movt	r1, :upper16:TIM_DMAError
	str	r1, [r0, #52]
	.loc	7 1181 86 is_stmt 1     @ ../Drivers/STM32F1xx_HAL_Driver/Src/stm32f1xx_hal_tim_ex.c:1181:86
	ldr	r1, [r4]
	.loc	7 1181 24 is_stmt 0     @ ../Drivers/STM32F1xx_HAL_Driver/Src/stm32f1xx_hal_tim_ex.c:1181:24
	ldr	r0, [r4, #44]
	.loc	7 1181 96               @ ../Drivers/STM32F1xx_HAL_Driver/Src/stm32f1xx_hal_tim_ex.c:1181:96
	add.w	r12, r1, #60
	.loc	7 1181 7                @ ../Drivers/STM32F1xx_HAL_Driver/Src/stm32f1xx_hal_tim_ex.c:1181:7
	mov	r1, r2
	mov	r2, r12
.Ltmp212:
	bl	HAL_DMA_Start_IT
.Ltmp213:
	.loc	7 0 7                   @ ../Drivers/STM32F1xx_HAL_Driver/Src/stm32f1xx_hal_tim_ex.c:0:7
	mov.w	r0, #2048
	b	.LBB21_11
.Ltmp214:
.LBB21_10:
	@DEBUG_VALUE: HAL_TIMEx_PWMN_Start_DMA:Length <- $r3
	@DEBUG_VALUE: HAL_TIMEx_PWMN_Start_DMA:pData <- $r2
	.loc	7 1191 7 is_stmt 1      @ ../Drivers/STM32F1xx_HAL_Driver/Src/stm32f1xx_hal_tim_ex.c:1191:7
	ldr	r0, [r4, #48]
	.loc	7 1191 52 is_stmt 0     @ ../Drivers/STM32F1xx_HAL_Driver/Src/stm32f1xx_hal_tim_ex.c:1191:52
	movw	r1, :lower16:TIM_DMADelayPulseCplt
	movt	r1, :upper16:TIM_DMADelayPulseCplt
	str	r1, [r0, #44]
	.loc	7 1194 7 is_stmt 1      @ ../Drivers/STM32F1xx_HAL_Driver/Src/stm32f1xx_hal_tim_ex.c:1194:7
	ldr	r0, [r4, #48]
	.loc	7 1194 53 is_stmt 0     @ ../Drivers/STM32F1xx_HAL_Driver/Src/stm32f1xx_hal_tim_ex.c:1194:53
	movw	r1, :lower16:TIM_DMAError
	movt	r1, :upper16:TIM_DMAError
	str	r1, [r0, #52]
	.loc	7 1197 86 is_stmt 1     @ ../Drivers/STM32F1xx_HAL_Driver/Src/stm32f1xx_hal_tim_ex.c:1197:86
	ldr	r1, [r4]
	.loc	7 1197 24 is_stmt 0     @ ../Drivers/STM32F1xx_HAL_Driver/Src/stm32f1xx_hal_tim_ex.c:1197:24
	ldr	r0, [r4, #48]
	.loc	7 1197 96               @ ../Drivers/STM32F1xx_HAL_Driver/Src/stm32f1xx_hal_tim_ex.c:1197:96
	add.w	r12, r1, #64
	.loc	7 1197 7                @ ../Drivers/STM32F1xx_HAL_Driver/Src/stm32f1xx_hal_tim_ex.c:1197:7
	mov	r1, r2
	mov	r2, r12
.Ltmp215:
	bl	HAL_DMA_Start_IT
.Ltmp216:
	.loc	7 0 7                   @ ../Drivers/STM32F1xx_HAL_Driver/Src/stm32f1xx_hal_tim_ex.c:0:7
	mov.w	r0, #4096
.Ltmp217:
.LBB21_11:
	ldr	r1, [r4]
	ldr	r2, [r1, #12]
	orrs	r0, r2
	str	r0, [r1, #12]
.LBB21_12:
	.loc	7 1209 31 is_stmt 1     @ ../Drivers/STM32F1xx_HAL_Driver/Src/stm32f1xx_hal_tim_ex.c:1209:31
	ldr	r0, [r4]
	.loc	7 1209 6 is_stmt 0      @ ../Drivers/STM32F1xx_HAL_Driver/Src/stm32f1xx_hal_tim_ex.c:1209:6
	mov	r1, r5
	movs	r2, #4
	bl	TIM_CCxNChannelCmd
	.loc	7 1212 5 is_stmt 1      @ ../Drivers/STM32F1xx_HAL_Driver/Src/stm32f1xx_hal_tim_ex.c:1212:5
	ldr	r0, [r4]
	ldr	r1, [r0, #68]
	orr	r1, r1, #32768
	str	r1, [r0, #68]
	.loc	7 1215 3                @ ../Drivers/STM32F1xx_HAL_Driver/Src/stm32f1xx_hal_tim_ex.c:1215:3
	ldr	r1, [r0]
	orr	r1, r1, #1
	str	r1, [r0]
	movs	r0, #0
	.loc	7 1219 1                @ ../Drivers/STM32F1xx_HAL_Driver/Src/stm32f1xx_hal_tim_ex.c:1219:1
	pop	{r4, r5, r7, pc}
.Ltmp218:
.Lfunc_end21:
	.size	HAL_TIMEx_PWMN_Start_DMA, .Lfunc_end21-HAL_TIMEx_PWMN_Start_DMA
	.cfi_endproc
	.cantunwind
	.fnend
                                        @ -- End function
	.section	.text.HAL_TIMEx_PWMN_Stop_DMA,"ax",%progbits
	.hidden	HAL_TIMEx_PWMN_Stop_DMA @ -- Begin function HAL_TIMEx_PWMN_Stop_DMA
	.globl	HAL_TIMEx_PWMN_Stop_DMA
	.p2align	2
	.type	HAL_TIMEx_PWMN_Stop_DMA,%function
	.code	16                      @ @HAL_TIMEx_PWMN_Stop_DMA
	.thumb_func
HAL_TIMEx_PWMN_Stop_DMA:
.Lfunc_begin22:
	.loc	7 1234 0                @ ../Drivers/STM32F1xx_HAL_Driver/Src/stm32f1xx_hal_tim_ex.c:1234:0
	.fnstart
	.cfi_startproc
@ %bb.0:
	.save	{r4, lr}
	push	{r4, lr}
	.cfi_def_cfa_offset 8
	.cfi_offset lr, -4
	.cfi_offset r4, -8
	@DEBUG_VALUE: HAL_TIMEx_PWMN_Stop_DMA:htim <- $r0
	@DEBUG_VALUE: HAL_TIMEx_PWMN_Stop_DMA:Channel <- $r1
	mov	r4, r0
	@DEBUG_VALUE: HAL_TIMEx_PWMN_Stop_DMA:Channel <- $r1
.Ltmp219:
	@DEBUG_VALUE: HAL_TIMEx_PWMN_Stop_DMA:htim <- $r4
	.loc	7 1238 3 prologue_end   @ ../Drivers/STM32F1xx_HAL_Driver/Src/stm32f1xx_hal_tim_ex.c:1238:3
	ror.w	r0, r1, #2
	cmp	r0, #3
	bhi	.LBB22_2
.Ltmp220:
@ %bb.1:
	@DEBUG_VALUE: HAL_TIMEx_PWMN_Stop_DMA:htim <- $r4
	@DEBUG_VALUE: HAL_TIMEx_PWMN_Stop_DMA:Channel <- $r1
	adr	r2, .LCPI22_0
	ldr.w	r0, [r2, r0, lsl #2]
	ldr	r2, [r4]
	ldr	r3, [r2, #12]
	ands	r0, r3
	str	r0, [r2, #12]
.Ltmp221:
.LBB22_2:
	@DEBUG_VALUE: HAL_TIMEx_PWMN_Stop_DMA:htim <- $r4
	@DEBUG_VALUE: HAL_TIMEx_PWMN_Stop_DMA:Channel <- $r1
	.loc	7 1273 30               @ ../Drivers/STM32F1xx_HAL_Driver/Src/stm32f1xx_hal_tim_ex.c:1273:30
	ldr	r0, [r4]
	.loc	7 1273 5 is_stmt 0      @ ../Drivers/STM32F1xx_HAL_Driver/Src/stm32f1xx_hal_tim_ex.c:1273:5
	movs	r2, #0
	bl	TIM_CCxNChannelCmd
.Ltmp222:
	.loc	7 1276 5 is_stmt 1      @ ../Drivers/STM32F1xx_HAL_Driver/Src/stm32f1xx_hal_tim_ex.c:1276:5
	ldr	r0, [r4]
	ldr	r2, [r0, #32]
	movw	r1, #4369
.Ltmp223:
	.loc	7 1276 5 is_stmt 0      @ ../Drivers/STM32F1xx_HAL_Driver/Src/stm32f1xx_hal_tim_ex.c:1276:5
	tst	r2, r1
	bne	.LBB22_5
.Ltmp224:
@ %bb.3:
	@DEBUG_VALUE: HAL_TIMEx_PWMN_Stop_DMA:htim <- $r4
	.loc	7 1276 5                @ ../Drivers/STM32F1xx_HAL_Driver/Src/stm32f1xx_hal_tim_ex.c:1276:5
	ldr	r2, [r0, #32]
	movw	r3, #1092
.Ltmp225:
	.loc	7 1276 5                @ ../Drivers/STM32F1xx_HAL_Driver/Src/stm32f1xx_hal_tim_ex.c:1276:5
	tst	r2, r3
	bne	.LBB22_5
.Ltmp226:
@ %bb.4:
	@DEBUG_VALUE: HAL_TIMEx_PWMN_Stop_DMA:htim <- $r4
	.loc	7 1276 5                @ ../Drivers/STM32F1xx_HAL_Driver/Src/stm32f1xx_hal_tim_ex.c:1276:5
	ldr	r2, [r0, #68]
	bic	r2, r2, #32768
	str	r2, [r0, #68]
.Ltmp227:
.LBB22_5:
	@DEBUG_VALUE: HAL_TIMEx_PWMN_Stop_DMA:htim <- $r4
	.loc	7 1279 3 is_stmt 1      @ ../Drivers/STM32F1xx_HAL_Driver/Src/stm32f1xx_hal_tim_ex.c:1279:3
	ldr	r2, [r0, #32]
.Ltmp228:
	.loc	7 1279 3 is_stmt 0      @ ../Drivers/STM32F1xx_HAL_Driver/Src/stm32f1xx_hal_tim_ex.c:1279:3
	tst	r2, r1
	bne	.LBB22_8
.Ltmp229:
@ %bb.6:
	@DEBUG_VALUE: HAL_TIMEx_PWMN_Stop_DMA:htim <- $r4
	.loc	7 1279 3                @ ../Drivers/STM32F1xx_HAL_Driver/Src/stm32f1xx_hal_tim_ex.c:1279:3
	ldr	r1, [r0, #32]
	movw	r2, #1092
.Ltmp230:
	.loc	7 1279 3                @ ../Drivers/STM32F1xx_HAL_Driver/Src/stm32f1xx_hal_tim_ex.c:1279:3
	tst	r1, r2
	bne	.LBB22_8
.Ltmp231:
@ %bb.7:
	@DEBUG_VALUE: HAL_TIMEx_PWMN_Stop_DMA:htim <- $r4
	.loc	7 1279 3                @ ../Drivers/STM32F1xx_HAL_Driver/Src/stm32f1xx_hal_tim_ex.c:1279:3
	ldr	r1, [r0]
	bic	r1, r1, #1
	str	r1, [r0]
.Ltmp232:
.LBB22_8:
	@DEBUG_VALUE: HAL_TIMEx_PWMN_Stop_DMA:htim <- $r4
	.loc	7 1282 15 is_stmt 1     @ ../Drivers/STM32F1xx_HAL_Driver/Src/stm32f1xx_hal_tim_ex.c:1282:15
	movs	r0, #1
	str	r0, [r4, #64]
	.loc	7 1285 3                @ ../Drivers/STM32F1xx_HAL_Driver/Src/stm32f1xx_hal_tim_ex.c:1285:3
	movs	r0, #0
	pop	{r4, pc}
.Ltmp233:
	.p2align	2
@ %bb.9:
	.loc	7 0 3 is_stmt 0         @ ../Drivers/STM32F1xx_HAL_Driver/Src/stm32f1xx_hal_tim_ex.c:0:3
.LCPI22_0:
.Lswitch.table.HAL_TIMEx_PWMN_Stop_DMA:
	.long	4294966783              @ 0xfffffdff
	.long	4294966271              @ 0xfffffbff
	.long	4294965247              @ 0xfffff7ff
	.long	4294963199              @ 0xffffefff
.Lfunc_end22:
	.size	HAL_TIMEx_PWMN_Stop_DMA, .Lfunc_end22-HAL_TIMEx_PWMN_Stop_DMA
	.cfi_endproc
	.cantunwind
	.fnend
                                        @ -- End function
	.section	.text.HAL_TIMEx_OnePulseN_Start,"ax",%progbits
	.hidden	HAL_TIMEx_OnePulseN_Start @ -- Begin function HAL_TIMEx_OnePulseN_Start
	.globl	HAL_TIMEx_OnePulseN_Start
	.p2align	2
	.type	HAL_TIMEx_OnePulseN_Start,%function
	.code	16                      @ @HAL_TIMEx_OnePulseN_Start
	.thumb_func
HAL_TIMEx_OnePulseN_Start:
.Lfunc_begin23:
	.loc	7 1321 0 is_stmt 1      @ ../Drivers/STM32F1xx_HAL_Driver/Src/stm32f1xx_hal_tim_ex.c:1321:0
	.fnstart
	.cfi_startproc
@ %bb.0:
	.save	{r4, lr}
	push	{r4, lr}
	.cfi_def_cfa_offset 8
	.cfi_offset lr, -4
	.cfi_offset r4, -8
	@DEBUG_VALUE: HAL_TIMEx_OnePulseN_Start:htim <- $r0
	@DEBUG_VALUE: HAL_TIMEx_OnePulseN_Start:OutputChannel <- $r1
	mov	r4, r0
	@DEBUG_VALUE: HAL_TIMEx_OnePulseN_Start:OutputChannel <- $r1
.Ltmp234:
	@DEBUG_VALUE: HAL_TIMEx_OnePulseN_Start:htim <- $r4
	.loc	7 1326 28 prologue_end  @ ../Drivers/STM32F1xx_HAL_Driver/Src/stm32f1xx_hal_tim_ex.c:1326:28
	ldr	r0, [r0]
	@DEBUG_VALUE: HAL_TIMEx_OnePulseN_Start:OutputChannel <- $r1
	.loc	7 1326 3 is_stmt 0      @ ../Drivers/STM32F1xx_HAL_Driver/Src/stm32f1xx_hal_tim_ex.c:1326:3
	movs	r2, #4
	bl	TIM_CCxNChannelCmd
.Ltmp235:
	.loc	7 1329 3 is_stmt 1      @ ../Drivers/STM32F1xx_HAL_Driver/Src/stm32f1xx_hal_tim_ex.c:1329:3
	ldr	r0, [r4]
	ldr	r1, [r0, #68]
	orr	r1, r1, #32768
	str	r1, [r0, #68]
	.loc	7 1332 3                @ ../Drivers/STM32F1xx_HAL_Driver/Src/stm32f1xx_hal_tim_ex.c:1332:3
	movs	r0, #0
	pop	{r4, pc}
.Ltmp236:
.Lfunc_end23:
	.size	HAL_TIMEx_OnePulseN_Start, .Lfunc_end23-HAL_TIMEx_OnePulseN_Start
	.cfi_endproc
	.cantunwind
	.fnend
                                        @ -- End function
	.section	.text.HAL_TIMEx_OnePulseN_Stop,"ax",%progbits
	.hidden	HAL_TIMEx_OnePulseN_Stop @ -- Begin function HAL_TIMEx_OnePulseN_Stop
	.globl	HAL_TIMEx_OnePulseN_Stop
	.p2align	2
	.type	HAL_TIMEx_OnePulseN_Stop,%function
	.code	16                      @ @HAL_TIMEx_OnePulseN_Stop
	.thumb_func
HAL_TIMEx_OnePulseN_Stop:
.Lfunc_begin24:
	.loc	7 1346 0                @ ../Drivers/STM32F1xx_HAL_Driver/Src/stm32f1xx_hal_tim_ex.c:1346:0
	.fnstart
	.cfi_startproc
@ %bb.0:
	.save	{r4, lr}
	push	{r4, lr}
	.cfi_def_cfa_offset 8
	.cfi_offset lr, -4
	.cfi_offset r4, -8
	@DEBUG_VALUE: HAL_TIMEx_OnePulseN_Stop:htim <- $r0
	@DEBUG_VALUE: HAL_TIMEx_OnePulseN_Stop:OutputChannel <- $r1
	mov	r4, r0
	@DEBUG_VALUE: HAL_TIMEx_OnePulseN_Stop:OutputChannel <- $r1
.Ltmp237:
	@DEBUG_VALUE: HAL_TIMEx_OnePulseN_Stop:htim <- $r4
	.loc	7 1352 28 prologue_end  @ ../Drivers/STM32F1xx_HAL_Driver/Src/stm32f1xx_hal_tim_ex.c:1352:28
	ldr	r0, [r0]
	@DEBUG_VALUE: HAL_TIMEx_OnePulseN_Stop:OutputChannel <- $r1
	.loc	7 1352 3 is_stmt 0      @ ../Drivers/STM32F1xx_HAL_Driver/Src/stm32f1xx_hal_tim_ex.c:1352:3
	movs	r2, #0
	bl	TIM_CCxNChannelCmd
.Ltmp238:
	.loc	7 1355 3 is_stmt 1      @ ../Drivers/STM32F1xx_HAL_Driver/Src/stm32f1xx_hal_tim_ex.c:1355:3
	ldr	r0, [r4]
	ldr	r2, [r0, #32]
	movw	r1, #4369
.Ltmp239:
	.loc	7 1355 3 is_stmt 0      @ ../Drivers/STM32F1xx_HAL_Driver/Src/stm32f1xx_hal_tim_ex.c:1355:3
	tst	r2, r1
	bne	.LBB24_3
.Ltmp240:
@ %bb.1:
	@DEBUG_VALUE: HAL_TIMEx_OnePulseN_Stop:htim <- $r4
	.loc	7 1355 3                @ ../Drivers/STM32F1xx_HAL_Driver/Src/stm32f1xx_hal_tim_ex.c:1355:3
	ldr	r2, [r0, #32]
	movw	r3, #1092
.Ltmp241:
	.loc	7 1355 3                @ ../Drivers/STM32F1xx_HAL_Driver/Src/stm32f1xx_hal_tim_ex.c:1355:3
	tst	r2, r3
	bne	.LBB24_3
.Ltmp242:
@ %bb.2:
	@DEBUG_VALUE: HAL_TIMEx_OnePulseN_Stop:htim <- $r4
	.loc	7 1355 3                @ ../Drivers/STM32F1xx_HAL_Driver/Src/stm32f1xx_hal_tim_ex.c:1355:3
	ldr	r2, [r0, #68]
	bic	r2, r2, #32768
	str	r2, [r0, #68]
.Ltmp243:
.LBB24_3:
	@DEBUG_VALUE: HAL_TIMEx_OnePulseN_Stop:htim <- $r4
	.loc	7 1358 3 is_stmt 1      @ ../Drivers/STM32F1xx_HAL_Driver/Src/stm32f1xx_hal_tim_ex.c:1358:3
	ldr	r2, [r0, #32]
.Ltmp244:
	.loc	7 1358 3 is_stmt 0      @ ../Drivers/STM32F1xx_HAL_Driver/Src/stm32f1xx_hal_tim_ex.c:1358:3
	tst	r2, r1
	bne	.LBB24_5
.Ltmp245:
@ %bb.4:
	@DEBUG_VALUE: HAL_TIMEx_OnePulseN_Stop:htim <- $r4
	.loc	7 1358 3                @ ../Drivers/STM32F1xx_HAL_Driver/Src/stm32f1xx_hal_tim_ex.c:1358:3
	ldr	r1, [r0, #32]
	movw	r2, #1092
.Ltmp246:
	.loc	7 1358 3                @ ../Drivers/STM32F1xx_HAL_Driver/Src/stm32f1xx_hal_tim_ex.c:1358:3
	tst	r1, r2
	beq	.LBB24_6
.Ltmp247:
.LBB24_5:
	@DEBUG_VALUE: HAL_TIMEx_OnePulseN_Stop:htim <- $r4
	.loc	7 1361 3 is_stmt 1      @ ../Drivers/STM32F1xx_HAL_Driver/Src/stm32f1xx_hal_tim_ex.c:1361:3
	movs	r0, #0
	pop	{r4, pc}
.Ltmp248:
.LBB24_6:
	@DEBUG_VALUE: HAL_TIMEx_OnePulseN_Stop:htim <- $r4
	.loc	7 1358 3                @ ../Drivers/STM32F1xx_HAL_Driver/Src/stm32f1xx_hal_tim_ex.c:1358:3
	ldr	r1, [r0]
	bic	r1, r1, #1
	str	r1, [r0]
.Ltmp249:
	.loc	7 1361 3                @ ../Drivers/STM32F1xx_HAL_Driver/Src/stm32f1xx_hal_tim_ex.c:1361:3
	movs	r0, #0
	pop	{r4, pc}
.Ltmp250:
.Lfunc_end24:
	.size	HAL_TIMEx_OnePulseN_Stop, .Lfunc_end24-HAL_TIMEx_OnePulseN_Stop
	.cfi_endproc
	.cantunwind
	.fnend
                                        @ -- End function
	.section	.text.HAL_TIMEx_OnePulseN_Start_IT,"ax",%progbits
	.hidden	HAL_TIMEx_OnePulseN_Start_IT @ -- Begin function HAL_TIMEx_OnePulseN_Start_IT
	.globl	HAL_TIMEx_OnePulseN_Start_IT
	.p2align	2
	.type	HAL_TIMEx_OnePulseN_Start_IT,%function
	.code	16                      @ @HAL_TIMEx_OnePulseN_Start_IT
	.thumb_func
HAL_TIMEx_OnePulseN_Start_IT:
.Lfunc_begin25:
	.loc	7 1375 0                @ ../Drivers/STM32F1xx_HAL_Driver/Src/stm32f1xx_hal_tim_ex.c:1375:0
	.fnstart
	.cfi_startproc
@ %bb.0:
	.save	{r4, lr}
	push	{r4, lr}
	.cfi_def_cfa_offset 8
	.cfi_offset lr, -4
	.cfi_offset r4, -8
	@DEBUG_VALUE: HAL_TIMEx_OnePulseN_Start_IT:htim <- $r0
	@DEBUG_VALUE: HAL_TIMEx_OnePulseN_Start_IT:OutputChannel <- $r1
	mov	r4, r0
	@DEBUG_VALUE: HAL_TIMEx_OnePulseN_Start_IT:OutputChannel <- $r1
.Ltmp251:
	@DEBUG_VALUE: HAL_TIMEx_OnePulseN_Start_IT:htim <- $r4
	.loc	7 1380 3 prologue_end   @ ../Drivers/STM32F1xx_HAL_Driver/Src/stm32f1xx_hal_tim_ex.c:1380:3
	ldr	r0, [r0]
	ldr	r2, [r0, #12]
	orr	r2, r2, #2
	str	r2, [r0, #12]
	.loc	7 1383 3                @ ../Drivers/STM32F1xx_HAL_Driver/Src/stm32f1xx_hal_tim_ex.c:1383:3
	ldr	r2, [r0, #12]
	orr	r2, r2, #4
	str	r2, [r0, #12]
	@DEBUG_VALUE: HAL_TIMEx_OnePulseN_Start_IT:OutputChannel <- $r1
	.loc	7 1386 3                @ ../Drivers/STM32F1xx_HAL_Driver/Src/stm32f1xx_hal_tim_ex.c:1386:3
	movs	r2, #4
	bl	TIM_CCxNChannelCmd
.Ltmp252:
	.loc	7 1389 3                @ ../Drivers/STM32F1xx_HAL_Driver/Src/stm32f1xx_hal_tim_ex.c:1389:3
	ldr	r0, [r4]
	ldr	r1, [r0, #68]
	orr	r1, r1, #32768
	str	r1, [r0, #68]
	.loc	7 1392 3                @ ../Drivers/STM32F1xx_HAL_Driver/Src/stm32f1xx_hal_tim_ex.c:1392:3
	movs	r0, #0
	pop	{r4, pc}
.Ltmp253:
.Lfunc_end25:
	.size	HAL_TIMEx_OnePulseN_Start_IT, .Lfunc_end25-HAL_TIMEx_OnePulseN_Start_IT
	.cfi_endproc
	.cantunwind
	.fnend
                                        @ -- End function
	.section	.text.HAL_TIMEx_OnePulseN_Stop_IT,"ax",%progbits
	.hidden	HAL_TIMEx_OnePulseN_Stop_IT @ -- Begin function HAL_TIMEx_OnePulseN_Stop_IT
	.globl	HAL_TIMEx_OnePulseN_Stop_IT
	.p2align	2
	.type	HAL_TIMEx_OnePulseN_Stop_IT,%function
	.code	16                      @ @HAL_TIMEx_OnePulseN_Stop_IT
	.thumb_func
HAL_TIMEx_OnePulseN_Stop_IT:
.Lfunc_begin26:
	.loc	7 1406 0                @ ../Drivers/STM32F1xx_HAL_Driver/Src/stm32f1xx_hal_tim_ex.c:1406:0
	.fnstart
	.cfi_startproc
@ %bb.0:
	.save	{r4, lr}
	push	{r4, lr}
	.cfi_def_cfa_offset 8
	.cfi_offset lr, -4
	.cfi_offset r4, -8
	@DEBUG_VALUE: HAL_TIMEx_OnePulseN_Stop_IT:htim <- $r0
	@DEBUG_VALUE: HAL_TIMEx_OnePulseN_Stop_IT:OutputChannel <- $r1
	mov	r4, r0
	@DEBUG_VALUE: HAL_TIMEx_OnePulseN_Stop_IT:OutputChannel <- $r1
.Ltmp254:
	@DEBUG_VALUE: HAL_TIMEx_OnePulseN_Stop_IT:htim <- $r4
	.loc	7 1411 3 prologue_end   @ ../Drivers/STM32F1xx_HAL_Driver/Src/stm32f1xx_hal_tim_ex.c:1411:3
	ldr	r0, [r0]
	ldr	r2, [r0, #12]
	bic	r2, r2, #2
	str	r2, [r0, #12]
	.loc	7 1414 3                @ ../Drivers/STM32F1xx_HAL_Driver/Src/stm32f1xx_hal_tim_ex.c:1414:3
	ldr	r2, [r0, #12]
	bic	r2, r2, #4
	str	r2, [r0, #12]
	@DEBUG_VALUE: HAL_TIMEx_OnePulseN_Stop_IT:OutputChannel <- $r1
	.loc	7 1417 3                @ ../Drivers/STM32F1xx_HAL_Driver/Src/stm32f1xx_hal_tim_ex.c:1417:3
	movs	r2, #0
	bl	TIM_CCxNChannelCmd
.Ltmp255:
	.loc	7 1420 3                @ ../Drivers/STM32F1xx_HAL_Driver/Src/stm32f1xx_hal_tim_ex.c:1420:3
	ldr	r0, [r4]
	ldr	r2, [r0, #32]
	movw	r1, #4369
.Ltmp256:
	.loc	7 1420 3 is_stmt 0      @ ../Drivers/STM32F1xx_HAL_Driver/Src/stm32f1xx_hal_tim_ex.c:1420:3
	tst	r2, r1
	bne	.LBB26_3
.Ltmp257:
@ %bb.1:
	@DEBUG_VALUE: HAL_TIMEx_OnePulseN_Stop_IT:htim <- $r4
	.loc	7 1420 3                @ ../Drivers/STM32F1xx_HAL_Driver/Src/stm32f1xx_hal_tim_ex.c:1420:3
	ldr	r2, [r0, #32]
	movw	r3, #1092
.Ltmp258:
	.loc	7 1420 3                @ ../Drivers/STM32F1xx_HAL_Driver/Src/stm32f1xx_hal_tim_ex.c:1420:3
	tst	r2, r3
	bne	.LBB26_3
.Ltmp259:
@ %bb.2:
	@DEBUG_VALUE: HAL_TIMEx_OnePulseN_Stop_IT:htim <- $r4
	.loc	7 1420 3                @ ../Drivers/STM32F1xx_HAL_Driver/Src/stm32f1xx_hal_tim_ex.c:1420:3
	ldr	r2, [r0, #68]
	bic	r2, r2, #32768
	str	r2, [r0, #68]
.Ltmp260:
.LBB26_3:
	@DEBUG_VALUE: HAL_TIMEx_OnePulseN_Stop_IT:htim <- $r4
	.loc	7 1423 4 is_stmt 1      @ ../Drivers/STM32F1xx_HAL_Driver/Src/stm32f1xx_hal_tim_ex.c:1423:4
	ldr	r2, [r0, #32]
.Ltmp261:
	.loc	7 1423 4 is_stmt 0      @ ../Drivers/STM32F1xx_HAL_Driver/Src/stm32f1xx_hal_tim_ex.c:1423:4
	tst	r2, r1
	bne	.LBB26_5
.Ltmp262:
@ %bb.4:
	@DEBUG_VALUE: HAL_TIMEx_OnePulseN_Stop_IT:htim <- $r4
	.loc	7 1423 4                @ ../Drivers/STM32F1xx_HAL_Driver/Src/stm32f1xx_hal_tim_ex.c:1423:4
	ldr	r1, [r0, #32]
	movw	r2, #1092
.Ltmp263:
	.loc	7 1423 4                @ ../Drivers/STM32F1xx_HAL_Driver/Src/stm32f1xx_hal_tim_ex.c:1423:4
	tst	r1, r2
	beq	.LBB26_6
.Ltmp264:
.LBB26_5:
	@DEBUG_VALUE: HAL_TIMEx_OnePulseN_Stop_IT:htim <- $r4
	.loc	7 1426 3 is_stmt 1      @ ../Drivers/STM32F1xx_HAL_Driver/Src/stm32f1xx_hal_tim_ex.c:1426:3
	movs	r0, #0
	pop	{r4, pc}
.Ltmp265:
.LBB26_6:
	@DEBUG_VALUE: HAL_TIMEx_OnePulseN_Stop_IT:htim <- $r4
	.loc	7 1423 4                @ ../Drivers/STM32F1xx_HAL_Driver/Src/stm32f1xx_hal_tim_ex.c:1423:4
	ldr	r1, [r0]
	bic	r1, r1, #1
	str	r1, [r0]
.Ltmp266:
	.loc	7 1426 3                @ ../Drivers/STM32F1xx_HAL_Driver/Src/stm32f1xx_hal_tim_ex.c:1426:3
	movs	r0, #0
	pop	{r4, pc}
.Ltmp267:
.Lfunc_end26:
	.size	HAL_TIMEx_OnePulseN_Stop_IT, .Lfunc_end26-HAL_TIMEx_OnePulseN_Stop_IT
	.cfi_endproc
	.cantunwind
	.fnend
                                        @ -- End function
	.section	.text.HAL_TIMEx_ConfigCommutationEvent,"ax",%progbits
	.hidden	HAL_TIMEx_ConfigCommutationEvent @ -- Begin function HAL_TIMEx_ConfigCommutationEvent
	.globl	HAL_TIMEx_ConfigCommutationEvent
	.p2align	2
	.type	HAL_TIMEx_ConfigCommutationEvent,%function
	.code	16                      @ @HAL_TIMEx_ConfigCommutationEvent
	.thumb_func
HAL_TIMEx_ConfigCommutationEvent:
.Lfunc_begin27:
	.loc	7 1481 0                @ ../Drivers/STM32F1xx_HAL_Driver/Src/stm32f1xx_hal_tim_ex.c:1481:0
	.fnstart
	.cfi_startproc
@ %bb.0:
	@DEBUG_VALUE: HAL_TIMEx_ConfigCommutationEvent:htim <- $r0
	@DEBUG_VALUE: HAL_TIMEx_ConfigCommutationEvent:htim <- $r0
	@DEBUG_VALUE: HAL_TIMEx_ConfigCommutationEvent:InputTrigger <- $r1
	@DEBUG_VALUE: HAL_TIMEx_ConfigCommutationEvent:InputTrigger <- $r1
	@DEBUG_VALUE: HAL_TIMEx_ConfigCommutationEvent:CommutationSource <- $r2
	@DEBUG_VALUE: HAL_TIMEx_ConfigCommutationEvent:CommutationSource <- $r2
	.loc	7 1486 3 prologue_end   @ ../Drivers/STM32F1xx_HAL_Driver/Src/stm32f1xx_hal_tim_ex.c:1486:3
	ldr	r3, [r0, #60]
.Ltmp268:
	.loc	7 1486 3 is_stmt 0      @ ../Drivers/STM32F1xx_HAL_Driver/Src/stm32f1xx_hal_tim_ex.c:1486:3
	cmp	r3, #1
	ittt	eq
	moveq	r1, #2
.Ltmp269:
	.loc	7 1505 1 is_stmt 1      @ ../Drivers/STM32F1xx_HAL_Driver/Src/stm32f1xx_hal_tim_ex.c:1505:1
	moveq	r0, r1
.Ltmp270:
	bxeq	lr
.Ltmp271:
	.loc	7 1486 3                @ ../Drivers/STM32F1xx_HAL_Driver/Src/stm32f1xx_hal_tim_ex.c:1486:3
	movs	r3, #1
	str	r3, [r0, #60]
.Ltmp272:
	.loc	7 1488 37               @ ../Drivers/STM32F1xx_HAL_Driver/Src/stm32f1xx_hal_tim_ex.c:1488:37
	ror.w	r3, r1, #4
	cmp	r3, #3
	bhi	.LBB27_2
.Ltmp273:
@ %bb.1:
	@DEBUG_VALUE: HAL_TIMEx_ConfigCommutationEvent:CommutationSource <- $r2
	.loc	7 1492 11               @ ../Drivers/STM32F1xx_HAL_Driver/Src/stm32f1xx_hal_tim_ex.c:1492:11
	ldr.w	r12, [r0]
	.loc	7 1492 26 is_stmt 0     @ ../Drivers/STM32F1xx_HAL_Driver/Src/stm32f1xx_hal_tim_ex.c:1492:26
	ldr.w	r3, [r12, #8]
	bic	r3, r3, #112
	str.w	r3, [r12, #8]
	.loc	7 1493 26 is_stmt 1     @ ../Drivers/STM32F1xx_HAL_Driver/Src/stm32f1xx_hal_tim_ex.c:1493:26
	ldr.w	r3, [r12, #8]
	orrs	r1, r3
	str.w	r1, [r12, #8]
.Ltmp274:
.LBB27_2:
	@DEBUG_VALUE: HAL_TIMEx_ConfigCommutationEvent:CommutationSource <- $r2
	.loc	7 1497 9                @ ../Drivers/STM32F1xx_HAL_Driver/Src/stm32f1xx_hal_tim_ex.c:1497:9
	ldr	r1, [r0]
	.loc	7 1497 23 is_stmt 0     @ ../Drivers/STM32F1xx_HAL_Driver/Src/stm32f1xx_hal_tim_ex.c:1497:23
	ldr	r3, [r1, #4]
	orr	r3, r3, #1
	str	r3, [r1, #4]
	.loc	7 1499 23 is_stmt 1     @ ../Drivers/STM32F1xx_HAL_Driver/Src/stm32f1xx_hal_tim_ex.c:1499:23
	ldr	r3, [r1, #4]
	bic	r3, r3, #4
	str	r3, [r1, #4]
	.loc	7 1500 23               @ ../Drivers/STM32F1xx_HAL_Driver/Src/stm32f1xx_hal_tim_ex.c:1500:23
	ldr	r3, [r1, #4]
	orrs	r2, r3
.Ltmp275:
	str	r2, [r1, #4]
	movs	r1, #0
.Ltmp276:
	.loc	7 1502 3                @ ../Drivers/STM32F1xx_HAL_Driver/Src/stm32f1xx_hal_tim_ex.c:1502:3
	str	r1, [r0, #60]
.Ltmp277:
	.loc	7 1505 1                @ ../Drivers/STM32F1xx_HAL_Driver/Src/stm32f1xx_hal_tim_ex.c:1505:1
	mov	r0, r1
	bx	lr
.Ltmp278:
.Lfunc_end27:
	.size	HAL_TIMEx_ConfigCommutationEvent, .Lfunc_end27-HAL_TIMEx_ConfigCommutationEvent
	.cfi_endproc
	.cantunwind
	.fnend
                                        @ -- End function
	.section	.text.HAL_TIMEx_ConfigCommutationEvent_IT,"ax",%progbits
	.hidden	HAL_TIMEx_ConfigCommutationEvent_IT @ -- Begin function HAL_TIMEx_ConfigCommutationEvent_IT
	.globl	HAL_TIMEx_ConfigCommutationEvent_IT
	.p2align	2
	.type	HAL_TIMEx_ConfigCommutationEvent_IT,%function
	.code	16                      @ @HAL_TIMEx_ConfigCommutationEvent_IT
	.thumb_func
HAL_TIMEx_ConfigCommutationEvent_IT:
.Lfunc_begin28:
	.loc	7 1530 0                @ ../Drivers/STM32F1xx_HAL_Driver/Src/stm32f1xx_hal_tim_ex.c:1530:0
	.fnstart
	.cfi_startproc
@ %bb.0:
	@DEBUG_VALUE: HAL_TIMEx_ConfigCommutationEvent_IT:htim <- $r0
	@DEBUG_VALUE: HAL_TIMEx_ConfigCommutationEvent_IT:htim <- $r0
	@DEBUG_VALUE: HAL_TIMEx_ConfigCommutationEvent_IT:InputTrigger <- $r1
	@DEBUG_VALUE: HAL_TIMEx_ConfigCommutationEvent_IT:InputTrigger <- $r1
	@DEBUG_VALUE: HAL_TIMEx_ConfigCommutationEvent_IT:CommutationSource <- $r2
	@DEBUG_VALUE: HAL_TIMEx_ConfigCommutationEvent_IT:CommutationSource <- $r2
	.loc	7 1535 3 prologue_end   @ ../Drivers/STM32F1xx_HAL_Driver/Src/stm32f1xx_hal_tim_ex.c:1535:3
	ldr	r3, [r0, #60]
.Ltmp279:
	.loc	7 1535 3 is_stmt 0      @ ../Drivers/STM32F1xx_HAL_Driver/Src/stm32f1xx_hal_tim_ex.c:1535:3
	cmp	r3, #1
	ittt	eq
	moveq	r1, #2
.Ltmp280:
	.loc	7 1557 1 is_stmt 1      @ ../Drivers/STM32F1xx_HAL_Driver/Src/stm32f1xx_hal_tim_ex.c:1557:1
	moveq	r0, r1
.Ltmp281:
	bxeq	lr
.Ltmp282:
	.loc	7 1535 3                @ ../Drivers/STM32F1xx_HAL_Driver/Src/stm32f1xx_hal_tim_ex.c:1535:3
	movs	r3, #1
	str	r3, [r0, #60]
.Ltmp283:
	.loc	7 1537 37               @ ../Drivers/STM32F1xx_HAL_Driver/Src/stm32f1xx_hal_tim_ex.c:1537:37
	ror.w	r3, r1, #4
	cmp	r3, #3
	bhi	.LBB28_2
.Ltmp284:
@ %bb.1:
	@DEBUG_VALUE: HAL_TIMEx_ConfigCommutationEvent_IT:CommutationSource <- $r2
	.loc	7 1541 11               @ ../Drivers/STM32F1xx_HAL_Driver/Src/stm32f1xx_hal_tim_ex.c:1541:11
	ldr.w	r12, [r0]
	.loc	7 1541 26 is_stmt 0     @ ../Drivers/STM32F1xx_HAL_Driver/Src/stm32f1xx_hal_tim_ex.c:1541:26
	ldr.w	r3, [r12, #8]
	bic	r3, r3, #112
	str.w	r3, [r12, #8]
	.loc	7 1542 26 is_stmt 1     @ ../Drivers/STM32F1xx_HAL_Driver/Src/stm32f1xx_hal_tim_ex.c:1542:26
	ldr.w	r3, [r12, #8]
	orrs	r1, r3
	str.w	r1, [r12, #8]
.Ltmp285:
.LBB28_2:
	@DEBUG_VALUE: HAL_TIMEx_ConfigCommutationEvent_IT:CommutationSource <- $r2
	.loc	7 1546 9                @ ../Drivers/STM32F1xx_HAL_Driver/Src/stm32f1xx_hal_tim_ex.c:1546:9
	ldr	r1, [r0]
	.loc	7 1546 23 is_stmt 0     @ ../Drivers/STM32F1xx_HAL_Driver/Src/stm32f1xx_hal_tim_ex.c:1546:23
	ldr	r3, [r1, #4]
	orr	r3, r3, #1
	str	r3, [r1, #4]
	.loc	7 1548 23 is_stmt 1     @ ../Drivers/STM32F1xx_HAL_Driver/Src/stm32f1xx_hal_tim_ex.c:1548:23
	ldr	r3, [r1, #4]
	bic	r3, r3, #4
	str	r3, [r1, #4]
	.loc	7 1549 23               @ ../Drivers/STM32F1xx_HAL_Driver/Src/stm32f1xx_hal_tim_ex.c:1549:23
	ldr	r3, [r1, #4]
	orrs	r2, r3
.Ltmp286:
	str	r2, [r1, #4]
	.loc	7 1552 3                @ ../Drivers/STM32F1xx_HAL_Driver/Src/stm32f1xx_hal_tim_ex.c:1552:3
	ldr	r2, [r1, #12]
	orr	r2, r2, #32
	str	r2, [r1, #12]
	movs	r1, #0
.Ltmp287:
	.loc	7 1554 3                @ ../Drivers/STM32F1xx_HAL_Driver/Src/stm32f1xx_hal_tim_ex.c:1554:3
	str	r1, [r0, #60]
.Ltmp288:
	.loc	7 1557 1                @ ../Drivers/STM32F1xx_HAL_Driver/Src/stm32f1xx_hal_tim_ex.c:1557:1
	mov	r0, r1
	bx	lr
.Ltmp289:
.Lfunc_end28:
	.size	HAL_TIMEx_ConfigCommutationEvent_IT, .Lfunc_end28-HAL_TIMEx_ConfigCommutationEvent_IT
	.cfi_endproc
	.cantunwind
	.fnend
                                        @ -- End function
	.section	.text.HAL_TIMEx_ConfigCommutationEvent_DMA,"ax",%progbits
	.hidden	HAL_TIMEx_ConfigCommutationEvent_DMA @ -- Begin function HAL_TIMEx_ConfigCommutationEvent_DMA
	.globl	HAL_TIMEx_ConfigCommutationEvent_DMA
	.p2align	2
	.type	HAL_TIMEx_ConfigCommutationEvent_DMA,%function
	.code	16                      @ @HAL_TIMEx_ConfigCommutationEvent_DMA
	.thumb_func
HAL_TIMEx_ConfigCommutationEvent_DMA:
.Lfunc_begin29:
	.loc	7 1583 0                @ ../Drivers/STM32F1xx_HAL_Driver/Src/stm32f1xx_hal_tim_ex.c:1583:0
	.fnstart
	.cfi_startproc
@ %bb.0:
	@DEBUG_VALUE: HAL_TIMEx_ConfigCommutationEvent_DMA:htim <- $r0
	@DEBUG_VALUE: HAL_TIMEx_ConfigCommutationEvent_DMA:htim <- $r0
	@DEBUG_VALUE: HAL_TIMEx_ConfigCommutationEvent_DMA:InputTrigger <- $r1
	@DEBUG_VALUE: HAL_TIMEx_ConfigCommutationEvent_DMA:InputTrigger <- $r1
	@DEBUG_VALUE: HAL_TIMEx_ConfigCommutationEvent_DMA:CommutationSource <- $r2
	@DEBUG_VALUE: HAL_TIMEx_ConfigCommutationEvent_DMA:CommutationSource <- $r2
	.loc	7 1588 3 prologue_end   @ ../Drivers/STM32F1xx_HAL_Driver/Src/stm32f1xx_hal_tim_ex.c:1588:3
	ldr	r3, [r0, #60]
.Ltmp290:
	.loc	7 1588 3 is_stmt 0      @ ../Drivers/STM32F1xx_HAL_Driver/Src/stm32f1xx_hal_tim_ex.c:1588:3
	cmp	r3, #1
	ittt	eq
	moveq	r1, #2
.Ltmp291:
	.loc	7 1616 1 is_stmt 1      @ ../Drivers/STM32F1xx_HAL_Driver/Src/stm32f1xx_hal_tim_ex.c:1616:1
	moveq	r0, r1
.Ltmp292:
	bxeq	lr
.Ltmp293:
	.loc	7 1588 3                @ ../Drivers/STM32F1xx_HAL_Driver/Src/stm32f1xx_hal_tim_ex.c:1588:3
	movs	r3, #1
	str	r3, [r0, #60]
.Ltmp294:
	.loc	7 1590 37               @ ../Drivers/STM32F1xx_HAL_Driver/Src/stm32f1xx_hal_tim_ex.c:1590:37
	ror.w	r3, r1, #4
	cmp	r3, #3
	bhi	.LBB29_2
.Ltmp295:
@ %bb.1:
	@DEBUG_VALUE: HAL_TIMEx_ConfigCommutationEvent_DMA:CommutationSource <- $r2
	.loc	7 1594 11               @ ../Drivers/STM32F1xx_HAL_Driver/Src/stm32f1xx_hal_tim_ex.c:1594:11
	ldr.w	r12, [r0]
	.loc	7 1594 26 is_stmt 0     @ ../Drivers/STM32F1xx_HAL_Driver/Src/stm32f1xx_hal_tim_ex.c:1594:26
	ldr.w	r3, [r12, #8]
	bic	r3, r3, #112
	str.w	r3, [r12, #8]
	.loc	7 1595 26 is_stmt 1     @ ../Drivers/STM32F1xx_HAL_Driver/Src/stm32f1xx_hal_tim_ex.c:1595:26
	ldr.w	r3, [r12, #8]
	orrs	r1, r3
	str.w	r1, [r12, #8]
.Ltmp296:
.LBB29_2:
	@DEBUG_VALUE: HAL_TIMEx_ConfigCommutationEvent_DMA:CommutationSource <- $r2
	.loc	7 1599 9                @ ../Drivers/STM32F1xx_HAL_Driver/Src/stm32f1xx_hal_tim_ex.c:1599:9
	ldr	r1, [r0]
	.loc	7 1599 23 is_stmt 0     @ ../Drivers/STM32F1xx_HAL_Driver/Src/stm32f1xx_hal_tim_ex.c:1599:23
	ldr	r3, [r1, #4]
	orr	r3, r3, #1
	str	r3, [r1, #4]
	.loc	7 1601 23 is_stmt 1     @ ../Drivers/STM32F1xx_HAL_Driver/Src/stm32f1xx_hal_tim_ex.c:1601:23
	ldr	r3, [r1, #4]
	bic	r3, r3, #4
	str	r3, [r1, #4]
	.loc	7 1602 23               @ ../Drivers/STM32F1xx_HAL_Driver/Src/stm32f1xx_hal_tim_ex.c:1602:23
	ldr	r3, [r1, #4]
	orrs	r2, r3
.Ltmp297:
	str	r2, [r1, #4]
	.loc	7 1606 3                @ ../Drivers/STM32F1xx_HAL_Driver/Src/stm32f1xx_hal_tim_ex.c:1606:3
	ldr	r2, [r0, #52]
	.loc	7 1606 56 is_stmt 0     @ ../Drivers/STM32F1xx_HAL_Driver/Src/stm32f1xx_hal_tim_ex.c:1606:56
	movw	r3, :lower16:TIMEx_DMACommutationCplt
	movt	r3, :upper16:TIMEx_DMACommutationCplt
	str	r3, [r2, #44]
	.loc	7 1608 3 is_stmt 1      @ ../Drivers/STM32F1xx_HAL_Driver/Src/stm32f1xx_hal_tim_ex.c:1608:3
	ldr	r2, [r0, #52]
	.loc	7 1608 57 is_stmt 0     @ ../Drivers/STM32F1xx_HAL_Driver/Src/stm32f1xx_hal_tim_ex.c:1608:57
	movw	r3, :lower16:TIM_DMAError
	movt	r3, :upper16:TIM_DMAError
	str	r3, [r2, #52]
	.loc	7 1611 3 is_stmt 1      @ ../Drivers/STM32F1xx_HAL_Driver/Src/stm32f1xx_hal_tim_ex.c:1611:3
	ldr	r2, [r1, #12]
	orr	r2, r2, #8192
	str	r2, [r1, #12]
	movs	r1, #0
.Ltmp298:
	.loc	7 1613 3                @ ../Drivers/STM32F1xx_HAL_Driver/Src/stm32f1xx_hal_tim_ex.c:1613:3
	str	r1, [r0, #60]
.Ltmp299:
	.loc	7 1616 1                @ ../Drivers/STM32F1xx_HAL_Driver/Src/stm32f1xx_hal_tim_ex.c:1616:1
	mov	r0, r1
	bx	lr
.Ltmp300:
.Lfunc_end29:
	.size	HAL_TIMEx_ConfigCommutationEvent_DMA, .Lfunc_end29-HAL_TIMEx_ConfigCommutationEvent_DMA
	.cfi_endproc
	.cantunwind
	.fnend
                                        @ -- End function
	.section	.text.TIMEx_DMACommutationCplt,"ax",%progbits
	.hidden	TIMEx_DMACommutationCplt @ -- Begin function TIMEx_DMACommutationCplt
	.globl	TIMEx_DMACommutationCplt
	.p2align	2
	.type	TIMEx_DMACommutationCplt,%function
	.code	16                      @ @TIMEx_DMACommutationCplt
	.thumb_func
TIMEx_DMACommutationCplt:
.Lfunc_begin30:
	.loc	7 1759 0                @ ../Drivers/STM32F1xx_HAL_Driver/Src/stm32f1xx_hal_tim_ex.c:1759:0
	.fnstart
	.cfi_startproc
@ %bb.0:
	@DEBUG_VALUE: TIMEx_DMACommutationCplt:hdma <- $r0
	@DEBUG_VALUE: TIMEx_DMACommutationCplt:hdma <- $r0
	.loc	7 1760 80 prologue_end  @ ../Drivers/STM32F1xx_HAL_Driver/Src/stm32f1xx_hal_tim_ex.c:1760:80
	ldr	r0, [r0, #40]
.Ltmp301:
	@DEBUG_VALUE: TIMEx_DMACommutationCplt:htim <- $r0
	.loc	7 1762 14               @ ../Drivers/STM32F1xx_HAL_Driver/Src/stm32f1xx_hal_tim_ex.c:1762:14
	movs	r1, #1
	str	r1, [r0, #64]
	.loc	7 1764 3                @ ../Drivers/STM32F1xx_HAL_Driver/Src/stm32f1xx_hal_tim_ex.c:1764:3
	b	HAL_TIMEx_CommutationCallback
.Ltmp302:
.Lfunc_end30:
	.size	TIMEx_DMACommutationCplt, .Lfunc_end30-TIMEx_DMACommutationCplt
	.cfi_endproc
	.cantunwind
	.fnend
                                        @ -- End function
	.section	.text.HAL_TIMEx_ConfigBreakDeadTime,"ax",%progbits
	.hidden	HAL_TIMEx_ConfigBreakDeadTime @ -- Begin function HAL_TIMEx_ConfigBreakDeadTime
	.globl	HAL_TIMEx_ConfigBreakDeadTime
	.p2align	2
	.type	HAL_TIMEx_ConfigBreakDeadTime,%function
	.code	16                      @ @HAL_TIMEx_ConfigBreakDeadTime
	.thumb_func
HAL_TIMEx_ConfigBreakDeadTime:
.Lfunc_begin31:
	.loc	7 1628 0                @ ../Drivers/STM32F1xx_HAL_Driver/Src/stm32f1xx_hal_tim_ex.c:1628:0
	.fnstart
	.cfi_startproc
@ %bb.0:
	@DEBUG_VALUE: HAL_TIMEx_ConfigBreakDeadTime:htim <- $r0
	@DEBUG_VALUE: HAL_TIMEx_ConfigBreakDeadTime:htim <- $r0
	@DEBUG_VALUE: HAL_TIMEx_ConfigBreakDeadTime:sBreakDeadTimeConfig <- $r1
	@DEBUG_VALUE: HAL_TIMEx_ConfigBreakDeadTime:sBreakDeadTimeConfig <- $r1
	@DEBUG_VALUE: HAL_TIMEx_ConfigBreakDeadTime:tmpbdtr <- 0
	.loc	7 1642 3 prologue_end   @ ../Drivers/STM32F1xx_HAL_Driver/Src/stm32f1xx_hal_tim_ex.c:1642:3
	ldr	r2, [r0, #60]
.Ltmp303:
	.loc	7 1642 3 is_stmt 0      @ ../Drivers/STM32F1xx_HAL_Driver/Src/stm32f1xx_hal_tim_ex.c:1642:3
	cmp	r2, #1
	ittt	eq
	moveq	r1, #2
.Ltmp304:
	.loc	7 1663 1 is_stmt 1      @ ../Drivers/STM32F1xx_HAL_Driver/Src/stm32f1xx_hal_tim_ex.c:1663:1
	moveq	r0, r1
.Ltmp305:
	bxeq	lr
	.save	{r4, r5, r7, lr}
	push	{r4, r5, r7, lr}
	.cfi_def_cfa_offset 16
	.cfi_offset lr, -4
	.cfi_offset r7, -8
	.cfi_offset r5, -12
	.cfi_offset r4, -16
.Ltmp306:
	@DEBUG_VALUE: HAL_TIMEx_ConfigBreakDeadTime:tmpbdtr <- $r3
	.loc	7 1651 3                @ ../Drivers/STM32F1xx_HAL_Driver/Src/stm32f1xx_hal_tim_ex.c:1651:3
	ldrd	r12, lr, [r1]
	@DEBUG_VALUE: HAL_TIMEx_ConfigBreakDeadTime:tmpbdtr <- $r3
	.loc	7 1649 3                @ ../Drivers/STM32F1xx_HAL_Driver/Src/stm32f1xx_hal_tim_ex.c:1649:3
	add.w	r5, r1, #8
	ldm	r5, {r2, r3, r4, r5}
.Ltmp307:
	.loc	7 1654 3                @ ../Drivers/STM32F1xx_HAL_Driver/Src/stm32f1xx_hal_tim_ex.c:1654:3
	ldr	r1, [r1, #24]
	.loc	7 1649 3                @ ../Drivers/STM32F1xx_HAL_Driver/Src/stm32f1xx_hal_tim_ex.c:1649:3
	bic	r3, r3, #16128
.Ltmp308:
	@DEBUG_VALUE: HAL_TIMEx_ConfigBreakDeadTime:tmpbdtr <- $r3
	.loc	7 1650 3                @ ../Drivers/STM32F1xx_HAL_Driver/Src/stm32f1xx_hal_tim_ex.c:1650:3
	bic	r2, r2, #15360
	orrs	r2, r3
	.loc	7 1651 3                @ ../Drivers/STM32F1xx_HAL_Driver/Src/stm32f1xx_hal_tim_ex.c:1651:3
	bic	r3, lr, #63488
.Ltmp309:
	@DEBUG_VALUE: HAL_TIMEx_ConfigBreakDeadTime:tmpbdtr <- $r3
	orrs	r2, r3
	.loc	7 1652 3                @ ../Drivers/STM32F1xx_HAL_Driver/Src/stm32f1xx_hal_tim_ex.c:1652:3
	bic	r3, r12, #61440
.Ltmp310:
	@DEBUG_VALUE: HAL_TIMEx_ConfigBreakDeadTime:tmpbdtr <- $r3
	orrs	r2, r3
	.loc	7 1653 3                @ ../Drivers/STM32F1xx_HAL_Driver/Src/stm32f1xx_hal_tim_ex.c:1653:3
	bic	r3, r4, #57344
.Ltmp311:
	@DEBUG_VALUE: HAL_TIMEx_ConfigBreakDeadTime:tmpbdtr <- $r3
	orrs	r2, r3
	orrs	r2, r5
.Ltmp312:
	@DEBUG_VALUE: HAL_TIMEx_ConfigBreakDeadTime:tmpbdtr <- $r2
	.loc	7 1654 3                @ ../Drivers/STM32F1xx_HAL_Driver/Src/stm32f1xx_hal_tim_ex.c:1654:3
	bic	r2, r2, #49152
.Ltmp313:
	.loc	7 1655 3                @ ../Drivers/STM32F1xx_HAL_Driver/Src/stm32f1xx_hal_tim_ex.c:1655:3
	orrs	r1, r2
.Ltmp314:
	@DEBUG_VALUE: HAL_TIMEx_ConfigBreakDeadTime:tmpbdtr <- $r1
	.loc	7 1658 9                @ ../Drivers/STM32F1xx_HAL_Driver/Src/stm32f1xx_hal_tim_ex.c:1658:9
	ldr	r2, [r0]
	.loc	7 1658 24 is_stmt 0     @ ../Drivers/STM32F1xx_HAL_Driver/Src/stm32f1xx_hal_tim_ex.c:1658:24
	str	r1, [r2, #68]
	movs	r1, #0
.Ltmp315:
	.loc	7 1660 3 is_stmt 1      @ ../Drivers/STM32F1xx_HAL_Driver/Src/stm32f1xx_hal_tim_ex.c:1660:3
	str	r1, [r0, #60]
	pop.w	{r4, r5, r7, lr}
.Ltmp316:
	.loc	7 1663 1                @ ../Drivers/STM32F1xx_HAL_Driver/Src/stm32f1xx_hal_tim_ex.c:1663:1
	mov	r0, r1
	bx	lr
.Ltmp317:
.Lfunc_end31:
	.size	HAL_TIMEx_ConfigBreakDeadTime, .Lfunc_end31-HAL_TIMEx_ConfigBreakDeadTime
	.cfi_endproc
	.cantunwind
	.fnend
                                        @ -- End function
	.section	.text.HAL_TIMEx_MasterConfigSynchronization,"ax",%progbits
	.hidden	HAL_TIMEx_MasterConfigSynchronization @ -- Begin function HAL_TIMEx_MasterConfigSynchronization
	.globl	HAL_TIMEx_MasterConfigSynchronization
	.p2align	2
	.type	HAL_TIMEx_MasterConfigSynchronization,%function
	.code	16                      @ @HAL_TIMEx_MasterConfigSynchronization
	.thumb_func
HAL_TIMEx_MasterConfigSynchronization:
.Lfunc_begin32:
	.loc	7 1678 0                @ ../Drivers/STM32F1xx_HAL_Driver/Src/stm32f1xx_hal_tim_ex.c:1678:0
	.fnstart
	.cfi_startproc
@ %bb.0:
	@DEBUG_VALUE: HAL_TIMEx_MasterConfigSynchronization:htim <- $r0
	@DEBUG_VALUE: HAL_TIMEx_MasterConfigSynchronization:htim <- $r0
	@DEBUG_VALUE: HAL_TIMEx_MasterConfigSynchronization:sMasterConfig <- $r1
	@DEBUG_VALUE: HAL_TIMEx_MasterConfigSynchronization:sMasterConfig <- $r1
	.loc	7 1684 3 prologue_end   @ ../Drivers/STM32F1xx_HAL_Driver/Src/stm32f1xx_hal_tim_ex.c:1684:3
	ldr	r3, [r0, #60]
	movs	r2, #2
.Ltmp318:
	.loc	7 1684 3 is_stmt 0      @ ../Drivers/STM32F1xx_HAL_Driver/Src/stm32f1xx_hal_tim_ex.c:1684:3
	cmp	r3, #1
	beq	.LBB32_2
.Ltmp319:
@ %bb.1:
	@DEBUG_VALUE: HAL_TIMEx_MasterConfigSynchronization:sMasterConfig <- $r1
	@DEBUG_VALUE: HAL_TIMEx_MasterConfigSynchronization:htim <- $r0
	.loc	7 1686 15 is_stmt 1     @ ../Drivers/STM32F1xx_HAL_Driver/Src/stm32f1xx_hal_tim_ex.c:1686:15
	str	r2, [r0, #64]
	.loc	7 1689 9                @ ../Drivers/STM32F1xx_HAL_Driver/Src/stm32f1xx_hal_tim_ex.c:1689:9
	ldr	r2, [r0]
	.loc	7 1689 23 is_stmt 0     @ ../Drivers/STM32F1xx_HAL_Driver/Src/stm32f1xx_hal_tim_ex.c:1689:23
	ldr	r3, [r2, #4]
	bic	r3, r3, #112
	str	r3, [r2, #4]
	.loc	7 1691 42 is_stmt 1     @ ../Drivers/STM32F1xx_HAL_Driver/Src/stm32f1xx_hal_tim_ex.c:1691:42
	ldr.w	r12, [r1]
	.loc	7 1691 23 is_stmt 0     @ ../Drivers/STM32F1xx_HAL_Driver/Src/stm32f1xx_hal_tim_ex.c:1691:23
	ldr	r3, [r2, #4]
	orr.w	r3, r3, r12
	str	r3, [r2, #4]
	.loc	7 1694 24 is_stmt 1     @ ../Drivers/STM32F1xx_HAL_Driver/Src/stm32f1xx_hal_tim_ex.c:1694:24
	ldr	r3, [r2, #8]
	bic	r3, r3, #128
	str	r3, [r2, #8]
	.loc	7 1696 42               @ ../Drivers/STM32F1xx_HAL_Driver/Src/stm32f1xx_hal_tim_ex.c:1696:42
	ldr	r1, [r1, #4]
.Ltmp320:
	.loc	7 1696 24 is_stmt 0     @ ../Drivers/STM32F1xx_HAL_Driver/Src/stm32f1xx_hal_tim_ex.c:1696:24
	ldr	r3, [r2, #8]
	orrs	r1, r3
	str	r1, [r2, #8]
	movs	r2, #0
.Ltmp321:
	.loc	7 1700 3 is_stmt 1      @ ../Drivers/STM32F1xx_HAL_Driver/Src/stm32f1xx_hal_tim_ex.c:1700:3
	str	r2, [r0, #60]
.Ltmp322:
	.loc	7 1698 15               @ ../Drivers/STM32F1xx_HAL_Driver/Src/stm32f1xx_hal_tim_ex.c:1698:15
	movs	r1, #1
	str	r1, [r0, #64]
.LBB32_2:
	@DEBUG_VALUE: HAL_TIMEx_MasterConfigSynchronization:htim <- $r0
	.loc	7 1703 1                @ ../Drivers/STM32F1xx_HAL_Driver/Src/stm32f1xx_hal_tim_ex.c:1703:1
	mov	r0, r2
	bx	lr
.Ltmp323:
.Lfunc_end32:
	.size	HAL_TIMEx_MasterConfigSynchronization, .Lfunc_end32-HAL_TIMEx_MasterConfigSynchronization
	.cfi_endproc
	.cantunwind
	.fnend
                                        @ -- End function
	.section	.text.HAL_TIMEx_CommutationCallback,"ax",%progbits
	.hidden	HAL_TIMEx_CommutationCallback @ -- Begin function HAL_TIMEx_CommutationCallback
	.weak	HAL_TIMEx_CommutationCallback
	.p2align	2
	.type	HAL_TIMEx_CommutationCallback,%function
	.code	16                      @ @HAL_TIMEx_CommutationCallback
	.thumb_func
HAL_TIMEx_CommutationCallback:
.Lfunc_begin33:
	.loc	7 1731 0                @ ../Drivers/STM32F1xx_HAL_Driver/Src/stm32f1xx_hal_tim_ex.c:1731:0
	.fnstart
	.cfi_startproc
@ %bb.0:
	@DEBUG_VALUE: HAL_TIMEx_CommutationCallback:htim <- $r0
	.loc	7 1737 1 prologue_end   @ ../Drivers/STM32F1xx_HAL_Driver/Src/stm32f1xx_hal_tim_ex.c:1737:1
	bx	lr
.Ltmp324:
.Lfunc_end33:
	.size	HAL_TIMEx_CommutationCallback, .Lfunc_end33-HAL_TIMEx_CommutationCallback
	.cfi_endproc
	.cantunwind
	.fnend
                                        @ -- End function
	.section	.text.HAL_TIMEx_BreakCallback,"ax",%progbits
	.hidden	HAL_TIMEx_BreakCallback @ -- Begin function HAL_TIMEx_BreakCallback
	.weak	HAL_TIMEx_BreakCallback
	.p2align	2
	.type	HAL_TIMEx_BreakCallback,%function
	.code	16                      @ @HAL_TIMEx_BreakCallback
	.thumb_func
HAL_TIMEx_BreakCallback:
.Lfunc_begin34:
	.loc	7 1745 0                @ ../Drivers/STM32F1xx_HAL_Driver/Src/stm32f1xx_hal_tim_ex.c:1745:0
	.fnstart
	.cfi_startproc
@ %bb.0:
	@DEBUG_VALUE: HAL_TIMEx_BreakCallback:htim <- $r0
	.loc	7 1751 1 prologue_end   @ ../Drivers/STM32F1xx_HAL_Driver/Src/stm32f1xx_hal_tim_ex.c:1751:1
	bx	lr
.Ltmp325:
.Lfunc_end34:
	.size	HAL_TIMEx_BreakCallback, .Lfunc_end34-HAL_TIMEx_BreakCallback
	.cfi_endproc
	.cantunwind
	.fnend
                                        @ -- End function
	.section	.text.HAL_TIMEx_HallSensor_GetState,"ax",%progbits
	.hidden	HAL_TIMEx_HallSensor_GetState @ -- Begin function HAL_TIMEx_HallSensor_GetState
	.globl	HAL_TIMEx_HallSensor_GetState
	.p2align	2
	.type	HAL_TIMEx_HallSensor_GetState,%function
	.code	16                      @ @HAL_TIMEx_HallSensor_GetState
	.thumb_func
HAL_TIMEx_HallSensor_GetState:
.Lfunc_begin35:
	.loc	7 1796 0                @ ../Drivers/STM32F1xx_HAL_Driver/Src/stm32f1xx_hal_tim_ex.c:1796:0
	.fnstart
	.cfi_startproc
@ %bb.0:
	@DEBUG_VALUE: HAL_TIMEx_HallSensor_GetState:htim <- $r0
	@DEBUG_VALUE: HAL_TIMEx_HallSensor_GetState:htim <- $r0
	.loc	7 1797 16 prologue_end  @ ../Drivers/STM32F1xx_HAL_Driver/Src/stm32f1xx_hal_tim_ex.c:1797:16
	ldr	r0, [r0, #64]
.Ltmp326:
	.loc	7 1797 3 is_stmt 0      @ ../Drivers/STM32F1xx_HAL_Driver/Src/stm32f1xx_hal_tim_ex.c:1797:3
	bx	lr
.Ltmp327:
.Lfunc_end35:
	.size	HAL_TIMEx_HallSensor_GetState, .Lfunc_end35-HAL_TIMEx_HallSensor_GetState
	.cfi_endproc
	.cantunwind
	.fnend
                                        @ -- End function
	.file	8 "../Drivers/STM32F1xx_HAL_Driver/Inc" "stm32f1xx_hal_tim_ex.h"
	.section	".note.GNU-stack","",%progbits
	.eabi_attribute	30, 1	@ Tag_ABI_optimization_goals
	.ARM_attribute	16, 1	@ Tag_AV_eba