	.text
	.syntax unified
	.eabi_attribute	67, "2.09"	@ Tag_conformance
	.cpu	cortex-m3
	.eabi_attribute	6, 10	@ Tag_CPU_arch
	.eabi_attribute	7, 77	@ Tag_CPU_arch_profile
	.eabi_attribute	8, 0	@ Tag_ARM_ISA_use
	.eabi_attribute	9, 2	@ Tag_THUMB_ISA_use
	.eabi_attribute	34, 1	@ Tag_CPU_unaligned_access
	.eabi_attribute	17, 1	@ Tag_ABI_PCS_GOT_use
	.eabi_attribute	20, 2	@ Tag_ABI_FP_denormal
	.eabi_attribute	21, 0	@ Tag_ABI_FP_exceptions
	.eabi_attribute	23, 1	@ Tag_ABI_FP_number_model
	.eabi_attribute	24, 1	@ Tag_ABI_align_needed
	.eabi_attribute	25, 1	@ Tag_ABI_align_preserved
	.eabi_attribute	38, 1	@ Tag_ABI_FP_16bit_format
	.eabi_attribute	18, 4	@ Tag_ABI_PCS_wchar_t
	.eabi_attribute	26, 2	@ Tag_ABI_enum_size
	.eabi_attribute	14, 0	@ Tag_ABI_PCS_R9_use
	.file	"stm32f1xx_hal_cortex.c"
	.file	1 "../Drivers/CMSIS/Device/ST/STM32F1xx/Include" "stm32f103xb.h"
	.file	2 "C:\\Keil\\ARM\\ARMCLANG\\Bin\\..\\include" "stdint.h"
	.file	3 "C:/Keil/ARM/PACK/ARM/CMSIS/5.0.0/CMSIS/Include" "core_cm3.h"
	.section	.text.HAL_NVIC_SetPriorityGrouping,"ax",%progbits
	.hidden	HAL_NVIC_SetPriorityGrouping @ -- Begin function HAL_NVIC_SetPriorityGrouping
	.globl	HAL_NVIC_SetPriorityGrouping
	.p2align	2
	.type	HAL_NVIC_SetPriorityGrouping,%function
	.code	16                      @ @HAL_NVIC_SetPriorityGrouping
	.thumb_func
HAL_NVIC_SetPriorityGrouping:
.Lfunc_begin0:
	.file	4 "../Drivers/STM32F1xx_HAL_Driver/Src" "stm32f1xx_hal_cortex.c"
	.loc	4 162 0                 @ ../Drivers/STM32F1xx_HAL_Driver/Src/stm32f1xx_hal_cortex.c:162:0
	.fnstart
	.cfi_sections .debug_frame
	.cfi_startproc
@ %bb.0:
	@DEBUG_VALUE: HAL_NVIC_SetPriorityGrouping:PriorityGroup <- $r0
	@DEBUG_VALUE: HAL_NVIC_SetPriorityGrouping:PriorityGroup <- $r0
	@DEBUG_VALUE: HAL_NVIC_SetPriorityGrouping:PriorityGroup <- $r0
	.loc	4 167 3 prologue_end    @ ../Drivers/STM32F1xx_HAL_Driver/Src/stm32f1xx_hal_cortex.c:167:3
	b	NVIC_SetPriorityGrouping
.Ltmp0:
.Lfunc_end0:
	.size	HAL_NVIC_SetPriorityGrouping, .Lfunc_end0-HAL_NVIC_SetPriorityGrouping
	.cfi_endproc
	.cantunwind
	.fnend
                                        @ -- End function
	.section	.text.NVIC_SetPriorityGrouping,"ax",%progbits
	.p2align	2               @ -- Begin function NVIC_SetPriorityGrouping
	.type	NVIC_SetPriorityGrouping,%function
	.code	16                      @ @NVIC_SetPriorityGrouping
	.thumb_func
NVIC_SetPriorityGrouping:
.Lfunc_begin1:
	.loc	3 1436 0                @ C:/Keil/ARM/PACK/ARM/CMSIS/5.0.0/CMSIS/Include\core_cm3.h:1436:0
	.fnstart
	.cfi_startproc
@ %bb.0:
	@DEBUG_VALUE: NVIC_SetPriorityGrouping:PriorityGroup <- $r0
	movw	r1, #60684
	movt	r1, #57344
	@DEBUG_VALUE: NVIC_SetPriorityGrouping:PriorityGroup <- $r0
.Ltmp1:
	.loc	3 1440 22 prologue_end  @ C:/Keil/ARM/PACK/ARM/CMSIS/5.0.0/CMSIS/Include\core_cm3.h:1440:22
	ldr	r2, [r1]
.Ltmp2:
	@DEBUG_VALUE: NVIC_SetPriorityGrouping:reg_value <- $r2
	.loc	3 1441 13               @ C:/Keil/ARM/PACK/ARM/CMSIS/5.0.0/CMSIS/Include\core_cm3.h:1441:13
	movw	r3, #63743
	ands	r2, r3
.Ltmp3:
	@DEBUG_VALUE: NVIC_SetPriorityGrouping:reg_value <- $r2
	.loc	3 1443 62               @ C:/Keil/ARM/PACK/ARM/CMSIS/5.0.0/CMSIS/Include\core_cm3.h:1443:62
	bfi	r2, r0, #8, #3
.Ltmp4:
	orr	r0, r2, #67108864
.Ltmp5:
	orr	r0, r0, #33161216
.Ltmp6:
	@DEBUG_VALUE: NVIC_SetPriorityGrouping:reg_value <- $r0
	.loc	3 1445 14               @ C:/Keil/ARM/PACK/ARM/CMSIS/5.0.0/CMSIS/Include\core_cm3.h:1445:14
	str	r0, [r1]
	.loc	3 1446 1                @ C:/Keil/ARM/PACK/ARM/CMSIS/5.0.0/CMSIS/Include\core_cm3.h:1446:1
	bx	lr
.Ltmp7:
.Lfunc_end1:
	.size	NVIC_SetPriorityGrouping, .Lfunc_end1-NVIC_SetPriorityGrouping
	.cfi_endproc
	.cantunwind
	.fnend
                                        @ -- End function
	.section	.text.HAL_NVIC_SetPriority,"ax",%progbits
	.hidden	HAL_NVIC_SetPriority    @ -- Begin function HAL_NVIC_SetPriority
	.globl	HAL_NVIC_SetPriority
	.p2align	2
	.type	HAL_NVIC_SetPriority,%function
	.code	16                      @ @HAL_NVIC_SetPriority
	.thumb_func
HAL_NVIC_SetPriority:
.Lfunc_begin2:
	.loc	4 184 0                 @ ../Drivers/STM32F1xx_HAL_Driver/Src/stm32f1xx_hal_cortex.c:184:0
	.fnstart
	.cfi_startproc
@ %bb.0:
	.save	{r4, r5, r6, lr}
	push	{r4, r5, r6, lr}
	.cfi_def_cfa_offset 16
	.cfi_offset lr, -4
	.cfi_offset r6, -8
	.cfi_offset r5, -12
	.cfi_offset r4, -16
	@DEBUG_VALUE: HAL_NVIC_SetPriority:IRQn <- $r0
	@DEBUG_VALUE: HAL_NVIC_SetPriority:PreemptPriority <- $r1
	@DEBUG_VALUE: HAL_NVIC_SetPriority:SubPriority <- $r2
	mov	r4, r2
	mov	r5, r1
	mov	r6, r0
.Ltmp8:
	@DEBUG_VALUE: HAL_NVIC_SetPriority:prioritygroup <- 0
	@DEBUG_VALUE: HAL_NVIC_SetPriority:SubPriority <- $r4
	@DEBUG_VALUE: HAL_NVIC_SetPriority:PreemptPriority <- $r5
	@DEBUG_VALUE: HAL_NVIC_SetPriority:IRQn <- $r6
	.loc	4 191 19 prologue_end   @ ../Drivers/STM32F1xx_HAL_Driver/Src/stm32f1xx_hal_cortex.c:191:19
	bl	NVIC_GetPriorityGrouping
.Ltmp9:
	@DEBUG_VALUE: HAL_NVIC_SetPriority:prioritygroup <- $r0
	.loc	4 193 26                @ ../Drivers/STM32F1xx_HAL_Driver/Src/stm32f1xx_hal_cortex.c:193:26
	mov	r1, r5
.Ltmp10:
	@DEBUG_VALUE: HAL_NVIC_SetPriority:PreemptPriority <- $r1
	mov	r2, r4
.Ltmp11:
	@DEBUG_VALUE: HAL_NVIC_SetPriority:SubPriority <- $r2
	bl	NVIC_EncodePriority
.Ltmp12:
	mov	r1, r0
	.loc	4 193 3 is_stmt 0       @ ../Drivers/STM32F1xx_HAL_Driver/Src/stm32f1xx_hal_cortex.c:193:3
	mov	r0, r6
.Ltmp13:
	@DEBUG_VALUE: HAL_NVIC_SetPriority:IRQn <- $r0
	pop.w	{r4, r5, r6, lr}
	b	NVIC_SetPriority
.Ltmp14:
.Lfunc_end2:
	.size	HAL_NVIC_SetPriority, .Lfunc_end2-HAL_NVIC_SetPriority
	.cfi_endproc
	.cantunwind
	.fnend
                                        @ -- End function
	.section	.text.NVIC_GetPriorityGrouping,"ax",%progbits
	.p2align	2               @ -- Begin function NVIC_GetPriorityGrouping
	.type	NVIC_GetPriorityGrouping,%function
	.code	16                      @ @NVIC_GetPriorityGrouping
	.thumb_func
NVIC_GetPriorityGrouping:
.Lfunc_begin3:
	.loc	3 1455 0 is_stmt 1      @ C:/Keil/ARM/PACK/ARM/CMSIS/5.0.0/CMSIS/Include\core_cm3.h:1455:0
	.fnstart
	.cfi_startproc
@ %bb.0:
	.loc	3 1456 28 prologue_end  @ C:/Keil/ARM/PACK/ARM/CMSIS/5.0.0/CMSIS/Include\core_cm3.h:1456:28
	movw	r0, #60684
	movt	r0, #57344
	ldr	r0, [r0]
	.loc	3 1456 60 is_stmt 0     @ C:/Keil/ARM/PACK/ARM/CMSIS/5.0.0/CMSIS/Include\core_cm3.h:1456:60
	ubfx	r0, r0, #8, #3
	.loc	3 1456 3                @ C:/Keil/ARM/PACK/ARM/CMSIS/5.0.0/CMSIS/Include\core_cm3.h:1456:3
	bx	lr
.Ltmp15:
.Lfunc_end3:
	.size	NVIC_GetPriorityGrouping, .Lfunc_end3-NVIC_GetPriorityGrouping
	.cfi_endproc
	.cantunwind
	.fnend
                                        @ -- End function
	.section	.text.NVIC_SetPriority,"ax",%progbits
	.p2align	2               @ -- Begin function NVIC_SetPriority
	.type	NVIC_SetPriority,%function
	.code	16                      @ @NVIC_SetPriority
	.thumb_func
NVIC_SetPriority:
.Lfunc_begin4:
	.loc	3 1593 0 is_stmt 1      @ C:/Keil/ARM/PACK/ARM/CMSIS/5.0.0/CMSIS/Include\core_cm3.h:1593:0
	.fnstart
	.cfi_startproc
@ %bb.0:
	@DEBUG_VALUE: NVIC_SetPriority:IRQn <- $r0
	@DEBUG_VALUE: NVIC_SetPriority:IRQn <- $r0
	@DEBUG_VALUE: NVIC_SetPriority:priority <- $r1
	@DEBUG_VALUE: NVIC_SetPriority:priority <- $r1
	.loc	3 1596 5 prologue_end   @ C:/Keil/ARM/PACK/ARM/CMSIS/5.0.0/CMSIS/Include\core_cm3.h:1596:5
	add.w	r12, r0, #3758096384
.Ltmp16:
	.loc	3 1600 41               @ C:/Keil/ARM/PACK/ARM/CMSIS/5.0.0/CMSIS/Include\core_cm3.h:1600:41
	and	r3, r0, #15
	.loc	3 1600 5 is_stmt 0      @ C:/Keil/ARM/PACK/ARM/CMSIS/5.0.0/CMSIS/Include\core_cm3.h:1600:5
	movw	r2, #60692
	movt	r2, #57344
	add	r2, r3
.Ltmp17:
	.loc	3 1594 7 is_stmt 1      @ C:/Keil/ARM/PACK/ARM/CMSIS/5.0.0/CMSIS/Include\core_cm3.h:1594:7
	cmp.w	r0, #-1
	it	gt
	addgt.w	r2, r12, #58368
	lsls	r0, r1, #4
.Ltmp18:
	.loc	3 0 7 is_stmt 0         @ C:/Keil/ARM/PACK/ARM/CMSIS/5.0.0/CMSIS/Include\core_cm3.h:0:7
	strb	r0, [r2]
	.loc	3 1602 1 is_stmt 1      @ C:/Keil/ARM/PACK/ARM/CMSIS/5.0.0/CMSIS/Include\core_cm3.h:1602:1
	bx	lr
.Ltmp19:
.Lfunc_end4:
	.size	NVIC_SetPriority, .Lfunc_end4-NVIC_SetPriority
	.cfi_endproc
	.cantunwind
	.fnend
                                        @ -- End function
	.section	.text.NVIC_EncodePriority,"ax",%progbits
	.p2align	2               @ -- Begin function NVIC_EncodePriority
	.type	NVIC_EncodePriority,%function
	.code	16                      @ @NVIC_EncodePriority
	.thumb_func
NVIC_EncodePriority:
.Lfunc_begin5:
	.loc	3 1640 0                @ C:/Keil/ARM/PACK/ARM/CMSIS/5.0.0/CMSIS/Include\core_cm3.h:1640:0
	.fnstart
	.cfi_startproc
@ %bb.0:
	@DEBUG_VALUE: NVIC_EncodePriority:PriorityGroup <- $r0
	@DEBUG_VALUE: NVIC_EncodePriority:PriorityGroup <- $r0
	@DEBUG_VALUE: NVIC_EncodePriority:PreemptPriority <- $r1
	@DEBUG_VALUE: NVIC_EncodePriority:PreemptPriority <- $r1
	@DEBUG_VALUE: NVIC_EncodePriority:SubPriority <- $r2
	@DEBUG_VALUE: NVIC_EncodePriority:SubPriority <- $r2
	.loc	3 1641 46 prologue_end  @ C:/Keil/ARM/PACK/ARM/CMSIS/5.0.0/CMSIS/Include\core_cm3.h:1641:46
	and	r0, r0, #7
.Ltmp20:
	@DEBUG_VALUE: NVIC_EncodePriority:PriorityGroupTmp <- $r0
	.loc	3 1646 44               @ C:/Keil/ARM/PACK/ARM/CMSIS/5.0.0/CMSIS/Include\core_cm3.h:1646:44
	add.w	r12, r0, #4
	.loc	3 1646 147 is_stmt 0    @ C:/Keil/ARM/PACK/ARM/CMSIS/5.0.0/CMSIS/Include\core_cm3.h:1646:147
	subs	r3, r0, #3
	.loc	3 1646 25               @ C:/Keil/ARM/PACK/ARM/CMSIS/5.0.0/CMSIS/Include\core_cm3.h:1646:25
	cmp.w	r12, #7
	it	lo
	movlo	r3, #0
.Ltmp21:
	@DEBUG_VALUE: NVIC_EncodePriority:SubPriorityBits <- $r3
	.loc	3 1645 31 is_stmt 1     @ C:/Keil/ARM/PACK/ARM/CMSIS/5.0.0/CMSIS/Include\core_cm3.h:1645:31
	eor	r0, r0, #7
.Ltmp22:
	.loc	3 1645 25 is_stmt 0     @ C:/Keil/ARM/PACK/ARM/CMSIS/5.0.0/CMSIS/Include\core_cm3.h:1645:25
	cmp	r0, #4
	it	hs
	movhs	r0, #4
.Ltmp23:
	@DEBUG_VALUE: NVIC_EncodePriority:PreemptPriorityBits <- $r0
	.loc	3 1649 48 is_stmt 1     @ C:/Keil/ARM/PACK/ARM/CMSIS/5.0.0/CMSIS/Include\core_cm3.h:1649:48
	mov.w	r12, #1
	lsl.w	r0, r12, r0
.Ltmp24:
	.loc	3 1649 74 is_stmt 0     @ C:/Keil/ARM/PACK/ARM/CMSIS/5.0.0/CMSIS/Include\core_cm3.h:1649:74
	subs	r0, #1
	.loc	3 1649 30               @ C:/Keil/ARM/PACK/ARM/CMSIS/5.0.0/CMSIS/Include\core_cm3.h:1649:30
	ands	r0, r1
	.loc	3 1649 82               @ C:/Keil/ARM/PACK/ARM/CMSIS/5.0.0/CMSIS/Include\core_cm3.h:1649:82
	lsls	r0, r3
	.loc	3 1650 48 is_stmt 1     @ C:/Keil/ARM/PACK/ARM/CMSIS/5.0.0/CMSIS/Include\core_cm3.h:1650:48
	lsl.w	r1, r12, r3
.Ltmp25:
	.loc	3 1650 74 is_stmt 0     @ C:/Keil/ARM/PACK/ARM/CMSIS/5.0.0/CMSIS/Include\core_cm3.h:1650:74
	subs	r1, #1
	.loc	3 1650 30               @ C:/Keil/ARM/PACK/ARM/CMSIS/5.0.0/CMSIS/Include\core_cm3.h:1650:30
	ands	r1, r2
	.loc	3 1649 102 is_stmt 1    @ C:/Keil/ARM/PACK/ARM/CMSIS/5.0.0/CMSIS/Include\core_cm3.h:1649:102
	orrs	r0, r1
	.loc	3 1648 3                @ C:/Keil/ARM/PACK/ARM/CMSIS/5.0.0/CMSIS/Include\core_cm3.h:1648:3
	bx	lr
.Ltmp26:
.Lfunc_end5:
	.size	NVIC_EncodePriority, .Lfunc_end5-NVIC_EncodePriority
	.cfi_endproc
	.cantunwind
	.fnend
                                        @ -- End function
	.section	.text.HAL_NVIC_EnableIRQ,"ax",%progbits
	.hidden	HAL_NVIC_EnableIRQ      @ -- Begin function HAL_NVIC_EnableIRQ
	.globl	HAL_NVIC_EnableIRQ
	.p2align	2
	.type	HAL_NVIC_EnableIRQ,%function
	.code	16                      @ @HAL_NVIC_EnableIRQ
	.thumb_func
HAL_NVIC_EnableIRQ:
.Lfunc_begin6:
	.loc	4 206 0                 @ ../Drivers/STM32F1xx_HAL_Driver/Src/stm32f1xx_hal_cortex.c:206:0
	.fnstart
	.cfi_startproc
@ %bb.0:
	@DEBUG_VALUE: HAL_NVIC_EnableIRQ:IRQn <- $r0
	@DEBUG_VALUE: HAL_NVIC_EnableIRQ:IRQn <- $r0
	@DEBUG_VALUE: HAL_NVIC_EnableIRQ:IRQn <- $r0
	.loc	4 211 3 prologue_end    @ ../Drivers/STM32F1xx_HAL_Driver/Src/stm32f1xx_hal_cortex.c:211:3
	b	NVIC_EnableIRQ
.Ltmp27:
.Lfunc_end6:
	.size	HAL_NVIC_EnableIRQ, .Lfunc_end6-HAL_NVIC_EnableIRQ
	.cfi_endproc
	.cantunwind
	.fnend
                                        @ -- End function
	.section	.text.NVIC_EnableIRQ,"ax",%progbits
	.p2align	2               @ -- Begin function NVIC_EnableIRQ
	.type	NVIC_EnableIRQ,%function
	.code	16                      @ @NVIC_EnableIRQ
	.thumb_func
NVIC_EnableIRQ:
.Lfunc_begin7:
	.loc	3 1467 0                @ C:/Keil/ARM/PACK/ARM/CMSIS/5.0.0/CMSIS/Include\core_cm3.h:1467:0
	.fnstart
	.cfi_startproc
@ %bb.0:
	@DEBUG_VALUE: NVIC_EnableIRQ:IRQn <- $r0
	@DEBUG_VALUE: NVIC_EnableIRQ:IRQn <- $r0
	.loc	3 1468 7 prologue_end   @ C:/Keil/ARM/PACK/ARM/CMSIS/5.0.0/CMSIS/Include\core_cm3.h:1468:7
	cmp	r0, #0
	.loc	3 1472 1                @ C:/Keil/ARM/PACK/ARM/CMSIS/5.0.0/CMSIS/Include\core_cm3.h:1472:1
	it	lt
	bxlt	lr
.Ltmp28:
	.loc	3 1470 99               @ C:/Keil/ARM/PACK/ARM/CMSIS/5.0.0/CMSIS/Include\core_cm3.h:1470:99
	and	r1, r0, #31
	.loc	3 1470 69 is_stmt 0     @ C:/Keil/ARM/PACK/ARM/CMSIS/5.0.0/CMSIS/Include\core_cm3.h:1470:69
	movs	r2, #1
	lsl.w	r1, r2, r1
	.loc	3 1470 43               @ C:/Keil/ARM/PACK/ARM/CMSIS/5.0.0/CMSIS/Include\core_cm3.h:1470:43
	lsrs	r0, r0, #5
.Ltmp29:
	.loc	3 1470 5                @ C:/Keil/ARM/PACK/ARM/CMSIS/5.0.0/CMSIS/Include\core_cm3.h:1470:5
	movw	r2, #57600
	movt	r2, #57344
	.loc	3 1470 52               @ C:/Keil/ARM/PACK/ARM/CMSIS/5.0.0/CMSIS/Include\core_cm3.h:1470:52
	str.w	r1, [r2, r0, lsl #2]
.Ltmp30:
	.loc	3 1472 1 is_stmt 1      @ C:/Keil/ARM/PACK/ARM/CMSIS/5.0.0/CMSIS/Include\core_cm3.h:1472:1
	bx	lr
.Ltmp31:
.Lfunc_end7:
	.size	NVIC_EnableIRQ, .Lfunc_end7-NVIC_EnableIRQ
	.cfi_endproc
	.cantunwind
	.fnend
                                        @ -- End function
	.section	.text.HAL_NVIC_DisableIRQ,"ax",%progbits
	.hidden	HAL_NVIC_DisableIRQ     @ -- Begin function HAL_NVIC_DisableIRQ
	.globl	HAL_NVIC_DisableIRQ
	.p2align	2
	.type	HAL_NVIC_DisableIRQ,%function
	.code	16                      @ @HAL_NVIC_DisableIRQ
	.thumb_func
HAL_NVIC_DisableIRQ:
.Lfunc_begin8:
	.loc	4 222 0                 @ ../Drivers/STM32F1xx_HAL_Driver/Src/stm32f1xx_hal_cortex.c:222:0
	.fnstart
	.cfi_startproc
@ %bb.0:
	@DEBUG_VALUE: HAL_NVIC_DisableIRQ:IRQn <- $r0
	@DEBUG_VALUE: HAL_NVIC_DisableIRQ:IRQn <- $r0
	@DEBUG_VALUE: HAL_NVIC_DisableIRQ:IRQn <- $r0
	.loc	4 227 3 prologue_end    @ ../Drivers/STM32F1xx_HAL_Driver/Src/stm32f1xx_hal_cortex.c:227:3
	b	NVIC_DisableIRQ
.Ltmp32:
.Lfunc_end8:
	.size	HAL_NVIC_DisableIRQ, .Lfunc_end8-HAL_NVIC_DisableIRQ
	.cfi_endproc
	.cantunwind
	.fnend
                                        @ -- End function
	.section	.text.NVIC_DisableIRQ,"ax",%progbits
	.p2align	2               @ -- Begin function NVIC_DisableIRQ
	.type	NVIC_DisableIRQ,%function
	.code	16                      @ @NVIC_DisableIRQ
	.thumb_func
NVIC_DisableIRQ:
.Lfunc_begin9:
	.loc	3 1503 0                @ C:/Keil/ARM/PACK/ARM/CMSIS/5.0.0/CMSIS/Include\core_cm3.h:1503:0
	.fnstart
	.cfi_startproc
@ %bb.0:
	@DEBUG_VALUE: NVIC_DisableIRQ:IRQn <- $r0
	@DEBUG_VALUE: NVIC_DisableIRQ:IRQn <- $r0
	.loc	3 1504 7 prologue_end   @ C:/Keil/ARM/PACK/ARM/CMSIS/5.0.0/CMSIS/Include\core_cm3.h:1504:7
	cmp	r0, #0
	.loc	3 1508 1                @ C:/Keil/ARM/PACK/ARM/CMSIS/5.0.0/CMSIS/Include\core_cm3.h:1508:1
	it	lt
	bxlt	lr
.Ltmp33:
	.loc	3 1506 99               @ C:/Keil/ARM/PACK/ARM/CMSIS/5.0.0/CMSIS/Include\core_cm3.h:1506:99
	and	r1, r0, #31
	.loc	3 1506 69 is_stmt 0     @ C:/Keil/ARM/PACK/ARM/CMSIS/5.0.0/CMSIS/Include\core_cm3.h:1506:69
	movs	r2, #1
	lsl.w	r1, r2, r1
	.loc	3 1506 43               @ C:/Keil/ARM/PACK/ARM/CMSIS/5.0.0/CMSIS/Include\core_cm3.h:1506:43
	lsrs	r0, r0, #5
.Ltmp34:
	.loc	3 1506 5                @ C:/Keil/ARM/PACK/ARM/CMSIS/5.0.0/CMSIS/Include\core_cm3.h:1506:5
	movw	r2, #57728
	movt	r2, #57344
	.loc	3 1506 52               @ C:/Keil/ARM/PACK/ARM/CMSIS/5.0.0/CMSIS/Include\core_cm3.h:1506:52
	str.w	r1, [r2, r0, lsl #2]
.Ltmp35:
	.loc	3 1508 1 is_stmt 1      @ C:/Keil/ARM/PACK/ARM/CMSIS/5.0.0/CMSIS/Include\core_cm3.h:1508:1
	bx	lr
.Ltmp36:
.Lfunc_end9:
	.size	NVIC_DisableIRQ, .Lfunc_end9-NVIC_DisableIRQ
	.cfi_endproc
	.cantunwind
	.fnend
                                        @ -- End function
	.section	.text.HAL_NVIC_SystemReset,"ax",%progbits
	.hidden	HAL_NVIC_SystemReset    @ -- Begin function HAL_NVIC_SystemReset
	.globl	HAL_NVIC_SystemReset
	.p2align	2
	.type	HAL_NVIC_SystemReset,%function
	.code	16                      @ @HAL_NVIC_SystemReset
	.thumb_func
HAL_NVIC_SystemReset:
.Lfunc_begin10:
	.loc	4 235 0                 @ ../Drivers/STM32F1xx_HAL_Driver/Src/stm32f1xx_hal_cortex.c:235:0
	.fnstart
	.cfi_startproc
@ %bb.0:
	.loc	4 237 3 prologue_end    @ ../Drivers/STM32F1xx_HAL_Driver/Src/stm32f1xx_hal_cortex.c:237:3
	bl	NVIC_SystemReset
.Ltmp37:
.Lfunc_end10:
	.size	HAL_NVIC_SystemReset, .Lfunc_end10-HAL_NVIC_SystemReset
	.cfi_endproc
	.cantunwind
	.fnend
                                        @ -- End function
	.section	.text.NVIC_SystemReset,"ax",%progbits
	.p2align	2               @ -- Begin function NVIC_SystemReset
	.type	NVIC_SystemReset,%function
	.code	16                      @ @NVIC_SystemReset
	.thumb_func
NVIC_SystemReset:
.Lfunc_begin11:
	.loc	3 1716 0                @ C:/Keil/ARM/PACK/ARM/CMSIS/5.0.0/CMSIS/Include\core_cm3.h:1716:0
	.fnstart
	.cfi_startproc
@ %bb.0:
	.loc	3 1717 3 prologue_end   @ C:/Keil/ARM/PACK/ARM/CMSIS/5.0.0/CMSIS/Include\core_cm3.h:1717:3
	dsb	sy
	movw	r0, #60684
	movt	r0, #57344
	.loc	3 1720 34               @ C:/Keil/ARM/PACK/ARM/CMSIS/5.0.0/CMSIS/Include\core_cm3.h:1720:34
	ldr	r1, [r0]
	.loc	3 1720 40 is_stmt 0     @ C:/Keil/ARM/PACK/ARM/CMSIS/5.0.0/CMSIS/Include\core_cm3.h:1720:40
	and	r1, r1, #1792
	.loc	3 1720 66               @ C:/Keil/ARM/PACK/ARM/CMSIS/5.0.0/CMSIS/Include\core_cm3.h:1720:66
	movs	r2, #4
	movt	r2, #1530
	orrs	r1, r2
	.loc	3 1719 15 is_stmt 1     @ C:/Keil/ARM/PACK/ARM/CMSIS/5.0.0/CMSIS/Include\core_cm3.h:1719:15
	str	r1, [r0]
	.loc	3 1722 3                @ C:/Keil/ARM/PACK/ARM/CMSIS/5.0.0/CMSIS/Include\core_cm3.h:1722:3
	dsb	sy
	.p2align	2
.LBB11_1:                               @ =>This Inner Loop Header: Depth=1
.Ltmp38:
	.loc	3 1726 5                @ C:/Keil/ARM/PACK/ARM/CMSIS/5.0.0/CMSIS/Include\core_cm3.h:1726:5
	nop
.Ltmp39:
	.loc	3 1724 3                @ C:/Keil/ARM/PACK/ARM/CMSIS/5.0.0/CMSIS/Include\core_cm3.h:1724:3
	b	.LBB11_1
.Ltmp40:
.Lfunc_end11:
	.size	NVIC_SystemReset, .Lfunc_end11-NVIC_SystemReset
	.cfi_endproc
	.cantunwind
	.fnend
                                        @ -- End function
	.section	.text.HAL_SYSTICK_Config,"ax",%progbits
	.hidden	HAL_SYSTICK_Config      @ -- Begin function HAL_SYSTICK_Config
	.globl	HAL_SYSTICK_Config
	.p2align	2
	.type	HAL_SYSTICK_Config,%function
	.code	16                      @ @HAL_SYSTICK_Config
	.thumb_func
HAL_SYSTICK_Config:
.Lfunc_begin12:
	.loc	4 248 0                 @ ../Drivers/STM32F1xx_HAL_Driver/Src/stm32f1xx_hal_cortex.c:248:0
	.fnstart
	.cfi_startproc
@ %bb.0:
	@DEBUG_VALUE: HAL_SYSTICK_Config:TicksNumb <- $r0
	@DEBUG_VALUE: HAL_SYSTICK_Config:TicksNumb <- $r0
	@DEBUG_VALUE: HAL_SYSTICK_Config:TicksNumb <- $r0
	.loc	4 249 11 prologue_end   @ ../Drivers/STM32F1xx_HAL_Driver/Src/stm32f1xx_hal_cortex.c:249:11
	b	SysTick_Config
.Ltmp41:
.Lfunc_end12:
	.size	HAL_SYSTICK_Config, .Lfunc_end12-HAL_SYSTICK_Config
	.cfi_endproc
	.cantunwind
	.fnend
                                        @ -- End function
	.section	.text.SysTick_Config,"ax",%progbits
	.p2align	2               @ -- Begin function SysTick_Config
	.type	SysTick_Config,%function
	.code	16                      @ @SysTick_Config
	.thumb_func
SysTick_Config:
.Lfunc_begin13:
	.loc	3 1781 0                @ C:/Keil/ARM/PACK/ARM/CMSIS/5.0.0/CMSIS/Include\core_cm3.h:1781:0
	.fnstart
	.cfi_startproc
@ %bb.0:
	.save	{r4, r5, r7, lr}
	push	{r4, r5, r7, lr}
	.cfi_def_cfa_offset 16
	.cfi_offset lr, -4
	.cfi_offset r7, -8
	.cfi_offset r5, -12
	.cfi_offset r4, -16
	@DEBUG_VALUE: SysTick_Config:ticks <- $r0
	@DEBUG_VALUE: SysTick_Config:ticks <- $r0
.Ltmp42:
	.loc	3 1782 14 prologue_end  @ C:/Keil/ARM/PACK/ARM/CMSIS/5.0.0/CMSIS/Include\core_cm3.h:1782:14
	subs	r0, #1
.Ltmp43:
	.loc	3 1782 7 is_stmt 0      @ C:/Keil/ARM/PACK/ARM/CMSIS/5.0.0/CMSIS/Include\core_cm3.h:1782:7
	movs	r4, #0
	cmp.w	r4, r0, lsr #24
	ittt	ne
	movne	r4, #1
	.loc	3 1794 1 is_stmt 1      @ C:/Keil/ARM/PACK/ARM/CMSIS/5.0.0/CMSIS/Include\core_cm3.h:1794:1
	movne	r0, r4
	popne	{r4, r5, r7, pc}
	movw	r5, #57360
	movt	r5, #57344
	.loc	3 1787 18               @ C:/Keil/ARM/PACK/ARM/CMSIS/5.0.0/CMSIS/Include\core_cm3.h:1787:18
	str	r0, [r5, #4]
	.loc	3 1788 3                @ C:/Keil/ARM/PACK/ARM/CMSIS/5.0.0/CMSIS/Include\core_cm3.h:1788:3
	mov.w	r0, #-1
	movs	r1, #15
	bl	NVIC_SetPriority
	.loc	3 1789 18               @ C:/Keil/ARM/PACK/ARM/CMSIS/5.0.0/CMSIS/Include\core_cm3.h:1789:18
	str	r4, [r5, #8]
	.loc	3 1790 18               @ C:/Keil/ARM/PACK/ARM/CMSIS/5.0.0/CMSIS/Include\core_cm3.h:1790:18
	movs	r0, #7
	str	r0, [r5]
	.loc	3 1794 1                @ C:/Keil/ARM/PACK/ARM/CMSIS/5.0.0/CMSIS/Include\core_cm3.h:1794:1
	mov	r0, r4
	pop	{r4, r5, r7, pc}
.Ltmp44:
.Lfunc_end13:
	.size	SysTick_Config, .Lfunc_end13-SysTick_Config
	.cfi_endproc
	.cantunwind
	.fnend
                                        @ -- End function
	.section	.text.HAL_NVIC_GetPriorityGrouping,"ax",%progbits
	.hidden	HAL_NVIC_GetPriorityGrouping @ -- Begin function HAL_NVIC_GetPriorityGrouping
	.globl	HAL_NVIC_GetPriorityGrouping
	.p2align	2
	.type	HAL_NVIC_GetPriorityGrouping,%function
	.code	16                      @ @HAL_NVIC_GetPriorityGrouping
	.thumb_func
HAL_NVIC_GetPriorityGrouping:
.Lfunc_begin14:
	.loc	4 363 0                 @ ../Drivers/STM32F1xx_HAL_Driver/Src/stm32f1xx_hal_cortex.c:363:0
	.fnstart
	.cfi_startproc
@ %bb.0:
	.loc	4 365 10 prologue_end   @ ../Drivers/STM32F1xx_HAL_Driver/Src/stm32f1xx_hal_cortex.c:365:10
	b	NVIC_GetPriorityGrouping
.Ltmp45:
.Lfunc_end14:
	.size	HAL_NVIC_GetPriorityGrouping, .Lfunc_end14-HAL_NVIC_GetPriorityGrouping
	.cfi_endproc
	.cantunwind
	.fnend
                                        @ -- End function
	.section	.text.HAL_NVIC_GetPriority,"ax",%progbits
	.hidden	HAL_NVIC_GetPriority    @ -- Begin function HAL_NVIC_GetPriority
	.globl	HAL_NVIC_GetPriority
	.p2align	2
	.type	HAL_NVIC_GetPriority,%function
	.code	16                      @ @HAL_NVIC_GetPriority
	.thumb_func
HAL_NVIC_GetPriority:
.Lfunc_begin15:
	.loc	4 390 0                 @ ../Drivers/STM32F1xx_HAL_Driver/Src/stm32f1xx_hal_cortex.c:390:0
	.fnstart
	.cfi_startproc
@ %bb.0:
	.save	{r4, r5, r6, lr}
	push	{r4, r5, r6, lr}
	.cfi_def_cfa_offset 16
	.cfi_offset lr, -4
	.cfi_offset r6, -8
	.cfi_offset r5, -12
	.cfi_offset r4, -16
	@DEBUG_VALUE: HAL_NVIC_GetPriority:IRQn <- $r0
	@DEBUG_VALUE: HAL_NVIC_GetPriority:PriorityGroup <- $r1
	@DEBUG_VALUE: HAL_NVIC_GetPriority:pPreemptPriority <- $r2
	@DEBUG_VALUE: HAL_NVIC_GetPriority:pSubPriority <- $r3
	mov	r4, r3
	mov	r5, r2
	mov	r6, r1
.Ltmp46:
	@DEBUG_VALUE: HAL_NVIC_GetPriority:pSubPriority <- $r4
	@DEBUG_VALUE: HAL_NVIC_GetPriority:pPreemptPriority <- $r5
	@DEBUG_VALUE: HAL_NVIC_GetPriority:PriorityGroup <- $r6
	@DEBUG_VALUE: HAL_NVIC_GetPriority:IRQn <- $r0
	@DEBUG_VALUE: HAL_NVIC_GetPriority:IRQn <- $r0
	.loc	4 394 23 prologue_end   @ ../Drivers/STM32F1xx_HAL_Driver/Src/stm32f1xx_hal_cortex.c:394:23
	bl	NVIC_GetPriority
.Ltmp47:
	.loc	4 394 3 is_stmt 0       @ ../Drivers/STM32F1xx_HAL_Driver/Src/stm32f1xx_hal_cortex.c:394:3
	mov	r1, r6
.Ltmp48:
	@DEBUG_VALUE: HAL_NVIC_GetPriority:PriorityGroup <- $r1
	mov	r2, r5
.Ltmp49:
	@DEBUG_VALUE: HAL_NVIC_GetPriority:pPreemptPriority <- $r2
	mov	r3, r4
.Ltmp50:
	@DEBUG_VALUE: HAL_NVIC_GetPriority:pSubPriority <- $r3
	pop.w	{r4, r5, r6, lr}
	b	NVIC_DecodePriority
.Ltmp51:
.Lfunc_end15:
	.size	HAL_NVIC_GetPriority, .Lfunc_end15-HAL_NVIC_GetPriority
	.cfi_endproc
	.cantunwind
	.fnend
                                        @ -- End function
	.section	.text.NVIC_DecodePriority,"ax",%progbits
	.p2align	2               @ -- Begin function NVIC_DecodePriority
	.type	NVIC_DecodePriority,%function
	.code	16                      @ @NVIC_DecodePriority
	.thumb_func
NVIC_DecodePriority:
.Lfunc_begin16:
	.loc	3 1667 0 is_stmt 1      @ C:/Keil/ARM/PACK/ARM/CMSIS/5.0.0/CMSIS/Include\core_cm3.h:1667:0
	.fnstart
	.cfi_startproc
@ %bb.0:
	.save	{r4, lr}
	push	{r4, lr}
	.cfi_def_cfa_offset 8
	.cfi_offset lr, -4
	.cfi_offset r4, -8
	@DEBUG_VALUE: NVIC_DecodePriority:Priority <- $r0
	@DEBUG_VALUE: NVIC_DecodePriority:Priority <- $r0
	@DEBUG_VALUE: NVIC_DecodePriority:PriorityGroup <- $r1
	@DEBUG_VALUE: NVIC_DecodePriority:PriorityGroup <- $r1
	@DEBUG_VALUE: NVIC_DecodePriority:pPreemptPriority <- $r2
	@DEBUG_VALUE: NVIC_DecodePriority:pPreemptPriority <- $r2
	@DEBUG_VALUE: NVIC_DecodePriority:pSubPriority <- $r3
	@DEBUG_VALUE: NVIC_DecodePriority:pSubPriority <- $r3
.Ltmp52:
	.loc	3 1668 46 prologue_end  @ C:/Keil/ARM/PACK/ARM/CMSIS/5.0.0/CMSIS/Include\core_cm3.h:1668:46
	and	lr, r1, #7
.Ltmp53:
	@DEBUG_VALUE: NVIC_DecodePriority:PriorityGroupTmp <- $lr
	.loc	3 1673 44               @ C:/Keil/ARM/PACK/ARM/CMSIS/5.0.0/CMSIS/Include\core_cm3.h:1673:44
	add.w	r12, lr, #4
	.loc	3 1673 147 is_stmt 0    @ C:/Keil/ARM/PACK/ARM/CMSIS/5.0.0/CMSIS/Include\core_cm3.h:1673:147
	sub.w	r4, lr, #3
	.loc	3 1673 25               @ C:/Keil/ARM/PACK/ARM/CMSIS/5.0.0/CMSIS/Include\core_cm3.h:1673:25
	cmp.w	r12, #7
	it	lo
	movlo	r4, #0
.Ltmp54:
	@DEBUG_VALUE: NVIC_DecodePriority:SubPriorityBits <- $r4
	.loc	3 1675 33 is_stmt 1     @ C:/Keil/ARM/PACK/ARM/CMSIS/5.0.0/CMSIS/Include\core_cm3.h:1675:33
	lsr.w	r12, r0, r4
	.loc	3 1672 31               @ C:/Keil/ARM/PACK/ARM/CMSIS/5.0.0/CMSIS/Include\core_cm3.h:1672:31
	eor	r1, lr, #7
.Ltmp55:
	.loc	3 1672 25 is_stmt 0     @ C:/Keil/ARM/PACK/ARM/CMSIS/5.0.0/CMSIS/Include\core_cm3.h:1672:25
	cmp	r1, #4
	it	hs
	movhs	r1, #4
.Ltmp56:
	@DEBUG_VALUE: NVIC_DecodePriority:PreemptPriorityBits <- $r1
	.loc	3 1675 71 is_stmt 1     @ C:/Keil/ARM/PACK/ARM/CMSIS/5.0.0/CMSIS/Include\core_cm3.h:1675:71
	mov.w	lr, #1
.Ltmp57:
	lsl.w	r1, lr, r1
.Ltmp58:
	.loc	3 1675 97 is_stmt 0     @ C:/Keil/ARM/PACK/ARM/CMSIS/5.0.0/CMSIS/Include\core_cm3.h:1675:97
	subs	r1, #1
	.loc	3 1675 53               @ C:/Keil/ARM/PACK/ARM/CMSIS/5.0.0/CMSIS/Include\core_cm3.h:1675:53
	and.w	r1, r1, r12
	.loc	3 1675 21               @ C:/Keil/ARM/PACK/ARM/CMSIS/5.0.0/CMSIS/Include\core_cm3.h:1675:21
	str	r1, [r2]
	.loc	3 1676 71 is_stmt 1     @ C:/Keil/ARM/PACK/ARM/CMSIS/5.0.0/CMSIS/Include\core_cm3.h:1676:71
	lsl.w	r1, lr, r4
	.loc	3 1676 97 is_stmt 0     @ C:/Keil/ARM/PACK/ARM/CMSIS/5.0.0/CMSIS/Include\core_cm3.h:1676:97
	subs	r1, #1
	.loc	3 1676 53               @ C:/Keil/ARM/PACK/ARM/CMSIS/5.0.0/CMSIS/Include\core_cm3.h:1676:53
	ands	r0, r1
.Ltmp59:
	.loc	3 1676 21               @ C:/Keil/ARM/PACK/ARM/CMSIS/5.0.0/CMSIS/Include\core_cm3.h:1676:21
	str	r0, [r3]
	.loc	3 1677 1 is_stmt 1      @ C:/Keil/ARM/PACK/ARM/CMSIS/5.0.0/CMSIS/Include\core_cm3.h:1677:1
	pop	{r4, pc}
.Ltmp60:
.Lfunc_end16:
	.size	NVIC_DecodePriority, .Lfunc_end16-NVIC_DecodePriority
	.cfi_endproc
	.cantunwind
	.fnend
                                        @ -- End function
	.section	.text.NVIC_GetPriority,"ax",%progbits
	.p2align	2               @ -- Begin function NVIC_GetPriority
	.type	NVIC_GetPriority,%function
	.code	16                      @ @NVIC_GetPriority
	.thumb_func
NVIC_GetPriority:
.Lfunc_begin17:
	.loc	3 1615 0                @ C:/Keil/ARM/PACK/ARM/CMSIS/5.0.0/CMSIS/Include\core_cm3.h:1615:0
	.fnstart
	.cfi_startproc
@ %bb.0:
	@DEBUG_VALUE: NVIC_GetPriority:IRQn <- $r0
	@DEBUG_VALUE: NVIC_GetPriority:IRQn <- $r0
	.loc	3 1619 23 prologue_end  @ C:/Keil/ARM/PACK/ARM/CMSIS/5.0.0/CMSIS/Include\core_cm3.h:1619:23
	add.w	r1, r0, #3758096384
.Ltmp61:
	.loc	3 1623 59               @ C:/Keil/ARM/PACK/ARM/CMSIS/5.0.0/CMSIS/Include\core_cm3.h:1623:59
	and	r2, r0, #15
	.loc	3 1623 23 is_stmt 0     @ C:/Keil/ARM/PACK/ARM/CMSIS/5.0.0/CMSIS/Include\core_cm3.h:1623:23
	movw	r3, #60692
	movt	r3, #57344
	add	r2, r3
.Ltmp62:
	.loc	3 1617 7 is_stmt 1      @ C:/Keil/ARM/PACK/ARM/CMSIS/5.0.0/CMSIS/Include\core_cm3.h:1617:7
	cmp.w	r0, #-1
	it	gt
	addgt.w	r2, r1, #58368
	ldrb	r0, [r2]
.Ltmp63:
	.loc	3 0 7 is_stmt 0         @ C:/Keil/ARM/PACK/ARM/CMSIS/5.0.0/CMSIS/Include\core_cm3.h:0:7
	lsrs	r0, r0, #4
	.loc	3 1625 1 is_stmt 1      @ C:/Keil/ARM/PACK/ARM/CMSIS/5.0.0/CMSIS/Include\core_cm3.h:1625:1
	bx	lr
.Ltmp64:
.Lfunc_end17:
	.size	NVIC_GetPriority, .Lfunc_end17-NVIC_GetPriority
	.cfi_endproc
	.cantunwind
	.fnend
                                        @ -- End function
	.section	.text.HAL_NVIC_SetPendingIRQ,"ax",%progbits
	.hidden	HAL_NVIC_SetPendingIRQ  @ -- Begin function HAL_NVIC_SetPendingIRQ
	.globl	HAL_NVIC_SetPendingIRQ
	.p2align	2
	.type	HAL_NVIC_SetPendingIRQ,%function
	.code	16                      @ @HAL_NVIC_SetPendingIRQ
	.thumb_func
HAL_NVIC_SetPendingIRQ:
.Lfunc_begin18:
	.loc	4 405 0                 @ ../Drivers/STM32F1xx_HAL_Driver/Src/stm32f1xx_hal_cortex.c:405:0
	.fnstart
	.cfi_startproc
@ %bb.0:
	@DEBUG_VALUE: HAL_NVIC_SetPendingIRQ:IRQn <- $r0
	@DEBUG_VALUE: HAL_NVIC_SetPendingIRQ:IRQn <- $r0
	@DEBUG_VALUE: HAL_NVIC_SetPendingIRQ:IRQn <- $r0
	.loc	4 410 3 prologue_end    @ ../Drivers/STM32F1xx_HAL_Driver/Src/stm32f1xx_hal_cortex.c:410:3
	b	NVIC_SetPendingIRQ
.Ltmp65:
.Lfunc_end18:
	.size	HAL_NVIC_SetPendingIRQ, .Lfunc_end18-HAL_NVIC_SetPendingIRQ
	.cfi_endproc
	.cantunwind
	.fnend
                                        @ -- End function
	.section	.text.NVIC_SetPendingIRQ,"ax",%progbits
	.p2align	2               @ -- Begin function NVIC_SetPendingIRQ
	.type	NVIC_SetPendingIRQ,%function
	.code	16                      @ @NVIC_SetPendingIRQ
	.thumb_func
NVIC_SetPendingIRQ:
.Lfunc_begin19:
	.loc	3 1539 0                @ C:/Keil/ARM/PACK/ARM/CMSIS/5.0.0/CMSIS/Include\core_cm3.h:1539:0
	.fnstart
	.cfi_startproc
@ %bb.0:
	@DEBUG_VALUE: NVIC_SetPendingIRQ:IRQn <- $r0
	@DEBUG_VALUE: NVIC_SetPendingIRQ:IRQn <- $r0
	.loc	3 1540 7 prologue_end   @ C:/Keil/ARM/PACK/ARM/CMSIS/5.0.0/CMSIS/Include\core_cm3.h:1540:7
	cmp	r0, #0
	.loc	3 1544 1                @ C:/Keil/ARM/PACK/ARM/CMSIS/5.0.0/CMSIS/Include\core_cm3.h:1544:1
	it	lt
	bxlt	lr
.Ltmp66:
	.loc	3 1542 99               @ C:/Keil/ARM/PACK/ARM/CMSIS/5.0.0/CMSIS/Include\core_cm3.h:1542:99
	and	r1, r0, #31
	.loc	3 1542 69 is_stmt 0     @ C:/Keil/ARM/PACK/ARM/CMSIS/5.0.0/CMSIS/Include\core_cm3.h:1542:69
	movs	r2, #1
	lsl.w	r1, r2, r1
	.loc	3 1542 43               @ C:/Keil/ARM/PACK/ARM/CMSIS/5.0.0/CMSIS/Include\core_cm3.h:1542:43
	lsrs	r0, r0, #5
.Ltmp67:
	.loc	3 1542 5                @ C:/Keil/ARM/PACK/ARM/CMSIS/5.0.0/CMSIS/Include\core_cm3.h:1542:5
	movw	r2, #57856
	movt	r2, #57344
	.loc	3 1542 52               @ C:/Keil/ARM/PACK/ARM/CMSIS/5.0.0/CMSIS/Include\core_cm3.h:1542:52
	str.w	r1, [r2, r0, lsl #2]
.Ltmp68:
	.loc	3 1544 1 is_stmt 1      @ C:/Keil/ARM/PACK/ARM/CMSIS/5.0.0/CMSIS/Include\core_cm3.h:1544:1
	bx	lr
.Ltmp69:
.Lfunc_end19:
	.size	NVIC_SetPendingIRQ, .Lfunc_end19-NVIC_SetPendingIRQ
	.cfi_endproc
	.cantunwind
	.fnend
                                        @ -- End function
	.section	.text.HAL_NVIC_GetPendingIRQ,"ax",%progbits
	.hidden	HAL_NVIC_GetPendingIRQ  @ -- Begin function HAL_NVIC_GetPendingIRQ
	.globl	HAL_NVIC_GetPendingIRQ
	.p2align	2
	.type	HAL_NVIC_GetPendingIRQ,%function
	.code	16                      @ @HAL_NVIC_GetPendingIRQ
	.thumb_func
HAL_NVIC_GetPendingIRQ:
.Lfunc_begin20:
	.loc	4 423 0                 @ ../Drivers/STM32F1xx_HAL_Driver/Src/stm32f1xx_hal_cortex.c:423:0
	.fnstart
	.cfi_startproc
@ %bb.0:
	@DEBUG_VALUE: HAL_NVIC_GetPendingIRQ:IRQn <- $r0
	@DEBUG_VALUE: HAL_NVIC_GetPendingIRQ:IRQn <- $r0
	@DEBUG_VALUE: HAL_NVIC_GetPendingIRQ:IRQn <- $r0
	.loc	4 428 10 prologue_end   @ ../Drivers/STM32F1xx_HAL_Driver/Src/stm32f1xx_hal_cortex.c:428:10
	b	NVIC_GetPendingIRQ
.Ltmp70:
.Lfunc_end20:
	.size	HAL_NVIC_GetPendingIRQ, .Lfunc_end20-HAL_NVIC_GetPendingIRQ
	.cfi_endproc
	.cantunwind
	.fnend
                                        @ -- End function
	.section	.text.NVIC_GetPendingIRQ,"ax",%progbits
	.p2align	2               @ -- Begin function NVIC_GetPendingIRQ
	.type	NVIC_GetPendingIRQ,%function
	.code	16                      @ @NVIC_GetPendingIRQ
	.thumb_func
NVIC_GetPendingIRQ:
.Lfunc_begin21:
	.loc	3 1520 0                @ C:/Keil/ARM/PACK/ARM/CMSIS/5.0.0/CMSIS/Include\core_cm3.h:1520:0
	.fnstart
	.cfi_startproc
@ %bb.0:
	@DEBUG_VALUE: NVIC_GetPendingIRQ:IRQn <- $r0
	@DEBUG_VALUE: NVIC_GetPendingIRQ:IRQn <- $r0
	.loc	3 1521 7 prologue_end   @ C:/Keil/ARM/PACK/ARM/CMSIS/5.0.0/CMSIS/Include\core_cm3.h:1521:7
	cmp	r0, #0
	itt	lt
	movlt	r0, #0
.Ltmp71:
	.loc	3 1529 1                @ C:/Keil/ARM/PACK/ARM/CMSIS/5.0.0/CMSIS/Include\core_cm3.h:1529:1
	bxlt	lr
.Ltmp72:
	.loc	3 1523 109              @ C:/Keil/ARM/PACK/ARM/CMSIS/5.0.0/CMSIS/Include\core_cm3.h:1523:109
	and	r1, r0, #31
	movs	r2, #1
	.loc	3 1523 79 is_stmt 0     @ C:/Keil/ARM/PACK/ARM/CMSIS/5.0.0/CMSIS/Include\core_cm3.h:1523:79
	lsl.w	r1, r2, r1
	.loc	3 1523 63               @ C:/Keil/ARM/PACK/ARM/CMSIS/5.0.0/CMSIS/Include\core_cm3.h:1523:63
	lsrs	r0, r0, #5
	.loc	3 1523 25               @ C:/Keil/ARM/PACK/ARM/CMSIS/5.0.0/CMSIS/Include\core_cm3.h:1523:25
	movw	r2, #57856
	movt	r2, #57344
	ldr.w	r0, [r2, r0, lsl #2]
	.loc	3 1523 72               @ C:/Keil/ARM/PACK/ARM/CMSIS/5.0.0/CMSIS/Include\core_cm3.h:1523:72
	ands	r0, r1
	.loc	3 1523 121              @ C:/Keil/ARM/PACK/ARM/CMSIS/5.0.0/CMSIS/Include\core_cm3.h:1523:121
	it	ne
	movne	r0, #1
.Ltmp73:
	.loc	3 1529 1 is_stmt 1      @ C:/Keil/ARM/PACK/ARM/CMSIS/5.0.0/CMSIS/Include\core_cm3.h:1529:1
	bx	lr
.Ltmp74:
.Lfunc_end21:
	.size	NVIC_GetPendingIRQ, .Lfunc_end21-NVIC_GetPendingIRQ
	.cfi_endproc
	.cantunwind
	.fnend
                                        @ -- End function
	.section	.text.HAL_NVIC_ClearPendingIRQ,"ax",%progbits
	.hidden	HAL_NVIC_ClearPendingIRQ @ -- Begin function HAL_NVIC_ClearPendingIRQ
	.globl	HAL_NVIC_ClearPendingIRQ
	.p2align	2
	.type	HAL_NVIC_ClearPendingIRQ,%function
	.code	16                      @ @HAL_NVIC_ClearPendingIRQ
	.thumb_func
HAL_NVIC_ClearPendingIRQ:
.Lfunc_begin22:
	.loc	4 439 0                 @ ../Drivers/STM32F1xx_HAL_Driver/Src/stm32f1xx_hal_cortex.c:439:0
	.fnstart
	.cfi_startproc
@ %bb.0:
	@DEBUG_VALUE: HAL_NVIC_ClearPendingIRQ:IRQn <- $r0
	@DEBUG_VALUE: HAL_NVIC_ClearPendingIRQ:IRQn <- $r0
	@DEBUG_VALUE: HAL_NVIC_ClearPendingIRQ:IRQn <- $r0
	.loc	4 444 3 prologue_end    @ ../Drivers/STM32F1xx_HAL_Driver/Src/stm32f1xx_hal_cortex.c:444:3
	b	NVIC_ClearPendingIRQ
.Ltmp75:
.Lfunc_end22:
	.size	HAL_NVIC_ClearPendingIRQ, .Lfunc_end22-HAL_NVIC_ClearPendingIRQ
	.cfi_endproc
	.cantunwind
	.fnend
                                        @ -- End function
	.section	.text.NVIC_ClearPendingIRQ,"ax",%progbits
	.p2align	2               @ -- Begin function NVIC_ClearPendingIRQ
	.type	NVIC_ClearPendingIRQ,%function
	.code	16                      @ @NVIC_ClearPendingIRQ
	.thumb_func
NVIC_ClearPendingIRQ:
.Lfunc_begin23:
	.loc	3 1554 0                @ C:/Keil/ARM/PACK/ARM/CMSIS/5.0.0/CMSIS/Include\core_cm3.h:1554:0
	.fnstart
	.cfi_startproc
@ %bb.0:
	@DEBUG_VALUE: NVIC_ClearPendingIRQ:IRQn <- $r0
	@DEBUG_VALUE: NVIC_ClearPendingIRQ:IRQn <- $r0
	.loc	3 1555 7 prologue_end   @ C:/Keil/ARM/PACK/ARM/CMSIS/5.0.0/CMSIS/Include\core_cm3.h:1555:7
	cmp	r0, #0
	.loc	3 1559 1                @ C:/Keil/ARM/PACK/ARM/CMSIS/5.0.0/CMSIS/Include\core_cm3.h:1559:1
	it	lt
	bxlt	lr
.Ltmp76:
	.loc	3 1557 99               @ C:/Keil/ARM/PACK/ARM/CMSIS/5.0.0/CMSIS/Include\core_cm3.h:1557:99
	and	r1, r0, #31
	.loc	3 1557 69 is_stmt 0     @ C:/Keil/ARM/PACK/ARM/CMSIS/5.0.0/CMSIS/Include\core_cm3.h:1557:69
	movs	r2, #1
	lsl.w	r1, r2, r1
	.loc	3 1557 43               @ C:/Keil/ARM/PACK/ARM/CMSIS/5.0.0/CMSIS/Include\core_cm3.h:1557:43
	lsrs	r0, r0, #5
.Ltmp77:
	.loc	3 1557 5                @ C:/Keil/ARM/PACK/ARM/CMSIS/5.0.0/CMSIS/Include\core_cm3.h:1557:5
	movw	r2, #57984
	movt	r2, #57344
	.loc	3 1557 52               @ C:/Keil/ARM/PACK/ARM/CMSIS/5.0.0/CMSIS/Include\core_cm3.h:1557:52
	str.w	r1, [r2, r0, lsl #2]
.Ltmp78:
	.loc	3 1559 1 is_stmt 1      @ C:/Keil/ARM/PACK/ARM/CMSIS/5.0.0/CMSIS/Include\core_cm3.h:1559:1
	bx	lr
.Ltmp79:
.Lfunc_end23:
	.size	NVIC_ClearPendingIRQ, .Lfunc_end23-NVIC_ClearPendingIRQ
	.cfi_endproc
	.cantunwind
	.fnend
                                        @ -- End function
	.section	.text.HAL_NVIC_GetActive,"ax",%progbits
	.hidden	HAL_NVIC_GetActive      @ -- Begin function HAL_NVIC_GetActive
	.globl	HAL_NVIC_GetActive
	.p2align	2
	.type	HAL_NVIC_GetActive,%function
	.code	16                      @ @HAL_NVIC_GetActive
	.thumb_func
HAL_NVIC_GetActive:
.Lfunc_begin24:
	.loc	4 456 0                 @ ../Drivers/STM32F1xx_HAL_Driver/Src/stm32f1xx_hal_cortex.c:456:0
	.fnstart
	.cfi_startproc
@ %bb.0:
	@DEBUG_VALUE: HAL_NVIC_GetActive:IRQn <- $r0
	@DEBUG_VALUE: HAL_NVIC_GetActive:IRQn <- $r0
	@DEBUG_VALUE: HAL_NVIC_GetActive:IRQn <- $r0
	.loc	4 461 10 prologue_end   @ ../Drivers/STM32F1xx_HAL_Driver/Src/stm32f1xx_hal_cortex.c:461:10
	b	NVIC_GetActive
.Ltmp80:
.Lfunc_end24:
	.size	HAL_NVIC_GetActive, .Lfunc_end24-HAL_NVIC_GetActive
	.cfi_endproc
	.cantunwind
	.fnend
                                        @ -- End function
	.section	.text.NVIC_GetActive,"ax",%progbits
	.p2align	2               @ -- Begin function NVIC_GetActive
	.type	NVIC_GetActive,%function
	.code	16                      @ @NVIC_GetActive
	.thumb_func
NVIC_GetActive:
.Lfunc_begin25:
	.loc	3 1571 0                @ C:/Keil/ARM/PACK/ARM/CMSIS/5.0.0/CMSIS/Include\core_cm3.h:1571:0
	.fnstart
	.cfi_startproc
@ %bb.0:
	@DEBUG_VALUE: NVIC_GetActive:IRQn <- $r0
	@DEBUG_VALUE: NVIC_GetActive:IRQn <- $r0
	.loc	3 1572 7 prologue_end   @ C:/Keil/ARM/PACK/ARM/CMSIS/5.0.0/CMSIS/Include\core_cm3.h:1572:7
	cmp	r0, #0
	itt	lt
	movlt	r0, #0
.Ltmp81:
	.loc	3 1580 1                @ C:/Keil/ARM/PACK/ARM/CMSIS/5.0.0/CMSIS/Include\core_cm3.h:1580:1
	bxlt	lr
.Ltmp82:
	.loc	3 1574 109              @ C:/Keil/ARM/PACK/ARM/CMSIS/5.0.0/CMSIS/Include\core_cm3.h:1574:109
	and	r1, r0, #31
	movs	r2, #1
	.loc	3 1574 79 is_stmt 0     @ C:/Keil/ARM/PACK/ARM/CMSIS/5.0.0/CMSIS/Include\core_cm3.h:1574:79
	lsl.w	r1, r2, r1
	.loc	3 1574 63               @ C:/Keil/ARM/PACK/ARM/CMSIS/5.0.0/CMSIS/Include\core_cm3.h:1574:63
	lsrs	r0, r0, #5
	.loc	3 1574 25               @ C:/Keil/ARM/PACK/ARM/CMSIS/5.0.0/CMSIS/Include\core_cm3.h:1574:25
	movw	r2, #58112
	movt	r2, #57344
	ldr.w	r0, [r2, r0, lsl #2]
	.loc	3 1574 72               @ C:/Keil/ARM/PACK/ARM/CMSIS/5.0.0/CMSIS/Include\core_cm3.h:1574:72
	ands	r0, r1
	.loc	3 1574 121              @ C:/Keil/ARM/PACK/ARM/CMSIS/5.0.0/CMSIS/Include\core_cm3.h:1574:121
	it	ne
	movne	r0, #1
.Ltmp83:
	.loc	3 1580 1 is_stmt 1      @ C:/Keil/ARM/PACK/ARM/CMSIS/5.0.0/CMSIS/Include\core_cm3.h:1580:1
	bx	lr
.Ltmp84:
.Lfunc_end25:
	.size	NVIC_GetActive, .Lfunc_end25-NVIC_GetActive
	.cfi_endproc
	.cantunwind
	.fnend
                                        @ -- End function
	.section	.text.HAL_SYSTICK_CLKSourceConfig,"ax",%progbits
	.hidden	HAL_SYSTICK_CLKSourceConfig @ -- Begin function HAL_SYSTICK_CLKSourceConfig
	.globl	HAL_SYSTICK_CLKSourceConfig
	.p2align	2
	.type	HAL_SYSTICK_CLKSourceConfig,%function
	.code	16                      @ @HAL_SYSTICK_CLKSourceConfig
	.thumb_func
HAL_SYSTICK_CLKSourceConfig:
.Lfunc_begin26:
	.loc	4 473 0                 @ ../Drivers/STM32F1xx_HAL_Driver/Src/stm32f1xx_hal_cortex.c:473:0
	.fnstart
	.cfi_startproc
@ %bb.0:
	@DEBUG_VALUE: HAL_SYSTICK_CLKSourceConfig:CLKSource <- $r0
	movw	r1, #57360
	movt	r1, #57344
	ldr	r2, [r1]
	@DEBUG_VALUE: HAL_SYSTICK_CLKSourceConfig:CLKSource <- $r0
.Ltmp85:
	.loc	4 482 19 prologue_end   @ ../Drivers/STM32F1xx_HAL_Driver/Src/stm32f1xx_hal_cortex.c:482:19
	bic	r3, r2, #4
.Ltmp86:
	.loc	4 476 7                 @ ../Drivers/STM32F1xx_HAL_Driver/Src/stm32f1xx_hal_cortex.c:476:7
	cmp	r0, #4
	it	eq
	orreq	r3, r2, #4
	str	r3, [r1]
	.loc	4 484 1                 @ ../Drivers/STM32F1xx_HAL_Driver/Src/stm32f1xx_hal_cortex.c:484:1
	bx	lr
.Ltmp87:
.Lfunc_end26:
	.size	HAL_SYSTICK_CLKSourceConfig, .Lfunc_end26-HAL_SYSTICK_CLKSourceConfig
	.cfi_endproc
	.cantunwind
	.fnend
                                        @ -- End function
	.section	.text.HAL_SYSTICK_IRQHandler,"ax",%progbits
	.hidden	HAL_SYSTICK_IRQHandler  @ -- Begin function HAL_SYSTICK_IRQHandler
	.globl	HAL_SYSTICK_IRQHandler
	.p2align	2
	.type	HAL_SYSTICK_IRQHandler,%function
	.code	16                      @ @HAL_SYSTICK_IRQHandler
	.thumb_func
HAL_SYSTICK_IRQHandler:
.Lfunc_begin27:
	.loc	4 491 0                 @ ../Drivers/STM32F1xx_HAL_Driver/Src/stm32f1xx_hal_cortex.c:491:0
	.fnstart
	.cfi_startproc
@ %bb.0:
	.loc	4 492 3 prologue_end    @ ../Drivers/STM32F1xx_HAL_Driver/Src/stm32f1xx_hal_cortex.c:492:3
	b	HAL_SYSTICK_Callback
.Ltmp88:
.Lfunc_end27:
	.size	HAL_SYSTICK_IRQHandler, .Lfunc_end27-HAL_SYSTICK_IRQHandler
	.cfi_endproc
	.cantunwind
	.fnend
                                        @ -- End function
	.section	.text.HAL_SYSTICK_Callback,"ax",%progbits
	.hidden	HAL_SYSTICK_Callback    @ -- Begin function HAL_SYSTICK_Callback
	.weak	HAL_SYSTICK_Callback
	.p2align	2
	.type	HAL_SYSTICK_Callback,%function
	.code	16                      @ @HAL_SYSTICK_Callback
	.thumb_func
HAL_SYSTICK_Callback:
.Lfunc_begin28:
	.loc	4 500 0                 @ ../Drivers/STM32F1xx_HAL_Driver/Src/stm32f1xx_hal_cortex.c:500:0
	.fnstart
	.cfi_startproc
@ %bb.0:
	.loc	4 504 1 prologue_end    @ ../Drivers/STM32F1xx_HAL_Driver/Src/stm32f1xx_hal_cortex.c:504:1
	bx	lr
.Ltmp89:
.Lfunc_end28:
	.size	HAL_SYSTICK_Callback, .Lfunc_end28-HAL_SYSTICK_Callback
	.cfi_endproc
	.cantunwind
	.fnend
                                        @ -- End function
	.section	".note.GNU-stack","",%progbits
	.eabi_attribute	30, 1	@ Tag_ABI_optimization_goals
	.ARM_attribute	16, 1	@ Tag_AV_eba