	.text
	.syntax unified
	.eabi_attribute	67, "2.09"	@ Tag_conformance
	.cpu	cortex-m3
	.eabi_attribute	6, 10	@ Tag_CPU_arch
	.eabi_attribute	7, 77	@ Tag_CPU_arch_profile
	.eabi_attribute	8, 0	@ Tag_ARM_ISA_use
	.eabi_attribute	9, 2	@ Tag_THUMB_ISA_use
	.eabi_attribute	34, 1	@ Tag_CPU_unaligned_access
	.eabi_attribute	17, 1	@ Tag_ABI_PCS_GOT_use
	.eabi_attribute	20, 2	@ Tag_ABI_FP_denormal
	.eabi_attribute	21, 0	@ Tag_ABI_FP_exceptions
	.eabi_attribute	23, 1	@ Tag_ABI_FP_number_model
	.eabi_attribute	24, 1	@ Tag_ABI_align_needed
	.eabi_attribute	25, 1	@ Tag_ABI_align_preserved
	.eabi_attribute	38, 1	@ Tag_ABI_FP_16bit_format
	.eabi_attribute	18, 4	@ Tag_ABI_PCS_wchar_t
	.eabi_attribute	26, 2	@ Tag_ABI_enum_size
	.eabi_attribute	14, 0	@ Tag_ABI_PCS_R9_use
	.file	"stm32f1xx_hal.c"
	.file	1 "C:\\Keil\\ARM\\ARMCLANG\\Bin\\..\\include" "stdint.h"
	.file	2 "../Drivers/STM32F1xx_HAL_Driver/Src" "stm32f1xx_hal.c"
	.file	3 "../Drivers/STM32F1xx_HAL_Driver/Inc" "stm32f1xx_hal_def.h"
	.file	4 "../Drivers/CMSIS/Device/ST/STM32F1xx/Include" "stm32f103xb.h"
	.file	5 "C:/Keil/ARM/PACK/ARM/CMSIS/5.0.0/CMSIS/Include" "core_cm3.h"
	.section	.text.HAL_Init,"ax",%progbits
	.hidden	HAL_Init                @ -- Begin function HAL_Init
	.globl	HAL_Init
	.p2align	2
	.type	HAL_Init,%function
	.code	16                      @ @HAL_Init
	.thumb_func
HAL_Init:
.Lfunc_begin0:
	.loc	2 159 0                 @ ../Drivers/STM32F1xx_HAL_Driver/Src/stm32f1xx_hal.c:159:0
	.fnstart
	.cfi_sections .debug_frame
	.cfi_startproc
@ %bb.0:
	.save	{r7, lr}
	push	{r7, lr}
	.cfi_def_cfa_offset 8
	.cfi_offset lr, -4
	.cfi_offset r7, -8
.Ltmp0:
	.loc	2 168 3 prologue_end    @ ../Drivers/STM32F1xx_HAL_Driver/Src/stm32f1xx_hal.c:168:3
	movw	r0, #8192
	movt	r0, #16386
	ldr	r1, [r0]
	orr	r1, r1, #16
	str	r1, [r0]
	.loc	2 173 3                 @ ../Drivers/STM32F1xx_HAL_Driver/Src/stm32f1xx_hal.c:173:3
	movs	r0, #3
	bl	HAL_NVIC_SetPriorityGrouping
	.loc	2 176 3                 @ ../Drivers/STM32F1xx_HAL_Driver/Src/stm32f1xx_hal.c:176:3
	movs	r0, #0
	bl	HAL_InitTick
	.loc	2 179 3                 @ ../Drivers/STM32F1xx_HAL_Driver/Src/stm32f1xx_hal.c:179:3
	bl	HAL_MspInit
	.loc	2 182 3                 @ ../Drivers/STM32F1xx_HAL_Driver/Src/stm32f1xx_hal.c:182:3
	movs	r0, #0
	pop	{r7, pc}
.Ltmp1:
.Lfunc_end0:
	.size	HAL_Init, .Lfunc_end0-HAL_Init
	.cfi_endproc
	.cantunwind
	.fnend
                                        @ -- End function
	.section	.text.HAL_InitTick,"ax",%progbits
	.hidden	HAL_InitTick            @ -- Begin function HAL_InitTick
	.weak	HAL_InitTick
	.p2align	2
	.type	HAL_InitTick,%function
	.code	16                      @ @HAL_InitTick
	.thumb_func
HAL_InitTick:
.Lfunc_begin1:
	.loc	2 251 0                 @ ../Drivers/STM32F1xx_HAL_Driver/Src/stm32f1xx_hal.c:251:0
	.fnstart
	.cfi_startproc
@ %bb.0:
	.save	{r4, lr}
	push	{r4, lr}
	.cfi_def_cfa_offset 8
	.cfi_offset lr, -4
	.cfi_offset r4, -8
	@DEBUG_VALUE: HAL_InitTick:TickPriority <- $r0
	mov	r4, r0
.Ltmp2:
	@DEBUG_VALUE: HAL_InitTick:TickPriority <- $r4
	.loc	2 253 22 prologue_end   @ ../Drivers/STM32F1xx_HAL_Driver/Src/stm32f1xx_hal.c:253:22
	movw	r0, :lower16:SystemCoreClock
	movt	r0, :upper16:SystemCoreClock
	ldr	r0, [r0]
	.loc	2 253 37 is_stmt 0      @ ../Drivers/STM32F1xx_HAL_Driver/Src/stm32f1xx_hal.c:253:37
	movw	r1, #19923
	movt	r1, #4194
	umull	r0, r1, r0, r1
	lsrs	r0, r1, #6
	.loc	2 253 3                 @ ../Drivers/STM32F1xx_HAL_Driver/Src/stm32f1xx_hal.c:253:3
	bl	HAL_SYSTICK_Config
	.loc	2 256 3 is_stmt 1       @ ../Drivers/STM32F1xx_HAL_Driver/Src/stm32f1xx_hal.c:256:3
	mov.w	r0, #-1
	mov	r1, r4
.Ltmp3:
	@DEBUG_VALUE: HAL_InitTick:TickPriority <- $r1
	movs	r2, #0
	bl	HAL_NVIC_SetPriority
.Ltmp4:
	.loc	2 259 3                 @ ../Drivers/STM32F1xx_HAL_Driver/Src/stm32f1xx_hal.c:259:3
	movs	r0, #0
	pop	{r4, pc}
.Ltmp5:
.Lfunc_end1:
	.size	HAL_InitTick, .Lfunc_end1-HAL_InitTick
	.cfi_endproc
	.cantunwind
	.fnend
                                        @ -- End function
	.section	.text.HAL_MspInit,"ax",%progbits
	.hidden	HAL_MspInit             @ -- Begin function HAL_MspInit
	.weak	HAL_MspInit
	.p2align	2
	.type	HAL_MspInit,%function
	.code	16                      @ @HAL_MspInit
	.thumb_func
HAL_MspInit:
.Lfunc_begin2:
	.loc	2 217 0                 @ ../Drivers/STM32F1xx_HAL_Driver/Src/stm32f1xx_hal.c:217:0
	.fnstart
	.cfi_startproc
@ %bb.0:
	.loc	2 221 1 prologue_end    @ ../Drivers/STM32F1xx_HAL_Driver/Src/stm32f1xx_hal.c:221:1
	bx	lr
.Ltmp6:
.Lfunc_end2:
	.size	HAL_MspInit, .Lfunc_end2-HAL_MspInit
	.cfi_endproc
	.cantunwind
	.fnend
                                        @ -- End function
	.section	.text.HAL_DeInit,"ax",%progbits
	.hidden	HAL_DeInit              @ -- Begin function HAL_DeInit
	.globl	HAL_DeInit
	.p2align	2
	.type	HAL_DeInit,%function
	.code	16                      @ @HAL_DeInit
	.thumb_func
HAL_DeInit:
.Lfunc_begin3:
	.loc	2 192 0                 @ ../Drivers/STM32F1xx_HAL_Driver/Src/stm32f1xx_hal.c:192:0
	.fnstart
	.cfi_startproc
@ %bb.0:
	.save	{r7, lr}
	push	{r7, lr}
	.cfi_def_cfa_offset 8
	.cfi_offset lr, -4
	.cfi_offset r7, -8
	movw	r0, #4108
	movt	r0, #16386
.Ltmp7:
	.loc	2 194 3 prologue_end    @ ../Drivers/STM32F1xx_HAL_Driver/Src/stm32f1xx_hal.c:194:3
	mov.w	r1, #-1
	str	r1, [r0]
	movs	r2, #0
	.loc	2 195 3                 @ ../Drivers/STM32F1xx_HAL_Driver/Src/stm32f1xx_hal.c:195:3
	str	r2, [r0, #4]
	.loc	2 197 3                 @ ../Drivers/STM32F1xx_HAL_Driver/Src/stm32f1xx_hal.c:197:3
	str	r1, [r0]
	.loc	2 198 3                 @ ../Drivers/STM32F1xx_HAL_Driver/Src/stm32f1xx_hal.c:198:3
	str	r2, [r0]
	.loc	2 206 3                 @ ../Drivers/STM32F1xx_HAL_Driver/Src/stm32f1xx_hal.c:206:3
	bl	HAL_MspDeInit
	.loc	2 209 3                 @ ../Drivers/STM32F1xx_HAL_Driver/Src/stm32f1xx_hal.c:209:3
	movs	r0, #0
	pop	{r7, pc}
.Ltmp8:
.Lfunc_end3:
	.size	HAL_DeInit, .Lfunc_end3-HAL_DeInit
	.cfi_endproc
	.cantunwind
	.fnend
                                        @ -- End function
	.section	.text.HAL_MspDeInit,"ax",%progbits
	.hidden	HAL_MspDeInit           @ -- Begin function HAL_MspDeInit
	.weak	HAL_MspDeInit
	.p2align	2
	.type	HAL_MspDeInit,%function
	.code	16                      @ @HAL_MspDeInit
	.thumb_func
HAL_MspDeInit:
.Lfunc_begin4:
	.loc	2 228 0                 @ ../Drivers/STM32F1xx_HAL_Driver/Src/stm32f1xx_hal.c:228:0
	.fnstart
	.cfi_startproc
@ %bb.0:
	.loc	2 232 1 prologue_end    @ ../Drivers/STM32F1xx_HAL_Driver/Src/stm32f1xx_hal.c:232:1
	bx	lr
.Ltmp9:
.Lfunc_end4:
	.size	HAL_MspDeInit, .Lfunc_end4-HAL_MspDeInit
	.cfi_endproc
	.cantunwind
	.fnend
                                        @ -- End function
	.section	.text.HAL_IncTick,"ax",%progbits
	.hidden	HAL_IncTick             @ -- Begin function HAL_IncTick
	.weak	HAL_IncTick
	.p2align	2
	.type	HAL_IncTick,%function
	.code	16                      @ @HAL_IncTick
	.thumb_func
HAL_IncTick:
.Lfunc_begin5:
	.loc	2 299 0                 @ ../Drivers/STM32F1xx_HAL_Driver/Src/stm32f1xx_hal.c:299:0
	.fnstart
	.cfi_startproc
@ %bb.0:
	.loc	2 300 9 prologue_end    @ ../Drivers/STM32F1xx_HAL_Driver/Src/stm32f1xx_hal.c:300:9
	movw	r0, :lower16:uwTick
	movt	r0, :upper16:uwTick
	ldr	r1, [r0]
	adds	r1, #1
	str	r1, [r0]
	.loc	2 301 1                 @ ../Drivers/STM32F1xx_HAL_Driver/Src/stm32f1xx_hal.c:301:1
	bx	lr
.Ltmp10:
.Lfunc_end5:
	.size	HAL_IncTick, .Lfunc_end5-HAL_IncTick
	.cfi_endproc
	.cantunwind
	.fnend
                                        @ -- End function
	.section	.text.HAL_GetTick,"ax",%progbits
	.hidden	HAL_GetTick             @ -- Begin function HAL_GetTick
	.weak	HAL_GetTick
	.p2align	2
	.type	HAL_GetTick,%function
	.code	16                      @ @HAL_GetTick
	.thumb_func
HAL_GetTick:
.Lfunc_begin6:
	.loc	2 310 0                 @ ../Drivers/STM32F1xx_HAL_Driver/Src/stm32f1xx_hal.c:310:0
	.fnstart
	.cfi_startproc
@ %bb.0:
	.loc	2 311 10 prologue_end   @ ../Drivers/STM32F1xx_HAL_Driver/Src/stm32f1xx_hal.c:311:10
	movw	r0, :lower16:uwTick
	movt	r0, :upper16:uwTick
	ldr	r0, [r0]
	.loc	2 311 3 is_stmt 0       @ ../Drivers/STM32F1xx_HAL_Driver/Src/stm32f1xx_hal.c:311:3
	bx	lr
.Ltmp11:
.Lfunc_end6:
	.size	HAL_GetTick, .Lfunc_end6-HAL_GetTick
	.cfi_endproc
	.cantunwind
	.fnend
                                        @ -- End function
	.section	.text.HAL_Delay,"ax",%progbits
	.hidden	HAL_Delay               @ -- Begin function HAL_Delay
	.weak	HAL_Delay
	.p2align	2
	.type	HAL_Delay,%function
	.code	16                      @ @HAL_Delay
	.thumb_func
HAL_Delay:
.Lfunc_begin7:
	.loc	2 326 0 is_stmt 1       @ ../Drivers/STM32F1xx_HAL_Driver/Src/stm32f1xx_hal.c:326:0
	.fnstart
	.cfi_startproc
@ %bb.0:
	.save	{r4, r5, r7, lr}
	push	{r4, r5, r7, lr}
	.cfi_def_cfa_offset 16
	.cfi_offset lr, -4
	.cfi_offset r7, -8
	.cfi_offset r5, -12
	.cfi_offset r4, -16
	.pad	#8
	sub	sp, #8
	.cfi_def_cfa_offset 24
	@DEBUG_VALUE: HAL_Delay:Delay <- $r0
	@DEBUG_VALUE: HAL_Delay:Delay <- $r0
	str	r0, [sp, #4]
.Ltmp12:
	.loc	2 327 24 prologue_end   @ ../Drivers/STM32F1xx_HAL_Driver/Src/stm32f1xx_hal.c:327:24
	bl	HAL_GetTick
.Ltmp13:
	mov	r4, r0
.Ltmp14:
	@DEBUG_VALUE: HAL_Delay:tickstart <- $r4
	.loc	2 328 19                @ ../Drivers/STM32F1xx_HAL_Driver/Src/stm32f1xx_hal.c:328:19
	ldr	r0, [sp, #4]
.Ltmp15:
	@DEBUG_VALUE: HAL_Delay:wait <- $r0
	@DEBUG_VALUE: HAL_Delay:Delay <- $r0
	.loc	2 333 10                @ ../Drivers/STM32F1xx_HAL_Driver/Src/stm32f1xx_hal.c:333:10
	adds	r5, r0, #1
.Ltmp16:
	.loc	2 331 7                 @ ../Drivers/STM32F1xx_HAL_Driver/Src/stm32f1xx_hal.c:331:7
	it	eq
	moveq	r5, r0
.Ltmp17:
	@DEBUG_VALUE: HAL_Delay:wait <- $r5
	.p2align	2
.LBB7_1:                                @ =>This Inner Loop Header: Depth=1
	@DEBUG_VALUE: HAL_Delay:wait <- $r5
	@DEBUG_VALUE: HAL_Delay:tickstart <- $r4
	@DEBUG_VALUE: HAL_Delay:Delay <- $r0
	.loc	2 336 10                @ ../Drivers/STM32F1xx_HAL_Driver/Src/stm32f1xx_hal.c:336:10
	bl	HAL_GetTick
.Ltmp18:
	.loc	2 336 24 is_stmt 0      @ ../Drivers/STM32F1xx_HAL_Driver/Src/stm32f1xx_hal.c:336:24
	subs	r0, r0, r4
	.loc	2 336 3                 @ ../Drivers/STM32F1xx_HAL_Driver/Src/stm32f1xx_hal.c:336:3
	cmp	r0, r5
	blo	.LBB7_1
.Ltmp19:
@ %bb.2:
	@DEBUG_VALUE: HAL_Delay:wait <- $r5
	@DEBUG_VALUE: HAL_Delay:tickstart <- $r4
	.loc	2 339 1 is_stmt 1       @ ../Drivers/STM32F1xx_HAL_Driver/Src/stm32f1xx_hal.c:339:1
	add	sp, #8
	pop	{r4, r5, r7, pc}
.Ltmp20:
.Lfunc_end7:
	.size	HAL_Delay, .Lfunc_end7-HAL_Delay
	.cfi_endproc
	.cantunwind
	.fnend
                                        @ -- End function
	.section	.text.HAL_SuspendTick,"ax",%progbits
	.hidden	HAL_SuspendTick         @ -- Begin function HAL_SuspendTick
	.weak	HAL_SuspendTick
	.p2align	2
	.type	HAL_SuspendTick,%function
	.code	16                      @ @HAL_SuspendTick
	.thumb_func
HAL_SuspendTick:
.Lfunc_begin8:
	.loc	2 352 0                 @ ../Drivers/STM32F1xx_HAL_Driver/Src/stm32f1xx_hal.c:352:0
	.fnstart
	.cfi_startproc
@ %bb.0:
	.loc	2 354 3 prologue_end    @ ../Drivers/STM32F1xx_HAL_Driver/Src/stm32f1xx_hal.c:354:3
	movw	r0, #57360
	movt	r0, #57344
	ldr	r1, [r0]
	bic	r1, r1, #2
	str	r1, [r0]
	.loc	2 355 1                 @ ../Drivers/STM32F1xx_HAL_Driver/Src/stm32f1xx_hal.c:355:1
	bx	lr
.Ltmp21:
.Lfunc_end8:
	.size	HAL_SuspendTick, .Lfunc_end8-HAL_SuspendTick
	.cfi_endproc
	.cantunwind
	.fnend
                                        @ -- End function
	.section	.text.HAL_ResumeTick,"ax",%progbits
	.hidden	HAL_ResumeTick          @ -- Begin function HAL_ResumeTick
	.weak	HAL_ResumeTick
	.p2align	2
	.type	HAL_ResumeTick,%function
	.code	16                      @ @HAL_ResumeTick
	.thumb_func
HAL_ResumeTick:
.Lfunc_begin9:
	.loc	2 368 0                 @ ../Drivers/STM32F1xx_HAL_Driver/Src/stm32f1xx_hal.c:368:0
	.fnstart
	.cfi_startproc
@ %bb.0:
	.loc	2 370 3 prologue_end    @ ../Drivers/STM32F1xx_HAL_Driver/Src/stm32f1xx_hal.c:370:3
	movw	r0, #57360
	movt	r0, #57344
	ldr	r1, [r0]
	orr	r1, r1, #2
	str	r1, [r0]
	.loc	2 371 1                 @ ../Drivers/STM32F1xx_HAL_Driver/Src/stm32f1xx_hal.c:371:1
	bx	lr
.Ltmp22:
.Lfunc_end9:
	.size	HAL_ResumeTick, .Lfunc_end9-HAL_ResumeTick
	.cfi_endproc
	.cantunwind
	.fnend
                                        @ -- End function
	.section	.text.HAL_GetHalVersion,"ax",%progbits
	.hidden	HAL_GetHalVersion       @ -- Begin function HAL_GetHalVersion
	.globl	HAL_GetHalVersion
	.p2align	2
	.type	HAL_GetHalVersion,%function
	.code	16                      @ @HAL_GetHalVersion
	.thumb_func
HAL_GetHalVersion:
.Lfunc_begin10:
	.loc	2 378 0                 @ ../Drivers/STM32F1xx_HAL_Driver/Src/stm32f1xx_hal.c:378:0
	.fnstart
	.cfi_startproc
@ %bb.0:
	.loc	2 379 2 prologue_end    @ ../Drivers/STM32F1xx_HAL_Driver/Src/stm32f1xx_hal.c:379:2
	movw	r0, #256
	movt	r0, #257
	bx	lr
.Ltmp23:
.Lfunc_end10:
	.size	HAL_GetHalVersion, .Lfunc_end10-HAL_GetHalVersion
	.cfi_endproc
	.cantunwind
	.fnend
                                        @ -- End function
	.section	.text.HAL_GetREVID,"ax",%progbits
	.hidden	HAL_GetREVID            @ -- Begin function HAL_GetREVID
	.globl	HAL_GetREVID
	.p2align	2
	.type	HAL_GetREVID,%function
	.code	16                      @ @HAL_GetREVID
	.thumb_func
HAL_GetREVID:
.Lfunc_begin11:
	.loc	2 394 0                 @ ../Drivers/STM32F1xx_HAL_Driver/Src/stm32f1xx_hal.c:394:0
	.fnstart
	.cfi_startproc
@ %bb.0:
	.loc	2 395 19 prologue_end   @ ../Drivers/STM32F1xx_HAL_Driver/Src/stm32f1xx_hal.c:395:19
	movw	r0, #8192
	movt	r0, #57348
	ldr	r0, [r0]
	.loc	2 395 27 is_stmt 0      @ ../Drivers/STM32F1xx_HAL_Driver/Src/stm32f1xx_hal.c:395:27
	lsrs	r0, r0, #16
	.loc	2 395 3                 @ ../Drivers/STM32F1xx_HAL_Driver/Src/stm32f1xx_hal.c:395:3
	bx	lr
.Ltmp24:
.Lfunc_end11:
	.size	HAL_GetREVID, .Lfunc_end11-HAL_GetREVID
	.cfi_endproc
	.cantunwind
	.fnend
                                        @ -- End function
	.section	.text.HAL_GetDEVID,"ax",%progbits
	.hidden	HAL_GetDEVID            @ -- Begin function HAL_GetDEVID
	.globl	HAL_GetDEVID
	.p2align	2
	.type	HAL_GetDEVID,%function
	.code	16                      @ @HAL_GetDEVID
	.thumb_func
HAL_GetDEVID:
.Lfunc_begin12:
	.loc	2 410 0 is_stmt 1       @ ../Drivers/STM32F1xx_HAL_Driver/Src/stm32f1xx_hal.c:410:0
	.fnstart
	.cfi_startproc
@ %bb.0:
	.loc	2 411 20 prologue_end   @ ../Drivers/STM32F1xx_HAL_Driver/Src/stm32f1xx_hal.c:411:20
	movw	r0, #8192
	movt	r0, #57348
	ldr	r0, [r0]
	.loc	2 411 28 is_stmt 0      @ ../Drivers/STM32F1xx_HAL_Driver/Src/stm32f1xx_hal.c:411:28
	bfc	r0, #12, #20
	.loc	2 411 4                 @ ../Drivers/STM32F1xx_HAL_Driver/Src/stm32f1xx_hal.c:411:4
	bx	lr
.Ltmp25:
.Lfunc_end12:
	.size	HAL_GetDEVID, .Lfunc_end12-HAL_GetDEVID
	.cfi_endproc
	.cantunwind
	.fnend
                                        @ -- End function
	.section	.text.HAL_DBGMCU_EnableDBGSleepMode,"ax",%progbits
	.hidden	HAL_DBGMCU_EnableDBGSleepMode @ -- Begin function HAL_DBGMCU_EnableDBGSleepMode
	.globl	HAL_DBGMCU_EnableDBGSleepMode
	.p2align	2
	.type	HAL_DBGMCU_EnableDBGSleepMode,%function
	.code	16                      @ @HAL_DBGMCU_EnableDBGSleepMode
	.thumb_func
HAL_DBGMCU_EnableDBGSleepMode:
.Lfunc_begin13:
	.loc	2 419 0 is_stmt 1       @ ../Drivers/STM32F1xx_HAL_Driver/Src/stm32f1xx_hal.c:419:0
	.fnstart
	.cfi_startproc
@ %bb.0:
	.loc	2 420 3 prologue_end    @ ../Drivers/STM32F1xx_HAL_Driver/Src/stm32f1xx_hal.c:420:3
	movw	r0, #8196
	movt	r0, #57348
	ldr	r1, [r0]
	orr	r1, r1, #1
	str	r1, [r0]
	.loc	2 421 1                 @ ../Drivers/STM32F1xx_HAL_Driver/Src/stm32f1xx_hal.c:421:1
	bx	lr
.Ltmp26:
.Lfunc_end13:
	.size	HAL_DBGMCU_EnableDBGSleepMode, .Lfunc_end13-HAL_DBGMCU_EnableDBGSleepMode
	.cfi_endproc
	.cantunwind
	.fnend
                                        @ -- End function
	.section	.text.HAL_DBGMCU_DisableDBGSleepMode,"ax",%progbits
	.hidden	HAL_DBGMCU_DisableDBGSleepMode @ -- Begin function HAL_DBGMCU_DisableDBGSleepMode
	.globl	HAL_DBGMCU_DisableDBGSleepMode
	.p2align	2
	.type	HAL_DBGMCU_DisableDBGSleepMode,%function
	.code	16                      @ @HAL_DBGMCU_DisableDBGSleepMode
	.thumb_func
HAL_DBGMCU_DisableDBGSleepMode:
.Lfunc_begin14:
	.loc	2 435 0                 @ ../Drivers/STM32F1xx_HAL_Driver/Src/stm32f1xx_hal.c:435:0
	.fnstart
	.cfi_startproc
@ %bb.0:
	.loc	2 436 3 prologue_end    @ ../Drivers/STM32F1xx_HAL_Driver/Src/stm32f1xx_hal.c:436:3
	movw	r0, #8196
	movt	r0, #57348
	ldr	r1, [r0]
	bic	r1, r1, #1
	str	r1, [r0]
	.loc	2 437 1                 @ ../Drivers/STM32F1xx_HAL_Driver/Src/stm32f1xx_hal.c:437:1
	bx	lr
.Ltmp27:
.Lfunc_end14:
	.size	HAL_DBGMCU_DisableDBGSleepMode, .Lfunc_end14-HAL_DBGMCU_DisableDBGSleepMode
	.cfi_endproc
	.cantunwind
	.fnend
                                        @ -- End function
	.section	.text.HAL_DBGMCU_EnableDBGStopMode,"ax",%progbits
	.hidden	HAL_DBGMCU_EnableDBGStopMode @ -- Begin function HAL_DBGMCU_EnableDBGStopMode
	.globl	HAL_DBGMCU_EnableDBGStopMode
	.p2align	2
	.type	HAL_DBGMCU_EnableDBGStopMode,%function
	.code	16                      @ @HAL_DBGMCU_EnableDBGStopMode
	.thumb_func
HAL_DBGMCU_EnableDBGStopMode:
.Lfunc_begin15:
	.loc	2 465 0                 @ ../Drivers/STM32F1xx_HAL_Driver/Src/stm32f1xx_hal.c:465:0
	.fnstart
	.cfi_startproc
@ %bb.0:
	.loc	2 466 3 prologue_end    @ ../Drivers/STM32F1xx_HAL_Driver/Src/stm32f1xx_hal.c:466:3
	movw	r0, #8196
	movt	r0, #57348
	ldr	r1, [r0]
	orr	r1, r1, #2
	str	r1, [r0]
	.loc	2 467 1                 @ ../Drivers/STM32F1xx_HAL_Driver/Src/stm32f1xx_hal.c:467:1
	bx	lr
.Ltmp28:
.Lfunc_end15:
	.size	HAL_DBGMCU_EnableDBGStopMode, .Lfunc_end15-HAL_DBGMCU_EnableDBGStopMode
	.cfi_endproc
	.cantunwind
	.fnend
                                        @ -- End function
	.section	.text.HAL_DBGMCU_DisableDBGStopMode,"ax",%progbits
	.hidden	HAL_DBGMCU_DisableDBGStopMode @ -- Begin function HAL_DBGMCU_DisableDBGStopMode
	.globl	HAL_DBGMCU_DisableDBGStopMode
	.p2align	2
	.type	HAL_DBGMCU_DisableDBGStopMode,%function
	.code	16                      @ @HAL_DBGMCU_DisableDBGStopMode
	.thumb_func
HAL_DBGMCU_DisableDBGStopMode:
.Lfunc_begin16:
	.loc	2 481 0                 @ ../Drivers/STM32F1xx_HAL_Driver/Src/stm32f1xx_hal.c:481:0
	.fnstart
	.cfi_startproc
@ %bb.0:
	.loc	2 482 3 prologue_end    @ ../Drivers/STM32F1xx_HAL_Driver/Src/stm32f1xx_hal.c:482:3
	movw	r0, #8196
	movt	r0, #57348
	ldr	r1, [r0]
	bic	r1, r1, #2
	str	r1, [r0]
	.loc	2 483 1                 @ ../Drivers/STM32F1xx_HAL_Driver/Src/stm32f1xx_hal.c:483:1
	bx	lr
.Ltmp29:
.Lfunc_end16:
	.size	HAL_DBGMCU_DisableDBGStopMode, .Lfunc_end16-HAL_DBGMCU_DisableDBGStopMode
	.cfi_endproc
	.cantunwind
	.fnend
                                        @ -- End function
	.section	.text.HAL_DBGMCU_EnableDBGStandbyMode,"ax",%progbits
	.hidden	HAL_DBGMCU_EnableDBGStandbyMode @ -- Begin function HAL_DBGMCU_EnableDBGStandbyMode
	.globl	HAL_DBGMCU_EnableDBGStandbyMode
	.p2align	2
	.type	HAL_DBGMCU_EnableDBGStandbyMode,%function
	.code	16                      @ @HAL_DBGMCU_EnableDBGStandbyMode
	.thumb_func
HAL_DBGMCU_EnableDBGStandbyMode:
.Lfunc_begin17:
	.loc	2 497 0                 @ ../Drivers/STM32F1xx_HAL_Driver/Src/stm32f1xx_hal.c:497:0
	.fnstart
	.cfi_startproc
@ %bb.0:
	.loc	2 498 3 prologue_end    @ ../Drivers/STM32F1xx_HAL_Driver/Src/stm32f1xx_hal.c:498:3
	movw	r0, #8196
	movt	r0, #57348
	ldr	r1, [r0]
	orr	r1, r1, #4
	str	r1, [r0]
	.loc	2 499 1                 @ ../Drivers/STM32F1xx_HAL_Driver/Src/stm32f1xx_hal.c:499:1
	bx	lr
.Ltmp30:
.Lfunc_end17:
	.size	HAL_DBGMCU_EnableDBGStandbyMode, .Lfunc_end17-HAL_DBGMCU_EnableDBGStandbyMode
	.cfi_endproc
	.cantunwind
	.fnend
                                        @ -- End function
	.section	.text.HAL_DBGMCU_DisableDBGStandbyMode,"ax",%progbits
	.hidden	HAL_DBGMCU_DisableDBGStandbyMode @ -- Begin function HAL_DBGMCU_DisableDBGStandbyMode
	.globl	HAL_DBGMCU_DisableDBGStandbyMode
	.p2align	2
	.type	HAL_DBGMCU_DisableDBGStandbyMode,%function
	.code	16                      @ @HAL_DBGMCU_DisableDBGStandbyMode
	.thumb_func
HAL_DBGMCU_DisableDBGStandbyMode:
.Lfunc_begin18:
	.loc	2 513 0                 @ ../Drivers/STM32F1xx_HAL_Driver/Src/stm32f1xx_hal.c:513:0
	.fnstart
	.cfi_startproc
@ %bb.0:
	.loc	2 514 3 prologue_end    @ ../Drivers/STM32F1xx_HAL_Driver/Src/stm32f1xx_hal.c:514:3
	movw	r0, #8196
	movt	r0, #57348
	ldr	r1, [r0]
	bic	r1, r1, #4
	str	r1, [r0]
	.loc	2 515 1                 @ ../Drivers/STM32F1xx_HAL_Driver/Src/stm32f1xx_hal.c:515:1
	bx	lr
.Ltmp31:
.Lfunc_end18:
	.size	HAL_DBGMCU_DisableDBGStandbyMode, .Lfunc_end18-HAL_DBGMCU_DisableDBGStandbyMode
	.cfi_endproc
	.cantunwind
	.fnend
                                        @ -- End function
	.section	.text.HAL_GetUID,"ax",%progbits
	.hidden	HAL_GetUID              @ -- Begin function HAL_GetUID
	.globl	HAL_GetUID
	.p2align	2
	.type	HAL_GetUID,%function
	.code	16                      @ @HAL_GetUID
	.thumb_func
HAL_GetUID:
.Lfunc_begin19:
	.loc	2 523 0                 @ ../Drivers/STM32F1xx_HAL_Driver/Src/stm32f1xx_hal.c:523:0
	.fnstart
	.cfi_startproc
@ %bb.0:
	@DEBUG_VALUE: HAL_GetUID:UID <- $r0
	movw	r1, #63464
	movt	r1, #8191
	@DEBUG_VALUE: HAL_GetUID:UID <- $r0
.Ltmp32:
	.loc	2 524 23 prologue_end   @ ../Drivers/STM32F1xx_HAL_Driver/Src/stm32f1xx_hal.c:524:23
	ldr	r2, [r1]
	.loc	2 524 10 is_stmt 0      @ ../Drivers/STM32F1xx_HAL_Driver/Src/stm32f1xx_hal.c:524:10
	str	r2, [r0]
	.loc	2 525 23 is_stmt 1      @ ../Drivers/STM32F1xx_HAL_Driver/Src/stm32f1xx_hal.c:525:23
	ldr	r2, [r1, #4]
	.loc	2 525 10 is_stmt 0      @ ../Drivers/STM32F1xx_HAL_Driver/Src/stm32f1xx_hal.c:525:10
	str	r2, [r0, #4]
	.loc	2 526 23 is_stmt 1      @ ../Drivers/STM32F1xx_HAL_Driver/Src/stm32f1xx_hal.c:526:23
	ldr	r1, [r1, #8]
	.loc	2 526 10 is_stmt 0      @ ../Drivers/STM32F1xx_HAL_Driver/Src/stm32f1xx_hal.c:526:10
	str	r1, [r0, #8]
	.loc	2 527 1 is_stmt 1       @ ../Drivers/STM32F1xx_HAL_Driver/Src/stm32f1xx_hal.c:527:1
	bx	lr
.Ltmp33:
.Lfunc_end19:
	.size	HAL_GetUID, .Lfunc_end19-HAL_GetUID
	.cfi_endproc
	.cantunwind
	.fnend
                                        @ -- End function
	.hidden	uwTick                  @ @uwTick
	.type	uwTick,%object
	.section	.bss.uwTick,"aw",%nobits
	.globl	uwTick
	.p2align	2
uwTick:
	.long	0                       @ 0x0
	.size	uwTick, 4

	.section	".note.GNU-stack","",%progbits
	.eabi_attribute	30, 1	@ Tag_ABI_optimization_goals
	.ARM_attribute	16, 1	@ Tag_AV_eba