	.text
	.syntax unified
	.eabi_attribute	67, "2.09"	@ Tag_conformance
	.cpu	cortex-m3
	.eabi_attribute	6, 10	@ Tag_CPU_arch
	.eabi_attribute	7, 77	@ Tag_CPU_arch_profile
	.eabi_attribute	8, 0	@ Tag_ARM_ISA_use
	.eabi_attribute	9, 2	@ Tag_THUMB_ISA_use
	.eabi_attribute	34, 1	@ Tag_CPU_unaligned_access
	.eabi_attribute	17, 1	@ Tag_ABI_PCS_GOT_use
	.eabi_attribute	20, 2	@ Tag_ABI_FP_denormal
	.eabi_attribute	21, 0	@ Tag_ABI_FP_exceptions
	.eabi_attribute	23, 1	@ Tag_ABI_FP_number_model
	.eabi_attribute	24, 1	@ Tag_ABI_align_needed
	.eabi_attribute	25, 1	@ Tag_ABI_align_preserved
	.eabi_attribute	38, 1	@ Tag_ABI_FP_16bit_format
	.eabi_attribute	18, 4	@ Tag_ABI_PCS_wchar_t
	.eabi_attribute	26, 2	@ Tag_ABI_enum_size
	.eabi_attribute	14, 0	@ Tag_ABI_PCS_R9_use
	.file	"stm32f1xx_hal_rtc_ex.c"
	.file	1 "../Drivers/STM32F1xx_HAL_Driver/Inc" "stm32f1xx_hal_def.h"
	.file	2 "../Drivers/STM32F1xx_HAL_Driver/Inc" "stm32f1xx_hal_rtc.h"
	.file	3 "../Drivers/CMSIS/Device/ST/STM32F1xx/Include" "stm32f1xx.h"
	.file	4 "C:\\Keil\\ARM\\ARMCLANG\\Bin\\..\\include" "stdint.h"
	.file	5 "../Drivers/CMSIS/Device/ST/STM32F1xx/Include" "stm32f103xb.h"
	.section	.text.HAL_RTCEx_SetTamper,"ax",%progbits
	.hidden	HAL_RTCEx_SetTamper     @ -- Begin function HAL_RTCEx_SetTamper
	.globl	HAL_RTCEx_SetTamper
	.p2align	2
	.type	HAL_RTCEx_SetTamper,%function
	.code	16                      @ @HAL_RTCEx_SetTamper
	.thumb_func
HAL_RTCEx_SetTamper:
.Lfunc_begin0:
	.file	6 "../Drivers/STM32F1xx_HAL_Driver/Src" "stm32f1xx_hal_rtc_ex.c"
	.loc	6 100 0                 @ ../Drivers/STM32F1xx_HAL_Driver/Src/stm32f1xx_hal_rtc_ex.c:100:0
	.fnstart
	.cfi_sections .debug_frame
	.cfi_startproc
@ %bb.0:
	@DEBUG_VALUE: HAL_RTCEx_SetTamper:hrtc <- $r0
	@DEBUG_VALUE: HAL_RTCEx_SetTamper:sTamper <- $r1
	movs	r2, #1
	@DEBUG_VALUE: HAL_RTCEx_SetTamper:sTamper <- $r1
	@DEBUG_VALUE: HAL_RTCEx_SetTamper:hrtc <- $r0
.Ltmp0:
	.loc	6 102 21 prologue_end   @ ../Drivers/STM32F1xx_HAL_Driver/Src/stm32f1xx_hal_rtc_ex.c:102:21
	cmp	r0, #0
	it	ne
	cmpne	r1, #0
	bne	.LBB0_2
.Ltmp1:
.LBB0_1:
	@DEBUG_VALUE: HAL_RTCEx_SetTamper:sTamper <- $r1
	@DEBUG_VALUE: HAL_RTCEx_SetTamper:hrtc <- $r0
	.loc	6 134 1                 @ ../Drivers/STM32F1xx_HAL_Driver/Src/stm32f1xx_hal_rtc_ex.c:134:1
	mov	r0, r2
	bx	lr
.Ltmp2:
.LBB0_2:
	@DEBUG_VALUE: HAL_RTCEx_SetTamper:sTamper <- $r1
	@DEBUG_VALUE: HAL_RTCEx_SetTamper:hrtc <- $r0
	.loc	6 112 3                 @ ../Drivers/STM32F1xx_HAL_Driver/Src/stm32f1xx_hal_rtc_ex.c:112:3
	ldr	r3, [r0, #16]
	movs	r2, #2
.Ltmp3:
	.loc	6 112 3 is_stmt 0       @ ../Drivers/STM32F1xx_HAL_Driver/Src/stm32f1xx_hal_rtc_ex.c:112:3
	cmp	r3, #1
	beq	.LBB0_1
.Ltmp4:
@ %bb.3:
	@DEBUG_VALUE: HAL_RTCEx_SetTamper:sTamper <- $r1
	@DEBUG_VALUE: HAL_RTCEx_SetTamper:hrtc <- $r0
	.loc	6 114 15 is_stmt 1      @ ../Drivers/STM32F1xx_HAL_Driver/Src/stm32f1xx_hal_rtc_ex.c:114:15
	str	r2, [r0, #20]
.Ltmp5:
	.loc	6 112 3                 @ ../Drivers/STM32F1xx_HAL_Driver/Src/stm32f1xx_hal_rtc_ex.c:112:3
	mov.w	r12, #1
	str.w	r12, [r0, #16]
	movw	r2, #27696
	movt	r2, #16384
.Ltmp6:
	.loc	6 116 7                 @ ../Drivers/STM32F1xx_HAL_Driver/Src/stm32f1xx_hal_rtc_ex.c:116:7
	ldr	r3, [r2, #-4]
.Ltmp7:
	.loc	6 116 7 is_stmt 0       @ ../Drivers/STM32F1xx_HAL_Driver/Src/stm32f1xx_hal_rtc_ex.c:116:7
	tst.w	r3, #384
	beq	.LBB0_5
.Ltmp8:
@ %bb.4:
	@DEBUG_VALUE: HAL_RTCEx_SetTamper:sTamper <- $r1
	@DEBUG_VALUE: HAL_RTCEx_SetTamper:hrtc <- $r0
	.loc	6 0 7                   @ ../Drivers/STM32F1xx_HAL_Driver/Src/stm32f1xx_hal_rtc_ex.c:0:7
	movs	r1, #0
.Ltmp9:
	.loc	6 121 5 is_stmt 1       @ ../Drivers/STM32F1xx_HAL_Driver/Src/stm32f1xx_hal_rtc_ex.c:121:5
	str	r1, [r0, #16]
.Ltmp10:
	.loc	6 118 17                @ ../Drivers/STM32F1xx_HAL_Driver/Src/stm32f1xx_hal_rtc_ex.c:118:17
	movs	r1, #4
	str	r1, [r0, #20]
	movs	r2, #1
.Ltmp11:
	.loc	6 134 1                 @ ../Drivers/STM32F1xx_HAL_Driver/Src/stm32f1xx_hal_rtc_ex.c:134:1
	mov	r0, r2
	bx	lr
.LBB0_5:
.Ltmp12:
	@DEBUG_VALUE: HAL_RTCEx_SetTamper:sTamper <- $r1
	@DEBUG_VALUE: HAL_RTCEx_SetTamper:hrtc <- $r0
	.loc	6 0 1 is_stmt 0         @ ../Drivers/STM32F1xx_HAL_Driver/Src/stm32f1xx_hal_rtc_ex.c:0:1
	.save	{r7, lr}
	push	{r7, lr}
	.cfi_def_cfa_offset 8
	.cfi_offset lr, -4
	.cfi_offset r7, -8
	.loc	6 126 3 is_stmt 1       @ ../Drivers/STM32F1xx_HAL_Driver/Src/stm32f1xx_hal_rtc_ex.c:126:3
	ldr	r3, [r2]
	ldrd	lr, r1, [r1]
.Ltmp13:
	bic	r3, r3, #3
	orr.w	r3, r3, lr
	orrs	r1, r3
	str	r1, [r2]
	movs	r2, #0
.Ltmp14:
	.loc	6 131 3                 @ ../Drivers/STM32F1xx_HAL_Driver/Src/stm32f1xx_hal_rtc_ex.c:131:3
	str	r2, [r0, #16]
.Ltmp15:
	.loc	6 128 15                @ ../Drivers/STM32F1xx_HAL_Driver/Src/stm32f1xx_hal_rtc_ex.c:128:15
	str.w	r12, [r0, #20]
	pop.w	{r7, lr}
	.loc	6 134 1                 @ ../Drivers/STM32F1xx_HAL_Driver/Src/stm32f1xx_hal_rtc_ex.c:134:1
	mov	r0, r2
	bx	lr
.Ltmp16:
.Lfunc_end0:
	.size	HAL_RTCEx_SetTamper, .Lfunc_end0-HAL_RTCEx_SetTamper
	.cfi_endproc
	.cantunwind
	.fnend
                                        @ -- End function
	.section	.text.HAL_RTCEx_SetTamper_IT,"ax",%progbits
	.hidden	HAL_RTCEx_SetTamper_IT  @ -- Begin function HAL_RTCEx_SetTamper_IT
	.globl	HAL_RTCEx_SetTamper_IT
	.p2align	2
	.type	HAL_RTCEx_SetTamper_IT,%function
	.code	16                      @ @HAL_RTCEx_SetTamper_IT
	.thumb_func
HAL_RTCEx_SetTamper_IT:
.Lfunc_begin1:
	.loc	6 146 0                 @ ../Drivers/STM32F1xx_HAL_Driver/Src/stm32f1xx_hal_rtc_ex.c:146:0
	.fnstart
	.cfi_startproc
@ %bb.0:
	@DEBUG_VALUE: HAL_RTCEx_SetTamper_IT:hrtc <- $r0
	@DEBUG_VALUE: HAL_RTCEx_SetTamper_IT:sTamper <- $r1
	movs	r2, #1
	@DEBUG_VALUE: HAL_RTCEx_SetTamper_IT:sTamper <- $r1
	@DEBUG_VALUE: HAL_RTCEx_SetTamper_IT:hrtc <- $r0
.Ltmp17:
	.loc	6 148 21 prologue_end   @ ../Drivers/STM32F1xx_HAL_Driver/Src/stm32f1xx_hal_rtc_ex.c:148:21
	cmp	r0, #0
	it	ne
	cmpne	r1, #0
	bne	.LBB1_2
.Ltmp18:
.LBB1_1:
	@DEBUG_VALUE: HAL_RTCEx_SetTamper_IT:sTamper <- $r1
	@DEBUG_VALUE: HAL_RTCEx_SetTamper_IT:hrtc <- $r0
	.loc	6 183 1                 @ ../Drivers/STM32F1xx_HAL_Driver/Src/stm32f1xx_hal_rtc_ex.c:183:1
	mov	r0, r2
	bx	lr
.Ltmp19:
.LBB1_2:
	@DEBUG_VALUE: HAL_RTCEx_SetTamper_IT:sTamper <- $r1
	@DEBUG_VALUE: HAL_RTCEx_SetTamper_IT:hrtc <- $r0
	.loc	6 158 3                 @ ../Drivers/STM32F1xx_HAL_Driver/Src/stm32f1xx_hal_rtc_ex.c:158:3
	ldr	r3, [r0, #16]
	movs	r2, #2
.Ltmp20:
	.loc	6 158 3 is_stmt 0       @ ../Drivers/STM32F1xx_HAL_Driver/Src/stm32f1xx_hal_rtc_ex.c:158:3
	cmp	r3, #1
	beq	.LBB1_1
.Ltmp21:
@ %bb.3:
	@DEBUG_VALUE: HAL_RTCEx_SetTamper_IT:sTamper <- $r1
	@DEBUG_VALUE: HAL_RTCEx_SetTamper_IT:hrtc <- $r0
	.loc	6 160 15 is_stmt 1      @ ../Drivers/STM32F1xx_HAL_Driver/Src/stm32f1xx_hal_rtc_ex.c:160:15
	str	r2, [r0, #20]
.Ltmp22:
	.loc	6 158 3                 @ ../Drivers/STM32F1xx_HAL_Driver/Src/stm32f1xx_hal_rtc_ex.c:158:3
	mov.w	r12, #1
	str.w	r12, [r0, #16]
	movw	r2, #27696
	movt	r2, #16384
.Ltmp23:
	.loc	6 162 7                 @ ../Drivers/STM32F1xx_HAL_Driver/Src/stm32f1xx_hal_rtc_ex.c:162:7
	ldr	r3, [r2, #-4]
.Ltmp24:
	.loc	6 162 7 is_stmt 0       @ ../Drivers/STM32F1xx_HAL_Driver/Src/stm32f1xx_hal_rtc_ex.c:162:7
	tst.w	r3, #384
	beq	.LBB1_5
.Ltmp25:
@ %bb.4:
	@DEBUG_VALUE: HAL_RTCEx_SetTamper_IT:sTamper <- $r1
	@DEBUG_VALUE: HAL_RTCEx_SetTamper_IT:hrtc <- $r0
	.loc	6 0 7                   @ ../Drivers/STM32F1xx_HAL_Driver/Src/stm32f1xx_hal_rtc_ex.c:0:7
	movs	r1, #0
.Ltmp26:
	.loc	6 167 5 is_stmt 1       @ ../Drivers/STM32F1xx_HAL_Driver/Src/stm32f1xx_hal_rtc_ex.c:167:5
	str	r1, [r0, #16]
.Ltmp27:
	.loc	6 164 17                @ ../Drivers/STM32F1xx_HAL_Driver/Src/stm32f1xx_hal_rtc_ex.c:164:17
	movs	r1, #4
	str	r1, [r0, #20]
	movs	r2, #1
.Ltmp28:
	.loc	6 183 1                 @ ../Drivers/STM32F1xx_HAL_Driver/Src/stm32f1xx_hal_rtc_ex.c:183:1
	mov	r0, r2
	bx	lr
.LBB1_5:
.Ltmp29:
	@DEBUG_VALUE: HAL_RTCEx_SetTamper_IT:sTamper <- $r1
	@DEBUG_VALUE: HAL_RTCEx_SetTamper_IT:hrtc <- $r0
	.loc	6 0 1 is_stmt 0         @ ../Drivers/STM32F1xx_HAL_Driver/Src/stm32f1xx_hal_rtc_ex.c:0:1
	.save	{r7, lr}
	push	{r7, lr}
	.cfi_def_cfa_offset 8
	.cfi_offset lr, -4
	.cfi_offset r7, -8
	.loc	6 172 3 is_stmt 1       @ ../Drivers/STM32F1xx_HAL_Driver/Src/stm32f1xx_hal_rtc_ex.c:172:3
	ldr	r3, [r2]
	ldrd	lr, r1, [r1]
.Ltmp30:
	bic	r3, r3, #3
	orr.w	r3, r3, lr
	orrs	r1, r3
	str	r1, [r2]
	.loc	6 175 3                 @ ../Drivers/STM32F1xx_HAL_Driver/Src/stm32f1xx_hal_rtc_ex.c:175:3
	ldr	r1, [r2, #4]
	orr	r1, r1, #4
	str	r1, [r2, #4]
	movs	r2, #0
.Ltmp31:
	.loc	6 180 3                 @ ../Drivers/STM32F1xx_HAL_Driver/Src/stm32f1xx_hal_rtc_ex.c:180:3
	str	r2, [r0, #16]
.Ltmp32:
	.loc	6 177 15                @ ../Drivers/STM32F1xx_HAL_Driver/Src/stm32f1xx_hal_rtc_ex.c:177:15
	str.w	r12, [r0, #20]
	pop.w	{r7, lr}
	.loc	6 183 1                 @ ../Drivers/STM32F1xx_HAL_Driver/Src/stm32f1xx_hal_rtc_ex.c:183:1
	mov	r0, r2
	bx	lr
.Ltmp33:
.Lfunc_end1:
	.size	HAL_RTCEx_SetTamper_IT, .Lfunc_end1-HAL_RTCEx_SetTamper_IT
	.cfi_endproc
	.cantunwind
	.fnend
                                        @ -- End function
	.section	.text.HAL_RTCEx_DeactivateTamper,"ax",%progbits
	.hidden	HAL_RTCEx_DeactivateTamper @ -- Begin function HAL_RTCEx_DeactivateTamper
	.globl	HAL_RTCEx_DeactivateTamper
	.p2align	2
	.type	HAL_RTCEx_DeactivateTamper,%function
	.code	16                      @ @HAL_RTCEx_DeactivateTamper
	.thumb_func
HAL_RTCEx_DeactivateTamper:
.Lfunc_begin2:
	.loc	6 194 0                 @ ../Drivers/STM32F1xx_HAL_Driver/Src/stm32f1xx_hal_rtc_ex.c:194:0
	.fnstart
	.cfi_startproc
@ %bb.0:
	@DEBUG_VALUE: HAL_RTCEx_DeactivateTamper:hrtc <- $r0
	@DEBUG_VALUE: HAL_RTCEx_DeactivateTamper:hrtc <- $r0
	@DEBUG_VALUE: HAL_RTCEx_DeactivateTamper:Tamper <- $r1
	.loc	6 196 6 prologue_end    @ ../Drivers/STM32F1xx_HAL_Driver/Src/stm32f1xx_hal_rtc_ex.c:196:6
	cbz	r0, .LBB2_4
.Ltmp34:
@ %bb.1:
	@DEBUG_VALUE: HAL_RTCEx_DeactivateTamper:Tamper <- $r1
	@DEBUG_VALUE: HAL_RTCEx_DeactivateTamper:hrtc <- $r0
	.loc	6 206 3                 @ ../Drivers/STM32F1xx_HAL_Driver/Src/stm32f1xx_hal_rtc_ex.c:206:3
	ldr	r2, [r0, #16]
	movs	r1, #2
.Ltmp35:
	.loc	6 206 3 is_stmt 0       @ ../Drivers/STM32F1xx_HAL_Driver/Src/stm32f1xx_hal_rtc_ex.c:206:3
	cmp	r2, #1
	beq	.LBB2_3
.Ltmp36:
@ %bb.2:
	@DEBUG_VALUE: HAL_RTCEx_DeactivateTamper:hrtc <- $r0
	.loc	6 208 15 is_stmt 1      @ ../Drivers/STM32F1xx_HAL_Driver/Src/stm32f1xx_hal_rtc_ex.c:208:15
	str	r1, [r0, #20]
	movw	r1, #27700
	movt	r1, #16384
	.loc	6 211 3                 @ ../Drivers/STM32F1xx_HAL_Driver/Src/stm32f1xx_hal_rtc_ex.c:211:3
	ldr	r2, [r1, #-4]
	bic	r2, r2, #1
	str	r2, [r1, #-4]
	.loc	6 215 3                 @ ../Drivers/STM32F1xx_HAL_Driver/Src/stm32f1xx_hal_rtc_ex.c:215:3
	ldr	r2, [r1]
	bic	r2, r2, #4
	str	r2, [r1]
	.loc	6 218 3                 @ ../Drivers/STM32F1xx_HAL_Driver/Src/stm32f1xx_hal_rtc_ex.c:218:3
	ldr	r2, [r1]
	orr	r2, r2, #3
	str	r2, [r1]
	.loc	6 219 3                 @ ../Drivers/STM32F1xx_HAL_Driver/Src/stm32f1xx_hal_rtc_ex.c:219:3
	ldr	r2, [r1]
	orr	r2, r2, #1
	str	r2, [r1]
	movs	r1, #0
.Ltmp37:
	.loc	6 224 3                 @ ../Drivers/STM32F1xx_HAL_Driver/Src/stm32f1xx_hal_rtc_ex.c:224:3
	str	r1, [r0, #16]
.Ltmp38:
	.loc	6 219 3                 @ ../Drivers/STM32F1xx_HAL_Driver/Src/stm32f1xx_hal_rtc_ex.c:219:3
	movs	r2, #1
	.loc	6 221 15                @ ../Drivers/STM32F1xx_HAL_Driver/Src/stm32f1xx_hal_rtc_ex.c:221:15
	str	r2, [r0, #20]
.LBB2_3:
	@DEBUG_VALUE: HAL_RTCEx_DeactivateTamper:hrtc <- $r0
	.loc	6 227 1                 @ ../Drivers/STM32F1xx_HAL_Driver/Src/stm32f1xx_hal_rtc_ex.c:227:1
	mov	r0, r1
	bx	lr
.LBB2_4:
.Ltmp39:
	@DEBUG_VALUE: HAL_RTCEx_DeactivateTamper:Tamper <- $r1
	@DEBUG_VALUE: HAL_RTCEx_DeactivateTamper:hrtc <- $r0
	.loc	6 0 1 is_stmt 0         @ ../Drivers/STM32F1xx_HAL_Driver/Src/stm32f1xx_hal_rtc_ex.c:0:1
	movs	r1, #1
.Ltmp40:
	.loc	6 227 1                 @ ../Drivers/STM32F1xx_HAL_Driver/Src/stm32f1xx_hal_rtc_ex.c:227:1
	mov	r0, r1
	bx	lr
.Ltmp41:
.Lfunc_end2:
	.size	HAL_RTCEx_DeactivateTamper, .Lfunc_end2-HAL_RTCEx_DeactivateTamper
	.cfi_endproc
	.cantunwind
	.fnend
                                        @ -- End function
	.section	.text.HAL_RTCEx_TamperIRQHandler,"ax",%progbits
	.hidden	HAL_RTCEx_TamperIRQHandler @ -- Begin function HAL_RTCEx_TamperIRQHandler
	.globl	HAL_RTCEx_TamperIRQHandler
	.p2align	2
	.type	HAL_RTCEx_TamperIRQHandler,%function
	.code	16                      @ @HAL_RTCEx_TamperIRQHandler
	.thumb_func
HAL_RTCEx_TamperIRQHandler:
.Lfunc_begin3:
	.loc	6 236 0 is_stmt 1       @ ../Drivers/STM32F1xx_HAL_Driver/Src/stm32f1xx_hal_rtc_ex.c:236:0
	.fnstart
	.cfi_startproc
@ %bb.0:
	.save	{r4, r5, r7, lr}
	push	{r4, r5, r7, lr}
	.cfi_def_cfa_offset 16
	.cfi_offset lr, -4
	.cfi_offset r7, -8
	.cfi_offset r5, -12
	.cfi_offset r4, -16
	@DEBUG_VALUE: HAL_RTCEx_TamperIRQHandler:hrtc <- $r0
	mov	r4, r0
	movw	r5, #27700
	movt	r5, #16384
.Ltmp42:
	@DEBUG_VALUE: HAL_RTCEx_TamperIRQHandler:hrtc <- $r4
	.loc	6 238 6 prologue_end    @ ../Drivers/STM32F1xx_HAL_Driver/Src/stm32f1xx_hal_rtc_ex.c:238:6
	ldr	r0, [r5]
.Ltmp43:
	.loc	6 238 6 is_stmt 0       @ ../Drivers/STM32F1xx_HAL_Driver/Src/stm32f1xx_hal_rtc_ex.c:238:6
	tst.w	r0, #4
	beq	.LBB3_3
.Ltmp44:
@ %bb.1:
	@DEBUG_VALUE: HAL_RTCEx_TamperIRQHandler:hrtc <- $r4
	.loc	6 241 8 is_stmt 1       @ ../Drivers/STM32F1xx_HAL_Driver/Src/stm32f1xx_hal_rtc_ex.c:241:8
	ldr	r0, [r5]
.Ltmp45:
	.loc	6 241 8 is_stmt 0       @ ../Drivers/STM32F1xx_HAL_Driver/Src/stm32f1xx_hal_rtc_ex.c:241:8
	tst.w	r0, #256
	beq	.LBB3_3
.Ltmp46:
@ %bb.2:
	@DEBUG_VALUE: HAL_RTCEx_TamperIRQHandler:hrtc <- $r4
	.loc	6 244 7 is_stmt 1       @ ../Drivers/STM32F1xx_HAL_Driver/Src/stm32f1xx_hal_rtc_ex.c:244:7
	mov	r0, r4
	bl	HAL_RTCEx_Tamper1EventCallback
	.loc	6 247 7                 @ ../Drivers/STM32F1xx_HAL_Driver/Src/stm32f1xx_hal_rtc_ex.c:247:7
	ldr	r0, [r5]
	orr	r0, r0, #3
	str	r0, [r5]
.Ltmp47:
.LBB3_3:
	@DEBUG_VALUE: HAL_RTCEx_TamperIRQHandler:hrtc <- $r4
	.loc	6 252 15                @ ../Drivers/STM32F1xx_HAL_Driver/Src/stm32f1xx_hal_rtc_ex.c:252:15
	movs	r0, #1
	str	r0, [r4, #20]
	.loc	6 253 1                 @ ../Drivers/STM32F1xx_HAL_Driver/Src/stm32f1xx_hal_rtc_ex.c:253:1
	pop	{r4, r5, r7, pc}
.Ltmp48:
.Lfunc_end3:
	.size	HAL_RTCEx_TamperIRQHandler, .Lfunc_end3-HAL_RTCEx_TamperIRQHandler
	.cfi_endproc
	.cantunwind
	.fnend
                                        @ -- End function
	.section	.text.HAL_RTCEx_Tamper1EventCallback,"ax",%progbits
	.hidden	HAL_RTCEx_Tamper1EventCallback @ -- Begin function HAL_RTCEx_Tamper1EventCallback
	.weak	HAL_RTCEx_Tamper1EventCallback
	.p2align	2
	.type	HAL_RTCEx_Tamper1EventCallback,%function
	.code	16                      @ @HAL_RTCEx_Tamper1EventCallback
	.thumb_func
HAL_RTCEx_Tamper1EventCallback:
.Lfunc_begin4:
	.loc	6 262 0                 @ ../Drivers/STM32F1xx_HAL_Driver/Src/stm32f1xx_hal_rtc_ex.c:262:0
	.fnstart
	.cfi_startproc
@ %bb.0:
	@DEBUG_VALUE: HAL_RTCEx_Tamper1EventCallback:hrtc <- $r0
	.loc	6 268 1 prologue_end    @ ../Drivers/STM32F1xx_HAL_Driver/Src/stm32f1xx_hal_rtc_ex.c:268:1
	bx	lr
.Ltmp49:
.Lfunc_end4:
	.size	HAL_RTCEx_Tamper1EventCallback, .Lfunc_end4-HAL_RTCEx_Tamper1EventCallback
	.cfi_endproc
	.cantunwind
	.fnend
                                        @ -- End function
	.section	.text.HAL_RTCEx_PollForTamper1Event,"ax",%progbits
	.hidden	HAL_RTCEx_PollForTamper1Event @ -- Begin function HAL_RTCEx_PollForTamper1Event
	.globl	HAL_RTCEx_PollForTamper1Event
	.p2align	2
	.type	HAL_RTCEx_PollForTamper1Event,%function
	.code	16                      @ @HAL_RTCEx_PollForTamper1Event
	.thumb_func
HAL_RTCEx_PollForTamper1Event:
.Lfunc_begin5:
	.loc	6 278 0                 @ ../Drivers/STM32F1xx_HAL_Driver/Src/stm32f1xx_hal_rtc_ex.c:278:0
	.fnstart
	.cfi_startproc
@ %bb.0:
	.save	{r4, r5, r6, r7, r8, lr}
	push.w	{r4, r5, r6, r7, r8, lr}
	.cfi_def_cfa_offset 24
	.cfi_offset lr, -4
	.cfi_offset r8, -8
	.cfi_offset r7, -12
	.cfi_offset r6, -16
	.cfi_offset r5, -20
	.cfi_offset r4, -24
	@DEBUG_VALUE: HAL_RTCEx_PollForTamper1Event:hrtc <- $r0
	@DEBUG_VALUE: HAL_RTCEx_PollForTamper1Event:Timeout <- $r1
	mov	r5, r1
	mov	r8, r0
.Ltmp50:
	@DEBUG_VALUE: HAL_RTCEx_PollForTamper1Event:Timeout <- $r5
	@DEBUG_VALUE: HAL_RTCEx_PollForTamper1Event:hrtc <- $r8
	.loc	6 279 24 prologue_end   @ ../Drivers/STM32F1xx_HAL_Driver/Src/stm32f1xx_hal_rtc_ex.c:279:24
	bl	HAL_GetTick
	mov	r6, r0
.Ltmp51:
	@DEBUG_VALUE: HAL_RTCEx_PollForTamper1Event:tickstart <- $r6
	.loc	6 282 6                 @ ../Drivers/STM32F1xx_HAL_Driver/Src/stm32f1xx_hal_rtc_ex.c:282:6
	cmp.w	r8, #0
	itt	eq
	moveq	r0, #1
	.loc	6 307 1                 @ ../Drivers/STM32F1xx_HAL_Driver/Src/stm32f1xx_hal_rtc_ex.c:307:1
	popeq.w	{r4, r5, r6, r7, r8, pc}
.Ltmp52:
	.loc	6 0 1 is_stmt 0         @ ../Drivers/STM32F1xx_HAL_Driver/Src/stm32f1xx_hal_rtc_ex.c:0:1
	movw	r7, #27700
	movt	r7, #16384
	.loc	6 288 9 is_stmt 1       @ ../Drivers/STM32F1xx_HAL_Driver/Src/stm32f1xx_hal_rtc_ex.c:288:9
	ldr	r0, [r7]
	.loc	6 288 3 is_stmt 0       @ ../Drivers/STM32F1xx_HAL_Driver/Src/stm32f1xx_hal_rtc_ex.c:288:3
	tst.w	r0, #256
	bne	.LBB5_6
@ %bb.1:
	cbz	r5, .LBB5_7
@ %bb.2:
	.loc	6 0 3                   @ ../Drivers/STM32F1xx_HAL_Driver/Src/stm32f1xx_hal_rtc_ex.c:0:3
	adds	r4, r5, #1
	.p2align	2
.LBB5_3:                                @ =>This Inner Loop Header: Depth=1
.Ltmp53:
	.loc	6 290 8 is_stmt 1       @ ../Drivers/STM32F1xx_HAL_Driver/Src/stm32f1xx_hal_rtc_ex.c:290:8
	cbz	r4, .LBB5_5
@ %bb.4:                                @   in Loop: Header=BB5_3 Depth=1
.Ltmp54:
	.loc	6 292 29                @ ../Drivers/STM32F1xx_HAL_Driver/Src/stm32f1xx_hal_rtc_ex.c:292:29
	bl	HAL_GetTick
	.loc	6 292 43 is_stmt 0      @ ../Drivers/STM32F1xx_HAL_Driver/Src/stm32f1xx_hal_rtc_ex.c:292:43
	subs	r0, r0, r6
.Ltmp55:
	.loc	6 292 10                @ ../Drivers/STM32F1xx_HAL_Driver/Src/stm32f1xx_hal_rtc_ex.c:292:10
	cmp	r0, r5
	bhi	.LBB5_7
.Ltmp56:
.LBB5_5:                                @   in Loop: Header=BB5_3 Depth=1
	.loc	6 288 9 is_stmt 1       @ ../Drivers/STM32F1xx_HAL_Driver/Src/stm32f1xx_hal_rtc_ex.c:288:9
	ldr	r0, [r7]
	.loc	6 288 3 is_stmt 0       @ ../Drivers/STM32F1xx_HAL_Driver/Src/stm32f1xx_hal_rtc_ex.c:288:3
	tst.w	r0, #256
	beq	.LBB5_3
.LBB5_6:
	.loc	6 301 3 is_stmt 1       @ ../Drivers/STM32F1xx_HAL_Driver/Src/stm32f1xx_hal_rtc_ex.c:301:3
	ldr	r0, [r7]
	orr	r0, r0, #3
	str	r0, [r7]
	movs	r0, #0
	movs	r1, #1
	str.w	r1, [r8, #20]
	.loc	6 307 1                 @ ../Drivers/STM32F1xx_HAL_Driver/Src/stm32f1xx_hal_rtc_ex.c:307:1
	pop.w	{r4, r5, r6, r7, r8, pc}
.LBB5_7:
	.loc	6 0 1 is_stmt 0         @ ../Drivers/STM32F1xx_HAL_Driver/Src/stm32f1xx_hal_rtc_ex.c:0:1
	movs	r1, #3
	movs	r0, #3
	str.w	r1, [r8, #20]
	.loc	6 307 1                 @ ../Drivers/STM32F1xx_HAL_Driver/Src/stm32f1xx_hal_rtc_ex.c:307:1
	pop.w	{r4, r5, r6, r7, r8, pc}
.Ltmp57:
.Lfunc_end5:
	.size	HAL_RTCEx_PollForTamper1Event, .Lfunc_end5-HAL_RTCEx_PollForTamper1Event
	.cfi_endproc
	.cantunwind
	.fnend
                                        @ -- End function
	.section	.text.HAL_RTCEx_SetSecond_IT,"ax",%progbits
	.hidden	HAL_RTCEx_SetSecond_IT  @ -- Begin function HAL_RTCEx_SetSecond_IT
	.globl	HAL_RTCEx_SetSecond_IT
	.p2align	2
	.type	HAL_RTCEx_SetSecond_IT,%function
	.code	16                      @ @HAL_RTCEx_SetSecond_IT
	.thumb_func
HAL_RTCEx_SetSecond_IT:
.Lfunc_begin6:
	.loc	6 334 0 is_stmt 1       @ ../Drivers/STM32F1xx_HAL_Driver/Src/stm32f1xx_hal_rtc_ex.c:334:0
	.fnstart
	.cfi_startproc
@ %bb.0:
	@DEBUG_VALUE: HAL_RTCEx_SetSecond_IT:hrtc <- $r0
	@DEBUG_VALUE: HAL_RTCEx_SetSecond_IT:hrtc <- $r0
	.loc	6 336 6 prologue_end    @ ../Drivers/STM32F1xx_HAL_Driver/Src/stm32f1xx_hal_rtc_ex.c:336:6
	cbz	r0, .LBB6_4
@ %bb.1:
	@DEBUG_VALUE: HAL_RTCEx_SetSecond_IT:hrtc <- $r0
.Ltmp58:
	.loc	6 342 3                 @ ../Drivers/STM32F1xx_HAL_Driver/Src/stm32f1xx_hal_rtc_ex.c:342:3
	ldr	r2, [r0, #16]
	movs	r1, #2
.Ltmp59:
	.loc	6 342 3 is_stmt 0       @ ../Drivers/STM32F1xx_HAL_Driver/Src/stm32f1xx_hal_rtc_ex.c:342:3
	cmp	r2, #1
	beq	.LBB6_3
.Ltmp60:
@ %bb.2:
	@DEBUG_VALUE: HAL_RTCEx_SetSecond_IT:hrtc <- $r0
	.loc	6 344 15 is_stmt 1      @ ../Drivers/STM32F1xx_HAL_Driver/Src/stm32f1xx_hal_rtc_ex.c:344:15
	str	r1, [r0, #20]
	.loc	6 347 3                 @ ../Drivers/STM32F1xx_HAL_Driver/Src/stm32f1xx_hal_rtc_ex.c:347:3
	ldr	r1, [r0]
	ldr	r2, [r1]
	orr	r2, r2, #1
	str	r2, [r1]
	movs	r1, #0
.Ltmp61:
	.loc	6 352 3                 @ ../Drivers/STM32F1xx_HAL_Driver/Src/stm32f1xx_hal_rtc_ex.c:352:3
	str	r1, [r0, #16]
.Ltmp62:
	.loc	6 347 3                 @ ../Drivers/STM32F1xx_HAL_Driver/Src/stm32f1xx_hal_rtc_ex.c:347:3
	movs	r2, #1
	.loc	6 349 15                @ ../Drivers/STM32F1xx_HAL_Driver/Src/stm32f1xx_hal_rtc_ex.c:349:15
	str	r2, [r0, #20]
.LBB6_3:
	@DEBUG_VALUE: HAL_RTCEx_SetSecond_IT:hrtc <- $r0
	.loc	6 355 1                 @ ../Drivers/STM32F1xx_HAL_Driver/Src/stm32f1xx_hal_rtc_ex.c:355:1
	mov	r0, r1
	bx	lr
.LBB6_4:
	@DEBUG_VALUE: HAL_RTCEx_SetSecond_IT:hrtc <- $r0
	.loc	6 0 1 is_stmt 0         @ ../Drivers/STM32F1xx_HAL_Driver/Src/stm32f1xx_hal_rtc_ex.c:0:1
	movs	r1, #1
	.loc	6 355 1                 @ ../Drivers/STM32F1xx_HAL_Driver/Src/stm32f1xx_hal_rtc_ex.c:355:1
	mov	r0, r1
	bx	lr
.Ltmp63:
.Lfunc_end6:
	.size	HAL_RTCEx_SetSecond_IT, .Lfunc_end6-HAL_RTCEx_SetSecond_IT
	.cfi_endproc
	.cantunwind
	.fnend
                                        @ -- End function
	.section	.text.HAL_RTCEx_DeactivateSecond,"ax",%progbits
	.hidden	HAL_RTCEx_DeactivateSecond @ -- Begin function HAL_RTCEx_DeactivateSecond
	.globl	HAL_RTCEx_DeactivateSecond
	.p2align	2
	.type	HAL_RTCEx_DeactivateSecond,%function
	.code	16                      @ @HAL_RTCEx_DeactivateSecond
	.thumb_func
HAL_RTCEx_DeactivateSecond:
.Lfunc_begin7:
	.loc	6 364 0 is_stmt 1       @ ../Drivers/STM32F1xx_HAL_Driver/Src/stm32f1xx_hal_rtc_ex.c:364:0
	.fnstart
	.cfi_startproc
@ %bb.0:
	@DEBUG_VALUE: HAL_RTCEx_DeactivateSecond:hrtc <- $r0
	@DEBUG_VALUE: HAL_RTCEx_DeactivateSecond:hrtc <- $r0
	.loc	6 366 6 prologue_end    @ ../Drivers/STM32F1xx_HAL_Driver/Src/stm32f1xx_hal_rtc_ex.c:366:6
	cbz	r0, .LBB7_4
@ %bb.1:
	@DEBUG_VALUE: HAL_RTCEx_DeactivateSecond:hrtc <- $r0
.Ltmp64:
	.loc	6 372 3                 @ ../Drivers/STM32F1xx_HAL_Driver/Src/stm32f1xx_hal_rtc_ex.c:372:3
	ldr	r2, [r0, #16]
	movs	r1, #2
.Ltmp65:
	.loc	6 372 3 is_stmt 0       @ ../Drivers/STM32F1xx_HAL_Driver/Src/stm32f1xx_hal_rtc_ex.c:372:3
	cmp	r2, #1
	beq	.LBB7_3
.Ltmp66:
@ %bb.2:
	@DEBUG_VALUE: HAL_RTCEx_DeactivateSecond:hrtc <- $r0
	.loc	6 374 15 is_stmt 1      @ ../Drivers/STM32F1xx_HAL_Driver/Src/stm32f1xx_hal_rtc_ex.c:374:15
	str	r1, [r0, #20]
	.loc	6 377 3                 @ ../Drivers/STM32F1xx_HAL_Driver/Src/stm32f1xx_hal_rtc_ex.c:377:3
	ldr	r1, [r0]
	ldr	r2, [r1]
	bic	r2, r2, #1
	str	r2, [r1]
	movs	r1, #0
.Ltmp67:
	.loc	6 382 3                 @ ../Drivers/STM32F1xx_HAL_Driver/Src/stm32f1xx_hal_rtc_ex.c:382:3
	str	r1, [r0, #16]
.Ltmp68:
	.loc	6 379 15                @ ../Drivers/STM32F1xx_HAL_Driver/Src/stm32f1xx_hal_rtc_ex.c:379:15
	movs	r2, #1
	str	r2, [r0, #20]
.LBB7_3:
	@DEBUG_VALUE: HAL_RTCEx_DeactivateSecond:hrtc <- $r0
	.loc	6 385 1                 @ ../Drivers/STM32F1xx_HAL_Driver/Src/stm32f1xx_hal_rtc_ex.c:385:1
	mov	r0, r1
	bx	lr
.LBB7_4:
	@DEBUG_VALUE: HAL_RTCEx_DeactivateSecond:hrtc <- $r0
	.loc	6 0 1 is_stmt 0         @ ../Drivers/STM32F1xx_HAL_Driver/Src/stm32f1xx_hal_rtc_ex.c:0:1
	movs	r1, #1
	.loc	6 385 1                 @ ../Drivers/STM32F1xx_HAL_Driver/Src/stm32f1xx_hal_rtc_ex.c:385:1
	mov	r0, r1
	bx	lr
.Ltmp69:
.Lfunc_end7:
	.size	HAL_RTCEx_DeactivateSecond, .Lfunc_end7-HAL_RTCEx_DeactivateSecond
	.cfi_endproc
	.cantunwind
	.fnend
                                        @ -- End function
	.section	.text.HAL_RTCEx_RTCIRQHandler,"ax",%progbits
	.hidden	HAL_RTCEx_RTCIRQHandler @ -- Begin function HAL_RTCEx_RTCIRQHandler
	.globl	HAL_RTCEx_RTCIRQHandler
	.p2align	2
	.type	HAL_RTCEx_RTCIRQHandler,%function
	.code	16                      @ @HAL_RTCEx_RTCIRQHandler
	.thumb_func
HAL_RTCEx_RTCIRQHandler:
.Lfunc_begin8:
	.loc	6 394 0 is_stmt 1       @ ../Drivers/STM32F1xx_HAL_Driver/Src/stm32f1xx_hal_rtc_ex.c:394:0
	.fnstart
	.cfi_startproc
@ %bb.0:
	.save	{r4, lr}
	push	{r4, lr}
	.cfi_def_cfa_offset 8
	.cfi_offset lr, -4
	.cfi_offset r4, -8
	@DEBUG_VALUE: HAL_RTCEx_RTCIRQHandler:hrtc <- $r0
	mov	r4, r0
.Ltmp70:
	@DEBUG_VALUE: HAL_RTCEx_RTCIRQHandler:hrtc <- $r4
	.loc	6 395 6 prologue_end    @ ../Drivers/STM32F1xx_HAL_Driver/Src/stm32f1xx_hal_rtc_ex.c:395:6
	ldr	r0, [r0]
	ldr	r1, [r0]
.Ltmp71:
	.loc	6 395 6 is_stmt 0       @ ../Drivers/STM32F1xx_HAL_Driver/Src/stm32f1xx_hal_rtc_ex.c:395:6
	tst.w	r1, #1
	beq	.LBB8_5
.Ltmp72:
@ %bb.1:
	@DEBUG_VALUE: HAL_RTCEx_RTCIRQHandler:hrtc <- $r4
	.loc	6 398 8 is_stmt 1       @ ../Drivers/STM32F1xx_HAL_Driver/Src/stm32f1xx_hal_rtc_ex.c:398:8
	ldr	r1, [r0, #4]
.Ltmp73:
	.loc	6 398 8 is_stmt 0       @ ../Drivers/STM32F1xx_HAL_Driver/Src/stm32f1xx_hal_rtc_ex.c:398:8
	tst.w	r1, #1
.Ltmp74:
	.loc	6 425 1 is_stmt 1       @ ../Drivers/STM32F1xx_HAL_Driver/Src/stm32f1xx_hal_rtc_ex.c:425:1
	it	eq
	popeq	{r4, pc}
.Ltmp75:
	.loc	6 401 11                @ ../Drivers/STM32F1xx_HAL_Driver/Src/stm32f1xx_hal_rtc_ex.c:401:11
	ldr	r0, [r0, #4]
.Ltmp76:
	.loc	6 401 11 is_stmt 0      @ ../Drivers/STM32F1xx_HAL_Driver/Src/stm32f1xx_hal_rtc_ex.c:401:11
	tst.w	r0, #4
	bne	.LBB8_3
@ %bb.2:
.Ltmp77:
	.loc	6 415 9 is_stmt 1       @ ../Drivers/STM32F1xx_HAL_Driver/Src/stm32f1xx_hal_rtc_ex.c:415:9
	mov	r0, r4
	bl	HAL_RTCEx_RTCEventCallback
	movs	r0, #1
	b	.LBB8_4
.Ltmp78:
.LBB8_3:
	.loc	6 404 9                 @ ../Drivers/STM32F1xx_HAL_Driver/Src/stm32f1xx_hal_rtc_ex.c:404:9
	mov	r0, r4
	bl	HAL_RTCEx_RTCEventErrorCallback
	.loc	6 407 9                 @ ../Drivers/STM32F1xx_HAL_Driver/Src/stm32f1xx_hal_rtc_ex.c:407:9
	ldr	r0, [r4]
	mvn	r1, #4
	str	r1, [r0, #4]
	movs	r0, #4
.Ltmp79:
.LBB8_4:
	.loc	6 0 9 is_stmt 0         @ ../Drivers/STM32F1xx_HAL_Driver/Src/stm32f1xx_hal_rtc_ex.c:0:9
	str	r0, [r4, #20]
	.loc	6 422 7 is_stmt 1       @ ../Drivers/STM32F1xx_HAL_Driver/Src/stm32f1xx_hal_rtc_ex.c:422:7
	ldr	r0, [r4]
	mvn	r1, #1
	str	r1, [r0, #4]
.Ltmp80:
.LBB8_5:
	.loc	6 425 1                 @ ../Drivers/STM32F1xx_HAL_Driver/Src/stm32f1xx_hal_rtc_ex.c:425:1
	pop	{r4, pc}
.Ltmp81:
.Lfunc_end8:
	.size	HAL_RTCEx_RTCIRQHandler, .Lfunc_end8-HAL_RTCEx_RTCIRQHandler
	.cfi_endproc
	.cantunwind
	.fnend
                                        @ -- End function
	.section	.text.HAL_RTCEx_RTCEventErrorCallback,"ax",%progbits
	.hidden	HAL_RTCEx_RTCEventErrorCallback @ -- Begin function HAL_RTCEx_RTCEventErrorCallback
	.weak	HAL_RTCEx_RTCEventErrorCallback
	.p2align	2
	.type	HAL_RTCEx_RTCEventErrorCallback,%function
	.code	16                      @ @HAL_RTCEx_RTCEventErrorCallback
	.thumb_func
HAL_RTCEx_RTCEventErrorCallback:
.Lfunc_begin9:
	.loc	6 449 0                 @ ../Drivers/STM32F1xx_HAL_Driver/Src/stm32f1xx_hal_rtc_ex.c:449:0
	.fnstart
	.cfi_startproc
@ %bb.0:
	@DEBUG_VALUE: HAL_RTCEx_RTCEventErrorCallback:hrtc <- $r0
	.loc	6 455 1 prologue_end    @ ../Drivers/STM32F1xx_HAL_Driver/Src/stm32f1xx_hal_rtc_ex.c:455:1
	bx	lr
.Ltmp82:
.Lfunc_end9:
	.size	HAL_RTCEx_RTCEventErrorCallback, .Lfunc_end9-HAL_RTCEx_RTCEventErrorCallback
	.cfi_endproc
	.cantunwind
	.fnend
                                        @ -- End function
	.section	.text.HAL_RTCEx_RTCEventCallback,"ax",%progbits
	.hidden	HAL_RTCEx_RTCEventCallback @ -- Begin function HAL_RTCEx_RTCEventCallback
	.weak	HAL_RTCEx_RTCEventCallback
	.p2align	2
	.type	HAL_RTCEx_RTCEventCallback,%function
	.code	16                      @ @HAL_RTCEx_RTCEventCallback
	.thumb_func
HAL_RTCEx_RTCEventCallback:
.Lfunc_begin10:
	.loc	6 434 0                 @ ../Drivers/STM32F1xx_HAL_Driver/Src/stm32f1xx_hal_rtc_ex.c:434:0
	.fnstart
	.cfi_startproc
@ %bb.0:
	@DEBUG_VALUE: HAL_RTCEx_RTCEventCallback:hrtc <- $r0
	.loc	6 440 1 prologue_end    @ ../Drivers/STM32F1xx_HAL_Driver/Src/stm32f1xx_hal_rtc_ex.c:440:1
	bx	lr
.Ltmp83:
.Lfunc_end10:
	.size	HAL_RTCEx_RTCEventCallback, .Lfunc_end10-HAL_RTCEx_RTCEventCallback
	.cfi_endproc
	.cantunwind
	.fnend
                                        @ -- End function
	.section	.text.HAL_RTCEx_BKUPWrite,"ax",%progbits
	.hidden	HAL_RTCEx_BKUPWrite     @ -- Begin function HAL_RTCEx_BKUPWrite
	.globl	HAL_RTCEx_BKUPWrite
	.p2align	2
	.type	HAL_RTCEx_BKUPWrite,%function
	.code	16                      @ @HAL_RTCEx_BKUPWrite
	.thumb_func
HAL_RTCEx_BKUPWrite:
.Lfunc_begin11:
	.loc	6 489 0                 @ ../Drivers/STM32F1xx_HAL_Driver/Src/stm32f1xx_hal_rtc_ex.c:489:0
	.fnstart
	.cfi_startproc
@ %bb.0:
	@DEBUG_VALUE: HAL_RTCEx_BKUPWrite:hrtc <- $r0
	@DEBUG_VALUE: HAL_RTCEx_BKUPWrite:BackupRegister <- $r1
	@DEBUG_VALUE: HAL_RTCEx_BKUPWrite:BackupRegister <- $r1
	@DEBUG_VALUE: HAL_RTCEx_BKUPWrite:Data <- $r2
	@DEBUG_VALUE: HAL_RTCEx_BKUPWrite:Data <- $r2
	@DEBUG_VALUE: HAL_RTCEx_BKUPWrite:tmp <- 1073769472
	.loc	6 501 34 prologue_end   @ ../Drivers/STM32F1xx_HAL_Driver/Src/stm32f1xx_hal_rtc_ex.c:501:34
	uxth	r0, r2
.Ltmp84:
	.loc	6 499 7                 @ ../Drivers/STM32F1xx_HAL_Driver/Src/stm32f1xx_hal_rtc_ex.c:499:7
	movw	r2, #27648
.Ltmp85:
	movt	r2, #16384
	.loc	6 501 26                @ ../Drivers/STM32F1xx_HAL_Driver/Src/stm32f1xx_hal_rtc_ex.c:501:26
	str.w	r0, [r2, r1, lsl #2]
	.loc	6 502 1                 @ ../Drivers/STM32F1xx_HAL_Driver/Src/stm32f1xx_hal_rtc_ex.c:502:1
	bx	lr
.Ltmp86:
.Lfunc_end11:
	.size	HAL_RTCEx_BKUPWrite, .Lfunc_end11-HAL_RTCEx_BKUPWrite
	.cfi_endproc
	.cantunwind
	.fnend
                                        @ -- End function
	.section	.text.HAL_RTCEx_BKUPRead,"ax",%progbits
	.hidden	HAL_RTCEx_BKUPRead      @ -- Begin function HAL_RTCEx_BKUPRead
	.globl	HAL_RTCEx_BKUPRead
	.p2align	2
	.type	HAL_RTCEx_BKUPRead,%function
	.code	16                      @ @HAL_RTCEx_BKUPRead
	.thumb_func
HAL_RTCEx_BKUPRead:
.Lfunc_begin12:
	.loc	6 514 0                 @ ../Drivers/STM32F1xx_HAL_Driver/Src/stm32f1xx_hal_rtc_ex.c:514:0
	.fnstart
	.cfi_startproc
@ %bb.0:
	@DEBUG_VALUE: HAL_RTCEx_BKUPRead:hrtc <- $r0
	@DEBUG_VALUE: HAL_RTCEx_BKUPRead:BackupRegister <- $r1
	@DEBUG_VALUE: HAL_RTCEx_BKUPRead:BackupRegister <- $r1
	@DEBUG_VALUE: HAL_RTCEx_BKUPRead:backupregister <- 1073769472
	@DEBUG_VALUE: HAL_RTCEx_BKUPRead:pvalue <- 0
	.loc	6 525 18 prologue_end   @ ../Drivers/STM32F1xx_HAL_Driver/Src/stm32f1xx_hal_rtc_ex.c:525:18
	movw	r0, #27648
.Ltmp87:
	movt	r0, #16384
	.loc	6 527 13                @ ../Drivers/STM32F1xx_HAL_Driver/Src/stm32f1xx_hal_rtc_ex.c:527:13
	ldr.w	r0, [r0, r1, lsl #2]
	.loc	6 527 49 is_stmt 0      @ ../Drivers/STM32F1xx_HAL_Driver/Src/stm32f1xx_hal_rtc_ex.c:527:49
	uxth	r0, r0
.Ltmp88:
	@DEBUG_VALUE: HAL_RTCEx_BKUPRead:pvalue <- $r0
	.loc	6 530 3 is_stmt 1       @ ../Drivers/STM32F1xx_HAL_Driver/Src/stm32f1xx_hal_rtc_ex.c:530:3
	bx	lr
.Ltmp89:
.Lfunc_end12:
	.size	HAL_RTCEx_BKUPRead, .Lfunc_end12-HAL_RTCEx_BKUPRead
	.cfi_endproc
	.cantunwind
	.fnend
                                        @ -- End function
	.section	.text.HAL_RTCEx_SetSmoothCalib,"ax",%progbits
	.hidden	HAL_RTCEx_SetSmoothCalib @ -- Begin function HAL_RTCEx_SetSmoothCalib
	.globl	HAL_RTCEx_SetSmoothCalib
	.p2align	2
	.type	HAL_RTCEx_SetSmoothCalib,%function
	.code	16                      @ @HAL_RTCEx_SetSmoothCalib
	.thumb_func
HAL_RTCEx_SetSmoothCalib:
.Lfunc_begin13:
	.loc	6 544 0                 @ ../Drivers/STM32F1xx_HAL_Driver/Src/stm32f1xx_hal_rtc_ex.c:544:0
	.fnstart
	.cfi_startproc
@ %bb.0:
	@DEBUG_VALUE: HAL_RTCEx_SetSmoothCalib:hrtc <- $r0
	@DEBUG_VALUE: HAL_RTCEx_SetSmoothCalib:hrtc <- $r0
	@DEBUG_VALUE: HAL_RTCEx_SetSmoothCalib:SmoothCalibPeriod <- $r1
	@DEBUG_VALUE: HAL_RTCEx_SetSmoothCalib:SmoothCalibPlusPulses <- $r2
	@DEBUG_VALUE: HAL_RTCEx_SetSmoothCalib:SmouthCalibMinusPulsesValue <- $r3
	@DEBUG_VALUE: HAL_RTCEx_SetSmoothCalib:SmouthCalibMinusPulsesValue <- $r3
	.loc	6 546 6 prologue_end    @ ../Drivers/STM32F1xx_HAL_Driver/Src/stm32f1xx_hal_rtc_ex.c:546:6
	cbz	r0, .LBB13_4
.Ltmp90:
@ %bb.1:
	@DEBUG_VALUE: HAL_RTCEx_SetSmoothCalib:SmouthCalibMinusPulsesValue <- $r3
	@DEBUG_VALUE: HAL_RTCEx_SetSmoothCalib:SmoothCalibPlusPulses <- $r2
	@DEBUG_VALUE: HAL_RTCEx_SetSmoothCalib:SmoothCalibPeriod <- $r1
	@DEBUG_VALUE: HAL_RTCEx_SetSmoothCalib:hrtc <- $r0
	.loc	6 558 3                 @ ../Drivers/STM32F1xx_HAL_Driver/Src/stm32f1xx_hal_rtc_ex.c:558:3
	ldr	r2, [r0, #16]
.Ltmp91:
	.loc	6 0 3 is_stmt 0         @ ../Drivers/STM32F1xx_HAL_Driver/Src/stm32f1xx_hal_rtc_ex.c:0:3
	movs	r1, #2
.Ltmp92:
	.loc	6 558 3                 @ ../Drivers/STM32F1xx_HAL_Driver/Src/stm32f1xx_hal_rtc_ex.c:558:3
	cmp	r2, #1
	beq	.LBB13_3
.Ltmp93:
@ %bb.2:
	@DEBUG_VALUE: HAL_RTCEx_SetSmoothCalib:SmouthCalibMinusPulsesValue <- $r3
	@DEBUG_VALUE: HAL_RTCEx_SetSmoothCalib:hrtc <- $r0
	.loc	6 560 15 is_stmt 1      @ ../Drivers/STM32F1xx_HAL_Driver/Src/stm32f1xx_hal_rtc_ex.c:560:15
	str	r1, [r0, #20]
	movw	r1, #27692
	movt	r1, #16384
	.loc	6 563 3                 @ ../Drivers/STM32F1xx_HAL_Driver/Src/stm32f1xx_hal_rtc_ex.c:563:3
	ldr	r2, [r1]
	bic	r2, r2, #127
	orrs	r2, r3
	str	r2, [r1]
	movs	r1, #0
.Ltmp94:
	.loc	6 569 3                 @ ../Drivers/STM32F1xx_HAL_Driver/Src/stm32f1xx_hal_rtc_ex.c:569:3
	str	r1, [r0, #16]
.Ltmp95:
	.loc	6 566 15                @ ../Drivers/STM32F1xx_HAL_Driver/Src/stm32f1xx_hal_rtc_ex.c:566:15
	movs	r2, #1
	str	r2, [r0, #20]
.LBB13_3:
	@DEBUG_VALUE: HAL_RTCEx_SetSmoothCalib:SmouthCalibMinusPulsesValue <- $r3
	@DEBUG_VALUE: HAL_RTCEx_SetSmoothCalib:hrtc <- $r0
	.loc	6 572 1                 @ ../Drivers/STM32F1xx_HAL_Driver/Src/stm32f1xx_hal_rtc_ex.c:572:1
	mov	r0, r1
	bx	lr
.LBB13_4:
	@DEBUG_VALUE: HAL_RTCEx_SetSmoothCalib:SmouthCalibMinusPulsesValue <- $r3
.Ltmp96:
	@DEBUG_VALUE: HAL_RTCEx_SetSmoothCalib:SmoothCalibPlusPulses <- $r2
	@DEBUG_VALUE: HAL_RTCEx_SetSmoothCalib:SmoothCalibPeriod <- $r1
	@DEBUG_VALUE: HAL_RTCEx_SetSmoothCalib:hrtc <- $r0
	.loc	6 0 1 is_stmt 0         @ ../Drivers/STM32F1xx_HAL_Driver/Src/stm32f1xx_hal_rtc_ex.c:0:1
	movs	r1, #1
.Ltmp97:
	.loc	6 572 1                 @ ../Drivers/STM32F1xx_HAL_Driver/Src/stm32f1xx_hal_rtc_ex.c:572:1
	mov	r0, r1
	bx	lr
.Ltmp98:
.Lfunc_end13:
	.size	HAL_RTCEx_SetSmoothCalib, .Lfunc_end13-HAL_RTCEx_SetSmoothCalib
	.cfi_endproc
	.cantunwind
	.fnend
                                        @ -- End function
	.file	7 "../Drivers/STM32F1xx_HAL_Driver/Inc" "stm32f1xx_hal_rtc_ex.h"
	.section	".note.GNU-stack","",%progbits
	.eabi_attribute	30, 1	@ Tag_ABI_optimization_goals
	.ARM_attribute	16, 1	@ Tag_AV_eba