	.text
	.syntax unified
	.eabi_attribute	67, "2.09"	@ Tag_conformance
	.cpu	cortex-m3
	.eabi_attribute	6, 10	@ Tag_CPU_arch
	.eabi_attribute	7, 77	@ Tag_CPU_arch_profile
	.eabi_attribute	8, 0	@ Tag_ARM_ISA_use
	.eabi_attribute	9, 2	@ Tag_THUMB_ISA_use
	.eabi_attribute	34, 1	@ Tag_CPU_unaligned_access
	.eabi_attribute	17, 1	@ Tag_ABI_PCS_GOT_use
	.eabi_attribute	20, 2	@ Tag_ABI_FP_denormal
	.eabi_attribute	21, 0	@ Tag_ABI_FP_exceptions
	.eabi_attribute	23, 1	@ Tag_ABI_FP_number_model
	.eabi_attribute	24, 1	@ Tag_ABI_align_needed
	.eabi_attribute	25, 1	@ Tag_ABI_align_preserved
	.eabi_attribute	38, 1	@ Tag_ABI_FP_16bit_format
	.eabi_attribute	18, 4	@ Tag_ABI_PCS_wchar_t
	.eabi_attribute	26, 2	@ Tag_ABI_enum_size
	.eabi_attribute	14, 0	@ Tag_ABI_PCS_R9_use
	.file	"stm32f1xx_hal_spi.c"
	.file	1 "../Drivers/STM32F1xx_HAL_Driver/Inc" "stm32f1xx_hal_def.h"
	.file	2 "../Drivers/STM32F1xx_HAL_Driver/Inc" "stm32f1xx_hal_dma.h"
	.file	3 "../Drivers/STM32F1xx_HAL_Driver/Inc" "stm32f1xx_hal_spi.h"
	.file	4 "../Drivers/CMSIS/Device/ST/STM32F1xx/Include" "stm32f1xx.h"
	.file	5 "C:\\Keil\\ARM\\ARMCLANG\\Bin\\..\\include" "stdint.h"
	.file	6 "../Drivers/CMSIS/Device/ST/STM32F1xx/Include" "stm32f103xb.h"
	.section	.text.HAL_SPI_Init,"ax",%progbits
	.hidden	HAL_SPI_Init            @ -- Begin function HAL_SPI_Init
	.weak	HAL_SPI_Init
	.p2align	2
	.type	HAL_SPI_Init,%function
	.code	16                      @ @HAL_SPI_Init
	.thumb_func
HAL_SPI_Init:
.Lfunc_begin0:
	.file	7 "../Drivers/STM32F1xx_HAL_Driver/Src" "stm32f1xx_hal_spi.c"
	.loc	7 264 0                 @ ../Drivers/STM32F1xx_HAL_Driver/Src/stm32f1xx_hal_spi.c:264:0
	.fnstart
	.cfi_sections .debug_frame
	.cfi_startproc
@ %bb.0:
	.save	{r4, r5, r6, lr}
	push	{r4, r5, r6, lr}
	.cfi_def_cfa_offset 16
	.cfi_offset lr, -4
	.cfi_offset r6, -8
	.cfi_offset r5, -12
	.cfi_offset r4, -16
	@DEBUG_VALUE: HAL_SPI_Init:hspi <- $r0
	mov	r5, r0
.Ltmp0:
	@DEBUG_VALUE: HAL_SPI_Init:hspi <- $r5
	.loc	7 266 6 prologue_end    @ ../Drivers/STM32F1xx_HAL_Driver/Src/stm32f1xx_hal_spi.c:266:6
	cbz	r0, .LBB0_4
.Ltmp1:
@ %bb.1:
	@DEBUG_VALUE: HAL_SPI_Init:hspi <- $r5
	.loc	7 0 6 is_stmt 0         @ ../Drivers/STM32F1xx_HAL_Driver/Src/stm32f1xx_hal_spi.c:0:6
	movs	r6, #0
	.loc	7 289 29 is_stmt 1      @ ../Drivers/STM32F1xx_HAL_Driver/Src/stm32f1xx_hal_spi.c:289:29
	str	r6, [r5, #40]
.Ltmp2:
	.loc	7 292 12                @ ../Drivers/STM32F1xx_HAL_Driver/Src/stm32f1xx_hal_spi.c:292:12
	ldr	r0, [r5, #84]
.Ltmp3:
	.loc	7 292 6 is_stmt 0       @ ../Drivers/STM32F1xx_HAL_Driver/Src/stm32f1xx_hal_spi.c:292:6
	cbnz	r0, .LBB0_3
.Ltmp4:
@ %bb.2:
	@DEBUG_VALUE: HAL_SPI_Init:hspi <- $r5
	.loc	7 295 16 is_stmt 1      @ ../Drivers/STM32F1xx_HAL_Driver/Src/stm32f1xx_hal_spi.c:295:16
	str	r6, [r5, #80]
	.loc	7 298 5                 @ ../Drivers/STM32F1xx_HAL_Driver/Src/stm32f1xx_hal_spi.c:298:5
	mov	r0, r5
	bl	HAL_SPI_MspInit
.Ltmp5:
.LBB0_3:
	@DEBUG_VALUE: HAL_SPI_Init:hspi <- $r5
	.loc	7 301 15                @ ../Drivers/STM32F1xx_HAL_Driver/Src/stm32f1xx_hal_spi.c:301:15
	movs	r0, #2
	str	r0, [r5, #84]
	.loc	7 304 3                 @ ../Drivers/STM32F1xx_HAL_Driver/Src/stm32f1xx_hal_spi.c:304:3
	ldr	r0, [r5]
	ldr	r1, [r0]
	bic	r1, r1, #64
	str	r1, [r0]
	.loc	7 309 3                 @ ../Drivers/STM32F1xx_HAL_Driver/Src/stm32f1xx_hal_spi.c:309:3
	adds	r4, r5, #4
	ldm	r4, {r1, r2, r3, r4}
	orrs	r1, r2
	orrs	r1, r3
	orrs	r1, r4
	ldr	r2, [r5, #20]
	orrs	r1, r2
	ldr	r2, [r5, #24]
	and	r3, r2, #512
	orrs	r1, r3
	ldr	r3, [r5, #28]
	orrs	r1, r3
	ldr	r3, [r5, #32]
	orrs	r1, r3
	ldr	r3, [r5, #40]
	orrs	r1, r3
	str	r1, [r0]
	movs	r1, #4
	.loc	7 314 3                 @ ../Drivers/STM32F1xx_HAL_Driver/Src/stm32f1xx_hal_spi.c:314:3
	and.w	r1, r1, r2, lsr #16
	ldr	r2, [r5, #36]
	orrs	r1, r2
	str	r1, [r0, #4]
	.loc	7 327 3                 @ ../Drivers/STM32F1xx_HAL_Driver/Src/stm32f1xx_hal_spi.c:327:3
	ldr	r1, [r0, #28]
	bic	r1, r1, #2048
	str	r1, [r0, #28]
	.loc	7 330 19                @ ../Drivers/STM32F1xx_HAL_Driver/Src/stm32f1xx_hal_spi.c:330:19
	str	r6, [r5, #88]
	.loc	7 331 19                @ ../Drivers/STM32F1xx_HAL_Driver/Src/stm32f1xx_hal_spi.c:331:19
	movs	r0, #1
	str	r0, [r5, #84]
	.loc	7 334 1                 @ ../Drivers/STM32F1xx_HAL_Driver/Src/stm32f1xx_hal_spi.c:334:1
	mov	r0, r6
	pop	{r4, r5, r6, pc}
.Ltmp6:
.LBB0_4:
	@DEBUG_VALUE: HAL_SPI_Init:hspi <- $r5
	.loc	7 0 1 is_stmt 0         @ ../Drivers/STM32F1xx_HAL_Driver/Src/stm32f1xx_hal_spi.c:0:1
	movs	r6, #1
	.loc	7 334 1                 @ ../Drivers/STM32F1xx_HAL_Driver/Src/stm32f1xx_hal_spi.c:334:1
	mov	r0, r6
	pop	{r4, r5, r6, pc}
.Ltmp7:
.Lfunc_end0:
	.size	HAL_SPI_Init, .Lfunc_end0-HAL_SPI_Init
	.cfi_endproc
	.cantunwind
	.fnend
                                        @ -- End function
	.section	.text.HAL_SPI_MspInit,"ax",%progbits
	.hidden	HAL_SPI_MspInit         @ -- Begin function HAL_SPI_MspInit
	.weak	HAL_SPI_MspInit
	.p2align	2
	.type	HAL_SPI_MspInit,%function
	.code	16                      @ @HAL_SPI_MspInit
	.thumb_func
HAL_SPI_MspInit:
.Lfunc_begin1:
	.loc	7 377 0 is_stmt 1       @ ../Drivers/STM32F1xx_HAL_Driver/Src/stm32f1xx_hal_spi.c:377:0
	.fnstart
	.cfi_startproc
@ %bb.0:
	@DEBUG_VALUE: HAL_SPI_MspInit:hspi <- $r0
	.loc	7 383 1 prologue_end    @ ../Drivers/STM32F1xx_HAL_Driver/Src/stm32f1xx_hal_spi.c:383:1
	bx	lr
.Ltmp8:
.Lfunc_end1:
	.size	HAL_SPI_MspInit, .Lfunc_end1-HAL_SPI_MspInit
	.cfi_endproc
	.cantunwind
	.fnend
                                        @ -- End function
	.section	.text.HAL_SPI_DeInit,"ax",%progbits
	.hidden	HAL_SPI_DeInit          @ -- Begin function HAL_SPI_DeInit
	.globl	HAL_SPI_DeInit
	.p2align	2
	.type	HAL_SPI_DeInit,%function
	.code	16                      @ @HAL_SPI_DeInit
	.thumb_func
HAL_SPI_DeInit:
.Lfunc_begin2:
	.loc	7 343 0                 @ ../Drivers/STM32F1xx_HAL_Driver/Src/stm32f1xx_hal_spi.c:343:0
	.fnstart
	.cfi_startproc
@ %bb.0:
	.save	{r4, lr}
	push	{r4, lr}
	.cfi_def_cfa_offset 8
	.cfi_offset lr, -4
	.cfi_offset r4, -8
	@DEBUG_VALUE: HAL_SPI_DeInit:hspi <- $r0
	mov	r4, r0
.Ltmp9:
	@DEBUG_VALUE: HAL_SPI_DeInit:hspi <- $r4
	.loc	7 345 6 prologue_end    @ ../Drivers/STM32F1xx_HAL_Driver/Src/stm32f1xx_hal_spi.c:345:6
	cmp	r0, #0
	itt	eq
	moveq	r0, #1
	.loc	7 368 1                 @ ../Drivers/STM32F1xx_HAL_Driver/Src/stm32f1xx_hal_spi.c:368:1
	popeq	{r4, pc}
.Ltmp10:
	.loc	7 353 15                @ ../Drivers/STM32F1xx_HAL_Driver/Src/stm32f1xx_hal_spi.c:353:15
	movs	r0, #2
	str	r0, [r4, #84]
	.loc	7 356 3                 @ ../Drivers/STM32F1xx_HAL_Driver/Src/stm32f1xx_hal_spi.c:356:3
	ldr	r0, [r4]
	ldr	r1, [r0]
	bic	r1, r1, #64
	str	r1, [r0]
	.loc	7 359 3                 @ ../Drivers/STM32F1xx_HAL_Driver/Src/stm32f1xx_hal_spi.c:359:3
	mov	r0, r4
	bl	HAL_SPI_MspDeInit
	movs	r0, #0
	.loc	7 361 19                @ ../Drivers/STM32F1xx_HAL_Driver/Src/stm32f1xx_hal_spi.c:361:19
	str	r0, [r4, #88]
.Ltmp11:
	.loc	7 365 3                 @ ../Drivers/STM32F1xx_HAL_Driver/Src/stm32f1xx_hal_spi.c:365:3
	str	r0, [r4, #80]
.Ltmp12:
	.loc	7 362 15                @ ../Drivers/STM32F1xx_HAL_Driver/Src/stm32f1xx_hal_spi.c:362:15
	str	r0, [r4, #84]
	.loc	7 368 1                 @ ../Drivers/STM32F1xx_HAL_Driver/Src/stm32f1xx_hal_spi.c:368:1
	pop	{r4, pc}
.Ltmp13:
.Lfunc_end2:
	.size	HAL_SPI_DeInit, .Lfunc_end2-HAL_SPI_DeInit
	.cfi_endproc
	.cantunwind
	.fnend
                                        @ -- End function
	.section	.text.HAL_SPI_MspDeInit,"ax",%progbits
	.hidden	HAL_SPI_MspDeInit       @ -- Begin function HAL_SPI_MspDeInit
	.weak	HAL_SPI_MspDeInit
	.p2align	2
	.type	HAL_SPI_MspDeInit,%function
	.code	16                      @ @HAL_SPI_MspDeInit
	.thumb_func
HAL_SPI_MspDeInit:
.Lfunc_begin3:
	.loc	7 392 0                 @ ../Drivers/STM32F1xx_HAL_Driver/Src/stm32f1xx_hal_spi.c:392:0
	.fnstart
	.cfi_startproc
@ %bb.0:
	@DEBUG_VALUE: HAL_SPI_MspDeInit:hspi <- $r0
	.loc	7 398 1 prologue_end    @ ../Drivers/STM32F1xx_HAL_Driver/Src/stm32f1xx_hal_spi.c:398:1
	bx	lr
.Ltmp14:
.Lfunc_end3:
	.size	HAL_SPI_MspDeInit, .Lfunc_end3-HAL_SPI_MspDeInit
	.cfi_endproc
	.cantunwind
	.fnend
                                        @ -- End function
	.section	.text.HAL_SPI_Transmit,"ax",%progbits
	.hidden	HAL_SPI_Transmit        @ -- Begin function HAL_SPI_Transmit
	.globl	HAL_SPI_Transmit
	.p2align	2
	.type	HAL_SPI_Transmit,%function
	.code	16                      @ @HAL_SPI_Transmit
	.thumb_func
HAL_SPI_Transmit:
.Lfunc_begin4:
	.loc	7 447 0                 @ ../Drivers/STM32F1xx_HAL_Driver/Src/stm32f1xx_hal_spi.c:447:0
	.fnstart
	.cfi_startproc
@ %bb.0:
	.save	{r4, r5, r6, r7, r8, r9, lr}
	push.w	{r4, r5, r6, r7, r8, r9, lr}
	.cfi_def_cfa_offset 28
	.cfi_offset lr, -4
	.cfi_offset r9, -8
	.cfi_offset r8, -12
	.cfi_offset r7, -16
	.cfi_offset r6, -20
	.cfi_offset r5, -24
	.cfi_offset r4, -28
	.pad	#12
	sub	sp, #12
	.cfi_def_cfa_offset 40
	@DEBUG_VALUE: HAL_SPI_Transmit:hspi <- $r0
	@DEBUG_VALUE: HAL_SPI_Transmit:pData <- $r1
	@DEBUG_VALUE: HAL_SPI_Transmit:Size <- $r2
	@DEBUG_VALUE: HAL_SPI_Transmit:Timeout <- $r3
	mov	r5, r3
	mov	r6, r2
	mov	r7, r1
	mov	r4, r0
.Ltmp15:
	@DEBUG_VALUE: HAL_SPI_Transmit:errorcode <- 0
	@DEBUG_VALUE: HAL_SPI_Transmit:tickstart <- 0
	@DEBUG_VALUE: HAL_SPI_Transmit:Timeout <- $r5
	@DEBUG_VALUE: HAL_SPI_Transmit:Size <- $r6
	@DEBUG_VALUE: HAL_SPI_Transmit:pData <- $r7
	@DEBUG_VALUE: HAL_SPI_Transmit:hspi <- $r4
	.loc	7 455 3 prologue_end    @ ../Drivers/STM32F1xx_HAL_Driver/Src/stm32f1xx_hal_spi.c:455:3
	ldr	r0, [r0, #80]
.Ltmp16:
	.loc	7 455 3 is_stmt 0       @ ../Drivers/STM32F1xx_HAL_Driver/Src/stm32f1xx_hal_spi.c:455:3
	cmp	r0, #1
	ittt	eq
	moveq	r0, #2
.Ltmp17:
	.loc	7 605 1 is_stmt 1       @ ../Drivers/STM32F1xx_HAL_Driver/Src/stm32f1xx_hal_spi.c:605:1
	addeq	sp, #12
	popeq.w	{r4, r5, r6, r7, r8, r9, pc}
.Ltmp18:
	.loc	7 0 1 is_stmt 0         @ ../Drivers/STM32F1xx_HAL_Driver/Src/stm32f1xx_hal_spi.c:0:1
	mov.w	r9, #1
.Ltmp19:
	.loc	7 455 3 is_stmt 1       @ ../Drivers/STM32F1xx_HAL_Driver/Src/stm32f1xx_hal_spi.c:455:3
	str.w	r9, [r4, #80]
.Ltmp20:
	.loc	7 458 15                @ ../Drivers/STM32F1xx_HAL_Driver/Src/stm32f1xx_hal_spi.c:458:15
	bl	HAL_GetTick
	mov	r8, r0
.Ltmp21:
	@DEBUG_VALUE: HAL_SPI_Transmit:tickstart <- $r8
	.loc	7 460 12                @ ../Drivers/STM32F1xx_HAL_Driver/Src/stm32f1xx_hal_spi.c:460:12
	ldr	r0, [r4, #84]
.Ltmp22:
	.loc	7 460 6 is_stmt 0       @ ../Drivers/STM32F1xx_HAL_Driver/Src/stm32f1xx_hal_spi.c:460:6
	cmp	r0, #1
	bne	.LBB4_16
.Ltmp23:
@ %bb.1:
	@DEBUG_VALUE: HAL_SPI_Transmit:tickstart <- $r8
	.loc	7 0 6                   @ ../Drivers/STM32F1xx_HAL_Driver/Src/stm32f1xx_hal_spi.c:0:6
	movs	r0, #1
.Ltmp24:
	.loc	7 466 23 is_stmt 1      @ ../Drivers/STM32F1xx_HAL_Driver/Src/stm32f1xx_hal_spi.c:466:23
	cmp	r7, #0
	it	ne
	cmpne	r6, #0
	beq	.LBB4_17
.Ltmp25:
@ %bb.2:
	@DEBUG_VALUE: HAL_SPI_Transmit:tickstart <- $r8
	@DEBUG_VALUE: HAL_SPI_Transmit:Size <- $r6
	.loc	7 473 21                @ ../Drivers/STM32F1xx_HAL_Driver/Src/stm32f1xx_hal_spi.c:473:21
	movs	r0, #3
	str	r0, [r4, #84]
	movs	r0, #0
	.loc	7 474 21                @ ../Drivers/STM32F1xx_HAL_Driver/Src/stm32f1xx_hal_spi.c:474:21
	str	r0, [r4, #88]
	.loc	7 477 21                @ ../Drivers/STM32F1xx_HAL_Driver/Src/stm32f1xx_hal_spi.c:477:21
	strh	r6, [r4, #54]
	.loc	7 475 21                @ ../Drivers/STM32F1xx_HAL_Driver/Src/stm32f1xx_hal_spi.c:475:21
	str	r7, [r4, #48]
	.loc	7 476 21                @ ../Drivers/STM32F1xx_HAL_Driver/Src/stm32f1xx_hal_spi.c:476:21
	strh	r6, [r4, #52]
	.loc	7 480 21                @ ../Drivers/STM32F1xx_HAL_Driver/Src/stm32f1xx_hal_spi.c:480:21
	str	r0, [r4, #56]
	.loc	7 481 21                @ ../Drivers/STM32F1xx_HAL_Driver/Src/stm32f1xx_hal_spi.c:481:21
	strh	r0, [r4, #60]
	.loc	7 484 21                @ ../Drivers/STM32F1xx_HAL_Driver/Src/stm32f1xx_hal_spi.c:484:21
	strd	r0, r0, [r4, #64]
	.loc	7 482 21                @ ../Drivers/STM32F1xx_HAL_Driver/Src/stm32f1xx_hal_spi.c:482:21
	strh	r0, [r4, #62]
.Ltmp26:
	.loc	7 487 17                @ ../Drivers/STM32F1xx_HAL_Driver/Src/stm32f1xx_hal_spi.c:487:17
	ldr	r0, [r4, #8]
.Ltmp27:
	.loc	7 487 6 is_stmt 0       @ ../Drivers/STM32F1xx_HAL_Driver/Src/stm32f1xx_hal_spi.c:487:6
	cmp.w	r0, #32768
	bne	.LBB4_4
.Ltmp28:
@ %bb.3:
	@DEBUG_VALUE: HAL_SPI_Transmit:tickstart <- $r8
	@DEBUG_VALUE: HAL_SPI_Transmit:Size <- $r6
	.loc	7 489 5 is_stmt 1       @ ../Drivers/STM32F1xx_HAL_Driver/Src/stm32f1xx_hal_spi.c:489:5
	ldr	r0, [r4]
	ldr	r1, [r0]
	orr	r1, r1, #16384
	str	r1, [r0]
.Ltmp29:
.LBB4_4:
	@DEBUG_VALUE: HAL_SPI_Transmit:tickstart <- $r8
	@DEBUG_VALUE: HAL_SPI_Transmit:Size <- $r6
	.loc	7 501 13                @ ../Drivers/STM32F1xx_HAL_Driver/Src/stm32f1xx_hal_spi.c:501:13
	ldr	r0, [r4]
	.loc	7 501 23 is_stmt 0      @ ../Drivers/STM32F1xx_HAL_Driver/Src/stm32f1xx_hal_spi.c:501:23
	ldr	r1, [r0]
.Ltmp30:
	.loc	7 501 6                 @ ../Drivers/STM32F1xx_HAL_Driver/Src/stm32f1xx_hal_spi.c:501:6
	tst.w	r1, #64
.Ltmp31:
	.loc	7 504 5 is_stmt 1       @ ../Drivers/STM32F1xx_HAL_Driver/Src/stm32f1xx_hal_spi.c:504:5
	ittt	eq
	ldreq	r1, [r0]
	orreq	r1, r1, #64
	streq	r1, [r0]
	ldr	r1, [r4, #4]
.Ltmp32:
	.loc	7 508 17                @ ../Drivers/STM32F1xx_HAL_Driver/Src/stm32f1xx_hal_spi.c:508:17
	ldr	r2, [r4, #12]
.Ltmp33:
	.loc	7 508 6 is_stmt 0       @ ../Drivers/STM32F1xx_HAL_Driver/Src/stm32f1xx_hal_spi.c:508:6
	cmp.w	r2, #2048
	bne	.LBB4_18
.Ltmp34:
@ %bb.5:
	@DEBUG_VALUE: HAL_SPI_Transmit:tickstart <- $r8
	@DEBUG_VALUE: HAL_SPI_Transmit:Size <- $r6
	.loc	7 510 44 is_stmt 1      @ ../Drivers/STM32F1xx_HAL_Driver/Src/stm32f1xx_hal_spi.c:510:44
	cbz	r1, .LBB4_7
.Ltmp35:
@ %bb.6:
	@DEBUG_VALUE: HAL_SPI_Transmit:tickstart <- $r8
	@DEBUG_VALUE: HAL_SPI_Transmit:Size <- $r6
	.loc	7 510 54 is_stmt 0      @ ../Drivers/STM32F1xx_HAL_Driver/Src/stm32f1xx_hal_spi.c:510:54
	ldrh	r1, [r4, #54]
.Ltmp36:
	.loc	7 510 8                 @ ../Drivers/STM32F1xx_HAL_Driver/Src/stm32f1xx_hal_spi.c:510:8
	cmp	r1, #1
	bne	.LBB4_8
.Ltmp37:
.LBB4_7:
	@DEBUG_VALUE: HAL_SPI_Transmit:tickstart <- $r8
	@DEBUG_VALUE: HAL_SPI_Transmit:Size <- $r6
	.loc	7 512 28 is_stmt 1      @ ../Drivers/STM32F1xx_HAL_Driver/Src/stm32f1xx_hal_spi.c:512:28
	ldrh	r1, [r7], #2
.Ltmp38:
	@DEBUG_VALUE: HAL_SPI_Transmit:pData <- $r7
	.loc	7 512 26 is_stmt 0      @ ../Drivers/STM32F1xx_HAL_Driver/Src/stm32f1xx_hal_spi.c:512:26
	str	r1, [r0, #12]
	.loc	7 514 24 is_stmt 1      @ ../Drivers/STM32F1xx_HAL_Driver/Src/stm32f1xx_hal_spi.c:514:24
	ldrh	r0, [r4, #54]
	subs	r0, #1
	strh	r0, [r4, #54]
.Ltmp39:
.LBB4_8:
	@DEBUG_VALUE: HAL_SPI_Transmit:tickstart <- $r8
	@DEBUG_VALUE: HAL_SPI_Transmit:Size <- $r6
	.loc	7 517 18                @ ../Drivers/STM32F1xx_HAL_Driver/Src/stm32f1xx_hal_spi.c:517:18
	ldrh	r0, [r4, #54]
	.loc	7 517 5 is_stmt 0       @ ../Drivers/STM32F1xx_HAL_Driver/Src/stm32f1xx_hal_spi.c:517:5
	cmp	r0, #0
	beq	.LBB4_29
.Ltmp40:
@ %bb.9:
	@DEBUG_VALUE: HAL_SPI_Transmit:tickstart <- $r8
	@DEBUG_VALUE: HAL_SPI_Transmit:Size <- $r6
	.loc	7 0 5                   @ ../Drivers/STM32F1xx_HAL_Driver/Src/stm32f1xx_hal_spi.c:0:5
	adds	r6, r5, #1
.Ltmp41:
	.p2align	2
.LBB4_10:                               @ =>This Inner Loop Header: Depth=1
	@DEBUG_VALUE: HAL_SPI_Transmit:tickstart <- $r8
	.loc	7 520 10 is_stmt 1      @ ../Drivers/STM32F1xx_HAL_Driver/Src/stm32f1xx_hal_spi.c:520:10
	ldr	r0, [r4]
	ldr	r1, [r0, #8]
.Ltmp42:
	.loc	7 520 10 is_stmt 0      @ ../Drivers/STM32F1xx_HAL_Driver/Src/stm32f1xx_hal_spi.c:520:10
	tst.w	r1, #2
	bne	.LBB4_14
.Ltmp43:
@ %bb.11:                               @   in Loop: Header=BB4_10 Depth=1
	@DEBUG_VALUE: HAL_SPI_Transmit:tickstart <- $r8
	.loc	7 529 28 is_stmt 1      @ ../Drivers/STM32F1xx_HAL_Driver/Src/stm32f1xx_hal_spi.c:529:28
	cbz	r6, .LBB4_15
.Ltmp44:
@ %bb.12:                               @   in Loop: Header=BB4_10 Depth=1
	@DEBUG_VALUE: HAL_SPI_Transmit:tickstart <- $r8
	cmp	r5, #0
	beq	.LBB4_36
.Ltmp45:
@ %bb.13:                               @   in Loop: Header=BB4_10 Depth=1
	@DEBUG_VALUE: HAL_SPI_Transmit:tickstart <- $r8
	.loc	7 529 64 is_stmt 0      @ ../Drivers/STM32F1xx_HAL_Driver/Src/stm32f1xx_hal_spi.c:529:64
	bl	HAL_GetTick
	.loc	7 529 77                @ ../Drivers/STM32F1xx_HAL_Driver/Src/stm32f1xx_hal_spi.c:529:77
	sub.w	r0, r0, r8
.Ltmp46:
	.loc	7 529 12                @ ../Drivers/STM32F1xx_HAL_Driver/Src/stm32f1xx_hal_spi.c:529:12
	cmp	r0, r5
	blo	.LBB4_15
	b	.LBB4_38
.Ltmp47:
	.p2align	2
.LBB4_14:                               @   in Loop: Header=BB4_10 Depth=1
	@DEBUG_VALUE: HAL_SPI_Transmit:tickstart <- $r8
	@DEBUG_VALUE: HAL_SPI_Transmit:pData <- $r7
	.loc	7 522 32 is_stmt 1      @ ../Drivers/STM32F1xx_HAL_Driver/Src/stm32f1xx_hal_spi.c:522:32
	ldrh	r1, [r7], #2
.Ltmp48:
	@DEBUG_VALUE: HAL_SPI_Transmit:pData <- $r7
	.loc	7 522 30 is_stmt 0      @ ../Drivers/STM32F1xx_HAL_Driver/Src/stm32f1xx_hal_spi.c:522:30
	str	r1, [r0, #12]
	.loc	7 524 28 is_stmt 1      @ ../Drivers/STM32F1xx_HAL_Driver/Src/stm32f1xx_hal_spi.c:524:28
	ldrh	r0, [r4, #54]
	subs	r0, #1
	strh	r0, [r4, #54]
.Ltmp49:
.LBB4_15:                               @   in Loop: Header=BB4_10 Depth=1
	@DEBUG_VALUE: HAL_SPI_Transmit:tickstart <- $r8
	.loc	7 517 18                @ ../Drivers/STM32F1xx_HAL_Driver/Src/stm32f1xx_hal_spi.c:517:18
	ldrh	r0, [r4, #54]
	.loc	7 517 5 is_stmt 0       @ ../Drivers/STM32F1xx_HAL_Driver/Src/stm32f1xx_hal_spi.c:517:5
	cmp	r0, #0
	bne	.LBB4_10
	b	.LBB4_29
.Ltmp50:
.LBB4_16:
	@DEBUG_VALUE: HAL_SPI_Transmit:tickstart <- $r8
	.loc	7 0 5                   @ ../Drivers/STM32F1xx_HAL_Driver/Src/stm32f1xx_hal_spi.c:0:5
	movs	r0, #2
.Ltmp51:
.LBB4_17:
	@DEBUG_VALUE: HAL_SPI_Transmit:tickstart <- $r8
	movs	r1, #0
.Ltmp52:
	.loc	7 603 3 is_stmt 1       @ ../Drivers/STM32F1xx_HAL_Driver/Src/stm32f1xx_hal_spi.c:603:3
	str	r1, [r4, #80]
.Ltmp53:
	.loc	7 601 15                @ ../Drivers/STM32F1xx_HAL_Driver/Src/stm32f1xx_hal_spi.c:601:15
	str.w	r9, [r4, #84]
	.loc	7 605 1                 @ ../Drivers/STM32F1xx_HAL_Driver/Src/stm32f1xx_hal_spi.c:605:1
	add	sp, #12
	pop.w	{r4, r5, r6, r7, r8, r9, pc}
.Ltmp54:
.LBB4_18:
	@DEBUG_VALUE: HAL_SPI_Transmit:tickstart <- $r8
	@DEBUG_VALUE: HAL_SPI_Transmit:Size <- $r6
	.loc	7 540 43                @ ../Drivers/STM32F1xx_HAL_Driver/Src/stm32f1xx_hal_spi.c:540:43
	cbz	r1, .LBB4_20
.Ltmp55:
@ %bb.19:
	@DEBUG_VALUE: HAL_SPI_Transmit:tickstart <- $r8
	@DEBUG_VALUE: HAL_SPI_Transmit:Size <- $r6
	.loc	7 540 53 is_stmt 0      @ ../Drivers/STM32F1xx_HAL_Driver/Src/stm32f1xx_hal_spi.c:540:53
	ldrh	r1, [r4, #54]
.Ltmp56:
	.loc	7 540 8                 @ ../Drivers/STM32F1xx_HAL_Driver/Src/stm32f1xx_hal_spi.c:540:8
	cmp	r1, #1
	bne	.LBB4_21
.Ltmp57:
.LBB4_20:
	@DEBUG_VALUE: HAL_SPI_Transmit:tickstart <- $r8
	@DEBUG_VALUE: HAL_SPI_Transmit:Size <- $r6
	.loc	7 542 48 is_stmt 1      @ ../Drivers/STM32F1xx_HAL_Driver/Src/stm32f1xx_hal_spi.c:542:48
	ldrb	r1, [r7], #1
.Ltmp58:
	@DEBUG_VALUE: HAL_SPI_Transmit:pData <- $r7
	.loc	7 542 45 is_stmt 0      @ ../Drivers/STM32F1xx_HAL_Driver/Src/stm32f1xx_hal_spi.c:542:45
	strb	r1, [r0, #12]
	.loc	7 544 24 is_stmt 1      @ ../Drivers/STM32F1xx_HAL_Driver/Src/stm32f1xx_hal_spi.c:544:24
	ldrh	r0, [r4, #54]
	subs	r0, #1
	strh	r0, [r4, #54]
.Ltmp59:
.LBB4_21:
	@DEBUG_VALUE: HAL_SPI_Transmit:tickstart <- $r8
	@DEBUG_VALUE: HAL_SPI_Transmit:Size <- $r6
	.loc	7 546 18                @ ../Drivers/STM32F1xx_HAL_Driver/Src/stm32f1xx_hal_spi.c:546:18
	ldrh	r0, [r4, #54]
	.loc	7 546 5 is_stmt 0       @ ../Drivers/STM32F1xx_HAL_Driver/Src/stm32f1xx_hal_spi.c:546:5
	cbz	r0, .LBB4_29
.Ltmp60:
@ %bb.22:
	@DEBUG_VALUE: HAL_SPI_Transmit:tickstart <- $r8
	@DEBUG_VALUE: HAL_SPI_Transmit:Size <- $r6
	.loc	7 0 5                   @ ../Drivers/STM32F1xx_HAL_Driver/Src/stm32f1xx_hal_spi.c:0:5
	adds	r6, r5, #1
.Ltmp61:
	.p2align	2
.LBB4_23:                               @ =>This Inner Loop Header: Depth=1
	@DEBUG_VALUE: HAL_SPI_Transmit:tickstart <- $r8
	.loc	7 549 10 is_stmt 1      @ ../Drivers/STM32F1xx_HAL_Driver/Src/stm32f1xx_hal_spi.c:549:10
	ldr	r0, [r4]
	ldr	r1, [r0, #8]
.Ltmp62:
	.loc	7 549 10 is_stmt 0      @ ../Drivers/STM32F1xx_HAL_Driver/Src/stm32f1xx_hal_spi.c:549:10
	tst.w	r1, #2
	bne	.LBB4_27
.Ltmp63:
@ %bb.24:                               @   in Loop: Header=BB4_23 Depth=1
	@DEBUG_VALUE: HAL_SPI_Transmit:tickstart <- $r8
	.loc	7 558 28 is_stmt 1      @ ../Drivers/STM32F1xx_HAL_Driver/Src/stm32f1xx_hal_spi.c:558:28
	cbz	r6, .LBB4_28
.Ltmp64:
@ %bb.25:                               @   in Loop: Header=BB4_23 Depth=1
	@DEBUG_VALUE: HAL_SPI_Transmit:tickstart <- $r8
	cbz	r5, .LBB4_37
.Ltmp65:
@ %bb.26:                               @   in Loop: Header=BB4_23 Depth=1
	@DEBUG_VALUE: HAL_SPI_Transmit:tickstart <- $r8
	.loc	7 558 64 is_stmt 0      @ ../Drivers/STM32F1xx_HAL_Driver/Src/stm32f1xx_hal_spi.c:558:64
	bl	HAL_GetTick
	.loc	7 558 77                @ ../Drivers/STM32F1xx_HAL_Driver/Src/stm32f1xx_hal_spi.c:558:77
	sub.w	r0, r0, r8
.Ltmp66:
	.loc	7 558 12                @ ../Drivers/STM32F1xx_HAL_Driver/Src/stm32f1xx_hal_spi.c:558:12
	cmp	r0, r5
	blo	.LBB4_28
	b	.LBB4_39
.Ltmp67:
	.p2align	2
.LBB4_27:                               @   in Loop: Header=BB4_23 Depth=1
	@DEBUG_VALUE: HAL_SPI_Transmit:tickstart <- $r8
	@DEBUG_VALUE: HAL_SPI_Transmit:pData <- $r7
	.loc	7 551 50 is_stmt 1      @ ../Drivers/STM32F1xx_HAL_Driver/Src/stm32f1xx_hal_spi.c:551:50
	ldrb	r1, [r7], #1
.Ltmp68:
	@DEBUG_VALUE: HAL_SPI_Transmit:pData <- $r7
	.loc	7 551 47 is_stmt 0      @ ../Drivers/STM32F1xx_HAL_Driver/Src/stm32f1xx_hal_spi.c:551:47
	strb	r1, [r0, #12]
	.loc	7 553 26 is_stmt 1      @ ../Drivers/STM32F1xx_HAL_Driver/Src/stm32f1xx_hal_spi.c:553:26
	ldrh	r0, [r4, #54]
	subs	r0, #1
	strh	r0, [r4, #54]
.Ltmp69:
.LBB4_28:                               @   in Loop: Header=BB4_23 Depth=1
	@DEBUG_VALUE: HAL_SPI_Transmit:tickstart <- $r8
	.loc	7 546 18                @ ../Drivers/STM32F1xx_HAL_Driver/Src/stm32f1xx_hal_spi.c:546:18
	ldrh	r0, [r4, #54]
	.loc	7 546 5 is_stmt 0       @ ../Drivers/STM32F1xx_HAL_Driver/Src/stm32f1xx_hal_spi.c:546:5
	cmp	r0, #0
	bne	.LBB4_23
.Ltmp70:
.LBB4_29:
	@DEBUG_VALUE: HAL_SPI_Transmit:tickstart <- $r8
	.loc	7 568 6 is_stmt 1       @ ../Drivers/STM32F1xx_HAL_Driver/Src/stm32f1xx_hal_spi.c:568:6
	str.w	r8, [sp]
	mov	r0, r4
	movs	r1, #2
	movs	r2, #1
	mov	r3, r5
	bl	SPI_WaitFlagStateUntilTimeout
	cbz	r0, .LBB4_31
.Ltmp71:
@ %bb.30:
	@DEBUG_VALUE: HAL_SPI_Transmit:tickstart <- $r8
	.loc	7 0 6 is_stmt 0         @ ../Drivers/STM32F1xx_HAL_Driver/Src/stm32f1xx_hal_spi.c:0:6
	movs	r0, #3
	b	.LBB4_17
.Ltmp72:
.LBB4_31:
	@DEBUG_VALUE: HAL_SPI_Transmit:tickstart <- $r8
	.loc	7 575 6 is_stmt 1       @ ../Drivers/STM32F1xx_HAL_Driver/Src/stm32f1xx_hal_spi.c:575:6
	mov	r0, r4
	mov	r1, r5
	mov	r2, r8
	bl	SPI_CheckFlag_BSY
.Ltmp73:
	.loc	7 575 6 is_stmt 0       @ ../Drivers/STM32F1xx_HAL_Driver/Src/stm32f1xx_hal_spi.c:575:6
	cbz	r0, .LBB4_33
.Ltmp74:
@ %bb.32:
	@DEBUG_VALUE: HAL_SPI_Transmit:tickstart <- $r8
	@DEBUG_VALUE: HAL_SPI_Transmit:errorcode <- 1
	.loc	7 578 21 is_stmt 1      @ ../Drivers/STM32F1xx_HAL_Driver/Src/stm32f1xx_hal_spi.c:578:21
	movs	r0, #32
	str	r0, [r4, #88]
	movs	r0, #1
	b	.LBB4_17
.Ltmp75:
.LBB4_33:
	@DEBUG_VALUE: HAL_SPI_Transmit:tickstart <- $r8
	.loc	7 583 17                @ ../Drivers/STM32F1xx_HAL_Driver/Src/stm32f1xx_hal_spi.c:583:17
	ldr	r0, [r4, #8]
.Ltmp76:
	.loc	7 583 6 is_stmt 0       @ ../Drivers/STM32F1xx_HAL_Driver/Src/stm32f1xx_hal_spi.c:583:6
	cbnz	r0, .LBB4_35
.Ltmp77:
@ %bb.34:
	@DEBUG_VALUE: HAL_SPI_Transmit:tickstart <- $r8
	.loc	7 585 5 is_stmt 1       @ ../Drivers/STM32F1xx_HAL_Driver/Src/stm32f1xx_hal_spi.c:585:5
	movs	r0, #0
.Ltmp78:
	@DEBUG_VALUE: tmpreg_ovr <- 0
	str	r0, [sp, #8]
	ldr	r0, [r4]
	ldr	r1, [r0, #12]
.Ltmp79:
	@DEBUG_VALUE: tmpreg_ovr <- $r1
	str	r1, [sp, #8]
	ldr	r0, [r0, #8]
.Ltmp80:
	@DEBUG_VALUE: tmpreg_ovr <- $r0
	str	r0, [sp, #8]
	ldr	r0, [sp, #8]
.Ltmp81:
	@DEBUG_VALUE: tmpreg_ovr <- $r0
.LBB4_35:
	@DEBUG_VALUE: HAL_SPI_Transmit:tickstart <- $r8
	.loc	7 595 12                @ ../Drivers/STM32F1xx_HAL_Driver/Src/stm32f1xx_hal_spi.c:595:12
	ldr	r0, [r4, #88]
	.loc	7 595 22 is_stmt 0      @ ../Drivers/STM32F1xx_HAL_Driver/Src/stm32f1xx_hal_spi.c:595:22
	cmp	r0, #0
	it	ne
	movne	r0, #1
	b	.LBB4_17
.Ltmp82:
.LBB4_36:
	@DEBUG_VALUE: HAL_SPI_Transmit:tickstart <- $r8
	.loc	7 0 22                  @ ../Drivers/STM32F1xx_HAL_Driver/Src/stm32f1xx_hal_spi.c:0:22
	movs	r0, #3
	b	.LBB4_17
.Ltmp83:
.LBB4_37:
	@DEBUG_VALUE: HAL_SPI_Transmit:tickstart <- $r8
	movs	r0, #3
	b	.LBB4_17
.Ltmp84:
.LBB4_38:
	@DEBUG_VALUE: HAL_SPI_Transmit:tickstart <- $r8
	movs	r0, #3
	b	.LBB4_17
.Ltmp85:
.LBB4_39:
	@DEBUG_VALUE: HAL_SPI_Transmit:tickstart <- $r8
	movs	r0, #3
	b	.LBB4_17
.Lfunc_end4:
	.size	HAL_SPI_Transmit, .Lfunc_end4-HAL_SPI_Transmit
	.cfi_endproc
	.cantunwind
	.fnend
                                        @ -- End function
	.section	.text.SPI_WaitFlagStateUntilTimeout,"ax",%progbits
	.p2align	2               @ -- Begin function SPI_WaitFlagStateUntilTimeout
	.type	SPI_WaitFlagStateUntilTimeout,%function
	.code	16                      @ @SPI_WaitFlagStateUntilTimeout
	.thumb_func
SPI_WaitFlagStateUntilTimeout:
.Lfunc_begin5:
	.loc	7 2932 0 is_stmt 1      @ ../Drivers/STM32F1xx_HAL_Driver/Src/stm32f1xx_hal_spi.c:2932:0
	.fnstart
	.cfi_startproc
@ %bb.0:
	.save	{r4, r5, r6, r7, r8, r9, lr}
	push.w	{r4, r5, r6, r7, r8, r9, lr}
	.cfi_def_cfa_offset 28
	.cfi_offset lr, -4
	.cfi_offset r9, -8
	.cfi_offset r8, -12
	.cfi_offset r7, -16
	.cfi_offset r6, -20
	.cfi_offset r5, -24
	.cfi_offset r4, -28
	.pad	#4
	sub	sp, #4
	.cfi_def_cfa_offset 32
	@DEBUG_VALUE: SPI_WaitFlagStateUntilTimeout:hspi <- $r0
	@DEBUG_VALUE: SPI_WaitFlagStateUntilTimeout:Flag <- $r1
	@DEBUG_VALUE: SPI_WaitFlagStateUntilTimeout:State <- $r2
	@DEBUG_VALUE: SPI_WaitFlagStateUntilTimeout:Timeout <- $r3
	mov	r5, r3
	mov	r6, r2
	mov	r7, r1
	mov	r9, r0
	@DEBUG_VALUE: SPI_WaitFlagStateUntilTimeout:Tickstart <- [DW_OP_plus_uconst 32] [$sp+0]
.Ltmp86:
	@DEBUG_VALUE: SPI_WaitFlagStateUntilTimeout:Timeout <- $r5
	@DEBUG_VALUE: SPI_WaitFlagStateUntilTimeout:State <- $r6
	@DEBUG_VALUE: SPI_WaitFlagStateUntilTimeout:Flag <- $r7
	@DEBUG_VALUE: SPI_WaitFlagStateUntilTimeout:hspi <- $r9
	.loc	7 2933 18 prologue_end  @ ../Drivers/STM32F1xx_HAL_Driver/Src/stm32f1xx_hal_spi.c:2933:18
	ldr	r0, [r0]
	.loc	7 2933 28 is_stmt 0     @ ../Drivers/STM32F1xx_HAL_Driver/Src/stm32f1xx_hal_spi.c:2933:28
	ldr	r0, [r0, #8]
	.loc	7 2933 31               @ ../Drivers/STM32F1xx_HAL_Driver/Src/stm32f1xx_hal_spi.c:2933:31
	ands	r0, r1
	.loc	7 2933 39               @ ../Drivers/STM32F1xx_HAL_Driver/Src/stm32f1xx_hal_spi.c:2933:39
	subs	r0, r0, r1
	clz	r0, r0
	lsrs	r0, r0, #5
	.loc	7 2933 3                @ ../Drivers/STM32F1xx_HAL_Driver/Src/stm32f1xx_hal_spi.c:2933:3
	cmp	r0, r2
	beq	.LBB5_6
.Ltmp87:
@ %bb.1:
	@DEBUG_VALUE: SPI_WaitFlagStateUntilTimeout:hspi <- $r9
	@DEBUG_VALUE: SPI_WaitFlagStateUntilTimeout:Flag <- $r7
	@DEBUG_VALUE: SPI_WaitFlagStateUntilTimeout:State <- $r6
	@DEBUG_VALUE: SPI_WaitFlagStateUntilTimeout:Timeout <- $r5
	@DEBUG_VALUE: SPI_WaitFlagStateUntilTimeout:Tickstart <- [DW_OP_plus_uconst 32] [$sp+0]
	.loc	7 0 3                   @ ../Drivers/STM32F1xx_HAL_Driver/Src/stm32f1xx_hal_spi.c:0:3
	ldr.w	r8, [sp, #32]
	adds	r4, r5, #1
.Ltmp88:
	.p2align	2
.LBB5_2:                                @ =>This Inner Loop Header: Depth=1
	@DEBUG_VALUE: SPI_WaitFlagStateUntilTimeout:hspi <- $r9
	@DEBUG_VALUE: SPI_WaitFlagStateUntilTimeout:Flag <- $r7
	@DEBUG_VALUE: SPI_WaitFlagStateUntilTimeout:State <- $r6
	@DEBUG_VALUE: SPI_WaitFlagStateUntilTimeout:Timeout <- $r5
	@DEBUG_VALUE: SPI_WaitFlagStateUntilTimeout:Tickstart <- [DW_OP_plus_uconst 32] [$sp+0]
	.loc	7 2935 8 is_stmt 1      @ ../Drivers/STM32F1xx_HAL_Driver/Src/stm32f1xx_hal_spi.c:2935:8
	cbz	r4, .LBB5_5
.Ltmp89:
@ %bb.3:                                @   in Loop: Header=BB5_2 Depth=1
	@DEBUG_VALUE: SPI_WaitFlagStateUntilTimeout:hspi <- $r9
	@DEBUG_VALUE: SPI_WaitFlagStateUntilTimeout:Flag <- $r7
	@DEBUG_VALUE: SPI_WaitFlagStateUntilTimeout:State <- $r6
	@DEBUG_VALUE: SPI_WaitFlagStateUntilTimeout:Timeout <- $r5
	@DEBUG_VALUE: SPI_WaitFlagStateUntilTimeout:Tickstart <- [DW_OP_plus_uconst 32] [$sp+0]
	cbz	r5, .LBB5_7
.Ltmp90:
@ %bb.4:                                @   in Loop: Header=BB5_2 Depth=1
	@DEBUG_VALUE: SPI_WaitFlagStateUntilTimeout:hspi <- $r9
	@DEBUG_VALUE: SPI_WaitFlagStateUntilTimeout:Flag <- $r7
	@DEBUG_VALUE: SPI_WaitFlagStateUntilTimeout:State <- $r6
	@DEBUG_VALUE: SPI_WaitFlagStateUntilTimeout:Timeout <- $r5
	@DEBUG_VALUE: SPI_WaitFlagStateUntilTimeout:Tickstart <- [DW_OP_plus_uconst 32] [$sp+0]
	.loc	7 2937 31               @ ../Drivers/STM32F1xx_HAL_Driver/Src/stm32f1xx_hal_spi.c:2937:31
	bl	HAL_GetTick
	.loc	7 2937 44 is_stmt 0     @ ../Drivers/STM32F1xx_HAL_Driver/Src/stm32f1xx_hal_spi.c:2937:44
	sub.w	r0, r0, r8
.Ltmp91:
	.loc	7 2937 10               @ ../Drivers/STM32F1xx_HAL_Driver/Src/stm32f1xx_hal_spi.c:2937:10
	cmp	r0, r5
	bhs	.LBB5_7
.Ltmp92:
.LBB5_5:                                @   in Loop: Header=BB5_2 Depth=1
	@DEBUG_VALUE: SPI_WaitFlagStateUntilTimeout:hspi <- $r9
	@DEBUG_VALUE: SPI_WaitFlagStateUntilTimeout:Flag <- $r7
	@DEBUG_VALUE: SPI_WaitFlagStateUntilTimeout:State <- $r6
	@DEBUG_VALUE: SPI_WaitFlagStateUntilTimeout:Timeout <- $r5
	@DEBUG_VALUE: SPI_WaitFlagStateUntilTimeout:Tickstart <- [DW_OP_plus_uconst 32] [$sp+0]
	.loc	7 2933 18 is_stmt 1     @ ../Drivers/STM32F1xx_HAL_Driver/Src/stm32f1xx_hal_spi.c:2933:18
	ldr.w	r0, [r9]
	.loc	7 2933 28 is_stmt 0     @ ../Drivers/STM32F1xx_HAL_Driver/Src/stm32f1xx_hal_spi.c:2933:28
	ldr	r0, [r0, #8]
	.loc	7 2933 31               @ ../Drivers/STM32F1xx_HAL_Driver/Src/stm32f1xx_hal_spi.c:2933:31
	ands	r0, r7
	.loc	7 2933 39               @ ../Drivers/STM32F1xx_HAL_Driver/Src/stm32f1xx_hal_spi.c:2933:39
	subs	r0, r0, r7
	clz	r0, r0
	lsrs	r0, r0, #5
	.loc	7 2933 3                @ ../Drivers/STM32F1xx_HAL_Driver/Src/stm32f1xx_hal_spi.c:2933:3
	cmp	r0, r6
	bne	.LBB5_2
.Ltmp93:
.LBB5_6:
	@DEBUG_VALUE: SPI_WaitFlagStateUntilTimeout:hspi <- $r9
	@DEBUG_VALUE: SPI_WaitFlagStateUntilTimeout:Flag <- $r7
	@DEBUG_VALUE: SPI_WaitFlagStateUntilTimeout:State <- $r6
	@DEBUG_VALUE: SPI_WaitFlagStateUntilTimeout:Timeout <- $r5
	@DEBUG_VALUE: SPI_WaitFlagStateUntilTimeout:Tickstart <- [DW_OP_plus_uconst 32] [$sp+0]
	.loc	7 0 3                   @ ../Drivers/STM32F1xx_HAL_Driver/Src/stm32f1xx_hal_spi.c:0:3
	movs	r0, #0
	.loc	7 2969 1 is_stmt 1      @ ../Drivers/STM32F1xx_HAL_Driver/Src/stm32f1xx_hal_spi.c:2969:1
	add	sp, #4
.Ltmp94:
	pop.w	{r4, r5, r6, r7, r8, r9, pc}
.Ltmp95:
.LBB5_7:
	@DEBUG_VALUE: SPI_WaitFlagStateUntilTimeout:hspi <- $r9
	@DEBUG_VALUE: SPI_WaitFlagStateUntilTimeout:Flag <- $r7
	@DEBUG_VALUE: SPI_WaitFlagStateUntilTimeout:State <- $r6
	@DEBUG_VALUE: SPI_WaitFlagStateUntilTimeout:Timeout <- $r5
	@DEBUG_VALUE: SPI_WaitFlagStateUntilTimeout:Tickstart <- [DW_OP_plus_uconst 32] [$sp+0]
	.loc	7 2944 9                @ ../Drivers/STM32F1xx_HAL_Driver/Src/stm32f1xx_hal_spi.c:2944:9
	ldr.w	r0, [r9]
	ldr	r1, [r0, #4]
	bic	r1, r1, #224
	str	r1, [r0, #4]
.Ltmp96:
	.loc	7 2946 24               @ ../Drivers/STM32F1xx_HAL_Driver/Src/stm32f1xx_hal_spi.c:2946:24
	ldr.w	r1, [r9, #4]
	.loc	7 2946 48 is_stmt 0     @ ../Drivers/STM32F1xx_HAL_Driver/Src/stm32f1xx_hal_spi.c:2946:48
	cmp.w	r1, #260
	bne	.LBB5_11
.Ltmp97:
@ %bb.8:
	@DEBUG_VALUE: SPI_WaitFlagStateUntilTimeout:hspi <- $r9
	@DEBUG_VALUE: SPI_WaitFlagStateUntilTimeout:Flag <- $r7
	@DEBUG_VALUE: SPI_WaitFlagStateUntilTimeout:State <- $r6
	@DEBUG_VALUE: SPI_WaitFlagStateUntilTimeout:Timeout <- $r5
	@DEBUG_VALUE: SPI_WaitFlagStateUntilTimeout:Tickstart <- [DW_OP_plus_uconst 32] [$sp+0]
	.loc	7 2946 63               @ ../Drivers/STM32F1xx_HAL_Driver/Src/stm32f1xx_hal_spi.c:2946:63
	ldr.w	r1, [r9, #8]
	.loc	7 2946 96               @ ../Drivers/STM32F1xx_HAL_Driver/Src/stm32f1xx_hal_spi.c:2946:96
	cmp.w	r1, #32768
	beq	.LBB5_10
.Ltmp98:
@ %bb.9:
	@DEBUG_VALUE: SPI_WaitFlagStateUntilTimeout:hspi <- $r9
	@DEBUG_VALUE: SPI_WaitFlagStateUntilTimeout:Flag <- $r7
	@DEBUG_VALUE: SPI_WaitFlagStateUntilTimeout:State <- $r6
	@DEBUG_VALUE: SPI_WaitFlagStateUntilTimeout:Timeout <- $r5
	@DEBUG_VALUE: SPI_WaitFlagStateUntilTimeout:Tickstart <- [DW_OP_plus_uconst 32] [$sp+0]
	cmp.w	r1, #1024
	bne	.LBB5_11
.Ltmp99:
.LBB5_10:
	@DEBUG_VALUE: SPI_WaitFlagStateUntilTimeout:hspi <- $r9
	@DEBUG_VALUE: SPI_WaitFlagStateUntilTimeout:Flag <- $r7
	@DEBUG_VALUE: SPI_WaitFlagStateUntilTimeout:State <- $r6
	@DEBUG_VALUE: SPI_WaitFlagStateUntilTimeout:Timeout <- $r5
	@DEBUG_VALUE: SPI_WaitFlagStateUntilTimeout:Tickstart <- [DW_OP_plus_uconst 32] [$sp+0]
	.loc	7 2949 11 is_stmt 1     @ ../Drivers/STM32F1xx_HAL_Driver/Src/stm32f1xx_hal_spi.c:2949:11
	ldr	r1, [r0]
	bic	r1, r1, #64
	str	r1, [r0]
.Ltmp100:
.LBB5_11:
	@DEBUG_VALUE: SPI_WaitFlagStateUntilTimeout:hspi <- $r9
	@DEBUG_VALUE: SPI_WaitFlagStateUntilTimeout:Flag <- $r7
	@DEBUG_VALUE: SPI_WaitFlagStateUntilTimeout:State <- $r6
	@DEBUG_VALUE: SPI_WaitFlagStateUntilTimeout:Timeout <- $r5
	@DEBUG_VALUE: SPI_WaitFlagStateUntilTimeout:Tickstart <- [DW_OP_plus_uconst 32] [$sp+0]
	.loc	7 2953 23               @ ../Drivers/STM32F1xx_HAL_Driver/Src/stm32f1xx_hal_spi.c:2953:23
	ldr.w	r1, [r9, #40]
.Ltmp101:
	.loc	7 2953 12 is_stmt 0     @ ../Drivers/STM32F1xx_HAL_Driver/Src/stm32f1xx_hal_spi.c:2953:12
	cmp.w	r1, #8192
	bne	.LBB5_13
.Ltmp102:
@ %bb.12:
	@DEBUG_VALUE: SPI_WaitFlagStateUntilTimeout:hspi <- $r9
	@DEBUG_VALUE: SPI_WaitFlagStateUntilTimeout:Flag <- $r7
	@DEBUG_VALUE: SPI_WaitFlagStateUntilTimeout:State <- $r6
	@DEBUG_VALUE: SPI_WaitFlagStateUntilTimeout:Timeout <- $r5
	@DEBUG_VALUE: SPI_WaitFlagStateUntilTimeout:Tickstart <- [DW_OP_plus_uconst 32] [$sp+0]
	.loc	7 2955 11 is_stmt 1     @ ../Drivers/STM32F1xx_HAL_Driver/Src/stm32f1xx_hal_spi.c:2955:11
	ldr	r1, [r0]
	movw	r2, #57343
	ands	r1, r2
	str	r1, [r0]
	ldr	r1, [r0]
	orr	r1, r1, #8192
	str	r1, [r0]
.Ltmp103:
.LBB5_13:
	@DEBUG_VALUE: SPI_WaitFlagStateUntilTimeout:hspi <- $r9
	@DEBUG_VALUE: SPI_WaitFlagStateUntilTimeout:Flag <- $r7
	@DEBUG_VALUE: SPI_WaitFlagStateUntilTimeout:State <- $r6
	@DEBUG_VALUE: SPI_WaitFlagStateUntilTimeout:Timeout <- $r5
	@DEBUG_VALUE: SPI_WaitFlagStateUntilTimeout:Tickstart <- [DW_OP_plus_uconst 32] [$sp+0]
	.loc	7 0 11 is_stmt 0        @ ../Drivers/STM32F1xx_HAL_Driver/Src/stm32f1xx_hal_spi.c:0:11
	movs	r0, #0
.Ltmp104:
	.loc	7 2961 9 is_stmt 1      @ ../Drivers/STM32F1xx_HAL_Driver/Src/stm32f1xx_hal_spi.c:2961:9
	str.w	r0, [r9, #80]
.Ltmp105:
	.loc	7 2958 20               @ ../Drivers/STM32F1xx_HAL_Driver/Src/stm32f1xx_hal_spi.c:2958:20
	movs	r0, #1
	str.w	r0, [r9, #84]
	movs	r0, #3
.Ltmp106:
	.loc	7 2969 1                @ ../Drivers/STM32F1xx_HAL_Driver/Src/stm32f1xx_hal_spi.c:2969:1
	add	sp, #4
.Ltmp107:
	pop.w	{r4, r5, r6, r7, r8, r9, pc}
.Ltmp108:
.Lfunc_end5:
	.size	SPI_WaitFlagStateUntilTimeout, .Lfunc_end5-SPI_WaitFlagStateUntilTimeout
	.cfi_endproc
	.cantunwind
	.fnend
                                        @ -- End function
	.section	.text.SPI_CheckFlag_BSY,"ax",%progbits
	.p2align	2               @ -- Begin function SPI_CheckFlag_BSY
	.type	SPI_CheckFlag_BSY,%function
	.code	16                      @ @SPI_CheckFlag_BSY
	.thumb_func
SPI_CheckFlag_BSY:
.Lfunc_begin6:
	.loc	7 2979 0                @ ../Drivers/STM32F1xx_HAL_Driver/Src/stm32f1xx_hal_spi.c:2979:0
	.fnstart
	.cfi_startproc
@ %bb.0:
	.save	{r4, r5, r7, lr}
	push	{r4, r5, r7, lr}
	.cfi_def_cfa_offset 16
	.cfi_offset lr, -4
	.cfi_offset r7, -8
	.cfi_offset r5, -12
	.cfi_offset r4, -16
	.pad	#8
	sub	sp, #8
	.cfi_def_cfa_offset 24
	@DEBUG_VALUE: SPI_CheckFlag_BSY:hspi <- $r0
	@DEBUG_VALUE: SPI_CheckFlag_BSY:Timeout <- $r1
	@DEBUG_VALUE: SPI_CheckFlag_BSY:Tickstart <- $r2
	mov	r3, r1
	mov	r5, r0
	@DEBUG_VALUE: SPI_CheckFlag_BSY:Tickstart <- $r2
.Ltmp109:
	@DEBUG_VALUE: SPI_CheckFlag_BSY:Timeout <- $r3
	@DEBUG_VALUE: SPI_CheckFlag_BSY:hspi <- $r5
	.loc	7 2981 6 prologue_end   @ ../Drivers/STM32F1xx_HAL_Driver/Src/stm32f1xx_hal_spi.c:2981:6
	str	r2, [sp]
	movs	r4, #0
	movs	r1, #128
	movs	r2, #0
.Ltmp110:
	@DEBUG_VALUE: SPI_CheckFlag_BSY:Timeout <- $r3
	bl	SPI_WaitFlagStateUntilTimeout
.Ltmp111:
	.loc	7 2981 6 is_stmt 0      @ ../Drivers/STM32F1xx_HAL_Driver/Src/stm32f1xx_hal_spi.c:2981:6
	cbz	r0, .LBB6_2
.Ltmp112:
@ %bb.1:
	@DEBUG_VALUE: SPI_CheckFlag_BSY:hspi <- $r5
	.loc	7 2983 5 is_stmt 1      @ ../Drivers/STM32F1xx_HAL_Driver/Src/stm32f1xx_hal_spi.c:2983:5
	ldr	r0, [r5, #88]
	orr	r0, r0, #32
	str	r0, [r5, #88]
	movs	r4, #3
.Ltmp113:
.LBB6_2:
	@DEBUG_VALUE: SPI_CheckFlag_BSY:hspi <- $r5
	.loc	7 2987 1                @ ../Drivers/STM32F1xx_HAL_Driver/Src/stm32f1xx_hal_spi.c:2987:1
	mov	r0, r4
	add	sp, #8
	pop	{r4, r5, r7, pc}
.Ltmp114:
.Lfunc_end6:
	.size	SPI_CheckFlag_BSY, .Lfunc_end6-SPI_CheckFlag_BSY
	.cfi_endproc
	.cantunwind
	.fnend
                                        @ -- End function
	.section	.text.HAL_SPI_Receive,"ax",%progbits
	.hidden	HAL_SPI_Receive         @ -- Begin function HAL_SPI_Receive
	.globl	HAL_SPI_Receive
	.p2align	2
	.type	HAL_SPI_Receive,%function
	.code	16                      @ @HAL_SPI_Receive
	.thumb_func
HAL_SPI_Receive:
.Lfunc_begin7:
	.loc	7 617 0                 @ ../Drivers/STM32F1xx_HAL_Driver/Src/stm32f1xx_hal_spi.c:617:0
	.fnstart
	.cfi_startproc
@ %bb.0:
	.save	{r4, r5, r6, r7, r8, r9, lr}
	push.w	{r4, r5, r6, r7, r8, r9, lr}
	.cfi_def_cfa_offset 28
	.cfi_offset lr, -4
	.cfi_offset r9, -8
	.cfi_offset r8, -12
	.cfi_offset r7, -16
	.cfi_offset r6, -20
	.cfi_offset r5, -24
	.cfi_offset r4, -28
	.pad	#4
	sub	sp, #4
	.cfi_def_cfa_offset 32
	@DEBUG_VALUE: HAL_SPI_Receive:hspi <- $r0
	@DEBUG_VALUE: HAL_SPI_Receive:pData <- $r1
	@DEBUG_VALUE: HAL_SPI_Receive:Size <- $r2
	@DEBUG_VALUE: HAL_SPI_Receive:Timeout <- $r3
	mov	r6, r3
	mov	r7, r2
	mov	r5, r1
	mov	r4, r0
.Ltmp115:
	@DEBUG_VALUE: HAL_SPI_Receive:errorcode <- 0
	@DEBUG_VALUE: HAL_SPI_Receive:tickstart <- 0
	@DEBUG_VALUE: HAL_SPI_Receive:Timeout <- $r6
	@DEBUG_VALUE: HAL_SPI_Receive:Size <- $r7
	@DEBUG_VALUE: HAL_SPI_Receive:pData <- $r5
	@DEBUG_VALUE: HAL_SPI_Receive:hspi <- $r4
	.loc	7 624 18 prologue_end   @ ../Drivers/STM32F1xx_HAL_Driver/Src/stm32f1xx_hal_spi.c:624:18
	ldr	r0, [r0, #4]
	.loc	7 624 43 is_stmt 0      @ ../Drivers/STM32F1xx_HAL_Driver/Src/stm32f1xx_hal_spi.c:624:43
	cmp.w	r0, #260
	bne	.LBB7_2
.Ltmp116:
@ %bb.1:
	@DEBUG_VALUE: HAL_SPI_Receive:hspi <- $r4
	@DEBUG_VALUE: HAL_SPI_Receive:pData <- $r5
	@DEBUG_VALUE: HAL_SPI_Receive:Size <- $r7
	@DEBUG_VALUE: HAL_SPI_Receive:Timeout <- $r6
	.loc	7 624 58                @ ../Drivers/STM32F1xx_HAL_Driver/Src/stm32f1xx_hal_spi.c:624:58
	ldr	r0, [r4, #8]
.Ltmp117:
	.loc	7 624 6                 @ ../Drivers/STM32F1xx_HAL_Driver/Src/stm32f1xx_hal_spi.c:624:6
	cmp	r0, #0
	beq	.LBB7_17
.Ltmp118:
.LBB7_2:
	@DEBUG_VALUE: HAL_SPI_Receive:hspi <- $r4
	@DEBUG_VALUE: HAL_SPI_Receive:pData <- $r5
	@DEBUG_VALUE: HAL_SPI_Receive:Size <- $r7
	@DEBUG_VALUE: HAL_SPI_Receive:Timeout <- $r6
	.loc	7 632 3 is_stmt 1       @ ../Drivers/STM32F1xx_HAL_Driver/Src/stm32f1xx_hal_spi.c:632:3
	ldr	r0, [r4, #80]
.Ltmp119:
	.loc	7 632 3 is_stmt 0       @ ../Drivers/STM32F1xx_HAL_Driver/Src/stm32f1xx_hal_spi.c:632:3
	cmp	r0, #1
	ittt	eq
	moveq	r0, #2
.Ltmp120:
	.loc	7 811 1 is_stmt 1       @ ../Drivers/STM32F1xx_HAL_Driver/Src/stm32f1xx_hal_spi.c:811:1
	addeq	sp, #4
	popeq.w	{r4, r5, r6, r7, r8, r9, pc}
.Ltmp121:
	.loc	7 0 1 is_stmt 0         @ ../Drivers/STM32F1xx_HAL_Driver/Src/stm32f1xx_hal_spi.c:0:1
	mov.w	r9, #1
.Ltmp122:
	.loc	7 632 3 is_stmt 1       @ ../Drivers/STM32F1xx_HAL_Driver/Src/stm32f1xx_hal_spi.c:632:3
	str.w	r9, [r4, #80]
.Ltmp123:
	.loc	7 635 15                @ ../Drivers/STM32F1xx_HAL_Driver/Src/stm32f1xx_hal_spi.c:635:15
	bl	HAL_GetTick
	mov	r8, r0
.Ltmp124:
	@DEBUG_VALUE: HAL_SPI_Receive:tickstart <- $r8
	.loc	7 637 12                @ ../Drivers/STM32F1xx_HAL_Driver/Src/stm32f1xx_hal_spi.c:637:12
	ldr	r0, [r4, #84]
.Ltmp125:
	.loc	7 637 6 is_stmt 0       @ ../Drivers/STM32F1xx_HAL_Driver/Src/stm32f1xx_hal_spi.c:637:6
	cmp	r0, #1
	bne	.LBB7_15
.Ltmp126:
@ %bb.3:
	@DEBUG_VALUE: HAL_SPI_Receive:tickstart <- $r8
	.loc	7 0 6                   @ ../Drivers/STM32F1xx_HAL_Driver/Src/stm32f1xx_hal_spi.c:0:6
	movs	r0, #1
.Ltmp127:
	.loc	7 643 23 is_stmt 1      @ ../Drivers/STM32F1xx_HAL_Driver/Src/stm32f1xx_hal_spi.c:643:23
	cmp	r5, #0
	it	ne
	cmpne	r7, #0
	beq	.LBB7_16
.Ltmp128:
@ %bb.4:
	@DEBUG_VALUE: HAL_SPI_Receive:tickstart <- $r8
	.loc	7 0 23 is_stmt 0        @ ../Drivers/STM32F1xx_HAL_Driver/Src/stm32f1xx_hal_spi.c:0:23
	movs	r0, #4
	.loc	7 650 21 is_stmt 1      @ ../Drivers/STM32F1xx_HAL_Driver/Src/stm32f1xx_hal_spi.c:650:21
	str	r0, [r4, #84]
	movs	r0, #0
	.loc	7 651 21                @ ../Drivers/STM32F1xx_HAL_Driver/Src/stm32f1xx_hal_spi.c:651:21
	str	r0, [r4, #88]
	.loc	7 654 21                @ ../Drivers/STM32F1xx_HAL_Driver/Src/stm32f1xx_hal_spi.c:654:21
	strh	r7, [r4, #62]
	.loc	7 652 21                @ ../Drivers/STM32F1xx_HAL_Driver/Src/stm32f1xx_hal_spi.c:652:21
	str	r5, [r4, #56]
	.loc	7 653 21                @ ../Drivers/STM32F1xx_HAL_Driver/Src/stm32f1xx_hal_spi.c:653:21
	strh	r7, [r4, #60]
	.loc	7 657 21                @ ../Drivers/STM32F1xx_HAL_Driver/Src/stm32f1xx_hal_spi.c:657:21
	str	r0, [r4, #48]
	.loc	7 658 21                @ ../Drivers/STM32F1xx_HAL_Driver/Src/stm32f1xx_hal_spi.c:658:21
	strh	r0, [r4, #52]
	.loc	7 660 21                @ ../Drivers/STM32F1xx_HAL_Driver/Src/stm32f1xx_hal_spi.c:660:21
	strd	r0, r0, [r4, #64]
	.loc	7 659 21                @ ../Drivers/STM32F1xx_HAL_Driver/Src/stm32f1xx_hal_spi.c:659:21
	strh	r0, [r4, #54]
.Ltmp129:
	.loc	7 674 17                @ ../Drivers/STM32F1xx_HAL_Driver/Src/stm32f1xx_hal_spi.c:674:17
	ldr	r0, [r4, #8]
.Ltmp130:
	.loc	7 674 6 is_stmt 0       @ ../Drivers/STM32F1xx_HAL_Driver/Src/stm32f1xx_hal_spi.c:674:6
	cmp.w	r0, #32768
	bne	.LBB7_6
.Ltmp131:
@ %bb.5:
	@DEBUG_VALUE: HAL_SPI_Receive:tickstart <- $r8
	.loc	7 676 5 is_stmt 1       @ ../Drivers/STM32F1xx_HAL_Driver/Src/stm32f1xx_hal_spi.c:676:5
	ldr	r0, [r4]
	ldr	r1, [r0]
	bic	r1, r1, #16384
	str	r1, [r0]
.Ltmp132:
.LBB7_6:
	@DEBUG_VALUE: HAL_SPI_Receive:tickstart <- $r8
	.loc	7 680 13                @ ../Drivers/STM32F1xx_HAL_Driver/Src/stm32f1xx_hal_spi.c:680:13
	ldr	r0, [r4]
	.loc	7 680 23 is_stmt 0      @ ../Drivers/STM32F1xx_HAL_Driver/Src/stm32f1xx_hal_spi.c:680:23
	ldr	r1, [r0]
.Ltmp133:
	.loc	7 680 6                 @ ../Drivers/STM32F1xx_HAL_Driver/Src/stm32f1xx_hal_spi.c:680:6
	tst.w	r1, #64
.Ltmp134:
	.loc	7 683 5 is_stmt 1       @ ../Drivers/STM32F1xx_HAL_Driver/Src/stm32f1xx_hal_spi.c:683:5
	ittt	eq
	ldreq	r1, [r0]
	orreq	r1, r1, #64
	streq	r1, [r0]
	ldrh	r0, [r4, #62]
.Ltmp135:
	.loc	7 687 17                @ ../Drivers/STM32F1xx_HAL_Driver/Src/stm32f1xx_hal_spi.c:687:17
	ldr	r1, [r4, #12]
.Ltmp136:
	.loc	7 687 6 is_stmt 0       @ ../Drivers/STM32F1xx_HAL_Driver/Src/stm32f1xx_hal_spi.c:687:6
	cbz	r1, .LBB7_18
.Ltmp137:
@ %bb.7:
	@DEBUG_VALUE: HAL_SPI_Receive:tickstart <- $r8
	.loc	7 714 5 is_stmt 1       @ ../Drivers/STM32F1xx_HAL_Driver/Src/stm32f1xx_hal_spi.c:714:5
	cmp	r0, #0
	beq	.LBB7_26
.Ltmp138:
@ %bb.8:
	@DEBUG_VALUE: HAL_SPI_Receive:tickstart <- $r8
	.loc	7 0 5 is_stmt 0         @ ../Drivers/STM32F1xx_HAL_Driver/Src/stm32f1xx_hal_spi.c:0:5
	adds	r7, r6, #1
.Ltmp139:
	.p2align	2
.LBB7_9:                                @ =>This Inner Loop Header: Depth=1
	@DEBUG_VALUE: HAL_SPI_Receive:tickstart <- $r8
	.loc	7 717 10 is_stmt 1      @ ../Drivers/STM32F1xx_HAL_Driver/Src/stm32f1xx_hal_spi.c:717:10
	ldr	r0, [r4]
	ldr	r1, [r0, #8]
.Ltmp140:
	.loc	7 717 10 is_stmt 0      @ ../Drivers/STM32F1xx_HAL_Driver/Src/stm32f1xx_hal_spi.c:717:10
	tst.w	r1, #1
	bne	.LBB7_13
.Ltmp141:
@ %bb.10:                               @   in Loop: Header=BB7_9 Depth=1
	@DEBUG_VALUE: HAL_SPI_Receive:tickstart <- $r8
	.loc	7 726 28 is_stmt 1      @ ../Drivers/STM32F1xx_HAL_Driver/Src/stm32f1xx_hal_spi.c:726:28
	cbz	r7, .LBB7_14
.Ltmp142:
@ %bb.11:                               @   in Loop: Header=BB7_9 Depth=1
	@DEBUG_VALUE: HAL_SPI_Receive:tickstart <- $r8
	cmp	r6, #0
	beq	.LBB7_31
.Ltmp143:
@ %bb.12:                               @   in Loop: Header=BB7_9 Depth=1
	@DEBUG_VALUE: HAL_SPI_Receive:tickstart <- $r8
	.loc	7 726 64 is_stmt 0      @ ../Drivers/STM32F1xx_HAL_Driver/Src/stm32f1xx_hal_spi.c:726:64
	bl	HAL_GetTick
	.loc	7 726 77                @ ../Drivers/STM32F1xx_HAL_Driver/Src/stm32f1xx_hal_spi.c:726:77
	sub.w	r0, r0, r8
.Ltmp144:
	.loc	7 726 12                @ ../Drivers/STM32F1xx_HAL_Driver/Src/stm32f1xx_hal_spi.c:726:12
	cmp	r0, r6
	blo	.LBB7_14
	b	.LBB7_31
.Ltmp145:
	.p2align	2
.LBB7_13:                               @   in Loop: Header=BB7_9 Depth=1
	@DEBUG_VALUE: HAL_SPI_Receive:tickstart <- $r8
	@DEBUG_VALUE: HAL_SPI_Receive:pData <- $r5
	.loc	7 719 47 is_stmt 1      @ ../Drivers/STM32F1xx_HAL_Driver/Src/stm32f1xx_hal_spi.c:719:47
	ldr	r0, [r0, #12]
	.loc	7 719 29 is_stmt 0      @ ../Drivers/STM32F1xx_HAL_Driver/Src/stm32f1xx_hal_spi.c:719:29
	strh	r0, [r5], #2
.Ltmp146:
	.loc	7 721 26 is_stmt 1      @ ../Drivers/STM32F1xx_HAL_Driver/Src/stm32f1xx_hal_spi.c:721:26
	ldrh	r0, [r4, #62]
	subs	r0, #1
	strh	r0, [r4, #62]
.Ltmp147:
.LBB7_14:                               @   in Loop: Header=BB7_9 Depth=1
	@DEBUG_VALUE: HAL_SPI_Receive:tickstart <- $r8
	.loc	7 714 17                @ ../Drivers/STM32F1xx_HAL_Driver/Src/stm32f1xx_hal_spi.c:714:17
	ldrh	r0, [r4, #62]
	.loc	7 714 5 is_stmt 0       @ ../Drivers/STM32F1xx_HAL_Driver/Src/stm32f1xx_hal_spi.c:714:5
	cmp	r0, #0
	bne	.LBB7_9
	b	.LBB7_26
.Ltmp148:
.LBB7_15:
	@DEBUG_VALUE: HAL_SPI_Receive:tickstart <- $r8
	.loc	7 0 5                   @ ../Drivers/STM32F1xx_HAL_Driver/Src/stm32f1xx_hal_spi.c:0:5
	movs	r0, #2
.Ltmp149:
.LBB7_16:
	@DEBUG_VALUE: HAL_SPI_Receive:tickstart <- $r8
	movs	r1, #0
.Ltmp150:
	.loc	7 809 3 is_stmt 1       @ ../Drivers/STM32F1xx_HAL_Driver/Src/stm32f1xx_hal_spi.c:809:3
	str	r1, [r4, #80]
.Ltmp151:
	.loc	7 808 15                @ ../Drivers/STM32F1xx_HAL_Driver/Src/stm32f1xx_hal_spi.c:808:15
	str.w	r9, [r4, #84]
	.loc	7 811 1                 @ ../Drivers/STM32F1xx_HAL_Driver/Src/stm32f1xx_hal_spi.c:811:1
	add	sp, #4
	pop.w	{r4, r5, r6, r7, r8, r9, pc}
.Ltmp152:
.LBB7_17:
	@DEBUG_VALUE: HAL_SPI_Receive:hspi <- $r4
	@DEBUG_VALUE: HAL_SPI_Receive:pData <- $r5
	@DEBUG_VALUE: HAL_SPI_Receive:Size <- $r7
	@DEBUG_VALUE: HAL_SPI_Receive:Timeout <- $r6
	.loc	7 626 18                @ ../Drivers/STM32F1xx_HAL_Driver/Src/stm32f1xx_hal_spi.c:626:18
	movs	r0, #4
	str	r0, [r4, #84]
	.loc	7 628 12                @ ../Drivers/STM32F1xx_HAL_Driver/Src/stm32f1xx_hal_spi.c:628:12
	str	r6, [sp]
	mov	r0, r4
	mov	r1, r5
	mov	r2, r5
	mov	r3, r7
	bl	HAL_SPI_TransmitReceive
.Ltmp153:
	.loc	7 811 1                 @ ../Drivers/STM32F1xx_HAL_Driver/Src/stm32f1xx_hal_spi.c:811:1
	add	sp, #4
	pop.w	{r4, r5, r6, r7, r8, r9, pc}
.Ltmp154:
.LBB7_18:
	@DEBUG_VALUE: HAL_SPI_Receive:tickstart <- $r8
	.loc	7 690 5                 @ ../Drivers/STM32F1xx_HAL_Driver/Src/stm32f1xx_hal_spi.c:690:5
	cbz	r0, .LBB7_26
.Ltmp155:
@ %bb.19:
	@DEBUG_VALUE: HAL_SPI_Receive:tickstart <- $r8
	.loc	7 0 5 is_stmt 0         @ ../Drivers/STM32F1xx_HAL_Driver/Src/stm32f1xx_hal_spi.c:0:5
	adds	r7, r6, #1
.Ltmp156:
	.p2align	2
.LBB7_20:                               @ =>This Inner Loop Header: Depth=1
	@DEBUG_VALUE: HAL_SPI_Receive:tickstart <- $r8
	.loc	7 693 10 is_stmt 1      @ ../Drivers/STM32F1xx_HAL_Driver/Src/stm32f1xx_hal_spi.c:693:10
	ldr	r0, [r4]
	ldr	r1, [r0, #8]
.Ltmp157:
	.loc	7 693 10 is_stmt 0      @ ../Drivers/STM32F1xx_HAL_Driver/Src/stm32f1xx_hal_spi.c:693:10
	tst.w	r1, #1
	bne	.LBB7_24
.Ltmp158:
@ %bb.21:                               @   in Loop: Header=BB7_20 Depth=1
	@DEBUG_VALUE: HAL_SPI_Receive:tickstart <- $r8
	.loc	7 703 28 is_stmt 1      @ ../Drivers/STM32F1xx_HAL_Driver/Src/stm32f1xx_hal_spi.c:703:28
	cbz	r7, .LBB7_25
.Ltmp159:
@ %bb.22:                               @   in Loop: Header=BB7_20 Depth=1
	@DEBUG_VALUE: HAL_SPI_Receive:tickstart <- $r8
	cbz	r6, .LBB7_31
.Ltmp160:
@ %bb.23:                               @   in Loop: Header=BB7_20 Depth=1
	@DEBUG_VALUE: HAL_SPI_Receive:tickstart <- $r8
	.loc	7 703 64 is_stmt 0      @ ../Drivers/STM32F1xx_HAL_Driver/Src/stm32f1xx_hal_spi.c:703:64
	bl	HAL_GetTick
	.loc	7 703 77                @ ../Drivers/STM32F1xx_HAL_Driver/Src/stm32f1xx_hal_spi.c:703:77
	sub.w	r0, r0, r8
.Ltmp161:
	.loc	7 703 12                @ ../Drivers/STM32F1xx_HAL_Driver/Src/stm32f1xx_hal_spi.c:703:12
	cmp	r0, r6
	blo	.LBB7_25
	b	.LBB7_31
.Ltmp162:
	.p2align	2
.LBB7_24:                               @   in Loop: Header=BB7_20 Depth=1
	@DEBUG_VALUE: HAL_SPI_Receive:tickstart <- $r8
	@DEBUG_VALUE: HAL_SPI_Receive:pData <- $r5
	.loc	7 696 31 is_stmt 1      @ ../Drivers/STM32F1xx_HAL_Driver/Src/stm32f1xx_hal_spi.c:696:31
	ldrb	r0, [r0, #12]
	.loc	7 696 29 is_stmt 0      @ ../Drivers/STM32F1xx_HAL_Driver/Src/stm32f1xx_hal_spi.c:696:29
	strb	r0, [r5], #1
.Ltmp163:
	@DEBUG_VALUE: HAL_SPI_Receive:pData <- $r5
	.loc	7 698 26 is_stmt 1      @ ../Drivers/STM32F1xx_HAL_Driver/Src/stm32f1xx_hal_spi.c:698:26
	ldrh	r0, [r4, #62]
	subs	r0, #1
	strh	r0, [r4, #62]
.Ltmp164:
.LBB7_25:                               @   in Loop: Header=BB7_20 Depth=1
	@DEBUG_VALUE: HAL_SPI_Receive:tickstart <- $r8
	.loc	7 690 17                @ ../Drivers/STM32F1xx_HAL_Driver/Src/stm32f1xx_hal_spi.c:690:17
	ldrh	r0, [r4, #62]
	.loc	7 690 5 is_stmt 0       @ ../Drivers/STM32F1xx_HAL_Driver/Src/stm32f1xx_hal_spi.c:690:5
	cmp	r0, #0
	bne	.LBB7_20
.Ltmp165:
.LBB7_26:
	@DEBUG_VALUE: HAL_SPI_Receive:tickstart <- $r8
	.loc	7 777 18 is_stmt 1      @ ../Drivers/STM32F1xx_HAL_Driver/Src/stm32f1xx_hal_spi.c:777:18
	ldr	r0, [r4, #4]
	.loc	7 777 42 is_stmt 0      @ ../Drivers/STM32F1xx_HAL_Driver/Src/stm32f1xx_hal_spi.c:777:42
	cmp.w	r0, #260
	bne	.LBB7_30
.Ltmp166:
@ %bb.27:
	@DEBUG_VALUE: HAL_SPI_Receive:tickstart <- $r8
	.loc	7 777 57                @ ../Drivers/STM32F1xx_HAL_Driver/Src/stm32f1xx_hal_spi.c:777:57
	ldr	r0, [r4, #8]
	.loc	7 777 90                @ ../Drivers/STM32F1xx_HAL_Driver/Src/stm32f1xx_hal_spi.c:777:90
	cmp.w	r0, #32768
	beq	.LBB7_29
.Ltmp167:
@ %bb.28:
	@DEBUG_VALUE: HAL_SPI_Receive:tickstart <- $r8
	cmp.w	r0, #1024
	bne	.LBB7_30
.Ltmp168:
.LBB7_29:
	@DEBUG_VALUE: HAL_SPI_Receive:tickstart <- $r8
	.loc	7 780 5 is_stmt 1       @ ../Drivers/STM32F1xx_HAL_Driver/Src/stm32f1xx_hal_spi.c:780:5
	ldr	r0, [r4]
	ldr	r1, [r0]
	bic	r1, r1, #64
	str	r1, [r0]
.Ltmp169:
.LBB7_30:
	@DEBUG_VALUE: HAL_SPI_Receive:tickstart <- $r8
	.loc	7 802 12                @ ../Drivers/STM32F1xx_HAL_Driver/Src/stm32f1xx_hal_spi.c:802:12
	ldr	r0, [r4, #88]
	.loc	7 802 22 is_stmt 0      @ ../Drivers/STM32F1xx_HAL_Driver/Src/stm32f1xx_hal_spi.c:802:22
	cmp	r0, #0
	it	ne
	movne	r0, #1
	b	.LBB7_16
.Ltmp170:
.LBB7_31:
	@DEBUG_VALUE: HAL_SPI_Receive:tickstart <- $r8
	.loc	7 0 22                  @ ../Drivers/STM32F1xx_HAL_Driver/Src/stm32f1xx_hal_spi.c:0:22
	movs	r0, #3
	b	.LBB7_16
.Lfunc_end7:
	.size	HAL_SPI_Receive, .Lfunc_end7-HAL_SPI_Receive
	.cfi_endproc
	.cantunwind
	.fnend
                                        @ -- End function
	.section	.text.HAL_SPI_TransmitReceive,"ax",%progbits
	.hidden	HAL_SPI_TransmitReceive @ -- Begin function HAL_SPI_TransmitReceive
	.globl	HAL_SPI_TransmitReceive
	.p2align	2
	.type	HAL_SPI_TransmitReceive,%function
	.code	16                      @ @HAL_SPI_TransmitReceive
	.thumb_func
HAL_SPI_TransmitReceive:
.Lfunc_begin8:
	.loc	7 824 0 is_stmt 1       @ ../Drivers/STM32F1xx_HAL_Driver/Src/stm32f1xx_hal_spi.c:824:0
	.fnstart
	.cfi_startproc
@ %bb.0:
	.save	{r4, r5, r6, r7, r8, r9, r10, lr}
	push.w	{r4, r5, r6, r7, r8, r9, r10, lr}
	.cfi_def_cfa_offset 32
	.cfi_offset lr, -4
	.cfi_offset r10, -8
	.cfi_offset r9, -12
	.cfi_offset r8, -16
	.cfi_offset r7, -20
	.cfi_offset r6, -24
	.cfi_offset r5, -28
	.cfi_offset r4, -32
	.pad	#8
	sub	sp, #8
	.cfi_def_cfa_offset 40
	@DEBUG_VALUE: HAL_SPI_TransmitReceive:hspi <- $r0
	@DEBUG_VALUE: HAL_SPI_TransmitReceive:pTxData <- $r1
	@DEBUG_VALUE: HAL_SPI_TransmitReceive:pRxData <- $r2
	@DEBUG_VALUE: HAL_SPI_TransmitReceive:Size <- $r3
	mov	r5, r3
	mov	r6, r2
	mov	r10, r1
	mov	r4, r0
.Ltmp171:
	@DEBUG_VALUE: HAL_SPI_TransmitReceive:errorcode <- 0
	@DEBUG_VALUE: HAL_SPI_TransmitReceive:txallowed <- 1
	@DEBUG_VALUE: HAL_SPI_TransmitReceive:tickstart <- 0
	@DEBUG_VALUE: HAL_SPI_TransmitReceive:tmp1 <- 0
	@DEBUG_VALUE: HAL_SPI_TransmitReceive:tmp <- 0
	@DEBUG_VALUE: HAL_SPI_TransmitReceive:Timeout <- [DW_OP_plus_uconst 40] [$sp+0]
	@DEBUG_VALUE: HAL_SPI_TransmitReceive:Size <- $r5
	@DEBUG_VALUE: HAL_SPI_TransmitReceive:pRxData <- $r6
	@DEBUG_VALUE: HAL_SPI_TransmitReceive:pTxData <- $r10
	@DEBUG_VALUE: HAL_SPI_TransmitReceive:hspi <- $r4
	.loc	7 838 3 prologue_end    @ ../Drivers/STM32F1xx_HAL_Driver/Src/stm32f1xx_hal_spi.c:838:3
	ldr	r0, [r0, #80]
.Ltmp172:
	.loc	7 838 3 is_stmt 0       @ ../Drivers/STM32F1xx_HAL_Driver/Src/stm32f1xx_hal_spi.c:838:3
	cmp	r0, #1
	ittt	eq
	moveq	r0, #2
.Ltmp173:
	.loc	7 1045 1 is_stmt 1      @ ../Drivers/STM32F1xx_HAL_Driver/Src/stm32f1xx_hal_spi.c:1045:1
	addeq	sp, #8
.Ltmp174:
	popeq.w	{r4, r5, r6, r7, r8, r9, r10, pc}
.Ltmp175:
	.loc	7 838 3                 @ ../Drivers/STM32F1xx_HAL_Driver/Src/stm32f1xx_hal_spi.c:838:3
	movs	r0, #1
	str	r0, [r4, #80]
.Ltmp176:
	.loc	7 841 15                @ ../Drivers/STM32F1xx_HAL_Driver/Src/stm32f1xx_hal_spi.c:841:15
	bl	HAL_GetTick
	mov	r9, r0
.Ltmp177:
	@DEBUG_VALUE: HAL_SPI_TransmitReceive:tickstart <- $r9
	.loc	7 843 16                @ ../Drivers/STM32F1xx_HAL_Driver/Src/stm32f1xx_hal_spi.c:843:16
	ldr	r1, [r4, #84]
.Ltmp178:
	@DEBUG_VALUE: HAL_SPI_TransmitReceive:tmp <- $r1
	.loc	7 846 37                @ ../Drivers/STM32F1xx_HAL_Driver/Src/stm32f1xx_hal_spi.c:846:37
	cmp	r1, #1
	bne	.LBB8_21
.Ltmp179:
.LBB8_1:
	@DEBUG_VALUE: HAL_SPI_TransmitReceive:tickstart <- $r9
	.loc	7 0 37 is_stmt 0        @ ../Drivers/STM32F1xx_HAL_Driver/Src/stm32f1xx_hal_spi.c:0:37
	movs	r0, #1
.Ltmp180:
	.loc	7 853 24 is_stmt 1      @ ../Drivers/STM32F1xx_HAL_Driver/Src/stm32f1xx_hal_spi.c:853:24
	cmp.w	r10, #0
	it	ne
	cmpne	r6, #0
	beq	.LBB8_25
.Ltmp181:
@ %bb.2:
	@DEBUG_VALUE: HAL_SPI_TransmitReceive:tickstart <- $r9
	cmp	r5, #0
	beq	.LBB8_25
.Ltmp182:
@ %bb.3:
	@DEBUG_VALUE: HAL_SPI_TransmitReceive:tickstart <- $r9
	@DEBUG_VALUE: HAL_SPI_TransmitReceive:Size <- $r5
	.loc	7 860 12                @ ../Drivers/STM32F1xx_HAL_Driver/Src/stm32f1xx_hal_spi.c:860:12
	ldr	r0, [r4, #84]
.Ltmp183:
	.loc	7 860 6 is_stmt 0       @ ../Drivers/STM32F1xx_HAL_Driver/Src/stm32f1xx_hal_spi.c:860:6
	cmp	r0, #1
.Ltmp184:
	.loc	7 862 17 is_stmt 1      @ ../Drivers/STM32F1xx_HAL_Driver/Src/stm32f1xx_hal_spi.c:862:17
	itt	eq
	moveq	r0, #5
	streq	r0, [r4, #84]
	movs	r0, #0
.Ltmp185:
	.loc	7 866 21                @ ../Drivers/STM32F1xx_HAL_Driver/Src/stm32f1xx_hal_spi.c:866:21
	str	r0, [r4, #88]
	.loc	7 868 21                @ ../Drivers/STM32F1xx_HAL_Driver/Src/stm32f1xx_hal_spi.c:868:21
	strh	r5, [r4, #62]
	.loc	7 867 21                @ ../Drivers/STM32F1xx_HAL_Driver/Src/stm32f1xx_hal_spi.c:867:21
	str	r6, [r4, #56]
	.loc	7 869 21                @ ../Drivers/STM32F1xx_HAL_Driver/Src/stm32f1xx_hal_spi.c:869:21
	strh	r5, [r4, #60]
	.loc	7 870 21                @ ../Drivers/STM32F1xx_HAL_Driver/Src/stm32f1xx_hal_spi.c:870:21
	str.w	r10, [r4, #48]
	.loc	7 872 21                @ ../Drivers/STM32F1xx_HAL_Driver/Src/stm32f1xx_hal_spi.c:872:21
	strh	r5, [r4, #52]
	.loc	7 875 21                @ ../Drivers/STM32F1xx_HAL_Driver/Src/stm32f1xx_hal_spi.c:875:21
	strd	r0, r0, [r4, #64]
	.loc	7 871 21                @ ../Drivers/STM32F1xx_HAL_Driver/Src/stm32f1xx_hal_spi.c:871:21
	strh	r5, [r4, #54]
.Ltmp186:
	.loc	7 887 13                @ ../Drivers/STM32F1xx_HAL_Driver/Src/stm32f1xx_hal_spi.c:887:13
	ldr	r0, [r4]
	.loc	7 887 23 is_stmt 0      @ ../Drivers/STM32F1xx_HAL_Driver/Src/stm32f1xx_hal_spi.c:887:23
	ldr	r1, [r0]
.Ltmp187:
	.loc	7 887 6                 @ ../Drivers/STM32F1xx_HAL_Driver/Src/stm32f1xx_hal_spi.c:887:6
	tst.w	r1, #64
.Ltmp188:
	.loc	7 890 5 is_stmt 1       @ ../Drivers/STM32F1xx_HAL_Driver/Src/stm32f1xx_hal_spi.c:890:5
	ittt	eq
	ldreq	r1, [r0]
	orreq	r1, r1, #64
	streq	r1, [r0]
	ldr.w	r8, [sp, #40]
	ldr	r1, [r4, #4]
.Ltmp189:
	.loc	7 894 17                @ ../Drivers/STM32F1xx_HAL_Driver/Src/stm32f1xx_hal_spi.c:894:17
	ldr	r2, [r4, #12]
.Ltmp190:
	.loc	7 894 6 is_stmt 0       @ ../Drivers/STM32F1xx_HAL_Driver/Src/stm32f1xx_hal_spi.c:894:6
	cmp.w	r2, #2048
	bne	.LBB8_26
.Ltmp191:
@ %bb.4:
	@DEBUG_VALUE: HAL_SPI_TransmitReceive:tickstart <- $r9
	@DEBUG_VALUE: HAL_SPI_TransmitReceive:Size <- $r5
	.loc	7 896 44 is_stmt 1      @ ../Drivers/STM32F1xx_HAL_Driver/Src/stm32f1xx_hal_spi.c:896:44
	cbz	r1, .LBB8_6
.Ltmp192:
@ %bb.5:
	@DEBUG_VALUE: HAL_SPI_TransmitReceive:tickstart <- $r9
	@DEBUG_VALUE: HAL_SPI_TransmitReceive:Size <- $r5
	.loc	7 896 54 is_stmt 0      @ ../Drivers/STM32F1xx_HAL_Driver/Src/stm32f1xx_hal_spi.c:896:54
	ldrh	r1, [r4, #54]
.Ltmp193:
	.loc	7 896 8                 @ ../Drivers/STM32F1xx_HAL_Driver/Src/stm32f1xx_hal_spi.c:896:8
	cmp	r1, #1
	bne	.LBB8_7
.Ltmp194:
.LBB8_6:
	@DEBUG_VALUE: HAL_SPI_TransmitReceive:tickstart <- $r9
	@DEBUG_VALUE: HAL_SPI_TransmitReceive:Size <- $r5
	.loc	7 898 28 is_stmt 1      @ ../Drivers/STM32F1xx_HAL_Driver/Src/stm32f1xx_hal_spi.c:898:28
	ldrh	r1, [r10], #2
.Ltmp195:
	@DEBUG_VALUE: HAL_SPI_TransmitReceive:pTxData <- $r10
	.loc	7 898 26 is_stmt 0      @ ../Drivers/STM32F1xx_HAL_Driver/Src/stm32f1xx_hal_spi.c:898:26
	str	r1, [r0, #12]
	.loc	7 900 24 is_stmt 1      @ ../Drivers/STM32F1xx_HAL_Driver/Src/stm32f1xx_hal_spi.c:900:24
	ldrh	r0, [r4, #54]
	subs	r0, #1
	strh	r0, [r4, #54]
.Ltmp196:
.LBB8_7:
	@DEBUG_VALUE: HAL_SPI_TransmitReceive:tickstart <- $r9
	@DEBUG_VALUE: HAL_SPI_TransmitReceive:Size <- $r5
	.loc	7 0 24 is_stmt 0        @ ../Drivers/STM32F1xx_HAL_Driver/Src/stm32f1xx_hal_spi.c:0:24
	movs	r7, #1
	add.w	r5, r8, #1
.Ltmp197:
	.p2align	2
.LBB8_8:                                @ =>This Inner Loop Header: Depth=1
	@DEBUG_VALUE: HAL_SPI_TransmitReceive:tickstart <- $r9
	.loc	7 902 19 is_stmt 1      @ ../Drivers/STM32F1xx_HAL_Driver/Src/stm32f1xx_hal_spi.c:902:19
	ldrh	r0, [r4, #54]
	.loc	7 902 37 is_stmt 0      @ ../Drivers/STM32F1xx_HAL_Driver/Src/stm32f1xx_hal_spi.c:902:37
	cbnz	r0, .LBB8_10
.Ltmp198:
@ %bb.9:                                @   in Loop: Header=BB8_8 Depth=1
	@DEBUG_VALUE: HAL_SPI_TransmitReceive:tickstart <- $r9
	.loc	7 902 47                @ ../Drivers/STM32F1xx_HAL_Driver/Src/stm32f1xx_hal_spi.c:902:47
	ldrh	r0, [r4, #62]
	.loc	7 902 5                 @ ../Drivers/STM32F1xx_HAL_Driver/Src/stm32f1xx_hal_spi.c:902:5
	cmp	r0, #0
	beq	.LBB8_43
.Ltmp199:
.LBB8_10:                               @   in Loop: Header=BB8_8 Depth=1
	@DEBUG_VALUE: HAL_SPI_TransmitReceive:tickstart <- $r9
	@DEBUG_VALUE: HAL_SPI_TransmitReceive:txallowed <- $r7
	.loc	7 905 20 is_stmt 1      @ ../Drivers/STM32F1xx_HAL_Driver/Src/stm32f1xx_hal_spi.c:905:20
	cbz	r7, .LBB8_14
.Ltmp200:
@ %bb.11:                               @   in Loop: Header=BB8_8 Depth=1
	@DEBUG_VALUE: HAL_SPI_TransmitReceive:txallowed <- $r7
	@DEBUG_VALUE: HAL_SPI_TransmitReceive:tickstart <- $r9
	.loc	7 905 30 is_stmt 0      @ ../Drivers/STM32F1xx_HAL_Driver/Src/stm32f1xx_hal_spi.c:905:30
	ldrh	r0, [r4, #54]
	.loc	7 905 48                @ ../Drivers/STM32F1xx_HAL_Driver/Src/stm32f1xx_hal_spi.c:905:48
	cbz	r0, .LBB8_15
.Ltmp201:
@ %bb.12:                               @   in Loop: Header=BB8_8 Depth=1
	@DEBUG_VALUE: HAL_SPI_TransmitReceive:txallowed <- $r7
	@DEBUG_VALUE: HAL_SPI_TransmitReceive:tickstart <- $r9
	.loc	7 905 52                @ ../Drivers/STM32F1xx_HAL_Driver/Src/stm32f1xx_hal_spi.c:905:52
	ldr	r0, [r4]
	ldr	r1, [r0, #8]
.Ltmp202:
	.loc	7 905 10                @ ../Drivers/STM32F1xx_HAL_Driver/Src/stm32f1xx_hal_spi.c:905:10
	tst.w	r1, #2
	beq	.LBB8_15
.Ltmp203:
@ %bb.13:                               @   in Loop: Header=BB8_8 Depth=1
	@DEBUG_VALUE: HAL_SPI_TransmitReceive:txallowed <- $r7
	@DEBUG_VALUE: HAL_SPI_TransmitReceive:tickstart <- $r9
	@DEBUG_VALUE: HAL_SPI_TransmitReceive:pTxData <- $r10
	.loc	7 907 30 is_stmt 1      @ ../Drivers/STM32F1xx_HAL_Driver/Src/stm32f1xx_hal_spi.c:907:30
	ldrh	r1, [r10], #2
.Ltmp204:
	@DEBUG_VALUE: HAL_SPI_TransmitReceive:pTxData <- $r10
	.loc	7 907 28 is_stmt 0      @ ../Drivers/STM32F1xx_HAL_Driver/Src/stm32f1xx_hal_spi.c:907:28
	str	r1, [r0, #12]
	.loc	7 909 26 is_stmt 1      @ ../Drivers/STM32F1xx_HAL_Driver/Src/stm32f1xx_hal_spi.c:909:26
	ldrh	r0, [r4, #54]
	subs	r0, #1
	strh	r0, [r4, #54]
.Ltmp205:
.LBB8_14:                               @   in Loop: Header=BB8_8 Depth=1
	@DEBUG_VALUE: HAL_SPI_TransmitReceive:txallowed <- $r7
	@DEBUG_VALUE: HAL_SPI_TransmitReceive:tickstart <- $r9
	.loc	7 0 26 is_stmt 0        @ ../Drivers/STM32F1xx_HAL_Driver/Src/stm32f1xx_hal_spi.c:0:26
	movs	r7, #0
.Ltmp206:
	@DEBUG_VALUE: HAL_SPI_TransmitReceive:txallowed <- 0
.LBB8_15:                               @   in Loop: Header=BB8_8 Depth=1
	@DEBUG_VALUE: HAL_SPI_TransmitReceive:tickstart <- $r9
	.loc	7 923 17 is_stmt 1      @ ../Drivers/STM32F1xx_HAL_Driver/Src/stm32f1xx_hal_spi.c:923:17
	ldrh	r0, [r4, #62]
	.loc	7 923 35 is_stmt 0      @ ../Drivers/STM32F1xx_HAL_Driver/Src/stm32f1xx_hal_spi.c:923:35
	cbz	r0, .LBB8_18
.Ltmp207:
@ %bb.16:                               @   in Loop: Header=BB8_8 Depth=1
	@DEBUG_VALUE: HAL_SPI_TransmitReceive:tickstart <- $r9
	.loc	7 923 39                @ ../Drivers/STM32F1xx_HAL_Driver/Src/stm32f1xx_hal_spi.c:923:39
	ldr	r0, [r4]
	ldr	r1, [r0, #8]
.Ltmp208:
	.loc	7 923 10                @ ../Drivers/STM32F1xx_HAL_Driver/Src/stm32f1xx_hal_spi.c:923:10
	tst.w	r1, #1
	beq	.LBB8_18
.Ltmp209:
@ %bb.17:                               @   in Loop: Header=BB8_8 Depth=1
	@DEBUG_VALUE: HAL_SPI_TransmitReceive:tickstart <- $r9
	@DEBUG_VALUE: HAL_SPI_TransmitReceive:pRxData <- $r6
	.loc	7 925 50 is_stmt 1      @ ../Drivers/STM32F1xx_HAL_Driver/Src/stm32f1xx_hal_spi.c:925:50
	ldr	r0, [r0, #12]
	.loc	7 925 32 is_stmt 0      @ ../Drivers/STM32F1xx_HAL_Driver/Src/stm32f1xx_hal_spi.c:925:32
	strh	r0, [r6], #2
.Ltmp210:
	.loc	7 927 26 is_stmt 1      @ ../Drivers/STM32F1xx_HAL_Driver/Src/stm32f1xx_hal_spi.c:927:26
	ldrh	r0, [r4, #62]
	subs	r0, #1
	strh	r0, [r4, #62]
	movs	r7, #1
.Ltmp211:
	@DEBUG_VALUE: HAL_SPI_TransmitReceive:txallowed <- 1
.LBB8_18:                               @   in Loop: Header=BB8_8 Depth=1
	@DEBUG_VALUE: HAL_SPI_TransmitReceive:tickstart <- $r9
	.loc	7 931 37                @ ../Drivers/STM32F1xx_HAL_Driver/Src/stm32f1xx_hal_spi.c:931:37
	cmp	r5, #0
	beq	.LBB8_8
.Ltmp212:
@ %bb.19:                               @   in Loop: Header=BB8_8 Depth=1
	@DEBUG_VALUE: HAL_SPI_TransmitReceive:tickstart <- $r9
	.loc	7 931 42 is_stmt 0      @ ../Drivers/STM32F1xx_HAL_Driver/Src/stm32f1xx_hal_spi.c:931:42
	bl	HAL_GetTick
	.loc	7 931 55                @ ../Drivers/STM32F1xx_HAL_Driver/Src/stm32f1xx_hal_spi.c:931:55
	sub.w	r0, r0, r9
.Ltmp213:
	.loc	7 931 10                @ ../Drivers/STM32F1xx_HAL_Driver/Src/stm32f1xx_hal_spi.c:931:10
	cmp	r0, r8
	blo	.LBB8_8
.Ltmp214:
@ %bb.20:
	@DEBUG_VALUE: HAL_SPI_TransmitReceive:tickstart <- $r9
	.loc	7 0 10                  @ ../Drivers/STM32F1xx_HAL_Driver/Src/stm32f1xx_hal_spi.c:0:10
	movs	r0, #3
	b	.LBB8_25
.Ltmp215:
.LBB8_21:
	@DEBUG_VALUE: HAL_SPI_TransmitReceive:tmp <- $r1
	@DEBUG_VALUE: HAL_SPI_TransmitReceive:tickstart <- $r9
	.loc	7 844 21 is_stmt 1      @ ../Drivers/STM32F1xx_HAL_Driver/Src/stm32f1xx_hal_spi.c:844:21
	ldr	r0, [r4, #4]
.Ltmp216:
	@DEBUG_VALUE: HAL_SPI_TransmitReceive:tmp1 <- $r0
	.loc	7 847 32                @ ../Drivers/STM32F1xx_HAL_Driver/Src/stm32f1xx_hal_spi.c:847:32
	cmp.w	r0, #260
	bne	.LBB8_24
.Ltmp217:
@ %bb.22:
	@DEBUG_VALUE: HAL_SPI_TransmitReceive:tmp1 <- $r0
	@DEBUG_VALUE: HAL_SPI_TransmitReceive:tmp <- $r1
	@DEBUG_VALUE: HAL_SPI_TransmitReceive:tickstart <- $r9
	.loc	7 0 32 is_stmt 0        @ ../Drivers/STM32F1xx_HAL_Driver/Src/stm32f1xx_hal_spi.c:0:32
	movs	r0, #2
.Ltmp218:
	.loc	7 847 82                @ ../Drivers/STM32F1xx_HAL_Driver/Src/stm32f1xx_hal_spi.c:847:82
	cmp	r1, #4
	bne	.LBB8_25
.Ltmp219:
@ %bb.23:
	@DEBUG_VALUE: HAL_SPI_TransmitReceive:tmp <- $r1
	@DEBUG_VALUE: HAL_SPI_TransmitReceive:tickstart <- $r9
	.loc	7 0 82                  @ ../Drivers/STM32F1xx_HAL_Driver/Src/stm32f1xx_hal_spi.c:0:82
	ldr	r1, [r4, #8]
.Ltmp220:
	.loc	7 847 82                @ ../Drivers/STM32F1xx_HAL_Driver/Src/stm32f1xx_hal_spi.c:847:82
	cmp	r1, #0
	beq.w	.LBB8_1
	b	.LBB8_25
.Ltmp221:
.LBB8_24:
	@DEBUG_VALUE: HAL_SPI_TransmitReceive:tmp1 <- $r0
	@DEBUG_VALUE: HAL_SPI_TransmitReceive:tmp <- $r1
	@DEBUG_VALUE: HAL_SPI_TransmitReceive:tickstart <- $r9
	.loc	7 0 82                  @ ../Drivers/STM32F1xx_HAL_Driver/Src/stm32f1xx_hal_spi.c:0:82
	movs	r0, #2
.Ltmp222:
.LBB8_25:
	@DEBUG_VALUE: HAL_SPI_TransmitReceive:tickstart <- $r9
	movs	r1, #0
.Ltmp223:
	.loc	7 1043 3 is_stmt 1      @ ../Drivers/STM32F1xx_HAL_Driver/Src/stm32f1xx_hal_spi.c:1043:3
	str	r1, [r4, #80]
.Ltmp224:
	.loc	7 1042 15               @ ../Drivers/STM32F1xx_HAL_Driver/Src/stm32f1xx_hal_spi.c:1042:15
	movs	r1, #1
	str	r1, [r4, #84]
	.loc	7 1045 1                @ ../Drivers/STM32F1xx_HAL_Driver/Src/stm32f1xx_hal_spi.c:1045:1
	add	sp, #8
	pop.w	{r4, r5, r6, r7, r8, r9, r10, pc}
.Ltmp225:
.LBB8_26:
	@DEBUG_VALUE: HAL_SPI_TransmitReceive:tickstart <- $r9
	@DEBUG_VALUE: HAL_SPI_TransmitReceive:Size <- $r5
	.loc	7 941 44                @ ../Drivers/STM32F1xx_HAL_Driver/Src/stm32f1xx_hal_spi.c:941:44
	cbz	r1, .LBB8_28
.Ltmp226:
@ %bb.27:
	@DEBUG_VALUE: HAL_SPI_TransmitReceive:tickstart <- $r9
	@DEBUG_VALUE: HAL_SPI_TransmitReceive:Size <- $r5
	.loc	7 941 54 is_stmt 0      @ ../Drivers/STM32F1xx_HAL_Driver/Src/stm32f1xx_hal_spi.c:941:54
	ldrh	r1, [r4, #54]
.Ltmp227:
	.loc	7 941 8                 @ ../Drivers/STM32F1xx_HAL_Driver/Src/stm32f1xx_hal_spi.c:941:8
	cmp	r1, #1
	bne	.LBB8_29
.Ltmp228:
.LBB8_28:
	@DEBUG_VALUE: HAL_SPI_TransmitReceive:tickstart <- $r9
	@DEBUG_VALUE: HAL_SPI_TransmitReceive:Size <- $r5
	.loc	7 943 48 is_stmt 1      @ ../Drivers/STM32F1xx_HAL_Driver/Src/stm32f1xx_hal_spi.c:943:48
	ldrb	r1, [r10], #1
.Ltmp229:
	@DEBUG_VALUE: HAL_SPI_TransmitReceive:pTxData <- $r10
	.loc	7 943 45 is_stmt 0      @ ../Drivers/STM32F1xx_HAL_Driver/Src/stm32f1xx_hal_spi.c:943:45
	strb	r1, [r0, #12]
	.loc	7 945 24 is_stmt 1      @ ../Drivers/STM32F1xx_HAL_Driver/Src/stm32f1xx_hal_spi.c:945:24
	ldrh	r0, [r4, #54]
	subs	r0, #1
	strh	r0, [r4, #54]
.Ltmp230:
.LBB8_29:
	@DEBUG_VALUE: HAL_SPI_TransmitReceive:tickstart <- $r9
	@DEBUG_VALUE: HAL_SPI_TransmitReceive:Size <- $r5
	.loc	7 0 24 is_stmt 0        @ ../Drivers/STM32F1xx_HAL_Driver/Src/stm32f1xx_hal_spi.c:0:24
	movs	r7, #1
	add.w	r5, r8, #1
.Ltmp231:
	.p2align	2
.LBB8_30:                               @ =>This Inner Loop Header: Depth=1
	@DEBUG_VALUE: HAL_SPI_TransmitReceive:tickstart <- $r9
	.loc	7 947 18 is_stmt 1      @ ../Drivers/STM32F1xx_HAL_Driver/Src/stm32f1xx_hal_spi.c:947:18
	ldrh	r0, [r4, #54]
	.loc	7 947 36 is_stmt 0      @ ../Drivers/STM32F1xx_HAL_Driver/Src/stm32f1xx_hal_spi.c:947:36
	cbnz	r0, .LBB8_32
.Ltmp232:
@ %bb.31:                               @   in Loop: Header=BB8_30 Depth=1
	@DEBUG_VALUE: HAL_SPI_TransmitReceive:tickstart <- $r9
	.loc	7 947 46                @ ../Drivers/STM32F1xx_HAL_Driver/Src/stm32f1xx_hal_spi.c:947:46
	ldrh	r0, [r4, #62]
	.loc	7 947 5                 @ ../Drivers/STM32F1xx_HAL_Driver/Src/stm32f1xx_hal_spi.c:947:5
	cbz	r0, .LBB8_43
.Ltmp233:
.LBB8_32:                               @   in Loop: Header=BB8_30 Depth=1
	@DEBUG_VALUE: HAL_SPI_TransmitReceive:tickstart <- $r9
	@DEBUG_VALUE: HAL_SPI_TransmitReceive:txallowed <- $r7
	.loc	7 950 20 is_stmt 1      @ ../Drivers/STM32F1xx_HAL_Driver/Src/stm32f1xx_hal_spi.c:950:20
	cbz	r7, .LBB8_36
.Ltmp234:
@ %bb.33:                               @   in Loop: Header=BB8_30 Depth=1
	@DEBUG_VALUE: HAL_SPI_TransmitReceive:txallowed <- $r7
	@DEBUG_VALUE: HAL_SPI_TransmitReceive:tickstart <- $r9
	.loc	7 950 30 is_stmt 0      @ ../Drivers/STM32F1xx_HAL_Driver/Src/stm32f1xx_hal_spi.c:950:30
	ldrh	r0, [r4, #54]
	.loc	7 950 48                @ ../Drivers/STM32F1xx_HAL_Driver/Src/stm32f1xx_hal_spi.c:950:48
	cbz	r0, .LBB8_37
.Ltmp235:
@ %bb.34:                               @   in Loop: Header=BB8_30 Depth=1
	@DEBUG_VALUE: HAL_SPI_TransmitReceive:txallowed <- $r7
	@DEBUG_VALUE: HAL_SPI_TransmitReceive:tickstart <- $r9
	.loc	7 950 52                @ ../Drivers/STM32F1xx_HAL_Driver/Src/stm32f1xx_hal_spi.c:950:52
	ldr	r0, [r4]
	ldr	r1, [r0, #8]
.Ltmp236:
	.loc	7 950 10                @ ../Drivers/STM32F1xx_HAL_Driver/Src/stm32f1xx_hal_spi.c:950:10
	tst.w	r1, #2
	beq	.LBB8_37
.Ltmp237:
@ %bb.35:                               @   in Loop: Header=BB8_30 Depth=1
	@DEBUG_VALUE: HAL_SPI_TransmitReceive:txallowed <- $r7
	@DEBUG_VALUE: HAL_SPI_TransmitReceive:tickstart <- $r9
	@DEBUG_VALUE: HAL_SPI_TransmitReceive:pTxData <- $r10
	.loc	7 952 49 is_stmt 1      @ ../Drivers/STM32F1xx_HAL_Driver/Src/stm32f1xx_hal_spi.c:952:49
	ldrb	r1, [r10], #1
.Ltmp238:
	.loc	7 952 46 is_stmt 0      @ ../Drivers/STM32F1xx_HAL_Driver/Src/stm32f1xx_hal_spi.c:952:46
	strb	r1, [r0, #12]
	.loc	7 953 26 is_stmt 1      @ ../Drivers/STM32F1xx_HAL_Driver/Src/stm32f1xx_hal_spi.c:953:26
	ldrh	r0, [r4, #54]
	subs	r0, #1
	strh	r0, [r4, #54]
.Ltmp239:
.LBB8_36:                               @   in Loop: Header=BB8_30 Depth=1
	@DEBUG_VALUE: HAL_SPI_TransmitReceive:txallowed <- $r7
	@DEBUG_VALUE: HAL_SPI_TransmitReceive:tickstart <- $r9
	.loc	7 0 26 is_stmt 0        @ ../Drivers/STM32F1xx_HAL_Driver/Src/stm32f1xx_hal_spi.c:0:26
	movs	r7, #0
.Ltmp240:
	@DEBUG_VALUE: HAL_SPI_TransmitReceive:txallowed <- 0
.LBB8_37:                               @   in Loop: Header=BB8_30 Depth=1
	@DEBUG_VALUE: HAL_SPI_TransmitReceive:tickstart <- $r9
	.loc	7 967 17 is_stmt 1      @ ../Drivers/STM32F1xx_HAL_Driver/Src/stm32f1xx_hal_spi.c:967:17
	ldrh	r0, [r4, #62]
	.loc	7 967 35 is_stmt 0      @ ../Drivers/STM32F1xx_HAL_Driver/Src/stm32f1xx_hal_spi.c:967:35
	cbz	r0, .LBB8_40
.Ltmp241:
@ %bb.38:                               @   in Loop: Header=BB8_30 Depth=1
	@DEBUG_VALUE: HAL_SPI_TransmitReceive:tickstart <- $r9
	.loc	7 967 39                @ ../Drivers/STM32F1xx_HAL_Driver/Src/stm32f1xx_hal_spi.c:967:39
	ldr	r0, [r4]
	ldr	r1, [r0, #8]
.Ltmp242:
	.loc	7 967 10                @ ../Drivers/STM32F1xx_HAL_Driver/Src/stm32f1xx_hal_spi.c:967:10
	tst.w	r1, #1
	beq	.LBB8_40
.Ltmp243:
@ %bb.39:                               @   in Loop: Header=BB8_30 Depth=1
	@DEBUG_VALUE: HAL_SPI_TransmitReceive:tickstart <- $r9
	@DEBUG_VALUE: HAL_SPI_TransmitReceive:pRxData <- $r6
	.loc	7 969 51 is_stmt 1      @ ../Drivers/STM32F1xx_HAL_Driver/Src/stm32f1xx_hal_spi.c:969:51
	ldr	r0, [r0, #12]
	.loc	7 969 33 is_stmt 0      @ ../Drivers/STM32F1xx_HAL_Driver/Src/stm32f1xx_hal_spi.c:969:33
	strb	r0, [r6], #1
.Ltmp244:
	.loc	7 970 26 is_stmt 1      @ ../Drivers/STM32F1xx_HAL_Driver/Src/stm32f1xx_hal_spi.c:970:26
	ldrh	r0, [r4, #62]
	subs	r0, #1
	strh	r0, [r4, #62]
	movs	r7, #1
.Ltmp245:
	@DEBUG_VALUE: HAL_SPI_TransmitReceive:txallowed <- 1
.LBB8_40:                               @   in Loop: Header=BB8_30 Depth=1
	@DEBUG_VALUE: HAL_SPI_TransmitReceive:tickstart <- $r9
	.loc	7 974 37                @ ../Drivers/STM32F1xx_HAL_Driver/Src/stm32f1xx_hal_spi.c:974:37
	cmp	r5, #0
	beq	.LBB8_30
.Ltmp246:
@ %bb.41:                               @   in Loop: Header=BB8_30 Depth=1
	@DEBUG_VALUE: HAL_SPI_TransmitReceive:tickstart <- $r9
	.loc	7 974 42 is_stmt 0      @ ../Drivers/STM32F1xx_HAL_Driver/Src/stm32f1xx_hal_spi.c:974:42
	bl	HAL_GetTick
	.loc	7 974 55                @ ../Drivers/STM32F1xx_HAL_Driver/Src/stm32f1xx_hal_spi.c:974:55
	sub.w	r0, r0, r9
.Ltmp247:
	.loc	7 974 10                @ ../Drivers/STM32F1xx_HAL_Driver/Src/stm32f1xx_hal_spi.c:974:10
	cmp	r0, r8
	blo	.LBB8_30
.Ltmp248:
@ %bb.42:
	@DEBUG_VALUE: HAL_SPI_TransmitReceive:tickstart <- $r9
	.loc	7 0 10                  @ ../Drivers/STM32F1xx_HAL_Driver/Src/stm32f1xx_hal_spi.c:0:10
	movs	r0, #3
	b	.LBB8_25
.Ltmp249:
.LBB8_43:
	@DEBUG_VALUE: HAL_SPI_TransmitReceive:tickstart <- $r9
	.loc	7 1021 6 is_stmt 1      @ ../Drivers/STM32F1xx_HAL_Driver/Src/stm32f1xx_hal_spi.c:1021:6
	str.w	r9, [sp]
	mov	r0, r4
	movs	r1, #2
	movs	r2, #1
	mov	r3, r8
	bl	SPI_WaitFlagStateUntilTimeout
.Ltmp250:
	.loc	7 1021 6 is_stmt 0      @ ../Drivers/STM32F1xx_HAL_Driver/Src/stm32f1xx_hal_spi.c:1021:6
	cbz	r0, .LBB8_45
.Ltmp251:
@ %bb.44:
	@DEBUG_VALUE: HAL_SPI_TransmitReceive:tickstart <- $r9
	.loc	7 0 6                   @ ../Drivers/STM32F1xx_HAL_Driver/Src/stm32f1xx_hal_spi.c:0:6
	movs	r0, #3
	b	.LBB8_25
.Ltmp252:
.LBB8_45:
	@DEBUG_VALUE: HAL_SPI_TransmitReceive:tickstart <- $r9
	.loc	7 1028 6 is_stmt 1      @ ../Drivers/STM32F1xx_HAL_Driver/Src/stm32f1xx_hal_spi.c:1028:6
	mov	r0, r4
	mov	r1, r8
	mov	r2, r9
	bl	SPI_CheckFlag_BSY
.Ltmp253:
	.loc	7 1028 6 is_stmt 0      @ ../Drivers/STM32F1xx_HAL_Driver/Src/stm32f1xx_hal_spi.c:1028:6
	cbz	r0, .LBB8_47
.Ltmp254:
@ %bb.46:
	@DEBUG_VALUE: HAL_SPI_TransmitReceive:tickstart <- $r9
	@DEBUG_VALUE: HAL_SPI_TransmitReceive:errorcode <- 1
	.loc	7 1031 21 is_stmt 1     @ ../Drivers/STM32F1xx_HAL_Driver/Src/stm32f1xx_hal_spi.c:1031:21
	movs	r0, #32
	str	r0, [r4, #88]
	movs	r0, #1
	b	.LBB8_25
.Ltmp255:
.LBB8_47:
	@DEBUG_VALUE: HAL_SPI_TransmitReceive:tickstart <- $r9
	.loc	7 1036 17               @ ../Drivers/STM32F1xx_HAL_Driver/Src/stm32f1xx_hal_spi.c:1036:17
	ldr	r1, [r4, #8]
	movs	r0, #0
.Ltmp256:
	.loc	7 1036 6 is_stmt 0      @ ../Drivers/STM32F1xx_HAL_Driver/Src/stm32f1xx_hal_spi.c:1036:6
	cmp	r1, #0
	bne	.LBB8_25
.Ltmp257:
@ %bb.48:
	@DEBUG_VALUE: HAL_SPI_TransmitReceive:tickstart <- $r9
	@DEBUG_VALUE: tmpreg_ovr <- 0
	.loc	7 1038 5 is_stmt 1      @ ../Drivers/STM32F1xx_HAL_Driver/Src/stm32f1xx_hal_spi.c:1038:5
	str	r0, [sp, #4]
	ldr	r1, [r4]
	ldr	r2, [r1, #12]
.Ltmp258:
	@DEBUG_VALUE: tmpreg_ovr <- $r2
	str	r2, [sp, #4]
	ldr	r1, [r1, #8]
.Ltmp259:
	@DEBUG_VALUE: tmpreg_ovr <- $r1
	str	r1, [sp, #4]
	ldr	r1, [sp, #4]
.Ltmp260:
	@DEBUG_VALUE: tmpreg_ovr <- $r1
	.loc	7 0 5 is_stmt 0         @ ../Drivers/STM32F1xx_HAL_Driver/Src/stm32f1xx_hal_spi.c:0:5
	b	.LBB8_25
.Ltmp261:
.Lfunc_end8:
	.size	HAL_SPI_TransmitReceive, .Lfunc_end8-HAL_SPI_TransmitReceive
	.cfi_endproc
	.cantunwind
	.fnend
                                        @ -- End function
	.section	.text.HAL_SPI_Transmit_IT,"ax",%progbits
	.hidden	HAL_SPI_Transmit_IT     @ -- Begin function HAL_SPI_Transmit_IT
	.globl	HAL_SPI_Transmit_IT
	.p2align	2
	.type	HAL_SPI_Transmit_IT,%function
	.code	16                      @ @HAL_SPI_Transmit_IT
	.thumb_func
HAL_SPI_Transmit_IT:
.Lfunc_begin9:
	.loc	7 1056 0 is_stmt 1      @ ../Drivers/STM32F1xx_HAL_Driver/Src/stm32f1xx_hal_spi.c:1056:0
	.fnstart
	.cfi_startproc
@ %bb.0:
	@DEBUG_VALUE: HAL_SPI_Transmit_IT:hspi <- $r0
	@DEBUG_VALUE: HAL_SPI_Transmit_IT:hspi <- $r0
	@DEBUG_VALUE: HAL_SPI_Transmit_IT:pData <- $r1
	@DEBUG_VALUE: HAL_SPI_Transmit_IT:pData <- $r1
	@DEBUG_VALUE: HAL_SPI_Transmit_IT:Size <- $r2
	@DEBUG_VALUE: HAL_SPI_Transmit_IT:Size <- $r2
	@DEBUG_VALUE: HAL_SPI_Transmit_IT:errorcode <- 0
	.loc	7 1063 3 prologue_end   @ ../Drivers/STM32F1xx_HAL_Driver/Src/stm32f1xx_hal_spi.c:1063:3
	ldr	r3, [r0, #80]
.Ltmp262:
	.loc	7 1063 3 is_stmt 0      @ ../Drivers/STM32F1xx_HAL_Driver/Src/stm32f1xx_hal_spi.c:1063:3
	cmp	r3, #1
	ittt	eq
	moveq	r3, #2
.Ltmp263:
	.loc	7 1135 1 is_stmt 1      @ ../Drivers/STM32F1xx_HAL_Driver/Src/stm32f1xx_hal_spi.c:1135:1
	moveq	r0, r3
.Ltmp264:
	bxeq	lr
	movs	r3, #1
.Ltmp265:
	.loc	7 1063 3                @ ../Drivers/STM32F1xx_HAL_Driver/Src/stm32f1xx_hal_spi.c:1063:3
	str	r3, [r0, #80]
.Ltmp266:
	.loc	7 1065 22               @ ../Drivers/STM32F1xx_HAL_Driver/Src/stm32f1xx_hal_spi.c:1065:22
	cmp	r1, #0
	it	ne
	cmpne	r2, #0
	bne	.LBB9_2
.Ltmp267:
.LBB9_1:
	.loc	7 1133 3                @ ../Drivers/STM32F1xx_HAL_Driver/Src/stm32f1xx_hal_spi.c:1133:3
	movs	r1, #0
	str	r1, [r0, #80]
.Ltmp268:
	.loc	7 1135 1                @ ../Drivers/STM32F1xx_HAL_Driver/Src/stm32f1xx_hal_spi.c:1135:1
	mov	r0, r3
	bx	lr
.LBB9_2:
.Ltmp269:
	@DEBUG_VALUE: HAL_SPI_Transmit_IT:Size <- $r2
	@DEBUG_VALUE: HAL_SPI_Transmit_IT:pData <- $r1
	.loc	7 1071 12               @ ../Drivers/STM32F1xx_HAL_Driver/Src/stm32f1xx_hal_spi.c:1071:12
	ldr	r3, [r0, #84]
.Ltmp270:
	.loc	7 1071 6 is_stmt 0      @ ../Drivers/STM32F1xx_HAL_Driver/Src/stm32f1xx_hal_spi.c:1071:6
	cmp	r3, #1
	bne	.LBB9_5
.Ltmp271:
@ %bb.3:
	@DEBUG_VALUE: HAL_SPI_Transmit_IT:Size <- $r2
	@DEBUG_VALUE: HAL_SPI_Transmit_IT:pData <- $r1
	.loc	7 0 6                   @ ../Drivers/STM32F1xx_HAL_Driver/Src/stm32f1xx_hal_spi.c:0:6
	.save	{r7, lr}
	push	{r7, lr}
	.cfi_def_cfa_offset 8
	.cfi_offset lr, -4
	.cfi_offset r7, -8
	@DEBUG_VALUE: HAL_SPI_Transmit_IT:Size <- $r2
	.loc	7 1078 21 is_stmt 1     @ ../Drivers/STM32F1xx_HAL_Driver/Src/stm32f1xx_hal_spi.c:1078:21
	movs	r3, #3
	str	r3, [r0, #84]
	movs	r3, #0
	.loc	7 1079 21               @ ../Drivers/STM32F1xx_HAL_Driver/Src/stm32f1xx_hal_spi.c:1079:21
	str	r3, [r0, #88]
	.loc	7 1082 21               @ ../Drivers/STM32F1xx_HAL_Driver/Src/stm32f1xx_hal_spi.c:1082:21
	strh	r2, [r0, #54]
	.loc	7 1080 21               @ ../Drivers/STM32F1xx_HAL_Driver/Src/stm32f1xx_hal_spi.c:1080:21
	str	r1, [r0, #48]
	.loc	7 1081 21               @ ../Drivers/STM32F1xx_HAL_Driver/Src/stm32f1xx_hal_spi.c:1081:21
	strh	r2, [r0, #52]
	.loc	7 1085 21               @ ../Drivers/STM32F1xx_HAL_Driver/Src/stm32f1xx_hal_spi.c:1085:21
	str	r3, [r0, #56]
	.loc	7 1086 21               @ ../Drivers/STM32F1xx_HAL_Driver/Src/stm32f1xx_hal_spi.c:1086:21
	strh	r3, [r0, #60]
.Ltmp272:
	.loc	7 1101 17               @ ../Drivers/STM32F1xx_HAL_Driver/Src/stm32f1xx_hal_spi.c:1101:17
	ldrd	lr, r2, [r0, #8]
.Ltmp273:
	.loc	7 1091 6                @ ../Drivers/STM32F1xx_HAL_Driver/Src/stm32f1xx_hal_spi.c:1091:6
	movw	r12, :lower16:SPI_TxISR_8BIT
	movt	r12, :upper16:SPI_TxISR_8BIT
	movw	r1, :lower16:SPI_TxISR_16BIT
.Ltmp274:
	movt	r1, :upper16:SPI_TxISR_16BIT
	cmp	r2, #0
	it	eq
	moveq	r1, r12
	.loc	7 1088 21               @ ../Drivers/STM32F1xx_HAL_Driver/Src/stm32f1xx_hal_spi.c:1088:21
	strd	r3, r1, [r0, #64]
	.loc	7 1087 21               @ ../Drivers/STM32F1xx_HAL_Driver/Src/stm32f1xx_hal_spi.c:1087:21
	strh	r3, [r0, #62]
	.loc	7 1101 6                @ ../Drivers/STM32F1xx_HAL_Driver/Src/stm32f1xx_hal_spi.c:1101:6
	cmp.w	lr, #32768
	bne	.LBB9_6
@ %bb.4:
.Ltmp275:
	.loc	7 1103 5                @ ../Drivers/STM32F1xx_HAL_Driver/Src/stm32f1xx_hal_spi.c:1103:5
	ldr	r1, [r0]
	ldr	r2, [r1]
	orr	r2, r2, #16384
	str	r2, [r1]
	ldr	r3, [r0]
	mov	r2, r3
	ldr	r12, [r2, #4]!
	b	.LBB9_7
.Ltmp276:
.LBB9_5:
	@DEBUG_VALUE: HAL_SPI_Transmit_IT:Size <- $r2
	@DEBUG_VALUE: HAL_SPI_Transmit_IT:pData <- $r1
	.loc	7 0 5 is_stmt 0         @ ../Drivers/STM32F1xx_HAL_Driver/Src/stm32f1xx_hal_spi.c:0:5
	movs	r3, #2
	b	.LBB9_1
.Ltmp277:
.LBB9_6:
	ldr	r3, [r0]
	mov	r2, r3
	ldr	r12, [r2, #4]!
	.loc	7 1114 7 is_stmt 1      @ ../Drivers/STM32F1xx_HAL_Driver/Src/stm32f1xx_hal_spi.c:1114:7
	cmp.w	lr, #0
	beq	.LBB9_8
.LBB9_7:
.Ltmp278:
	.loc	7 1122 5                @ ../Drivers/STM32F1xx_HAL_Driver/Src/stm32f1xx_hal_spi.c:1122:5
	orr	r1, r12, #160
	b	.LBB9_9
.Ltmp279:
.LBB9_8:
	.loc	7 1117 5                @ ../Drivers/STM32F1xx_HAL_Driver/Src/stm32f1xx_hal_spi.c:1117:5
	orr	r1, r12, #128
.Ltmp280:
.LBB9_9:
	.loc	7 0 5 is_stmt 0         @ ../Drivers/STM32F1xx_HAL_Driver/Src/stm32f1xx_hal_spi.c:0:5
	str	r1, [r2]
.Ltmp281:
	.loc	7 1126 23 is_stmt 1     @ ../Drivers/STM32F1xx_HAL_Driver/Src/stm32f1xx_hal_spi.c:1126:23
	ldr	r1, [r3]
.Ltmp282:
	.loc	7 1126 6 is_stmt 0      @ ../Drivers/STM32F1xx_HAL_Driver/Src/stm32f1xx_hal_spi.c:1126:6
	tst.w	r1, #64
	pop.w	{r7, lr}
.Ltmp283:
	.loc	7 1129 5 is_stmt 1      @ ../Drivers/STM32F1xx_HAL_Driver/Src/stm32f1xx_hal_spi.c:1129:5
	ittt	eq
	ldreq	r1, [r3]
	orreq	r1, r1, #64
	streq	r1, [r3]
	movs	r3, #0
	b	.LBB9_1
.Ltmp284:
.Lfunc_end9:
	.size	HAL_SPI_Transmit_IT, .Lfunc_end9-HAL_SPI_Transmit_IT
	.cfi_endproc
	.cantunwind
	.fnend
                                        @ -- End function
	.section	.text.SPI_TxISR_16BIT,"ax",%progbits
	.p2align	2               @ -- Begin function SPI_TxISR_16BIT
	.type	SPI_TxISR_16BIT,%function
	.code	16                      @ @SPI_TxISR_16BIT
	.thumb_func
SPI_TxISR_16BIT:
.Lfunc_begin10:
	.loc	7 2902 0                @ ../Drivers/STM32F1xx_HAL_Driver/Src/stm32f1xx_hal_spi.c:2902:0
	.fnstart
	.cfi_startproc
@ %bb.0:
	@DEBUG_VALUE: SPI_TxISR_16BIT:hspi <- $r0
	@DEBUG_VALUE: SPI_TxISR_16BIT:hspi <- $r0
	.loc	7 2904 9 prologue_end   @ ../Drivers/STM32F1xx_HAL_Driver/Src/stm32f1xx_hal_spi.c:2904:9
	ldr	r1, [r0]
	.loc	7 2904 44 is_stmt 0     @ ../Drivers/STM32F1xx_HAL_Driver/Src/stm32f1xx_hal_spi.c:2904:44
	ldr	r2, [r0, #48]
	.loc	7 2904 24               @ ../Drivers/STM32F1xx_HAL_Driver/Src/stm32f1xx_hal_spi.c:2904:24
	ldrh	r2, [r2]
	.loc	7 2904 22               @ ../Drivers/STM32F1xx_HAL_Driver/Src/stm32f1xx_hal_spi.c:2904:22
	str	r2, [r1, #12]
	.loc	7 2906 20 is_stmt 1     @ ../Drivers/STM32F1xx_HAL_Driver/Src/stm32f1xx_hal_spi.c:2906:20
	ldrh	r1, [r0, #54]
	subs	r1, #1
	strh	r1, [r0, #54]
	.loc	7 2905 20               @ ../Drivers/STM32F1xx_HAL_Driver/Src/stm32f1xx_hal_spi.c:2905:20
	ldr	r1, [r0, #48]
	adds	r1, #2
	str	r1, [r0, #48]
.Ltmp285:
	.loc	7 2908 12               @ ../Drivers/STM32F1xx_HAL_Driver/Src/stm32f1xx_hal_spi.c:2908:12
	ldrh	r1, [r0, #54]
.Ltmp286:
	.loc	7 2908 6 is_stmt 0      @ ../Drivers/STM32F1xx_HAL_Driver/Src/stm32f1xx_hal_spi.c:2908:6
	cmp	r1, #0
.Ltmp287:
	.loc	7 2917 5 is_stmt 1      @ ../Drivers/STM32F1xx_HAL_Driver/Src/stm32f1xx_hal_spi.c:2917:5
	it	eq
	beq	SPI_CloseTx_ISR
.Ltmp288:
	.loc	7 2919 1                @ ../Drivers/STM32F1xx_HAL_Driver/Src/stm32f1xx_hal_spi.c:2919:1
	bx	lr
.Ltmp289:
.Lfunc_end10:
	.size	SPI_TxISR_16BIT, .Lfunc_end10-SPI_TxISR_16BIT
	.cfi_endproc
	.cantunwind
	.fnend
                                        @ -- End function
	.section	.text.SPI_TxISR_8BIT,"ax",%progbits
	.p2align	2               @ -- Begin function SPI_TxISR_8BIT
	.type	SPI_TxISR_8BIT,%function
	.code	16                      @ @SPI_TxISR_8BIT
	.thumb_func
SPI_TxISR_8BIT:
.Lfunc_begin11:
	.loc	7 2878 0                @ ../Drivers/STM32F1xx_HAL_Driver/Src/stm32f1xx_hal_spi.c:2878:0
	.fnstart
	.cfi_startproc
@ %bb.0:
	@DEBUG_VALUE: SPI_TxISR_8BIT:hspi <- $r0
	@DEBUG_VALUE: SPI_TxISR_8BIT:hspi <- $r0
	.loc	7 2879 27 prologue_end  @ ../Drivers/STM32F1xx_HAL_Driver/Src/stm32f1xx_hal_spi.c:2879:27
	ldr	r1, [r0]
	.loc	7 2879 60 is_stmt 0     @ ../Drivers/STM32F1xx_HAL_Driver/Src/stm32f1xx_hal_spi.c:2879:60
	ldr	r2, [r0, #48]
	adds	r3, r2, #1
	str	r3, [r0, #48]
	.loc	7 2879 43               @ ../Drivers/STM32F1xx_HAL_Driver/Src/stm32f1xx_hal_spi.c:2879:43
	ldrb	r2, [r2]
	.loc	7 2879 40               @ ../Drivers/STM32F1xx_HAL_Driver/Src/stm32f1xx_hal_spi.c:2879:40
	strb	r2, [r1, #12]
	.loc	7 2880 20 is_stmt 1     @ ../Drivers/STM32F1xx_HAL_Driver/Src/stm32f1xx_hal_spi.c:2880:20
	ldrh	r1, [r0, #54]
	subs	r1, #1
	strh	r1, [r0, #54]
.Ltmp290:
	.loc	7 2882 12               @ ../Drivers/STM32F1xx_HAL_Driver/Src/stm32f1xx_hal_spi.c:2882:12
	ldrh	r1, [r0, #54]
.Ltmp291:
	.loc	7 2882 6 is_stmt 0      @ ../Drivers/STM32F1xx_HAL_Driver/Src/stm32f1xx_hal_spi.c:2882:6
	cmp	r1, #0
.Ltmp292:
	.loc	7 2891 5 is_stmt 1      @ ../Drivers/STM32F1xx_HAL_Driver/Src/stm32f1xx_hal_spi.c:2891:5
	it	eq
	beq	SPI_CloseTx_ISR
.Ltmp293:
	.loc	7 2893 1                @ ../Drivers/STM32F1xx_HAL_Driver/Src/stm32f1xx_hal_spi.c:2893:1
	bx	lr
.Ltmp294:
.Lfunc_end11:
	.size	SPI_TxISR_8BIT, .Lfunc_end11-SPI_TxISR_8BIT
	.cfi_endproc
	.cantunwind
	.fnend
                                        @ -- End function
	.section	.text.HAL_SPI_Receive_IT,"ax",%progbits
	.hidden	HAL_SPI_Receive_IT      @ -- Begin function HAL_SPI_Receive_IT
	.globl	HAL_SPI_Receive_IT
	.p2align	2
	.type	HAL_SPI_Receive_IT,%function
	.code	16                      @ @HAL_SPI_Receive_IT
	.thumb_func
HAL_SPI_Receive_IT:
.Lfunc_begin12:
	.loc	7 1146 0                @ ../Drivers/STM32F1xx_HAL_Driver/Src/stm32f1xx_hal_spi.c:1146:0
	.fnstart
	.cfi_startproc
@ %bb.0:
	@DEBUG_VALUE: HAL_SPI_Receive_IT:hspi <- $r0
	@DEBUG_VALUE: HAL_SPI_Receive_IT:pData <- $r1
	@DEBUG_VALUE: HAL_SPI_Receive_IT:Size <- $r2
	mov	r12, r2
.Ltmp295:
	@DEBUG_VALUE: HAL_SPI_Receive_IT:errorcode <- 0
	@DEBUG_VALUE: HAL_SPI_Receive_IT:Size <- $r12
	@DEBUG_VALUE: HAL_SPI_Receive_IT:pData <- $r1
	@DEBUG_VALUE: HAL_SPI_Receive_IT:hspi <- $r0
	.loc	7 1149 18 prologue_end  @ ../Drivers/STM32F1xx_HAL_Driver/Src/stm32f1xx_hal_spi.c:1149:18
	ldr	r3, [r0, #8]
	.loc	7 1149 53 is_stmt 0     @ ../Drivers/STM32F1xx_HAL_Driver/Src/stm32f1xx_hal_spi.c:1149:53
	cbnz	r3, .LBB12_3
.Ltmp296:
@ %bb.1:
	@DEBUG_VALUE: HAL_SPI_Receive_IT:Size <- $r12
	@DEBUG_VALUE: HAL_SPI_Receive_IT:pData <- $r1
	@DEBUG_VALUE: HAL_SPI_Receive_IT:hspi <- $r0
	.loc	7 1149 68               @ ../Drivers/STM32F1xx_HAL_Driver/Src/stm32f1xx_hal_spi.c:1149:68
	ldr	r2, [r0, #4]
.Ltmp297:
	.loc	7 1149 6                @ ../Drivers/STM32F1xx_HAL_Driver/Src/stm32f1xx_hal_spi.c:1149:6
	cmp.w	r2, #260
	bne	.LBB12_3
.Ltmp298:
@ %bb.2:
	@DEBUG_VALUE: HAL_SPI_Receive_IT:Size <- $r12
	@DEBUG_VALUE: HAL_SPI_Receive_IT:pData <- $r1
	@DEBUG_VALUE: HAL_SPI_Receive_IT:hspi <- $r0
	.loc	7 1151 18 is_stmt 1     @ ../Drivers/STM32F1xx_HAL_Driver/Src/stm32f1xx_hal_spi.c:1151:18
	movs	r2, #4
	str	r2, [r0, #84]
	.loc	7 1153 13               @ ../Drivers/STM32F1xx_HAL_Driver/Src/stm32f1xx_hal_spi.c:1153:13
	mov	r2, r1
	mov	r3, r12
	b	HAL_SPI_TransmitReceive_IT
.Ltmp299:
.LBB12_3:
	@DEBUG_VALUE: HAL_SPI_Receive_IT:Size <- $r12
	@DEBUG_VALUE: HAL_SPI_Receive_IT:pData <- $r1
	@DEBUG_VALUE: HAL_SPI_Receive_IT:hspi <- $r0
	.loc	7 1157 3                @ ../Drivers/STM32F1xx_HAL_Driver/Src/stm32f1xx_hal_spi.c:1157:3
	ldr	r2, [r0, #80]
.Ltmp300:
	.loc	7 1157 3 is_stmt 0      @ ../Drivers/STM32F1xx_HAL_Driver/Src/stm32f1xx_hal_spi.c:1157:3
	cmp	r2, #1
	ittt	eq
	moveq	r2, #2
.Ltmp301:
	.loc	7 1226 1 is_stmt 1      @ ../Drivers/STM32F1xx_HAL_Driver/Src/stm32f1xx_hal_spi.c:1226:1
	moveq	r0, r2
.Ltmp302:
	bxeq	lr
	movs	r2, #1
.Ltmp303:
	.loc	7 1157 3                @ ../Drivers/STM32F1xx_HAL_Driver/Src/stm32f1xx_hal_spi.c:1157:3
	str	r2, [r0, #80]
.Ltmp304:
	.loc	7 1159 12               @ ../Drivers/STM32F1xx_HAL_Driver/Src/stm32f1xx_hal_spi.c:1159:12
	ldr	r2, [r0, #84]
.Ltmp305:
	.loc	7 1159 6 is_stmt 0      @ ../Drivers/STM32F1xx_HAL_Driver/Src/stm32f1xx_hal_spi.c:1159:6
	cmp	r2, #1
	bne	.LBB12_8
.Ltmp306:
@ %bb.4:
	@DEBUG_VALUE: HAL_SPI_Receive_IT:Size <- $r12
	@DEBUG_VALUE: HAL_SPI_Receive_IT:pData <- $r1
	.loc	7 0 6                   @ ../Drivers/STM32F1xx_HAL_Driver/Src/stm32f1xx_hal_spi.c:0:6
	movs	r2, #1
.Ltmp307:
	.loc	7 1165 22 is_stmt 1     @ ../Drivers/STM32F1xx_HAL_Driver/Src/stm32f1xx_hal_spi.c:1165:22
	cmp	r1, #0
	it	ne
	cmpne.w	r12, #0
	beq	.LBB12_9
.Ltmp308:
@ %bb.5:
	@DEBUG_VALUE: HAL_SPI_Receive_IT:Size <- $r12
	@DEBUG_VALUE: HAL_SPI_Receive_IT:pData <- $r1
	.loc	7 0 22 is_stmt 0        @ ../Drivers/STM32F1xx_HAL_Driver/Src/stm32f1xx_hal_spi.c:0:22
	.save	{r7, lr}
	push	{r7, lr}
	.cfi_def_cfa_offset 8
	.cfi_offset lr, -4
	.cfi_offset r7, -8
	movs	r2, #4
	.loc	7 1172 21 is_stmt 1     @ ../Drivers/STM32F1xx_HAL_Driver/Src/stm32f1xx_hal_spi.c:1172:21
	str	r2, [r0, #84]
	movs	r2, #0
	.loc	7 1173 21               @ ../Drivers/STM32F1xx_HAL_Driver/Src/stm32f1xx_hal_spi.c:1173:21
	str	r2, [r0, #88]
	.loc	7 1176 21               @ ../Drivers/STM32F1xx_HAL_Driver/Src/stm32f1xx_hal_spi.c:1176:21
	strh.w	r12, [r0, #62]
	.loc	7 1174 21               @ ../Drivers/STM32F1xx_HAL_Driver/Src/stm32f1xx_hal_spi.c:1174:21
	str	r1, [r0, #56]
	.loc	7 1175 21               @ ../Drivers/STM32F1xx_HAL_Driver/Src/stm32f1xx_hal_spi.c:1175:21
	strh.w	r12, [r0, #60]
	.loc	7 1179 21               @ ../Drivers/STM32F1xx_HAL_Driver/Src/stm32f1xx_hal_spi.c:1179:21
	str	r2, [r0, #48]
	.loc	7 1180 21               @ ../Drivers/STM32F1xx_HAL_Driver/Src/stm32f1xx_hal_spi.c:1180:21
	strh	r2, [r0, #52]
.Ltmp309:
	.loc	7 1185 17               @ ../Drivers/STM32F1xx_HAL_Driver/Src/stm32f1xx_hal_spi.c:1185:17
	ldr.w	lr, [r0, #12]
.Ltmp310:
	.loc	7 1185 6 is_stmt 0      @ ../Drivers/STM32F1xx_HAL_Driver/Src/stm32f1xx_hal_spi.c:1185:6
	movw	r12, :lower16:SPI_RxISR_8BIT
.Ltmp311:
	movt	r12, :upper16:SPI_RxISR_8BIT
	movw	r1, :lower16:SPI_RxISR_16BIT
.Ltmp312:
	movt	r1, :upper16:SPI_RxISR_16BIT
	cmp.w	lr, #0
	it	eq
	moveq	r1, r12
	strd	r1, r2, [r0, #64]
	.loc	7 1181 21 is_stmt 1     @ ../Drivers/STM32F1xx_HAL_Driver/Src/stm32f1xx_hal_spi.c:1181:21
	strh	r2, [r0, #54]
	.loc	7 1195 6                @ ../Drivers/STM32F1xx_HAL_Driver/Src/stm32f1xx_hal_spi.c:1195:6
	cmp.w	r3, #32768
	pop.w	{r7, lr}
	bne	.LBB12_7
@ %bb.6:
.Ltmp313:
	.loc	7 1197 5                @ ../Drivers/STM32F1xx_HAL_Driver/Src/stm32f1xx_hal_spi.c:1197:5
	ldr	r1, [r0]
	ldr	r2, [r1]
	bic	r2, r2, #16384
	str	r2, [r1]
.Ltmp314:
.LBB12_7:
	.loc	7 1209 3                @ ../Drivers/STM32F1xx_HAL_Driver/Src/stm32f1xx_hal_spi.c:1209:3
	ldr	r1, [r0]
	ldr	r2, [r1, #4]
	orr	r2, r2, #96
	str	r2, [r1, #4]
.Ltmp315:
	.loc	7 1216 23               @ ../Drivers/STM32F1xx_HAL_Driver/Src/stm32f1xx_hal_spi.c:1216:23
	ldr	r2, [r1]
.Ltmp316:
	.loc	7 1216 6 is_stmt 0      @ ../Drivers/STM32F1xx_HAL_Driver/Src/stm32f1xx_hal_spi.c:1216:6
	tst.w	r2, #64
.Ltmp317:
	.loc	7 1219 5 is_stmt 1      @ ../Drivers/STM32F1xx_HAL_Driver/Src/stm32f1xx_hal_spi.c:1219:5
	ittt	eq
	ldreq	r2, [r1]
	orreq	r2, r2, #64
	streq	r2, [r1]
	movs	r2, #0
	b	.LBB12_9
.Ltmp318:
.LBB12_8:
	@DEBUG_VALUE: HAL_SPI_Receive_IT:Size <- $r12
	@DEBUG_VALUE: HAL_SPI_Receive_IT:pData <- $r1
	.loc	7 0 5 is_stmt 0         @ ../Drivers/STM32F1xx_HAL_Driver/Src/stm32f1xx_hal_spi.c:0:5
	movs	r2, #2
.Ltmp319:
.LBB12_9:
	.loc	7 1224 3 is_stmt 1      @ ../Drivers/STM32F1xx_HAL_Driver/Src/stm32f1xx_hal_spi.c:1224:3
	movs	r1, #0
	str	r1, [r0, #80]
.Ltmp320:
	.loc	7 1226 1                @ ../Drivers/STM32F1xx_HAL_Driver/Src/stm32f1xx_hal_spi.c:1226:1
	mov	r0, r2
	bx	lr
.Ltmp321:
.Lfunc_end12:
	.size	HAL_SPI_Receive_IT, .Lfunc_end12-HAL_SPI_Receive_IT
	.cfi_endproc
	.cantunwind
	.fnend
                                        @ -- End function
	.section	.text.HAL_SPI_TransmitReceive_IT,"ax",%progbits
	.hidden	HAL_SPI_TransmitReceive_IT @ -- Begin function HAL_SPI_TransmitReceive_IT
	.globl	HAL_SPI_TransmitReceive_IT
	.p2align	2
	.type	HAL_SPI_TransmitReceive_IT,%function
	.code	16                      @ @HAL_SPI_TransmitReceive_IT
	.thumb_func
HAL_SPI_TransmitReceive_IT:
.Lfunc_begin13:
	.loc	7 1238 0                @ ../Drivers/STM32F1xx_HAL_Driver/Src/stm32f1xx_hal_spi.c:1238:0
	.fnstart
	.cfi_startproc
@ %bb.0:
	@DEBUG_VALUE: HAL_SPI_TransmitReceive_IT:hspi <- $r0
	@DEBUG_VALUE: HAL_SPI_TransmitReceive_IT:hspi <- $r0
	@DEBUG_VALUE: HAL_SPI_TransmitReceive_IT:pTxData <- $r1
	@DEBUG_VALUE: HAL_SPI_TransmitReceive_IT:pTxData <- $r1
	@DEBUG_VALUE: HAL_SPI_TransmitReceive_IT:pRxData <- $r2
	@DEBUG_VALUE: HAL_SPI_TransmitReceive_IT:pRxData <- $r2
	@DEBUG_VALUE: HAL_SPI_TransmitReceive_IT:Size <- $r3
	@DEBUG_VALUE: HAL_SPI_TransmitReceive_IT:Size <- $r3
	@DEBUG_VALUE: HAL_SPI_TransmitReceive_IT:tmp <- 0
	@DEBUG_VALUE: HAL_SPI_TransmitReceive_IT:tmp1 <- 0
	@DEBUG_VALUE: HAL_SPI_TransmitReceive_IT:errorcode <- 0
	.loc	7 1246 3 prologue_end   @ ../Drivers/STM32F1xx_HAL_Driver/Src/stm32f1xx_hal_spi.c:1246:3
	ldr.w	r12, [r0, #80]
.Ltmp322:
	.loc	7 1246 3 is_stmt 0      @ ../Drivers/STM32F1xx_HAL_Driver/Src/stm32f1xx_hal_spi.c:1246:3
	cmp.w	r12, #1
	ittt	eq
	moveq.w	r12, #2
.Ltmp323:
	.loc	7 1313 1 is_stmt 1      @ ../Drivers/STM32F1xx_HAL_Driver/Src/stm32f1xx_hal_spi.c:1313:1
	moveq	r0, r12
.Ltmp324:
	bxeq	lr
	.save	{r7, lr}
	push	{r7, lr}
	.cfi_def_cfa_offset 8
	.cfi_offset lr, -4
	.cfi_offset r7, -8
.Ltmp325:
	.loc	7 1246 3                @ ../Drivers/STM32F1xx_HAL_Driver/Src/stm32f1xx_hal_spi.c:1246:3
	mov.w	r12, #1
	str.w	r12, [r0, #80]
.Ltmp326:
	.loc	7 1248 16               @ ../Drivers/STM32F1xx_HAL_Driver/Src/stm32f1xx_hal_spi.c:1248:16
	ldr.w	lr, [r0, #84]
.Ltmp327:
	@DEBUG_VALUE: HAL_SPI_TransmitReceive_IT:tmp <- $lr
	.loc	7 1251 37               @ ../Drivers/STM32F1xx_HAL_Driver/Src/stm32f1xx_hal_spi.c:1251:37
	cmp.w	lr, #1
	bne	.LBB13_5
.Ltmp328:
.LBB13_1:
	@DEBUG_VALUE: HAL_SPI_TransmitReceive_IT:Size <- $r3
	@DEBUG_VALUE: HAL_SPI_TransmitReceive_IT:pRxData <- $r2
	@DEBUG_VALUE: HAL_SPI_TransmitReceive_IT:pTxData <- $r1
	.loc	7 0 37 is_stmt 0        @ ../Drivers/STM32F1xx_HAL_Driver/Src/stm32f1xx_hal_spi.c:0:37
	mov.w	r12, #1
.Ltmp329:
	.loc	7 1258 25 is_stmt 1     @ ../Drivers/STM32F1xx_HAL_Driver/Src/stm32f1xx_hal_spi.c:1258:25
	cmp	r1, #0
	it	ne
	cmpne	r2, #0
	beq	.LBB13_9
.Ltmp330:
@ %bb.2:
	@DEBUG_VALUE: HAL_SPI_TransmitReceive_IT:Size <- $r3
	@DEBUG_VALUE: HAL_SPI_TransmitReceive_IT:pRxData <- $r2
	@DEBUG_VALUE: HAL_SPI_TransmitReceive_IT:pTxData <- $r1
	cmp	r3, #0
	beq	.LBB13_9
.Ltmp331:
@ %bb.3:
	@DEBUG_VALUE: HAL_SPI_TransmitReceive_IT:Size <- $r3
	@DEBUG_VALUE: HAL_SPI_TransmitReceive_IT:pRxData <- $r2
	@DEBUG_VALUE: HAL_SPI_TransmitReceive_IT:pTxData <- $r1
	@DEBUG_VALUE: HAL_SPI_TransmitReceive_IT:Size <- $r3
	.loc	7 1265 12               @ ../Drivers/STM32F1xx_HAL_Driver/Src/stm32f1xx_hal_spi.c:1265:12
	ldr.w	r12, [r0, #84]
.Ltmp332:
	.loc	7 1265 6 is_stmt 0      @ ../Drivers/STM32F1xx_HAL_Driver/Src/stm32f1xx_hal_spi.c:1265:6
	cmp.w	r12, #1
.Ltmp333:
	.loc	7 1267 17 is_stmt 1     @ ../Drivers/STM32F1xx_HAL_Driver/Src/stm32f1xx_hal_spi.c:1267:17
	itt	eq
	moveq.w	r12, #5
	streq.w	r12, [r0, #84]
	mov.w	r12, #0
.Ltmp334:
	.loc	7 1271 21               @ ../Drivers/STM32F1xx_HAL_Driver/Src/stm32f1xx_hal_spi.c:1271:21
	str.w	r12, [r0, #88]
	.loc	7 1274 21               @ ../Drivers/STM32F1xx_HAL_Driver/Src/stm32f1xx_hal_spi.c:1274:21
	strh	r3, [r0, #54]
	.loc	7 1272 21               @ ../Drivers/STM32F1xx_HAL_Driver/Src/stm32f1xx_hal_spi.c:1272:21
	str	r1, [r0, #48]
	.loc	7 1273 21               @ ../Drivers/STM32F1xx_HAL_Driver/Src/stm32f1xx_hal_spi.c:1273:21
	strh	r3, [r0, #52]
	.loc	7 1275 21               @ ../Drivers/STM32F1xx_HAL_Driver/Src/stm32f1xx_hal_spi.c:1275:21
	str	r2, [r0, #56]
	.loc	7 1276 21               @ ../Drivers/STM32F1xx_HAL_Driver/Src/stm32f1xx_hal_spi.c:1276:21
	strh	r3, [r0, #60]
	.loc	7 1277 21               @ ../Drivers/STM32F1xx_HAL_Driver/Src/stm32f1xx_hal_spi.c:1277:21
	strh	r3, [r0, #62]
	.loc	7 1300 3                @ ../Drivers/STM32F1xx_HAL_Driver/Src/stm32f1xx_hal_spi.c:1300:3
	ldr	r1, [r0]
.Ltmp335:
	.loc	7 1280 17               @ ../Drivers/STM32F1xx_HAL_Driver/Src/stm32f1xx_hal_spi.c:1280:17
	ldr	r2, [r0, #12]
.Ltmp336:
	.loc	7 1280 6 is_stmt 0      @ ../Drivers/STM32F1xx_HAL_Driver/Src/stm32f1xx_hal_spi.c:1280:6
	movw	lr, :lower16:SPI_2linesRxISR_8BIT
	movt	lr, :upper16:SPI_2linesRxISR_8BIT
	movw	r3, :lower16:SPI_2linesRxISR_16BIT
.Ltmp337:
	movt	r3, :upper16:SPI_2linesRxISR_16BIT
	cmp	r2, #0
	it	eq
	moveq	r3, lr
	movw	lr, :lower16:SPI_2linesTxISR_8BIT
	movt	lr, :upper16:SPI_2linesTxISR_8BIT
	movw	r2, :lower16:SPI_2linesTxISR_16BIT
	movt	r2, :upper16:SPI_2linesTxISR_16BIT
	it	eq
	moveq	r2, lr
	strd	r3, r2, [r0, #64]
	.loc	7 1300 3 is_stmt 1      @ ../Drivers/STM32F1xx_HAL_Driver/Src/stm32f1xx_hal_spi.c:1300:3
	ldr	r2, [r1, #4]
	orr	r2, r2, #224
	str	r2, [r1, #4]
.Ltmp338:
	.loc	7 1303 23               @ ../Drivers/STM32F1xx_HAL_Driver/Src/stm32f1xx_hal_spi.c:1303:23
	ldr	r2, [r1]
.Ltmp339:
	.loc	7 1303 6 is_stmt 0      @ ../Drivers/STM32F1xx_HAL_Driver/Src/stm32f1xx_hal_spi.c:1303:6
	tst.w	r2, #64
	bne	.LBB13_9
@ %bb.4:
.Ltmp340:
	.loc	7 1306 5 is_stmt 1      @ ../Drivers/STM32F1xx_HAL_Driver/Src/stm32f1xx_hal_spi.c:1306:5
	ldr	r2, [r1]
	orr	r2, r2, #64
	str	r2, [r1]
	mov.w	r12, #0
	b	.LBB13_9
.Ltmp341:
.LBB13_5:
	@DEBUG_VALUE: HAL_SPI_TransmitReceive_IT:tmp <- $lr
	@DEBUG_VALUE: HAL_SPI_TransmitReceive_IT:Size <- $r3
	@DEBUG_VALUE: HAL_SPI_TransmitReceive_IT:pRxData <- $r2
	@DEBUG_VALUE: HAL_SPI_TransmitReceive_IT:pTxData <- $r1
	.loc	7 1249 21               @ ../Drivers/STM32F1xx_HAL_Driver/Src/stm32f1xx_hal_spi.c:1249:21
	ldr.w	r12, [r0, #4]
.Ltmp342:
	@DEBUG_VALUE: HAL_SPI_TransmitReceive_IT:tmp1 <- $r12
	.loc	7 1252 32               @ ../Drivers/STM32F1xx_HAL_Driver/Src/stm32f1xx_hal_spi.c:1252:32
	cmp.w	r12, #260
	bne	.LBB13_8
.Ltmp343:
@ %bb.6:
	@DEBUG_VALUE: HAL_SPI_TransmitReceive_IT:tmp1 <- $r12
	@DEBUG_VALUE: HAL_SPI_TransmitReceive_IT:tmp <- $lr
	@DEBUG_VALUE: HAL_SPI_TransmitReceive_IT:Size <- $r3
	@DEBUG_VALUE: HAL_SPI_TransmitReceive_IT:pRxData <- $r2
	@DEBUG_VALUE: HAL_SPI_TransmitReceive_IT:pTxData <- $r1
	.loc	7 0 32 is_stmt 0        @ ../Drivers/STM32F1xx_HAL_Driver/Src/stm32f1xx_hal_spi.c:0:32
	mov.w	r12, #2
.Ltmp344:
	.loc	7 1252 82               @ ../Drivers/STM32F1xx_HAL_Driver/Src/stm32f1xx_hal_spi.c:1252:82
	cmp.w	lr, #4
	bne	.LBB13_9
.Ltmp345:
@ %bb.7:
	@DEBUG_VALUE: HAL_SPI_TransmitReceive_IT:tmp <- $lr
	@DEBUG_VALUE: HAL_SPI_TransmitReceive_IT:Size <- $r3
	@DEBUG_VALUE: HAL_SPI_TransmitReceive_IT:pRxData <- $r2
	@DEBUG_VALUE: HAL_SPI_TransmitReceive_IT:pTxData <- $r1
	.loc	7 0 82                  @ ../Drivers/STM32F1xx_HAL_Driver/Src/stm32f1xx_hal_spi.c:0:82
	ldr.w	lr, [r0, #8]
.Ltmp346:
	.loc	7 1252 82               @ ../Drivers/STM32F1xx_HAL_Driver/Src/stm32f1xx_hal_spi.c:1252:82
	cmp.w	lr, #0
	beq	.LBB13_1
	b	.LBB13_9
.Ltmp347:
.LBB13_8:
	@DEBUG_VALUE: HAL_SPI_TransmitReceive_IT:tmp1 <- $r12
	@DEBUG_VALUE: HAL_SPI_TransmitReceive_IT:tmp <- $lr
	@DEBUG_VALUE: HAL_SPI_TransmitReceive_IT:Size <- $r3
	@DEBUG_VALUE: HAL_SPI_TransmitReceive_IT:pRxData <- $r2
	@DEBUG_VALUE: HAL_SPI_TransmitReceive_IT:pTxData <- $r1
	.loc	7 0 82                  @ ../Drivers/STM32F1xx_HAL_Driver/Src/stm32f1xx_hal_spi.c:0:82
	mov.w	r12, #2
.Ltmp348:
.LBB13_9:
	.loc	7 1311 3 is_stmt 1      @ ../Drivers/STM32F1xx_HAL_Driver/Src/stm32f1xx_hal_spi.c:1311:3
	movs	r1, #0
	str	r1, [r0, #80]
	pop.w	{r7, lr}
.Ltmp349:
	.loc	7 1313 1                @ ../Drivers/STM32F1xx_HAL_Driver/Src/stm32f1xx_hal_spi.c:1313:1
	mov	r0, r12
	bx	lr
.Ltmp350:
.Lfunc_end13:
	.size	HAL_SPI_TransmitReceive_IT, .Lfunc_end13-HAL_SPI_TransmitReceive_IT
	.cfi_endproc
	.cantunwind
	.fnend
                                        @ -- End function
	.section	.text.SPI_RxISR_16BIT,"ax",%progbits
	.p2align	2               @ -- Begin function SPI_RxISR_16BIT
	.type	SPI_RxISR_16BIT,%function
	.code	16                      @ @SPI_RxISR_16BIT
	.thumb_func
SPI_RxISR_16BIT:
.Lfunc_begin14:
	.loc	7 2845 0                @ ../Drivers/STM32F1xx_HAL_Driver/Src/stm32f1xx_hal_spi.c:2845:0
	.fnstart
	.cfi_startproc
@ %bb.0:
	@DEBUG_VALUE: SPI_RxISR_16BIT:hspi <- $r0
	@DEBUG_VALUE: SPI_RxISR_16BIT:hspi <- $r0
	.loc	7 2846 43 prologue_end  @ ../Drivers/STM32F1xx_HAL_Driver/Src/stm32f1xx_hal_spi.c:2846:43
	ldr	r1, [r0]
	.loc	7 2846 53 is_stmt 0     @ ../Drivers/STM32F1xx_HAL_Driver/Src/stm32f1xx_hal_spi.c:2846:53
	ldr	r1, [r1, #12]
	.loc	7 2846 23               @ ../Drivers/STM32F1xx_HAL_Driver/Src/stm32f1xx_hal_spi.c:2846:23
	ldr	r2, [r0, #56]
	.loc	7 2846 35               @ ../Drivers/STM32F1xx_HAL_Driver/Src/stm32f1xx_hal_spi.c:2846:35
	strh	r1, [r2]
	.loc	7 2848 20 is_stmt 1     @ ../Drivers/STM32F1xx_HAL_Driver/Src/stm32f1xx_hal_spi.c:2848:20
	ldrh	r1, [r0, #62]
	subs	r1, #1
	strh	r1, [r0, #62]
	.loc	7 2847 20               @ ../Drivers/STM32F1xx_HAL_Driver/Src/stm32f1xx_hal_spi.c:2847:20
	ldr	r1, [r0, #56]
	adds	r1, #2
	str	r1, [r0, #56]
.Ltmp351:
	.loc	7 2858 12               @ ../Drivers/STM32F1xx_HAL_Driver/Src/stm32f1xx_hal_spi.c:2858:12
	ldrh	r1, [r0, #62]
.Ltmp352:
	.loc	7 2858 6 is_stmt 0      @ ../Drivers/STM32F1xx_HAL_Driver/Src/stm32f1xx_hal_spi.c:2858:6
	cmp	r1, #0
.Ltmp353:
	.loc	7 2867 5 is_stmt 1      @ ../Drivers/STM32F1xx_HAL_Driver/Src/stm32f1xx_hal_spi.c:2867:5
	it	eq
	beq	SPI_CloseRx_ISR
.Ltmp354:
	.loc	7 2869 1                @ ../Drivers/STM32F1xx_HAL_Driver/Src/stm32f1xx_hal_spi.c:2869:1
	bx	lr
.Ltmp355:
.Lfunc_end14:
	.size	SPI_RxISR_16BIT, .Lfunc_end14-SPI_RxISR_16BIT
	.cfi_endproc
	.cantunwind
	.fnend
                                        @ -- End function
	.section	.text.SPI_RxISR_8BIT,"ax",%progbits
	.p2align	2               @ -- Begin function SPI_RxISR_8BIT
	.type	SPI_RxISR_8BIT,%function
	.code	16                      @ @SPI_RxISR_8BIT
	.thumb_func
SPI_RxISR_8BIT:
.Lfunc_begin15:
	.loc	7 2789 0                @ ../Drivers/STM32F1xx_HAL_Driver/Src/stm32f1xx_hal_spi.c:2789:0
	.fnstart
	.cfi_startproc
@ %bb.0:
	@DEBUG_VALUE: SPI_RxISR_8BIT:hspi <- $r0
	@DEBUG_VALUE: SPI_RxISR_8BIT:hspi <- $r0
	.loc	7 2790 50 prologue_end  @ ../Drivers/STM32F1xx_HAL_Driver/Src/stm32f1xx_hal_spi.c:2790:50
	ldr	r1, [r0]
	.loc	7 2790 26 is_stmt 0     @ ../Drivers/STM32F1xx_HAL_Driver/Src/stm32f1xx_hal_spi.c:2790:26
	ldrb	r1, [r1, #12]
	.loc	7 2790 20               @ ../Drivers/STM32F1xx_HAL_Driver/Src/stm32f1xx_hal_spi.c:2790:20
	ldr	r2, [r0, #56]
	adds	r3, r2, #1
	str	r3, [r0, #56]
	.loc	7 2790 23               @ ../Drivers/STM32F1xx_HAL_Driver/Src/stm32f1xx_hal_spi.c:2790:23
	strb	r1, [r2]
	.loc	7 2791 20 is_stmt 1     @ ../Drivers/STM32F1xx_HAL_Driver/Src/stm32f1xx_hal_spi.c:2791:20
	ldrh	r1, [r0, #62]
	subs	r1, #1
	strh	r1, [r0, #62]
.Ltmp356:
	.loc	7 2801 12               @ ../Drivers/STM32F1xx_HAL_Driver/Src/stm32f1xx_hal_spi.c:2801:12
	ldrh	r1, [r0, #62]
.Ltmp357:
	.loc	7 2801 6 is_stmt 0      @ ../Drivers/STM32F1xx_HAL_Driver/Src/stm32f1xx_hal_spi.c:2801:6
	cmp	r1, #0
.Ltmp358:
	.loc	7 2810 5 is_stmt 1      @ ../Drivers/STM32F1xx_HAL_Driver/Src/stm32f1xx_hal_spi.c:2810:5
	it	eq
	beq	SPI_CloseRx_ISR
.Ltmp359:
	.loc	7 2812 1                @ ../Drivers/STM32F1xx_HAL_Driver/Src/stm32f1xx_hal_spi.c:2812:1
	bx	lr
.Ltmp360:
.Lfunc_end15:
	.size	SPI_RxISR_8BIT, .Lfunc_end15-SPI_RxISR_8BIT
	.cfi_endproc
	.cantunwind
	.fnend
                                        @ -- End function
	.section	.text.SPI_2linesRxISR_16BIT,"ax",%progbits
	.p2align	2               @ -- Begin function SPI_2linesRxISR_16BIT
	.type	SPI_2linesRxISR_16BIT,%function
	.code	16                      @ @SPI_2linesRxISR_16BIT
	.thumb_func
SPI_2linesRxISR_16BIT:
.Lfunc_begin16:
	.loc	7 2675 0                @ ../Drivers/STM32F1xx_HAL_Driver/Src/stm32f1xx_hal_spi.c:2675:0
	.fnstart
	.cfi_startproc
@ %bb.0:
	@DEBUG_VALUE: SPI_2linesRxISR_16BIT:hspi <- $r0
	@DEBUG_VALUE: SPI_2linesRxISR_16BIT:hspi <- $r0
	.loc	7 2677 42 prologue_end  @ ../Drivers/STM32F1xx_HAL_Driver/Src/stm32f1xx_hal_spi.c:2677:42
	ldr	r1, [r0]
	.loc	7 2677 52 is_stmt 0     @ ../Drivers/STM32F1xx_HAL_Driver/Src/stm32f1xx_hal_spi.c:2677:52
	ldr	r2, [r1, #12]
	.loc	7 2677 22               @ ../Drivers/STM32F1xx_HAL_Driver/Src/stm32f1xx_hal_spi.c:2677:22
	ldr	r3, [r0, #56]
	.loc	7 2677 34               @ ../Drivers/STM32F1xx_HAL_Driver/Src/stm32f1xx_hal_spi.c:2677:34
	strh	r2, [r3]
	.loc	7 2679 20 is_stmt 1     @ ../Drivers/STM32F1xx_HAL_Driver/Src/stm32f1xx_hal_spi.c:2679:20
	ldrh	r2, [r0, #62]
	subs	r2, #1
	strh	r2, [r0, #62]
	.loc	7 2678 20               @ ../Drivers/STM32F1xx_HAL_Driver/Src/stm32f1xx_hal_spi.c:2678:20
	ldr	r2, [r0, #56]
	adds	r2, #2
	str	r2, [r0, #56]
.Ltmp361:
	.loc	7 2681 12               @ ../Drivers/STM32F1xx_HAL_Driver/Src/stm32f1xx_hal_spi.c:2681:12
	ldrh	r2, [r0, #62]
.Ltmp362:
	.loc	7 2681 6 is_stmt 0      @ ../Drivers/STM32F1xx_HAL_Driver/Src/stm32f1xx_hal_spi.c:2681:6
	cmp	r2, #0
	.loc	7 2699 1 is_stmt 1      @ ../Drivers/STM32F1xx_HAL_Driver/Src/stm32f1xx_hal_spi.c:2699:1
	it	ne
	bxne	lr
.Ltmp363:
	.loc	7 2692 5                @ ../Drivers/STM32F1xx_HAL_Driver/Src/stm32f1xx_hal_spi.c:2692:5
	ldr	r2, [r1, #4]
	bic	r2, r2, #64
	str	r2, [r1, #4]
.Ltmp364:
	.loc	7 2694 14               @ ../Drivers/STM32F1xx_HAL_Driver/Src/stm32f1xx_hal_spi.c:2694:14
	ldrh	r1, [r0, #54]
.Ltmp365:
	.loc	7 2694 8 is_stmt 0      @ ../Drivers/STM32F1xx_HAL_Driver/Src/stm32f1xx_hal_spi.c:2694:8
	cmp	r1, #0
.Ltmp366:
	.loc	7 2696 7 is_stmt 1      @ ../Drivers/STM32F1xx_HAL_Driver/Src/stm32f1xx_hal_spi.c:2696:7
	it	eq
	beq	SPI_CloseRxTx_ISR
.Ltmp367:
	.loc	7 2699 1                @ ../Drivers/STM32F1xx_HAL_Driver/Src/stm32f1xx_hal_spi.c:2699:1
	bx	lr
.Ltmp368:
.Lfunc_end16:
	.size	SPI_2linesRxISR_16BIT, .Lfunc_end16-SPI_2linesRxISR_16BIT
	.cfi_endproc
	.cantunwind
	.fnend
                                        @ -- End function
	.section	.text.SPI_2linesTxISR_16BIT,"ax",%progbits
	.p2align	2               @ -- Begin function SPI_2linesTxISR_16BIT
	.type	SPI_2linesTxISR_16BIT,%function
	.code	16                      @ @SPI_2linesTxISR_16BIT
	.thumb_func
SPI_2linesTxISR_16BIT:
.Lfunc_begin17:
	.loc	7 2733 0                @ ../Drivers/STM32F1xx_HAL_Driver/Src/stm32f1xx_hal_spi.c:2733:0
	.fnstart
	.cfi_startproc
@ %bb.0:
	@DEBUG_VALUE: SPI_2linesTxISR_16BIT:hspi <- $r0
	@DEBUG_VALUE: SPI_2linesTxISR_16BIT:hspi <- $r0
	.loc	7 2735 9 prologue_end   @ ../Drivers/STM32F1xx_HAL_Driver/Src/stm32f1xx_hal_spi.c:2735:9
	ldr	r1, [r0]
	.loc	7 2735 44 is_stmt 0     @ ../Drivers/STM32F1xx_HAL_Driver/Src/stm32f1xx_hal_spi.c:2735:44
	ldr	r2, [r0, #48]
	.loc	7 2735 24               @ ../Drivers/STM32F1xx_HAL_Driver/Src/stm32f1xx_hal_spi.c:2735:24
	ldrh	r2, [r2]
	.loc	7 2735 22               @ ../Drivers/STM32F1xx_HAL_Driver/Src/stm32f1xx_hal_spi.c:2735:22
	str	r2, [r1, #12]
	.loc	7 2737 20 is_stmt 1     @ ../Drivers/STM32F1xx_HAL_Driver/Src/stm32f1xx_hal_spi.c:2737:20
	ldrh	r2, [r0, #54]
	subs	r2, #1
	strh	r2, [r0, #54]
	.loc	7 2736 20               @ ../Drivers/STM32F1xx_HAL_Driver/Src/stm32f1xx_hal_spi.c:2736:20
	ldr	r2, [r0, #48]
	adds	r2, #2
	str	r2, [r0, #48]
.Ltmp369:
	.loc	7 2740 12               @ ../Drivers/STM32F1xx_HAL_Driver/Src/stm32f1xx_hal_spi.c:2740:12
	ldrh	r2, [r0, #54]
.Ltmp370:
	.loc	7 2740 6 is_stmt 0      @ ../Drivers/STM32F1xx_HAL_Driver/Src/stm32f1xx_hal_spi.c:2740:6
	cmp	r2, #0
	.loc	7 2759 1 is_stmt 1      @ ../Drivers/STM32F1xx_HAL_Driver/Src/stm32f1xx_hal_spi.c:2759:1
	it	ne
	bxne	lr
.Ltmp371:
	.loc	7 2752 5                @ ../Drivers/STM32F1xx_HAL_Driver/Src/stm32f1xx_hal_spi.c:2752:5
	ldr	r2, [r1, #4]
	bic	r2, r2, #128
	str	r2, [r1, #4]
.Ltmp372:
	.loc	7 2754 14               @ ../Drivers/STM32F1xx_HAL_Driver/Src/stm32f1xx_hal_spi.c:2754:14
	ldrh	r1, [r0, #62]
.Ltmp373:
	.loc	7 2754 8 is_stmt 0      @ ../Drivers/STM32F1xx_HAL_Driver/Src/stm32f1xx_hal_spi.c:2754:8
	cmp	r1, #0
.Ltmp374:
	.loc	7 2756 7 is_stmt 1      @ ../Drivers/STM32F1xx_HAL_Driver/Src/stm32f1xx_hal_spi.c:2756:7
	it	eq
	beq	SPI_CloseRxTx_ISR
.Ltmp375:
	.loc	7 2759 1                @ ../Drivers/STM32F1xx_HAL_Driver/Src/stm32f1xx_hal_spi.c:2759:1
	bx	lr
.Ltmp376:
.Lfunc_end17:
	.size	SPI_2linesTxISR_16BIT, .Lfunc_end17-SPI_2linesTxISR_16BIT
	.cfi_endproc
	.cantunwind
	.fnend
                                        @ -- End function
	.section	.text.SPI_2linesRxISR_8BIT,"ax",%progbits
	.p2align	2               @ -- Begin function SPI_2linesRxISR_8BIT
	.type	SPI_2linesRxISR_8BIT,%function
	.code	16                      @ @SPI_2linesRxISR_8BIT
	.thumb_func
SPI_2linesRxISR_8BIT:
.Lfunc_begin18:
	.loc	7 2581 0                @ ../Drivers/STM32F1xx_HAL_Driver/Src/stm32f1xx_hal_spi.c:2581:0
	.fnstart
	.cfi_startproc
@ %bb.0:
	@DEBUG_VALUE: SPI_2linesRxISR_8BIT:hspi <- $r0
	@DEBUG_VALUE: SPI_2linesRxISR_8BIT:hspi <- $r0
	.loc	7 2583 50 prologue_end  @ ../Drivers/STM32F1xx_HAL_Driver/Src/stm32f1xx_hal_spi.c:2583:50
	ldr	r1, [r0]
	.loc	7 2583 25 is_stmt 0     @ ../Drivers/STM32F1xx_HAL_Driver/Src/stm32f1xx_hal_spi.c:2583:25
	ldrb	r1, [r1, #12]
	.loc	7 2583 20               @ ../Drivers/STM32F1xx_HAL_Driver/Src/stm32f1xx_hal_spi.c:2583:20
	ldr	r2, [r0, #56]
	adds	r3, r2, #1
	str	r3, [r0, #56]
	.loc	7 2583 23               @ ../Drivers/STM32F1xx_HAL_Driver/Src/stm32f1xx_hal_spi.c:2583:23
	strb	r1, [r2]
	.loc	7 2584 20 is_stmt 1     @ ../Drivers/STM32F1xx_HAL_Driver/Src/stm32f1xx_hal_spi.c:2584:20
	ldrh	r1, [r0, #62]
	subs	r1, #1
	strh	r1, [r0, #62]
.Ltmp377:
	.loc	7 2587 12               @ ../Drivers/STM32F1xx_HAL_Driver/Src/stm32f1xx_hal_spi.c:2587:12
	ldrh	r1, [r0, #62]
.Ltmp378:
	.loc	7 2587 6 is_stmt 0      @ ../Drivers/STM32F1xx_HAL_Driver/Src/stm32f1xx_hal_spi.c:2587:6
	cmp	r1, #0
	.loc	7 2605 1 is_stmt 1      @ ../Drivers/STM32F1xx_HAL_Driver/Src/stm32f1xx_hal_spi.c:2605:1
	it	ne
	bxne	lr
.Ltmp379:
	.loc	7 2598 5                @ ../Drivers/STM32F1xx_HAL_Driver/Src/stm32f1xx_hal_spi.c:2598:5
	ldr	r1, [r0]
	ldr	r2, [r1, #4]
	bic	r2, r2, #96
	str	r2, [r1, #4]
.Ltmp380:
	.loc	7 2600 14               @ ../Drivers/STM32F1xx_HAL_Driver/Src/stm32f1xx_hal_spi.c:2600:14
	ldrh	r1, [r0, #54]
.Ltmp381:
	.loc	7 2600 8 is_stmt 0      @ ../Drivers/STM32F1xx_HAL_Driver/Src/stm32f1xx_hal_spi.c:2600:8
	cmp	r1, #0
.Ltmp382:
	.loc	7 2602 7 is_stmt 1      @ ../Drivers/STM32F1xx_HAL_Driver/Src/stm32f1xx_hal_spi.c:2602:7
	it	eq
	beq	SPI_CloseRxTx_ISR
.Ltmp383:
	.loc	7 2605 1                @ ../Drivers/STM32F1xx_HAL_Driver/Src/stm32f1xx_hal_spi.c:2605:1
	bx	lr
.Ltmp384:
.Lfunc_end18:
	.size	SPI_2linesRxISR_8BIT, .Lfunc_end18-SPI_2linesRxISR_8BIT
	.cfi_endproc
	.cantunwind
	.fnend
                                        @ -- End function
	.section	.text.SPI_2linesTxISR_8BIT,"ax",%progbits
	.p2align	2               @ -- Begin function SPI_2linesTxISR_8BIT
	.type	SPI_2linesTxISR_8BIT,%function
	.code	16                      @ @SPI_2linesTxISR_8BIT
	.thumb_func
SPI_2linesTxISR_8BIT:
.Lfunc_begin19:
	.loc	7 2642 0                @ ../Drivers/STM32F1xx_HAL_Driver/Src/stm32f1xx_hal_spi.c:2642:0
	.fnstart
	.cfi_startproc
@ %bb.0:
	@DEBUG_VALUE: SPI_2linesTxISR_8BIT:hspi <- $r0
	@DEBUG_VALUE: SPI_2linesTxISR_8BIT:hspi <- $r0
	.loc	7 2643 27 prologue_end  @ ../Drivers/STM32F1xx_HAL_Driver/Src/stm32f1xx_hal_spi.c:2643:27
	ldr	r1, [r0]
	.loc	7 2643 60 is_stmt 0     @ ../Drivers/STM32F1xx_HAL_Driver/Src/stm32f1xx_hal_spi.c:2643:60
	ldr	r2, [r0, #48]
	adds	r3, r2, #1
	str	r3, [r0, #48]
	.loc	7 2643 43               @ ../Drivers/STM32F1xx_HAL_Driver/Src/stm32f1xx_hal_spi.c:2643:43
	ldrb	r2, [r2]
	.loc	7 2643 40               @ ../Drivers/STM32F1xx_HAL_Driver/Src/stm32f1xx_hal_spi.c:2643:40
	strb	r2, [r1, #12]
	.loc	7 2644 20 is_stmt 1     @ ../Drivers/STM32F1xx_HAL_Driver/Src/stm32f1xx_hal_spi.c:2644:20
	ldrh	r1, [r0, #54]
	subs	r1, #1
	strh	r1, [r0, #54]
.Ltmp385:
	.loc	7 2647 12               @ ../Drivers/STM32F1xx_HAL_Driver/Src/stm32f1xx_hal_spi.c:2647:12
	ldrh	r1, [r0, #54]
.Ltmp386:
	.loc	7 2647 6 is_stmt 0      @ ../Drivers/STM32F1xx_HAL_Driver/Src/stm32f1xx_hal_spi.c:2647:6
	cmp	r1, #0
	.loc	7 2666 1 is_stmt 1      @ ../Drivers/STM32F1xx_HAL_Driver/Src/stm32f1xx_hal_spi.c:2666:1
	it	ne
	bxne	lr
.Ltmp387:
	.loc	7 2659 5                @ ../Drivers/STM32F1xx_HAL_Driver/Src/stm32f1xx_hal_spi.c:2659:5
	ldr	r1, [r0]
	ldr	r2, [r1, #4]
	bic	r2, r2, #128
	str	r2, [r1, #4]
.Ltmp388:
	.loc	7 2661 14               @ ../Drivers/STM32F1xx_HAL_Driver/Src/stm32f1xx_hal_spi.c:2661:14
	ldrh	r1, [r0, #62]
.Ltmp389:
	.loc	7 2661 8 is_stmt 0      @ ../Drivers/STM32F1xx_HAL_Driver/Src/stm32f1xx_hal_spi.c:2661:8
	cmp	r1, #0
.Ltmp390:
	.loc	7 2663 7 is_stmt 1      @ ../Drivers/STM32F1xx_HAL_Driver/Src/stm32f1xx_hal_spi.c:2663:7
	it	eq
	beq	SPI_CloseRxTx_ISR
.Ltmp391:
	.loc	7 2666 1                @ ../Drivers/STM32F1xx_HAL_Driver/Src/stm32f1xx_hal_spi.c:2666:1
	bx	lr
.Ltmp392:
.Lfunc_end19:
	.size	SPI_2linesTxISR_8BIT, .Lfunc_end19-SPI_2linesTxISR_8BIT
	.cfi_endproc
	.cantunwind
	.fnend
                                        @ -- End function
	.section	.text.HAL_SPI_Transmit_DMA,"ax",%progbits
	.hidden	HAL_SPI_Transmit_DMA    @ -- Begin function HAL_SPI_Transmit_DMA
	.globl	HAL_SPI_Transmit_DMA
	.p2align	2
	.type	HAL_SPI_Transmit_DMA,%function
	.code	16                      @ @HAL_SPI_Transmit_DMA
	.thumb_func
HAL_SPI_Transmit_DMA:
.Lfunc_begin20:
	.loc	7 1324 0                @ ../Drivers/STM32F1xx_HAL_Driver/Src/stm32f1xx_hal_spi.c:1324:0
	.fnstart
	.cfi_startproc
@ %bb.0:
	.save	{r4, lr}
	push	{r4, lr}
	.cfi_def_cfa_offset 8
	.cfi_offset lr, -4
	.cfi_offset r4, -8
	@DEBUG_VALUE: HAL_SPI_Transmit_DMA:hspi <- $r0
	@DEBUG_VALUE: HAL_SPI_Transmit_DMA:pData <- $r1
	@DEBUG_VALUE: HAL_SPI_Transmit_DMA:Size <- $r2
	mov	r4, r0
.Ltmp393:
	@DEBUG_VALUE: HAL_SPI_Transmit_DMA:errorcode <- 0
	@DEBUG_VALUE: HAL_SPI_Transmit_DMA:Size <- $r2
	@DEBUG_VALUE: HAL_SPI_Transmit_DMA:pData <- $r1
	@DEBUG_VALUE: HAL_SPI_Transmit_DMA:hspi <- $r4
	.loc	7 1331 3 prologue_end   @ ../Drivers/STM32F1xx_HAL_Driver/Src/stm32f1xx_hal_spi.c:1331:3
	ldr	r0, [r0, #80]
.Ltmp394:
	.loc	7 1331 3 is_stmt 0      @ ../Drivers/STM32F1xx_HAL_Driver/Src/stm32f1xx_hal_spi.c:1331:3
	cmp	r0, #1
	itt	eq
	moveq	r0, #2
.Ltmp395:
	.loc	7 1405 1 is_stmt 1      @ ../Drivers/STM32F1xx_HAL_Driver/Src/stm32f1xx_hal_spi.c:1405:1
	popeq	{r4, pc}
.Ltmp396:
	.loc	7 0 1 is_stmt 0         @ ../Drivers/STM32F1xx_HAL_Driver/Src/stm32f1xx_hal_spi.c:0:1
	movs	r0, #1
.Ltmp397:
	.loc	7 1331 3 is_stmt 1      @ ../Drivers/STM32F1xx_HAL_Driver/Src/stm32f1xx_hal_spi.c:1331:3
	str	r0, [r4, #80]
.Ltmp398:
	.loc	7 1333 12               @ ../Drivers/STM32F1xx_HAL_Driver/Src/stm32f1xx_hal_spi.c:1333:12
	ldr	r0, [r4, #84]
.Ltmp399:
	.loc	7 1333 6 is_stmt 0      @ ../Drivers/STM32F1xx_HAL_Driver/Src/stm32f1xx_hal_spi.c:1333:6
	cmp	r0, #1
	bne	.LBB20_5
.Ltmp400:
@ %bb.1:
	@DEBUG_VALUE: HAL_SPI_Transmit_DMA:Size <- $r2
	@DEBUG_VALUE: HAL_SPI_Transmit_DMA:pData <- $r1
	.loc	7 0 6                   @ ../Drivers/STM32F1xx_HAL_Driver/Src/stm32f1xx_hal_spi.c:0:6
	movs	r0, #1
.Ltmp401:
	.loc	7 1339 22 is_stmt 1     @ ../Drivers/STM32F1xx_HAL_Driver/Src/stm32f1xx_hal_spi.c:1339:22
	cmp	r1, #0
	it	ne
	cmpne	r2, #0
	beq	.LBB20_6
.Ltmp402:
@ %bb.2:
	@DEBUG_VALUE: HAL_SPI_Transmit_DMA:Size <- $r2
	@DEBUG_VALUE: HAL_SPI_Transmit_DMA:pData <- $r1
	@DEBUG_VALUE: HAL_SPI_Transmit_DMA:Size <- $r2
	.loc	7 1346 21               @ ../Drivers/STM32F1xx_HAL_Driver/Src/stm32f1xx_hal_spi.c:1346:21
	movs	r0, #3
	str	r0, [r4, #84]
	movs	r3, #0
	.loc	7 1347 21               @ ../Drivers/STM32F1xx_HAL_Driver/Src/stm32f1xx_hal_spi.c:1347:21
	str	r3, [r4, #88]
	.loc	7 1350 21               @ ../Drivers/STM32F1xx_HAL_Driver/Src/stm32f1xx_hal_spi.c:1350:21
	strh	r2, [r4, #54]
	.loc	7 1348 21               @ ../Drivers/STM32F1xx_HAL_Driver/Src/stm32f1xx_hal_spi.c:1348:21
	str	r1, [r4, #48]
	.loc	7 1349 21               @ ../Drivers/STM32F1xx_HAL_Driver/Src/stm32f1xx_hal_spi.c:1349:21
	strh	r2, [r4, #52]
	.loc	7 1353 21               @ ../Drivers/STM32F1xx_HAL_Driver/Src/stm32f1xx_hal_spi.c:1353:21
	str	r3, [r4, #56]
	.loc	7 1355 21               @ ../Drivers/STM32F1xx_HAL_Driver/Src/stm32f1xx_hal_spi.c:1355:21
	strd	r3, r3, [r4, #64]
	.loc	7 1356 21               @ ../Drivers/STM32F1xx_HAL_Driver/Src/stm32f1xx_hal_spi.c:1356:21
	strh	r3, [r4, #60]
	.loc	7 1357 21               @ ../Drivers/STM32F1xx_HAL_Driver/Src/stm32f1xx_hal_spi.c:1357:21
	strh	r3, [r4, #62]
.Ltmp403:
	.loc	7 1360 17               @ ../Drivers/STM32F1xx_HAL_Driver/Src/stm32f1xx_hal_spi.c:1360:17
	ldr	r0, [r4, #8]
.Ltmp404:
	.loc	7 1360 6 is_stmt 0      @ ../Drivers/STM32F1xx_HAL_Driver/Src/stm32f1xx_hal_spi.c:1360:6
	cmp.w	r0, #32768
	bne	.LBB20_4
.Ltmp405:
@ %bb.3:
	@DEBUG_VALUE: HAL_SPI_Transmit_DMA:Size <- $r2
	@DEBUG_VALUE: HAL_SPI_Transmit_DMA:pData <- $r1
	.loc	7 1362 5 is_stmt 1      @ ../Drivers/STM32F1xx_HAL_Driver/Src/stm32f1xx_hal_spi.c:1362:5
	ldr	r0, [r4]
	ldr	r1, [r0]
.Ltmp406:
	orr	r1, r1, #16384
	str	r1, [r0]
.Ltmp407:
.LBB20_4:
	@DEBUG_VALUE: HAL_SPI_Transmit_DMA:Size <- $r2
	.loc	7 1374 9                @ ../Drivers/STM32F1xx_HAL_Driver/Src/stm32f1xx_hal_spi.c:1374:9
	ldr	r0, [r4, #72]
	.loc	7 1377 34               @ ../Drivers/STM32F1xx_HAL_Driver/Src/stm32f1xx_hal_spi.c:1377:34
	movw	r1, :lower16:SPI_DMATransmitCplt
	movt	r1, :upper16:SPI_DMATransmitCplt
	.loc	7 1374 38               @ ../Drivers/STM32F1xx_HAL_Driver/Src/stm32f1xx_hal_spi.c:1374:38
	movw	r2, :lower16:SPI_DMAHalfTransmitCplt
.Ltmp408:
	movt	r2, :upper16:SPI_DMAHalfTransmitCplt
	.loc	7 1380 35               @ ../Drivers/STM32F1xx_HAL_Driver/Src/stm32f1xx_hal_spi.c:1380:35
	movw	r12, :lower16:SPI_DMAError
	movt	r12, :upper16:SPI_DMAError
	.loc	7 1377 34               @ ../Drivers/STM32F1xx_HAL_Driver/Src/stm32f1xx_hal_spi.c:1377:34
	add.w	lr, r0, #44
	stm.w	lr, {r1, r2, r12}
	.loc	7 1383 35               @ ../Drivers/STM32F1xx_HAL_Driver/Src/stm32f1xx_hal_spi.c:1383:35
	str	r3, [r0, #56]
	.loc	7 1386 93               @ ../Drivers/STM32F1xx_HAL_Driver/Src/stm32f1xx_hal_spi.c:1386:93
	ldrh	r3, [r4, #54]
	.loc	7 1386 79 is_stmt 0     @ ../Drivers/STM32F1xx_HAL_Driver/Src/stm32f1xx_hal_spi.c:1386:79
	ldr	r2, [r4]
	.loc	7 1386 50               @ ../Drivers/STM32F1xx_HAL_Driver/Src/stm32f1xx_hal_spi.c:1386:50
	ldr	r1, [r4, #48]
	.loc	7 1386 89               @ ../Drivers/STM32F1xx_HAL_Driver/Src/stm32f1xx_hal_spi.c:1386:89
	adds	r2, #12
	.loc	7 1386 3                @ ../Drivers/STM32F1xx_HAL_Driver/Src/stm32f1xx_hal_spi.c:1386:3
	bl	HAL_DMA_Start_IT
.Ltmp409:
	.loc	7 1389 13 is_stmt 1     @ ../Drivers/STM32F1xx_HAL_Driver/Src/stm32f1xx_hal_spi.c:1389:13
	ldr	r0, [r4]
	.loc	7 1389 23 is_stmt 0     @ ../Drivers/STM32F1xx_HAL_Driver/Src/stm32f1xx_hal_spi.c:1389:23
	ldr	r1, [r0]
.Ltmp410:
	.loc	7 1389 6                @ ../Drivers/STM32F1xx_HAL_Driver/Src/stm32f1xx_hal_spi.c:1389:6
	tst.w	r1, #64
.Ltmp411:
	.loc	7 1392 5 is_stmt 1      @ ../Drivers/STM32F1xx_HAL_Driver/Src/stm32f1xx_hal_spi.c:1392:5
	ittt	eq
	ldreq	r1, [r0]
	orreq	r1, r1, #64
	streq	r1, [r0]
.Ltmp412:
	.loc	7 1396 3                @ ../Drivers/STM32F1xx_HAL_Driver/Src/stm32f1xx_hal_spi.c:1396:3
	ldr	r1, [r0, #4]
	orr	r1, r1, #32
	str	r1, [r0, #4]
	.loc	7 1399 3                @ ../Drivers/STM32F1xx_HAL_Driver/Src/stm32f1xx_hal_spi.c:1399:3
	ldr	r1, [r0, #4]
	orr	r1, r1, #2
	str	r1, [r0, #4]
	movs	r0, #0
	b	.LBB20_6
.LBB20_5:
.Ltmp413:
	@DEBUG_VALUE: HAL_SPI_Transmit_DMA:Size <- $r2
	@DEBUG_VALUE: HAL_SPI_Transmit_DMA:pData <- $r1
	.loc	7 0 3 is_stmt 0         @ ../Drivers/STM32F1xx_HAL_Driver/Src/stm32f1xx_hal_spi.c:0:3
	movs	r0, #2
.Ltmp414:
.LBB20_6:
	.loc	7 1403 3 is_stmt 1      @ ../Drivers/STM32F1xx_HAL_Driver/Src/stm32f1xx_hal_spi.c:1403:3
	movs	r1, #0
	str	r1, [r4, #80]
.Ltmp415:
	.loc	7 1405 1                @ ../Drivers/STM32F1xx_HAL_Driver/Src/stm32f1xx_hal_spi.c:1405:1
	pop	{r4, pc}
.Ltmp416:
.Lfunc_end20:
	.size	HAL_SPI_Transmit_DMA, .Lfunc_end20-HAL_SPI_Transmit_DMA
	.cfi_endproc
	.cantunwind
	.fnend
                                        @ -- End function
	.section	.text.SPI_DMAHalfTransmitCplt,"ax",%progbits
	.p2align	2               @ -- Begin function SPI_DMAHalfTransmitCplt
	.type	SPI_DMAHalfTransmitCplt,%function
	.code	16                      @ @SPI_DMAHalfTransmitCplt
	.thumb_func
SPI_DMAHalfTransmitCplt:
.Lfunc_begin21:
	.loc	7 2411 0                @ ../Drivers/STM32F1xx_HAL_Driver/Src/stm32f1xx_hal_spi.c:2411:0
	.fnstart
	.cfi_startproc
@ %bb.0:
	@DEBUG_VALUE: SPI_DMAHalfTransmitCplt:hdma <- $r0
	@DEBUG_VALUE: SPI_DMAHalfTransmitCplt:hdma <- $r0
	.loc	7 2412 80 prologue_end  @ ../Drivers/STM32F1xx_HAL_Driver/Src/stm32f1xx_hal_spi.c:2412:80
	ldr	r0, [r0, #40]
.Ltmp417:
	@DEBUG_VALUE: SPI_DMAHalfTransmitCplt:hspi <- $r0
	.loc	7 2414 3                @ ../Drivers/STM32F1xx_HAL_Driver/Src/stm32f1xx_hal_spi.c:2414:3
	b	HAL_SPI_TxHalfCpltCallback
.Ltmp418:
.Lfunc_end21:
	.size	SPI_DMAHalfTransmitCplt, .Lfunc_end21-SPI_DMAHalfTransmitCplt
	.cfi_endproc
	.cantunwind
	.fnend
                                        @ -- End function
	.section	.text.SPI_DMATransmitCplt,"ax",%progbits
	.p2align	2               @ -- Begin function SPI_DMATransmitCplt
	.type	SPI_DMATransmitCplt,%function
	.code	16                      @ @SPI_DMATransmitCplt
	.thumb_func
SPI_DMATransmitCplt:
.Lfunc_begin22:
	.loc	7 2216 0                @ ../Drivers/STM32F1xx_HAL_Driver/Src/stm32f1xx_hal_spi.c:2216:0
	.fnstart
	.cfi_startproc
@ %bb.0:
	.save	{r4, r5, r7, lr}
	push	{r4, r5, r7, lr}
	.cfi_def_cfa_offset 16
	.cfi_offset lr, -4
	.cfi_offset r7, -8
	.cfi_offset r5, -12
	.cfi_offset r4, -16
	.pad	#8
	sub	sp, #8
	.cfi_def_cfa_offset 24
	@DEBUG_VALUE: SPI_DMATransmitCplt:hdma <- $r0
	mov	r5, r0
.Ltmp419:
	@DEBUG_VALUE: SPI_DMATransmitCplt:hdma <- $r5
	.loc	7 2217 80 prologue_end  @ ../Drivers/STM32F1xx_HAL_Driver/Src/stm32f1xx_hal_spi.c:2217:80
	ldr	r4, [r0, #40]
.Ltmp420:
	@DEBUG_VALUE: SPI_DMATransmitCplt:tickstart <- 0
	@DEBUG_VALUE: SPI_DMATransmitCplt:hspi <- $r4
	.loc	7 2221 15               @ ../Drivers/STM32F1xx_HAL_Driver/Src/stm32f1xx_hal_spi.c:2221:15
	bl	HAL_GetTick
	mov	r2, r0
.Ltmp421:
	@DEBUG_VALUE: SPI_DMATransmitCplt:tickstart <- $r2
	.loc	7 2224 13               @ ../Drivers/STM32F1xx_HAL_Driver/Src/stm32f1xx_hal_spi.c:2224:13
	ldr	r0, [r5]
	.loc	7 2224 23 is_stmt 0     @ ../Drivers/STM32F1xx_HAL_Driver/Src/stm32f1xx_hal_spi.c:2224:23
	ldr	r0, [r0]
.Ltmp422:
	.loc	7 2224 6                @ ../Drivers/STM32F1xx_HAL_Driver/Src/stm32f1xx_hal_spi.c:2224:6
	tst.w	r0, #32
	bne	.LBB22_5
.Ltmp423:
@ %bb.1:
	@DEBUG_VALUE: SPI_DMATransmitCplt:tickstart <- $r2
	@DEBUG_VALUE: SPI_DMATransmitCplt:hspi <- $r4
	@DEBUG_VALUE: SPI_DMATransmitCplt:hdma <- $r5
	.loc	7 2227 5 is_stmt 1      @ ../Drivers/STM32F1xx_HAL_Driver/Src/stm32f1xx_hal_spi.c:2227:5
	ldr	r0, [r4]
	ldr	r1, [r0, #4]
	bic	r1, r1, #2
	str	r1, [r0, #4]
.Ltmp424:
	.loc	7 2230 8                @ ../Drivers/STM32F1xx_HAL_Driver/Src/stm32f1xx_hal_spi.c:2230:8
	mov	r0, r4
	movs	r1, #100
	bl	SPI_CheckFlag_BSY
.Ltmp425:
	.loc	7 2230 8 is_stmt 0      @ ../Drivers/STM32F1xx_HAL_Driver/Src/stm32f1xx_hal_spi.c:2230:8
	cmp	r0, #0
.Ltmp426:
	.loc	7 2232 7 is_stmt 1      @ ../Drivers/STM32F1xx_HAL_Driver/Src/stm32f1xx_hal_spi.c:2232:7
	ittt	ne
	ldrne	r0, [r4, #88]
	orrne	r0, r0, #32
	strne	r0, [r4, #88]
.Ltmp427:
	.loc	7 2236 19               @ ../Drivers/STM32F1xx_HAL_Driver/Src/stm32f1xx_hal_spi.c:2236:19
	ldr	r0, [r4, #8]
.Ltmp428:
	.loc	7 2236 8 is_stmt 0      @ ../Drivers/STM32F1xx_HAL_Driver/Src/stm32f1xx_hal_spi.c:2236:8
	cbnz	r0, .LBB22_3
.Ltmp429:
@ %bb.2:
	@DEBUG_VALUE: SPI_DMATransmitCplt:hspi <- $r4
	@DEBUG_VALUE: SPI_DMATransmitCplt:hdma <- $r5
	.loc	7 2238 7 is_stmt 1      @ ../Drivers/STM32F1xx_HAL_Driver/Src/stm32f1xx_hal_spi.c:2238:7
	movs	r0, #0
.Ltmp430:
	@DEBUG_VALUE: tmpreg_ovr <- 0
	str	r0, [sp, #4]
	ldr	r0, [r4]
	ldr	r0, [r0, #12]
.Ltmp431:
	@DEBUG_VALUE: tmpreg_ovr <- $r0
	str	r0, [sp, #4]
	ldr	r0, [r4]
.Ltmp432:
	ldr	r0, [r0, #8]
.Ltmp433:
	@DEBUG_VALUE: tmpreg_ovr <- $r0
	str	r0, [sp, #4]
	ldr	r0, [sp, #4]
.Ltmp434:
	@DEBUG_VALUE: tmpreg_ovr <- $r0
.LBB22_3:
	@DEBUG_VALUE: SPI_DMATransmitCplt:hspi <- $r4
	@DEBUG_VALUE: SPI_DMATransmitCplt:hdma <- $r5
	.loc	7 0 7 is_stmt 0         @ ../Drivers/STM32F1xx_HAL_Driver/Src/stm32f1xx_hal_spi.c:0:7
	movs	r0, #0
	.loc	7 2241 23 is_stmt 1     @ ../Drivers/STM32F1xx_HAL_Driver/Src/stm32f1xx_hal_spi.c:2241:23
	strh	r0, [r4, #54]
	.loc	7 2242 17               @ ../Drivers/STM32F1xx_HAL_Driver/Src/stm32f1xx_hal_spi.c:2242:17
	movs	r0, #1
	str	r0, [r4, #84]
.Ltmp435:
	.loc	7 2244 14               @ ../Drivers/STM32F1xx_HAL_Driver/Src/stm32f1xx_hal_spi.c:2244:14
	ldr	r0, [r4, #88]
.Ltmp436:
	.loc	7 2244 8 is_stmt 0      @ ../Drivers/STM32F1xx_HAL_Driver/Src/stm32f1xx_hal_spi.c:2244:8
	cbz	r0, .LBB22_5
.Ltmp437:
@ %bb.4:
	@DEBUG_VALUE: SPI_DMATransmitCplt:hspi <- $r4
	@DEBUG_VALUE: SPI_DMATransmitCplt:hdma <- $r5
	.loc	7 2246 7 is_stmt 1      @ ../Drivers/STM32F1xx_HAL_Driver/Src/stm32f1xx_hal_spi.c:2246:7
	mov	r0, r4
	add	sp, #8
	pop.w	{r4, r5, r7, lr}
.Ltmp438:
	b	HAL_SPI_ErrorCallback
.Ltmp439:
.LBB22_5:
	@DEBUG_VALUE: SPI_DMATransmitCplt:hspi <- $r4
	@DEBUG_VALUE: SPI_DMATransmitCplt:hdma <- $r5
	.loc	7 2250 3                @ ../Drivers/STM32F1xx_HAL_Driver/Src/stm32f1xx_hal_spi.c:2250:3
	mov	r0, r4
	add	sp, #8
	pop.w	{r4, r5, r7, lr}
.Ltmp440:
	b	HAL_SPI_TxCpltCallback
.Ltmp441:
.Lfunc_end22:
	.size	SPI_DMATransmitCplt, .Lfunc_end22-SPI_DMATransmitCplt
	.cfi_endproc
	.cantunwind
	.fnend
                                        @ -- End function
	.section	.text.SPI_DMAError,"ax",%progbits
	.p2align	2               @ -- Begin function SPI_DMAError
	.type	SPI_DMAError,%function
	.code	16                      @ @SPI_DMAError
	.thumb_func
SPI_DMAError:
.Lfunc_begin23:
	.loc	7 2450 0                @ ../Drivers/STM32F1xx_HAL_Driver/Src/stm32f1xx_hal_spi.c:2450:0
	.fnstart
	.cfi_startproc
@ %bb.0:
	@DEBUG_VALUE: SPI_DMAError:hdma <- $r0
	@DEBUG_VALUE: SPI_DMAError:hdma <- $r0
	.loc	7 2451 79 prologue_end  @ ../Drivers/STM32F1xx_HAL_Driver/Src/stm32f1xx_hal_spi.c:2451:79
	ldr	r0, [r0, #40]
.Ltmp442:
	@DEBUG_VALUE: SPI_DMAError:hspi <- $r0
	.loc	7 2454 3                @ ../Drivers/STM32F1xx_HAL_Driver/Src/stm32f1xx_hal_spi.c:2454:3
	ldr	r1, [r0]
	ldr	r2, [r1, #4]
	bic	r2, r2, #3
	str	r2, [r1, #4]
	.loc	7 2456 3                @ ../Drivers/STM32F1xx_HAL_Driver/Src/stm32f1xx_hal_spi.c:2456:3
	ldr	r1, [r0, #88]
	orr	r1, r1, #16
	str	r1, [r0, #88]
	.loc	7 2457 15               @ ../Drivers/STM32F1xx_HAL_Driver/Src/stm32f1xx_hal_spi.c:2457:15
	movs	r1, #1
	str	r1, [r0, #84]
	.loc	7 2458 3                @ ../Drivers/STM32F1xx_HAL_Driver/Src/stm32f1xx_hal_spi.c:2458:3
	b	HAL_SPI_ErrorCallback
.Ltmp443:
.Lfunc_end23:
	.size	SPI_DMAError, .Lfunc_end23-SPI_DMAError
	.cfi_endproc
	.cantunwind
	.fnend
                                        @ -- End function
	.section	.text.HAL_SPI_Receive_DMA,"ax",%progbits
	.hidden	HAL_SPI_Receive_DMA     @ -- Begin function HAL_SPI_Receive_DMA
	.globl	HAL_SPI_Receive_DMA
	.p2align	2
	.type	HAL_SPI_Receive_DMA,%function
	.code	16                      @ @HAL_SPI_Receive_DMA
	.thumb_func
HAL_SPI_Receive_DMA:
.Lfunc_begin24:
	.loc	7 1417 0                @ ../Drivers/STM32F1xx_HAL_Driver/Src/stm32f1xx_hal_spi.c:1417:0
	.fnstart
	.cfi_startproc
@ %bb.0:
	.save	{r4, lr}
	push	{r4, lr}
	.cfi_def_cfa_offset 8
	.cfi_offset lr, -4
	.cfi_offset r4, -8
	@DEBUG_VALUE: HAL_SPI_Receive_DMA:hspi <- $r0
	@DEBUG_VALUE: HAL_SPI_Receive_DMA:pData <- $r1
	@DEBUG_VALUE: HAL_SPI_Receive_DMA:Size <- $r2
	mov	r3, r2
	mov	r4, r0
.Ltmp444:
	@DEBUG_VALUE: HAL_SPI_Receive_DMA:errorcode <- 0
	@DEBUG_VALUE: HAL_SPI_Receive_DMA:Size <- $r3
	@DEBUG_VALUE: HAL_SPI_Receive_DMA:pData <- $r1
	@DEBUG_VALUE: HAL_SPI_Receive_DMA:hspi <- $r4
	.loc	7 1420 18 prologue_end  @ ../Drivers/STM32F1xx_HAL_Driver/Src/stm32f1xx_hal_spi.c:1420:18
	ldr	r2, [r0, #8]
	.loc	7 1420 52 is_stmt 0     @ ../Drivers/STM32F1xx_HAL_Driver/Src/stm32f1xx_hal_spi.c:1420:52
	cbnz	r2, .LBB24_3
.Ltmp445:
@ %bb.1:
	@DEBUG_VALUE: HAL_SPI_Receive_DMA:hspi <- $r4
	@DEBUG_VALUE: HAL_SPI_Receive_DMA:Size <- $r3
	@DEBUG_VALUE: HAL_SPI_Receive_DMA:pData <- $r1
	.loc	7 1420 66               @ ../Drivers/STM32F1xx_HAL_Driver/Src/stm32f1xx_hal_spi.c:1420:66
	ldr	r0, [r4, #4]
.Ltmp446:
	.loc	7 1420 6                @ ../Drivers/STM32F1xx_HAL_Driver/Src/stm32f1xx_hal_spi.c:1420:6
	cmp.w	r0, #260
	bne	.LBB24_3
.Ltmp447:
@ %bb.2:
	@DEBUG_VALUE: HAL_SPI_Receive_DMA:hspi <- $r4
	@DEBUG_VALUE: HAL_SPI_Receive_DMA:Size <- $r3
	@DEBUG_VALUE: HAL_SPI_Receive_DMA:pData <- $r1
	.loc	7 1422 18 is_stmt 1     @ ../Drivers/STM32F1xx_HAL_Driver/Src/stm32f1xx_hal_spi.c:1422:18
	movs	r0, #4
	str	r0, [r4, #84]
	.loc	7 1424 13               @ ../Drivers/STM32F1xx_HAL_Driver/Src/stm32f1xx_hal_spi.c:1424:13
	mov	r0, r4
	mov	r2, r1
	pop.w	{r4, lr}
.Ltmp448:
	b	HAL_SPI_TransmitReceive_DMA
.Ltmp449:
.LBB24_3:
	@DEBUG_VALUE: HAL_SPI_Receive_DMA:hspi <- $r4
	@DEBUG_VALUE: HAL_SPI_Receive_DMA:Size <- $r3
	@DEBUG_VALUE: HAL_SPI_Receive_DMA:pData <- $r1
	.loc	7 1428 3                @ ../Drivers/STM32F1xx_HAL_Driver/Src/stm32f1xx_hal_spi.c:1428:3
	ldr	r0, [r4, #80]
.Ltmp450:
	.loc	7 1428 3 is_stmt 0      @ ../Drivers/STM32F1xx_HAL_Driver/Src/stm32f1xx_hal_spi.c:1428:3
	cmp	r0, #1
	itt	eq
	moveq	r0, #2
.Ltmp451:
	.loc	7 1501 1 is_stmt 1      @ ../Drivers/STM32F1xx_HAL_Driver/Src/stm32f1xx_hal_spi.c:1501:1
	popeq	{r4, pc}
.Ltmp452:
	.loc	7 0 1 is_stmt 0         @ ../Drivers/STM32F1xx_HAL_Driver/Src/stm32f1xx_hal_spi.c:0:1
	movs	r0, #1
.Ltmp453:
	.loc	7 1428 3 is_stmt 1      @ ../Drivers/STM32F1xx_HAL_Driver/Src/stm32f1xx_hal_spi.c:1428:3
	str	r0, [r4, #80]
.Ltmp454:
	.loc	7 1430 12               @ ../Drivers/STM32F1xx_HAL_Driver/Src/stm32f1xx_hal_spi.c:1430:12
	ldr	r0, [r4, #84]
.Ltmp455:
	.loc	7 1430 6 is_stmt 0      @ ../Drivers/STM32F1xx_HAL_Driver/Src/stm32f1xx_hal_spi.c:1430:6
	cmp	r0, #1
	bne	.LBB24_8
.Ltmp456:
@ %bb.4:
	@DEBUG_VALUE: HAL_SPI_Receive_DMA:Size <- $r3
	@DEBUG_VALUE: HAL_SPI_Receive_DMA:pData <- $r1
	.loc	7 0 6                   @ ../Drivers/STM32F1xx_HAL_Driver/Src/stm32f1xx_hal_spi.c:0:6
	movs	r0, #1
.Ltmp457:
	.loc	7 1436 22 is_stmt 1     @ ../Drivers/STM32F1xx_HAL_Driver/Src/stm32f1xx_hal_spi.c:1436:22
	cmp	r1, #0
	it	ne
	cmpne	r3, #0
	beq	.LBB24_9
.Ltmp458:
@ %bb.5:
	@DEBUG_VALUE: HAL_SPI_Receive_DMA:Size <- $r3
	@DEBUG_VALUE: HAL_SPI_Receive_DMA:pData <- $r1
	.loc	7 1443 21               @ ../Drivers/STM32F1xx_HAL_Driver/Src/stm32f1xx_hal_spi.c:1443:21
	movs	r0, #4
	str	r0, [r4, #84]
	mov.w	r12, #0
	.loc	7 1444 21               @ ../Drivers/STM32F1xx_HAL_Driver/Src/stm32f1xx_hal_spi.c:1444:21
	str.w	r12, [r4, #88]
	.loc	7 1447 21               @ ../Drivers/STM32F1xx_HAL_Driver/Src/stm32f1xx_hal_spi.c:1447:21
	strh	r3, [r4, #62]
	.loc	7 1445 21               @ ../Drivers/STM32F1xx_HAL_Driver/Src/stm32f1xx_hal_spi.c:1445:21
	str	r1, [r4, #56]
	.loc	7 1446 21               @ ../Drivers/STM32F1xx_HAL_Driver/Src/stm32f1xx_hal_spi.c:1446:21
	strh	r3, [r4, #60]
	.loc	7 1450 21               @ ../Drivers/STM32F1xx_HAL_Driver/Src/stm32f1xx_hal_spi.c:1450:21
	strd	r12, r12, [r4, #64]
	.loc	7 1452 21               @ ../Drivers/STM32F1xx_HAL_Driver/Src/stm32f1xx_hal_spi.c:1452:21
	strh.w	r12, [r4, #52]
	.loc	7 1453 21               @ ../Drivers/STM32F1xx_HAL_Driver/Src/stm32f1xx_hal_spi.c:1453:21
	strh.w	r12, [r4, #54]
	.loc	7 1456 6                @ ../Drivers/STM32F1xx_HAL_Driver/Src/stm32f1xx_hal_spi.c:1456:6
	cmp.w	r2, #32768
	bne	.LBB24_7
.Ltmp459:
@ %bb.6:
	@DEBUG_VALUE: HAL_SPI_Receive_DMA:Size <- $r3
	@DEBUG_VALUE: HAL_SPI_Receive_DMA:pData <- $r1
	.loc	7 1458 5                @ ../Drivers/STM32F1xx_HAL_Driver/Src/stm32f1xx_hal_spi.c:1458:5
	ldr	r0, [r4]
	ldr	r1, [r0]
.Ltmp460:
	bic	r1, r1, #16384
	str	r1, [r0]
.Ltmp461:
.LBB24_7:
	@DEBUG_VALUE: HAL_SPI_Receive_DMA:Size <- $r3
	.loc	7 1470 9                @ ../Drivers/STM32F1xx_HAL_Driver/Src/stm32f1xx_hal_spi.c:1470:9
	ldr	r0, [r4, #76]
	.loc	7 1473 34               @ ../Drivers/STM32F1xx_HAL_Driver/Src/stm32f1xx_hal_spi.c:1473:34
	movw	r1, :lower16:SPI_DMAReceiveCplt
	movt	r1, :upper16:SPI_DMAReceiveCplt
	.loc	7 1470 38               @ ../Drivers/STM32F1xx_HAL_Driver/Src/stm32f1xx_hal_spi.c:1470:38
	movw	r2, :lower16:SPI_DMAHalfReceiveCplt
	movt	r2, :upper16:SPI_DMAHalfReceiveCplt
	.loc	7 1476 35               @ ../Drivers/STM32F1xx_HAL_Driver/Src/stm32f1xx_hal_spi.c:1476:35
	movw	r3, :lower16:SPI_DMAError
.Ltmp462:
	movt	r3, :upper16:SPI_DMAError
	.loc	7 1473 34               @ ../Drivers/STM32F1xx_HAL_Driver/Src/stm32f1xx_hal_spi.c:1473:34
	add.w	lr, r0, #44
	stm.w	lr, {r1, r2, r3, r12}
	.loc	7 1482 93               @ ../Drivers/STM32F1xx_HAL_Driver/Src/stm32f1xx_hal_spi.c:1482:93
	ldrh	r3, [r4, #62]
	.loc	7 1482 51 is_stmt 0     @ ../Drivers/STM32F1xx_HAL_Driver/Src/stm32f1xx_hal_spi.c:1482:51
	ldr	r1, [r4]
	.loc	7 1482 81               @ ../Drivers/STM32F1xx_HAL_Driver/Src/stm32f1xx_hal_spi.c:1482:81
	ldr	r2, [r4, #56]
	.loc	7 1482 61               @ ../Drivers/STM32F1xx_HAL_Driver/Src/stm32f1xx_hal_spi.c:1482:61
	adds	r1, #12
	.loc	7 1482 3                @ ../Drivers/STM32F1xx_HAL_Driver/Src/stm32f1xx_hal_spi.c:1482:3
	bl	HAL_DMA_Start_IT
.Ltmp463:
	.loc	7 1485 13 is_stmt 1     @ ../Drivers/STM32F1xx_HAL_Driver/Src/stm32f1xx_hal_spi.c:1485:13
	ldr	r0, [r4]
	.loc	7 1485 23 is_stmt 0     @ ../Drivers/STM32F1xx_HAL_Driver/Src/stm32f1xx_hal_spi.c:1485:23
	ldr	r1, [r0]
.Ltmp464:
	.loc	7 1485 6                @ ../Drivers/STM32F1xx_HAL_Driver/Src/stm32f1xx_hal_spi.c:1485:6
	tst.w	r1, #64
.Ltmp465:
	.loc	7 1488 5 is_stmt 1      @ ../Drivers/STM32F1xx_HAL_Driver/Src/stm32f1xx_hal_spi.c:1488:5
	ittt	eq
	ldreq	r1, [r0]
	orreq	r1, r1, #64
	streq	r1, [r0]
.Ltmp466:
	.loc	7 1492 3                @ ../Drivers/STM32F1xx_HAL_Driver/Src/stm32f1xx_hal_spi.c:1492:3
	ldr	r1, [r0, #4]
	orr	r1, r1, #32
	str	r1, [r0, #4]
	.loc	7 1495 3                @ ../Drivers/STM32F1xx_HAL_Driver/Src/stm32f1xx_hal_spi.c:1495:3
	ldr	r1, [r0, #4]
	orr	r1, r1, #1
	str	r1, [r0, #4]
	movs	r0, #0
	b	.LBB24_9
.LBB24_8:
.Ltmp467:
	@DEBUG_VALUE: HAL_SPI_Receive_DMA:Size <- $r3
	@DEBUG_VALUE: HAL_SPI_Receive_DMA:pData <- $r1
	.loc	7 0 3 is_stmt 0         @ ../Drivers/STM32F1xx_HAL_Driver/Src/stm32f1xx_hal_spi.c:0:3
	movs	r0, #2
.Ltmp468:
.LBB24_9:
	.loc	7 1499 3 is_stmt 1      @ ../Drivers/STM32F1xx_HAL_Driver/Src/stm32f1xx_hal_spi.c:1499:3
	movs	r1, #0
	str	r1, [r4, #80]
.Ltmp469:
	.loc	7 1501 1                @ ../Drivers/STM32F1xx_HAL_Driver/Src/stm32f1xx_hal_spi.c:1501:1
	pop	{r4, pc}
.Ltmp470:
.Lfunc_end24:
	.size	HAL_SPI_Receive_DMA, .Lfunc_end24-HAL_SPI_Receive_DMA
	.cfi_endproc
	.cantunwind
	.fnend
                                        @ -- End function
	.section	.text.HAL_SPI_TransmitReceive_DMA,"ax",%progbits
	.hidden	HAL_SPI_TransmitReceive_DMA @ -- Begin function HAL_SPI_TransmitReceive_DMA
	.globl	HAL_SPI_TransmitReceive_DMA
	.p2align	2
	.type	HAL_SPI_TransmitReceive_DMA,%function
	.code	16                      @ @HAL_SPI_TransmitReceive_DMA
	.thumb_func
HAL_SPI_TransmitReceive_DMA:
.Lfunc_begin25:
	.loc	7 1514 0                @ ../Drivers/STM32F1xx_HAL_Driver/Src/stm32f1xx_hal_spi.c:1514:0
	.fnstart
	.cfi_startproc
@ %bb.0:
	.save	{r4, r5, r7, lr}
	push	{r4, r5, r7, lr}
	.cfi_def_cfa_offset 16
	.cfi_offset lr, -4
	.cfi_offset r7, -8
	.cfi_offset r5, -12
	.cfi_offset r4, -16
	@DEBUG_VALUE: HAL_SPI_TransmitReceive_DMA:hspi <- $r0
	@DEBUG_VALUE: HAL_SPI_TransmitReceive_DMA:pTxData <- $r1
	@DEBUG_VALUE: HAL_SPI_TransmitReceive_DMA:pRxData <- $r2
	@DEBUG_VALUE: HAL_SPI_TransmitReceive_DMA:Size <- $r3
	mov	r4, r0
.Ltmp471:
	@DEBUG_VALUE: HAL_SPI_TransmitReceive_DMA:errorcode <- 0
	@DEBUG_VALUE: HAL_SPI_TransmitReceive_DMA:tmp1 <- 0
	@DEBUG_VALUE: HAL_SPI_TransmitReceive_DMA:tmp <- 0
	@DEBUG_VALUE: HAL_SPI_TransmitReceive_DMA:Size <- $r3
	@DEBUG_VALUE: HAL_SPI_TransmitReceive_DMA:pRxData <- $r2
	@DEBUG_VALUE: HAL_SPI_TransmitReceive_DMA:pTxData <- $r1
	@DEBUG_VALUE: HAL_SPI_TransmitReceive_DMA:hspi <- $r4
	.loc	7 1522 3 prologue_end   @ ../Drivers/STM32F1xx_HAL_Driver/Src/stm32f1xx_hal_spi.c:1522:3
	ldr	r0, [r0, #80]
.Ltmp472:
	.loc	7 1522 3 is_stmt 0      @ ../Drivers/STM32F1xx_HAL_Driver/Src/stm32f1xx_hal_spi.c:1522:3
	cmp	r0, #1
	itt	eq
	moveq	r0, #2
.Ltmp473:
	.loc	7 1618 1 is_stmt 1      @ ../Drivers/STM32F1xx_HAL_Driver/Src/stm32f1xx_hal_spi.c:1618:1
	popeq	{r4, r5, r7, pc}
.Ltmp474:
	.loc	7 1522 3                @ ../Drivers/STM32F1xx_HAL_Driver/Src/stm32f1xx_hal_spi.c:1522:3
	movs	r0, #1
	str	r0, [r4, #80]
.Ltmp475:
	.loc	7 1524 16               @ ../Drivers/STM32F1xx_HAL_Driver/Src/stm32f1xx_hal_spi.c:1524:16
	ldr	r5, [r4, #84]
.Ltmp476:
	@DEBUG_VALUE: HAL_SPI_TransmitReceive_DMA:tmp <- $r5
	.loc	7 1526 37               @ ../Drivers/STM32F1xx_HAL_Driver/Src/stm32f1xx_hal_spi.c:1526:37
	cmp	r5, #1
	bne	.LBB25_4
.Ltmp477:
.LBB25_1:
	@DEBUG_VALUE: HAL_SPI_TransmitReceive_DMA:Size <- $r3
	@DEBUG_VALUE: HAL_SPI_TransmitReceive_DMA:pRxData <- $r2
	@DEBUG_VALUE: HAL_SPI_TransmitReceive_DMA:pTxData <- $r1
	.loc	7 0 37 is_stmt 0        @ ../Drivers/STM32F1xx_HAL_Driver/Src/stm32f1xx_hal_spi.c:0:37
	movs	r0, #1
.Ltmp478:
	.loc	7 1533 25 is_stmt 1     @ ../Drivers/STM32F1xx_HAL_Driver/Src/stm32f1xx_hal_spi.c:1533:25
	cmp	r1, #0
	it	ne
	cmpne	r2, #0
	beq	.LBB25_8
.Ltmp479:
@ %bb.2:
	@DEBUG_VALUE: HAL_SPI_TransmitReceive_DMA:Size <- $r3
	@DEBUG_VALUE: HAL_SPI_TransmitReceive_DMA:pRxData <- $r2
	@DEBUG_VALUE: HAL_SPI_TransmitReceive_DMA:pTxData <- $r1
	cmp	r3, #0
	beq	.LBB25_8
.Ltmp480:
@ %bb.3:
	@DEBUG_VALUE: HAL_SPI_TransmitReceive_DMA:Size <- $r3
	@DEBUG_VALUE: HAL_SPI_TransmitReceive_DMA:pRxData <- $r2
	@DEBUG_VALUE: HAL_SPI_TransmitReceive_DMA:pTxData <- $r1
	@DEBUG_VALUE: HAL_SPI_TransmitReceive_DMA:Size <- $r3
	.loc	7 1540 12               @ ../Drivers/STM32F1xx_HAL_Driver/Src/stm32f1xx_hal_spi.c:1540:12
	ldr	r0, [r4, #84]
.Ltmp481:
	.loc	7 1540 6 is_stmt 0      @ ../Drivers/STM32F1xx_HAL_Driver/Src/stm32f1xx_hal_spi.c:1540:6
	cmp	r0, #1
.Ltmp482:
	.loc	7 1542 17 is_stmt 1     @ ../Drivers/STM32F1xx_HAL_Driver/Src/stm32f1xx_hal_spi.c:1542:17
	itt	eq
	moveq	r0, #5
	streq	r0, [r4, #84]
	movs	r5, #0
.Ltmp483:
	.loc	7 1546 21               @ ../Drivers/STM32F1xx_HAL_Driver/Src/stm32f1xx_hal_spi.c:1546:21
	str	r5, [r4, #88]
	.loc	7 1549 21               @ ../Drivers/STM32F1xx_HAL_Driver/Src/stm32f1xx_hal_spi.c:1549:21
	strh	r3, [r4, #54]
	.loc	7 1552 21               @ ../Drivers/STM32F1xx_HAL_Driver/Src/stm32f1xx_hal_spi.c:1552:21
	strh	r3, [r4, #62]
	.loc	7 1547 21               @ ../Drivers/STM32F1xx_HAL_Driver/Src/stm32f1xx_hal_spi.c:1547:21
	str	r1, [r4, #48]
	.loc	7 1548 21               @ ../Drivers/STM32F1xx_HAL_Driver/Src/stm32f1xx_hal_spi.c:1548:21
	strh	r3, [r4, #52]
	.loc	7 1550 21               @ ../Drivers/STM32F1xx_HAL_Driver/Src/stm32f1xx_hal_spi.c:1550:21
	str	r2, [r4, #56]
	.loc	7 1551 21               @ ../Drivers/STM32F1xx_HAL_Driver/Src/stm32f1xx_hal_spi.c:1551:21
	strh	r3, [r4, #60]
	.loc	7 1555 21               @ ../Drivers/STM32F1xx_HAL_Driver/Src/stm32f1xx_hal_spi.c:1555:21
	strd	r5, r5, [r4, #64]
.Ltmp484:
	.loc	7 1567 12               @ ../Drivers/STM32F1xx_HAL_Driver/Src/stm32f1xx_hal_spi.c:1567:12
	ldr	r1, [r4, #84]
.Ltmp485:
	.loc	7 0 12 is_stmt 0        @ ../Drivers/STM32F1xx_HAL_Driver/Src/stm32f1xx_hal_spi.c:0:12
	ldr	r0, [r4, #76]
.Ltmp486:
	.loc	7 1581 35 is_stmt 1     @ ../Drivers/STM32F1xx_HAL_Driver/Src/stm32f1xx_hal_spi.c:1581:35
	movw	r12, :lower16:SPI_DMAError
	movt	r12, :upper16:SPI_DMAError
	.loc	7 1567 6                @ ../Drivers/STM32F1xx_HAL_Driver/Src/stm32f1xx_hal_spi.c:1567:6
	movw	r3, :lower16:SPI_DMAReceiveCplt
.Ltmp487:
	movt	r3, :upper16:SPI_DMAReceiveCplt
	movw	r2, :lower16:SPI_DMATransmitReceiveCplt
.Ltmp488:
	movt	r2, :upper16:SPI_DMATransmitReceiveCplt
	cmp	r1, #4
	it	eq
	moveq	r2, r3
	movw	r1, :lower16:SPI_DMAHalfReceiveCplt
	movt	r1, :upper16:SPI_DMAHalfReceiveCplt
	movw	r3, :lower16:SPI_DMAHalfTransmitReceiveCplt
	movt	r3, :upper16:SPI_DMAHalfTransmitReceiveCplt
	it	eq
	moveq	r3, r1
	add.w	r1, r0, #44
	stm.w	r1, {r2, r3, r12}
	.loc	7 1584 35               @ ../Drivers/STM32F1xx_HAL_Driver/Src/stm32f1xx_hal_spi.c:1584:35
	str	r5, [r0, #56]
	.loc	7 1587 93               @ ../Drivers/STM32F1xx_HAL_Driver/Src/stm32f1xx_hal_spi.c:1587:93
	ldrh	r3, [r4, #62]
	.loc	7 1587 51 is_stmt 0     @ ../Drivers/STM32F1xx_HAL_Driver/Src/stm32f1xx_hal_spi.c:1587:51
	ldr	r1, [r4]
	.loc	7 1587 81               @ ../Drivers/STM32F1xx_HAL_Driver/Src/stm32f1xx_hal_spi.c:1587:81
	ldr	r2, [r4, #56]
	.loc	7 1587 61               @ ../Drivers/STM32F1xx_HAL_Driver/Src/stm32f1xx_hal_spi.c:1587:61
	adds	r1, #12
	.loc	7 1587 3                @ ../Drivers/STM32F1xx_HAL_Driver/Src/stm32f1xx_hal_spi.c:1587:3
	bl	HAL_DMA_Start_IT
	.loc	7 1590 3 is_stmt 1      @ ../Drivers/STM32F1xx_HAL_Driver/Src/stm32f1xx_hal_spi.c:1590:3
	ldr	r2, [r4]
	ldr	r0, [r2, #4]
	orr	r0, r0, #1
	str	r0, [r2, #4]
	.loc	7 1594 9                @ ../Drivers/STM32F1xx_HAL_Driver/Src/stm32f1xx_hal_spi.c:1594:9
	ldr	r0, [r4, #72]
	.loc	7 1595 38               @ ../Drivers/STM32F1xx_HAL_Driver/Src/stm32f1xx_hal_spi.c:1595:38
	strd	r5, r5, [r0, #44]
	strd	r5, r5, [r0, #52]
	.loc	7 1600 50               @ ../Drivers/STM32F1xx_HAL_Driver/Src/stm32f1xx_hal_spi.c:1600:50
	ldr	r1, [r4, #48]
	.loc	7 1600 93 is_stmt 0     @ ../Drivers/STM32F1xx_HAL_Driver/Src/stm32f1xx_hal_spi.c:1600:93
	ldrh	r3, [r4, #54]
	.loc	7 1600 89               @ ../Drivers/STM32F1xx_HAL_Driver/Src/stm32f1xx_hal_spi.c:1600:89
	adds	r2, #12
	.loc	7 1600 3                @ ../Drivers/STM32F1xx_HAL_Driver/Src/stm32f1xx_hal_spi.c:1600:3
	bl	HAL_DMA_Start_IT
.Ltmp489:
	.loc	7 1603 13 is_stmt 1     @ ../Drivers/STM32F1xx_HAL_Driver/Src/stm32f1xx_hal_spi.c:1603:13
	ldr	r0, [r4]
	.loc	7 1603 23 is_stmt 0     @ ../Drivers/STM32F1xx_HAL_Driver/Src/stm32f1xx_hal_spi.c:1603:23
	ldr	r1, [r0]
.Ltmp490:
	.loc	7 1603 6                @ ../Drivers/STM32F1xx_HAL_Driver/Src/stm32f1xx_hal_spi.c:1603:6
	tst.w	r1, #64
.Ltmp491:
	.loc	7 1606 5 is_stmt 1      @ ../Drivers/STM32F1xx_HAL_Driver/Src/stm32f1xx_hal_spi.c:1606:5
	ittt	eq
	ldreq	r1, [r0]
	orreq	r1, r1, #64
	streq	r1, [r0]
.Ltmp492:
	.loc	7 1609 3                @ ../Drivers/STM32F1xx_HAL_Driver/Src/stm32f1xx_hal_spi.c:1609:3
	ldr	r1, [r0, #4]
	orr	r1, r1, #32
	str	r1, [r0, #4]
	.loc	7 1612 3                @ ../Drivers/STM32F1xx_HAL_Driver/Src/stm32f1xx_hal_spi.c:1612:3
	ldr	r1, [r0, #4]
	orr	r1, r1, #2
	str	r1, [r0, #4]
	movs	r0, #0
	b	.LBB25_8
.LBB25_4:
.Ltmp493:
	@DEBUG_VALUE: HAL_SPI_TransmitReceive_DMA:tmp <- $r5
	@DEBUG_VALUE: HAL_SPI_TransmitReceive_DMA:Size <- $r3
	@DEBUG_VALUE: HAL_SPI_TransmitReceive_DMA:pRxData <- $r2
	@DEBUG_VALUE: HAL_SPI_TransmitReceive_DMA:pTxData <- $r1
	.loc	7 1525 21               @ ../Drivers/STM32F1xx_HAL_Driver/Src/stm32f1xx_hal_spi.c:1525:21
	ldr	r0, [r4, #4]
.Ltmp494:
	@DEBUG_VALUE: HAL_SPI_TransmitReceive_DMA:tmp1 <- $r0
	.loc	7 1527 34               @ ../Drivers/STM32F1xx_HAL_Driver/Src/stm32f1xx_hal_spi.c:1527:34
	cmp.w	r0, #260
	bne	.LBB25_7
.Ltmp495:
@ %bb.5:
	@DEBUG_VALUE: HAL_SPI_TransmitReceive_DMA:tmp1 <- $r0
	@DEBUG_VALUE: HAL_SPI_TransmitReceive_DMA:tmp <- $r5
	@DEBUG_VALUE: HAL_SPI_TransmitReceive_DMA:Size <- $r3
	@DEBUG_VALUE: HAL_SPI_TransmitReceive_DMA:pRxData <- $r2
	@DEBUG_VALUE: HAL_SPI_TransmitReceive_DMA:pTxData <- $r1
	.loc	7 0 34 is_stmt 0        @ ../Drivers/STM32F1xx_HAL_Driver/Src/stm32f1xx_hal_spi.c:0:34
	movs	r0, #2
.Ltmp496:
	.loc	7 1527 84               @ ../Drivers/STM32F1xx_HAL_Driver/Src/stm32f1xx_hal_spi.c:1527:84
	cmp	r5, #4
	bne	.LBB25_8
.Ltmp497:
@ %bb.6:
	@DEBUG_VALUE: HAL_SPI_TransmitReceive_DMA:tmp <- $r5
	@DEBUG_VALUE: HAL_SPI_TransmitReceive_DMA:Size <- $r3
	@DEBUG_VALUE: HAL_SPI_TransmitReceive_DMA:pRxData <- $r2
	@DEBUG_VALUE: HAL_SPI_TransmitReceive_DMA:pTxData <- $r1
	.loc	7 0 84                  @ ../Drivers/STM32F1xx_HAL_Driver/Src/stm32f1xx_hal_spi.c:0:84
	ldr	r5, [r4, #8]
.Ltmp498:
	.loc	7 1527 84               @ ../Drivers/STM32F1xx_HAL_Driver/Src/stm32f1xx_hal_spi.c:1527:84
	cmp	r5, #0
	beq	.LBB25_1
	b	.LBB25_8
.Ltmp499:
.LBB25_7:
	@DEBUG_VALUE: HAL_SPI_TransmitReceive_DMA:tmp1 <- $r0
	@DEBUG_VALUE: HAL_SPI_TransmitReceive_DMA:tmp <- $r5
	@DEBUG_VALUE: HAL_SPI_TransmitReceive_DMA:Size <- $r3
	@DEBUG_VALUE: HAL_SPI_TransmitReceive_DMA:pRxData <- $r2
	@DEBUG_VALUE: HAL_SPI_TransmitReceive_DMA:pTxData <- $r1
	.loc	7 0 84                  @ ../Drivers/STM32F1xx_HAL_Driver/Src/stm32f1xx_hal_spi.c:0:84
	movs	r0, #2
.Ltmp500:
.LBB25_8:
	.loc	7 1616 3 is_stmt 1      @ ../Drivers/STM32F1xx_HAL_Driver/Src/stm32f1xx_hal_spi.c:1616:3
	movs	r1, #0
	str	r1, [r4, #80]
.Ltmp501:
	.loc	7 1618 1                @ ../Drivers/STM32F1xx_HAL_Driver/Src/stm32f1xx_hal_spi.c:1618:1
	pop	{r4, r5, r7, pc}
.Ltmp502:
.Lfunc_end25:
	.size	HAL_SPI_TransmitReceive_DMA, .Lfunc_end25-HAL_SPI_TransmitReceive_DMA
	.cfi_endproc
	.cantunwind
	.fnend
                                        @ -- End function
	.section	.text.SPI_DMAHalfReceiveCplt,"ax",%progbits
	.p2align	2               @ -- Begin function SPI_DMAHalfReceiveCplt
	.type	SPI_DMAHalfReceiveCplt,%function
	.code	16                      @ @SPI_DMAHalfReceiveCplt
	.thumb_func
SPI_DMAHalfReceiveCplt:
.Lfunc_begin26:
	.loc	7 2424 0                @ ../Drivers/STM32F1xx_HAL_Driver/Src/stm32f1xx_hal_spi.c:2424:0
	.fnstart
	.cfi_startproc
@ %bb.0:
	@DEBUG_VALUE: SPI_DMAHalfReceiveCplt:hdma <- $r0
	@DEBUG_VALUE: SPI_DMAHalfReceiveCplt:hdma <- $r0
	.loc	7 2425 80 prologue_end  @ ../Drivers/STM32F1xx_HAL_Driver/Src/stm32f1xx_hal_spi.c:2425:80
	ldr	r0, [r0, #40]
.Ltmp503:
	@DEBUG_VALUE: SPI_DMAHalfReceiveCplt:hspi <- $r0
	.loc	7 2427 3                @ ../Drivers/STM32F1xx_HAL_Driver/Src/stm32f1xx_hal_spi.c:2427:3
	b	HAL_SPI_RxHalfCpltCallback
.Ltmp504:
.Lfunc_end26:
	.size	SPI_DMAHalfReceiveCplt, .Lfunc_end26-SPI_DMAHalfReceiveCplt
	.cfi_endproc
	.cantunwind
	.fnend
                                        @ -- End function
	.section	.text.SPI_DMAReceiveCplt,"ax",%progbits
	.p2align	2               @ -- Begin function SPI_DMAReceiveCplt
	.type	SPI_DMAReceiveCplt,%function
	.code	16                      @ @SPI_DMAReceiveCplt
	.thumb_func
SPI_DMAReceiveCplt:
.Lfunc_begin27:
	.loc	7 2260 0                @ ../Drivers/STM32F1xx_HAL_Driver/Src/stm32f1xx_hal_spi.c:2260:0
	.fnstart
	.cfi_startproc
@ %bb.0:
	@DEBUG_VALUE: SPI_DMAReceiveCplt:hdma <- $r0
	@DEBUG_VALUE: SPI_DMAReceiveCplt:hdma <- $r0
	.loc	7 2270 13 prologue_end  @ ../Drivers/STM32F1xx_HAL_Driver/Src/stm32f1xx_hal_spi.c:2270:13
	ldr	r1, [r0]
.Ltmp505:
	.loc	7 2261 80               @ ../Drivers/STM32F1xx_HAL_Driver/Src/stm32f1xx_hal_spi.c:2261:80
	ldr	r0, [r0, #40]
.Ltmp506:
	@DEBUG_VALUE: SPI_DMAReceiveCplt:hspi <- $r0
	.loc	7 2270 23               @ ../Drivers/STM32F1xx_HAL_Driver/Src/stm32f1xx_hal_spi.c:2270:23
	ldr	r1, [r1]
.Ltmp507:
	.loc	7 2270 6 is_stmt 0      @ ../Drivers/STM32F1xx_HAL_Driver/Src/stm32f1xx_hal_spi.c:2270:6
	tst.w	r1, #32
	.loc	7 2327 3 is_stmt 1      @ ../Drivers/STM32F1xx_HAL_Driver/Src/stm32f1xx_hal_spi.c:2327:3
	it	ne
	bne	HAL_SPI_RxCpltCallback
.Ltmp508:
	.loc	7 2290 5                @ ../Drivers/STM32F1xx_HAL_Driver/Src/stm32f1xx_hal_spi.c:2290:5
	ldr	r1, [r0]
	ldr	r2, [r1, #4]
	bic	r2, r2, #3
	str	r2, [r1, #4]
.Ltmp509:
	.loc	7 2293 20               @ ../Drivers/STM32F1xx_HAL_Driver/Src/stm32f1xx_hal_spi.c:2293:20
	ldr	r2, [r0, #4]
	.loc	7 2293 44 is_stmt 0     @ ../Drivers/STM32F1xx_HAL_Driver/Src/stm32f1xx_hal_spi.c:2293:44
	cmp.w	r2, #260
	bne	.LBB27_4
.Ltmp510:
@ %bb.1:
	@DEBUG_VALUE: SPI_DMAReceiveCplt:hspi <- $r0
	.loc	7 2293 59               @ ../Drivers/STM32F1xx_HAL_Driver/Src/stm32f1xx_hal_spi.c:2293:59
	ldr	r2, [r0, #8]
	.loc	7 2293 92               @ ../Drivers/STM32F1xx_HAL_Driver/Src/stm32f1xx_hal_spi.c:2293:92
	cmp.w	r2, #32768
	beq	.LBB27_3
.Ltmp511:
@ %bb.2:
	@DEBUG_VALUE: SPI_DMAReceiveCplt:hspi <- $r0
	cmp.w	r2, #1024
	bne	.LBB27_4
.Ltmp512:
.LBB27_3:
	@DEBUG_VALUE: SPI_DMAReceiveCplt:hspi <- $r0
	.loc	7 2296 7 is_stmt 1      @ ../Drivers/STM32F1xx_HAL_Driver/Src/stm32f1xx_hal_spi.c:2296:7
	ldr	r2, [r1]
	bic	r2, r2, #64
	str	r2, [r1]
.Ltmp513:
.LBB27_4:
	@DEBUG_VALUE: SPI_DMAReceiveCplt:hspi <- $r0
	.loc	7 0 7 is_stmt 0         @ ../Drivers/STM32F1xx_HAL_Driver/Src/stm32f1xx_hal_spi.c:0:7
	movs	r1, #0
	.loc	7 2299 23 is_stmt 1     @ ../Drivers/STM32F1xx_HAL_Driver/Src/stm32f1xx_hal_spi.c:2299:23
	strh	r1, [r0, #62]
	.loc	7 2300 17               @ ../Drivers/STM32F1xx_HAL_Driver/Src/stm32f1xx_hal_spi.c:2300:17
	movs	r1, #1
	str	r1, [r0, #84]
.Ltmp514:
	.loc	7 2321 14               @ ../Drivers/STM32F1xx_HAL_Driver/Src/stm32f1xx_hal_spi.c:2321:14
	ldr	r1, [r0, #88]
.Ltmp515:
	.loc	7 2321 8 is_stmt 0      @ ../Drivers/STM32F1xx_HAL_Driver/Src/stm32f1xx_hal_spi.c:2321:8
	cmp	r1, #0
.Ltmp516:
	.loc	7 2323 7 is_stmt 1      @ ../Drivers/STM32F1xx_HAL_Driver/Src/stm32f1xx_hal_spi.c:2323:7
	it	ne
	bne	HAL_SPI_ErrorCallback
.Ltmp517:
	.loc	7 2327 3                @ ../Drivers/STM32F1xx_HAL_Driver/Src/stm32f1xx_hal_spi.c:2327:3
	b	HAL_SPI_RxCpltCallback
.Ltmp518:
.Lfunc_end27:
	.size	SPI_DMAReceiveCplt, .Lfunc_end27-SPI_DMAReceiveCplt
	.cfi_endproc
	.cantunwind
	.fnend
                                        @ -- End function
	.section	.text.SPI_DMAHalfTransmitReceiveCplt,"ax",%progbits
	.p2align	2               @ -- Begin function SPI_DMAHalfTransmitReceiveCplt
	.type	SPI_DMAHalfTransmitReceiveCplt,%function
	.code	16                      @ @SPI_DMAHalfTransmitReceiveCplt
	.thumb_func
SPI_DMAHalfTransmitReceiveCplt:
.Lfunc_begin28:
	.loc	7 2437 0                @ ../Drivers/STM32F1xx_HAL_Driver/Src/stm32f1xx_hal_spi.c:2437:0
	.fnstart
	.cfi_startproc
@ %bb.0:
	@DEBUG_VALUE: SPI_DMAHalfTransmitReceiveCplt:hdma <- $r0
	@DEBUG_VALUE: SPI_DMAHalfTransmitReceiveCplt:hdma <- $r0
	.loc	7 2438 80 prologue_end  @ ../Drivers/STM32F1xx_HAL_Driver/Src/stm32f1xx_hal_spi.c:2438:80
	ldr	r0, [r0, #40]
.Ltmp519:
	@DEBUG_VALUE: SPI_DMAHalfTransmitReceiveCplt:hspi <- $r0
	.loc	7 2440 3                @ ../Drivers/STM32F1xx_HAL_Driver/Src/stm32f1xx_hal_spi.c:2440:3
	b	HAL_SPI_TxRxHalfCpltCallback
.Ltmp520:
.Lfunc_end28:
	.size	SPI_DMAHalfTransmitReceiveCplt, .Lfunc_end28-SPI_DMAHalfTransmitReceiveCplt
	.cfi_endproc
	.cantunwind
	.fnend
                                        @ -- End function
	.section	.text.SPI_DMATransmitReceiveCplt,"ax",%progbits
	.p2align	2               @ -- Begin function SPI_DMATransmitReceiveCplt
	.type	SPI_DMATransmitReceiveCplt,%function
	.code	16                      @ @SPI_DMATransmitReceiveCplt
	.thumb_func
SPI_DMATransmitReceiveCplt:
.Lfunc_begin29:
	.loc	7 2337 0                @ ../Drivers/STM32F1xx_HAL_Driver/Src/stm32f1xx_hal_spi.c:2337:0
	.fnstart
	.cfi_startproc
@ %bb.0:
	.save	{r4, r5, r7, lr}
	push	{r4, r5, r7, lr}
	.cfi_def_cfa_offset 16
	.cfi_offset lr, -4
	.cfi_offset r7, -8
	.cfi_offset r5, -12
	.cfi_offset r4, -16
	@DEBUG_VALUE: SPI_DMATransmitReceiveCplt:hdma <- $r0
	mov	r5, r0
.Ltmp521:
	@DEBUG_VALUE: SPI_DMATransmitReceiveCplt:hdma <- $r5
	.loc	7 2338 80 prologue_end  @ ../Drivers/STM32F1xx_HAL_Driver/Src/stm32f1xx_hal_spi.c:2338:80
	ldr	r4, [r0, #40]
.Ltmp522:
	@DEBUG_VALUE: SPI_DMATransmitReceiveCplt:tickstart <- 0
	@DEBUG_VALUE: SPI_DMATransmitReceiveCplt:hspi <- $r4
	.loc	7 2344 15               @ ../Drivers/STM32F1xx_HAL_Driver/Src/stm32f1xx_hal_spi.c:2344:15
	bl	HAL_GetTick
	mov	r2, r0
.Ltmp523:
	@DEBUG_VALUE: SPI_DMATransmitReceiveCplt:tickstart <- $r2
	.loc	7 2346 13               @ ../Drivers/STM32F1xx_HAL_Driver/Src/stm32f1xx_hal_spi.c:2346:13
	ldr	r0, [r5]
	.loc	7 2346 23 is_stmt 0     @ ../Drivers/STM32F1xx_HAL_Driver/Src/stm32f1xx_hal_spi.c:2346:23
	ldr	r0, [r0]
.Ltmp524:
	.loc	7 2346 6                @ ../Drivers/STM32F1xx_HAL_Driver/Src/stm32f1xx_hal_spi.c:2346:6
	tst.w	r0, #32
	bne	.LBB29_3
.Ltmp525:
@ %bb.1:
	@DEBUG_VALUE: SPI_DMATransmitReceiveCplt:tickstart <- $r2
	@DEBUG_VALUE: SPI_DMATransmitReceiveCplt:hspi <- $r4
	@DEBUG_VALUE: SPI_DMATransmitReceiveCplt:hdma <- $r5
	.loc	7 2364 8 is_stmt 1      @ ../Drivers/STM32F1xx_HAL_Driver/Src/stm32f1xx_hal_spi.c:2364:8
	mov	r0, r4
	movs	r1, #100
	bl	SPI_CheckFlag_BSY
.Ltmp526:
	.loc	7 2364 8 is_stmt 0      @ ../Drivers/STM32F1xx_HAL_Driver/Src/stm32f1xx_hal_spi.c:2364:8
	cmp	r0, #0
.Ltmp527:
	.loc	7 2366 7 is_stmt 1      @ ../Drivers/STM32F1xx_HAL_Driver/Src/stm32f1xx_hal_spi.c:2366:7
	ittt	ne
	ldrne	r0, [r4, #88]
	orrne	r0, r0, #32
	strne	r0, [r4, #88]
.Ltmp528:
	.loc	7 2370 5                @ ../Drivers/STM32F1xx_HAL_Driver/Src/stm32f1xx_hal_spi.c:2370:5
	ldr	r0, [r4]
	ldr	r1, [r0, #4]
	bic	r1, r1, #3
	str	r1, [r0, #4]
	movs	r0, #0
	.loc	7 2372 23               @ ../Drivers/STM32F1xx_HAL_Driver/Src/stm32f1xx_hal_spi.c:2372:23
	strh	r0, [r4, #54]
	.loc	7 2373 23               @ ../Drivers/STM32F1xx_HAL_Driver/Src/stm32f1xx_hal_spi.c:2373:23
	strh	r0, [r4, #62]
	.loc	7 2374 17               @ ../Drivers/STM32F1xx_HAL_Driver/Src/stm32f1xx_hal_spi.c:2374:17
	movs	r0, #1
	str	r0, [r4, #84]
.Ltmp529:
	.loc	7 2395 14               @ ../Drivers/STM32F1xx_HAL_Driver/Src/stm32f1xx_hal_spi.c:2395:14
	ldr	r0, [r4, #88]
.Ltmp530:
	.loc	7 2395 8 is_stmt 0      @ ../Drivers/STM32F1xx_HAL_Driver/Src/stm32f1xx_hal_spi.c:2395:8
	cbz	r0, .LBB29_3
.Ltmp531:
@ %bb.2:
	@DEBUG_VALUE: SPI_DMATransmitReceiveCplt:hspi <- $r4
	@DEBUG_VALUE: SPI_DMATransmitReceiveCplt:hdma <- $r5
	.loc	7 2397 7 is_stmt 1      @ ../Drivers/STM32F1xx_HAL_Driver/Src/stm32f1xx_hal_spi.c:2397:7
	mov	r0, r4
	pop.w	{r4, r5, r7, lr}
.Ltmp532:
	b	HAL_SPI_ErrorCallback
.Ltmp533:
.LBB29_3:
	@DEBUG_VALUE: SPI_DMATransmitReceiveCplt:hspi <- $r4
	@DEBUG_VALUE: SPI_DMATransmitReceiveCplt:hdma <- $r5
	.loc	7 2401 3                @ ../Drivers/STM32F1xx_HAL_Driver/Src/stm32f1xx_hal_spi.c:2401:3
	mov	r0, r4
	pop.w	{r4, r5, r7, lr}
.Ltmp534:
	b	HAL_SPI_TxRxCpltCallback
.Ltmp535:
.Lfunc_end29:
	.size	SPI_DMATransmitReceiveCplt, .Lfunc_end29-SPI_DMATransmitReceiveCplt
	.cfi_endproc
	.cantunwind
	.fnend
                                        @ -- End function
	.section	.text.HAL_SPI_Abort,"ax",%progbits
	.hidden	HAL_SPI_Abort           @ -- Begin function HAL_SPI_Abort
	.globl	HAL_SPI_Abort
	.p2align	2
	.type	HAL_SPI_Abort,%function
	.code	16                      @ @HAL_SPI_Abort
	.thumb_func
HAL_SPI_Abort:
.Lfunc_begin30:
	.loc	7 1636 0                @ ../Drivers/STM32F1xx_HAL_Driver/Src/stm32f1xx_hal_spi.c:1636:0
	.fnstart
	.cfi_startproc
@ %bb.0:
	.save	{r4, lr}
	push	{r4, lr}
	.cfi_def_cfa_offset 8
	.cfi_offset lr, -4
	.cfi_offset r4, -8
	.pad	#8
	sub	sp, #8
	.cfi_def_cfa_offset 16
	@DEBUG_VALUE: HAL_SPI_Abort:hspi <- $r0
	mov	r4, r0
.Ltmp536:
	@DEBUG_VALUE: HAL_SPI_Abort:hspi <- $r4
	.loc	7 1637 48 prologue_end  @ ../Drivers/STM32F1xx_HAL_Driver/Src/stm32f1xx_hal_spi.c:1637:48
	movw	r0, :lower16:SystemCoreClock
	movt	r0, :upper16:SystemCoreClock
	ldr	r0, [r0]
	.loc	7 1637 70 is_stmt 0     @ ../Drivers/STM32F1xx_HAL_Driver/Src/stm32f1xx_hal_spi.c:1637:70
	movw	r1, #6641
	movt	r1, #1398
	umull	r0, r1, r0, r1
	lsrs	r0, r1, #9
	.loc	7 1637 45               @ ../Drivers/STM32F1xx_HAL_Driver/Src/stm32f1xx_hal_spi.c:1637:45
	movs	r1, #100
	muls	r0, r1, r0
.Ltmp537:
	@DEBUG_VALUE: HAL_SPI_Abort:count <- $r0
	.loc	7 1637 17               @ ../Drivers/STM32F1xx_HAL_Driver/Src/stm32f1xx_hal_spi.c:1637:17
	str	r0, [sp, #4]
.Ltmp538:
	.loc	7 1640 6 is_stmt 1      @ ../Drivers/STM32F1xx_HAL_Driver/Src/stm32f1xx_hal_spi.c:1640:6
	ldr	r0, [r4]
.Ltmp539:
	ldr	r1, [r0, #4]
.Ltmp540:
	.loc	7 1640 6 is_stmt 0      @ ../Drivers/STM32F1xx_HAL_Driver/Src/stm32f1xx_hal_spi.c:1640:6
	tst.w	r1, #128
.Ltmp541:
	.loc	7 1642 17 is_stmt 1     @ ../Drivers/STM32F1xx_HAL_Driver/Src/stm32f1xx_hal_spi.c:1642:17
	ittt	ne
	movwne	r1, :lower16:SPI_AbortTx_ISR
	movtne	r1, :upper16:SPI_AbortTx_ISR
	strne	r1, [r4, #68]
.Ltmp542:
	.loc	7 1645 6                @ ../Drivers/STM32F1xx_HAL_Driver/Src/stm32f1xx_hal_spi.c:1645:6
	ldr	r1, [r0, #4]
.Ltmp543:
	.loc	7 1645 6 is_stmt 0      @ ../Drivers/STM32F1xx_HAL_Driver/Src/stm32f1xx_hal_spi.c:1645:6
	tst.w	r1, #64
.Ltmp544:
	.loc	7 1647 17 is_stmt 1     @ ../Drivers/STM32F1xx_HAL_Driver/Src/stm32f1xx_hal_spi.c:1647:17
	ittt	ne
	movwne	r1, :lower16:SPI_AbortRx_ISR
	movtne	r1, :upper16:SPI_AbortRx_ISR
	strne	r1, [r4, #64]
.Ltmp545:
	.loc	7 1651 3                @ ../Drivers/STM32F1xx_HAL_Driver/Src/stm32f1xx_hal_spi.c:1651:3
	ldr	r1, [r0, #4]
	bic	r1, r1, #32
	str	r1, [r0, #4]
.Ltmp546:
	.loc	7 1654 8                @ ../Drivers/STM32F1xx_HAL_Driver/Src/stm32f1xx_hal_spi.c:1654:8
	ldr	r1, [r0, #4]
	.loc	7 1654 62 is_stmt 0     @ ../Drivers/STM32F1xx_HAL_Driver/Src/stm32f1xx_hal_spi.c:1654:62
	tst.w	r1, #2
	bne	.LBB30_2
.Ltmp547:
@ %bb.1:
	@DEBUG_VALUE: HAL_SPI_Abort:hspi <- $r4
	.loc	7 1654 66               @ ../Drivers/STM32F1xx_HAL_Driver/Src/stm32f1xx_hal_spi.c:1654:66
	ldr	r0, [r0, #4]
.Ltmp548:
	.loc	7 1654 7                @ ../Drivers/STM32F1xx_HAL_Driver/Src/stm32f1xx_hal_spi.c:1654:7
	tst.w	r0, #1
	beq	.LBB30_9
.Ltmp549:
.LBB30_2:
	@DEBUG_VALUE: HAL_SPI_Abort:hspi <- $r4
	.loc	7 1657 14 is_stmt 1     @ ../Drivers/STM32F1xx_HAL_Driver/Src/stm32f1xx_hal_spi.c:1657:14
	ldr	r0, [r4, #72]
.Ltmp550:
	.loc	7 1657 8 is_stmt 0      @ ../Drivers/STM32F1xx_HAL_Driver/Src/stm32f1xx_hal_spi.c:1657:8
	cbz	r0, .LBB30_7
.Ltmp551:
@ %bb.3:
	@DEBUG_VALUE: HAL_SPI_Abort:hspi <- $r4
	.loc	7 0 8                   @ ../Drivers/STM32F1xx_HAL_Driver/Src/stm32f1xx_hal_spi.c:0:8
	movs	r1, #0
.Ltmp552:
	.loc	7 1661 39 is_stmt 1     @ ../Drivers/STM32F1xx_HAL_Driver/Src/stm32f1xx_hal_spi.c:1661:39
	str	r1, [r0, #56]
	.loc	7 1664 7                @ ../Drivers/STM32F1xx_HAL_Driver/Src/stm32f1xx_hal_spi.c:1664:7
	bl	HAL_DMA_Abort
	.loc	7 1667 7                @ ../Drivers/STM32F1xx_HAL_Driver/Src/stm32f1xx_hal_spi.c:1667:7
	ldr	r0, [r4]
	ldr	r1, [r0, #4]
	bic	r1, r1, #2
	str	r1, [r0, #4]
.Ltmp553:
	.p2align	2
.LBB30_4:                               @ =>This Inner Loop Header: Depth=1
	@DEBUG_VALUE: HAL_SPI_Abort:hspi <- $r4
	.loc	7 1672 17               @ ../Drivers/STM32F1xx_HAL_Driver/Src/stm32f1xx_hal_spi.c:1672:17
	ldr	r1, [sp, #4]
.Ltmp554:
	@DEBUG_VALUE: HAL_SPI_Abort:count <- $r1
	subs	r2, r1, #1
.Ltmp555:
	@DEBUG_VALUE: HAL_SPI_Abort:count <- $r2
	str	r2, [sp, #4]
.Ltmp556:
	.loc	7 1672 12 is_stmt 0     @ ../Drivers/STM32F1xx_HAL_Driver/Src/stm32f1xx_hal_spi.c:1672:12
	cbz	r1, .LBB30_6
.Ltmp557:
@ %bb.5:                                @   in Loop: Header=BB30_4 Depth=1
	@DEBUG_VALUE: HAL_SPI_Abort:count <- $r2
	@DEBUG_VALUE: HAL_SPI_Abort:hspi <- $r4
	.loc	7 1678 30 is_stmt 1     @ ../Drivers/STM32F1xx_HAL_Driver/Src/stm32f1xx_hal_spi.c:1678:30
	ldr	r1, [r0, #8]
.Ltmp558:
	.loc	7 1677 7                @ ../Drivers/STM32F1xx_HAL_Driver/Src/stm32f1xx_hal_spi.c:1677:7
	tst.w	r1, #2
	beq	.LBB30_4
	b	.LBB30_7
.Ltmp559:
.LBB30_6:
	@DEBUG_VALUE: HAL_SPI_Abort:count <- $r2
	@DEBUG_VALUE: HAL_SPI_Abort:hspi <- $r4
	.loc	7 1674 11               @ ../Drivers/STM32F1xx_HAL_Driver/Src/stm32f1xx_hal_spi.c:1674:11
	ldr	r0, [r4, #88]
	orr	r0, r0, #32
	str	r0, [r4, #88]
.Ltmp560:
.LBB30_7:
	@DEBUG_VALUE: HAL_SPI_Abort:hspi <- $r4
	.loc	7 1681 14               @ ../Drivers/STM32F1xx_HAL_Driver/Src/stm32f1xx_hal_spi.c:1681:14
	ldr	r0, [r4, #76]
.Ltmp561:
	.loc	7 1681 8 is_stmt 0      @ ../Drivers/STM32F1xx_HAL_Driver/Src/stm32f1xx_hal_spi.c:1681:8
	cbz	r0, .LBB30_9
.Ltmp562:
@ %bb.8:
	@DEBUG_VALUE: HAL_SPI_Abort:hspi <- $r4
	.loc	7 0 8                   @ ../Drivers/STM32F1xx_HAL_Driver/Src/stm32f1xx_hal_spi.c:0:8
	movs	r1, #0
.Ltmp563:
	.loc	7 1685 39 is_stmt 1     @ ../Drivers/STM32F1xx_HAL_Driver/Src/stm32f1xx_hal_spi.c:1685:39
	str	r1, [r0, #56]
	.loc	7 1688 7                @ ../Drivers/STM32F1xx_HAL_Driver/Src/stm32f1xx_hal_spi.c:1688:7
	bl	HAL_DMA_Abort
	.loc	7 1691 7                @ ../Drivers/STM32F1xx_HAL_Driver/Src/stm32f1xx_hal_spi.c:1691:7
	ldr	r0, [r4]
	ldr	r1, [r0]
	bic	r1, r1, #64
	str	r1, [r0]
	.loc	7 1694 7                @ ../Drivers/STM32F1xx_HAL_Driver/Src/stm32f1xx_hal_spi.c:1694:7
	ldr	r1, [r0, #4]
	bic	r1, r1, #1
	str	r1, [r0, #4]
.Ltmp564:
.LBB30_9:
	@DEBUG_VALUE: HAL_SPI_Abort:hspi <- $r4
	.loc	7 0 7 is_stmt 0         @ ../Drivers/STM32F1xx_HAL_Driver/Src/stm32f1xx_hal_spi.c:0:7
	movs	r0, #0
	.loc	7 1699 21 is_stmt 1     @ ../Drivers/STM32F1xx_HAL_Driver/Src/stm32f1xx_hal_spi.c:1699:21
	strh	r0, [r4, #62]
	.loc	7 1700 21               @ ../Drivers/STM32F1xx_HAL_Driver/Src/stm32f1xx_hal_spi.c:1700:21
	strh	r0, [r4, #54]
	.loc	7 1703 19               @ ../Drivers/STM32F1xx_HAL_Driver/Src/stm32f1xx_hal_spi.c:1703:19
	str	r0, [r4, #88]
.Ltmp565:
	@DEBUG_VALUE: tmpreg_ovr <- 0
	.loc	7 1706 3                @ ../Drivers/STM32F1xx_HAL_Driver/Src/stm32f1xx_hal_spi.c:1706:3
	str	r0, [sp]
	ldr	r0, [r4]
	ldr	r1, [r0, #12]
.Ltmp566:
	@DEBUG_VALUE: tmpreg_ovr <- $r1
	str	r1, [sp]
	ldr	r0, [r0, #8]
.Ltmp567:
	@DEBUG_VALUE: tmpreg_ovr <- $r0
	str	r0, [sp]
	ldr	r0, [sp]
.Ltmp568:
	@DEBUG_VALUE: tmpreg_ovr <- $r0
	.loc	7 1709 15               @ ../Drivers/STM32F1xx_HAL_Driver/Src/stm32f1xx_hal_spi.c:1709:15
	movs	r0, #1
.Ltmp569:
	str	r0, [r4, #84]
	.loc	7 1711 3                @ ../Drivers/STM32F1xx_HAL_Driver/Src/stm32f1xx_hal_spi.c:1711:3
	movs	r0, #0
	add	sp, #8
	pop	{r4, pc}
.Ltmp570:
.Lfunc_end30:
	.size	HAL_SPI_Abort, .Lfunc_end30-HAL_SPI_Abort
	.cfi_endproc
	.cantunwind
	.fnend
                                        @ -- End function
	.section	.text.SPI_AbortTx_ISR,"ax",%progbits
	.p2align	2               @ -- Begin function SPI_AbortTx_ISR
	.type	SPI_AbortTx_ISR,%function
	.code	16                      @ @SPI_AbortTx_ISR
	.thumb_func
SPI_AbortTx_ISR:
.Lfunc_begin31:
	.loc	7 3231 0                @ ../Drivers/STM32F1xx_HAL_Driver/Src/stm32f1xx_hal_spi.c:3231:0
	.fnstart
	.cfi_startproc
@ %bb.0:
	@DEBUG_VALUE: SPI_AbortTx_ISR:hspi <- $r0
	@DEBUG_VALUE: SPI_AbortTx_ISR:hspi <- $r0
	.loc	7 3233 3 prologue_end   @ ../Drivers/STM32F1xx_HAL_Driver/Src/stm32f1xx_hal_spi.c:3233:3
	ldr	r0, [r0]
.Ltmp571:
	ldr	r1, [r0, #4]
	bic	r1, r1, #224
	str	r1, [r0, #4]
	.loc	7 3236 3                @ ../Drivers/STM32F1xx_HAL_Driver/Src/stm32f1xx_hal_spi.c:3236:3
	ldr	r1, [r0]
	bic	r1, r1, #64
	str	r1, [r0]
	.loc	7 3237 1                @ ../Drivers/STM32F1xx_HAL_Driver/Src/stm32f1xx_hal_spi.c:3237:1
	bx	lr
.Ltmp572:
.Lfunc_end31:
	.size	SPI_AbortTx_ISR, .Lfunc_end31-SPI_AbortTx_ISR
	.cfi_endproc
	.cantunwind
	.fnend
                                        @ -- End function
	.section	.text.SPI_AbortRx_ISR,"ax",%progbits
	.p2align	2               @ -- Begin function SPI_AbortRx_ISR
	.type	SPI_AbortRx_ISR,%function
	.code	16                      @ @SPI_AbortRx_ISR
	.thumb_func
SPI_AbortRx_ISR:
.Lfunc_begin32:
	.loc	7 3196 0                @ ../Drivers/STM32F1xx_HAL_Driver/Src/stm32f1xx_hal_spi.c:3196:0
	.fnstart
	.cfi_startproc
@ %bb.0:
	.pad	#8
	sub	sp, #8
	.cfi_def_cfa_offset 8
	@DEBUG_VALUE: SPI_AbortRx_ISR:hspi <- $r0
	movs	r1, #0
.Ltmp573:
	@DEBUG_VALUE: SPI_AbortRx_ISR:tmpreg <- 0
	@DEBUG_VALUE: SPI_AbortRx_ISR:hspi <- $r0
	.loc	7 3197 17 prologue_end  @ ../Drivers/STM32F1xx_HAL_Driver/Src/stm32f1xx_hal_spi.c:3197:17
	str	r1, [sp, #4]
	.loc	7 3198 48               @ ../Drivers/STM32F1xx_HAL_Driver/Src/stm32f1xx_hal_spi.c:3198:48
	movw	r1, :lower16:SystemCoreClock
	movt	r1, :upper16:SystemCoreClock
	ldr	r1, [r1]
	.loc	7 3198 70 is_stmt 0     @ ../Drivers/STM32F1xx_HAL_Driver/Src/stm32f1xx_hal_spi.c:3198:70
	movw	r2, #6641
	movt	r2, #1398
	umull	r1, r2, r1, r2
	lsrs	r1, r2, #9
	.loc	7 3198 45               @ ../Drivers/STM32F1xx_HAL_Driver/Src/stm32f1xx_hal_spi.c:3198:45
	movs	r2, #100
	muls	r1, r2, r1
.Ltmp574:
	@DEBUG_VALUE: SPI_AbortRx_ISR:count <- $r1
	.loc	7 3198 17               @ ../Drivers/STM32F1xx_HAL_Driver/Src/stm32f1xx_hal_spi.c:3198:17
	str	r1, [sp]
.Ltmp575:
	.p2align	2
.LBB32_1:                               @ =>This Inner Loop Header: Depth=1
	@DEBUG_VALUE: SPI_AbortRx_ISR:count <- $r1
	@DEBUG_VALUE: SPI_AbortRx_ISR:hspi <- $r0
	.loc	7 3203 13 is_stmt 1     @ ../Drivers/STM32F1xx_HAL_Driver/Src/stm32f1xx_hal_spi.c:3203:13
	ldr	r1, [sp]
.Ltmp576:
	@DEBUG_VALUE: SPI_AbortRx_ISR:count <- $r1
	subs	r2, r1, #1
.Ltmp577:
	@DEBUG_VALUE: SPI_AbortRx_ISR:count <- $r2
	str	r2, [sp]
.Ltmp578:
	.loc	7 3203 8 is_stmt 0      @ ../Drivers/STM32F1xx_HAL_Driver/Src/stm32f1xx_hal_spi.c:3203:8
	cbz	r1, .LBB32_3
.Ltmp579:
@ %bb.2:                                @   in Loop: Header=BB32_1 Depth=1
	@DEBUG_VALUE: SPI_AbortRx_ISR:count <- $r2
	@DEBUG_VALUE: SPI_AbortRx_ISR:hspi <- $r0
	.loc	7 3209 16 is_stmt 1     @ ../Drivers/STM32F1xx_HAL_Driver/Src/stm32f1xx_hal_spi.c:3209:16
	ldr	r1, [r0]
	.loc	7 3209 26 is_stmt 0     @ ../Drivers/STM32F1xx_HAL_Driver/Src/stm32f1xx_hal_spi.c:3209:26
	ldr	r1, [r1, #8]
.Ltmp580:
	.loc	7 3208 3 is_stmt 1      @ ../Drivers/STM32F1xx_HAL_Driver/Src/stm32f1xx_hal_spi.c:3208:3
	tst.w	r1, #2
	beq	.LBB32_1
	b	.LBB32_4
.Ltmp581:
.LBB32_3:
	@DEBUG_VALUE: SPI_AbortRx_ISR:count <- $r2
	@DEBUG_VALUE: SPI_AbortRx_ISR:hspi <- $r0
	.loc	7 3205 7                @ ../Drivers/STM32F1xx_HAL_Driver/Src/stm32f1xx_hal_spi.c:3205:7
	ldr	r1, [r0, #88]
	orr	r1, r1, #32
	str	r1, [r0, #88]
.Ltmp582:
.LBB32_4:
	@DEBUG_VALUE: SPI_AbortRx_ISR:count <- $r2
	@DEBUG_VALUE: SPI_AbortRx_ISR:hspi <- $r0
	.loc	7 3212 3                @ ../Drivers/STM32F1xx_HAL_Driver/Src/stm32f1xx_hal_spi.c:3212:3
	ldr	r0, [r0]
.Ltmp583:
	ldr	r1, [r0]
	bic	r1, r1, #64
	str	r1, [r0]
	.loc	7 3215 3                @ ../Drivers/STM32F1xx_HAL_Driver/Src/stm32f1xx_hal_spi.c:3215:3
	ldr	r1, [r0, #4]
	bic	r1, r1, #224
	str	r1, [r0, #4]
	.loc	7 3218 13               @ ../Drivers/STM32F1xx_HAL_Driver/Src/stm32f1xx_hal_spi.c:3218:13
	ldr	r0, [r0, #12]
.Ltmp584:
	@DEBUG_VALUE: SPI_AbortRx_ISR:tmpreg <- $r0
	.loc	7 3218 10 is_stmt 0     @ ../Drivers/STM32F1xx_HAL_Driver/Src/stm32f1xx_hal_spi.c:3218:10
	str	r0, [sp, #4]
	.loc	7 3221 3 is_stmt 1      @ ../Drivers/STM32F1xx_HAL_Driver/Src/stm32f1xx_hal_spi.c:3221:3
	ldr	r0, [sp, #4]
.Ltmp585:
	@DEBUG_VALUE: SPI_AbortRx_ISR:tmpreg <- $r0
	.loc	7 3222 1                @ ../Drivers/STM32F1xx_HAL_Driver/Src/stm32f1xx_hal_spi.c:3222:1
	add	sp, #8
	bx	lr
.Ltmp586:
.Lfunc_end32:
	.size	SPI_AbortRx_ISR, .Lfunc_end32-SPI_AbortRx_ISR
	.cfi_endproc
	.cantunwind
	.fnend
                                        @ -- End function
	.section	.text.HAL_SPI_Abort_IT,"ax",%progbits
	.hidden	HAL_SPI_Abort_IT        @ -- Begin function HAL_SPI_Abort_IT
	.globl	HAL_SPI_Abort_IT
	.p2align	2
	.type	HAL_SPI_Abort_IT,%function
	.code	16                      @ @HAL_SPI_Abort_IT
	.thumb_func
HAL_SPI_Abort_IT:
.Lfunc_begin33:
	.loc	7 1732 0                @ ../Drivers/STM32F1xx_HAL_Driver/Src/stm32f1xx_hal_spi.c:1732:0
	.fnstart
	.cfi_startproc
@ %bb.0:
	.save	{r4, r5, r6, lr}
	push	{r4, r5, r6, lr}
	.cfi_def_cfa_offset 16
	.cfi_offset lr, -4
	.cfi_offset r6, -8
	.cfi_offset r5, -12
	.cfi_offset r4, -16
	.pad	#8
	sub	sp, #8
	.cfi_def_cfa_offset 24
	@DEBUG_VALUE: HAL_SPI_Abort_IT:hspi <- $r0
	mov	r4, r0
.Ltmp587:
	@DEBUG_VALUE: HAL_SPI_Abort_IT:hspi <- $r4
	.loc	7 1736 6 prologue_end   @ ../Drivers/STM32F1xx_HAL_Driver/Src/stm32f1xx_hal_spi.c:1736:6
	ldr	r1, [r0]
	ldr	r0, [r1, #4]
.Ltmp588:
	.loc	7 1736 6 is_stmt 0      @ ../Drivers/STM32F1xx_HAL_Driver/Src/stm32f1xx_hal_spi.c:1736:6
	tst.w	r0, #128
.Ltmp589:
	.loc	7 1738 17 is_stmt 1     @ ../Drivers/STM32F1xx_HAL_Driver/Src/stm32f1xx_hal_spi.c:1738:17
	ittt	ne
	movwne	r0, :lower16:SPI_AbortTx_ISR
	movtne	r0, :upper16:SPI_AbortTx_ISR
	strne	r0, [r4, #68]
.Ltmp590:
	.loc	7 1741 6                @ ../Drivers/STM32F1xx_HAL_Driver/Src/stm32f1xx_hal_spi.c:1741:6
	ldr	r0, [r1, #4]
.Ltmp591:
	.loc	7 1741 6 is_stmt 0      @ ../Drivers/STM32F1xx_HAL_Driver/Src/stm32f1xx_hal_spi.c:1741:6
	tst.w	r0, #64
.Ltmp592:
	.loc	7 1743 17 is_stmt 1     @ ../Drivers/STM32F1xx_HAL_Driver/Src/stm32f1xx_hal_spi.c:1743:17
	ittt	ne
	movwne	r0, :lower16:SPI_AbortRx_ISR
	movtne	r0, :upper16:SPI_AbortRx_ISR
	strne	r0, [r4, #64]
.Ltmp593:
	.loc	7 1747 3                @ ../Drivers/STM32F1xx_HAL_Driver/Src/stm32f1xx_hal_spi.c:1747:3
	ldr	r0, [r1, #4]
	bic	r0, r0, #32
.Ltmp594:
	@DEBUG_VALUE: HAL_SPI_Abort_IT:abortcplt <- 1
	str	r0, [r1, #4]
.Ltmp595:
	.loc	7 1754 12               @ ../Drivers/STM32F1xx_HAL_Driver/Src/stm32f1xx_hal_spi.c:1754:12
	ldr	r0, [r4, #72]
.Ltmp596:
	.loc	7 1754 6 is_stmt 0      @ ../Drivers/STM32F1xx_HAL_Driver/Src/stm32f1xx_hal_spi.c:1754:6
	cbz	r0, .LBB33_2
.Ltmp597:
@ %bb.1:
	@DEBUG_VALUE: HAL_SPI_Abort_IT:hspi <- $r4
	.loc	7 1758 8 is_stmt 1      @ ../Drivers/STM32F1xx_HAL_Driver/Src/stm32f1xx_hal_spi.c:1758:8
	ldr	r2, [r1, #4]
	lsls	r2, r2, #30
	movw	r3, :lower16:SPI_DMATxAbortCallback
	movt	r3, :upper16:SPI_DMATxAbortCallback
	and.w	r2, r3, r2, asr #31
	str	r2, [r0, #56]
.Ltmp598:
.LBB33_2:
	@DEBUG_VALUE: HAL_SPI_Abort_IT:hspi <- $r4
	.loc	7 1768 12               @ ../Drivers/STM32F1xx_HAL_Driver/Src/stm32f1xx_hal_spi.c:1768:12
	ldr	r2, [r4, #76]
.Ltmp599:
	.loc	7 1768 6 is_stmt 0      @ ../Drivers/STM32F1xx_HAL_Driver/Src/stm32f1xx_hal_spi.c:1768:6
	cbz	r2, .LBB33_4
.Ltmp600:
@ %bb.3:
	@DEBUG_VALUE: HAL_SPI_Abort_IT:hspi <- $r4
	.loc	7 1772 8 is_stmt 1      @ ../Drivers/STM32F1xx_HAL_Driver/Src/stm32f1xx_hal_spi.c:1772:8
	ldr	r3, [r1, #4]
	and	r3, r3, #1
	rsbs	r3, r3, #0
	movw	r6, :lower16:SPI_DMARxAbortCallback
	movt	r6, :upper16:SPI_DMARxAbortCallback
	ands	r3, r6
	str	r3, [r2, #56]
.Ltmp601:
.LBB33_4:
	@DEBUG_VALUE: HAL_SPI_Abort_IT:hspi <- $r4
	.loc	7 1783 7                @ ../Drivers/STM32F1xx_HAL_Driver/Src/stm32f1xx_hal_spi.c:1783:7
	ldr	r2, [r1, #4]
	.loc	7 1783 61 is_stmt 0     @ ../Drivers/STM32F1xx_HAL_Driver/Src/stm32f1xx_hal_spi.c:1783:61
	tst.w	r2, #2
	beq	.LBB33_13
.Ltmp602:
@ %bb.5:
	@DEBUG_VALUE: HAL_SPI_Abort_IT:hspi <- $r4
	.loc	7 1783 65               @ ../Drivers/STM32F1xx_HAL_Driver/Src/stm32f1xx_hal_spi.c:1783:65
	ldr	r1, [r1, #4]
.Ltmp603:
	.loc	7 1783 6                @ ../Drivers/STM32F1xx_HAL_Driver/Src/stm32f1xx_hal_spi.c:1783:6
	tst.w	r1, #1
	beq	.LBB33_13
.Ltmp604:
@ %bb.6:
	@DEBUG_VALUE: HAL_SPI_Abort_IT:hspi <- $r4
	.loc	7 1786 8 is_stmt 1      @ ../Drivers/STM32F1xx_HAL_Driver/Src/stm32f1xx_hal_spi.c:1786:8
	cbz	r0, .LBB33_9
.Ltmp605:
@ %bb.7:
	@DEBUG_VALUE: HAL_SPI_Abort_IT:hspi <- $r4
	.loc	7 1789 10               @ ../Drivers/STM32F1xx_HAL_Driver/Src/stm32f1xx_hal_spi.c:1789:10
	bl	HAL_DMA_Abort_IT
	movs	r5, #0
.Ltmp606:
	.loc	7 1789 10 is_stmt 0     @ ../Drivers/STM32F1xx_HAL_Driver/Src/stm32f1xx_hal_spi.c:1789:10
	cbz	r0, .LBB33_10
.Ltmp607:
@ %bb.8:
	@DEBUG_VALUE: HAL_SPI_Abort_IT:hspi <- $r4
	.loc	7 1791 15 is_stmt 1     @ ../Drivers/STM32F1xx_HAL_Driver/Src/stm32f1xx_hal_spi.c:1791:15
	ldr	r0, [r4, #72]
	.loc	7 1791 41 is_stmt 0     @ ../Drivers/STM32F1xx_HAL_Driver/Src/stm32f1xx_hal_spi.c:1791:41
	str	r5, [r0, #56]
.Ltmp608:
.LBB33_9:
	@DEBUG_VALUE: HAL_SPI_Abort_IT:hspi <- $r4
	.loc	7 0 41                  @ ../Drivers/STM32F1xx_HAL_Driver/Src/stm32f1xx_hal_spi.c:0:41
	movs	r5, #1
.Ltmp609:
.LBB33_10:
	@DEBUG_VALUE: HAL_SPI_Abort_IT:hspi <- $r4
	.loc	7 1799 14 is_stmt 1     @ ../Drivers/STM32F1xx_HAL_Driver/Src/stm32f1xx_hal_spi.c:1799:14
	ldr	r0, [r4, #76]
.Ltmp610:
	.loc	7 1799 8 is_stmt 0      @ ../Drivers/STM32F1xx_HAL_Driver/Src/stm32f1xx_hal_spi.c:1799:8
	cbz	r0, .LBB33_14
.Ltmp611:
@ %bb.11:
	@DEBUG_VALUE: HAL_SPI_Abort_IT:hspi <- $r4
	.loc	7 1802 10 is_stmt 1     @ ../Drivers/STM32F1xx_HAL_Driver/Src/stm32f1xx_hal_spi.c:1802:10
	bl	HAL_DMA_Abort_IT
	movs	r5, #0
.Ltmp612:
	.loc	7 1802 10 is_stmt 0     @ ../Drivers/STM32F1xx_HAL_Driver/Src/stm32f1xx_hal_spi.c:1802:10
	cbz	r0, .LBB33_14
.Ltmp613:
@ %bb.12:
	@DEBUG_VALUE: HAL_SPI_Abort_IT:hspi <- $r4
	.loc	7 1804 15 is_stmt 1     @ ../Drivers/STM32F1xx_HAL_Driver/Src/stm32f1xx_hal_spi.c:1804:15
	ldr	r0, [r4, #76]
	.loc	7 1804 41 is_stmt 0     @ ../Drivers/STM32F1xx_HAL_Driver/Src/stm32f1xx_hal_spi.c:1804:41
	str	r5, [r0, #56]
.Ltmp614:
.LBB33_13:
	@DEBUG_VALUE: HAL_SPI_Abort_IT:hspi <- $r4
	.loc	7 0 41                  @ ../Drivers/STM32F1xx_HAL_Driver/Src/stm32f1xx_hal_spi.c:0:41
	movs	r5, #1
	@DEBUG_VALUE: HAL_SPI_Abort_IT:abortcplt <- 1
.Ltmp615:
.LBB33_14:
	@DEBUG_VALUE: HAL_SPI_Abort_IT:hspi <- $r4
	.loc	7 1815 7 is_stmt 1      @ ../Drivers/STM32F1xx_HAL_Driver/Src/stm32f1xx_hal_spi.c:1815:7
	ldr	r0, [r4]
	ldr	r0, [r0, #4]
.Ltmp616:
	.loc	7 1815 7 is_stmt 0      @ ../Drivers/STM32F1xx_HAL_Driver/Src/stm32f1xx_hal_spi.c:1815:7
	tst.w	r0, #2
	beq	.LBB33_18
.Ltmp617:
@ %bb.15:
	@DEBUG_VALUE: HAL_SPI_Abort_IT:hspi <- $r4
	.loc	7 1818 14 is_stmt 1     @ ../Drivers/STM32F1xx_HAL_Driver/Src/stm32f1xx_hal_spi.c:1818:14
	ldr	r0, [r4, #72]
.Ltmp618:
	.loc	7 1818 8 is_stmt 0      @ ../Drivers/STM32F1xx_HAL_Driver/Src/stm32f1xx_hal_spi.c:1818:8
	cbz	r0, .LBB33_18
.Ltmp619:
@ %bb.16:
	@DEBUG_VALUE: HAL_SPI_Abort_IT:hspi <- $r4
	.loc	7 1821 10 is_stmt 1     @ ../Drivers/STM32F1xx_HAL_Driver/Src/stm32f1xx_hal_spi.c:1821:10
	bl	HAL_DMA_Abort_IT
	movs	r6, #0
.Ltmp620:
	.loc	7 1821 10 is_stmt 0     @ ../Drivers/STM32F1xx_HAL_Driver/Src/stm32f1xx_hal_spi.c:1821:10
	cbz	r0, .LBB33_19
.Ltmp621:
@ %bb.17:
	@DEBUG_VALUE: HAL_SPI_Abort_IT:hspi <- $r4
	.loc	7 1823 15 is_stmt 1     @ ../Drivers/STM32F1xx_HAL_Driver/Src/stm32f1xx_hal_spi.c:1823:15
	ldr	r0, [r4, #72]
	.loc	7 1823 41 is_stmt 0     @ ../Drivers/STM32F1xx_HAL_Driver/Src/stm32f1xx_hal_spi.c:1823:41
	str	r6, [r0, #56]
.Ltmp622:
.LBB33_18:
	@DEBUG_VALUE: HAL_SPI_Abort_IT:hspi <- $r4
	.loc	7 0 41                  @ ../Drivers/STM32F1xx_HAL_Driver/Src/stm32f1xx_hal_spi.c:0:41
	mov	r6, r5
.Ltmp623:
.LBB33_19:
	@DEBUG_VALUE: HAL_SPI_Abort_IT:hspi <- $r4
	.loc	7 1832 7 is_stmt 1      @ ../Drivers/STM32F1xx_HAL_Driver/Src/stm32f1xx_hal_spi.c:1832:7
	ldr	r0, [r4]
	ldr	r0, [r0, #4]
.Ltmp624:
	.loc	7 1832 7 is_stmt 0      @ ../Drivers/STM32F1xx_HAL_Driver/Src/stm32f1xx_hal_spi.c:1832:7
	tst.w	r0, #1
	beq	.LBB33_23
.Ltmp625:
@ %bb.20:
	@DEBUG_VALUE: HAL_SPI_Abort_IT:hspi <- $r4
	.loc	7 1835 14 is_stmt 1     @ ../Drivers/STM32F1xx_HAL_Driver/Src/stm32f1xx_hal_spi.c:1835:14
	ldr	r0, [r4, #76]
.Ltmp626:
	.loc	7 1835 8 is_stmt 0      @ ../Drivers/STM32F1xx_HAL_Driver/Src/stm32f1xx_hal_spi.c:1835:8
	cbz	r0, .LBB33_23
.Ltmp627:
@ %bb.21:
	@DEBUG_VALUE: HAL_SPI_Abort_IT:hspi <- $r4
	.loc	7 1838 10 is_stmt 1     @ ../Drivers/STM32F1xx_HAL_Driver/Src/stm32f1xx_hal_spi.c:1838:10
	bl	HAL_DMA_Abort_IT
.Ltmp628:
	.loc	7 1838 10 is_stmt 0     @ ../Drivers/STM32F1xx_HAL_Driver/Src/stm32f1xx_hal_spi.c:1838:10
	cbz	r0, .LBB33_25
.Ltmp629:
@ %bb.22:
	@DEBUG_VALUE: HAL_SPI_Abort_IT:hspi <- $r4
	.loc	7 1840 15 is_stmt 1     @ ../Drivers/STM32F1xx_HAL_Driver/Src/stm32f1xx_hal_spi.c:1840:15
	ldr	r0, [r4, #76]
	movs	r1, #0
	.loc	7 1840 41 is_stmt 0     @ ../Drivers/STM32F1xx_HAL_Driver/Src/stm32f1xx_hal_spi.c:1840:41
	str	r1, [r0, #56]
.Ltmp630:
.LBB33_23:
	@DEBUG_VALUE: HAL_SPI_Abort_IT:hspi <- $r4
	@DEBUG_VALUE: HAL_SPI_Abort_IT:abortcplt <- $r6
	.loc	7 1849 6 is_stmt 1      @ ../Drivers/STM32F1xx_HAL_Driver/Src/stm32f1xx_hal_spi.c:1849:6
	cbz	r6, .LBB33_25
.Ltmp631:
@ %bb.24:
	@DEBUG_VALUE: HAL_SPI_Abort_IT:abortcplt <- $r6
	@DEBUG_VALUE: HAL_SPI_Abort_IT:hspi <- $r4
	.loc	7 0 6 is_stmt 0         @ ../Drivers/STM32F1xx_HAL_Driver/Src/stm32f1xx_hal_spi.c:0:6
	movs	r0, #0
.Ltmp632:
	.loc	7 1852 23 is_stmt 1     @ ../Drivers/STM32F1xx_HAL_Driver/Src/stm32f1xx_hal_spi.c:1852:23
	strh	r0, [r4, #62]
	.loc	7 1853 23               @ ../Drivers/STM32F1xx_HAL_Driver/Src/stm32f1xx_hal_spi.c:1853:23
	strh	r0, [r4, #54]
	.loc	7 1856 21               @ ../Drivers/STM32F1xx_HAL_Driver/Src/stm32f1xx_hal_spi.c:1856:21
	str	r0, [r4, #88]
.Ltmp633:
	@DEBUG_VALUE: tmpreg_ovr <- 0
	.loc	7 1859 5                @ ../Drivers/STM32F1xx_HAL_Driver/Src/stm32f1xx_hal_spi.c:1859:5
	str	r0, [sp, #4]
	ldr	r0, [r4]
	ldr	r1, [r0, #12]
.Ltmp634:
	@DEBUG_VALUE: tmpreg_ovr <- $r1
	str	r1, [sp, #4]
	ldr	r0, [r0, #8]
.Ltmp635:
	@DEBUG_VALUE: tmpreg_ovr <- $r0
	str	r0, [sp, #4]
	ldr	r0, [sp, #4]
.Ltmp636:
	@DEBUG_VALUE: tmpreg_ovr <- $r0
	.loc	7 1862 17               @ ../Drivers/STM32F1xx_HAL_Driver/Src/stm32f1xx_hal_spi.c:1862:17
	movs	r0, #1
.Ltmp637:
	str	r0, [r4, #84]
	.loc	7 1865 5                @ ../Drivers/STM32F1xx_HAL_Driver/Src/stm32f1xx_hal_spi.c:1865:5
	mov	r0, r4
	bl	HAL_SPI_AbortCpltCallback
.Ltmp638:
.LBB33_25:
	@DEBUG_VALUE: HAL_SPI_Abort_IT:hspi <- $r4
	.loc	7 1867 3                @ ../Drivers/STM32F1xx_HAL_Driver/Src/stm32f1xx_hal_spi.c:1867:3
	movs	r0, #0
	add	sp, #8
	pop	{r4, r5, r6, pc}
.Ltmp639:
.Lfunc_end33:
	.size	HAL_SPI_Abort_IT, .Lfunc_end33-HAL_SPI_Abort_IT
	.cfi_endproc
	.cantunwind
	.fnend
                                        @ -- End function
	.section	.text.SPI_DMATxAbortCallback,"ax",%progbits
	.p2align	2               @ -- Begin function SPI_DMATxAbortCallback
	.type	SPI_DMATxAbortCallback,%function
	.code	16                      @ @SPI_DMATxAbortCallback
	.thumb_func
SPI_DMATxAbortCallback:
.Lfunc_begin34:
	.loc	7 2485 0                @ ../Drivers/STM32F1xx_HAL_Driver/Src/stm32f1xx_hal_spi.c:2485:0
	.fnstart
	.cfi_startproc
@ %bb.0:
	.save	{r7, lr}
	push	{r7, lr}
	.cfi_def_cfa_offset 8
	.cfi_offset lr, -4
	.cfi_offset r7, -8
	.pad	#8
	sub	sp, #8
	.cfi_def_cfa_offset 16
	@DEBUG_VALUE: SPI_DMATxAbortCallback:hdma <- $r0
	@DEBUG_VALUE: SPI_DMATxAbortCallback:hdma <- $r0
.Ltmp640:
	.loc	7 2486 48 prologue_end  @ ../Drivers/STM32F1xx_HAL_Driver/Src/stm32f1xx_hal_spi.c:2486:48
	movw	r1, :lower16:SystemCoreClock
	movt	r1, :upper16:SystemCoreClock
	ldr	r1, [r1]
	.loc	7 2486 70 is_stmt 0     @ ../Drivers/STM32F1xx_HAL_Driver/Src/stm32f1xx_hal_spi.c:2486:70
	movw	r2, #6641
	movt	r2, #1398
	umull	r1, r2, r1, r2
	lsrs	r1, r2, #9
	.loc	7 2486 45               @ ../Drivers/STM32F1xx_HAL_Driver/Src/stm32f1xx_hal_spi.c:2486:45
	movs	r2, #100
	muls	r1, r2, r1
.Ltmp641:
	@DEBUG_VALUE: SPI_DMATxAbortCallback:count <- $r1
	.loc	7 2486 17               @ ../Drivers/STM32F1xx_HAL_Driver/Src/stm32f1xx_hal_spi.c:2486:17
	str	r1, [sp, #4]
	.loc	7 2487 80 is_stmt 1     @ ../Drivers/STM32F1xx_HAL_Driver/Src/stm32f1xx_hal_spi.c:2487:80
	ldr	r0, [r0, #40]
.Ltmp642:
	@DEBUG_VALUE: SPI_DMATxAbortCallback:hspi <- $r0
	.loc	7 2489 9                @ ../Drivers/STM32F1xx_HAL_Driver/Src/stm32f1xx_hal_spi.c:2489:9
	ldr	r1, [r0, #72]
.Ltmp643:
	.loc	7 0 9 is_stmt 0         @ ../Drivers/STM32F1xx_HAL_Driver/Src/stm32f1xx_hal_spi.c:0:9
	movs	r2, #0
	.loc	7 2489 35               @ ../Drivers/STM32F1xx_HAL_Driver/Src/stm32f1xx_hal_spi.c:2489:35
	str	r2, [r1, #56]
	.loc	7 2492 3 is_stmt 1      @ ../Drivers/STM32F1xx_HAL_Driver/Src/stm32f1xx_hal_spi.c:2492:3
	ldr	r1, [r0]
	ldr	r2, [r1, #4]
	bic	r2, r2, #2
	str	r2, [r1, #4]
.Ltmp644:
	.p2align	2
.LBB34_1:                               @ =>This Inner Loop Header: Depth=1
	@DEBUG_VALUE: SPI_DMATxAbortCallback:hspi <- $r0
	.loc	7 2497 13               @ ../Drivers/STM32F1xx_HAL_Driver/Src/stm32f1xx_hal_spi.c:2497:13
	ldr	r1, [sp, #4]
.Ltmp645:
	@DEBUG_VALUE: SPI_DMATxAbortCallback:count <- $r1
	subs	r2, r1, #1
.Ltmp646:
	@DEBUG_VALUE: SPI_DMATxAbortCallback:count <- $r2
	str	r2, [sp, #4]
.Ltmp647:
	.loc	7 2497 8 is_stmt 0      @ ../Drivers/STM32F1xx_HAL_Driver/Src/stm32f1xx_hal_spi.c:2497:8
	cbz	r1, .LBB34_3
.Ltmp648:
@ %bb.2:                                @   in Loop: Header=BB34_1 Depth=1
	@DEBUG_VALUE: SPI_DMATxAbortCallback:count <- $r2
	@DEBUG_VALUE: SPI_DMATxAbortCallback:hspi <- $r0
	.loc	7 2503 16 is_stmt 1     @ ../Drivers/STM32F1xx_HAL_Driver/Src/stm32f1xx_hal_spi.c:2503:16
	ldr	r1, [r0]
	.loc	7 2503 26 is_stmt 0     @ ../Drivers/STM32F1xx_HAL_Driver/Src/stm32f1xx_hal_spi.c:2503:26
	ldr	r1, [r1, #8]
.Ltmp649:
	.loc	7 2502 3 is_stmt 1      @ ../Drivers/STM32F1xx_HAL_Driver/Src/stm32f1xx_hal_spi.c:2502:3
	tst.w	r1, #2
	beq	.LBB34_1
	b	.LBB34_4
.Ltmp650:
.LBB34_3:
	@DEBUG_VALUE: SPI_DMATxAbortCallback:count <- $r2
	@DEBUG_VALUE: SPI_DMATxAbortCallback:hspi <- $r0
	.loc	7 2499 7                @ ../Drivers/STM32F1xx_HAL_Driver/Src/stm32f1xx_hal_spi.c:2499:7
	ldr	r1, [r0, #88]
	orr	r1, r1, #32
	str	r1, [r0, #88]
.Ltmp651:
.LBB34_4:
	@DEBUG_VALUE: SPI_DMATxAbortCallback:count <- $r2
	@DEBUG_VALUE: SPI_DMATxAbortCallback:hspi <- $r0
	.loc	7 2506 12               @ ../Drivers/STM32F1xx_HAL_Driver/Src/stm32f1xx_hal_spi.c:2506:12
	ldr	r1, [r0, #76]
.Ltmp652:
	.loc	7 2506 6 is_stmt 0      @ ../Drivers/STM32F1xx_HAL_Driver/Src/stm32f1xx_hal_spi.c:2506:6
	cbz	r1, .LBB34_7
.Ltmp653:
@ %bb.5:
	@DEBUG_VALUE: SPI_DMATxAbortCallback:count <- $r2
	@DEBUG_VALUE: SPI_DMATxAbortCallback:hspi <- $r0
	.loc	7 2508 22 is_stmt 1     @ ../Drivers/STM32F1xx_HAL_Driver/Src/stm32f1xx_hal_spi.c:2508:22
	ldr	r1, [r1, #56]
.Ltmp654:
	.loc	7 2508 8 is_stmt 0      @ ../Drivers/STM32F1xx_HAL_Driver/Src/stm32f1xx_hal_spi.c:2508:8
	cbz	r1, .LBB34_7
.Ltmp655:
@ %bb.6:
	@DEBUG_VALUE: SPI_DMATxAbortCallback:count <- $r2
	@DEBUG_VALUE: SPI_DMATxAbortCallback:hspi <- $r0
	.loc	7 2526 1 is_stmt 1      @ ../Drivers/STM32F1xx_HAL_Driver/Src/stm32f1xx_hal_spi.c:2526:1
	add	sp, #8
	pop	{r7, pc}
.Ltmp656:
.LBB34_7:
	@DEBUG_VALUE: SPI_DMATxAbortCallback:count <- $r2
	@DEBUG_VALUE: SPI_DMATxAbortCallback:hspi <- $r0
	.loc	7 0 1 is_stmt 0         @ ../Drivers/STM32F1xx_HAL_Driver/Src/stm32f1xx_hal_spi.c:0:1
	movs	r1, #0
	.loc	7 2515 21 is_stmt 1     @ ../Drivers/STM32F1xx_HAL_Driver/Src/stm32f1xx_hal_spi.c:2515:21
	strh	r1, [r0, #62]
	.loc	7 2516 21               @ ../Drivers/STM32F1xx_HAL_Driver/Src/stm32f1xx_hal_spi.c:2516:21
	strh	r1, [r0, #54]
	.loc	7 2519 19               @ ../Drivers/STM32F1xx_HAL_Driver/Src/stm32f1xx_hal_spi.c:2519:19
	str	r1, [r0, #88]
	.loc	7 2522 16               @ ../Drivers/STM32F1xx_HAL_Driver/Src/stm32f1xx_hal_spi.c:2522:16
	movs	r1, #1
	str	r1, [r0, #84]
	.loc	7 2525 3                @ ../Drivers/STM32F1xx_HAL_Driver/Src/stm32f1xx_hal_spi.c:2525:3
	bl	HAL_SPI_AbortCpltCallback
.Ltmp657:
	.loc	7 2526 1                @ ../Drivers/STM32F1xx_HAL_Driver/Src/stm32f1xx_hal_spi.c:2526:1
	add	sp, #8
	pop	{r7, pc}
.Ltmp658:
.Lfunc_end34:
	.size	SPI_DMATxAbortCallback, .Lfunc_end34-SPI_DMATxAbortCallback
	.cfi_endproc
	.cantunwind
	.fnend
                                        @ -- End function
	.section	.text.SPI_DMARxAbortCallback,"ax",%progbits
	.p2align	2               @ -- Begin function SPI_DMARxAbortCallback
	.type	SPI_DMARxAbortCallback,%function
	.code	16                      @ @SPI_DMARxAbortCallback
	.thumb_func
SPI_DMARxAbortCallback:
.Lfunc_begin35:
	.loc	7 2537 0                @ ../Drivers/STM32F1xx_HAL_Driver/Src/stm32f1xx_hal_spi.c:2537:0
	.fnstart
	.cfi_startproc
@ %bb.0:
	@DEBUG_VALUE: SPI_DMARxAbortCallback:hdma <- $r0
	@DEBUG_VALUE: SPI_DMARxAbortCallback:hdma <- $r0
	.loc	7 2538 80 prologue_end  @ ../Drivers/STM32F1xx_HAL_Driver/Src/stm32f1xx_hal_spi.c:2538:80
	ldr	r0, [r0, #40]
.Ltmp659:
	@DEBUG_VALUE: SPI_DMARxAbortCallback:hspi <- $r0
	.loc	7 2541 3                @ ../Drivers/STM32F1xx_HAL_Driver/Src/stm32f1xx_hal_spi.c:2541:3
	ldr	r2, [r0]
	ldr	r1, [r2]
	bic	r1, r1, #64
	str	r1, [r2]
	.loc	7 2543 9                @ ../Drivers/STM32F1xx_HAL_Driver/Src/stm32f1xx_hal_spi.c:2543:9
	ldr	r3, [r0, #76]
	movs	r1, #0
	.loc	7 2543 35 is_stmt 0     @ ../Drivers/STM32F1xx_HAL_Driver/Src/stm32f1xx_hal_spi.c:2543:35
	str	r1, [r3, #56]
	.loc	7 2546 3 is_stmt 1      @ ../Drivers/STM32F1xx_HAL_Driver/Src/stm32f1xx_hal_spi.c:2546:3
	ldr	r3, [r2, #4]
	bic	r3, r3, #1
	str	r3, [r2, #4]
.Ltmp660:
	.loc	7 2549 12               @ ../Drivers/STM32F1xx_HAL_Driver/Src/stm32f1xx_hal_spi.c:2549:12
	ldr	r2, [r0, #72]
.Ltmp661:
	.loc	7 2549 6 is_stmt 0      @ ../Drivers/STM32F1xx_HAL_Driver/Src/stm32f1xx_hal_spi.c:2549:6
	cbz	r2, .LBB35_2
.Ltmp662:
@ %bb.1:
	@DEBUG_VALUE: SPI_DMARxAbortCallback:hspi <- $r0
	.loc	7 2551 22 is_stmt 1     @ ../Drivers/STM32F1xx_HAL_Driver/Src/stm32f1xx_hal_spi.c:2551:22
	ldr	r2, [r2, #56]
.Ltmp663:
	.loc	7 2551 8 is_stmt 0      @ ../Drivers/STM32F1xx_HAL_Driver/Src/stm32f1xx_hal_spi.c:2551:8
	cmp	r2, #0
.Ltmp664:
	.loc	7 2572 1 is_stmt 1      @ ../Drivers/STM32F1xx_HAL_Driver/Src/stm32f1xx_hal_spi.c:2572:1
	it	ne
	bxne	lr
.Ltmp665:
.LBB35_2:
	@DEBUG_VALUE: SPI_DMARxAbortCallback:hspi <- $r0
	.loc	7 0 1 is_stmt 0         @ ../Drivers/STM32F1xx_HAL_Driver/Src/stm32f1xx_hal_spi.c:0:1
	.pad	#4
	sub	sp, #4
	.cfi_def_cfa_offset 4
	.loc	7 2558 21 is_stmt 1     @ ../Drivers/STM32F1xx_HAL_Driver/Src/stm32f1xx_hal_spi.c:2558:21
	strh	r1, [r0, #62]
	.loc	7 2559 21               @ ../Drivers/STM32F1xx_HAL_Driver/Src/stm32f1xx_hal_spi.c:2559:21
	strh	r1, [r0, #54]
	.loc	7 2562 19               @ ../Drivers/STM32F1xx_HAL_Driver/Src/stm32f1xx_hal_spi.c:2562:19
	str	r1, [r0, #88]
.Ltmp666:
	@DEBUG_VALUE: tmpreg_ovr <- 0
	.loc	7 2565 3                @ ../Drivers/STM32F1xx_HAL_Driver/Src/stm32f1xx_hal_spi.c:2565:3
	str	r1, [sp]
	ldr	r1, [r0]
	ldr	r1, [r1, #12]
.Ltmp667:
	@DEBUG_VALUE: tmpreg_ovr <- $r1
	str	r1, [sp]
	ldr	r1, [r0]
.Ltmp668:
	ldr	r1, [r1, #8]
.Ltmp669:
	@DEBUG_VALUE: tmpreg_ovr <- $r1
	str	r1, [sp]
	ldr	r1, [sp]
.Ltmp670:
	@DEBUG_VALUE: tmpreg_ovr <- $r1
	.loc	7 2568 16               @ ../Drivers/STM32F1xx_HAL_Driver/Src/stm32f1xx_hal_spi.c:2568:16
	movs	r1, #1
.Ltmp671:
	str	r1, [r0, #84]
	.loc	7 2571 3                @ ../Drivers/STM32F1xx_HAL_Driver/Src/stm32f1xx_hal_spi.c:2571:3
	add	sp, #4
	b	HAL_SPI_AbortCpltCallback
.Ltmp672:
.Lfunc_end35:
	.size	SPI_DMARxAbortCallback, .Lfunc_end35-SPI_DMARxAbortCallback
	.cfi_endproc
	.cantunwind
	.fnend
                                        @ -- End function
	.section	.text.HAL_SPI_AbortCpltCallback,"ax",%progbits
	.hidden	HAL_SPI_AbortCpltCallback @ -- Begin function HAL_SPI_AbortCpltCallback
	.weak	HAL_SPI_AbortCpltCallback
	.p2align	2
	.type	HAL_SPI_AbortCpltCallback,%function
	.code	16                      @ @HAL_SPI_AbortCpltCallback
	.thumb_func
HAL_SPI_AbortCpltCallback:
.Lfunc_begin36:
	.loc	7 2144 0                @ ../Drivers/STM32F1xx_HAL_Driver/Src/stm32f1xx_hal_spi.c:2144:0
	.fnstart
	.cfi_startproc
@ %bb.0:
	@DEBUG_VALUE: HAL_SPI_AbortCpltCallback:hspi <- $r0
	.loc	7 2151 1 prologue_end   @ ../Drivers/STM32F1xx_HAL_Driver/Src/stm32f1xx_hal_spi.c:2151:1
	bx	lr
.Ltmp673:
.Lfunc_end36:
	.size	HAL_SPI_AbortCpltCallback, .Lfunc_end36-HAL_SPI_AbortCpltCallback
	.cfi_endproc
	.cantunwind
	.fnend
                                        @ -- End function
	.section	.text.HAL_SPI_DMAPause,"ax",%progbits
	.hidden	HAL_SPI_DMAPause        @ -- Begin function HAL_SPI_DMAPause
	.globl	HAL_SPI_DMAPause
	.p2align	2
	.type	HAL_SPI_DMAPause,%function
	.code	16                      @ @HAL_SPI_DMAPause
	.thumb_func
HAL_SPI_DMAPause:
.Lfunc_begin37:
	.loc	7 1877 0                @ ../Drivers/STM32F1xx_HAL_Driver/Src/stm32f1xx_hal_spi.c:1877:0
	.fnstart
	.cfi_startproc
@ %bb.0:
	@DEBUG_VALUE: HAL_SPI_DMAPause:hspi <- $r0
	@DEBUG_VALUE: HAL_SPI_DMAPause:hspi <- $r0
	.loc	7 1879 3 prologue_end   @ ../Drivers/STM32F1xx_HAL_Driver/Src/stm32f1xx_hal_spi.c:1879:3
	ldr	r1, [r0, #80]
.Ltmp674:
	.loc	7 1879 3 is_stmt 0      @ ../Drivers/STM32F1xx_HAL_Driver/Src/stm32f1xx_hal_spi.c:1879:3
	cmp	r1, #1
	ittt	eq
	moveq	r1, #2
.Ltmp675:
	.loc	7 1888 1 is_stmt 1      @ ../Drivers/STM32F1xx_HAL_Driver/Src/stm32f1xx_hal_spi.c:1888:1
	moveq	r0, r1
.Ltmp676:
	bxeq	lr
	.loc	7 1882 3                @ ../Drivers/STM32F1xx_HAL_Driver/Src/stm32f1xx_hal_spi.c:1882:3
	ldr	r1, [r0]
	ldr	r2, [r1, #4]
	bic	r2, r2, #3
	str	r2, [r1, #4]
	movs	r1, #0
.Ltmp677:
	.loc	7 1885 3                @ ../Drivers/STM32F1xx_HAL_Driver/Src/stm32f1xx_hal_spi.c:1885:3
	str	r1, [r0, #80]
.Ltmp678:
	.loc	7 1888 1                @ ../Drivers/STM32F1xx_HAL_Driver/Src/stm32f1xx_hal_spi.c:1888:1
	mov	r0, r1
	bx	lr
.Ltmp679:
.Lfunc_end37:
	.size	HAL_SPI_DMAPause, .Lfunc_end37-HAL_SPI_DMAPause
	.cfi_endproc
	.cantunwind
	.fnend
                                        @ -- End function
	.section	.text.HAL_SPI_DMAResume,"ax",%progbits
	.hidden	HAL_SPI_DMAResume       @ -- Begin function HAL_SPI_DMAResume
	.globl	HAL_SPI_DMAResume
	.p2align	2
	.type	HAL_SPI_DMAResume,%function
	.code	16                      @ @HAL_SPI_DMAResume
	.thumb_func
HAL_SPI_DMAResume:
.Lfunc_begin38:
	.loc	7 1897 0                @ ../Drivers/STM32F1xx_HAL_Driver/Src/stm32f1xx_hal_spi.c:1897:0
	.fnstart
	.cfi_startproc
@ %bb.0:
	@DEBUG_VALUE: HAL_SPI_DMAResume:hspi <- $r0
	@DEBUG_VALUE: HAL_SPI_DMAResume:hspi <- $r0
	.loc	7 1899 3 prologue_end   @ ../Drivers/STM32F1xx_HAL_Driver/Src/stm32f1xx_hal_spi.c:1899:3
	ldr	r1, [r0, #80]
.Ltmp680:
	.loc	7 1899 3 is_stmt 0      @ ../Drivers/STM32F1xx_HAL_Driver/Src/stm32f1xx_hal_spi.c:1899:3
	cmp	r1, #1
	ittt	eq
	moveq	r1, #2
.Ltmp681:
	.loc	7 1908 1 is_stmt 1      @ ../Drivers/STM32F1xx_HAL_Driver/Src/stm32f1xx_hal_spi.c:1908:1
	moveq	r0, r1
.Ltmp682:
	bxeq	lr
	.loc	7 1902 3                @ ../Drivers/STM32F1xx_HAL_Driver/Src/stm32f1xx_hal_spi.c:1902:3
	ldr	r1, [r0]
	ldr	r2, [r1, #4]
	orr	r2, r2, #3
	str	r2, [r1, #4]
	movs	r1, #0
.Ltmp683:
	.loc	7 1905 3                @ ../Drivers/STM32F1xx_HAL_Driver/Src/stm32f1xx_hal_spi.c:1905:3
	str	r1, [r0, #80]
.Ltmp684:
	.loc	7 1908 1                @ ../Drivers/STM32F1xx_HAL_Driver/Src/stm32f1xx_hal_spi.c:1908:1
	mov	r0, r1
	bx	lr
.Ltmp685:
.Lfunc_end38:
	.size	HAL_SPI_DMAResume, .Lfunc_end38-HAL_SPI_DMAResume
	.cfi_endproc
	.cantunwind
	.fnend
                                        @ -- End function
	.section	.text.HAL_SPI_DMAStop,"ax",%progbits
	.hidden	HAL_SPI_DMAStop         @ -- Begin function HAL_SPI_DMAStop
	.globl	HAL_SPI_DMAStop
	.p2align	2
	.type	HAL_SPI_DMAStop,%function
	.code	16                      @ @HAL_SPI_DMAStop
	.thumb_func
HAL_SPI_DMAStop:
.Lfunc_begin39:
	.loc	7 1917 0                @ ../Drivers/STM32F1xx_HAL_Driver/Src/stm32f1xx_hal_spi.c:1917:0
	.fnstart
	.cfi_startproc
@ %bb.0:
	.save	{r4, lr}
	push	{r4, lr}
	.cfi_def_cfa_offset 8
	.cfi_offset lr, -4
	.cfi_offset r4, -8
	@DEBUG_VALUE: HAL_SPI_DMAStop:hspi <- $r0
	mov	r4, r0
.Ltmp686:
	@DEBUG_VALUE: HAL_SPI_DMAStop:hspi <- $r4
	.loc	7 1925 12 prologue_end  @ ../Drivers/STM32F1xx_HAL_Driver/Src/stm32f1xx_hal_spi.c:1925:12
	ldr	r0, [r0, #72]
.Ltmp687:
	.loc	7 1925 6 is_stmt 0      @ ../Drivers/STM32F1xx_HAL_Driver/Src/stm32f1xx_hal_spi.c:1925:6
	cmp	r0, #0
.Ltmp688:
	.loc	7 1927 5 is_stmt 1      @ ../Drivers/STM32F1xx_HAL_Driver/Src/stm32f1xx_hal_spi.c:1927:5
	it	ne
	blne	HAL_DMA_Abort
.Ltmp689:
	.loc	7 1930 12               @ ../Drivers/STM32F1xx_HAL_Driver/Src/stm32f1xx_hal_spi.c:1930:12
	ldr	r0, [r4, #76]
.Ltmp690:
	.loc	7 1930 6 is_stmt 0      @ ../Drivers/STM32F1xx_HAL_Driver/Src/stm32f1xx_hal_spi.c:1930:6
	cmp	r0, #0
.Ltmp691:
	.loc	7 1932 5 is_stmt 1      @ ../Drivers/STM32F1xx_HAL_Driver/Src/stm32f1xx_hal_spi.c:1932:5
	it	ne
	blne	HAL_DMA_Abort
.Ltmp692:
	.loc	7 1936 3                @ ../Drivers/STM32F1xx_HAL_Driver/Src/stm32f1xx_hal_spi.c:1936:3
	ldr	r0, [r4]
	ldr	r1, [r0, #4]
	bic	r1, r1, #3
	str	r1, [r0, #4]
	.loc	7 1937 15               @ ../Drivers/STM32F1xx_HAL_Driver/Src/stm32f1xx_hal_spi.c:1937:15
	movs	r0, #1
	str	r0, [r4, #84]
	.loc	7 1938 3                @ ../Drivers/STM32F1xx_HAL_Driver/Src/stm32f1xx_hal_spi.c:1938:3
	movs	r0, #0
	pop	{r4, pc}
.Ltmp693:
.Lfunc_end39:
	.size	HAL_SPI_DMAStop, .Lfunc_end39-HAL_SPI_DMAStop
	.cfi_endproc
	.cantunwind
	.fnend
                                        @ -- End function
	.section	.text.HAL_SPI_IRQHandler,"ax",%progbits
	.hidden	HAL_SPI_IRQHandler      @ -- Begin function HAL_SPI_IRQHandler
	.globl	HAL_SPI_IRQHandler
	.p2align	2
	.type	HAL_SPI_IRQHandler,%function
	.code	16                      @ @HAL_SPI_IRQHandler
	.thumb_func
HAL_SPI_IRQHandler:
.Lfunc_begin40:
	.loc	7 1948 0                @ ../Drivers/STM32F1xx_HAL_Driver/Src/stm32f1xx_hal_spi.c:1948:0
	.fnstart
	.cfi_startproc
@ %bb.0:
	.save	{r4, lr}
	push	{r4, lr}
	.cfi_def_cfa_offset 8
	.cfi_offset lr, -4
	.cfi_offset r4, -8
	.pad	#16
	sub	sp, #16
	.cfi_def_cfa_offset 24
	@DEBUG_VALUE: HAL_SPI_IRQHandler:hspi <- $r0
	mov	r4, r0
.Ltmp694:
	@DEBUG_VALUE: HAL_SPI_IRQHandler:hspi <- $r4
	.loc	7 1949 29 prologue_end  @ ../Drivers/STM32F1xx_HAL_Driver/Src/stm32f1xx_hal_spi.c:1949:29
	ldr	r0, [r0]
	.loc	7 1949 39 is_stmt 0     @ ../Drivers/STM32F1xx_HAL_Driver/Src/stm32f1xx_hal_spi.c:1949:39
	ldr	r1, [r0, #4]
.Ltmp695:
	@DEBUG_VALUE: HAL_SPI_IRQHandler:itsource <- $r1
	.loc	7 1950 39 is_stmt 1     @ ../Drivers/STM32F1xx_HAL_Driver/Src/stm32f1xx_hal_spi.c:1950:39
	ldr	r2, [r0, #8]
.Ltmp696:
	@DEBUG_VALUE: HAL_SPI_IRQHandler:itflag <- $r2
	.loc	7 1953 41               @ ../Drivers/STM32F1xx_HAL_Driver/Src/stm32f1xx_hal_spi.c:1953:41
	tst.w	r1, #64
	beq	.LBB40_3
.Ltmp697:
@ %bb.1:
	@DEBUG_VALUE: HAL_SPI_IRQHandler:itflag <- $r2
	@DEBUG_VALUE: HAL_SPI_IRQHandler:itsource <- $r1
	@DEBUG_VALUE: HAL_SPI_IRQHandler:hspi <- $r4
	and	r3, r2, #65
	cmp	r3, #1
	bne	.LBB40_3
.Ltmp698:
@ %bb.2:
	@DEBUG_VALUE: HAL_SPI_IRQHandler:itflag <- $r2
	@DEBUG_VALUE: HAL_SPI_IRQHandler:itsource <- $r1
	@DEBUG_VALUE: HAL_SPI_IRQHandler:hspi <- $r4
	.loc	7 1956 11               @ ../Drivers/STM32F1xx_HAL_Driver/Src/stm32f1xx_hal_spi.c:1956:11
	ldr	r1, [r4, #64]
.Ltmp699:
	.loc	7 0 11 is_stmt 0        @ ../Drivers/STM32F1xx_HAL_Driver/Src/stm32f1xx_hal_spi.c:0:11
	b	.LBB40_6
.Ltmp700:
.LBB40_3:
	@DEBUG_VALUE: HAL_SPI_IRQHandler:itflag <- $r2
	@DEBUG_VALUE: HAL_SPI_IRQHandler:itsource <- $r1
	@DEBUG_VALUE: HAL_SPI_IRQHandler:hspi <- $r4
	.loc	7 1961 41 is_stmt 1     @ ../Drivers/STM32F1xx_HAL_Driver/Src/stm32f1xx_hal_spi.c:1961:41
	lsls	r3, r1, #24
	bpl	.LBB40_7
.Ltmp701:
@ %bb.4:
	@DEBUG_VALUE: HAL_SPI_IRQHandler:itflag <- $r2
	@DEBUG_VALUE: HAL_SPI_IRQHandler:itsource <- $r1
	@DEBUG_VALUE: HAL_SPI_IRQHandler:hspi <- $r4
	.loc	7 0 41 is_stmt 0        @ ../Drivers/STM32F1xx_HAL_Driver/Src/stm32f1xx_hal_spi.c:0:41
	ands	r3, r2, #2
	.loc	7 1961 41               @ ../Drivers/STM32F1xx_HAL_Driver/Src/stm32f1xx_hal_spi.c:1961:41
	beq	.LBB40_7
.Ltmp702:
@ %bb.5:
	@DEBUG_VALUE: HAL_SPI_IRQHandler:itflag <- $r2
	@DEBUG_VALUE: HAL_SPI_IRQHandler:itsource <- $r1
	@DEBUG_VALUE: HAL_SPI_IRQHandler:hspi <- $r4
	.loc	7 1963 11 is_stmt 1     @ ../Drivers/STM32F1xx_HAL_Driver/Src/stm32f1xx_hal_spi.c:1963:11
	ldr	r1, [r4, #68]
.Ltmp703:
.LBB40_6:
	@DEBUG_VALUE: HAL_SPI_IRQHandler:itflag <- $r2
	@DEBUG_VALUE: HAL_SPI_IRQHandler:hspi <- $r4
	.loc	7 0 11 is_stmt 0        @ ../Drivers/STM32F1xx_HAL_Driver/Src/stm32f1xx_hal_spi.c:0:11
	mov	r0, r4
	add	sp, #16
	pop.w	{r4, lr}
.Ltmp704:
	bx	r1
.Ltmp705:
.LBB40_7:
	@DEBUG_VALUE: HAL_SPI_IRQHandler:itflag <- $r2
	@DEBUG_VALUE: HAL_SPI_IRQHandler:itsource <- $r1
	@DEBUG_VALUE: HAL_SPI_IRQHandler:hspi <- $r4
	.loc	7 1968 59 is_stmt 1     @ ../Drivers/STM32F1xx_HAL_Driver/Src/stm32f1xx_hal_spi.c:1968:59
	lsls	r3, r1, #26
	bpl	.LBB40_21
.Ltmp706:
@ %bb.8:
	@DEBUG_VALUE: HAL_SPI_IRQHandler:itflag <- $r2
	@DEBUG_VALUE: HAL_SPI_IRQHandler:itsource <- $r1
	@DEBUG_VALUE: HAL_SPI_IRQHandler:hspi <- $r4
	.loc	7 0 59 is_stmt 0        @ ../Drivers/STM32F1xx_HAL_Driver/Src/stm32f1xx_hal_spi.c:0:59
	ands	r3, r2, #96
	.loc	7 1968 59               @ ../Drivers/STM32F1xx_HAL_Driver/Src/stm32f1xx_hal_spi.c:1968:59
	beq	.LBB40_21
.Ltmp707:
@ %bb.9:
	@DEBUG_VALUE: HAL_SPI_IRQHandler:itflag <- $r2
	@DEBUG_VALUE: HAL_SPI_IRQHandler:itsource <- $r1
	@DEBUG_VALUE: HAL_SPI_IRQHandler:hspi <- $r4
	.loc	7 0 59                  @ ../Drivers/STM32F1xx_HAL_Driver/Src/stm32f1xx_hal_spi.c:0:59
	ands	r3, r2, #64
.Ltmp708:
	.loc	7 1971 8 is_stmt 1      @ ../Drivers/STM32F1xx_HAL_Driver/Src/stm32f1xx_hal_spi.c:1971:8
	beq	.LBB40_13
.Ltmp709:
@ %bb.10:
	@DEBUG_VALUE: HAL_SPI_IRQHandler:itflag <- $r2
	@DEBUG_VALUE: HAL_SPI_IRQHandler:itsource <- $r1
	@DEBUG_VALUE: HAL_SPI_IRQHandler:hspi <- $r4
	.loc	7 1973 16               @ ../Drivers/STM32F1xx_HAL_Driver/Src/stm32f1xx_hal_spi.c:1973:16
	ldr	r3, [r4, #84]
.Ltmp710:
	.loc	7 1973 10 is_stmt 0     @ ../Drivers/STM32F1xx_HAL_Driver/Src/stm32f1xx_hal_spi.c:1973:10
	cmp	r3, #3
	bne	.LBB40_12
.Ltmp711:
@ %bb.11:
	@DEBUG_VALUE: HAL_SPI_IRQHandler:itflag <- $r2
	@DEBUG_VALUE: HAL_SPI_IRQHandler:itsource <- $r1
	@DEBUG_VALUE: HAL_SPI_IRQHandler:hspi <- $r4
	.loc	7 1980 9 is_stmt 1      @ ../Drivers/STM32F1xx_HAL_Driver/Src/stm32f1xx_hal_spi.c:1980:9
	movs	r1, #0
.Ltmp712:
	@DEBUG_VALUE: tmpreg_ovr <- 0
	str	r1, [sp, #8]
	ldr	r1, [r0, #12]
.Ltmp713:
	@DEBUG_VALUE: tmpreg_ovr <- $r1
	str	r1, [sp, #8]
	ldr	r0, [r0, #8]
.Ltmp714:
	@DEBUG_VALUE: tmpreg_ovr <- $r0
	str	r0, [sp, #8]
	ldr	r0, [sp, #8]
.Ltmp715:
	@DEBUG_VALUE: tmpreg_ovr <- $r0
	.loc	7 0 9 is_stmt 0         @ ../Drivers/STM32F1xx_HAL_Driver/Src/stm32f1xx_hal_spi.c:0:9
	b	.LBB40_21
.Ltmp716:
.LBB40_12:
	@DEBUG_VALUE: HAL_SPI_IRQHandler:itflag <- $r2
	@DEBUG_VALUE: HAL_SPI_IRQHandler:itsource <- $r1
	@DEBUG_VALUE: HAL_SPI_IRQHandler:hspi <- $r4
	.loc	7 1975 9 is_stmt 1      @ ../Drivers/STM32F1xx_HAL_Driver/Src/stm32f1xx_hal_spi.c:1975:9
	ldr	r3, [r4, #88]
	orr	r3, r3, #4
	str	r3, [r4, #88]
	movs	r3, #0
.Ltmp717:
	@DEBUG_VALUE: tmpreg_ovr <- 0
	.loc	7 1976 9                @ ../Drivers/STM32F1xx_HAL_Driver/Src/stm32f1xx_hal_spi.c:1976:9
	str	r3, [sp, #12]
	ldr	r3, [r0, #12]
.Ltmp718:
	@DEBUG_VALUE: tmpreg_ovr <- $r3
	str	r3, [sp, #12]
	ldr	r3, [r0, #8]
.Ltmp719:
	@DEBUG_VALUE: tmpreg_ovr <- $r3
	str	r3, [sp, #12]
	ldr	r3, [sp, #12]
.Ltmp720:
	@DEBUG_VALUE: tmpreg_ovr <- $r3
.LBB40_13:
	@DEBUG_VALUE: HAL_SPI_IRQHandler:itflag <- $r2
	@DEBUG_VALUE: HAL_SPI_IRQHandler:itsource <- $r1
	@DEBUG_VALUE: HAL_SPI_IRQHandler:hspi <- $r4
	.loc	7 1986 8                @ ../Drivers/STM32F1xx_HAL_Driver/Src/stm32f1xx_hal_spi.c:1986:8
	lsls	r2, r2, #26
.Ltmp721:
	bpl	.LBB40_15
.Ltmp722:
@ %bb.14:
	@DEBUG_VALUE: HAL_SPI_IRQHandler:itsource <- $r1
	@DEBUG_VALUE: HAL_SPI_IRQHandler:hspi <- $r4
	.loc	7 1988 7                @ ../Drivers/STM32F1xx_HAL_Driver/Src/stm32f1xx_hal_spi.c:1988:7
	ldr	r2, [r4, #88]
	orr	r2, r2, #1
	str	r2, [r4, #88]
	movs	r2, #0
.Ltmp723:
	@DEBUG_VALUE: tmpreg_modf <- 0
	.loc	7 1989 7                @ ../Drivers/STM32F1xx_HAL_Driver/Src/stm32f1xx_hal_spi.c:1989:7
	str	r2, [sp, #4]
	ldr	r2, [r0, #8]
.Ltmp724:
	@DEBUG_VALUE: tmpreg_modf <- $r2
	str	r2, [sp, #4]
	ldr	r2, [r0]
.Ltmp725:
	bic	r2, r2, #64
	str	r2, [r0]
	ldr	r2, [sp, #4]
.Ltmp726:
	@DEBUG_VALUE: tmpreg_modf <- $r2
.LBB40_15:
	@DEBUG_VALUE: HAL_SPI_IRQHandler:itsource <- $r1
	@DEBUG_VALUE: HAL_SPI_IRQHandler:hspi <- $r4
	.loc	7 1992 14               @ ../Drivers/STM32F1xx_HAL_Driver/Src/stm32f1xx_hal_spi.c:1992:14
	ldr	r2, [r4, #88]
.Ltmp727:
	.loc	7 1992 8 is_stmt 0      @ ../Drivers/STM32F1xx_HAL_Driver/Src/stm32f1xx_hal_spi.c:1992:8
	cbz	r2, .LBB40_21
.Ltmp728:
@ %bb.16:
	@DEBUG_VALUE: HAL_SPI_IRQHandler:itsource <- $r1
	@DEBUG_VALUE: HAL_SPI_IRQHandler:hspi <- $r4
	.loc	7 1995 7 is_stmt 1      @ ../Drivers/STM32F1xx_HAL_Driver/Src/stm32f1xx_hal_spi.c:1995:7
	ldr	r2, [r0, #4]
	bic	r2, r2, #224
	str	r2, [r0, #4]
	.loc	7 1997 19               @ ../Drivers/STM32F1xx_HAL_Driver/Src/stm32f1xx_hal_spi.c:1997:19
	movs	r2, #1
	str	r2, [r4, #84]
.Ltmp729:
	.loc	7 1999 54               @ ../Drivers/STM32F1xx_HAL_Driver/Src/stm32f1xx_hal_spi.c:1999:54
	lsls	r1, r1, #30
.Ltmp730:
	beq	.LBB40_22
.Ltmp731:
@ %bb.17:
	@DEBUG_VALUE: HAL_SPI_IRQHandler:hspi <- $r4
	.loc	7 2001 9                @ ../Drivers/STM32F1xx_HAL_Driver/Src/stm32f1xx_hal_spi.c:2001:9
	ldr	r1, [r0, #4]
	bic	r1, r1, #3
	str	r1, [r0, #4]
.Ltmp732:
	.loc	7 2004 18               @ ../Drivers/STM32F1xx_HAL_Driver/Src/stm32f1xx_hal_spi.c:2004:18
	ldr	r0, [r4, #76]
.Ltmp733:
	.loc	7 2004 12 is_stmt 0     @ ../Drivers/STM32F1xx_HAL_Driver/Src/stm32f1xx_hal_spi.c:2004:12
	cbz	r0, .LBB40_19
.Ltmp734:
@ %bb.18:
	@DEBUG_VALUE: HAL_SPI_IRQHandler:hspi <- $r4
	.loc	7 2008 43 is_stmt 1     @ ../Drivers/STM32F1xx_HAL_Driver/Src/stm32f1xx_hal_spi.c:2008:43
	movw	r1, :lower16:SPI_DMAAbortOnError
	movt	r1, :upper16:SPI_DMAAbortOnError
	str	r1, [r0, #56]
	.loc	7 2009 11               @ ../Drivers/STM32F1xx_HAL_Driver/Src/stm32f1xx_hal_spi.c:2009:11
	bl	HAL_DMA_Abort_IT
.Ltmp735:
.LBB40_19:
	@DEBUG_VALUE: HAL_SPI_IRQHandler:hspi <- $r4
	.loc	7 2012 18               @ ../Drivers/STM32F1xx_HAL_Driver/Src/stm32f1xx_hal_spi.c:2012:18
	ldr	r0, [r4, #72]
.Ltmp736:
	.loc	7 2012 12 is_stmt 0     @ ../Drivers/STM32F1xx_HAL_Driver/Src/stm32f1xx_hal_spi.c:2012:12
	cbz	r0, .LBB40_21
.Ltmp737:
@ %bb.20:
	@DEBUG_VALUE: HAL_SPI_IRQHandler:hspi <- $r4
	.loc	7 2016 43 is_stmt 1     @ ../Drivers/STM32F1xx_HAL_Driver/Src/stm32f1xx_hal_spi.c:2016:43
	movw	r1, :lower16:SPI_DMAAbortOnError
	movt	r1, :upper16:SPI_DMAAbortOnError
	str	r1, [r0, #56]
	.loc	7 2017 11               @ ../Drivers/STM32F1xx_HAL_Driver/Src/stm32f1xx_hal_spi.c:2017:11
	add	sp, #16
	pop.w	{r4, lr}
.Ltmp738:
	b	HAL_DMA_Abort_IT
.Ltmp739:
.LBB40_21:
	@DEBUG_VALUE: HAL_SPI_IRQHandler:hspi <- $r4
	.loc	7 2028 1                @ ../Drivers/STM32F1xx_HAL_Driver/Src/stm32f1xx_hal_spi.c:2028:1
	add	sp, #16
	pop	{r4, pc}
.Ltmp740:
.LBB40_22:
	@DEBUG_VALUE: HAL_SPI_IRQHandler:hspi <- $r4
	.loc	7 2023 9                @ ../Drivers/STM32F1xx_HAL_Driver/Src/stm32f1xx_hal_spi.c:2023:9
	mov	r0, r4
	add	sp, #16
	pop.w	{r4, lr}
.Ltmp741:
	b	HAL_SPI_ErrorCallback
.Ltmp742:
.Lfunc_end40:
	.size	HAL_SPI_IRQHandler, .Lfunc_end40-HAL_SPI_IRQHandler
	.cfi_endproc
	.cantunwind
	.fnend
                                        @ -- End function
	.section	.text.SPI_DMAAbortOnError,"ax",%progbits
	.p2align	2               @ -- Begin function SPI_DMAAbortOnError
	.type	SPI_DMAAbortOnError,%function
	.code	16                      @ @SPI_DMAAbortOnError
	.thumb_func
SPI_DMAAbortOnError:
.Lfunc_begin41:
	.loc	7 2468 0                @ ../Drivers/STM32F1xx_HAL_Driver/Src/stm32f1xx_hal_spi.c:2468:0
	.fnstart
	.cfi_startproc
@ %bb.0:
	@DEBUG_VALUE: SPI_DMAAbortOnError:hdma <- $r0
	@DEBUG_VALUE: SPI_DMAAbortOnError:hdma <- $r0
	.loc	7 2469 80 prologue_end  @ ../Drivers/STM32F1xx_HAL_Driver/Src/stm32f1xx_hal_spi.c:2469:80
	ldr	r0, [r0, #40]
.Ltmp743:
	@DEBUG_VALUE: SPI_DMAAbortOnError:hspi <- $r0
	.loc	7 2470 21               @ ../Drivers/STM32F1xx_HAL_Driver/Src/stm32f1xx_hal_spi.c:2470:21
	movs	r1, #0
	strh	r1, [r0, #62]
	.loc	7 2471 21               @ ../Drivers/STM32F1xx_HAL_Driver/Src/stm32f1xx_hal_spi.c:2471:21
	strh	r1, [r0, #54]
	.loc	7 2473 3                @ ../Drivers/STM32F1xx_HAL_Driver/Src/stm32f1xx_hal_spi.c:2473:3
	b	HAL_SPI_ErrorCallback
.Ltmp744:
.Lfunc_end41:
	.size	SPI_DMAAbortOnError, .Lfunc_end41-SPI_DMAAbortOnError
	.cfi_endproc
	.cantunwind
	.fnend
                                        @ -- End function
	.section	.text.HAL_SPI_ErrorCallback,"ax",%progbits
	.hidden	HAL_SPI_ErrorCallback   @ -- Begin function HAL_SPI_ErrorCallback
	.weak	HAL_SPI_ErrorCallback
	.p2align	2
	.type	HAL_SPI_ErrorCallback,%function
	.code	16                      @ @HAL_SPI_ErrorCallback
	.thumb_func
HAL_SPI_ErrorCallback:
.Lfunc_begin42:
	.loc	7 2127 0                @ ../Drivers/STM32F1xx_HAL_Driver/Src/stm32f1xx_hal_spi.c:2127:0
	.fnstart
	.cfi_startproc
@ %bb.0:
	@DEBUG_VALUE: HAL_SPI_ErrorCallback:hspi <- $r0
	.loc	7 2136 1 prologue_end   @ ../Drivers/STM32F1xx_HAL_Driver/Src/stm32f1xx_hal_spi.c:2136:1
	bx	lr
.Ltmp745:
.Lfunc_end42:
	.size	HAL_SPI_ErrorCallback, .Lfunc_end42-HAL_SPI_ErrorCallback
	.cfi_endproc
	.cantunwind
	.fnend
                                        @ -- End function
	.section	.text.HAL_SPI_TxCpltCallback,"ax",%progbits
	.hidden	HAL_SPI_TxCpltCallback  @ -- Begin function HAL_SPI_TxCpltCallback
	.weak	HAL_SPI_TxCpltCallback
	.p2align	2
	.type	HAL_SPI_TxCpltCallback,%function
	.code	16                      @ @HAL_SPI_TxCpltCallback
	.thumb_func
HAL_SPI_TxCpltCallback:
.Lfunc_begin43:
	.loc	7 2037 0                @ ../Drivers/STM32F1xx_HAL_Driver/Src/stm32f1xx_hal_spi.c:2037:0
	.fnstart
	.cfi_startproc
@ %bb.0:
	@DEBUG_VALUE: HAL_SPI_TxCpltCallback:hspi <- $r0
	.loc	7 2043 1 prologue_end   @ ../Drivers/STM32F1xx_HAL_Driver/Src/stm32f1xx_hal_spi.c:2043:1
	bx	lr
.Ltmp746:
.Lfunc_end43:
	.size	HAL_SPI_TxCpltCallback, .Lfunc_end43-HAL_SPI_TxCpltCallback
	.cfi_endproc
	.cantunwind
	.fnend
                                        @ -- End function
	.section	.text.HAL_SPI_RxCpltCallback,"ax",%progbits
	.hidden	HAL_SPI_RxCpltCallback  @ -- Begin function HAL_SPI_RxCpltCallback
	.weak	HAL_SPI_RxCpltCallback
	.p2align	2
	.type	HAL_SPI_RxCpltCallback,%function
	.code	16                      @ @HAL_SPI_RxCpltCallback
	.thumb_func
HAL_SPI_RxCpltCallback:
.Lfunc_begin44:
	.loc	7 2052 0                @ ../Drivers/STM32F1xx_HAL_Driver/Src/stm32f1xx_hal_spi.c:2052:0
	.fnstart
	.cfi_startproc
@ %bb.0:
	@DEBUG_VALUE: HAL_SPI_RxCpltCallback:hspi <- $r0
	.loc	7 2058 1 prologue_end   @ ../Drivers/STM32F1xx_HAL_Driver/Src/stm32f1xx_hal_spi.c:2058:1
	bx	lr
.Ltmp747:
.Lfunc_end44:
	.size	HAL_SPI_RxCpltCallback, .Lfunc_end44-HAL_SPI_RxCpltCallback
	.cfi_endproc
	.cantunwind
	.fnend
                                        @ -- End function
	.section	.text.HAL_SPI_TxRxCpltCallback,"ax",%progbits
	.hidden	HAL_SPI_TxRxCpltCallback @ -- Begin function HAL_SPI_TxRxCpltCallback
	.weak	HAL_SPI_TxRxCpltCallback
	.p2align	2
	.type	HAL_SPI_TxRxCpltCallback,%function
	.code	16                      @ @HAL_SPI_TxRxCpltCallback
	.thumb_func
HAL_SPI_TxRxCpltCallback:
.Lfunc_begin45:
	.loc	7 2067 0                @ ../Drivers/STM32F1xx_HAL_Driver/Src/stm32f1xx_hal_spi.c:2067:0
	.fnstart
	.cfi_startproc
@ %bb.0:
	@DEBUG_VALUE: HAL_SPI_TxRxCpltCallback:hspi <- $r0
	.loc	7 2073 1 prologue_end   @ ../Drivers/STM32F1xx_HAL_Driver/Src/stm32f1xx_hal_spi.c:2073:1
	bx	lr
.Ltmp748:
.Lfunc_end45:
	.size	HAL_SPI_TxRxCpltCallback, .Lfunc_end45-HAL_SPI_TxRxCpltCallback
	.cfi_endproc
	.cantunwind
	.fnend
                                        @ -- End function
	.section	.text.HAL_SPI_TxHalfCpltCallback,"ax",%progbits
	.hidden	HAL_SPI_TxHalfCpltCallback @ -- Begin function HAL_SPI_TxHalfCpltCallback
	.weak	HAL_SPI_TxHalfCpltCallback
	.p2align	2
	.type	HAL_SPI_TxHalfCpltCallback,%function
	.code	16                      @ @HAL_SPI_TxHalfCpltCallback
	.thumb_func
HAL_SPI_TxHalfCpltCallback:
.Lfunc_begin46:
	.loc	7 2082 0                @ ../Drivers/STM32F1xx_HAL_Driver/Src/stm32f1xx_hal_spi.c:2082:0
	.fnstart
	.cfi_startproc
@ %bb.0:
	@DEBUG_VALUE: HAL_SPI_TxHalfCpltCallback:hspi <- $r0
	.loc	7 2088 1 prologue_end   @ ../Drivers/STM32F1xx_HAL_Driver/Src/stm32f1xx_hal_spi.c:2088:1
	bx	lr
.Ltmp749:
.Lfunc_end46:
	.size	HAL_SPI_TxHalfCpltCallback, .Lfunc_end46-HAL_SPI_TxHalfCpltCallback
	.cfi_endproc
	.cantunwind
	.fnend
                                        @ -- End function
	.section	.text.HAL_SPI_RxHalfCpltCallback,"ax",%progbits
	.hidden	HAL_SPI_RxHalfCpltCallback @ -- Begin function HAL_SPI_RxHalfCpltCallback
	.weak	HAL_SPI_RxHalfCpltCallback
	.p2align	2
	.type	HAL_SPI_RxHalfCpltCallback,%function
	.code	16                      @ @HAL_SPI_RxHalfCpltCallback
	.thumb_func
HAL_SPI_RxHalfCpltCallback:
.Lfunc_begin47:
	.loc	7 2097 0                @ ../Drivers/STM32F1xx_HAL_Driver/Src/stm32f1xx_hal_spi.c:2097:0
	.fnstart
	.cfi_startproc
@ %bb.0:
	@DEBUG_VALUE: HAL_SPI_RxHalfCpltCallback:hspi <- $r0
	.loc	7 2103 1 prologue_end   @ ../Drivers/STM32F1xx_HAL_Driver/Src/stm32f1xx_hal_spi.c:2103:1
	bx	lr
.Ltmp750:
.Lfunc_end47:
	.size	HAL_SPI_RxHalfCpltCallback, .Lfunc_end47-HAL_SPI_RxHalfCpltCallback
	.cfi_endproc
	.cantunwind
	.fnend
                                        @ -- End function
	.section	.text.HAL_SPI_TxRxHalfCpltCallback,"ax",%progbits
	.hidden	HAL_SPI_TxRxHalfCpltCallback @ -- Begin function HAL_SPI_TxRxHalfCpltCallback
	.weak	HAL_SPI_TxRxHalfCpltCallback
	.p2align	2
	.type	HAL_SPI_TxRxHalfCpltCallback,%function
	.code	16                      @ @HAL_SPI_TxRxHalfCpltCallback
	.thumb_func
HAL_SPI_TxRxHalfCpltCallback:
.Lfunc_begin48:
	.loc	7 2112 0                @ ../Drivers/STM32F1xx_HAL_Driver/Src/stm32f1xx_hal_spi.c:2112:0
	.fnstart
	.cfi_startproc
@ %bb.0:
	@DEBUG_VALUE: HAL_SPI_TxRxHalfCpltCallback:hspi <- $r0
	.loc	7 2118 1 prologue_end   @ ../Drivers/STM32F1xx_HAL_Driver/Src/stm32f1xx_hal_spi.c:2118:1
	bx	lr
.Ltmp751:
.Lfunc_end48:
	.size	HAL_SPI_TxRxHalfCpltCallback, .Lfunc_end48-HAL_SPI_TxRxHalfCpltCallback
	.cfi_endproc
	.cantunwind
	.fnend
                                        @ -- End function
	.section	.text.HAL_SPI_GetState,"ax",%progbits
	.hidden	HAL_SPI_GetState        @ -- Begin function HAL_SPI_GetState
	.globl	HAL_SPI_GetState
	.p2align	2
	.type	HAL_SPI_GetState,%function
	.code	16                      @ @HAL_SPI_GetState
	.thumb_func
HAL_SPI_GetState:
.Lfunc_begin49:
	.loc	7 2179 0                @ ../Drivers/STM32F1xx_HAL_Driver/Src/stm32f1xx_hal_spi.c:2179:0
	.fnstart
	.cfi_startproc
@ %bb.0:
	@DEBUG_VALUE: HAL_SPI_GetState:hspi <- $r0
	@DEBUG_VALUE: HAL_SPI_GetState:hspi <- $r0
	.loc	7 2181 16 prologue_end  @ ../Drivers/STM32F1xx_HAL_Driver/Src/stm32f1xx_hal_spi.c:2181:16
	ldr	r0, [r0, #84]
.Ltmp752:
	.loc	7 2181 3 is_stmt 0      @ ../Drivers/STM32F1xx_HAL_Driver/Src/stm32f1xx_hal_spi.c:2181:3
	bx	lr
.Ltmp753:
.Lfunc_end49:
	.size	HAL_SPI_GetState, .Lfunc_end49-HAL_SPI_GetState
	.cfi_endproc
	.cantunwind
	.fnend
                                        @ -- End function
	.section	.text.HAL_SPI_GetError,"ax",%progbits
	.hidden	HAL_SPI_GetError        @ -- Begin function HAL_SPI_GetError
	.globl	HAL_SPI_GetError
	.p2align	2
	.type	HAL_SPI_GetError,%function
	.code	16                      @ @HAL_SPI_GetError
	.thumb_func
HAL_SPI_GetError:
.Lfunc_begin50:
	.loc	7 2191 0 is_stmt 1      @ ../Drivers/STM32F1xx_HAL_Driver/Src/stm32f1xx_hal_spi.c:2191:0
	.fnstart
	.cfi_startproc
@ %bb.0:
	@DEBUG_VALUE: HAL_SPI_GetError:hspi <- $r0
	@DEBUG_VALUE: HAL_SPI_GetError:hspi <- $r0
	.loc	7 2193 16 prologue_end  @ ../Drivers/STM32F1xx_HAL_Driver/Src/stm32f1xx_hal_spi.c:2193:16
	ldr	r0, [r0, #88]
.Ltmp754:
	.loc	7 2193 3 is_stmt 0      @ ../Drivers/STM32F1xx_HAL_Driver/Src/stm32f1xx_hal_spi.c:2193:3
	bx	lr
.Ltmp755:
.Lfunc_end50:
	.size	HAL_SPI_GetError, .Lfunc_end50-HAL_SPI_GetError
	.cfi_endproc
	.cantunwind
	.fnend
                                        @ -- End function
	.section	.text.SPI_ISCRCErrorValid,"ax",%progbits
	.hidden	SPI_ISCRCErrorValid     @ -- Begin function SPI_ISCRCErrorValid
	.weak	SPI_ISCRCErrorValid
	.p2align	2
	.type	SPI_ISCRCErrorValid,%function
	.code	16                      @ @SPI_ISCRCErrorValid
	.thumb_func
SPI_ISCRCErrorValid:
.Lfunc_begin51:
	.loc	7 3247 0 is_stmt 1      @ ../Drivers/STM32F1xx_HAL_Driver/Src/stm32f1xx_hal_spi.c:3247:0
	.fnstart
	.cfi_startproc
@ %bb.0:
	@DEBUG_VALUE: SPI_ISCRCErrorValid:hspi <- $r0
	.loc	7 3251 3 prologue_end   @ ../Drivers/STM32F1xx_HAL_Driver/Src/stm32f1xx_hal_spi.c:3251:3
	movs	r0, #1
	bx	lr
.Ltmp756:
.Lfunc_end51:
	.size	SPI_ISCRCErrorValid, .Lfunc_end51-SPI_ISCRCErrorValid
	.cfi_endproc
	.cantunwind
	.fnend
                                        @ -- End function
	.section	.text.SPI_CloseRxTx_ISR,"ax",%progbits
	.p2align	2               @ -- Begin function SPI_CloseRxTx_ISR
	.type	SPI_CloseRxTx_ISR,%function
	.code	16                      @ @SPI_CloseRxTx_ISR
	.thumb_func
SPI_CloseRxTx_ISR:
.Lfunc_begin52:
	.loc	7 2996 0                @ ../Drivers/STM32F1xx_HAL_Driver/Src/stm32f1xx_hal_spi.c:2996:0
	.fnstart
	.cfi_startproc
@ %bb.0:
	.save	{r4, lr}
	push	{r4, lr}
	.cfi_def_cfa_offset 8
	.cfi_offset lr, -4
	.cfi_offset r4, -8
	.pad	#8
	sub	sp, #8
	.cfi_def_cfa_offset 16
	@DEBUG_VALUE: SPI_CloseRxTx_ISR:hspi <- $r0
	mov	r4, r0
.Ltmp757:
	@DEBUG_VALUE: SPI_CloseRxTx_ISR:tickstart <- 0
	@DEBUG_VALUE: SPI_CloseRxTx_ISR:hspi <- $r4
	.loc	7 2998 48 prologue_end  @ ../Drivers/STM32F1xx_HAL_Driver/Src/stm32f1xx_hal_spi.c:2998:48
	movw	r0, :lower16:SystemCoreClock
	movt	r0, :upper16:SystemCoreClock
	ldr	r0, [r0]
	.loc	7 2998 70 is_stmt 0     @ ../Drivers/STM32F1xx_HAL_Driver/Src/stm32f1xx_hal_spi.c:2998:70
	movw	r1, #6641
	movt	r1, #1398
	umull	r0, r1, r0, r1
	lsrs	r0, r1, #9
	.loc	7 2998 45               @ ../Drivers/STM32F1xx_HAL_Driver/Src/stm32f1xx_hal_spi.c:2998:45
	movs	r1, #100
	muls	r0, r1, r0
.Ltmp758:
	@DEBUG_VALUE: SPI_CloseRxTx_ISR:count <- $r0
	.loc	7 2998 17               @ ../Drivers/STM32F1xx_HAL_Driver/Src/stm32f1xx_hal_spi.c:2998:17
	str	r0, [sp, #4]
	.loc	7 3000 15 is_stmt 1     @ ../Drivers/STM32F1xx_HAL_Driver/Src/stm32f1xx_hal_spi.c:3000:15
	bl	HAL_GetTick
.Ltmp759:
	mov	r2, r0
.Ltmp760:
	@DEBUG_VALUE: SPI_CloseRxTx_ISR:tickstart <- $r2
	.loc	7 3003 3                @ ../Drivers/STM32F1xx_HAL_Driver/Src/stm32f1xx_hal_spi.c:3003:3
	ldr	r0, [r4]
	ldr	r1, [r0, #4]
	bic	r1, r1, #32
	str	r1, [r0, #4]
.Ltmp761:
	.p2align	2
.LBB52_1:                               @ =>This Inner Loop Header: Depth=1
	@DEBUG_VALUE: SPI_CloseRxTx_ISR:tickstart <- $r2
	@DEBUG_VALUE: SPI_CloseRxTx_ISR:hspi <- $r4
	.loc	7 3008 13               @ ../Drivers/STM32F1xx_HAL_Driver/Src/stm32f1xx_hal_spi.c:3008:13
	ldr	r1, [sp, #4]
.Ltmp762:
	@DEBUG_VALUE: SPI_CloseRxTx_ISR:count <- $r1
	subs	r3, r1, #1
.Ltmp763:
	@DEBUG_VALUE: SPI_CloseRxTx_ISR:count <- $r3
	str	r3, [sp, #4]
.Ltmp764:
	.loc	7 3008 8 is_stmt 0      @ ../Drivers/STM32F1xx_HAL_Driver/Src/stm32f1xx_hal_spi.c:3008:8
	cbz	r1, .LBB52_3
.Ltmp765:
@ %bb.2:                                @   in Loop: Header=BB52_1 Depth=1
	@DEBUG_VALUE: SPI_CloseRxTx_ISR:count <- $r3
	@DEBUG_VALUE: SPI_CloseRxTx_ISR:tickstart <- $r2
	@DEBUG_VALUE: SPI_CloseRxTx_ISR:hspi <- $r4
	.loc	7 3014 26 is_stmt 1     @ ../Drivers/STM32F1xx_HAL_Driver/Src/stm32f1xx_hal_spi.c:3014:26
	ldr	r1, [r0, #8]
.Ltmp766:
	.loc	7 3013 3                @ ../Drivers/STM32F1xx_HAL_Driver/Src/stm32f1xx_hal_spi.c:3013:3
	tst.w	r1, #2
	beq	.LBB52_1
	b	.LBB52_4
.Ltmp767:
.LBB52_3:
	@DEBUG_VALUE: SPI_CloseRxTx_ISR:count <- $r3
	@DEBUG_VALUE: SPI_CloseRxTx_ISR:tickstart <- $r2
	@DEBUG_VALUE: SPI_CloseRxTx_ISR:hspi <- $r4
	.loc	7 3010 7                @ ../Drivers/STM32F1xx_HAL_Driver/Src/stm32f1xx_hal_spi.c:3010:7
	ldr	r0, [r4, #88]
	orr	r0, r0, #32
	str	r0, [r4, #88]
.Ltmp768:
.LBB52_4:
	@DEBUG_VALUE: SPI_CloseRxTx_ISR:count <- $r3
	@DEBUG_VALUE: SPI_CloseRxTx_ISR:tickstart <- $r2
	@DEBUG_VALUE: SPI_CloseRxTx_ISR:hspi <- $r4
	.loc	7 3017 6                @ ../Drivers/STM32F1xx_HAL_Driver/Src/stm32f1xx_hal_spi.c:3017:6
	mov	r0, r4
	movs	r1, #100
	bl	SPI_CheckFlag_BSY
.Ltmp769:
	.loc	7 3017 6 is_stmt 0      @ ../Drivers/STM32F1xx_HAL_Driver/Src/stm32f1xx_hal_spi.c:3017:6
	cmp	r0, #0
.Ltmp770:
	.loc	7 3019 5 is_stmt 1      @ ../Drivers/STM32F1xx_HAL_Driver/Src/stm32f1xx_hal_spi.c:3019:5
	ittt	ne
	ldrne	r0, [r4, #88]
	orrne	r0, r0, #32
	strne	r0, [r4, #88]
.Ltmp771:
	.loc	7 3023 17               @ ../Drivers/STM32F1xx_HAL_Driver/Src/stm32f1xx_hal_spi.c:3023:17
	ldr	r0, [r4, #8]
.Ltmp772:
	.loc	7 3023 6 is_stmt 0      @ ../Drivers/STM32F1xx_HAL_Driver/Src/stm32f1xx_hal_spi.c:3023:6
	cbnz	r0, .LBB52_6
.Ltmp773:
@ %bb.5:
	@DEBUG_VALUE: SPI_CloseRxTx_ISR:hspi <- $r4
	.loc	7 3025 5 is_stmt 1      @ ../Drivers/STM32F1xx_HAL_Driver/Src/stm32f1xx_hal_spi.c:3025:5
	movs	r0, #0
.Ltmp774:
	@DEBUG_VALUE: tmpreg_ovr <- 0
	str	r0, [sp]
	ldr	r0, [r4]
	ldr	r1, [r0, #12]
.Ltmp775:
	@DEBUG_VALUE: tmpreg_ovr <- $r1
	str	r1, [sp]
	ldr	r0, [r0, #8]
.Ltmp776:
	@DEBUG_VALUE: tmpreg_ovr <- $r0
	str	r0, [sp]
	ldr	r0, [sp]
.Ltmp777:
	@DEBUG_VALUE: tmpreg_ovr <- $r0
.LBB52_6:
	@DEBUG_VALUE: SPI_CloseRxTx_ISR:hspi <- $r4
	.loc	7 3051 14               @ ../Drivers/STM32F1xx_HAL_Driver/Src/stm32f1xx_hal_spi.c:3051:14
	ldr	r0, [r4, #88]
.Ltmp778:
	.loc	7 3051 8 is_stmt 0      @ ../Drivers/STM32F1xx_HAL_Driver/Src/stm32f1xx_hal_spi.c:3051:8
	cbz	r0, .LBB52_8
.Ltmp779:
@ %bb.7:
	@DEBUG_VALUE: SPI_CloseRxTx_ISR:hspi <- $r4
	.loc	7 3066 19 is_stmt 1     @ ../Drivers/STM32F1xx_HAL_Driver/Src/stm32f1xx_hal_spi.c:3066:19
	movs	r0, #1
	str	r0, [r4, #84]
	.loc	7 3067 7                @ ../Drivers/STM32F1xx_HAL_Driver/Src/stm32f1xx_hal_spi.c:3067:7
	mov	r0, r4
	bl	HAL_SPI_ErrorCallback
.Ltmp780:
	.loc	7 3072 1                @ ../Drivers/STM32F1xx_HAL_Driver/Src/stm32f1xx_hal_spi.c:3072:1
	add	sp, #8
	pop	{r4, pc}
.Ltmp781:
.LBB52_8:
	@DEBUG_VALUE: SPI_CloseRxTx_ISR:hspi <- $r4
	.loc	7 3053 16               @ ../Drivers/STM32F1xx_HAL_Driver/Src/stm32f1xx_hal_spi.c:3053:16
	ldr	r0, [r4, #84]
	movs	r1, #1
	str	r1, [r4, #84]
.Ltmp782:
	.loc	7 3053 10 is_stmt 0     @ ../Drivers/STM32F1xx_HAL_Driver/Src/stm32f1xx_hal_spi.c:3053:10
	cmp	r0, #4
	bne	.LBB52_10
.Ltmp783:
@ %bb.9:
	@DEBUG_VALUE: SPI_CloseRxTx_ISR:hspi <- $r4
	.loc	7 3056 9 is_stmt 1      @ ../Drivers/STM32F1xx_HAL_Driver/Src/stm32f1xx_hal_spi.c:3056:9
	mov	r0, r4
	bl	HAL_SPI_RxCpltCallback
.Ltmp784:
	.loc	7 3072 1                @ ../Drivers/STM32F1xx_HAL_Driver/Src/stm32f1xx_hal_spi.c:3072:1
	add	sp, #8
	pop	{r4, pc}
.Ltmp785:
.LBB52_10:
	@DEBUG_VALUE: SPI_CloseRxTx_ISR:hspi <- $r4
	.loc	7 3061 9                @ ../Drivers/STM32F1xx_HAL_Driver/Src/stm32f1xx_hal_spi.c:3061:9
	mov	r0, r4
	bl	HAL_SPI_TxRxCpltCallback
.Ltmp786:
	.loc	7 3072 1                @ ../Drivers/STM32F1xx_HAL_Driver/Src/stm32f1xx_hal_spi.c:3072:1
	add	sp, #8
	pop	{r4, pc}
.Ltmp787:
.Lfunc_end52:
	.size	SPI_CloseRxTx_ISR, .Lfunc_end52-SPI_CloseRxTx_ISR
	.cfi_endproc
	.cantunwind
	.fnend
                                        @ -- End function
	.section	.text.SPI_CloseRx_ISR,"ax",%progbits
	.p2align	2               @ -- Begin function SPI_CloseRx_ISR
	.type	SPI_CloseRx_ISR,%function
	.code	16                      @ @SPI_CloseRx_ISR
	.thumb_func
SPI_CloseRx_ISR:
.Lfunc_begin53:
	.loc	7 3081 0                @ ../Drivers/STM32F1xx_HAL_Driver/Src/stm32f1xx_hal_spi.c:3081:0
	.fnstart
	.cfi_startproc
@ %bb.0:
	@DEBUG_VALUE: SPI_CloseRx_ISR:hspi <- $r0
	@DEBUG_VALUE: SPI_CloseRx_ISR:hspi <- $r0
	.loc	7 3083 5 prologue_end   @ ../Drivers/STM32F1xx_HAL_Driver/Src/stm32f1xx_hal_spi.c:3083:5
	ldr	r1, [r0]
	ldr	r2, [r1, #4]
	bic	r2, r2, #96
	str	r2, [r1, #4]
.Ltmp788:
	.loc	7 3086 20               @ ../Drivers/STM32F1xx_HAL_Driver/Src/stm32f1xx_hal_spi.c:3086:20
	ldr	r2, [r0, #4]
	.loc	7 3086 44 is_stmt 0     @ ../Drivers/STM32F1xx_HAL_Driver/Src/stm32f1xx_hal_spi.c:3086:44
	cmp.w	r2, #260
	bne	.LBB53_4
@ %bb.1:
	@DEBUG_VALUE: SPI_CloseRx_ISR:hspi <- $r0
	.loc	7 3086 59               @ ../Drivers/STM32F1xx_HAL_Driver/Src/stm32f1xx_hal_spi.c:3086:59
	ldr	r2, [r0, #8]
	.loc	7 3086 92               @ ../Drivers/STM32F1xx_HAL_Driver/Src/stm32f1xx_hal_spi.c:3086:92
	cmp.w	r2, #32768
	beq	.LBB53_3
@ %bb.2:
	@DEBUG_VALUE: SPI_CloseRx_ISR:hspi <- $r0
	cmp.w	r2, #1024
	bne	.LBB53_4
.LBB53_3:
	@DEBUG_VALUE: SPI_CloseRx_ISR:hspi <- $r0
.Ltmp789:
	.loc	7 3089 7 is_stmt 1      @ ../Drivers/STM32F1xx_HAL_Driver/Src/stm32f1xx_hal_spi.c:3089:7
	ldr	r2, [r1]
	bic	r2, r2, #64
	str	r2, [r1]
.Ltmp790:
.LBB53_4:
	@DEBUG_VALUE: SPI_CloseRx_ISR:hspi <- $r0
	.loc	7 3093 19               @ ../Drivers/STM32F1xx_HAL_Driver/Src/stm32f1xx_hal_spi.c:3093:19
	ldr	r2, [r0, #8]
.Ltmp791:
	.loc	7 3093 8 is_stmt 0      @ ../Drivers/STM32F1xx_HAL_Driver/Src/stm32f1xx_hal_spi.c:3093:8
	cbnz	r2, .LBB53_6
@ %bb.5:
	@DEBUG_VALUE: SPI_CloseRx_ISR:hspi <- $r0
	.loc	7 0 8                   @ ../Drivers/STM32F1xx_HAL_Driver/Src/stm32f1xx_hal_spi.c:0:8
	.pad	#4
	sub	sp, #4
	.cfi_def_cfa_offset 4
.Ltmp792:
	.loc	7 3095 7 is_stmt 1      @ ../Drivers/STM32F1xx_HAL_Driver/Src/stm32f1xx_hal_spi.c:3095:7
	movs	r2, #0
.Ltmp793:
	@DEBUG_VALUE: tmpreg_ovr <- 0
	str	r2, [sp]
	ldr	r2, [r1, #12]
.Ltmp794:
	@DEBUG_VALUE: tmpreg_ovr <- $r2
	str	r2, [sp]
	ldr	r1, [r1, #8]
.Ltmp795:
	@DEBUG_VALUE: tmpreg_ovr <- $r1
	str	r1, [sp]
	ldr	r1, [sp]
.Ltmp796:
	@DEBUG_VALUE: tmpreg_ovr <- $r1
	.loc	7 0 7 is_stmt 0         @ ../Drivers/STM32F1xx_HAL_Driver/Src/stm32f1xx_hal_spi.c:0:7
	add	sp, #4
.Ltmp797:
.LBB53_6:
	@DEBUG_VALUE: SPI_CloseRx_ISR:hspi <- $r0
	movs	r1, #1
	.loc	7 3097 17 is_stmt 1     @ ../Drivers/STM32F1xx_HAL_Driver/Src/stm32f1xx_hal_spi.c:3097:17
	str	r1, [r0, #84]
.Ltmp798:
	.loc	7 3121 16               @ ../Drivers/STM32F1xx_HAL_Driver/Src/stm32f1xx_hal_spi.c:3121:16
	ldr	r1, [r0, #88]
.Ltmp799:
	.loc	7 3121 10 is_stmt 0     @ ../Drivers/STM32F1xx_HAL_Driver/Src/stm32f1xx_hal_spi.c:3121:10
	cmp	r1, #0
.Ltmp800:
	.loc	7 3127 9 is_stmt 1      @ ../Drivers/STM32F1xx_HAL_Driver/Src/stm32f1xx_hal_spi.c:3127:9
	it	ne
	bne	HAL_SPI_ErrorCallback
.Ltmp801:
	.loc	7 3123 9                @ ../Drivers/STM32F1xx_HAL_Driver/Src/stm32f1xx_hal_spi.c:3123:9
	b	HAL_SPI_RxCpltCallback
.Ltmp802:
.Lfunc_end53:
	.size	SPI_CloseRx_ISR, .Lfunc_end53-SPI_CloseRx_ISR
	.cfi_endproc
	.cantunwind
	.fnend
                                        @ -- End function
	.section	.text.SPI_CloseTx_ISR,"ax",%progbits
	.p2align	2               @ -- Begin function SPI_CloseTx_ISR
	.type	SPI_CloseTx_ISR,%function
	.code	16                      @ @SPI_CloseTx_ISR
	.thumb_func
SPI_CloseTx_ISR:
.Lfunc_begin54:
	.loc	7 3141 0                @ ../Drivers/STM32F1xx_HAL_Driver/Src/stm32f1xx_hal_spi.c:3141:0
	.fnstart
	.cfi_startproc
@ %bb.0:
	.save	{r4, lr}
	push	{r4, lr}
	.cfi_def_cfa_offset 8
	.cfi_offset lr, -4
	.cfi_offset r4, -8
	.pad	#8
	sub	sp, #8
	.cfi_def_cfa_offset 16
	@DEBUG_VALUE: SPI_CloseTx_ISR:hspi <- $r0
	mov	r4, r0
.Ltmp803:
	@DEBUG_VALUE: SPI_CloseTx_ISR:tickstart <- 0
	@DEBUG_VALUE: SPI_CloseTx_ISR:hspi <- $r4
	.loc	7 3143 48 prologue_end  @ ../Drivers/STM32F1xx_HAL_Driver/Src/stm32f1xx_hal_spi.c:3143:48
	movw	r0, :lower16:SystemCoreClock
	movt	r0, :upper16:SystemCoreClock
	ldr	r0, [r0]
	.loc	7 3143 70 is_stmt 0     @ ../Drivers/STM32F1xx_HAL_Driver/Src/stm32f1xx_hal_spi.c:3143:70
	movw	r1, #6641
	movt	r1, #1398
	umull	r0, r1, r0, r1
	lsrs	r0, r1, #9
	.loc	7 3143 45               @ ../Drivers/STM32F1xx_HAL_Driver/Src/stm32f1xx_hal_spi.c:3143:45
	movs	r1, #100
	muls	r0, r1, r0
.Ltmp804:
	@DEBUG_VALUE: SPI_CloseTx_ISR:count <- $r0
	.loc	7 3143 17               @ ../Drivers/STM32F1xx_HAL_Driver/Src/stm32f1xx_hal_spi.c:3143:17
	str	r0, [sp, #4]
	.loc	7 3146 15 is_stmt 1     @ ../Drivers/STM32F1xx_HAL_Driver/Src/stm32f1xx_hal_spi.c:3146:15
	bl	HAL_GetTick
.Ltmp805:
	mov	r2, r0
.Ltmp806:
	@DEBUG_VALUE: SPI_CloseTx_ISR:tickstart <- $r2
	.p2align	2
.LBB54_1:                               @ =>This Inner Loop Header: Depth=1
	@DEBUG_VALUE: SPI_CloseTx_ISR:tickstart <- $r2
	@DEBUG_VALUE: SPI_CloseTx_ISR:hspi <- $r4
	.loc	7 3151 13               @ ../Drivers/STM32F1xx_HAL_Driver/Src/stm32f1xx_hal_spi.c:3151:13
	ldr	r0, [sp, #4]
.Ltmp807:
	@DEBUG_VALUE: SPI_CloseTx_ISR:count <- $r0
	subs	r1, r0, #1
.Ltmp808:
	@DEBUG_VALUE: SPI_CloseTx_ISR:count <- $r1
	str	r1, [sp, #4]
.Ltmp809:
	.loc	7 3151 8 is_stmt 0      @ ../Drivers/STM32F1xx_HAL_Driver/Src/stm32f1xx_hal_spi.c:3151:8
	cbz	r0, .LBB54_3
.Ltmp810:
@ %bb.2:                                @   in Loop: Header=BB54_1 Depth=1
	@DEBUG_VALUE: SPI_CloseTx_ISR:count <- $r1
	@DEBUG_VALUE: SPI_CloseTx_ISR:tickstart <- $r2
	@DEBUG_VALUE: SPI_CloseTx_ISR:hspi <- $r4
	.loc	7 3157 16 is_stmt 1     @ ../Drivers/STM32F1xx_HAL_Driver/Src/stm32f1xx_hal_spi.c:3157:16
	ldr	r0, [r4]
	.loc	7 3157 26 is_stmt 0     @ ../Drivers/STM32F1xx_HAL_Driver/Src/stm32f1xx_hal_spi.c:3157:26
	ldr	r0, [r0, #8]
.Ltmp811:
	.loc	7 3156 3 is_stmt 1      @ ../Drivers/STM32F1xx_HAL_Driver/Src/stm32f1xx_hal_spi.c:3156:3
	tst.w	r0, #2
	beq	.LBB54_1
	b	.LBB54_4
.Ltmp812:
.LBB54_3:
	@DEBUG_VALUE: SPI_CloseTx_ISR:count <- $r1
	@DEBUG_VALUE: SPI_CloseTx_ISR:tickstart <- $r2
	@DEBUG_VALUE: SPI_CloseTx_ISR:hspi <- $r4
	.loc	7 3153 7                @ ../Drivers/STM32F1xx_HAL_Driver/Src/stm32f1xx_hal_spi.c:3153:7
	ldr	r0, [r4, #88]
	orr	r0, r0, #32
	str	r0, [r4, #88]
.Ltmp813:
.LBB54_4:
	@DEBUG_VALUE: SPI_CloseTx_ISR:count <- $r1
	@DEBUG_VALUE: SPI_CloseTx_ISR:tickstart <- $r2
	@DEBUG_VALUE: SPI_CloseTx_ISR:hspi <- $r4
	.loc	7 3160 3                @ ../Drivers/STM32F1xx_HAL_Driver/Src/stm32f1xx_hal_spi.c:3160:3
	ldr	r0, [r4]
	ldr	r1, [r0, #4]
.Ltmp814:
	bic	r1, r1, #160
	str	r1, [r0, #4]
.Ltmp815:
	.loc	7 3163 6                @ ../Drivers/STM32F1xx_HAL_Driver/Src/stm32f1xx_hal_spi.c:3163:6
	mov	r0, r4
	movs	r1, #100
	bl	SPI_CheckFlag_BSY
.Ltmp816:
	.loc	7 3163 6 is_stmt 0      @ ../Drivers/STM32F1xx_HAL_Driver/Src/stm32f1xx_hal_spi.c:3163:6
	cmp	r0, #0
.Ltmp817:
	.loc	7 3165 5 is_stmt 1      @ ../Drivers/STM32F1xx_HAL_Driver/Src/stm32f1xx_hal_spi.c:3165:5
	ittt	ne
	ldrne	r0, [r4, #88]
	orrne	r0, r0, #32
	strne	r0, [r4, #88]
.Ltmp818:
	.loc	7 3169 17               @ ../Drivers/STM32F1xx_HAL_Driver/Src/stm32f1xx_hal_spi.c:3169:17
	ldr	r0, [r4, #8]
.Ltmp819:
	.loc	7 3169 6 is_stmt 0      @ ../Drivers/STM32F1xx_HAL_Driver/Src/stm32f1xx_hal_spi.c:3169:6
	cbnz	r0, .LBB54_6
.Ltmp820:
@ %bb.5:
	@DEBUG_VALUE: SPI_CloseTx_ISR:hspi <- $r4
	.loc	7 3171 5 is_stmt 1      @ ../Drivers/STM32F1xx_HAL_Driver/Src/stm32f1xx_hal_spi.c:3171:5
	movs	r0, #0
.Ltmp821:
	@DEBUG_VALUE: tmpreg_ovr <- 0
	str	r0, [sp]
	ldr	r0, [r4]
	ldr	r1, [r0, #12]
.Ltmp822:
	@DEBUG_VALUE: tmpreg_ovr <- $r1
	str	r1, [sp]
	ldr	r0, [r0, #8]
.Ltmp823:
	@DEBUG_VALUE: tmpreg_ovr <- $r0
	str	r0, [sp]
	ldr	r0, [sp]
.Ltmp824:
	@DEBUG_VALUE: tmpreg_ovr <- $r0
.LBB54_6:
	@DEBUG_VALUE: SPI_CloseTx_ISR:hspi <- $r4
	.loc	7 3174 15               @ ../Drivers/STM32F1xx_HAL_Driver/Src/stm32f1xx_hal_spi.c:3174:15
	movs	r0, #1
	str	r0, [r4, #84]
.Ltmp825:
	.loc	7 3175 12               @ ../Drivers/STM32F1xx_HAL_Driver/Src/stm32f1xx_hal_spi.c:3175:12
	ldr	r0, [r4, #88]
.Ltmp826:
	.loc	7 3175 6 is_stmt 0      @ ../Drivers/STM32F1xx_HAL_Driver/Src/stm32f1xx_hal_spi.c:3175:6
	cbz	r0, .LBB54_8
.Ltmp827:
@ %bb.7:
	@DEBUG_VALUE: SPI_CloseTx_ISR:hspi <- $r4
	.loc	7 3177 5 is_stmt 1      @ ../Drivers/STM32F1xx_HAL_Driver/Src/stm32f1xx_hal_spi.c:3177:5
	mov	r0, r4
	bl	HAL_SPI_ErrorCallback
.Ltmp828:
	.loc	7 3183 1                @ ../Drivers/STM32F1xx_HAL_Driver/Src/stm32f1xx_hal_spi.c:3183:1
	add	sp, #8
	pop	{r4, pc}
.Ltmp829:
.LBB54_8:
	@DEBUG_VALUE: SPI_CloseTx_ISR:hspi <- $r4
	.loc	7 3181 5                @ ../Drivers/STM32F1xx_HAL_Driver/Src/stm32f1xx_hal_spi.c:3181:5
	mov	r0, r4
	bl	HAL_SPI_TxCpltCallback
.Ltmp830:
	.loc	7 3183 1                @ ../Drivers/STM32F1xx_HAL_Driver/Src/stm32f1xx_hal_spi.c:3183:1
	add	sp, #8
	pop	{r4, pc}
.Ltmp831:
.Lfunc_end54:
	.size	SPI_CloseTx_ISR, .Lfunc_end54-SPI_CloseTx_ISR
	.cfi_endproc
	.cantunwind
	.fnend
                                        @ -- End function
	.section	".note.GNU-stack","",%progbits
	.eabi_attribute	30, 1	@ Tag_ABI_optimization_goals
	.ARM_attribute	16, 1	@ Tag_AV_eba