	.text
	.syntax unified
	.eabi_attribute	67, "2.09"	@ Tag_conformance
	.cpu	cortex-m3
	.eabi_attribute	6, 10	@ Tag_CPU_arch
	.eabi_attribute	7, 77	@ Tag_CPU_arch_profile
	.eabi_attribute	8, 0	@ Tag_ARM_ISA_use
	.eabi_attribute	9, 2	@ Tag_THUMB_ISA_use
	.eabi_attribute	34, 1	@ Tag_CPU_unaligned_access
	.eabi_attribute	17, 1	@ Tag_ABI_PCS_GOT_use
	.eabi_attribute	20, 2	@ Tag_ABI_FP_denormal
	.eabi_attribute	21, 0	@ Tag_ABI_FP_exceptions
	.eabi_attribute	23, 1	@ Tag_ABI_FP_number_model
	.eabi_attribute	24, 1	@ Tag_ABI_align_needed
	.eabi_attribute	25, 1	@ Tag_ABI_align_preserved
	.eabi_attribute	38, 1	@ Tag_ABI_FP_16bit_format
	.eabi_attribute	18, 4	@ Tag_ABI_PCS_wchar_t
	.eabi_attribute	26, 2	@ Tag_ABI_enum_size
	.eabi_attribute	14, 0	@ Tag_ABI_PCS_R9_use
	.file	"stm32f1xx_hal_flash.c"
	.file	1 "../Drivers/STM32F1xx_HAL_Driver/Inc" "stm32f1xx_hal_flash.h"
	.file	2 "C:\\Keil\\ARM\\ARMCLANG\\Bin\\..\\include" "stdint.h"
	.file	3 "../Drivers/STM32F1xx_HAL_Driver/Inc" "stm32f1xx_hal_def.h"
	.file	4 "../Drivers/STM32F1xx_HAL_Driver/Src" "stm32f1xx_hal_flash.c"
	.file	5 "../Drivers/CMSIS/Device/ST/STM32F1xx/Include" "stm32f1xx.h"
	.file	6 "../Drivers/CMSIS/Device/ST/STM32F1xx/Include" "stm32f103xb.h"
	.section	.text.HAL_FLASH_Program,"ax",%progbits
	.hidden	HAL_FLASH_Program       @ -- Begin function HAL_FLASH_Program
	.globl	HAL_FLASH_Program
	.p2align	2
	.type	HAL_FLASH_Program,%function
	.code	16                      @ @HAL_FLASH_Program
	.thumb_func
HAL_FLASH_Program:
.Lfunc_begin0:
	.loc	4 187 0                 @ ../Drivers/STM32F1xx_HAL_Driver/Src/stm32f1xx_hal_flash.c:187:0
	.fnstart
	.cfi_sections .debug_frame
	.cfi_startproc
@ %bb.0:
	.save	{r4, r5, r6, r7, r8, r9, r10, r11, lr}
	push.w	{r4, r5, r6, r7, r8, r9, r10, r11, lr}
	.cfi_def_cfa_offset 36
	.cfi_offset lr, -4
	.cfi_offset r11, -8
	.cfi_offset r10, -12
	.cfi_offset r9, -16
	.cfi_offset r8, -20
	.cfi_offset r7, -24
	.cfi_offset r6, -28
	.cfi_offset r5, -32
	.cfi_offset r4, -36
	.pad	#4
	sub	sp, #4
	.cfi_def_cfa_offset 40
	@DEBUG_VALUE: HAL_FLASH_Program:TypeProgram <- $r0
	@DEBUG_VALUE: HAL_FLASH_Program:Address <- $r1
	mov	r4, r3
	mov	r10, r2
	mov	r6, r1
	mov	r9, r0
.Ltmp0:
	@DEBUG_VALUE: HAL_FLASH_Program:nbiterations <- 0
	@DEBUG_VALUE: HAL_FLASH_Program:index <- 0
	@DEBUG_VALUE: HAL_FLASH_Program:status <- 1
	@DEBUG_VALUE: HAL_FLASH_Program:Address <- $r6
	@DEBUG_VALUE: HAL_FLASH_Program:TypeProgram <- $r9
	.loc	4 193 3 prologue_end    @ ../Drivers/STM32F1xx_HAL_Driver/Src/stm32f1xx_hal_flash.c:193:3
	movw	r5, :lower16:pFlash
	movt	r5, :upper16:pFlash
	ldr	r0, [r5, #24]
.Ltmp1:
	@DEBUG_VALUE: HAL_FLASH_Program:Data <- [DW_OP_LLVM_fragment 0 32] undef
	@DEBUG_VALUE: HAL_FLASH_Program:Data <- [DW_OP_LLVM_fragment 32 32] undef
	.loc	4 193 3 is_stmt 0       @ ../Drivers/STM32F1xx_HAL_Driver/Src/stm32f1xx_hal_flash.c:193:3
	cmp	r0, #1
	ittt	eq
	moveq	r0, #2
.Ltmp2:
	.loc	4 268 1 is_stmt 1       @ ../Drivers/STM32F1xx_HAL_Driver/Src/stm32f1xx_hal_flash.c:268:1
	addeq	sp, #4
	popeq.w	{r4, r5, r6, r7, r8, r9, r10, r11, pc}
.Ltmp3:
	.loc	4 0 1 is_stmt 0         @ ../Drivers/STM32F1xx_HAL_Driver/Src/stm32f1xx_hal_flash.c:0:1
	movs	r0, #1
.Ltmp4:
	.loc	4 193 3 is_stmt 1       @ ../Drivers/STM32F1xx_HAL_Driver/Src/stm32f1xx_hal_flash.c:193:3
	str	r0, [r5, #24]
.Ltmp5:
	.loc	4 204 14                @ ../Drivers/STM32F1xx_HAL_Driver/Src/stm32f1xx_hal_flash.c:204:14
	movw	r0, #50000
	bl	FLASH_WaitForLastOperation
.Ltmp6:
	@DEBUG_VALUE: HAL_FLASH_Program:status <- $r0
	.loc	4 214 6                 @ ../Drivers/STM32F1xx_HAL_Driver/Src/stm32f1xx_hal_flash.c:214:6
	cbnz	r0, .LBB0_6
.Ltmp7:
@ %bb.1:
	@DEBUG_VALUE: HAL_FLASH_Program:status <- $r0
	.loc	4 216 8                 @ ../Drivers/STM32F1xx_HAL_Driver/Src/stm32f1xx_hal_flash.c:216:8
	cmp.w	r9, #2
	mov	r7, r9
	it	ne
	movne	r7, #4
	cmp.w	r9, #1
	it	eq
	moveq	r7, r9
	movs	r0, #0
.Ltmp8:
	.loc	4 0 8 is_stmt 0         @ ../Drivers/STM32F1xx_HAL_Driver/Src/stm32f1xx_hal_flash.c:0:8
	movw	r5, #8208
	movt	r5, #16386
	@DEBUG_VALUE: HAL_FLASH_Program:index <- 0
.Ltmp9:
	@DEBUG_VALUE: HAL_FLASH_Program:status <- 0
	mov.w	r9, #32
	mvn	r11, #31
	mov.w	r8, #0
	.p2align	2
.LBB0_2:                                @ =>This Inner Loop Header: Depth=1
.Ltmp10:
	.loc	4 234 70 is_stmt 1      @ ../Drivers/STM32F1xx_HAL_Driver/Src/stm32f1xx_hal_flash.c:234:70
	sub.w	r1, r9, r0, lsl #4
	lsl.w	r1, r4, r1
	.loc	4 234 77 is_stmt 0      @ ../Drivers/STM32F1xx_HAL_Driver/Src/stm32f1xx_hal_flash.c:234:77
	lsls	r2, r0, #4
	.loc	4 234 70                @ ../Drivers/STM32F1xx_HAL_Driver/Src/stm32f1xx_hal_flash.c:234:70
	lsr.w	r2, r10, r2
	orrs	r1, r2
	add.w	r2, r11, r0, lsl #4
	cmp	r2, #0
	it	ge
	lsrge.w	r1, r4, r2
	.loc	4 234 7                 @ ../Drivers/STM32F1xx_HAL_Driver/Src/stm32f1xx_hal_flash.c:234:7
	uxth	r1, r1
	.loc	4 234 39                @ ../Drivers/STM32F1xx_HAL_Driver/Src/stm32f1xx_hal_flash.c:234:39
	add.w	r0, r6, r0, lsl #1
	.loc	4 234 7                 @ ../Drivers/STM32F1xx_HAL_Driver/Src/stm32f1xx_hal_flash.c:234:7
	bl	FLASH_Program_HalfWord
	.loc	4 241 18 is_stmt 1      @ ../Drivers/STM32F1xx_HAL_Driver/Src/stm32f1xx_hal_flash.c:241:18
	movw	r0, #50000
	bl	FLASH_WaitForLastOperation
.Ltmp11:
	@DEBUG_VALUE: HAL_FLASH_Program:status <- $r0
	.loc	4 244 9                 @ ../Drivers/STM32F1xx_HAL_Driver/Src/stm32f1xx_hal_flash.c:244:9
	ldr	r1, [r5]
	bic	r1, r1, #1
	str	r1, [r5]
	cbnz	r0, .LBB0_5
.Ltmp12:
@ %bb.3:                                @   in Loop: Header=BB0_2 Depth=1
	@DEBUG_VALUE: HAL_FLASH_Program:status <- $r0
	.loc	4 0 9 is_stmt 0         @ ../Drivers/STM32F1xx_HAL_Driver/Src/stm32f1xx_hal_flash.c:0:9
	add.w	r8, r8, #1
.Ltmp13:
	@DEBUG_VALUE: HAL_FLASH_Program:status <- 0
	.loc	4 232 22 is_stmt 1      @ ../Drivers/STM32F1xx_HAL_Driver/Src/stm32f1xx_hal_flash.c:232:22
	uxtb.w	r0, r8
.Ltmp14:
	.loc	4 232 5 is_stmt 0       @ ../Drivers/STM32F1xx_HAL_Driver/Src/stm32f1xx_hal_flash.c:232:5
	cmp	r7, r0
	bhi	.LBB0_2
.Ltmp15:
@ %bb.4:
	.loc	4 0 5                   @ ../Drivers/STM32F1xx_HAL_Driver/Src/stm32f1xx_hal_flash.c:0:5
	movs	r0, #0
.LBB0_5:
	movw	r5, :lower16:pFlash
	movt	r5, :upper16:pFlash
.LBB0_6:
.Ltmp16:
	.loc	4 265 3 is_stmt 1       @ ../Drivers/STM32F1xx_HAL_Driver/Src/stm32f1xx_hal_flash.c:265:3
	movs	r1, #0
	str	r1, [r5, #24]
.Ltmp17:
	.loc	4 268 1                 @ ../Drivers/STM32F1xx_HAL_Driver/Src/stm32f1xx_hal_flash.c:268:1
	add	sp, #4
	pop.w	{r4, r5, r6, r7, r8, r9, r10, r11, pc}
.Ltmp18:
.Lfunc_end0:
	.size	HAL_FLASH_Program, .Lfunc_end0-HAL_FLASH_Program
	.cfi_endproc
	.cantunwind
	.fnend
                                        @ -- End function
	.section	.text.FLASH_WaitForLastOperation,"ax",%progbits
	.hidden	FLASH_WaitForLastOperation @ -- Begin function FLASH_WaitForLastOperation
	.globl	FLASH_WaitForLastOperation
	.p2align	2
	.type	FLASH_WaitForLastOperation,%function
	.code	16                      @ @FLASH_WaitForLastOperation
	.thumb_func
FLASH_WaitForLastOperation:
.Lfunc_begin1:
	.loc	4 840 0                 @ ../Drivers/STM32F1xx_HAL_Driver/Src/stm32f1xx_hal_flash.c:840:0
	.fnstart
	.cfi_startproc
@ %bb.0:
	.save	{r4, r5, r6, r7, lr}
	push	{r4, r5, r6, r7, lr}
	.cfi_def_cfa_offset 20
	.cfi_offset lr, -4
	.cfi_offset r7, -8
	.cfi_offset r6, -12
	.cfi_offset r5, -16
	.cfi_offset r4, -20
	.pad	#4
	sub	sp, #4
	.cfi_def_cfa_offset 24
	@DEBUG_VALUE: FLASH_WaitForLastOperation:Timeout <- $r0
	mov	r4, r0
.Ltmp19:
	@DEBUG_VALUE: FLASH_WaitForLastOperation:Timeout <- $r4
	.loc	4 845 24 prologue_end   @ ../Drivers/STM32F1xx_HAL_Driver/Src/stm32f1xx_hal_flash.c:845:24
	bl	HAL_GetTick
	mov	r5, r0
.Ltmp20:
	@DEBUG_VALUE: FLASH_WaitForLastOperation:tickstart <- $r5
	.loc	4 0 24 is_stmt 0        @ ../Drivers/STM32F1xx_HAL_Driver/Src/stm32f1xx_hal_flash.c:0:24
	movw	r6, #8204
	movt	r6, #16386
	.loc	4 847 9 is_stmt 1       @ ../Drivers/STM32F1xx_HAL_Driver/Src/stm32f1xx_hal_flash.c:847:9
	ldr	r0, [r6]
	.loc	4 847 3 is_stmt 0       @ ../Drivers/STM32F1xx_HAL_Driver/Src/stm32f1xx_hal_flash.c:847:3
	tst.w	r0, #1
	beq	.LBB1_6
.Ltmp21:
@ %bb.1:
	@DEBUG_VALUE: FLASH_WaitForLastOperation:tickstart <- $r5
	@DEBUG_VALUE: FLASH_WaitForLastOperation:Timeout <- $r4
	cbz	r4, .LBB1_10
.Ltmp22:
@ %bb.2:
	@DEBUG_VALUE: FLASH_WaitForLastOperation:tickstart <- $r5
	@DEBUG_VALUE: FLASH_WaitForLastOperation:Timeout <- $r4
	.loc	4 0 3                   @ ../Drivers/STM32F1xx_HAL_Driver/Src/stm32f1xx_hal_flash.c:0:3
	adds	r7, r4, #1
.Ltmp23:
	.p2align	2
.LBB1_3:                                @ =>This Inner Loop Header: Depth=1
	@DEBUG_VALUE: FLASH_WaitForLastOperation:tickstart <- $r5
	@DEBUG_VALUE: FLASH_WaitForLastOperation:Timeout <- $r4
	.loc	4 849 9 is_stmt 1       @ ../Drivers/STM32F1xx_HAL_Driver/Src/stm32f1xx_hal_flash.c:849:9
	cbz	r7, .LBB1_5
.Ltmp24:
@ %bb.4:                                @   in Loop: Header=BB1_3 Depth=1
	@DEBUG_VALUE: FLASH_WaitForLastOperation:tickstart <- $r5
	@DEBUG_VALUE: FLASH_WaitForLastOperation:Timeout <- $r4
	.loc	4 851 31                @ ../Drivers/STM32F1xx_HAL_Driver/Src/stm32f1xx_hal_flash.c:851:31
	bl	HAL_GetTick
	.loc	4 851 44 is_stmt 0      @ ../Drivers/STM32F1xx_HAL_Driver/Src/stm32f1xx_hal_flash.c:851:44
	subs	r0, r0, r5
.Ltmp25:
	.loc	4 851 10                @ ../Drivers/STM32F1xx_HAL_Driver/Src/stm32f1xx_hal_flash.c:851:10
	cmp	r0, r4
	bhi	.LBB1_10
.Ltmp26:
.LBB1_5:                                @   in Loop: Header=BB1_3 Depth=1
	@DEBUG_VALUE: FLASH_WaitForLastOperation:tickstart <- $r5
	@DEBUG_VALUE: FLASH_WaitForLastOperation:Timeout <- $r4
	.loc	4 847 9 is_stmt 1       @ ../Drivers/STM32F1xx_HAL_Driver/Src/stm32f1xx_hal_flash.c:847:9
	ldr	r0, [r6]
	.loc	4 847 3 is_stmt 0       @ ../Drivers/STM32F1xx_HAL_Driver/Src/stm32f1xx_hal_flash.c:847:3
	tst.w	r0, #1
	bne	.LBB1_3
.Ltmp27:
.LBB1_6:
	@DEBUG_VALUE: FLASH_WaitForLastOperation:tickstart <- $r5
	@DEBUG_VALUE: FLASH_WaitForLastOperation:Timeout <- $r4
	.loc	4 859 7 is_stmt 1       @ ../Drivers/STM32F1xx_HAL_Driver/Src/stm32f1xx_hal_flash.c:859:7
	ldr	r0, [r6]
.Ltmp28:
	.loc	4 859 7 is_stmt 0       @ ../Drivers/STM32F1xx_HAL_Driver/Src/stm32f1xx_hal_flash.c:859:7
	tst.w	r0, #32
.Ltmp29:
	.loc	4 862 5 is_stmt 1       @ ../Drivers/STM32F1xx_HAL_Driver/Src/stm32f1xx_hal_flash.c:862:5
	itt	ne
	movne	r0, #32
	strne	r0, [r6]
.Ltmp30:
	.loc	4 865 6                 @ ../Drivers/STM32F1xx_HAL_Driver/Src/stm32f1xx_hal_flash.c:865:6
	ldr	r0, [r6]
	.loc	4 865 47 is_stmt 0      @ ../Drivers/STM32F1xx_HAL_Driver/Src/stm32f1xx_hal_flash.c:865:47
	tst.w	r0, #16
	bne	.LBB1_9
.Ltmp31:
@ %bb.7:
	@DEBUG_VALUE: FLASH_WaitForLastOperation:tickstart <- $r5
	@DEBUG_VALUE: FLASH_WaitForLastOperation:Timeout <- $r4
	.loc	4 866 6 is_stmt 1       @ ../Drivers/STM32F1xx_HAL_Driver/Src/stm32f1xx_hal_flash.c:866:6
	ldr	r0, [r6, #16]
	tst.w	r0, #1
	bne	.LBB1_9
.Ltmp32:
@ %bb.8:
	@DEBUG_VALUE: FLASH_WaitForLastOperation:tickstart <- $r5
	@DEBUG_VALUE: FLASH_WaitForLastOperation:Timeout <- $r4
	.loc	4 867 6                 @ ../Drivers/STM32F1xx_HAL_Driver/Src/stm32f1xx_hal_flash.c:867:6
	ldr	r0, [r6]
.Ltmp33:
	.loc	4 865 6                 @ ../Drivers/STM32F1xx_HAL_Driver/Src/stm32f1xx_hal_flash.c:865:6
	tst.w	r0, #4
	ittt	eq
	moveq	r0, #0
	.loc	4 876 1                 @ ../Drivers/STM32F1xx_HAL_Driver/Src/stm32f1xx_hal_flash.c:876:1
	addeq	sp, #4
	popeq	{r4, r5, r6, r7, pc}
.Ltmp34:
.LBB1_9:
	.loc	4 870 5                 @ ../Drivers/STM32F1xx_HAL_Driver/Src/stm32f1xx_hal_flash.c:870:5
	bl	FLASH_SetErrorCode
	movs	r0, #1
.Ltmp35:
	.loc	4 876 1                 @ ../Drivers/STM32F1xx_HAL_Driver/Src/stm32f1xx_hal_flash.c:876:1
	add	sp, #4
	pop	{r4, r5, r6, r7, pc}
.LBB1_10:
.Ltmp36:
	@DEBUG_VALUE: FLASH_WaitForLastOperation:tickstart <- $r5
	@DEBUG_VALUE: FLASH_WaitForLastOperation:Timeout <- $r4
	.loc	4 0 1 is_stmt 0         @ ../Drivers/STM32F1xx_HAL_Driver/Src/stm32f1xx_hal_flash.c:0:1
	movs	r0, #3
	.loc	4 876 1                 @ ../Drivers/STM32F1xx_HAL_Driver/Src/stm32f1xx_hal_flash.c:876:1
	add	sp, #4
	pop	{r4, r5, r6, r7, pc}
.Ltmp37:
.Lfunc_end1:
	.size	FLASH_WaitForLastOperation, .Lfunc_end1-FLASH_WaitForLastOperation
	.cfi_endproc
	.cantunwind
	.fnend
                                        @ -- End function
	.section	.text.FLASH_Program_HalfWord,"ax",%progbits
	.p2align	2               @ -- Begin function FLASH_Program_HalfWord
	.type	FLASH_Program_HalfWord,%function
	.code	16                      @ @FLASH_Program_HalfWord
	.thumb_func
FLASH_Program_HalfWord:
.Lfunc_begin2:
	.loc	4 811 0 is_stmt 1       @ ../Drivers/STM32F1xx_HAL_Driver/Src/stm32f1xx_hal_flash.c:811:0
	.fnstart
	.cfi_startproc
@ %bb.0:
	@DEBUG_VALUE: FLASH_Program_HalfWord:Address <- $r0
	@DEBUG_VALUE: FLASH_Program_HalfWord:Address <- $r0
	@DEBUG_VALUE: FLASH_Program_HalfWord:Data <- $r1
	@DEBUG_VALUE: FLASH_Program_HalfWord:Data <- $r1
	.loc	4 813 20 prologue_end   @ ../Drivers/STM32F1xx_HAL_Driver/Src/stm32f1xx_hal_flash.c:813:20
	movw	r2, :lower16:pFlash
	movt	r2, :upper16:pFlash
	movs	r3, #0
	str	r3, [r2, #28]
	movw	r2, #8208
	movt	r2, #16386
	.loc	4 820 5                 @ ../Drivers/STM32F1xx_HAL_Driver/Src/stm32f1xx_hal_flash.c:820:5
	ldr	r3, [r2]
	orr	r3, r3, #1
	str	r3, [r2]
	.loc	4 831 28                @ ../Drivers/STM32F1xx_HAL_Driver/Src/stm32f1xx_hal_flash.c:831:28
	strh	r1, [r0]
	.loc	4 832 1                 @ ../Drivers/STM32F1xx_HAL_Driver/Src/stm32f1xx_hal_flash.c:832:1
	bx	lr
.Ltmp38:
.Lfunc_end2:
	.size	FLASH_Program_HalfWord, .Lfunc_end2-FLASH_Program_HalfWord
	.cfi_endproc
	.cantunwind
	.fnend
                                        @ -- End function
	.section	.text.HAL_FLASH_Program_IT,"ax",%progbits
	.hidden	HAL_FLASH_Program_IT    @ -- Begin function HAL_FLASH_Program_IT
	.globl	HAL_FLASH_Program_IT
	.p2align	2
	.type	HAL_FLASH_Program_IT,%function
	.code	16                      @ @HAL_FLASH_Program_IT
	.thumb_func
HAL_FLASH_Program_IT:
.Lfunc_begin3:
	.loc	4 286 0                 @ ../Drivers/STM32F1xx_HAL_Driver/Src/stm32f1xx_hal_flash.c:286:0
	.fnstart
	.cfi_startproc
@ %bb.0:
	.save	{r4, lr}
	push	{r4, lr}
	.cfi_def_cfa_offset 8
	.cfi_offset lr, -4
	.cfi_offset r4, -8
	@DEBUG_VALUE: HAL_FLASH_Program_IT:TypeProgram <- $r0
	@DEBUG_VALUE: HAL_FLASH_Program_IT:TypeProgram <- $r0
	@DEBUG_VALUE: HAL_FLASH_Program_IT:Address <- $r1
	@DEBUG_VALUE: HAL_FLASH_Program_IT:Address <- $r1
.Ltmp39:
	@DEBUG_VALUE: HAL_FLASH_Program_IT:status <- 0
	.loc	4 290 3 prologue_end    @ ../Drivers/STM32F1xx_HAL_Driver/Src/stm32f1xx_hal_flash.c:290:3
	movw	r12, :lower16:pFlash
	movt	r12, :upper16:pFlash
	ldr.w	lr, [r12, #24]
.Ltmp40:
	.loc	4 290 3 is_stmt 0       @ ../Drivers/STM32F1xx_HAL_Driver/Src/stm32f1xx_hal_flash.c:290:3
	cmp.w	lr, #1
	itt	eq
	moveq	r0, #2
.Ltmp41:
	.loc	4 344 1 is_stmt 1       @ ../Drivers/STM32F1xx_HAL_Driver/Src/stm32f1xx_hal_flash.c:344:1
	popeq	{r4, pc}
	@DEBUG_VALUE: HAL_FLASH_Program_IT:Data <- [DW_OP_LLVM_fragment 32 32] $r3
	@DEBUG_VALUE: HAL_FLASH_Program_IT:Data <- [DW_OP_LLVM_fragment 0 32] $r2
.Ltmp42:
	.loc	4 290 3                 @ ../Drivers/STM32F1xx_HAL_Driver/Src/stm32f1xx_hal_flash.c:290:3
	mov.w	lr, #1
	str.w	lr, [r12, #24]
	movw	lr, #8208
	movt	lr, #16386
.Ltmp43:
	.loc	4 315 3                 @ ../Drivers/STM32F1xx_HAL_Driver/Src/stm32f1xx_hal_flash.c:315:3
	ldr.w	r4, [lr]
	orr	r4, r4, #5120
	str.w	r4, [lr]
	.loc	4 318 18                @ ../Drivers/STM32F1xx_HAL_Driver/Src/stm32f1xx_hal_flash.c:318:18
	str.w	r1, [r12, #8]
	.loc	4 319 15                @ ../Drivers/STM32F1xx_HAL_Driver/Src/stm32f1xx_hal_flash.c:319:15
	str.w	r3, [r12, #20]
	str.w	r2, [r12, #16]
	.loc	4 321 6                 @ ../Drivers/STM32F1xx_HAL_Driver/Src/stm32f1xx_hal_flash.c:321:6
	cmp	r0, #1
	beq	.LBB3_2
.Ltmp44:
@ %bb.1:
	@DEBUG_VALUE: HAL_FLASH_Program_IT:Data <- [DW_OP_LLVM_fragment 0 32] $r2
	@DEBUG_VALUE: HAL_FLASH_Program_IT:Address <- $r1
	cmp	r0, #2
	itte	ne
	movne	r0, #4
	movne	r3, #5
	moveq	r3, #4
	b	.LBB3_3
.Ltmp45:
.LBB3_2:
	@DEBUG_VALUE: HAL_FLASH_Program_IT:Data <- [DW_OP_LLVM_fragment 0 32] $r2
	@DEBUG_VALUE: HAL_FLASH_Program_IT:Address <- $r1
	.loc	4 0 6 is_stmt 0         @ ../Drivers/STM32F1xx_HAL_Driver/Src/stm32f1xx_hal_flash.c:0:6
	movs	r3, #3
.Ltmp46:
.LBB3_3:
	@DEBUG_VALUE: HAL_FLASH_Program_IT:Data <- [DW_OP_LLVM_fragment 0 32] $r2
	@DEBUG_VALUE: HAL_FLASH_Program_IT:Address <- $r1
	str.w	r3, [r12]
	str.w	r0, [r12, #4]
	.loc	4 341 3 is_stmt 1       @ ../Drivers/STM32F1xx_HAL_Driver/Src/stm32f1xx_hal_flash.c:341:3
	uxth	r2, r2
.Ltmp47:
	mov	r0, r1
	mov	r1, r2
.Ltmp48:
	bl	FLASH_Program_HalfWord
	movs	r0, #0
	.loc	4 344 1                 @ ../Drivers/STM32F1xx_HAL_Driver/Src/stm32f1xx_hal_flash.c:344:1
	pop	{r4, pc}
.Ltmp49:
.Lfunc_end3:
	.size	HAL_FLASH_Program_IT, .Lfunc_end3-HAL_FLASH_Program_IT
	.cfi_endproc
	.cantunwind
	.fnend
                                        @ -- End function
	.section	.text.HAL_FLASH_IRQHandler,"ax",%progbits
	.hidden	HAL_FLASH_IRQHandler    @ -- Begin function HAL_FLASH_IRQHandler
	.globl	HAL_FLASH_IRQHandler
	.p2align	2
	.type	HAL_FLASH_IRQHandler,%function
	.code	16                      @ @HAL_FLASH_IRQHandler
	.thumb_func
HAL_FLASH_IRQHandler:
.Lfunc_begin4:
	.loc	4 351 0                 @ ../Drivers/STM32F1xx_HAL_Driver/Src/stm32f1xx_hal_flash.c:351:0
	.fnstart
	.cfi_startproc
@ %bb.0:
	.save	{r4, r5, r6, lr}
	push	{r4, r5, r6, lr}
	.cfi_def_cfa_offset 16
	.cfi_offset lr, -4
	.cfi_offset r6, -8
	.cfi_offset r5, -12
	.cfi_offset r4, -16
	movw	r5, #8208
	movt	r5, #16386
.Ltmp50:
	@DEBUG_VALUE: HAL_FLASH_IRQHandler:addresstmp <- 0
	.loc	4 359 6 prologue_end    @ ../Drivers/STM32F1xx_HAL_Driver/Src/stm32f1xx_hal_flash.c:359:6
	ldr	r0, [r5, #-4]
	.loc	4 359 46 is_stmt 0      @ ../Drivers/STM32F1xx_HAL_Driver/Src/stm32f1xx_hal_flash.c:359:46
	tst.w	r0, #16
	bne	.LBB4_2
@ %bb.1:
	.loc	4 359 48                @ ../Drivers/STM32F1xx_HAL_Driver/Src/stm32f1xx_hal_flash.c:359:48
	ldr	r0, [r5, #-4]
.Ltmp51:
	.loc	4 359 6                 @ ../Drivers/STM32F1xx_HAL_Driver/Src/stm32f1xx_hal_flash.c:359:6
	tst.w	r0, #4
	beq	.LBB4_3
.LBB4_2:
.Ltmp52:
	.loc	4 363 25 is_stmt 1      @ ../Drivers/STM32F1xx_HAL_Driver/Src/stm32f1xx_hal_flash.c:363:25
	movw	r6, :lower16:pFlash
	movt	r6, :upper16:pFlash
	ldr	r4, [r6, #8]
.Ltmp53:
	@DEBUG_VALUE: HAL_FLASH_IRQHandler:addresstmp <- $r4
	.loc	4 365 20                @ ../Drivers/STM32F1xx_HAL_Driver/Src/stm32f1xx_hal_flash.c:365:20
	mov.w	r0, #-1
	str	r0, [r6, #8]
	.loc	4 368 5                 @ ../Drivers/STM32F1xx_HAL_Driver/Src/stm32f1xx_hal_flash.c:368:5
	bl	FLASH_SetErrorCode
	.loc	4 371 5                 @ ../Drivers/STM32F1xx_HAL_Driver/Src/stm32f1xx_hal_flash.c:371:5
	mov	r0, r4
	bl	HAL_FLASH_OperationErrorCallback
	movs	r0, #0
	.loc	4 374 29                @ ../Drivers/STM32F1xx_HAL_Driver/Src/stm32f1xx_hal_flash.c:374:29
	str	r0, [r6]
.Ltmp54:
.LBB4_3:
	.loc	4 384 6                 @ ../Drivers/STM32F1xx_HAL_Driver/Src/stm32f1xx_hal_flash.c:384:6
	ldr	r0, [r5, #-4]
.Ltmp55:
	.loc	4 384 6 is_stmt 0       @ ../Drivers/STM32F1xx_HAL_Driver/Src/stm32f1xx_hal_flash.c:384:6
	tst.w	r0, #32
	beq	.LBB4_17
@ %bb.4:
.Ltmp56:
	.loc	4 387 5 is_stmt 1       @ ../Drivers/STM32F1xx_HAL_Driver/Src/stm32f1xx_hal_flash.c:387:5
	movs	r0, #32
	str	r0, [r5, #-4]
.Ltmp57:
	.loc	4 391 15                @ ../Drivers/STM32F1xx_HAL_Driver/Src/stm32f1xx_hal_flash.c:391:15
	movw	r4, :lower16:pFlash
	movt	r4, :upper16:pFlash
	ldr	r0, [r4]
.Ltmp58:
	.loc	4 391 8 is_stmt 0       @ ../Drivers/STM32F1xx_HAL_Driver/Src/stm32f1xx_hal_flash.c:391:8
	cmp	r0, #0
	beq	.LBB4_17
@ %bb.5:
.Ltmp59:
	.loc	4 393 17 is_stmt 1      @ ../Drivers/STM32F1xx_HAL_Driver/Src/stm32f1xx_hal_flash.c:393:17
	ldr	r0, [r4]
.Ltmp60:
	.loc	4 393 10 is_stmt 0      @ ../Drivers/STM32F1xx_HAL_Driver/Src/stm32f1xx_hal_flash.c:393:10
	cmp	r0, #1
	bne	.LBB4_8
@ %bb.6:
.Ltmp61:
	.loc	4 396 29 is_stmt 1      @ ../Drivers/STM32F1xx_HAL_Driver/Src/stm32f1xx_hal_flash.c:396:29
	ldr	r0, [r4, #4]
	subs	r0, #1
	str	r0, [r4, #4]
.Ltmp62:
	.loc	4 399 19                @ ../Drivers/STM32F1xx_HAL_Driver/Src/stm32f1xx_hal_flash.c:399:19
	ldr	r0, [r4, #4]
.Ltmp63:
	.loc	4 399 12 is_stmt 0      @ ../Drivers/STM32F1xx_HAL_Driver/Src/stm32f1xx_hal_flash.c:399:12
	cbz	r0, .LBB4_12
@ %bb.7:
.Ltmp64:
	.loc	4 401 31 is_stmt 1      @ ../Drivers/STM32F1xx_HAL_Driver/Src/stm32f1xx_hal_flash.c:401:31
	ldr	r0, [r4, #8]
.Ltmp65:
	@DEBUG_VALUE: HAL_FLASH_IRQHandler:addresstmp <- $r0
	.loc	4 403 11                @ ../Drivers/STM32F1xx_HAL_Driver/Src/stm32f1xx_hal_flash.c:403:11
	bl	HAL_FLASH_EndOfOperationCallback
.Ltmp66:
	.loc	4 406 31                @ ../Drivers/STM32F1xx_HAL_Driver/Src/stm32f1xx_hal_flash.c:406:31
	ldr	r0, [r4, #8]
	.loc	4 406 39 is_stmt 0      @ ../Drivers/STM32F1xx_HAL_Driver/Src/stm32f1xx_hal_flash.c:406:39
	add.w	r0, r0, #1024
.Ltmp67:
	@DEBUG_VALUE: HAL_FLASH_IRQHandler:addresstmp <- $r0
	.loc	4 407 26 is_stmt 1      @ ../Drivers/STM32F1xx_HAL_Driver/Src/stm32f1xx_hal_flash.c:407:26
	str	r0, [r4, #8]
	.loc	4 410 11                @ ../Drivers/STM32F1xx_HAL_Driver/Src/stm32f1xx_hal_flash.c:410:11
	ldr	r1, [r5]
	bic	r1, r1, #2
	str	r1, [r5]
	.loc	4 412 11                @ ../Drivers/STM32F1xx_HAL_Driver/Src/stm32f1xx_hal_flash.c:412:11
	bl	FLASH_PageErase
.Ltmp68:
	.loc	4 0 11 is_stmt 0        @ ../Drivers/STM32F1xx_HAL_Driver/Src/stm32f1xx_hal_flash.c:0:11
	b	.LBB4_17
.Ltmp69:
.LBB4_8:
	.loc	4 424 22 is_stmt 1      @ ../Drivers/STM32F1xx_HAL_Driver/Src/stm32f1xx_hal_flash.c:424:22
	ldr	r0, [r4]
.Ltmp70:
	.loc	4 424 15 is_stmt 0      @ ../Drivers/STM32F1xx_HAL_Driver/Src/stm32f1xx_hal_flash.c:424:15
	cmp	r0, #2
	bne	.LBB4_10
@ %bb.9:
.Ltmp71:
	.loc	4 427 9 is_stmt 1       @ ../Drivers/STM32F1xx_HAL_Driver/Src/stm32f1xx_hal_flash.c:427:9
	ldr	r0, [r5]
	bic	r0, r0, #4
	str	r0, [r5]
	movs	r6, #0
	.loc	4 436 11                @ ../Drivers/STM32F1xx_HAL_Driver/Src/stm32f1xx_hal_flash.c:436:11
	movs	r0, #0
	bl	HAL_FLASH_EndOfOperationCallback
	.loc	4 439 35                @ ../Drivers/STM32F1xx_HAL_Driver/Src/stm32f1xx_hal_flash.c:439:35
	str	r6, [r4]
	b	.LBB4_17
.Ltmp72:
.LBB4_10:
	.loc	4 447 29                @ ../Drivers/STM32F1xx_HAL_Driver/Src/stm32f1xx_hal_flash.c:447:29
	ldr	r0, [r4, #4]
	subs	r0, #1
	str	r0, [r4, #4]
.Ltmp73:
	.loc	4 450 19                @ ../Drivers/STM32F1xx_HAL_Driver/Src/stm32f1xx_hal_flash.c:450:19
	ldr	r0, [r4, #4]
.Ltmp74:
	.loc	4 450 12 is_stmt 0      @ ../Drivers/STM32F1xx_HAL_Driver/Src/stm32f1xx_hal_flash.c:450:12
	cbz	r0, .LBB4_13
@ %bb.11:
.Ltmp75:
	.loc	4 453 26 is_stmt 1      @ ../Drivers/STM32F1xx_HAL_Driver/Src/stm32f1xx_hal_flash.c:453:26
	ldr	r0, [r4, #8]
	adds	r0, #2
	str	r0, [r4, #8]
	.loc	4 454 31                @ ../Drivers/STM32F1xx_HAL_Driver/Src/stm32f1xx_hal_flash.c:454:31
	ldr	r0, [r4, #8]
.Ltmp76:
	@DEBUG_VALUE: HAL_FLASH_IRQHandler:addresstmp <- $r0
	.loc	4 457 33                @ ../Drivers/STM32F1xx_HAL_Driver/Src/stm32f1xx_hal_flash.c:457:33
	ldr	r1, [r4, #16]
	ldr	r2, [r4, #20]
	.loc	4 457 38 is_stmt 0      @ ../Drivers/STM32F1xx_HAL_Driver/Src/stm32f1xx_hal_flash.c:457:38
	lsrs	r3, r2, #16
	.loc	4 457 23                @ ../Drivers/STM32F1xx_HAL_Driver/Src/stm32f1xx_hal_flash.c:457:23
	str	r3, [r4, #20]
	.loc	4 457 38                @ ../Drivers/STM32F1xx_HAL_Driver/Src/stm32f1xx_hal_flash.c:457:38
	lsrs	r1, r1, #16
	orr.w	r1, r1, r2, lsl #16
	.loc	4 457 23                @ ../Drivers/STM32F1xx_HAL_Driver/Src/stm32f1xx_hal_flash.c:457:23
	str	r1, [r4, #16]
	.loc	4 460 11 is_stmt 1      @ ../Drivers/STM32F1xx_HAL_Driver/Src/stm32f1xx_hal_flash.c:460:11
	ldr	r1, [r5]
	bic	r1, r1, #1
	str	r1, [r5]
	.loc	4 463 63                @ ../Drivers/STM32F1xx_HAL_Driver/Src/stm32f1xx_hal_flash.c:463:63
	ldr	r1, [r4, #16]
	ldr	r2, [r4, #20]
	.loc	4 463 11 is_stmt 0      @ ../Drivers/STM32F1xx_HAL_Driver/Src/stm32f1xx_hal_flash.c:463:11
	uxth	r1, r1
	bl	FLASH_Program_HalfWord
.Ltmp77:
	.loc	4 0 11                  @ ../Drivers/STM32F1xx_HAL_Driver/Src/stm32f1xx_hal_flash.c:0:11
	b	.LBB4_17
.Ltmp78:
.LBB4_12:
	@DEBUG_VALUE: HAL_FLASH_IRQHandler:addresstmp <- -1
	.loc	4 418 26 is_stmt 1      @ ../Drivers/STM32F1xx_HAL_Driver/Src/stm32f1xx_hal_flash.c:418:26
	mov.w	r0, #-1
	str	r0, [r4, #8]
	movs	r0, #0
	.loc	4 419 35                @ ../Drivers/STM32F1xx_HAL_Driver/Src/stm32f1xx_hal_flash.c:419:35
	str	r0, [r4]
	.loc	4 421 11                @ ../Drivers/STM32F1xx_HAL_Driver/Src/stm32f1xx_hal_flash.c:421:11
	mov.w	r0, #-1
	bl	HAL_FLASH_EndOfOperationCallback
	b	.LBB4_17
.Ltmp79:
.LBB4_13:
	.loc	4 469 22                @ ../Drivers/STM32F1xx_HAL_Driver/Src/stm32f1xx_hal_flash.c:469:22
	ldr	r0, [r4]
.Ltmp80:
	.loc	4 469 15 is_stmt 0      @ ../Drivers/STM32F1xx_HAL_Driver/Src/stm32f1xx_hal_flash.c:469:15
	cmp	r0, #3
	bne	.LBB4_15
@ %bb.14:
.Ltmp81:
	.loc	4 471 53 is_stmt 1      @ ../Drivers/STM32F1xx_HAL_Driver/Src/stm32f1xx_hal_flash.c:471:53
	ldr	r0, [r4, #8]
	b	.LBB4_16
.Ltmp82:
.LBB4_15:
	.loc	4 473 27                @ ../Drivers/STM32F1xx_HAL_Driver/Src/stm32f1xx_hal_flash.c:473:27
	ldr	r1, [r4]
	ldr	r0, [r4, #8]
.Ltmp83:
	.loc	4 473 20 is_stmt 0      @ ../Drivers/STM32F1xx_HAL_Driver/Src/stm32f1xx_hal_flash.c:473:20
	cmp	r1, #4
.Ltmp84:
	.loc	4 479 61 is_stmt 1      @ ../Drivers/STM32F1xx_HAL_Driver/Src/stm32f1xx_hal_flash.c:479:61
	ite	ne
	subne	r0, #6
.Ltmp85:
	.loc	4 475 61                @ ../Drivers/STM32F1xx_HAL_Driver/Src/stm32f1xx_hal_flash.c:475:61
	subeq	r0, #2
.Ltmp86:
.LBB4_16:
	.loc	4 0 61 is_stmt 0        @ ../Drivers/STM32F1xx_HAL_Driver/Src/stm32f1xx_hal_flash.c:0:61
	bl	HAL_FLASH_EndOfOperationCallback
	.loc	4 483 26 is_stmt 1      @ ../Drivers/STM32F1xx_HAL_Driver/Src/stm32f1xx_hal_flash.c:483:26
	mov.w	r0, #-1
	str	r0, [r4, #8]
	movs	r0, #0
	.loc	4 484 35                @ ../Drivers/STM32F1xx_HAL_Driver/Src/stm32f1xx_hal_flash.c:484:35
	str	r0, [r4]
.Ltmp87:
.LBB4_17:
	.loc	4 593 13                @ ../Drivers/STM32F1xx_HAL_Driver/Src/stm32f1xx_hal_flash.c:593:13
	movw	r0, :lower16:pFlash
	movt	r0, :upper16:pFlash
	ldr	r1, [r0]
.Ltmp88:
	.loc	4 593 6 is_stmt 0       @ ../Drivers/STM32F1xx_HAL_Driver/Src/stm32f1xx_hal_flash.c:593:6
	cmp	r1, #0
	.loc	4 613 1 is_stmt 1       @ ../Drivers/STM32F1xx_HAL_Driver/Src/stm32f1xx_hal_flash.c:613:1
	it	ne
	popne	{r4, r5, r6, pc}
.Ltmp89:
	.loc	4 604 5                 @ ../Drivers/STM32F1xx_HAL_Driver/Src/stm32f1xx_hal_flash.c:604:5
	ldr	r1, [r5]
	bic	r1, r1, #7
	str	r1, [r5]
	.loc	4 607 5                 @ ../Drivers/STM32F1xx_HAL_Driver/Src/stm32f1xx_hal_flash.c:607:5
	ldr	r1, [r5]
	bic	r1, r1, #5120
	str	r1, [r5]
	movs	r1, #0
.Ltmp90:
	.loc	4 611 5                 @ ../Drivers/STM32F1xx_HAL_Driver/Src/stm32f1xx_hal_flash.c:611:5
	str	r1, [r0, #24]
.Ltmp91:
	.loc	4 613 1                 @ ../Drivers/STM32F1xx_HAL_Driver/Src/stm32f1xx_hal_flash.c:613:1
	pop	{r4, r5, r6, pc}
.Ltmp92:
.Lfunc_end4:
	.size	HAL_FLASH_IRQHandler, .Lfunc_end4-HAL_FLASH_IRQHandler
	.cfi_endproc
	.cantunwind
	.fnend
                                        @ -- End function
	.section	.text.FLASH_SetErrorCode,"ax",%progbits
	.p2align	2               @ -- Begin function FLASH_SetErrorCode
	.type	FLASH_SetErrorCode,%function
	.code	16                      @ @FLASH_SetErrorCode
	.thumb_func
FLASH_SetErrorCode:
.Lfunc_begin5:
	.loc	4 928 0                 @ ../Drivers/STM32F1xx_HAL_Driver/Src/stm32f1xx_hal_flash.c:928:0
	.fnstart
	.cfi_startproc
@ %bb.0:
	movw	r0, #8204
	movt	r0, #16386
.Ltmp93:
	@DEBUG_VALUE: FLASH_SetErrorCode:flags <- 0
	.loc	4 934 6 prologue_end    @ ../Drivers/STM32F1xx_HAL_Driver/Src/stm32f1xx_hal_flash.c:934:6
	ldr	r1, [r0]
.Ltmp94:
	.loc	4 934 6 is_stmt 0       @ ../Drivers/STM32F1xx_HAL_Driver/Src/stm32f1xx_hal_flash.c:934:6
	tst.w	r1, #16
	bne	.LBB5_2
@ %bb.1:
	.loc	4 0 6                   @ ../Drivers/STM32F1xx_HAL_Driver/Src/stm32f1xx_hal_flash.c:0:6
	movs	r1, #0
	b	.LBB5_3
.LBB5_2:
.Ltmp95:
	.loc	4 937 22 is_stmt 1      @ ../Drivers/STM32F1xx_HAL_Driver/Src/stm32f1xx_hal_flash.c:937:22
	movw	r1, :lower16:pFlash
	movt	r1, :upper16:pFlash
	ldr	r2, [r1, #28]
	orr	r2, r2, #2
	str	r2, [r1, #28]
	movs	r1, #16
.Ltmp96:
	@DEBUG_VALUE: FLASH_SetErrorCode:flags <- 16
.LBB5_3:
	.loc	4 947 6                 @ ../Drivers/STM32F1xx_HAL_Driver/Src/stm32f1xx_hal_flash.c:947:6
	ldr	r2, [r0]
.Ltmp97:
	.loc	4 947 6 is_stmt 0       @ ../Drivers/STM32F1xx_HAL_Driver/Src/stm32f1xx_hal_flash.c:947:6
	tst.w	r2, #4
	beq	.LBB5_5
@ %bb.4:
.Ltmp98:
	@DEBUG_VALUE: FLASH_SetErrorCode:flags <- $r1
	.loc	4 950 22 is_stmt 1      @ ../Drivers/STM32F1xx_HAL_Driver/Src/stm32f1xx_hal_flash.c:950:22
	movw	r2, :lower16:pFlash
	movt	r2, :upper16:pFlash
	ldr	r3, [r2, #28]
	orr	r3, r3, #1
	str	r3, [r2, #28]
	.loc	4 954 11                @ ../Drivers/STM32F1xx_HAL_Driver/Src/stm32f1xx_hal_flash.c:954:11
	orr	r1, r1, #4
.Ltmp99:
.LBB5_5:
	.loc	4 957 6                 @ ../Drivers/STM32F1xx_HAL_Driver/Src/stm32f1xx_hal_flash.c:957:6
	ldr	r2, [r0, #16]
	tst.w	r2, #1
	beq	.LBB5_7
@ %bb.6:
.Ltmp100:
	.loc	4 959 22                @ ../Drivers/STM32F1xx_HAL_Driver/Src/stm32f1xx_hal_flash.c:959:22
	movw	r2, :lower16:pFlash
	movt	r2, :upper16:pFlash
	ldr	r3, [r2, #28]
	orr	r3, r3, #4
	str	r3, [r2, #28]
.Ltmp101:
	.loc	4 960 3                 @ ../Drivers/STM32F1xx_HAL_Driver/Src/stm32f1xx_hal_flash.c:960:3
	ldr	r2, [r0, #16]
	bic	r2, r2, #1
	str	r2, [r0, #16]
.Ltmp102:
.LBB5_7:
	@DEBUG_VALUE: FLASH_SetErrorCode:flags <- $r1
	.loc	4 964 3                 @ ../Drivers/STM32F1xx_HAL_Driver/Src/stm32f1xx_hal_flash.c:964:3
	str	r1, [r0]
.Ltmp103:
	.loc	4 965 1                 @ ../Drivers/STM32F1xx_HAL_Driver/Src/stm32f1xx_hal_flash.c:965:1
	bx	lr
.Ltmp104:
.Lfunc_end5:
	.size	FLASH_SetErrorCode, .Lfunc_end5-FLASH_SetErrorCode
	.cfi_endproc
	.cantunwind
	.fnend
                                        @ -- End function
	.section	.text.HAL_FLASH_OperationErrorCallback,"ax",%progbits
	.hidden	HAL_FLASH_OperationErrorCallback @ -- Begin function HAL_FLASH_OperationErrorCallback
	.weak	HAL_FLASH_OperationErrorCallback
	.p2align	2
	.type	HAL_FLASH_OperationErrorCallback,%function
	.code	16                      @ @HAL_FLASH_OperationErrorCallback
	.thumb_func
HAL_FLASH_OperationErrorCallback:
.Lfunc_begin6:
	.loc	4 643 0                 @ ../Drivers/STM32F1xx_HAL_Driver/Src/stm32f1xx_hal_flash.c:643:0
	.fnstart
	.cfi_startproc
@ %bb.0:
	@DEBUG_VALUE: HAL_FLASH_OperationErrorCallback:ReturnValue <- $r0
	.loc	4 650 1 prologue_end    @ ../Drivers/STM32F1xx_HAL_Driver/Src/stm32f1xx_hal_flash.c:650:1
	bx	lr
.Ltmp105:
.Lfunc_end6:
	.size	HAL_FLASH_OperationErrorCallback, .Lfunc_end6-HAL_FLASH_OperationErrorCallback
	.cfi_endproc
	.cantunwind
	.fnend
                                        @ -- End function
	.section	.text.HAL_FLASH_EndOfOperationCallback,"ax",%progbits
	.hidden	HAL_FLASH_EndOfOperationCallback @ -- Begin function HAL_FLASH_EndOfOperationCallback
	.weak	HAL_FLASH_EndOfOperationCallback
	.p2align	2
	.type	HAL_FLASH_EndOfOperationCallback,%function
	.code	16                      @ @HAL_FLASH_EndOfOperationCallback
	.thumb_func
HAL_FLASH_EndOfOperationCallback:
.Lfunc_begin7:
	.loc	4 625 0                 @ ../Drivers/STM32F1xx_HAL_Driver/Src/stm32f1xx_hal_flash.c:625:0
	.fnstart
	.cfi_startproc
@ %bb.0:
	@DEBUG_VALUE: HAL_FLASH_EndOfOperationCallback:ReturnValue <- $r0
	.loc	4 632 1 prologue_end    @ ../Drivers/STM32F1xx_HAL_Driver/Src/stm32f1xx_hal_flash.c:632:1
	bx	lr
.Ltmp106:
.Lfunc_end7:
	.size	HAL_FLASH_EndOfOperationCallback, .Lfunc_end7-HAL_FLASH_EndOfOperationCallback
	.cfi_endproc
	.cantunwind
	.fnend
                                        @ -- End function
	.section	.text.HAL_FLASH_Unlock,"ax",%progbits
	.hidden	HAL_FLASH_Unlock        @ -- Begin function HAL_FLASH_Unlock
	.globl	HAL_FLASH_Unlock
	.p2align	2
	.type	HAL_FLASH_Unlock,%function
	.code	16                      @ @HAL_FLASH_Unlock
	.thumb_func
HAL_FLASH_Unlock:
.Lfunc_begin8:
	.loc	4 676 0                 @ ../Drivers/STM32F1xx_HAL_Driver/Src/stm32f1xx_hal_flash.c:676:0
	.fnstart
	.cfi_startproc
@ %bb.0:
	movw	r0, #8196
	movt	r0, #16386
.Ltmp107:
	.loc	4 677 7 prologue_end    @ ../Drivers/STM32F1xx_HAL_Driver/Src/stm32f1xx_hal_flash.c:677:7
	ldr	r1, [r0, #12]
.Ltmp108:
	.loc	4 677 7 is_stmt 0       @ ../Drivers/STM32F1xx_HAL_Driver/Src/stm32f1xx_hal_flash.c:677:7
	tst.w	r1, #128
	itt	eq
	moveq	r0, #1
	.loc	4 702 1 is_stmt 1       @ ../Drivers/STM32F1xx_HAL_Driver/Src/stm32f1xx_hal_flash.c:702:1
	bxeq	lr
.Ltmp109:
	.loc	4 680 5                 @ ../Drivers/STM32F1xx_HAL_Driver/Src/stm32f1xx_hal_flash.c:680:5
	movw	r1, #291
	movt	r1, #17767
	str	r1, [r0]
	.loc	4 681 5                 @ ../Drivers/STM32F1xx_HAL_Driver/Src/stm32f1xx_hal_flash.c:681:5
	movw	r1, #35243
	movt	r1, #52719
	str	r1, [r0]
	movs	r0, #0
.Ltmp110:
	.loc	4 702 1                 @ ../Drivers/STM32F1xx_HAL_Driver/Src/stm32f1xx_hal_flash.c:702:1
	bx	lr
.Ltmp111:
.Lfunc_end8:
	.size	HAL_FLASH_Unlock, .Lfunc_end8-HAL_FLASH_Unlock
	.cfi_endproc
	.cantunwind
	.fnend
                                        @ -- End function
	.section	.text.HAL_FLASH_Lock,"ax",%progbits
	.hidden	HAL_FLASH_Lock          @ -- Begin function HAL_FLASH_Lock
	.globl	HAL_FLASH_Lock
	.p2align	2
	.type	HAL_FLASH_Lock,%function
	.code	16                      @ @HAL_FLASH_Lock
	.thumb_func
HAL_FLASH_Lock:
.Lfunc_begin9:
	.loc	4 709 0                 @ ../Drivers/STM32F1xx_HAL_Driver/Src/stm32f1xx_hal_flash.c:709:0
	.fnstart
	.cfi_startproc
@ %bb.0:
	.loc	4 711 3 prologue_end    @ ../Drivers/STM32F1xx_HAL_Driver/Src/stm32f1xx_hal_flash.c:711:3
	movw	r0, #8208
	movt	r0, #16386
	ldr	r1, [r0]
	orr	r1, r1, #128
	str	r1, [r0]
	.loc	4 718 3                 @ ../Drivers/STM32F1xx_HAL_Driver/Src/stm32f1xx_hal_flash.c:718:3
	movs	r0, #0
	bx	lr
.Ltmp112:
.Lfunc_end9:
	.size	HAL_FLASH_Lock, .Lfunc_end9-HAL_FLASH_Lock
	.cfi_endproc
	.cantunwind
	.fnend
                                        @ -- End function
	.section	.text.HAL_FLASH_OB_Unlock,"ax",%progbits
	.hidden	HAL_FLASH_OB_Unlock     @ -- Begin function HAL_FLASH_OB_Unlock
	.globl	HAL_FLASH_OB_Unlock
	.p2align	2
	.type	HAL_FLASH_OB_Unlock,%function
	.code	16                      @ @HAL_FLASH_OB_Unlock
	.thumb_func
HAL_FLASH_OB_Unlock:
.Lfunc_begin10:
	.loc	4 726 0                 @ ../Drivers/STM32F1xx_HAL_Driver/Src/stm32f1xx_hal_flash.c:726:0
	.fnstart
	.cfi_startproc
@ %bb.0:
	movw	r0, #8200
	movt	r0, #16386
.Ltmp113:
	.loc	4 727 7 prologue_end    @ ../Drivers/STM32F1xx_HAL_Driver/Src/stm32f1xx_hal_flash.c:727:7
	ldr	r1, [r0, #8]
.Ltmp114:
	.loc	4 727 7 is_stmt 0       @ ../Drivers/STM32F1xx_HAL_Driver/Src/stm32f1xx_hal_flash.c:727:7
	tst.w	r1, #512
	itt	ne
	movne	r0, #1
	.loc	4 739 1 is_stmt 1       @ ../Drivers/STM32F1xx_HAL_Driver/Src/stm32f1xx_hal_flash.c:739:1
	bxne	lr
.Ltmp115:
	.loc	4 730 5                 @ ../Drivers/STM32F1xx_HAL_Driver/Src/stm32f1xx_hal_flash.c:730:5
	movw	r1, #291
	movt	r1, #17767
	str	r1, [r0]
	.loc	4 731 5                 @ ../Drivers/STM32F1xx_HAL_Driver/Src/stm32f1xx_hal_flash.c:731:5
	movw	r1, #35243
	movt	r1, #52719
	str	r1, [r0]
	movs	r0, #0
.Ltmp116:
	.loc	4 739 1                 @ ../Drivers/STM32F1xx_HAL_Driver/Src/stm32f1xx_hal_flash.c:739:1
	bx	lr
.Ltmp117:
.Lfunc_end10:
	.size	HAL_FLASH_OB_Unlock, .Lfunc_end10-HAL_FLASH_OB_Unlock
	.cfi_endproc
	.cantunwind
	.fnend
                                        @ -- End function
	.section	.text.HAL_FLASH_OB_Lock,"ax",%progbits
	.hidden	HAL_FLASH_OB_Lock       @ -- Begin function HAL_FLASH_OB_Lock
	.globl	HAL_FLASH_OB_Lock
	.p2align	2
	.type	HAL_FLASH_OB_Lock,%function
	.code	16                      @ @HAL_FLASH_OB_Lock
	.thumb_func
HAL_FLASH_OB_Lock:
.Lfunc_begin11:
	.loc	4 746 0                 @ ../Drivers/STM32F1xx_HAL_Driver/Src/stm32f1xx_hal_flash.c:746:0
	.fnstart
	.cfi_startproc
@ %bb.0:
	.loc	4 748 3 prologue_end    @ ../Drivers/STM32F1xx_HAL_Driver/Src/stm32f1xx_hal_flash.c:748:3
	movw	r0, #8208
	movt	r0, #16386
	ldr	r1, [r0]
	bic	r1, r1, #512
	str	r1, [r0]
	.loc	4 750 3                 @ ../Drivers/STM32F1xx_HAL_Driver/Src/stm32f1xx_hal_flash.c:750:3
	movs	r0, #0
	bx	lr
.Ltmp118:
.Lfunc_end11:
	.size	HAL_FLASH_OB_Lock, .Lfunc_end11-HAL_FLASH_OB_Lock
	.cfi_endproc
	.cantunwind
	.fnend
                                        @ -- End function
	.section	.text.HAL_FLASH_OB_Launch,"ax",%progbits
	.hidden	HAL_FLASH_OB_Launch     @ -- Begin function HAL_FLASH_OB_Launch
	.globl	HAL_FLASH_OB_Launch
	.p2align	2
	.type	HAL_FLASH_OB_Launch,%function
	.code	16                      @ @HAL_FLASH_OB_Launch
	.thumb_func
HAL_FLASH_OB_Launch:
.Lfunc_begin12:
	.loc	4 759 0                 @ ../Drivers/STM32F1xx_HAL_Driver/Src/stm32f1xx_hal_flash.c:759:0
	.fnstart
	.cfi_startproc
@ %bb.0:
	.loc	4 761 3 prologue_end    @ ../Drivers/STM32F1xx_HAL_Driver/Src/stm32f1xx_hal_flash.c:761:3
	b	HAL_NVIC_SystemReset
.Ltmp119:
.Lfunc_end12:
	.size	HAL_FLASH_OB_Launch, .Lfunc_end12-HAL_FLASH_OB_Launch
	.cfi_endproc
	.cantunwind
	.fnend
                                        @ -- End function
	.section	.text.HAL_FLASH_GetError,"ax",%progbits
	.hidden	HAL_FLASH_GetError      @ -- Begin function HAL_FLASH_GetError
	.globl	HAL_FLASH_GetError
	.p2align	2
	.type	HAL_FLASH_GetError,%function
	.code	16                      @ @HAL_FLASH_GetError
	.thumb_func
HAL_FLASH_GetError:
.Lfunc_begin13:
	.loc	4 788 0                 @ ../Drivers/STM32F1xx_HAL_Driver/Src/stm32f1xx_hal_flash.c:788:0
	.fnstart
	.cfi_startproc
@ %bb.0:
	.loc	4 789 18 prologue_end   @ ../Drivers/STM32F1xx_HAL_Driver/Src/stm32f1xx_hal_flash.c:789:18
	movw	r0, :lower16:pFlash
	movt	r0, :upper16:pFlash
	ldr	r0, [r0, #28]
	.loc	4 789 4 is_stmt 0       @ ../Drivers/STM32F1xx_HAL_Driver/Src/stm32f1xx_hal_flash.c:789:4
	bx	lr
.Ltmp120:
.Lfunc_end13:
	.size	HAL_FLASH_GetError, .Lfunc_end13-HAL_FLASH_GetError
	.cfi_endproc
	.cantunwind
	.fnend
                                        @ -- End function
	.hidden	pFlash                  @ @pFlash
	.type	pFlash,%object
	.section	.bss.pFlash,"aw",%nobits
	.globl	pFlash
	.p2align	3
pFlash:
	.zero	32
	.size	pFlash, 32

	.section	".note.GNU-stack","",%progbits
	.eabi_attribute	30, 1	@ Tag_ABI_optimization_goals
	.ARM_attribute	16, 1	@ Tag_AV_eba