	.text
	.syntax unified
	.eabi_attribute	67, "2.09"	@ Tag_conformance
	.cpu	cortex-m3
	.eabi_attribute	6, 10	@ Tag_CPU_arch
	.eabi_attribute	7, 77	@ Tag_CPU_arch_profile
	.eabi_attribute	8, 0	@ Tag_ARM_ISA_use
	.eabi_attribute	9, 2	@ Tag_THUMB_ISA_use
	.eabi_attribute	34, 1	@ Tag_CPU_unaligned_access
	.eabi_attribute	17, 1	@ Tag_ABI_PCS_GOT_use
	.eabi_attribute	20, 2	@ Tag_ABI_FP_denormal
	.eabi_attribute	21, 0	@ Tag_ABI_FP_exceptions
	.eabi_attribute	23, 1	@ Tag_ABI_FP_number_model
	.eabi_attribute	24, 1	@ Tag_ABI_align_needed
	.eabi_attribute	25, 1	@ Tag_ABI_align_preserved
	.eabi_attribute	38, 1	@ Tag_ABI_FP_16bit_format
	.eabi_attribute	18, 4	@ Tag_ABI_PCS_wchar_t
	.eabi_attribute	26, 2	@ Tag_ABI_enum_size
	.eabi_attribute	14, 0	@ Tag_ABI_PCS_R9_use
	.file	"stm32f1xx_hal_rtc.c"
	.file	1 "../Drivers/STM32F1xx_HAL_Driver/Inc" "stm32f1xx_hal_def.h"
	.file	2 "../Drivers/STM32F1xx_HAL_Driver/Inc" "stm32f1xx_hal_rtc.h"
	.file	3 "../Drivers/CMSIS/Device/ST/STM32F1xx/Include" "stm32f1xx.h"
	.file	4 "C:\\Keil\\ARM\\ARMCLANG\\Bin\\..\\include" "stdint.h"
	.file	5 "../Drivers/CMSIS/Device/ST/STM32F1xx/Include" "stm32f103xb.h"
	.section	.text.HAL_RTC_Init,"ax",%progbits
	.hidden	HAL_RTC_Init            @ -- Begin function HAL_RTC_Init
	.globl	HAL_RTC_Init
	.p2align	2
	.type	HAL_RTC_Init,%function
	.code	16                      @ @HAL_RTC_Init
	.thumb_func
HAL_RTC_Init:
.Lfunc_begin0:
	.file	6 "../Drivers/STM32F1xx_HAL_Driver/Src" "stm32f1xx_hal_rtc.c"
	.loc	6 245 0                 @ ../Drivers/STM32F1xx_HAL_Driver/Src/stm32f1xx_hal_rtc.c:245:0
	.fnstart
	.cfi_sections .debug_frame
	.cfi_startproc
@ %bb.0:
	.save	{r4, r5, r7, lr}
	push	{r4, r5, r7, lr}
	.cfi_def_cfa_offset 16
	.cfi_offset lr, -4
	.cfi_offset r7, -8
	.cfi_offset r5, -12
	.cfi_offset r4, -16
	@DEBUG_VALUE: HAL_RTC_Init:hrtc <- $r0
	mov	r4, r0
.Ltmp0:
	@DEBUG_VALUE: HAL_RTC_Init:prescaler <- 0
	@DEBUG_VALUE: HAL_RTC_Init:hrtc <- $r4
	.loc	6 248 6 prologue_end    @ ../Drivers/STM32F1xx_HAL_Driver/Src/stm32f1xx_hal_rtc.c:248:6
	cmp	r0, #0
	beq	.LBB0_11
.Ltmp1:
@ %bb.1:
	@DEBUG_VALUE: HAL_RTC_Init:hrtc <- $r4
	.loc	6 258 12                @ ../Drivers/STM32F1xx_HAL_Driver/Src/stm32f1xx_hal_rtc.c:258:12
	ldr	r0, [r4, #20]
.Ltmp2:
	.loc	6 258 6 is_stmt 0       @ ../Drivers/STM32F1xx_HAL_Driver/Src/stm32f1xx_hal_rtc.c:258:6
	cbnz	r0, .LBB0_3
.Ltmp3:
@ %bb.2:
	@DEBUG_VALUE: HAL_RTC_Init:hrtc <- $r4
	.loc	6 261 16 is_stmt 1      @ ../Drivers/STM32F1xx_HAL_Driver/Src/stm32f1xx_hal_rtc.c:261:16
	movs	r0, #0
	str	r0, [r4, #16]
	.loc	6 264 5                 @ ../Drivers/STM32F1xx_HAL_Driver/Src/stm32f1xx_hal_rtc.c:264:5
	mov	r0, r4
	bl	HAL_RTC_MspInit
.Ltmp4:
.LBB0_3:
	@DEBUG_VALUE: HAL_RTC_Init:hrtc <- $r4
	.loc	6 268 15                @ ../Drivers/STM32F1xx_HAL_Driver/Src/stm32f1xx_hal_rtc.c:268:15
	movs	r0, #2
	str	r0, [r4, #20]
.Ltmp5:
	.loc	6 271 6                 @ ../Drivers/STM32F1xx_HAL_Driver/Src/stm32f1xx_hal_rtc.c:271:6
	mov	r0, r4
	bl	HAL_RTC_WaitForSynchro
.Ltmp6:
	.loc	6 271 6 is_stmt 0       @ ../Drivers/STM32F1xx_HAL_Driver/Src/stm32f1xx_hal_rtc.c:271:6
	cbnz	r0, .LBB0_9
.Ltmp7:
@ %bb.4:
	@DEBUG_VALUE: HAL_RTC_Init:hrtc <- $r4
	.loc	6 280 6 is_stmt 1       @ ../Drivers/STM32F1xx_HAL_Driver/Src/stm32f1xx_hal_rtc.c:280:6
	mov	r0, r4
	bl	RTC_EnterInitMode
.Ltmp8:
	.loc	6 280 6 is_stmt 0       @ ../Drivers/STM32F1xx_HAL_Driver/Src/stm32f1xx_hal_rtc.c:280:6
	cbnz	r0, .LBB0_9
.Ltmp9:
@ %bb.5:
	@DEBUG_VALUE: HAL_RTC_Init:hrtc <- $r4
	.loc	6 290 5 is_stmt 1       @ ../Drivers/STM32F1xx_HAL_Driver/Src/stm32f1xx_hal_rtc.c:290:5
	ldr	r0, [r4]
	ldr	r1, [r0, #4]
	bic	r1, r1, #7
	str	r1, [r0, #4]
.Ltmp10:
	.loc	6 292 19                @ ../Drivers/STM32F1xx_HAL_Driver/Src/stm32f1xx_hal_rtc.c:292:19
	ldr	r1, [r4, #8]
	movw	r0, #27692
	movt	r0, #16384
.Ltmp11:
	.loc	6 292 8 is_stmt 0       @ ../Drivers/STM32F1xx_HAL_Driver/Src/stm32f1xx_hal_rtc.c:292:8
	cmp	r1, #0
.Ltmp12:
	.loc	6 295 7 is_stmt 1       @ ../Drivers/STM32F1xx_HAL_Driver/Src/stm32f1xx_hal_rtc.c:295:7
	ittt	ne
	ldrne	r2, [r0, #4]
	bicne	r2, r2, #1
	strne	r2, [r0, #4]
.Ltmp13:
	.loc	6 299 5                 @ ../Drivers/STM32F1xx_HAL_Driver/Src/stm32f1xx_hal_rtc.c:299:5
	ldr	r2, [r0]
	bic	r2, r2, #896
	orrs	r1, r2
	str	r1, [r0]
.Ltmp14:
	.loc	6 301 20                @ ../Drivers/STM32F1xx_HAL_Driver/Src/stm32f1xx_hal_rtc.c:301:20
	ldr	r0, [r4, #4]
.Ltmp15:
	.loc	6 301 9 is_stmt 0       @ ../Drivers/STM32F1xx_HAL_Driver/Src/stm32f1xx_hal_rtc.c:301:9
	adds	r1, r0, #1
	bne	.LBB0_8
.Ltmp16:
@ %bb.6:
	@DEBUG_VALUE: HAL_RTC_Init:hrtc <- $r4
	.loc	6 0 9                   @ ../Drivers/STM32F1xx_HAL_Driver/Src/stm32f1xx_hal_rtc.c:0:9
	movs	r5, #1
.Ltmp17:
	.loc	6 310 19 is_stmt 1      @ ../Drivers/STM32F1xx_HAL_Driver/Src/stm32f1xx_hal_rtc.c:310:19
	movs	r0, #1
	bl	HAL_RCCEx_GetPeriphCLKFreq
.Ltmp18:
	@DEBUG_VALUE: HAL_RTC_Init:prescaler <- $r0
	.loc	6 313 11                @ ../Drivers/STM32F1xx_HAL_Driver/Src/stm32f1xx_hal_rtc.c:313:11
	cbz	r0, .LBB0_13
.Ltmp19:
@ %bb.7:
	@DEBUG_VALUE: HAL_RTC_Init:prescaler <- $r0
	@DEBUG_VALUE: HAL_RTC_Init:hrtc <- $r4
	.loc	6 322 31                @ ../Drivers/STM32F1xx_HAL_Driver/Src/stm32f1xx_hal_rtc.c:322:31
	subs	r0, #1
.Ltmp20:
	@DEBUG_VALUE: HAL_RTC_Init:prescaler <- $r0
.LBB0_8:
	@DEBUG_VALUE: HAL_RTC_Init:hrtc <- $r4
	@DEBUG_VALUE: HAL_RTC_Init:prescaler <- $r0
	.loc	6 327 5                 @ ../Drivers/STM32F1xx_HAL_Driver/Src/stm32f1xx_hal_rtc.c:327:5
	ldr	r1, [r4]
	ldr	r2, [r1, #8]
	bic	r2, r2, #15
	orr.w	r2, r2, r0, lsr #16
	str	r2, [r1, #8]
	.loc	6 328 5                 @ ../Drivers/STM32F1xx_HAL_Driver/Src/stm32f1xx_hal_rtc.c:328:5
	ldr	r2, [r1, #12]
	bfi	r2, r0, #0, #16
	str	r2, [r1, #12]
.Ltmp21:
	.loc	6 331 8                 @ ../Drivers/STM32F1xx_HAL_Driver/Src/stm32f1xx_hal_rtc.c:331:8
	mov	r0, r4
.Ltmp22:
	bl	RTC_ExitInitMode
.Ltmp23:
	.loc	6 331 8 is_stmt 0       @ ../Drivers/STM32F1xx_HAL_Driver/Src/stm32f1xx_hal_rtc.c:331:8
	cbz	r0, .LBB0_12
.Ltmp24:
.LBB0_9:
	@DEBUG_VALUE: HAL_RTC_Init:hrtc <- $r4
	.loc	6 0 8                   @ ../Drivers/STM32F1xx_HAL_Driver/Src/stm32f1xx_hal_rtc.c:0:8
	movs	r5, #1
	movs	r0, #4
.Ltmp25:
.LBB0_10:
	@DEBUG_VALUE: HAL_RTC_Init:hrtc <- $r4
	str	r0, [r4, #20]
	.loc	6 348 1 is_stmt 1       @ ../Drivers/STM32F1xx_HAL_Driver/Src/stm32f1xx_hal_rtc.c:348:1
	mov	r0, r5
	pop	{r4, r5, r7, pc}
.Ltmp26:
.LBB0_11:
	@DEBUG_VALUE: HAL_RTC_Init:hrtc <- $r4
	.loc	6 0 1 is_stmt 0         @ ../Drivers/STM32F1xx_HAL_Driver/Src/stm32f1xx_hal_rtc.c:0:1
	movs	r5, #1
	.loc	6 348 1                 @ ../Drivers/STM32F1xx_HAL_Driver/Src/stm32f1xx_hal_rtc.c:348:1
	mov	r0, r5
	pop	{r4, r5, r7, pc}
.Ltmp27:
.LBB0_12:
	@DEBUG_VALUE: HAL_RTC_Init:hrtc <- $r4
	.loc	6 0 1                   @ ../Drivers/STM32F1xx_HAL_Driver/Src/stm32f1xx_hal_rtc.c:0:1
	movs	r5, #0
.Ltmp28:
	.loc	6 339 29 is_stmt 1      @ ../Drivers/STM32F1xx_HAL_Driver/Src/stm32f1xx_hal_rtc.c:339:29
	strb	r5, [r4, #15]
	.loc	6 340 30                @ ../Drivers/STM32F1xx_HAL_Driver/Src/stm32f1xx_hal_rtc.c:340:30
	movw	r0, #257
	strh.w	r0, [r4, #13]
	movs	r0, #1
	b	.LBB0_10
.Ltmp29:
.LBB0_13:
	@DEBUG_VALUE: HAL_RTC_Init:prescaler <- $r0
	@DEBUG_VALUE: HAL_RTC_Init:hrtc <- $r4
	.loc	6 0 30 is_stmt 0        @ ../Drivers/STM32F1xx_HAL_Driver/Src/stm32f1xx_hal_rtc.c:0:30
	movs	r0, #4
.Ltmp30:
	b	.LBB0_10
.Lfunc_end0:
	.size	HAL_RTC_Init, .Lfunc_end0-HAL_RTC_Init
	.cfi_endproc
	.cantunwind
	.fnend
                                        @ -- End function
	.section	.text.HAL_RTC_MspInit,"ax",%progbits
	.hidden	HAL_RTC_MspInit         @ -- Begin function HAL_RTC_MspInit
	.weak	HAL_RTC_MspInit
	.p2align	2
	.type	HAL_RTC_MspInit,%function
	.code	16                      @ @HAL_RTC_MspInit
	.thumb_func
HAL_RTC_MspInit:
.Lfunc_begin1:
	.loc	6 428 0 is_stmt 1       @ ../Drivers/STM32F1xx_HAL_Driver/Src/stm32f1xx_hal_rtc.c:428:0
	.fnstart
	.cfi_startproc
@ %bb.0:
	@DEBUG_VALUE: HAL_RTC_MspInit:hrtc <- $r0
	.loc	6 434 1 prologue_end    @ ../Drivers/STM32F1xx_HAL_Driver/Src/stm32f1xx_hal_rtc.c:434:1
	bx	lr
.Ltmp31:
.Lfunc_end1:
	.size	HAL_RTC_MspInit, .Lfunc_end1-HAL_RTC_MspInit
	.cfi_endproc
	.cantunwind
	.fnend
                                        @ -- End function
	.section	.text.HAL_RTC_WaitForSynchro,"ax",%progbits
	.hidden	HAL_RTC_WaitForSynchro  @ -- Begin function HAL_RTC_WaitForSynchro
	.globl	HAL_RTC_WaitForSynchro
	.p2align	2
	.type	HAL_RTC_WaitForSynchro,%function
	.code	16                      @ @HAL_RTC_WaitForSynchro
	.thumb_func
HAL_RTC_WaitForSynchro:
.Lfunc_begin2:
	.loc	6 1314 0                @ ../Drivers/STM32F1xx_HAL_Driver/Src/stm32f1xx_hal_rtc.c:1314:0
	.fnstart
	.cfi_startproc
@ %bb.0:
	.save	{r4, r5, r7, lr}
	push	{r4, r5, r7, lr}
	.cfi_def_cfa_offset 16
	.cfi_offset lr, -4
	.cfi_offset r7, -8
	.cfi_offset r5, -12
	.cfi_offset r4, -16
	@DEBUG_VALUE: HAL_RTC_WaitForSynchro:hrtc <- $r0
	mov	r4, r0
.Ltmp32:
	@DEBUG_VALUE: HAL_RTC_WaitForSynchro:tickstart <- 0
	@DEBUG_VALUE: HAL_RTC_WaitForSynchro:hrtc <- $r4
	.loc	6 1318 6 prologue_end   @ ../Drivers/STM32F1xx_HAL_Driver/Src/stm32f1xx_hal_rtc.c:1318:6
	cmp	r0, #0
	itt	eq
	moveq	r0, #1
	.loc	6 1338 1                @ ../Drivers/STM32F1xx_HAL_Driver/Src/stm32f1xx_hal_rtc.c:1338:1
	popeq	{r4, r5, r7, pc}
.Ltmp33:
	.loc	6 1324 3                @ ../Drivers/STM32F1xx_HAL_Driver/Src/stm32f1xx_hal_rtc.c:1324:3
	ldr	r0, [r4]
	ldr	r1, [r0, #4]
	bic	r1, r1, #8
	str	r1, [r0, #4]
	.loc	6 1326 15               @ ../Drivers/STM32F1xx_HAL_Driver/Src/stm32f1xx_hal_rtc.c:1326:15
	bl	HAL_GetTick
	mov	r5, r0
.Ltmp34:
	@DEBUG_VALUE: HAL_RTC_WaitForSynchro:tickstart <- $r5
	.loc	6 1329 16               @ ../Drivers/STM32F1xx_HAL_Driver/Src/stm32f1xx_hal_rtc.c:1329:16
	ldr	r0, [r4]
	.loc	6 1329 26 is_stmt 0     @ ../Drivers/STM32F1xx_HAL_Driver/Src/stm32f1xx_hal_rtc.c:1329:26
	ldr	r0, [r0, #4]
	.loc	6 1329 3                @ ../Drivers/STM32F1xx_HAL_Driver/Src/stm32f1xx_hal_rtc.c:1329:3
	tst.w	r0, #8
	itt	ne
	movne	r0, #0
	.loc	6 1338 1 is_stmt 1      @ ../Drivers/STM32F1xx_HAL_Driver/Src/stm32f1xx_hal_rtc.c:1338:1
	popne	{r4, r5, r7, pc}
.Ltmp35:
	.loc	6 0 1 is_stmt 0         @ ../Drivers/STM32F1xx_HAL_Driver/Src/stm32f1xx_hal_rtc.c:0:1
	b	.LBB2_2
	.p2align	2
.LBB2_1:                                @   in Loop: Header=BB2_2 Depth=1
	.loc	6 1329 16 is_stmt 1     @ ../Drivers/STM32F1xx_HAL_Driver/Src/stm32f1xx_hal_rtc.c:1329:16
	ldr	r0, [r4]
	.loc	6 1329 26 is_stmt 0     @ ../Drivers/STM32F1xx_HAL_Driver/Src/stm32f1xx_hal_rtc.c:1329:26
	ldr	r0, [r0, #4]
	.loc	6 1329 3                @ ../Drivers/STM32F1xx_HAL_Driver/Src/stm32f1xx_hal_rtc.c:1329:3
	tst.w	r0, #8
	itt	ne
	movne	r0, #0
	.loc	6 1338 1 is_stmt 1      @ ../Drivers/STM32F1xx_HAL_Driver/Src/stm32f1xx_hal_rtc.c:1338:1
	popne	{r4, r5, r7, pc}
.LBB2_2:                                @ =>This Inner Loop Header: Depth=1
.Ltmp36:
	.loc	6 1331 9                @ ../Drivers/STM32F1xx_HAL_Driver/Src/stm32f1xx_hal_rtc.c:1331:9
	bl	HAL_GetTick
	.loc	6 1331 23 is_stmt 0     @ ../Drivers/STM32F1xx_HAL_Driver/Src/stm32f1xx_hal_rtc.c:1331:23
	subs	r0, r0, r5
.Ltmp37:
	.loc	6 1331 8                @ ../Drivers/STM32F1xx_HAL_Driver/Src/stm32f1xx_hal_rtc.c:1331:8
	cmp.w	r0, #1000
	itt	hi
	movhi	r0, #3
.Ltmp38:
	.loc	6 1338 1 is_stmt 1      @ ../Drivers/STM32F1xx_HAL_Driver/Src/stm32f1xx_hal_rtc.c:1338:1
	pophi	{r4, r5, r7, pc}
	b	.LBB2_1
.Ltmp39:
.Lfunc_end2:
	.size	HAL_RTC_WaitForSynchro, .Lfunc_end2-HAL_RTC_WaitForSynchro
	.cfi_endproc
	.cantunwind
	.fnend
                                        @ -- End function
	.section	.text.RTC_EnterInitMode,"ax",%progbits
	.p2align	2               @ -- Begin function RTC_EnterInitMode
	.type	RTC_EnterInitMode,%function
	.code	16                      @ @RTC_EnterInitMode
	.thumb_func
RTC_EnterInitMode:
.Lfunc_begin3:
	.loc	6 1472 0                @ ../Drivers/STM32F1xx_HAL_Driver/Src/stm32f1xx_hal_rtc.c:1472:0
	.fnstart
	.cfi_startproc
@ %bb.0:
	.save	{r4, r5, r7, lr}
	push	{r4, r5, r7, lr}
	.cfi_def_cfa_offset 16
	.cfi_offset lr, -4
	.cfi_offset r7, -8
	.cfi_offset r5, -12
	.cfi_offset r4, -16
	@DEBUG_VALUE: RTC_EnterInitMode:hrtc <- $r0
	mov	r4, r0
.Ltmp40:
	@DEBUG_VALUE: RTC_EnterInitMode:tickstart <- 0
	@DEBUG_VALUE: RTC_EnterInitMode:hrtc <- $r4
	.loc	6 1475 15 prologue_end  @ ../Drivers/STM32F1xx_HAL_Driver/Src/stm32f1xx_hal_rtc.c:1475:15
	bl	HAL_GetTick
	mov	r5, r0
.Ltmp41:
	@DEBUG_VALUE: RTC_EnterInitMode:tickstart <- $r5
	.loc	6 1477 16               @ ../Drivers/STM32F1xx_HAL_Driver/Src/stm32f1xx_hal_rtc.c:1477:16
	ldr	r0, [r4]
	.loc	6 1477 26 is_stmt 0     @ ../Drivers/STM32F1xx_HAL_Driver/Src/stm32f1xx_hal_rtc.c:1477:26
	ldr	r1, [r0, #4]!
	.loc	6 1477 3                @ ../Drivers/STM32F1xx_HAL_Driver/Src/stm32f1xx_hal_rtc.c:1477:3
	tst.w	r1, #32
	bne	.LBB3_4
.Ltmp42:
	.p2align	2
.LBB3_1:                                @ =>This Inner Loop Header: Depth=1
	@DEBUG_VALUE: RTC_EnterInitMode:tickstart <- $r5
	@DEBUG_VALUE: RTC_EnterInitMode:hrtc <- $r4
	.loc	6 1479 9 is_stmt 1      @ ../Drivers/STM32F1xx_HAL_Driver/Src/stm32f1xx_hal_rtc.c:1479:9
	bl	HAL_GetTick
	.loc	6 1479 23 is_stmt 0     @ ../Drivers/STM32F1xx_HAL_Driver/Src/stm32f1xx_hal_rtc.c:1479:23
	subs	r0, r0, r5
.Ltmp43:
	.loc	6 1479 8                @ ../Drivers/STM32F1xx_HAL_Driver/Src/stm32f1xx_hal_rtc.c:1479:8
	cmp.w	r0, #1000
	itt	hi
	movhi	r0, #3
.Ltmp44:
	.loc	6 1490 1 is_stmt 1      @ ../Drivers/STM32F1xx_HAL_Driver/Src/stm32f1xx_hal_rtc.c:1490:1
	pophi	{r4, r5, r7, pc}
.Ltmp45:
.LBB3_2:                                @   in Loop: Header=BB3_1 Depth=1
	.loc	6 1477 16               @ ../Drivers/STM32F1xx_HAL_Driver/Src/stm32f1xx_hal_rtc.c:1477:16
	ldr	r0, [r4]
	.loc	6 1477 26 is_stmt 0     @ ../Drivers/STM32F1xx_HAL_Driver/Src/stm32f1xx_hal_rtc.c:1477:26
	ldr	r1, [r0, #4]
	.loc	6 1477 3                @ ../Drivers/STM32F1xx_HAL_Driver/Src/stm32f1xx_hal_rtc.c:1477:3
	tst.w	r1, #32
	beq	.LBB3_1
@ %bb.3:
	.loc	6 1477 26               @ ../Drivers/STM32F1xx_HAL_Driver/Src/stm32f1xx_hal_rtc.c:1477:26
	adds	r0, #4
.LBB3_4:
	.loc	6 1486 3 is_stmt 1      @ ../Drivers/STM32F1xx_HAL_Driver/Src/stm32f1xx_hal_rtc.c:1486:3
	ldr	r1, [r0]
	orr	r1, r1, #16
	str	r1, [r0]
	movs	r0, #0
	.loc	6 1490 1                @ ../Drivers/STM32F1xx_HAL_Driver/Src/stm32f1xx_hal_rtc.c:1490:1
	pop	{r4, r5, r7, pc}
.Ltmp46:
.Lfunc_end3:
	.size	RTC_EnterInitMode, .Lfunc_end3-RTC_EnterInitMode
	.cfi_endproc
	.cantunwind
	.fnend
                                        @ -- End function
	.section	.text.RTC_ExitInitMode,"ax",%progbits
	.p2align	2               @ -- Begin function RTC_ExitInitMode
	.type	RTC_ExitInitMode,%function
	.code	16                      @ @RTC_ExitInitMode
	.thumb_func
RTC_ExitInitMode:
.Lfunc_begin4:
	.loc	6 1499 0                @ ../Drivers/STM32F1xx_HAL_Driver/Src/stm32f1xx_hal_rtc.c:1499:0
	.fnstart
	.cfi_startproc
@ %bb.0:
	.save	{r4, r5, r7, lr}
	push	{r4, r5, r7, lr}
	.cfi_def_cfa_offset 16
	.cfi_offset lr, -4
	.cfi_offset r7, -8
	.cfi_offset r5, -12
	.cfi_offset r4, -16
	@DEBUG_VALUE: RTC_ExitInitMode:hrtc <- $r0
	mov	r4, r0
.Ltmp47:
	@DEBUG_VALUE: RTC_ExitInitMode:tickstart <- 0
	@DEBUG_VALUE: RTC_ExitInitMode:hrtc <- $r4
	.loc	6 1503 3 prologue_end   @ ../Drivers/STM32F1xx_HAL_Driver/Src/stm32f1xx_hal_rtc.c:1503:3
	ldr	r0, [r0]
	ldr	r1, [r0, #4]
	bic	r1, r1, #16
	str	r1, [r0, #4]
	.loc	6 1505 15               @ ../Drivers/STM32F1xx_HAL_Driver/Src/stm32f1xx_hal_rtc.c:1505:15
	bl	HAL_GetTick
	mov	r5, r0
.Ltmp48:
	@DEBUG_VALUE: RTC_ExitInitMode:tickstart <- $r5
	.loc	6 1507 16               @ ../Drivers/STM32F1xx_HAL_Driver/Src/stm32f1xx_hal_rtc.c:1507:16
	ldr	r0, [r4]
	.loc	6 1507 26 is_stmt 0     @ ../Drivers/STM32F1xx_HAL_Driver/Src/stm32f1xx_hal_rtc.c:1507:26
	ldr	r0, [r0, #4]
	.loc	6 1507 3                @ ../Drivers/STM32F1xx_HAL_Driver/Src/stm32f1xx_hal_rtc.c:1507:3
	tst.w	r0, #32
	itt	ne
	movne	r0, #0
	.loc	6 1516 1 is_stmt 1      @ ../Drivers/STM32F1xx_HAL_Driver/Src/stm32f1xx_hal_rtc.c:1516:1
	popne	{r4, r5, r7, pc}
.Ltmp49:
	.loc	6 0 1 is_stmt 0         @ ../Drivers/STM32F1xx_HAL_Driver/Src/stm32f1xx_hal_rtc.c:0:1
	b	.LBB4_2
	.p2align	2
.LBB4_1:                                @   in Loop: Header=BB4_2 Depth=1
	.loc	6 1507 16 is_stmt 1     @ ../Drivers/STM32F1xx_HAL_Driver/Src/stm32f1xx_hal_rtc.c:1507:16
	ldr	r0, [r4]
	.loc	6 1507 26 is_stmt 0     @ ../Drivers/STM32F1xx_HAL_Driver/Src/stm32f1xx_hal_rtc.c:1507:26
	ldr	r0, [r0, #4]
	.loc	6 1507 3                @ ../Drivers/STM32F1xx_HAL_Driver/Src/stm32f1xx_hal_rtc.c:1507:3
	tst.w	r0, #32
	itt	ne
	movne	r0, #0
	.loc	6 1516 1 is_stmt 1      @ ../Drivers/STM32F1xx_HAL_Driver/Src/stm32f1xx_hal_rtc.c:1516:1
	popne	{r4, r5, r7, pc}
.LBB4_2:                                @ =>This Inner Loop Header: Depth=1
.Ltmp50:
	.loc	6 1509 9                @ ../Drivers/STM32F1xx_HAL_Driver/Src/stm32f1xx_hal_rtc.c:1509:9
	bl	HAL_GetTick
	.loc	6 1509 23 is_stmt 0     @ ../Drivers/STM32F1xx_HAL_Driver/Src/stm32f1xx_hal_rtc.c:1509:23
	subs	r0, r0, r5
.Ltmp51:
	.loc	6 1509 8                @ ../Drivers/STM32F1xx_HAL_Driver/Src/stm32f1xx_hal_rtc.c:1509:8
	cmp.w	r0, #1000
	itt	hi
	movhi	r0, #3
.Ltmp52:
	.loc	6 1516 1 is_stmt 1      @ ../Drivers/STM32F1xx_HAL_Driver/Src/stm32f1xx_hal_rtc.c:1516:1
	pophi	{r4, r5, r7, pc}
	b	.LBB4_1
.Ltmp53:
.Lfunc_end4:
	.size	RTC_ExitInitMode, .Lfunc_end4-RTC_ExitInitMode
	.cfi_endproc
	.cantunwind
	.fnend
                                        @ -- End function
	.section	.text.HAL_RTC_DeInit,"ax",%progbits
	.hidden	HAL_RTC_DeInit          @ -- Begin function HAL_RTC_DeInit
	.globl	HAL_RTC_DeInit
	.p2align	2
	.type	HAL_RTC_DeInit,%function
	.code	16                      @ @HAL_RTC_DeInit
	.thumb_func
HAL_RTC_DeInit:
.Lfunc_begin5:
	.loc	6 358 0                 @ ../Drivers/STM32F1xx_HAL_Driver/Src/stm32f1xx_hal_rtc.c:358:0
	.fnstart
	.cfi_startproc
@ %bb.0:
	.save	{r4, lr}
	push	{r4, lr}
	.cfi_def_cfa_offset 8
	.cfi_offset lr, -4
	.cfi_offset r4, -8
	@DEBUG_VALUE: HAL_RTC_DeInit:hrtc <- $r0
	mov	r4, r0
.Ltmp54:
	@DEBUG_VALUE: HAL_RTC_DeInit:hrtc <- $r4
	.loc	6 360 6 prologue_end    @ ../Drivers/STM32F1xx_HAL_Driver/Src/stm32f1xx_hal_rtc.c:360:6
	cmp	r0, #0
	itt	eq
	moveq	r0, #1
	.loc	6 419 1                 @ ../Drivers/STM32F1xx_HAL_Driver/Src/stm32f1xx_hal_rtc.c:419:1
	popeq	{r4, pc}
.Ltmp55:
	.loc	6 369 15                @ ../Drivers/STM32F1xx_HAL_Driver/Src/stm32f1xx_hal_rtc.c:369:15
	movs	r0, #2
	str	r0, [r4, #20]
.Ltmp56:
	.loc	6 372 6                 @ ../Drivers/STM32F1xx_HAL_Driver/Src/stm32f1xx_hal_rtc.c:372:6
	mov	r0, r4
	bl	RTC_EnterInitMode
.Ltmp57:
	.loc	6 372 6 is_stmt 0       @ ../Drivers/STM32F1xx_HAL_Driver/Src/stm32f1xx_hal_rtc.c:372:6
	cbnz	r0, .LBB5_2
@ %bb.1:
.Ltmp58:
	.loc	6 384 5 is_stmt 1       @ ../Drivers/STM32F1xx_HAL_Driver/Src/stm32f1xx_hal_rtc.c:384:5
	ldr	r0, [r4]
	movs	r1, #0
	str	r1, [r0, #28]
	.loc	6 385 5                 @ ../Drivers/STM32F1xx_HAL_Driver/Src/stm32f1xx_hal_rtc.c:385:5
	str	r1, [r0, #24]
	.loc	6 386 5                 @ ../Drivers/STM32F1xx_HAL_Driver/Src/stm32f1xx_hal_rtc.c:386:5
	mov.w	r2, #32768
	str	r2, [r0, #12]
	.loc	6 387 5                 @ ../Drivers/STM32F1xx_HAL_Driver/Src/stm32f1xx_hal_rtc.c:387:5
	str	r1, [r0, #8]
	.loc	6 390 5                 @ ../Drivers/STM32F1xx_HAL_Driver/Src/stm32f1xx_hal_rtc.c:390:5
	str	r1, [r0]
	.loc	6 391 5                 @ ../Drivers/STM32F1xx_HAL_Driver/Src/stm32f1xx_hal_rtc.c:391:5
	str	r1, [r0, #4]
.Ltmp59:
	.loc	6 393 8                 @ ../Drivers/STM32F1xx_HAL_Driver/Src/stm32f1xx_hal_rtc.c:393:8
	mov	r0, r4
	bl	RTC_ExitInitMode
.Ltmp60:
	.loc	6 393 8 is_stmt 0       @ ../Drivers/STM32F1xx_HAL_Driver/Src/stm32f1xx_hal_rtc.c:393:8
	cbz	r0, .LBB5_4
.Ltmp61:
.LBB5_2:
	.loc	6 0 8                   @ ../Drivers/STM32F1xx_HAL_Driver/Src/stm32f1xx_hal_rtc.c:0:8
	movs	r0, #1
	movs	r1, #4
.LBB5_3:
	movs	r2, #0
	str	r2, [r4, #16]
	str	r1, [r4, #20]
	.loc	6 419 1 is_stmt 1       @ ../Drivers/STM32F1xx_HAL_Driver/Src/stm32f1xx_hal_rtc.c:419:1
	pop	{r4, pc}
.LBB5_4:
	.loc	6 405 3                 @ ../Drivers/STM32F1xx_HAL_Driver/Src/stm32f1xx_hal_rtc.c:405:3
	mov	r0, r4
	bl	HAL_RTC_WaitForSynchro
	.loc	6 408 3                 @ ../Drivers/STM32F1xx_HAL_Driver/Src/stm32f1xx_hal_rtc.c:408:3
	ldr	r0, [r4]
	ldr	r1, [r0, #4]
	bic	r1, r1, #8
	str	r1, [r0, #4]
	.loc	6 411 3                 @ ../Drivers/STM32F1xx_HAL_Driver/Src/stm32f1xx_hal_rtc.c:411:3
	mov	r0, r4
	bl	HAL_RTC_MspDeInit
	movs	r1, #0
	movs	r0, #0
	b	.LBB5_3
.Ltmp62:
.Lfunc_end5:
	.size	HAL_RTC_DeInit, .Lfunc_end5-HAL_RTC_DeInit
	.cfi_endproc
	.cantunwind
	.fnend
                                        @ -- End function
	.section	.text.HAL_RTC_MspDeInit,"ax",%progbits
	.hidden	HAL_RTC_MspDeInit       @ -- Begin function HAL_RTC_MspDeInit
	.weak	HAL_RTC_MspDeInit
	.p2align	2
	.type	HAL_RTC_MspDeInit,%function
	.code	16                      @ @HAL_RTC_MspDeInit
	.thumb_func
HAL_RTC_MspDeInit:
.Lfunc_begin6:
	.loc	6 443 0                 @ ../Drivers/STM32F1xx_HAL_Driver/Src/stm32f1xx_hal_rtc.c:443:0
	.fnstart
	.cfi_startproc
@ %bb.0:
	@DEBUG_VALUE: HAL_RTC_MspDeInit:hrtc <- $r0
	.loc	6 449 1 prologue_end    @ ../Drivers/STM32F1xx_HAL_Driver/Src/stm32f1xx_hal_rtc.c:449:1
	bx	lr
.Ltmp63:
.Lfunc_end6:
	.size	HAL_RTC_MspDeInit, .Lfunc_end6-HAL_RTC_MspDeInit
	.cfi_endproc
	.cantunwind
	.fnend
                                        @ -- End function
	.section	.text.HAL_RTC_SetTime,"ax",%progbits
	.hidden	HAL_RTC_SetTime         @ -- Begin function HAL_RTC_SetTime
	.globl	HAL_RTC_SetTime
	.p2align	2
	.type	HAL_RTC_SetTime,%function
	.code	16                      @ @HAL_RTC_SetTime
	.thumb_func
HAL_RTC_SetTime:
.Lfunc_begin7:
	.loc	6 481 0                 @ ../Drivers/STM32F1xx_HAL_Driver/Src/stm32f1xx_hal_rtc.c:481:0
	.fnstart
	.cfi_startproc
@ %bb.0:
	.save	{r4, r5, r6, lr}
	push	{r4, r5, r6, lr}
	.cfi_def_cfa_offset 16
	.cfi_offset lr, -4
	.cfi_offset r6, -8
	.cfi_offset r5, -12
	.cfi_offset r4, -16
	@DEBUG_VALUE: HAL_RTC_SetTime:hrtc <- $r0
	@DEBUG_VALUE: HAL_RTC_SetTime:sTime <- $r1
	@DEBUG_VALUE: HAL_RTC_SetTime:Format <- $r2
	mov	r5, r1
	mov	r4, r0
	movs	r0, #1
.Ltmp64:
	@DEBUG_VALUE: HAL_RTC_SetTime:counter_alarm <- 0
	@DEBUG_VALUE: HAL_RTC_SetTime:counter_time <- 0
	@DEBUG_VALUE: HAL_RTC_SetTime:Format <- $r2
	@DEBUG_VALUE: HAL_RTC_SetTime:sTime <- $r5
	@DEBUG_VALUE: HAL_RTC_SetTime:hrtc <- $r4
	.loc	6 485 21 prologue_end   @ ../Drivers/STM32F1xx_HAL_Driver/Src/stm32f1xx_hal_rtc.c:485:21
	cmp	r4, #0
	it	ne
	cmpne	r5, #0
	bne	.LBB7_2
.Ltmp65:
@ %bb.1:
	@DEBUG_VALUE: HAL_RTC_SetTime:hrtc <- $r4
	@DEBUG_VALUE: HAL_RTC_SetTime:sTime <- $r5
	@DEBUG_VALUE: HAL_RTC_SetTime:Format <- $r2
	.loc	6 566 1                 @ ../Drivers/STM32F1xx_HAL_Driver/Src/stm32f1xx_hal_rtc.c:566:1
	pop	{r4, r5, r6, pc}
.Ltmp66:
.LBB7_2:
	@DEBUG_VALUE: HAL_RTC_SetTime:hrtc <- $r4
	@DEBUG_VALUE: HAL_RTC_SetTime:sTime <- $r5
	@DEBUG_VALUE: HAL_RTC_SetTime:Format <- $r2
	.loc	6 494 3                 @ ../Drivers/STM32F1xx_HAL_Driver/Src/stm32f1xx_hal_rtc.c:494:3
	ldr	r1, [r4, #16]
	movs	r0, #2
.Ltmp67:
	.loc	6 494 3 is_stmt 0       @ ../Drivers/STM32F1xx_HAL_Driver/Src/stm32f1xx_hal_rtc.c:494:3
	cmp	r1, #1
.Ltmp68:
	.loc	6 566 1 is_stmt 1       @ ../Drivers/STM32F1xx_HAL_Driver/Src/stm32f1xx_hal_rtc.c:566:1
	it	eq
	popeq	{r4, r5, r6, pc}
.Ltmp69:
	.loc	6 496 15                @ ../Drivers/STM32F1xx_HAL_Driver/Src/stm32f1xx_hal_rtc.c:496:15
	str	r0, [r4, #20]
	movs	r0, #1
.Ltmp70:
	.loc	6 494 3                 @ ../Drivers/STM32F1xx_HAL_Driver/Src/stm32f1xx_hal_rtc.c:494:3
	str	r0, [r4, #16]
	ldrb	r0, [r5]
.Ltmp71:
	.loc	6 498 6                 @ ../Drivers/STM32F1xx_HAL_Driver/Src/stm32f1xx_hal_rtc.c:498:6
	cbz	r2, .LBB7_4
.Ltmp72:
@ %bb.3:
	@DEBUG_VALUE: HAL_RTC_SetTime:Format <- $r2
	.loc	6 514 33                @ ../Drivers/STM32F1xx_HAL_Driver/Src/stm32f1xx_hal_rtc.c:514:33
	bl	RTC_Bcd2ToByte
.Ltmp73:
	.loc	6 514 63 is_stmt 0      @ ../Drivers/STM32F1xx_HAL_Driver/Src/stm32f1xx_hal_rtc.c:514:63
	mov.w	r1, #3600
	mul	r6, r0, r1
	.loc	6 515 27 is_stmt 1      @ ../Drivers/STM32F1xx_HAL_Driver/Src/stm32f1xx_hal_rtc.c:515:27
	ldrb	r0, [r5, #1]
	bl	RTC_Bcd2ToByte
	.loc	6 515 59 is_stmt 0      @ ../Drivers/STM32F1xx_HAL_Driver/Src/stm32f1xx_hal_rtc.c:515:59
	rsb	r0, r0, r0, lsl #4
	.loc	6 514 72 is_stmt 1      @ ../Drivers/STM32F1xx_HAL_Driver/Src/stm32f1xx_hal_rtc.c:514:72
	add.w	r6, r6, r0, lsl #2
	.loc	6 516 27                @ ../Drivers/STM32F1xx_HAL_Driver/Src/stm32f1xx_hal_rtc.c:516:27
	ldrb	r0, [r5, #2]
	bl	RTC_Bcd2ToByte
	b	.LBB7_5
.Ltmp74:
.LBB7_4:
	@DEBUG_VALUE: HAL_RTC_SetTime:Format <- $r2
	.loc	6 504 55                @ ../Drivers/STM32F1xx_HAL_Driver/Src/stm32f1xx_hal_rtc.c:504:55
	mov.w	r1, #3600
	muls	r1, r0, r1
	.loc	6 505 26                @ ../Drivers/STM32F1xx_HAL_Driver/Src/stm32f1xx_hal_rtc.c:505:26
	ldrb	r2, [r5, #1]
.Ltmp75:
	.loc	6 506 43                @ ../Drivers/STM32F1xx_HAL_Driver/Src/stm32f1xx_hal_rtc.c:506:43
	ldrb	r0, [r5, #2]
	.loc	6 505 51                @ ../Drivers/STM32F1xx_HAL_Driver/Src/stm32f1xx_hal_rtc.c:505:51
	rsb	r2, r2, r2, lsl #4
	.loc	6 504 64                @ ../Drivers/STM32F1xx_HAL_Driver/Src/stm32f1xx_hal_rtc.c:504:64
	add.w	r6, r1, r2, lsl #2
.Ltmp76:
.LBB7_5:
	.loc	6 0 64 is_stmt 0        @ ../Drivers/STM32F1xx_HAL_Driver/Src/stm32f1xx_hal_rtc.c:0:64
	adds	r5, r6, r0
.Ltmp77:
	@DEBUG_VALUE: HAL_RTC_SetTime:counter_time <- $r5
	.loc	6 520 7 is_stmt 1       @ ../Drivers/STM32F1xx_HAL_Driver/Src/stm32f1xx_hal_rtc.c:520:7
	mov	r0, r4
	mov	r1, r5
	bl	RTC_WriteTimeCounter
.Ltmp78:
	.loc	6 520 7 is_stmt 0       @ ../Drivers/STM32F1xx_HAL_Driver/Src/stm32f1xx_hal_rtc.c:520:7
	cbz	r0, .LBB7_7
.Ltmp79:
.LBB7_6:
	@DEBUG_VALUE: HAL_RTC_SetTime:counter_time <- $r5
	.loc	6 0 7                   @ ../Drivers/STM32F1xx_HAL_Driver/Src/stm32f1xx_hal_rtc.c:0:7
	movs	r0, #0
	str	r0, [r4, #16]
	movs	r0, #4
	str	r0, [r4, #20]
	movs	r0, #1
	.loc	6 566 1 is_stmt 1       @ ../Drivers/STM32F1xx_HAL_Driver/Src/stm32f1xx_hal_rtc.c:566:1
	pop	{r4, r5, r6, pc}
.Ltmp80:
.LBB7_7:
	@DEBUG_VALUE: HAL_RTC_SetTime:counter_time <- $r5
	.loc	6 533 5                 @ ../Drivers/STM32F1xx_HAL_Driver/Src/stm32f1xx_hal_rtc.c:533:5
	ldr	r0, [r4]
	ldr	r1, [r0, #4]
	bic	r1, r1, #5
	str	r1, [r0, #4]
	.loc	6 536 21                @ ../Drivers/STM32F1xx_HAL_Driver/Src/stm32f1xx_hal_rtc.c:536:21
	mov	r0, r4
	bl	RTC_ReadAlarmCounter
.Ltmp81:
	@DEBUG_VALUE: HAL_RTC_SetTime:counter_alarm <- $r0
	.loc	6 539 9                 @ ../Drivers/STM32F1xx_HAL_Driver/Src/stm32f1xx_hal_rtc.c:539:9
	adds	r1, r0, #1
	beq	.LBB7_10
.Ltmp82:
@ %bb.8:
	@DEBUG_VALUE: HAL_RTC_SetTime:counter_alarm <- $r0
	@DEBUG_VALUE: HAL_RTC_SetTime:counter_time <- $r5
	cmp	r0, r5
	bhs	.LBB7_10
.Ltmp83:
@ %bb.9:
	@DEBUG_VALUE: HAL_RTC_SetTime:counter_alarm <- $r0
	@DEBUG_VALUE: HAL_RTC_SetTime:counter_time <- $r5
	.loc	6 544 23                @ ../Drivers/STM32F1xx_HAL_Driver/Src/stm32f1xx_hal_rtc.c:544:23
	add.w	r0, r0, #65536
.Ltmp84:
	add.w	r1, r0, #20864
.Ltmp85:
	@DEBUG_VALUE: HAL_RTC_SetTime:counter_alarm <- $r1
	.loc	6 547 13                @ ../Drivers/STM32F1xx_HAL_Driver/Src/stm32f1xx_hal_rtc.c:547:13
	mov	r0, r4
	bl	RTC_WriteAlarmCounter
.Ltmp86:
	.loc	6 547 13 is_stmt 0      @ ../Drivers/STM32F1xx_HAL_Driver/Src/stm32f1xx_hal_rtc.c:547:13
	cmp	r0, #0
	bne	.LBB7_6
.Ltmp87:
.LBB7_10:
	@DEBUG_VALUE: HAL_RTC_SetTime:counter_time <- $r5
	.loc	6 0 13                  @ ../Drivers/STM32F1xx_HAL_Driver/Src/stm32f1xx_hal_rtc.c:0:13
	movs	r0, #0
.Ltmp88:
	.loc	6 562 4 is_stmt 1       @ ../Drivers/STM32F1xx_HAL_Driver/Src/stm32f1xx_hal_rtc.c:562:4
	str	r0, [r4, #16]
.Ltmp89:
	.loc	6 560 17                @ ../Drivers/STM32F1xx_HAL_Driver/Src/stm32f1xx_hal_rtc.c:560:17
	movs	r1, #1
	str	r1, [r4, #20]
.Ltmp90:
	.loc	6 566 1                 @ ../Drivers/STM32F1xx_HAL_Driver/Src/stm32f1xx_hal_rtc.c:566:1
	pop	{r4, r5, r6, pc}
.Ltmp91:
.Lfunc_end7:
	.size	HAL_RTC_SetTime, .Lfunc_end7-HAL_RTC_SetTime
	.cfi_endproc
	.cantunwind
	.fnend
                                        @ -- End function
	.section	.text.RTC_Bcd2ToByte,"ax",%progbits
	.p2align	2               @ -- Begin function RTC_Bcd2ToByte
	.type	RTC_Bcd2ToByte,%function
	.code	16                      @ @RTC_Bcd2ToByte
	.thumb_func
RTC_Bcd2ToByte:
.Lfunc_begin8:
	.loc	6 1542 0                @ ../Drivers/STM32F1xx_HAL_Driver/Src/stm32f1xx_hal_rtc.c:1542:0
	.fnstart
	.cfi_startproc
@ %bb.0:
	@DEBUG_VALUE: RTC_Bcd2ToByte:Value <- $r0
	@DEBUG_VALUE: RTC_Bcd2ToByte:Value <- $r0
	@DEBUG_VALUE: RTC_Bcd2ToByte:tmp <- 0
	.loc	6 1545 24 prologue_end  @ ../Drivers/STM32F1xx_HAL_Driver/Src/stm32f1xx_hal_rtc.c:1545:24
	and	r1, r0, #15
	.loc	6 1544 43               @ ../Drivers/STM32F1xx_HAL_Driver/Src/stm32f1xx_hal_rtc.c:1544:43
	lsrs	r0, r0, #4
.Ltmp92:
	.loc	6 1544 60 is_stmt 0     @ ../Drivers/STM32F1xx_HAL_Driver/Src/stm32f1xx_hal_rtc.c:1544:60
	add.w	r0, r0, r0, lsl #2
	.loc	6 1545 15 is_stmt 1     @ ../Drivers/STM32F1xx_HAL_Driver/Src/stm32f1xx_hal_rtc.c:1545:15
	add.w	r0, r1, r0, lsl #1
	.loc	6 1545 3 is_stmt 0      @ ../Drivers/STM32F1xx_HAL_Driver/Src/stm32f1xx_hal_rtc.c:1545:3
	uxtb	r0, r0
	bx	lr
.Ltmp93:
.Lfunc_end8:
	.size	RTC_Bcd2ToByte, .Lfunc_end8-RTC_Bcd2ToByte
	.cfi_endproc
	.cantunwind
	.fnend
                                        @ -- End function
	.section	.text.RTC_WriteTimeCounter,"ax",%progbits
	.p2align	2               @ -- Begin function RTC_WriteTimeCounter
	.type	RTC_WriteTimeCounter,%function
	.code	16                      @ @RTC_WriteTimeCounter
	.thumb_func
RTC_WriteTimeCounter:
.Lfunc_begin9:
	.loc	6 1391 0 is_stmt 1      @ ../Drivers/STM32F1xx_HAL_Driver/Src/stm32f1xx_hal_rtc.c:1391:0
	.fnstart
	.cfi_startproc
@ %bb.0:
	.save	{r4, r5, r7, lr}
	push	{r4, r5, r7, lr}
	.cfi_def_cfa_offset 16
	.cfi_offset lr, -4
	.cfi_offset r7, -8
	.cfi_offset r5, -12
	.cfi_offset r4, -16
	@DEBUG_VALUE: RTC_WriteTimeCounter:hrtc <- $r0
	@DEBUG_VALUE: RTC_WriteTimeCounter:TimeCounter <- $r1
	mov	r5, r1
	mov	r4, r0
.Ltmp94:
	@DEBUG_VALUE: RTC_WriteTimeCounter:status <- 0
	@DEBUG_VALUE: RTC_WriteTimeCounter:TimeCounter <- $r5
	@DEBUG_VALUE: RTC_WriteTimeCounter:hrtc <- $r4
	.loc	6 1395 6 prologue_end   @ ../Drivers/STM32F1xx_HAL_Driver/Src/stm32f1xx_hal_rtc.c:1395:6
	bl	RTC_EnterInitMode
.Ltmp95:
	.loc	6 1395 6 is_stmt 0      @ ../Drivers/STM32F1xx_HAL_Driver/Src/stm32f1xx_hal_rtc.c:1395:6
	cmp	r0, #0
.Ltmp96:
	@DEBUG_VALUE: RTC_WriteTimeCounter:status <- 1
	.loc	6 1413 3 is_stmt 1      @ ../Drivers/STM32F1xx_HAL_Driver/Src/stm32f1xx_hal_rtc.c:1413:3
	itt	ne
	movne	r0, #1
	popne	{r4, r5, r7, pc}
.Ltmp97:
	.loc	6 1402 5                @ ../Drivers/STM32F1xx_HAL_Driver/Src/stm32f1xx_hal_rtc.c:1402:5
	ldr	r0, [r4]
	lsrs	r1, r5, #16
	str	r1, [r0, #24]
	.loc	6 1404 5                @ ../Drivers/STM32F1xx_HAL_Driver/Src/stm32f1xx_hal_rtc.c:1404:5
	uxth	r1, r5
	str	r1, [r0, #28]
.Ltmp98:
	.loc	6 1407 8                @ ../Drivers/STM32F1xx_HAL_Driver/Src/stm32f1xx_hal_rtc.c:1407:8
	mov	r0, r4
	bl	RTC_ExitInitMode
	.loc	6 1407 31 is_stmt 0     @ ../Drivers/STM32F1xx_HAL_Driver/Src/stm32f1xx_hal_rtc.c:1407:31
	cmp	r0, #0
	it	ne
	movne	r0, #1
.Ltmp99:
	.loc	6 1407 8                @ ../Drivers/STM32F1xx_HAL_Driver/Src/stm32f1xx_hal_rtc.c:1407:8
	pop	{r4, r5, r7, pc}
.Ltmp100:
.Lfunc_end9:
	.size	RTC_WriteTimeCounter, .Lfunc_end9-RTC_WriteTimeCounter
	.cfi_endproc
	.cantunwind
	.fnend
                                        @ -- End function
	.section	.text.RTC_ReadAlarmCounter,"ax",%progbits
	.p2align	2               @ -- Begin function RTC_ReadAlarmCounter
	.type	RTC_ReadAlarmCounter,%function
	.code	16                      @ @RTC_ReadAlarmCounter
	.thumb_func
RTC_ReadAlarmCounter:
.Lfunc_begin10:
	.loc	6 1423 0 is_stmt 1      @ ../Drivers/STM32F1xx_HAL_Driver/Src/stm32f1xx_hal_rtc.c:1423:0
	.fnstart
	.cfi_startproc
@ %bb.0:
	@DEBUG_VALUE: RTC_ReadAlarmCounter:hrtc <- $r0
	@DEBUG_VALUE: RTC_ReadAlarmCounter:hrtc <- $r0
	@DEBUG_VALUE: RTC_ReadAlarmCounter:high1 <- 0
	@DEBUG_VALUE: RTC_ReadAlarmCounter:low <- 0
	.loc	6 1426 11 prologue_end  @ ../Drivers/STM32F1xx_HAL_Driver/Src/stm32f1xx_hal_rtc.c:1426:11
	ldr	r0, [r0]
.Ltmp101:
	ldr	r1, [r0, #32]
	.loc	6 1427 11               @ ../Drivers/STM32F1xx_HAL_Driver/Src/stm32f1xx_hal_rtc.c:1427:11
	ldr	r0, [r0, #36]
	.loc	6 1429 39               @ ../Drivers/STM32F1xx_HAL_Driver/Src/stm32f1xx_hal_rtc.c:1429:39
	uxth	r0, r0
	.loc	6 1429 37 is_stmt 0     @ ../Drivers/STM32F1xx_HAL_Driver/Src/stm32f1xx_hal_rtc.c:1429:37
	orr.w	r0, r0, r1, lsl #16
	.loc	6 1429 3                @ ../Drivers/STM32F1xx_HAL_Driver/Src/stm32f1xx_hal_rtc.c:1429:3
	bx	lr
.Ltmp102:
.Lfunc_end10:
	.size	RTC_ReadAlarmCounter, .Lfunc_end10-RTC_ReadAlarmCounter
	.cfi_endproc
	.cantunwind
	.fnend
                                        @ -- End function
	.section	.text.RTC_WriteAlarmCounter,"ax",%progbits
	.p2align	2               @ -- Begin function RTC_WriteAlarmCounter
	.type	RTC_WriteAlarmCounter,%function
	.code	16                      @ @RTC_WriteAlarmCounter
	.thumb_func
RTC_WriteAlarmCounter:
.Lfunc_begin11:
	.loc	6 1440 0 is_stmt 1      @ ../Drivers/STM32F1xx_HAL_Driver/Src/stm32f1xx_hal_rtc.c:1440:0
	.fnstart
	.cfi_startproc
@ %bb.0:
	.save	{r4, r5, r7, lr}
	push	{r4, r5, r7, lr}
	.cfi_def_cfa_offset 16
	.cfi_offset lr, -4
	.cfi_offset r7, -8
	.cfi_offset r5, -12
	.cfi_offset r4, -16
	@DEBUG_VALUE: RTC_WriteAlarmCounter:hrtc <- $r0
	@DEBUG_VALUE: RTC_WriteAlarmCounter:AlarmCounter <- $r1
	mov	r5, r1
	mov	r4, r0
.Ltmp103:
	@DEBUG_VALUE: RTC_WriteAlarmCounter:status <- 0
	@DEBUG_VALUE: RTC_WriteAlarmCounter:AlarmCounter <- $r5
	@DEBUG_VALUE: RTC_WriteAlarmCounter:hrtc <- $r4
	.loc	6 1444 6 prologue_end   @ ../Drivers/STM32F1xx_HAL_Driver/Src/stm32f1xx_hal_rtc.c:1444:6
	bl	RTC_EnterInitMode
.Ltmp104:
	.loc	6 1444 6 is_stmt 0      @ ../Drivers/STM32F1xx_HAL_Driver/Src/stm32f1xx_hal_rtc.c:1444:6
	cmp	r0, #0
.Ltmp105:
	@DEBUG_VALUE: RTC_WriteAlarmCounter:status <- 1
	.loc	6 1462 3 is_stmt 1      @ ../Drivers/STM32F1xx_HAL_Driver/Src/stm32f1xx_hal_rtc.c:1462:3
	itt	ne
	movne	r0, #1
	popne	{r4, r5, r7, pc}
.Ltmp106:
	.loc	6 1451 5                @ ../Drivers/STM32F1xx_HAL_Driver/Src/stm32f1xx_hal_rtc.c:1451:5
	ldr	r0, [r4]
	lsrs	r1, r5, #16
	str	r1, [r0, #32]
	.loc	6 1453 5                @ ../Drivers/STM32F1xx_HAL_Driver/Src/stm32f1xx_hal_rtc.c:1453:5
	uxth	r1, r5
	str	r1, [r0, #36]
.Ltmp107:
	.loc	6 1456 8                @ ../Drivers/STM32F1xx_HAL_Driver/Src/stm32f1xx_hal_rtc.c:1456:8
	mov	r0, r4
	bl	RTC_ExitInitMode
	.loc	6 1456 31 is_stmt 0     @ ../Drivers/STM32F1xx_HAL_Driver/Src/stm32f1xx_hal_rtc.c:1456:31
	cmp	r0, #0
	it	ne
	movne	r0, #1
.Ltmp108:
	.loc	6 1456 8                @ ../Drivers/STM32F1xx_HAL_Driver/Src/stm32f1xx_hal_rtc.c:1456:8
	pop	{r4, r5, r7, pc}
.Ltmp109:
.Lfunc_end11:
	.size	RTC_WriteAlarmCounter, .Lfunc_end11-RTC_WriteAlarmCounter
	.cfi_endproc
	.cantunwind
	.fnend
                                        @ -- End function
	.section	.text.HAL_RTC_GetTime,"ax",%progbits
	.hidden	HAL_RTC_GetTime         @ -- Begin function HAL_RTC_GetTime
	.globl	HAL_RTC_GetTime
	.p2align	2
	.type	HAL_RTC_GetTime,%function
	.code	16                      @ @HAL_RTC_GetTime
	.thumb_func
HAL_RTC_GetTime:
.Lfunc_begin12:
	.loc	6 580 0 is_stmt 1       @ ../Drivers/STM32F1xx_HAL_Driver/Src/stm32f1xx_hal_rtc.c:580:0
	.fnstart
	.cfi_startproc
@ %bb.0:
	.save	{r4, r5, r6, r7, r8, r9, lr}
	push.w	{r4, r5, r6, r7, r8, r9, lr}
	.cfi_def_cfa_offset 28
	.cfi_offset lr, -4
	.cfi_offset r9, -8
	.cfi_offset r8, -12
	.cfi_offset r7, -16
	.cfi_offset r6, -20
	.cfi_offset r5, -24
	.cfi_offset r4, -28
	.pad	#4
	sub	sp, #4
	.cfi_def_cfa_offset 32
	@DEBUG_VALUE: HAL_RTC_GetTime:hrtc <- $r0
	@DEBUG_VALUE: HAL_RTC_GetTime:sTime <- $r1
	@DEBUG_VALUE: HAL_RTC_GetTime:Format <- $r2
	mov	r9, r2
	mov	r4, r1
	mov	r6, r0
	movs	r0, #1
.Ltmp110:
	@DEBUG_VALUE: HAL_RTC_GetTime:hours <- 0
	@DEBUG_VALUE: HAL_RTC_GetTime:days_elapsed <- 0
	@DEBUG_VALUE: HAL_RTC_GetTime:counter_alarm <- 0
	@DEBUG_VALUE: HAL_RTC_GetTime:counter_time <- 0
	@DEBUG_VALUE: HAL_RTC_GetTime:Format <- $r9
	@DEBUG_VALUE: HAL_RTC_GetTime:sTime <- $r4
	@DEBUG_VALUE: HAL_RTC_GetTime:hrtc <- $r6
	.loc	6 584 21 prologue_end   @ ../Drivers/STM32F1xx_HAL_Driver/Src/stm32f1xx_hal_rtc.c:584:21
	cmp	r6, #0
	it	ne
	cmpne	r4, #0
	bne	.LBB12_2
.Ltmp111:
@ %bb.1:
	@DEBUG_VALUE: HAL_RTC_GetTime:hrtc <- $r6
	@DEBUG_VALUE: HAL_RTC_GetTime:sTime <- $r4
	@DEBUG_VALUE: HAL_RTC_GetTime:Format <- $r9
	.loc	6 676 1                 @ ../Drivers/STM32F1xx_HAL_Driver/Src/stm32f1xx_hal_rtc.c:676:1
	add	sp, #4
	pop.w	{r4, r5, r6, r7, r8, r9, pc}
.Ltmp112:
.LBB12_2:
	@DEBUG_VALUE: HAL_RTC_GetTime:hrtc <- $r6
	@DEBUG_VALUE: HAL_RTC_GetTime:sTime <- $r4
	@DEBUG_VALUE: HAL_RTC_GetTime:Format <- $r9
	.loc	6 593 7                 @ ../Drivers/STM32F1xx_HAL_Driver/Src/stm32f1xx_hal_rtc.c:593:7
	ldr	r0, [r6]
	ldr	r0, [r0, #4]
.Ltmp113:
	.loc	6 593 7 is_stmt 0       @ ../Drivers/STM32F1xx_HAL_Driver/Src/stm32f1xx_hal_rtc.c:593:7
	tst.w	r0, #4
	bne	.LBB12_6
.Ltmp114:
@ %bb.3:
	@DEBUG_VALUE: HAL_RTC_GetTime:hrtc <- $r6
	@DEBUG_VALUE: HAL_RTC_GetTime:sTime <- $r4
	@DEBUG_VALUE: HAL_RTC_GetTime:Format <- $r9
	.loc	6 599 18 is_stmt 1      @ ../Drivers/STM32F1xx_HAL_Driver/Src/stm32f1xx_hal_rtc.c:599:18
	mov	r0, r6
	bl	RTC_ReadTimeCounter
	mov	r7, r0
.Ltmp115:
	@DEBUG_VALUE: HAL_RTC_GetTime:counter_time <- $r7
	.loc	6 602 24                @ ../Drivers/STM32F1xx_HAL_Driver/Src/stm32f1xx_hal_rtc.c:602:24
	movw	r0, #46021
	movt	r0, #37282
	umull	r0, r1, r7, r0
	lsrs	r0, r1, #11
.Ltmp116:
	@DEBUG_VALUE: HAL_RTC_GetTime:hours <- $r0
	mov.w	r1, #3600
	mls	r1, r0, r1, r7
	.loc	6 603 54                @ ../Drivers/STM32F1xx_HAL_Driver/Src/stm32f1xx_hal_rtc.c:603:54
	movw	r2, #34953
	movt	r2, #34952
	umull	r2, r3, r1, r2
	lsrs	r2, r3, #5
	.loc	6 603 19 is_stmt 0      @ ../Drivers/STM32F1xx_HAL_Driver/Src/stm32f1xx_hal_rtc.c:603:19
	strb	r2, [r4, #1]
	lsls	r2, r2, #4
	sub.w	r2, r2, r3, lsr #5
	sub.w	r1, r1, r2, lsl #2
	.loc	6 604 19 is_stmt 1      @ ../Drivers/STM32F1xx_HAL_Driver/Src/stm32f1xx_hal_rtc.c:604:19
	strb	r1, [r4, #2]
	.loc	6 606 7                 @ ../Drivers/STM32F1xx_HAL_Driver/Src/stm32f1xx_hal_rtc.c:606:7
	movw	r1, #20864
	movt	r1, #1
	cmp	r7, r1
	blo	.LBB12_7
.Ltmp117:
@ %bb.4:
	@DEBUG_VALUE: HAL_RTC_GetTime:hours <- $r0
	@DEBUG_VALUE: HAL_RTC_GetTime:counter_time <- $r7
	@DEBUG_VALUE: HAL_RTC_GetTime:hrtc <- $r6
	@DEBUG_VALUE: HAL_RTC_GetTime:sTime <- $r4
	@DEBUG_VALUE: HAL_RTC_GetTime:Format <- $r9
	.loc	6 612 27                @ ../Drivers/STM32F1xx_HAL_Driver/Src/stm32f1xx_hal_rtc.c:612:27
	movw	r1, #43691
	movt	r1, #43690
	umull	r1, r2, r0, r1
	lsrs	r1, r2, #4
	add.w	r1, r1, r1, lsl #1
	sub.w	r0, r0, r1, lsl #3
.Ltmp118:
	.loc	6 612 18 is_stmt 0      @ ../Drivers/STM32F1xx_HAL_Driver/Src/stm32f1xx_hal_rtc.c:612:18
	strb	r0, [r4]
	.loc	6 615 21 is_stmt 1      @ ../Drivers/STM32F1xx_HAL_Driver/Src/stm32f1xx_hal_rtc.c:615:21
	mov	r0, r6
	bl	RTC_ReadAlarmCounter
.Ltmp119:
	@DEBUG_VALUE: HAL_RTC_GetTime:counter_alarm <- $r0
	.loc	6 620 21                @ ../Drivers/STM32F1xx_HAL_Driver/Src/stm32f1xx_hal_rtc.c:620:21
	subs	r5, r0, r7
.Ltmp120:
	@DEBUG_VALUE: HAL_RTC_GetTime:counter_alarm <- $r5
	.loc	6 618 49                @ ../Drivers/STM32F1xx_HAL_Driver/Src/stm32f1xx_hal_rtc.c:618:49
	it	ls
	movls.w	r5, #-1
.Ltmp121:
	adds	r1, r0, #1
	it	eq
	moveq	r5, r0
.Ltmp122:
	@DEBUG_VALUE: HAL_RTC_GetTime:counter_alarm <- $r5
	.loc	6 609 27                @ ../Drivers/STM32F1xx_HAL_Driver/Src/stm32f1xx_hal_rtc.c:609:27
	movw	r0, #17671
	movt	r0, #49710
	umull	r0, r1, r7, r0
	lsr.w	r8, r1, #16
.Ltmp123:
	@DEBUG_VALUE: HAL_RTC_GetTime:days_elapsed <- $r8
	.loc	6 630 18                @ ../Drivers/STM32F1xx_HAL_Driver/Src/stm32f1xx_hal_rtc.c:630:18
	movw	r0, #44672
	movt	r0, #65534
	mla	r7, r8, r0, r7
.Ltmp124:
	@DEBUG_VALUE: HAL_RTC_GetTime:counter_time <- $r7
	.loc	6 633 9                 @ ../Drivers/STM32F1xx_HAL_Driver/Src/stm32f1xx_hal_rtc.c:633:9
	mov	r0, r6
	mov	r1, r7
	bl	RTC_WriteTimeCounter
.Ltmp125:
	.loc	6 633 9 is_stmt 0       @ ../Drivers/STM32F1xx_HAL_Driver/Src/stm32f1xx_hal_rtc.c:633:9
	cbnz	r0, .LBB12_6
.Ltmp126:
@ %bb.5:
	@DEBUG_VALUE: HAL_RTC_GetTime:days_elapsed <- $r8
	@DEBUG_VALUE: HAL_RTC_GetTime:counter_alarm <- $r5
	@DEBUG_VALUE: HAL_RTC_GetTime:counter_time <- $r7
	@DEBUG_VALUE: HAL_RTC_GetTime:hrtc <- $r6
	@DEBUG_VALUE: HAL_RTC_GetTime:sTime <- $r4
	@DEBUG_VALUE: HAL_RTC_GetTime:Format <- $r9
	.loc	6 639 9 is_stmt 1       @ ../Drivers/STM32F1xx_HAL_Driver/Src/stm32f1xx_hal_rtc.c:639:9
	adds	r0, r5, #1
.Ltmp127:
	.loc	6 652 11                @ ../Drivers/STM32F1xx_HAL_Driver/Src/stm32f1xx_hal_rtc.c:652:11
	ittee	eq
	moveq	r0, r6
	moveq	r1, r5
.Ltmp128:
	.loc	6 641 21                @ ../Drivers/STM32F1xx_HAL_Driver/Src/stm32f1xx_hal_rtc.c:641:21
	addne	r1, r5, r7
.Ltmp129:
	@DEBUG_VALUE: HAL_RTC_GetTime:counter_alarm <- $r1
	.loc	6 644 11                @ ../Drivers/STM32F1xx_HAL_Driver/Src/stm32f1xx_hal_rtc.c:644:11
	movne	r0, r6
	bl	RTC_WriteAlarmCounter
.Ltmp130:
	.loc	6 0 11 is_stmt 0        @ ../Drivers/STM32F1xx_HAL_Driver/Src/stm32f1xx_hal_rtc.c:0:11
	cbz	r0, .LBB12_9
.Ltmp131:
.LBB12_6:
	@DEBUG_VALUE: HAL_RTC_GetTime:hrtc <- $r6
	@DEBUG_VALUE: HAL_RTC_GetTime:sTime <- $r4
	@DEBUG_VALUE: HAL_RTC_GetTime:Format <- $r9
	movs	r0, #1
	.loc	6 676 1 is_stmt 1       @ ../Drivers/STM32F1xx_HAL_Driver/Src/stm32f1xx_hal_rtc.c:676:1
	add	sp, #4
	pop.w	{r4, r5, r6, r7, r8, r9, pc}
.Ltmp132:
.LBB12_7:
	@DEBUG_VALUE: HAL_RTC_GetTime:hours <- $r0
	@DEBUG_VALUE: HAL_RTC_GetTime:counter_time <- $r7
	@DEBUG_VALUE: HAL_RTC_GetTime:hrtc <- $r6
	@DEBUG_VALUE: HAL_RTC_GetTime:sTime <- $r4
	@DEBUG_VALUE: HAL_RTC_GetTime:Format <- $r9
	.loc	6 663 18                @ ../Drivers/STM32F1xx_HAL_Driver/Src/stm32f1xx_hal_rtc.c:663:18
	strb	r0, [r4]
.Ltmp133:
	.loc	6 667 6                 @ ../Drivers/STM32F1xx_HAL_Driver/Src/stm32f1xx_hal_rtc.c:667:6
	cmp.w	r9, #0
	beq	.LBB12_10
.Ltmp134:
.LBB12_8:
	@DEBUG_VALUE: HAL_RTC_GetTime:counter_time <- $r7
	@DEBUG_VALUE: HAL_RTC_GetTime:hrtc <- $r6
	@DEBUG_VALUE: HAL_RTC_GetTime:sTime <- $r4
	@DEBUG_VALUE: HAL_RTC_GetTime:Format <- $r9
	.loc	6 670 32                @ ../Drivers/STM32F1xx_HAL_Driver/Src/stm32f1xx_hal_rtc.c:670:32
	ldrb	r0, [r4]
	bl	RTC_ByteToBcd2
	.loc	6 670 21 is_stmt 0      @ ../Drivers/STM32F1xx_HAL_Driver/Src/stm32f1xx_hal_rtc.c:670:21
	strb	r0, [r4]
	.loc	6 671 32 is_stmt 1      @ ../Drivers/STM32F1xx_HAL_Driver/Src/stm32f1xx_hal_rtc.c:671:32
	ldrb	r0, [r4, #1]
	bl	RTC_ByteToBcd2
	.loc	6 671 21 is_stmt 0      @ ../Drivers/STM32F1xx_HAL_Driver/Src/stm32f1xx_hal_rtc.c:671:21
	strb	r0, [r4, #1]
	.loc	6 672 32 is_stmt 1      @ ../Drivers/STM32F1xx_HAL_Driver/Src/stm32f1xx_hal_rtc.c:672:32
	ldrb	r0, [r4, #2]
	bl	RTC_ByteToBcd2
	.loc	6 672 21 is_stmt 0      @ ../Drivers/STM32F1xx_HAL_Driver/Src/stm32f1xx_hal_rtc.c:672:21
	strb	r0, [r4, #2]
	movs	r0, #0
.Ltmp135:
	.loc	6 676 1 is_stmt 1       @ ../Drivers/STM32F1xx_HAL_Driver/Src/stm32f1xx_hal_rtc.c:676:1
	add	sp, #4
	pop.w	{r4, r5, r6, r7, r8, r9, pc}
.Ltmp136:
.LBB12_9:
	@DEBUG_VALUE: HAL_RTC_GetTime:days_elapsed <- $r8
	@DEBUG_VALUE: HAL_RTC_GetTime:counter_time <- $r7
	@DEBUG_VALUE: HAL_RTC_GetTime:hrtc <- $r6
	@DEBUG_VALUE: HAL_RTC_GetTime:sTime <- $r4
	@DEBUG_VALUE: HAL_RTC_GetTime:Format <- $r9
	.loc	6 659 5                 @ ../Drivers/STM32F1xx_HAL_Driver/Src/stm32f1xx_hal_rtc.c:659:5
	mov	r0, r6
	mov	r1, r8
	bl	RTC_DateUpdate
.Ltmp137:
	.loc	6 667 6                 @ ../Drivers/STM32F1xx_HAL_Driver/Src/stm32f1xx_hal_rtc.c:667:6
	cmp.w	r9, #0
	bne	.LBB12_8
.Ltmp138:
.LBB12_10:
	@DEBUG_VALUE: HAL_RTC_GetTime:counter_time <- $r7
	@DEBUG_VALUE: HAL_RTC_GetTime:hrtc <- $r6
	@DEBUG_VALUE: HAL_RTC_GetTime:sTime <- $r4
	@DEBUG_VALUE: HAL_RTC_GetTime:Format <- $r9
	.loc	6 0 6 is_stmt 0         @ ../Drivers/STM32F1xx_HAL_Driver/Src/stm32f1xx_hal_rtc.c:0:6
	movs	r0, #0
	.loc	6 676 1 is_stmt 1       @ ../Drivers/STM32F1xx_HAL_Driver/Src/stm32f1xx_hal_rtc.c:676:1
	add	sp, #4
	pop.w	{r4, r5, r6, r7, r8, r9, pc}
.Ltmp139:
.Lfunc_end12:
	.size	HAL_RTC_GetTime, .Lfunc_end12-HAL_RTC_GetTime
	.cfi_endproc
	.cantunwind
	.fnend
                                        @ -- End function
	.section	.text.RTC_ReadTimeCounter,"ax",%progbits
	.p2align	2               @ -- Begin function RTC_ReadTimeCounter
	.type	RTC_ReadTimeCounter,%function
	.code	16                      @ @RTC_ReadTimeCounter
	.thumb_func
RTC_ReadTimeCounter:
.Lfunc_begin13:
	.loc	6 1361 0                @ ../Drivers/STM32F1xx_HAL_Driver/Src/stm32f1xx_hal_rtc.c:1361:0
	.fnstart
	.cfi_startproc
@ %bb.0:
	@DEBUG_VALUE: RTC_ReadTimeCounter:hrtc <- $r0
	@DEBUG_VALUE: RTC_ReadTimeCounter:hrtc <- $r0
	@DEBUG_VALUE: RTC_ReadTimeCounter:high1 <- 0
	@DEBUG_VALUE: RTC_ReadTimeCounter:high2 <- 0
	@DEBUG_VALUE: RTC_ReadTimeCounter:low <- 0
	@DEBUG_VALUE: RTC_ReadTimeCounter:timecounter <- 0
	.loc	6 1365 11 prologue_end  @ ../Drivers/STM32F1xx_HAL_Driver/Src/stm32f1xx_hal_rtc.c:1365:11
	ldr	r2, [r0]
	ldr	r1, [r2, #24]
	.loc	6 1366 11               @ ../Drivers/STM32F1xx_HAL_Driver/Src/stm32f1xx_hal_rtc.c:1366:11
	ldr.w	r12, [r2, #28]
	.loc	6 1367 11               @ ../Drivers/STM32F1xx_HAL_Driver/Src/stm32f1xx_hal_rtc.c:1367:11
	ldr	r3, [r2, #24]
.Ltmp140:
	.loc	6 1369 13               @ ../Drivers/STM32F1xx_HAL_Driver/Src/stm32f1xx_hal_rtc.c:1369:13
	eor.w	r0, r3, r1
.Ltmp141:
	.loc	6 1369 7 is_stmt 0      @ ../Drivers/STM32F1xx_HAL_Driver/Src/stm32f1xx_hal_rtc.c:1369:7
	lsls	r0, r0, #16
.Ltmp142:
	.loc	6 1372 48 is_stmt 1     @ ../Drivers/STM32F1xx_HAL_Driver/Src/stm32f1xx_hal_rtc.c:1372:48
	itt	ne
	ldrne.w	r12, [r2, #28]
	movne	r1, r3
	uxth.w	r0, r12
	orr.w	r0, r0, r1, lsl #16
.Ltmp143:
	@DEBUG_VALUE: RTC_ReadTimeCounter:timecounter <- $r0
	.loc	6 1380 3                @ ../Drivers/STM32F1xx_HAL_Driver/Src/stm32f1xx_hal_rtc.c:1380:3
	bx	lr
.Ltmp144:
.Lfunc_end13:
	.size	RTC_ReadTimeCounter, .Lfunc_end13-RTC_ReadTimeCounter
	.cfi_endproc
	.cantunwind
	.fnend
                                        @ -- End function
	.section	.text.RTC_DateUpdate,"ax",%progbits
	.p2align	2               @ -- Begin function RTC_DateUpdate
	.type	RTC_DateUpdate,%function
	.code	16                      @ @RTC_DateUpdate
	.thumb_func
RTC_DateUpdate:
.Lfunc_begin14:
	.loc	6 1556 0                @ ../Drivers/STM32F1xx_HAL_Driver/Src/stm32f1xx_hal_rtc.c:1556:0
	.fnstart
	.cfi_startproc
@ %bb.0:
	.save	{r4, r5, r6, r7, r8, lr}
	push.w	{r4, r5, r6, r7, r8, lr}
	.cfi_def_cfa_offset 24
	.cfi_offset lr, -4
	.cfi_offset r8, -8
	.cfi_offset r7, -12
	.cfi_offset r6, -16
	.cfi_offset r5, -20
	.cfi_offset r4, -24
	@DEBUG_VALUE: RTC_DateUpdate:hrtc <- $r0
	@DEBUG_VALUE: RTC_DateUpdate:DayElapsed <- $r1
	mov	r6, r1
	mov	r8, r0
.Ltmp145:
	@DEBUG_VALUE: RTC_DateUpdate:loop <- 0
	@DEBUG_VALUE: RTC_DateUpdate:day <- 0
	@DEBUG_VALUE: RTC_DateUpdate:month <- 0
	@DEBUG_VALUE: RTC_DateUpdate:year <- 0
	@DEBUG_VALUE: RTC_DateUpdate:DayElapsed <- $r6
	@DEBUG_VALUE: RTC_DateUpdate:hrtc <- $r8
	.loc	6 1564 11 prologue_end  @ ../Drivers/STM32F1xx_HAL_Driver/Src/stm32f1xx_hal_rtc.c:1564:11
	ldrb	r1, [r0, #13]
.Ltmp146:
	@DEBUG_VALUE: RTC_DateUpdate:month <- $r1
	.loc	6 1565 9                @ ../Drivers/STM32F1xx_HAL_Driver/Src/stm32f1xx_hal_rtc.c:1565:9
	ldrb	r0, [r0, #14]
.Ltmp147:
	@DEBUG_VALUE: RTC_DateUpdate:day <- $r0
	.loc	6 1561 10               @ ../Drivers/STM32F1xx_HAL_Driver/Src/stm32f1xx_hal_rtc.c:1561:10
	ldrb.w	r5, [r8, #15]
.Ltmp148:
	@DEBUG_VALUE: RTC_DateUpdate:year <- $r5
	.loc	6 1567 3                @ ../Drivers/STM32F1xx_HAL_Driver/Src/stm32f1xx_hal_rtc.c:1567:3
	cmp	r6, #0
	beq	.LBB14_21
.Ltmp149:
@ %bb.1:
	@DEBUG_VALUE: RTC_DateUpdate:year <- $r5
	@DEBUG_VALUE: RTC_DateUpdate:day <- $r0
	@DEBUG_VALUE: RTC_DateUpdate:month <- $r1
	@DEBUG_VALUE: RTC_DateUpdate:hrtc <- $r8
	@DEBUG_VALUE: RTC_DateUpdate:DayElapsed <- $r6
	.loc	6 0 3 is_stmt 0         @ ../Drivers/STM32F1xx_HAL_Driver/Src/stm32f1xx_hal_rtc.c:0:3
	movs	r7, #1
	movw	r4, #5546
.Ltmp150:
	.p2align	2
.LBB14_2:                               @ =>This Inner Loop Header: Depth=1
	@DEBUG_VALUE: RTC_DateUpdate:year <- $r5
	@DEBUG_VALUE: RTC_DateUpdate:day <- $r0
	@DEBUG_VALUE: RTC_DateUpdate:month <- $r1
	@DEBUG_VALUE: RTC_DateUpdate:hrtc <- $r8
	@DEBUG_VALUE: RTC_DateUpdate:DayElapsed <- $r6
	.loc	6 1569 22 is_stmt 1     @ ../Drivers/STM32F1xx_HAL_Driver/Src/stm32f1xx_hal_rtc.c:1569:22
	cmp	r1, #12
	@DEBUG_VALUE: RTC_DateUpdate:month <- $r1
	bhi	.LBB14_12
.Ltmp151:
@ %bb.3:                                @   in Loop: Header=BB14_2 Depth=1
	@DEBUG_VALUE: RTC_DateUpdate:year <- $r5
	@DEBUG_VALUE: RTC_DateUpdate:day <- $r0
	@DEBUG_VALUE: RTC_DateUpdate:month <- $r1
	@DEBUG_VALUE: RTC_DateUpdate:hrtc <- $r8
	@DEBUG_VALUE: RTC_DateUpdate:DayElapsed <- $r6
	.loc	6 0 22 is_stmt 0        @ ../Drivers/STM32F1xx_HAL_Driver/Src/stm32f1xx_hal_rtc.c:0:22
	lsl.w	r2, r7, r1
	tst	r2, r4
	beq	.LBB14_6
.Ltmp152:
@ %bb.4:                                @   in Loop: Header=BB14_2 Depth=1
	@DEBUG_VALUE: RTC_DateUpdate:year <- $r5
	@DEBUG_VALUE: RTC_DateUpdate:day <- $r0
	@DEBUG_VALUE: RTC_DateUpdate:month <- $r1
	@DEBUG_VALUE: RTC_DateUpdate:hrtc <- $r8
	@DEBUG_VALUE: RTC_DateUpdate:DayElapsed <- $r6
	.loc	6 1572 10 is_stmt 1     @ ../Drivers/STM32F1xx_HAL_Driver/Src/stm32f1xx_hal_rtc.c:1572:10
	cmp	r0, #30
	bhi	.LBB14_9
.Ltmp153:
@ %bb.5:                                @   in Loop: Header=BB14_2 Depth=1
	@DEBUG_VALUE: RTC_DateUpdate:year <- $r5
	@DEBUG_VALUE: RTC_DateUpdate:day <- $r0
	@DEBUG_VALUE: RTC_DateUpdate:month <- $r1
	@DEBUG_VALUE: RTC_DateUpdate:hrtc <- $r8
	@DEBUG_VALUE: RTC_DateUpdate:DayElapsed <- $r6
	.loc	6 1574 12               @ ../Drivers/STM32F1xx_HAL_Driver/Src/stm32f1xx_hal_rtc.c:1574:12
	adds	r0, #1
.Ltmp154:
	@DEBUG_VALUE: RTC_DateUpdate:day <- $r0
	.loc	6 1567 24               @ ../Drivers/STM32F1xx_HAL_Driver/Src/stm32f1xx_hal_rtc.c:1567:24
	subs	r6, #1
.Ltmp155:
	.loc	6 1567 3 is_stmt 0      @ ../Drivers/STM32F1xx_HAL_Driver/Src/stm32f1xx_hal_rtc.c:1567:3
	bne	.LBB14_2
	b	.LBB14_21
.Ltmp156:
	.p2align	2
.LBB14_6:                               @   in Loop: Header=BB14_2 Depth=1
	@DEBUG_VALUE: RTC_DateUpdate:year <- $r5
	@DEBUG_VALUE: RTC_DateUpdate:day <- $r0
	@DEBUG_VALUE: RTC_DateUpdate:month <- $r1
	@DEBUG_VALUE: RTC_DateUpdate:hrtc <- $r8
	@DEBUG_VALUE: RTC_DateUpdate:DayElapsed <- $r6
	.loc	6 0 3                   @ ../Drivers/STM32F1xx_HAL_Driver/Src/stm32f1xx_hal_rtc.c:0:3
	tst.w	r2, #2640
	beq	.LBB14_13
.Ltmp157:
@ %bb.7:                                @   in Loop: Header=BB14_2 Depth=1
	@DEBUG_VALUE: RTC_DateUpdate:year <- $r5
	@DEBUG_VALUE: RTC_DateUpdate:day <- $r0
	@DEBUG_VALUE: RTC_DateUpdate:month <- $r1
	@DEBUG_VALUE: RTC_DateUpdate:hrtc <- $r8
	@DEBUG_VALUE: RTC_DateUpdate:DayElapsed <- $r6
	.loc	6 1595 10 is_stmt 1     @ ../Drivers/STM32F1xx_HAL_Driver/Src/stm32f1xx_hal_rtc.c:1595:10
	cmp	r0, #29
	bhi	.LBB14_11
.Ltmp158:
@ %bb.8:                                @   in Loop: Header=BB14_2 Depth=1
	@DEBUG_VALUE: RTC_DateUpdate:year <- $r5
	@DEBUG_VALUE: RTC_DateUpdate:day <- $r0
	@DEBUG_VALUE: RTC_DateUpdate:month <- $r1
	@DEBUG_VALUE: RTC_DateUpdate:hrtc <- $r8
	@DEBUG_VALUE: RTC_DateUpdate:DayElapsed <- $r6
	.loc	6 1597 12               @ ../Drivers/STM32F1xx_HAL_Driver/Src/stm32f1xx_hal_rtc.c:1597:12
	adds	r0, #1
.Ltmp159:
	@DEBUG_VALUE: RTC_DateUpdate:day <- $r0
	.loc	6 1567 24               @ ../Drivers/STM32F1xx_HAL_Driver/Src/stm32f1xx_hal_rtc.c:1567:24
	subs	r6, #1
.Ltmp160:
	.loc	6 1567 3 is_stmt 0      @ ../Drivers/STM32F1xx_HAL_Driver/Src/stm32f1xx_hal_rtc.c:1567:3
	bne	.LBB14_2
	b	.LBB14_21
.Ltmp161:
	.p2align	2
.LBB14_9:                               @   in Loop: Header=BB14_2 Depth=1
	@DEBUG_VALUE: RTC_DateUpdate:year <- $r5
	@DEBUG_VALUE: RTC_DateUpdate:day <- $r0
	@DEBUG_VALUE: RTC_DateUpdate:month <- $r1
	@DEBUG_VALUE: RTC_DateUpdate:hrtc <- $r8
	@DEBUG_VALUE: RTC_DateUpdate:DayElapsed <- $r6
	.loc	6 1579 12 is_stmt 1     @ ../Drivers/STM32F1xx_HAL_Driver/Src/stm32f1xx_hal_rtc.c:1579:12
	cmp	r1, #12
	bne	.LBB14_11
.Ltmp162:
@ %bb.10:                               @   in Loop: Header=BB14_2 Depth=1
	@DEBUG_VALUE: RTC_DateUpdate:year <- $r5
	@DEBUG_VALUE: RTC_DateUpdate:day <- $r0
	@DEBUG_VALUE: RTC_DateUpdate:month <- $r1
	@DEBUG_VALUE: RTC_DateUpdate:hrtc <- $r8
	@DEBUG_VALUE: RTC_DateUpdate:DayElapsed <- $r6
	@DEBUG_VALUE: RTC_DateUpdate:month <- 1
	@DEBUG_VALUE: RTC_DateUpdate:day <- 1
	.loc	6 1589 15               @ ../Drivers/STM32F1xx_HAL_Driver/Src/stm32f1xx_hal_rtc.c:1589:15
	adds	r5, #1
.Ltmp163:
	@DEBUG_VALUE: RTC_DateUpdate:year <- $r5
	.loc	6 0 15 is_stmt 0        @ ../Drivers/STM32F1xx_HAL_Driver/Src/stm32f1xx_hal_rtc.c:0:15
	movs	r1, #1
	movs	r0, #1
.Ltmp164:
	.loc	6 1567 24 is_stmt 1     @ ../Drivers/STM32F1xx_HAL_Driver/Src/stm32f1xx_hal_rtc.c:1567:24
	subs	r6, #1
.Ltmp165:
	.loc	6 1567 3 is_stmt 0      @ ../Drivers/STM32F1xx_HAL_Driver/Src/stm32f1xx_hal_rtc.c:1567:3
	bne	.LBB14_2
	b	.LBB14_21
.Ltmp166:
	.p2align	2
.LBB14_11:                              @   in Loop: Header=BB14_2 Depth=1
	@DEBUG_VALUE: RTC_DateUpdate:year <- $r5
	@DEBUG_VALUE: RTC_DateUpdate:day <- $r0
	@DEBUG_VALUE: RTC_DateUpdate:month <- $r1
	@DEBUG_VALUE: RTC_DateUpdate:hrtc <- $r8
	@DEBUG_VALUE: RTC_DateUpdate:DayElapsed <- $r6
	.loc	6 0 3                   @ ../Drivers/STM32F1xx_HAL_Driver/Src/stm32f1xx_hal_rtc.c:0:3
	adds	r1, #1
.Ltmp167:
	@DEBUG_VALUE: RTC_DateUpdate:month <- $r1
	movs	r0, #1
.Ltmp168:
	@DEBUG_VALUE: RTC_DateUpdate:day <- 1
.LBB14_12:                              @   in Loop: Header=BB14_2 Depth=1
	@DEBUG_VALUE: RTC_DateUpdate:year <- $r5
	@DEBUG_VALUE: RTC_DateUpdate:month <- $r1
	@DEBUG_VALUE: RTC_DateUpdate:hrtc <- $r8
	@DEBUG_VALUE: RTC_DateUpdate:DayElapsed <- $r6
	.loc	6 1567 24               @ ../Drivers/STM32F1xx_HAL_Driver/Src/stm32f1xx_hal_rtc.c:1567:24
	subs	r6, #1
.Ltmp169:
	.loc	6 1567 3                @ ../Drivers/STM32F1xx_HAL_Driver/Src/stm32f1xx_hal_rtc.c:1567:3
	bne	.LBB14_2
	b	.LBB14_21
.Ltmp170:
.LBB14_13:                              @   in Loop: Header=BB14_2 Depth=1
	@DEBUG_VALUE: RTC_DateUpdate:year <- $r5
	@DEBUG_VALUE: RTC_DateUpdate:day <- $r0
	@DEBUG_VALUE: RTC_DateUpdate:month <- $r1
	@DEBUG_VALUE: RTC_DateUpdate:hrtc <- $r8
	@DEBUG_VALUE: RTC_DateUpdate:DayElapsed <- $r6
	.loc	6 0 3                   @ ../Drivers/STM32F1xx_HAL_Driver/Src/stm32f1xx_hal_rtc.c:0:3
	cmp	r1, #2
	bne	.LBB14_12
.Ltmp171:
@ %bb.14:                               @   in Loop: Header=BB14_2 Depth=1
	@DEBUG_VALUE: RTC_DateUpdate:year <- $r5
	@DEBUG_VALUE: RTC_DateUpdate:day <- $r0
	@DEBUG_VALUE: RTC_DateUpdate:month <- $r1
	@DEBUG_VALUE: RTC_DateUpdate:hrtc <- $r8
	@DEBUG_VALUE: RTC_DateUpdate:DayElapsed <- $r6
	@DEBUG_VALUE: RTC_DateUpdate:day <- $r0
	.loc	6 1608 10 is_stmt 1     @ ../Drivers/STM32F1xx_HAL_Driver/Src/stm32f1xx_hal_rtc.c:1608:10
	cmp	r0, #27
	bhi	.LBB14_16
.Ltmp172:
@ %bb.15:                               @   in Loop: Header=BB14_2 Depth=1
	@DEBUG_VALUE: RTC_DateUpdate:year <- $r5
	@DEBUG_VALUE: RTC_DateUpdate:day <- $r0
	@DEBUG_VALUE: RTC_DateUpdate:month <- $r1
	@DEBUG_VALUE: RTC_DateUpdate:hrtc <- $r8
	@DEBUG_VALUE: RTC_DateUpdate:DayElapsed <- $r6
	.loc	6 1610 12               @ ../Drivers/STM32F1xx_HAL_Driver/Src/stm32f1xx_hal_rtc.c:1610:12
	adds	r0, #1
.Ltmp173:
	@DEBUG_VALUE: RTC_DateUpdate:day <- $r0
	.loc	6 0 12 is_stmt 0        @ ../Drivers/STM32F1xx_HAL_Driver/Src/stm32f1xx_hal_rtc.c:0:12
	movs	r1, #2
.Ltmp174:
	.loc	6 1567 24 is_stmt 1     @ ../Drivers/STM32F1xx_HAL_Driver/Src/stm32f1xx_hal_rtc.c:1567:24
	subs	r6, #1
.Ltmp175:
	.loc	6 1567 3 is_stmt 0      @ ../Drivers/STM32F1xx_HAL_Driver/Src/stm32f1xx_hal_rtc.c:1567:3
	bne	.LBB14_2
	b	.LBB14_21
.Ltmp176:
.LBB14_16:                              @   in Loop: Header=BB14_2 Depth=1
	@DEBUG_VALUE: RTC_DateUpdate:year <- $r5
	@DEBUG_VALUE: RTC_DateUpdate:day <- $r0
	@DEBUG_VALUE: RTC_DateUpdate:month <- $r1
	@DEBUG_VALUE: RTC_DateUpdate:hrtc <- $r8
	@DEBUG_VALUE: RTC_DateUpdate:DayElapsed <- $r6
	.loc	6 1612 15 is_stmt 1     @ ../Drivers/STM32F1xx_HAL_Driver/Src/stm32f1xx_hal_rtc.c:1612:15
	cmp	r0, #29
	beq	.LBB14_19
.Ltmp177:
@ %bb.17:                               @   in Loop: Header=BB14_2 Depth=1
	@DEBUG_VALUE: RTC_DateUpdate:year <- $r5
	@DEBUG_VALUE: RTC_DateUpdate:day <- $r0
	@DEBUG_VALUE: RTC_DateUpdate:month <- $r1
	@DEBUG_VALUE: RTC_DateUpdate:hrtc <- $r8
	@DEBUG_VALUE: RTC_DateUpdate:DayElapsed <- $r6
	cmp	r0, #28
	bne	.LBB14_20
.Ltmp178:
@ %bb.18:                               @   in Loop: Header=BB14_2 Depth=1
	@DEBUG_VALUE: RTC_DateUpdate:year <- $r5
	@DEBUG_VALUE: RTC_DateUpdate:day <- $r0
	@DEBUG_VALUE: RTC_DateUpdate:month <- $r1
	@DEBUG_VALUE: RTC_DateUpdate:hrtc <- $r8
	@DEBUG_VALUE: RTC_DateUpdate:DayElapsed <- $r6
	@DEBUG_VALUE: RTC_DateUpdate:year <- $r5
	.loc	6 1615 12               @ ../Drivers/STM32F1xx_HAL_Driver/Src/stm32f1xx_hal_rtc.c:1615:12
	uxth	r0, r5
.Ltmp179:
	bl	RTC_IsLeapYear
.Ltmp180:
	.loc	6 0 12 is_stmt 0        @ ../Drivers/STM32F1xx_HAL_Driver/Src/stm32f1xx_hal_rtc.c:0:12
	cmp	r0, #0
	mov.w	r0, #29
	it	eq
	moveq	r0, #1
	mov.w	r1, #2
	it	eq
	moveq	r1, #3
.Ltmp181:
	.loc	6 1567 24 is_stmt 1     @ ../Drivers/STM32F1xx_HAL_Driver/Src/stm32f1xx_hal_rtc.c:1567:24
	subs	r6, #1
.Ltmp182:
	.loc	6 1567 3 is_stmt 0      @ ../Drivers/STM32F1xx_HAL_Driver/Src/stm32f1xx_hal_rtc.c:1567:3
	bne	.LBB14_2
	b	.LBB14_21
.Ltmp183:
.LBB14_19:                              @   in Loop: Header=BB14_2 Depth=1
	@DEBUG_VALUE: RTC_DateUpdate:year <- $r5
	@DEBUG_VALUE: RTC_DateUpdate:day <- $r0
	@DEBUG_VALUE: RTC_DateUpdate:month <- $r1
	@DEBUG_VALUE: RTC_DateUpdate:hrtc <- $r8
	@DEBUG_VALUE: RTC_DateUpdate:DayElapsed <- $r6
	.loc	6 0 3                   @ ../Drivers/STM32F1xx_HAL_Driver/Src/stm32f1xx_hal_rtc.c:0:3
	movs	r0, #1
.Ltmp184:
	movs	r1, #3
.Ltmp185:
	@DEBUG_VALUE: RTC_DateUpdate:day <- 1
	.loc	6 1567 24               @ ../Drivers/STM32F1xx_HAL_Driver/Src/stm32f1xx_hal_rtc.c:1567:24
	subs	r6, #1
.Ltmp186:
	.loc	6 1567 3                @ ../Drivers/STM32F1xx_HAL_Driver/Src/stm32f1xx_hal_rtc.c:1567:3
	bne	.LBB14_2
	b	.LBB14_21
.Ltmp187:
.LBB14_20:                              @   in Loop: Header=BB14_2 Depth=1
	@DEBUG_VALUE: RTC_DateUpdate:year <- $r5
	@DEBUG_VALUE: RTC_DateUpdate:day <- $r0
	@DEBUG_VALUE: RTC_DateUpdate:month <- $r1
	@DEBUG_VALUE: RTC_DateUpdate:hrtc <- $r8
	@DEBUG_VALUE: RTC_DateUpdate:DayElapsed <- $r6
	.loc	6 0 3                   @ ../Drivers/STM32F1xx_HAL_Driver/Src/stm32f1xx_hal_rtc.c:0:3
	movs	r1, #2
.Ltmp188:
	.loc	6 1567 24               @ ../Drivers/STM32F1xx_HAL_Driver/Src/stm32f1xx_hal_rtc.c:1567:24
	subs	r6, #1
.Ltmp189:
	.loc	6 1567 3                @ ../Drivers/STM32F1xx_HAL_Driver/Src/stm32f1xx_hal_rtc.c:1567:3
	bne	.LBB14_2
.Ltmp190:
.LBB14_21:
	@DEBUG_VALUE: RTC_DateUpdate:year <- $r5
	@DEBUG_VALUE: RTC_DateUpdate:hrtc <- $r8
	.loc	6 1637 28 is_stmt 1     @ ../Drivers/STM32F1xx_HAL_Driver/Src/stm32f1xx_hal_rtc.c:1637:28
	strb.w	r1, [r8, #13]
	.loc	6 1634 27               @ ../Drivers/STM32F1xx_HAL_Driver/Src/stm32f1xx_hal_rtc.c:1634:27
	strb.w	r5, [r8, #15]
	.loc	6 1638 27               @ ../Drivers/STM32F1xx_HAL_Driver/Src/stm32f1xx_hal_rtc.c:1638:27
	strb.w	r0, [r8, #14]
	.loc	6 1641 32               @ ../Drivers/STM32F1xx_HAL_Driver/Src/stm32f1xx_hal_rtc.c:1641:32
	uxtb	r1, r1
	uxtb	r2, r0
	mov	r0, r5
	bl	RTC_WeekDayNum
	.loc	6 1641 30 is_stmt 0     @ ../Drivers/STM32F1xx_HAL_Driver/Src/stm32f1xx_hal_rtc.c:1641:30
	strb.w	r0, [r8, #12]
	.loc	6 1642 1 is_stmt 1      @ ../Drivers/STM32F1xx_HAL_Driver/Src/stm32f1xx_hal_rtc.c:1642:1
	pop.w	{r4, r5, r6, r7, r8, pc}
.Ltmp191:
.Lfunc_end14:
	.size	RTC_DateUpdate, .Lfunc_end14-RTC_DateUpdate
	.cfi_endproc
	.cantunwind
	.fnend
                                        @ -- End function
	.section	.text.RTC_ByteToBcd2,"ax",%progbits
	.p2align	2               @ -- Begin function RTC_ByteToBcd2
	.type	RTC_ByteToBcd2,%function
	.code	16                      @ @RTC_ByteToBcd2
	.thumb_func
RTC_ByteToBcd2:
.Lfunc_begin15:
	.loc	6 1524 0                @ ../Drivers/STM32F1xx_HAL_Driver/Src/stm32f1xx_hal_rtc.c:1524:0
	.fnstart
	.cfi_startproc
@ %bb.0:
	@DEBUG_VALUE: RTC_ByteToBcd2:Value <- $r0
	@DEBUG_VALUE: RTC_ByteToBcd2:Value <- $r0
	@DEBUG_VALUE: RTC_ByteToBcd2:bcdhigh <- 0
	.loc	6 1527 3 prologue_end   @ ../Drivers/STM32F1xx_HAL_Driver/Src/stm32f1xx_hal_rtc.c:1527:3
	cmp	r0, #10
	blo	.LBB15_2
.Ltmp192:
@ %bb.1:
	@DEBUG_VALUE: RTC_ByteToBcd2:Value <- $r0
	subs	r0, #10
.Ltmp193:
	uxtb	r1, r0
	movw	r2, #52429
	movt	r2, #52428
	umull	r1, r2, r1, r2
	lsrs	r2, r2, #3
	.loc	6 1533 11               @ ../Drivers/STM32F1xx_HAL_Driver/Src/stm32f1xx_hal_rtc.c:1533:11
	movs	r1, #16
	add.w	r1, r1, r2, lsl #4
	.loc	6 1527 3                @ ../Drivers/STM32F1xx_HAL_Driver/Src/stm32f1xx_hal_rtc.c:1527:3
	add.w	r2, r2, r2, lsl #2
	sub.w	r0, r0, r2, lsl #1
	b	.LBB15_3
.LBB15_2:
.Ltmp194:
	@DEBUG_VALUE: RTC_ByteToBcd2:Value <- $r0
	.loc	6 0 3 is_stmt 0         @ ../Drivers/STM32F1xx_HAL_Driver/Src/stm32f1xx_hal_rtc.c:0:3
	movs	r1, #0
.Ltmp195:
.LBB15_3:
	.loc	6 1533 11 is_stmt 1     @ ../Drivers/STM32F1xx_HAL_Driver/Src/stm32f1xx_hal_rtc.c:1533:11
	orrs	r0, r1
	.loc	6 1533 3 is_stmt 0      @ ../Drivers/STM32F1xx_HAL_Driver/Src/stm32f1xx_hal_rtc.c:1533:3
	uxtb	r0, r0
	bx	lr
.Ltmp196:
.Lfunc_end15:
	.size	RTC_ByteToBcd2, .Lfunc_end15-RTC_ByteToBcd2
	.cfi_endproc
	.cantunwind
	.fnend
                                        @ -- End function
	.section	.text.HAL_RTC_SetDate,"ax",%progbits
	.hidden	HAL_RTC_SetDate         @ -- Begin function HAL_RTC_SetDate
	.globl	HAL_RTC_SetDate
	.p2align	2
	.type	HAL_RTC_SetDate,%function
	.code	16                      @ @HAL_RTC_SetDate
	.thumb_func
HAL_RTC_SetDate:
.Lfunc_begin16:
	.loc	6 691 0 is_stmt 1       @ ../Drivers/STM32F1xx_HAL_Driver/Src/stm32f1xx_hal_rtc.c:691:0
	.fnstart
	.cfi_startproc
@ %bb.0:
	.save	{r4, r5, r7, lr}
	push	{r4, r5, r7, lr}
	.cfi_def_cfa_offset 16
	.cfi_offset lr, -4
	.cfi_offset r7, -8
	.cfi_offset r5, -12
	.cfi_offset r4, -16
	@DEBUG_VALUE: HAL_RTC_SetDate:hrtc <- $r0
	@DEBUG_VALUE: HAL_RTC_SetDate:sDate <- $r1
	@DEBUG_VALUE: HAL_RTC_SetDate:Format <- $r2
	mov	r5, r1
	mov	r4, r0
	movs	r0, #1
.Ltmp197:
	@DEBUG_VALUE: HAL_RTC_SetDate:hours <- 0
	@DEBUG_VALUE: HAL_RTC_SetDate:counter_alarm <- 0
	@DEBUG_VALUE: HAL_RTC_SetDate:counter_time <- 0
	@DEBUG_VALUE: HAL_RTC_SetDate:Format <- $r2
	@DEBUG_VALUE: HAL_RTC_SetDate:sDate <- $r5
	@DEBUG_VALUE: HAL_RTC_SetDate:hrtc <- $r4
	.loc	6 695 21 prologue_end   @ ../Drivers/STM32F1xx_HAL_Driver/Src/stm32f1xx_hal_rtc.c:695:21
	cmp	r4, #0
	it	ne
	cmpne	r5, #0
	bne	.LBB16_2
.Ltmp198:
@ %bb.1:
	@DEBUG_VALUE: HAL_RTC_SetDate:hrtc <- $r4
	@DEBUG_VALUE: HAL_RTC_SetDate:sDate <- $r5
	@DEBUG_VALUE: HAL_RTC_SetDate:Format <- $r2
	.loc	6 791 1                 @ ../Drivers/STM32F1xx_HAL_Driver/Src/stm32f1xx_hal_rtc.c:791:1
	pop	{r4, r5, r7, pc}
.Ltmp199:
.LBB16_2:
	@DEBUG_VALUE: HAL_RTC_SetDate:hrtc <- $r4
	@DEBUG_VALUE: HAL_RTC_SetDate:sDate <- $r5
	@DEBUG_VALUE: HAL_RTC_SetDate:Format <- $r2
	.loc	6 704 2                 @ ../Drivers/STM32F1xx_HAL_Driver/Src/stm32f1xx_hal_rtc.c:704:2
	ldr	r1, [r4, #16]
	movs	r0, #2
.Ltmp200:
	.loc	6 704 2 is_stmt 0       @ ../Drivers/STM32F1xx_HAL_Driver/Src/stm32f1xx_hal_rtc.c:704:2
	cmp	r1, #1
.Ltmp201:
	.loc	6 791 1 is_stmt 1       @ ../Drivers/STM32F1xx_HAL_Driver/Src/stm32f1xx_hal_rtc.c:791:1
	it	eq
	popeq	{r4, r5, r7, pc}
.Ltmp202:
	.loc	6 706 15                @ ../Drivers/STM32F1xx_HAL_Driver/Src/stm32f1xx_hal_rtc.c:706:15
	str	r0, [r4, #20]
	movs	r0, #1
.Ltmp203:
	.loc	6 704 2                 @ ../Drivers/STM32F1xx_HAL_Driver/Src/stm32f1xx_hal_rtc.c:704:2
	str	r0, [r4, #16]
	ldrb	r0, [r5, #3]
.Ltmp204:
	.loc	6 708 6                 @ ../Drivers/STM32F1xx_HAL_Driver/Src/stm32f1xx_hal_rtc.c:708:6
	cbz	r2, .LBB16_4
.Ltmp205:
@ %bb.3:
	@DEBUG_VALUE: HAL_RTC_SetDate:Format <- $r2
	.loc	6 726 32                @ ../Drivers/STM32F1xx_HAL_Driver/Src/stm32f1xx_hal_rtc.c:726:32
	bl	RTC_Bcd2ToByte
.Ltmp206:
	.loc	6 726 30 is_stmt 0      @ ../Drivers/STM32F1xx_HAL_Driver/Src/stm32f1xx_hal_rtc.c:726:30
	strb	r0, [r4, #15]
	.loc	6 727 32 is_stmt 1      @ ../Drivers/STM32F1xx_HAL_Driver/Src/stm32f1xx_hal_rtc.c:727:32
	ldrb	r0, [r5, #1]
	bl	RTC_Bcd2ToByte
	.loc	6 727 30 is_stmt 0      @ ../Drivers/STM32F1xx_HAL_Driver/Src/stm32f1xx_hal_rtc.c:727:30
	strb	r0, [r4, #13]
	.loc	6 728 32 is_stmt 1      @ ../Drivers/STM32F1xx_HAL_Driver/Src/stm32f1xx_hal_rtc.c:728:32
	ldrb	r0, [r5, #2]
	bl	RTC_Bcd2ToByte
	b	.LBB16_5
.Ltmp207:
.LBB16_4:
	@DEBUG_VALUE: HAL_RTC_SetDate:Format <- $r2
	.loc	6 715 30                @ ../Drivers/STM32F1xx_HAL_Driver/Src/stm32f1xx_hal_rtc.c:715:30
	strb	r0, [r4, #15]
	.loc	6 716 39                @ ../Drivers/STM32F1xx_HAL_Driver/Src/stm32f1xx_hal_rtc.c:716:39
	ldrb	r0, [r5, #1]
	.loc	6 716 30 is_stmt 0      @ ../Drivers/STM32F1xx_HAL_Driver/Src/stm32f1xx_hal_rtc.c:716:30
	strb	r0, [r4, #13]
	.loc	6 717 39 is_stmt 1      @ ../Drivers/STM32F1xx_HAL_Driver/Src/stm32f1xx_hal_rtc.c:717:39
	ldrb	r0, [r5, #2]
.Ltmp208:
.LBB16_5:
	.loc	6 0 39 is_stmt 0        @ ../Drivers/STM32F1xx_HAL_Driver/Src/stm32f1xx_hal_rtc.c:0:39
	strb	r0, [r4, #14]
	.loc	6 732 32 is_stmt 1      @ ../Drivers/STM32F1xx_HAL_Driver/Src/stm32f1xx_hal_rtc.c:732:32
	ldrb	r1, [r4, #13]
	.loc	6 732 47 is_stmt 0      @ ../Drivers/STM32F1xx_HAL_Driver/Src/stm32f1xx_hal_rtc.c:732:47
	ldrb	r0, [r4, #15]
	.loc	6 732 32                @ ../Drivers/STM32F1xx_HAL_Driver/Src/stm32f1xx_hal_rtc.c:732:32
	ldrb	r2, [r4, #14]
	bl	RTC_WeekDayNum
	.loc	6 732 30                @ ../Drivers/STM32F1xx_HAL_Driver/Src/stm32f1xx_hal_rtc.c:732:30
	strb	r0, [r4, #12]
	.loc	6 733 18 is_stmt 1      @ ../Drivers/STM32F1xx_HAL_Driver/Src/stm32f1xx_hal_rtc.c:733:18
	strb	r0, [r5]
	.loc	6 737 18                @ ../Drivers/STM32F1xx_HAL_Driver/Src/stm32f1xx_hal_rtc.c:737:18
	mov	r0, r4
	bl	RTC_ReadTimeCounter
.Ltmp209:
	@DEBUG_VALUE: HAL_RTC_SetDate:counter_time <- $r0
	.loc	6 741 7                 @ ../Drivers/STM32F1xx_HAL_Driver/Src/stm32f1xx_hal_rtc.c:741:7
	movw	r1, #24464
	movt	r1, #1
	cmp	r0, r1
	blo	.LBB16_11
.Ltmp210:
@ %bb.6:
	@DEBUG_VALUE: HAL_RTC_SetDate:counter_time <- $r0
	.loc	6 744 18                @ ../Drivers/STM32F1xx_HAL_Driver/Src/stm32f1xx_hal_rtc.c:744:18
	movw	r1, #17671
	movt	r1, #49710
	umull	r1, r2, r0, r1
	lsrs	r1, r2, #16
	movw	r2, #675
	muls	r1, r2, r1
	sub.w	r5, r0, r1, lsl #7
.Ltmp211:
	@DEBUG_VALUE: HAL_RTC_SetDate:counter_time <- $r5
	.loc	6 746 9                 @ ../Drivers/STM32F1xx_HAL_Driver/Src/stm32f1xx_hal_rtc.c:746:9
	mov	r0, r4
	mov	r1, r5
	bl	RTC_WriteTimeCounter
.Ltmp212:
	.loc	6 746 9 is_stmt 0       @ ../Drivers/STM32F1xx_HAL_Driver/Src/stm32f1xx_hal_rtc.c:746:9
	cbz	r0, .LBB16_8
.Ltmp213:
.LBB16_7:
	@DEBUG_VALUE: HAL_RTC_SetDate:counter_time <- $r5
	.loc	6 0 9                   @ ../Drivers/STM32F1xx_HAL_Driver/Src/stm32f1xx_hal_rtc.c:0:9
	movs	r0, #0
	str	r0, [r4, #16]
	movs	r0, #4
	str	r0, [r4, #20]
	movs	r0, #1
	.loc	6 791 1 is_stmt 1       @ ../Drivers/STM32F1xx_HAL_Driver/Src/stm32f1xx_hal_rtc.c:791:1
	pop	{r4, r5, r7, pc}
.Ltmp214:
.LBB16_8:
	@DEBUG_VALUE: HAL_RTC_SetDate:counter_time <- $r5
	.loc	6 758 21                @ ../Drivers/STM32F1xx_HAL_Driver/Src/stm32f1xx_hal_rtc.c:758:21
	mov	r0, r4
	bl	RTC_ReadAlarmCounter
.Ltmp215:
	@DEBUG_VALUE: HAL_RTC_SetDate:counter_alarm <- $r0
	.loc	6 761 9                 @ ../Drivers/STM32F1xx_HAL_Driver/Src/stm32f1xx_hal_rtc.c:761:9
	adds	r1, r0, #1
	beq	.LBB16_11
.Ltmp216:
@ %bb.9:
	@DEBUG_VALUE: HAL_RTC_SetDate:counter_alarm <- $r0
	@DEBUG_VALUE: HAL_RTC_SetDate:counter_time <- $r5
	cmp	r0, r5
	bhs	.LBB16_11
.Ltmp217:
@ %bb.10:
	@DEBUG_VALUE: HAL_RTC_SetDate:counter_alarm <- $r0
	@DEBUG_VALUE: HAL_RTC_SetDate:counter_time <- $r5
	.loc	6 766 23                @ ../Drivers/STM32F1xx_HAL_Driver/Src/stm32f1xx_hal_rtc.c:766:23
	add.w	r0, r0, #65536
.Ltmp218:
	add.w	r1, r0, #20864
.Ltmp219:
	@DEBUG_VALUE: HAL_RTC_SetDate:counter_alarm <- $r1
	.loc	6 769 13                @ ../Drivers/STM32F1xx_HAL_Driver/Src/stm32f1xx_hal_rtc.c:769:13
	mov	r0, r4
	bl	RTC_WriteAlarmCounter
.Ltmp220:
	.loc	6 769 13 is_stmt 0      @ ../Drivers/STM32F1xx_HAL_Driver/Src/stm32f1xx_hal_rtc.c:769:13
	cmp	r0, #0
	bne	.LBB16_7
.Ltmp221:
.LBB16_11:
	.loc	6 0 13                  @ ../Drivers/STM32F1xx_HAL_Driver/Src/stm32f1xx_hal_rtc.c:0:13
	movs	r0, #0
.Ltmp222:
	.loc	6 788 3 is_stmt 1       @ ../Drivers/STM32F1xx_HAL_Driver/Src/stm32f1xx_hal_rtc.c:788:3
	str	r0, [r4, #16]
.Ltmp223:
	.loc	6 785 15                @ ../Drivers/STM32F1xx_HAL_Driver/Src/stm32f1xx_hal_rtc.c:785:15
	movs	r1, #1
	str	r1, [r4, #20]
	.loc	6 791 1                 @ ../Drivers/STM32F1xx_HAL_Driver/Src/stm32f1xx_hal_rtc.c:791:1
	pop	{r4, r5, r7, pc}
.Ltmp224:
.Lfunc_end16:
	.size	HAL_RTC_SetDate, .Lfunc_end16-HAL_RTC_SetDate
	.cfi_endproc
	.cantunwind
	.fnend
                                        @ -- End function
	.section	.text.RTC_WeekDayNum,"ax",%progbits
	.p2align	2               @ -- Begin function RTC_WeekDayNum
	.type	RTC_WeekDayNum,%function
	.code	16                      @ @RTC_WeekDayNum
	.thumb_func
RTC_WeekDayNum:
.Lfunc_begin17:
	.loc	6 1688 0                @ ../Drivers/STM32F1xx_HAL_Driver/Src/stm32f1xx_hal_rtc.c:1688:0
	.fnstart
	.cfi_startproc
@ %bb.0:
	@DEBUG_VALUE: RTC_WeekDayNum:nYear <- $r0
	@DEBUG_VALUE: RTC_WeekDayNum:nMonth <- $r1
	@DEBUG_VALUE: RTC_WeekDayNum:nDay <- $r2
	@DEBUG_VALUE: RTC_WeekDayNum:nDay <- $r2
	add.w	r12, r0, r2
	movs	r3, #23
	muls	r3, r1, r3
	movw	r2, #36409
.Ltmp225:
	movt	r2, #14563
	umull	r2, r3, r3, r2
	add.w	r2, r12, r3, lsr #1
	addw	r2, r2, #2004
.Ltmp226:
	@DEBUG_VALUE: RTC_WeekDayNum:weekday <- 0
	@DEBUG_VALUE: RTC_WeekDayNum:year <- 0
	@DEBUG_VALUE: RTC_WeekDayNum:nMonth <- $r1
	@DEBUG_VALUE: RTC_WeekDayNum:nYear <- $r0
	.loc	6 1693 6 prologue_end   @ ../Drivers/STM32F1xx_HAL_Driver/Src/stm32f1xx_hal_rtc.c:1693:6
	cmp	r1, #2
	bhi	.LBB17_2
.Ltmp227:
@ %bb.1:
	@DEBUG_VALUE: RTC_WeekDayNum:nMonth <- $r1
	@DEBUG_VALUE: RTC_WeekDayNum:nYear <- $r0
	.loc	6 1696 63               @ ../Drivers/STM32F1xx_HAL_Driver/Src/stm32f1xx_hal_rtc.c:1696:63
	addw	r0, r0, #1999
.Ltmp228:
	.loc	6 1696 84 is_stmt 0     @ ../Drivers/STM32F1xx_HAL_Driver/Src/stm32f1xx_hal_rtc.c:1696:84
	movw	r1, #34079
.Ltmp229:
	movt	r1, #20971
	umull	r1, r3, r0, r1
	.loc	6 1696 67               @ ../Drivers/STM32F1xx_HAL_Driver/Src/stm32f1xx_hal_rtc.c:1696:67
	lsrs	r1, r0, #2
	.loc	6 1696 55               @ ../Drivers/STM32F1xx_HAL_Driver/Src/stm32f1xx_hal_rtc.c:1696:55
	sub.w	r1, r1, r3, lsr #5
	.loc	6 1697 3 is_stmt 1      @ ../Drivers/STM32F1xx_HAL_Driver/Src/stm32f1xx_hal_rtc.c:1697:3
	b	.LBB17_3
.Ltmp230:
.LBB17_2:
	@DEBUG_VALUE: RTC_WeekDayNum:nMonth <- $r1
	@DEBUG_VALUE: RTC_WeekDayNum:nYear <- $r0
	.loc	6 0 3 is_stmt 0         @ ../Drivers/STM32F1xx_HAL_Driver/Src/stm32f1xx_hal_rtc.c:0:3
	add.w	r0, r0, #2000
.Ltmp231:
	@DEBUG_VALUE: RTC_WeekDayNum:year <- $r0
	.loc	6 1701 74 is_stmt 1     @ ../Drivers/STM32F1xx_HAL_Driver/Src/stm32f1xx_hal_rtc.c:1701:74
	movw	r1, #34079
.Ltmp232:
	movt	r1, #20971
	umull	r1, r3, r0, r1
	.loc	6 1701 55 is_stmt 0     @ ../Drivers/STM32F1xx_HAL_Driver/Src/stm32f1xx_hal_rtc.c:1701:55
	mvn	r1, #1
	add.w	r1, r1, r0, lsr #2
	.loc	6 1701 67               @ ../Drivers/STM32F1xx_HAL_Driver/Src/stm32f1xx_hal_rtc.c:1701:67
	sub.w	r1, r1, r3, lsr #5
.Ltmp233:
.LBB17_3:
	.loc	6 0 67                  @ ../Drivers/STM32F1xx_HAL_Driver/Src/stm32f1xx_hal_rtc.c:0:67
	movw	r3, #34079
	movt	r3, #20971
	umull	r0, r3, r0, r3
	add.w	r0, r1, r3, lsr #7
	add	r0, r2
	movw	r1, #18725
	movt	r1, #9362
	umull	r1, r2, r0, r1
	subs	r1, r0, r2
	add.w	r1, r2, r1, lsr #1
	lsrs	r2, r1, #2
	lsls	r2, r2, #3
	sub.w	r1, r2, r1, lsr #2
	subs	r0, r0, r1
.Ltmp234:
	@DEBUG_VALUE: RTC_WeekDayNum:weekday <- $r0
	.loc	6 1704 3 is_stmt 1      @ ../Drivers/STM32F1xx_HAL_Driver/Src/stm32f1xx_hal_rtc.c:1704:3
	bx	lr
.Ltmp235:
.Lfunc_end17:
	.size	RTC_WeekDayNum, .Lfunc_end17-RTC_WeekDayNum
	.cfi_endproc
	.cantunwind
	.fnend
                                        @ -- End function
	.section	.text.HAL_RTC_GetDate,"ax",%progbits
	.hidden	HAL_RTC_GetDate         @ -- Begin function HAL_RTC_GetDate
	.globl	HAL_RTC_GetDate
	.p2align	2
	.type	HAL_RTC_GetDate,%function
	.code	16                      @ @HAL_RTC_GetDate
	.thumb_func
HAL_RTC_GetDate:
.Lfunc_begin18:
	.loc	6 805 0                 @ ../Drivers/STM32F1xx_HAL_Driver/Src/stm32f1xx_hal_rtc.c:805:0
	.fnstart
	.cfi_startproc
@ %bb.0:
	.save	{r4, r5, r6, r7, lr}
	push	{r4, r5, r6, r7, lr}
	.cfi_def_cfa_offset 20
	.cfi_offset lr, -4
	.cfi_offset r7, -8
	.cfi_offset r6, -12
	.cfi_offset r5, -16
	.cfi_offset r4, -20
	.pad	#4
	sub	sp, #4
	.cfi_def_cfa_offset 24
	@DEBUG_VALUE: HAL_RTC_GetDate:hrtc <- $r0
	@DEBUG_VALUE: HAL_RTC_GetDate:sDate <- $r1
	@DEBUG_VALUE: HAL_RTC_GetDate:Format <- $r2
	mov	r5, r2
	mov	r4, r1
	mov	r6, r0
	movs	r0, #0
.Ltmp236:
	@DEBUG_VALUE: HAL_RTC_GetDate:Format <- $r5
	@DEBUG_VALUE: HAL_RTC_GetDate:sDate <- $r4
	@DEBUG_VALUE: HAL_RTC_GetDate:hrtc <- $r6
	.loc	6 806 19 prologue_end   @ ../Drivers/STM32F1xx_HAL_Driver/Src/stm32f1xx_hal_rtc.c:806:19
	strb.w	r0, [sp, #2]
	strh.w	r0, [sp]
	movs	r0, #1
.Ltmp237:
	.loc	6 809 21                @ ../Drivers/STM32F1xx_HAL_Driver/Src/stm32f1xx_hal_rtc.c:809:21
	cmp	r6, #0
	it	ne
	cmpne	r4, #0
	bne	.LBB18_2
.Ltmp238:
@ %bb.1:
	@DEBUG_VALUE: HAL_RTC_GetDate:hrtc <- $r6
	@DEBUG_VALUE: HAL_RTC_GetDate:sDate <- $r4
	@DEBUG_VALUE: HAL_RTC_GetDate:Format <- $r5
	.loc	6 838 1                 @ ../Drivers/STM32F1xx_HAL_Driver/Src/stm32f1xx_hal_rtc.c:838:1
	add	sp, #4
	pop	{r4, r5, r6, r7, pc}
.Ltmp239:
.LBB18_2:
	@DEBUG_VALUE: HAL_RTC_GetDate:hrtc <- $r6
	@DEBUG_VALUE: HAL_RTC_GetDate:sDate <- $r4
	@DEBUG_VALUE: HAL_RTC_GetDate:Format <- $r5
	.loc	6 0 1 is_stmt 0         @ ../Drivers/STM32F1xx_HAL_Driver/Src/stm32f1xx_hal_rtc.c:0:1
	mov	r1, sp
.Ltmp240:
	@DEBUG_VALUE: HAL_RTC_GetDate:stime <- [$sp+0]
	.loc	6 818 7 is_stmt 1       @ ../Drivers/STM32F1xx_HAL_Driver/Src/stm32f1xx_hal_rtc.c:818:7
	mov	r0, r6
	movs	r2, #0
	bl	HAL_RTC_GetTime
.Ltmp241:
	.loc	6 818 7 is_stmt 0       @ ../Drivers/STM32F1xx_HAL_Driver/Src/stm32f1xx_hal_rtc.c:818:7
	cmp	r0, #0
	ittt	ne
	movne	r0, #1
	.loc	6 838 1 is_stmt 1       @ ../Drivers/STM32F1xx_HAL_Driver/Src/stm32f1xx_hal_rtc.c:838:1
	addne	sp, #4
.Ltmp242:
	popne	{r4, r5, r6, r7, pc}
.Ltmp243:
	.loc	6 824 40                @ ../Drivers/STM32F1xx_HAL_Driver/Src/stm32f1xx_hal_rtc.c:824:40
	ldrb	r0, [r6, #12]
	.loc	6 824 19 is_stmt 0      @ ../Drivers/STM32F1xx_HAL_Driver/Src/stm32f1xx_hal_rtc.c:824:19
	strb	r0, [r4]
	.loc	6 825 40 is_stmt 1      @ ../Drivers/STM32F1xx_HAL_Driver/Src/stm32f1xx_hal_rtc.c:825:40
	ldrb	r0, [r6, #15]
	.loc	6 825 19 is_stmt 0      @ ../Drivers/STM32F1xx_HAL_Driver/Src/stm32f1xx_hal_rtc.c:825:19
	strb	r0, [r4, #3]
	.loc	6 826 40 is_stmt 1      @ ../Drivers/STM32F1xx_HAL_Driver/Src/stm32f1xx_hal_rtc.c:826:40
	ldrb	r7, [r6, #13]
	.loc	6 826 19 is_stmt 0      @ ../Drivers/STM32F1xx_HAL_Driver/Src/stm32f1xx_hal_rtc.c:826:19
	strb	r7, [r4, #1]
	.loc	6 827 40 is_stmt 1      @ ../Drivers/STM32F1xx_HAL_Driver/Src/stm32f1xx_hal_rtc.c:827:40
	ldrb	r6, [r6, #14]
	.loc	6 827 19 is_stmt 0      @ ../Drivers/STM32F1xx_HAL_Driver/Src/stm32f1xx_hal_rtc.c:827:19
	strb	r6, [r4, #2]
	.loc	6 830 6 is_stmt 1       @ ../Drivers/STM32F1xx_HAL_Driver/Src/stm32f1xx_hal_rtc.c:830:6
	cbz	r5, .LBB18_4
@ %bb.3:
.Ltmp244:
	.loc	6 833 30                @ ../Drivers/STM32F1xx_HAL_Driver/Src/stm32f1xx_hal_rtc.c:833:30
	bl	RTC_ByteToBcd2
	.loc	6 833 19 is_stmt 0      @ ../Drivers/STM32F1xx_HAL_Driver/Src/stm32f1xx_hal_rtc.c:833:19
	strb	r0, [r4, #3]
	.loc	6 834 30 is_stmt 1      @ ../Drivers/STM32F1xx_HAL_Driver/Src/stm32f1xx_hal_rtc.c:834:30
	mov	r0, r7
	bl	RTC_ByteToBcd2
	.loc	6 834 19 is_stmt 0      @ ../Drivers/STM32F1xx_HAL_Driver/Src/stm32f1xx_hal_rtc.c:834:19
	strb	r0, [r4, #1]
	.loc	6 835 30 is_stmt 1      @ ../Drivers/STM32F1xx_HAL_Driver/Src/stm32f1xx_hal_rtc.c:835:30
	mov	r0, r6
	bl	RTC_ByteToBcd2
	.loc	6 835 19 is_stmt 0      @ ../Drivers/STM32F1xx_HAL_Driver/Src/stm32f1xx_hal_rtc.c:835:19
	strb	r0, [r4, #2]
	movs	r0, #0
.Ltmp245:
	.loc	6 838 1 is_stmt 1       @ ../Drivers/STM32F1xx_HAL_Driver/Src/stm32f1xx_hal_rtc.c:838:1
	add	sp, #4
	pop	{r4, r5, r6, r7, pc}
.LBB18_4:
	.loc	6 0 1 is_stmt 0         @ ../Drivers/STM32F1xx_HAL_Driver/Src/stm32f1xx_hal_rtc.c:0:1
	movs	r0, #0
	.loc	6 838 1                 @ ../Drivers/STM32F1xx_HAL_Driver/Src/stm32f1xx_hal_rtc.c:838:1
	add	sp, #4
	pop	{r4, r5, r6, r7, pc}
.Ltmp246:
.Lfunc_end18:
	.size	HAL_RTC_GetDate, .Lfunc_end18-HAL_RTC_GetDate
	.cfi_endproc
	.cantunwind
	.fnend
                                        @ -- End function
	.section	.text.HAL_RTC_SetAlarm,"ax",%progbits
	.hidden	HAL_RTC_SetAlarm        @ -- Begin function HAL_RTC_SetAlarm
	.globl	HAL_RTC_SetAlarm
	.p2align	2
	.type	HAL_RTC_SetAlarm,%function
	.code	16                      @ @HAL_RTC_SetAlarm
	.thumb_func
HAL_RTC_SetAlarm:
.Lfunc_begin19:
	.loc	6 870 0 is_stmt 1       @ ../Drivers/STM32F1xx_HAL_Driver/Src/stm32f1xx_hal_rtc.c:870:0
	.fnstart
	.cfi_startproc
@ %bb.0:
	.save	{r4, r5, r6, r7, r8, lr}
	push.w	{r4, r5, r6, r7, r8, lr}
	.cfi_def_cfa_offset 24
	.cfi_offset lr, -4
	.cfi_offset r8, -8
	.cfi_offset r7, -12
	.cfi_offset r6, -16
	.cfi_offset r5, -20
	.cfi_offset r4, -24
	.pad	#8
	sub	sp, #8
	.cfi_def_cfa_offset 32
	@DEBUG_VALUE: HAL_RTC_SetAlarm:hrtc <- $r0
	@DEBUG_VALUE: HAL_RTC_SetAlarm:sAlarm <- $r1
	@DEBUG_VALUE: HAL_RTC_SetAlarm:Format <- $r2
	mov	r6, r2
	mov	r5, r1
	mov	r4, r0
	movs	r0, #0
.Ltmp247:
	@DEBUG_VALUE: HAL_RTC_SetAlarm:counter_alarm <- 0
	@DEBUG_VALUE: HAL_RTC_SetAlarm:Format <- $r6
	@DEBUG_VALUE: HAL_RTC_SetAlarm:sAlarm <- $r5
	@DEBUG_VALUE: HAL_RTC_SetAlarm:hrtc <- $r4
	.loc	6 872 19 prologue_end   @ ../Drivers/STM32F1xx_HAL_Driver/Src/stm32f1xx_hal_rtc.c:872:19
	strb.w	r0, [sp, #6]
	strh.w	r0, [sp, #4]
	movs	r7, #1
.Ltmp248:
	.loc	6 875 21                @ ../Drivers/STM32F1xx_HAL_Driver/Src/stm32f1xx_hal_rtc.c:875:21
	cmp	r4, #0
	it	ne
	cmpne	r5, #0
	bne	.LBB19_2
.Ltmp249:
.LBB19_1:
	@DEBUG_VALUE: HAL_RTC_SetAlarm:hrtc <- $r4
	@DEBUG_VALUE: HAL_RTC_SetAlarm:sAlarm <- $r5
	.loc	6 947 1                 @ ../Drivers/STM32F1xx_HAL_Driver/Src/stm32f1xx_hal_rtc.c:947:1
	mov	r0, r7
	add	sp, #8
	pop.w	{r4, r5, r6, r7, r8, pc}
.Ltmp250:
.LBB19_2:
	@DEBUG_VALUE: HAL_RTC_SetAlarm:hrtc <- $r4
	@DEBUG_VALUE: HAL_RTC_SetAlarm:sAlarm <- $r5
	@DEBUG_VALUE: HAL_RTC_SetAlarm:Format <- $r6
	.loc	6 885 3                 @ ../Drivers/STM32F1xx_HAL_Driver/Src/stm32f1xx_hal_rtc.c:885:3
	ldr	r0, [r4, #16]
	movs	r7, #2
.Ltmp251:
	.loc	6 885 3 is_stmt 0       @ ../Drivers/STM32F1xx_HAL_Driver/Src/stm32f1xx_hal_rtc.c:885:3
	cmp	r0, #1
	beq	.LBB19_1
.Ltmp252:
@ %bb.3:
	@DEBUG_VALUE: HAL_RTC_SetAlarm:hrtc <- $r4
	@DEBUG_VALUE: HAL_RTC_SetAlarm:sAlarm <- $r5
	@DEBUG_VALUE: HAL_RTC_SetAlarm:Format <- $r6
	.loc	6 887 15 is_stmt 1      @ ../Drivers/STM32F1xx_HAL_Driver/Src/stm32f1xx_hal_rtc.c:887:15
	str	r7, [r4, #20]
	movs	r7, #1
.Ltmp253:
	.loc	6 885 3                 @ ../Drivers/STM32F1xx_HAL_Driver/Src/stm32f1xx_hal_rtc.c:885:3
	str	r7, [r4, #16]
	add	r1, sp, #4
.Ltmp254:
	@DEBUG_VALUE: HAL_RTC_SetAlarm:stime <- [DW_OP_plus_uconst 4] [$sp+0]
	.loc	6 890 7                 @ ../Drivers/STM32F1xx_HAL_Driver/Src/stm32f1xx_hal_rtc.c:890:7
	mov	r0, r4
	movs	r2, #0
	bl	HAL_RTC_GetTime
.Ltmp255:
	.loc	6 890 7 is_stmt 0       @ ../Drivers/STM32F1xx_HAL_Driver/Src/stm32f1xx_hal_rtc.c:890:7
	cmp	r0, #0
	bne	.LBB19_1
.Ltmp256:
@ %bb.4:
	@DEBUG_VALUE: HAL_RTC_SetAlarm:stime <- [DW_OP_plus_uconst 4] [$sp+0]
	@DEBUG_VALUE: HAL_RTC_SetAlarm:hrtc <- $r4
	@DEBUG_VALUE: HAL_RTC_SetAlarm:sAlarm <- $r5
	@DEBUG_VALUE: HAL_RTC_SetAlarm:Format <- $r6
	.loc	6 896 52 is_stmt 1      @ ../Drivers/STM32F1xx_HAL_Driver/Src/stm32f1xx_hal_rtc.c:896:52
	mov.w	r7, #3600
	.loc	6 896 30 is_stmt 0      @ ../Drivers/STM32F1xx_HAL_Driver/Src/stm32f1xx_hal_rtc.c:896:30
	ldrb.w	r0, [sp, #4]
	.loc	6 897 24 is_stmt 1      @ ../Drivers/STM32F1xx_HAL_Driver/Src/stm32f1xx_hal_rtc.c:897:24
	ldrb.w	r1, [sp, #5]
	.loc	6 898 24                @ ../Drivers/STM32F1xx_HAL_Driver/Src/stm32f1xx_hal_rtc.c:898:24
	ldrb.w	r2, [sp, #6]
	.loc	6 896 52                @ ../Drivers/STM32F1xx_HAL_Driver/Src/stm32f1xx_hal_rtc.c:896:52
	muls	r0, r7, r0
	.loc	6 897 48                @ ../Drivers/STM32F1xx_HAL_Driver/Src/stm32f1xx_hal_rtc.c:897:48
	rsb	r1, r1, r1, lsl #4
	.loc	6 896 61                @ ../Drivers/STM32F1xx_HAL_Driver/Src/stm32f1xx_hal_rtc.c:896:61
	add.w	r0, r0, r1, lsl #2
	.loc	6 897 55                @ ../Drivers/STM32F1xx_HAL_Driver/Src/stm32f1xx_hal_rtc.c:897:55
	add.w	r8, r0, r2
.Ltmp257:
	@DEBUG_VALUE: HAL_RTC_SetAlarm:counter_time <- $r8
	.loc	6 0 55 is_stmt 0        @ ../Drivers/STM32F1xx_HAL_Driver/Src/stm32f1xx_hal_rtc.c:0:55
	ldrb	r0, [r5]
	.loc	6 900 6 is_stmt 1       @ ../Drivers/STM32F1xx_HAL_Driver/Src/stm32f1xx_hal_rtc.c:900:6
	cbz	r6, .LBB19_6
.Ltmp258:
@ %bb.5:
	@DEBUG_VALUE: HAL_RTC_SetAlarm:counter_time <- $r8
	@DEBUG_VALUE: HAL_RTC_SetAlarm:stime <- [DW_OP_plus_uconst 4] [$sp+0]
	@DEBUG_VALUE: HAL_RTC_SetAlarm:hrtc <- $r4
	@DEBUG_VALUE: HAL_RTC_SetAlarm:sAlarm <- $r5
	@DEBUG_VALUE: HAL_RTC_SetAlarm:Format <- $r6
	.loc	6 916 34                @ ../Drivers/STM32F1xx_HAL_Driver/Src/stm32f1xx_hal_rtc.c:916:34
	bl	RTC_Bcd2ToByte
	.loc	6 916 75 is_stmt 0      @ ../Drivers/STM32F1xx_HAL_Driver/Src/stm32f1xx_hal_rtc.c:916:75
	mul	r6, r0, r7
.Ltmp259:
	.loc	6 917 27 is_stmt 1      @ ../Drivers/STM32F1xx_HAL_Driver/Src/stm32f1xx_hal_rtc.c:917:27
	ldrb	r0, [r5, #1]
	bl	RTC_Bcd2ToByte
	.loc	6 917 70 is_stmt 0      @ ../Drivers/STM32F1xx_HAL_Driver/Src/stm32f1xx_hal_rtc.c:917:70
	rsb	r0, r0, r0, lsl #4
	.loc	6 916 84 is_stmt 1      @ ../Drivers/STM32F1xx_HAL_Driver/Src/stm32f1xx_hal_rtc.c:916:84
	add.w	r6, r6, r0, lsl #2
	.loc	6 918 26                @ ../Drivers/STM32F1xx_HAL_Driver/Src/stm32f1xx_hal_rtc.c:918:26
	ldrb	r0, [r5, #2]
	bl	RTC_Bcd2ToByte
	b	.LBB19_7
.Ltmp260:
.LBB19_6:
	@DEBUG_VALUE: HAL_RTC_SetAlarm:counter_time <- $r8
	@DEBUG_VALUE: HAL_RTC_SetAlarm:stime <- [DW_OP_plus_uconst 4] [$sp+0]
	@DEBUG_VALUE: HAL_RTC_SetAlarm:hrtc <- $r4
	@DEBUG_VALUE: HAL_RTC_SetAlarm:sAlarm <- $r5
	@DEBUG_VALUE: HAL_RTC_SetAlarm:Format <- $r6
	.loc	6 906 67                @ ../Drivers/STM32F1xx_HAL_Driver/Src/stm32f1xx_hal_rtc.c:906:67
	mul	r1, r0, r7
	.loc	6 907 26                @ ../Drivers/STM32F1xx_HAL_Driver/Src/stm32f1xx_hal_rtc.c:907:26
	ldrb	r2, [r5, #1]
	.loc	6 908 54                @ ../Drivers/STM32F1xx_HAL_Driver/Src/stm32f1xx_hal_rtc.c:908:54
	ldrb	r0, [r5, #2]
	.loc	6 907 62                @ ../Drivers/STM32F1xx_HAL_Driver/Src/stm32f1xx_hal_rtc.c:907:62
	rsb	r2, r2, r2, lsl #4
	.loc	6 906 76                @ ../Drivers/STM32F1xx_HAL_Driver/Src/stm32f1xx_hal_rtc.c:906:76
	add.w	r6, r1, r2, lsl #2
.Ltmp261:
.LBB19_7:
	@DEBUG_VALUE: HAL_RTC_SetAlarm:counter_time <- $r8
	@DEBUG_VALUE: HAL_RTC_SetAlarm:stime <- [DW_OP_plus_uconst 4] [$sp+0]
	@DEBUG_VALUE: HAL_RTC_SetAlarm:hrtc <- $r4
	@DEBUG_VALUE: HAL_RTC_SetAlarm:sAlarm <- $r5
	.loc	6 0 76 is_stmt 0        @ ../Drivers/STM32F1xx_HAL_Driver/Src/stm32f1xx_hal_rtc.c:0:76
	adds	r1, r6, r0
.Ltmp262:
	@DEBUG_VALUE: HAL_RTC_SetAlarm:counter_alarm <- $r1
	.loc	6 925 19 is_stmt 1      @ ../Drivers/STM32F1xx_HAL_Driver/Src/stm32f1xx_hal_rtc.c:925:19
	add.w	r0, r1, #65536
.Ltmp263:
	.loc	6 922 7                 @ ../Drivers/STM32F1xx_HAL_Driver/Src/stm32f1xx_hal_rtc.c:922:7
	cmp	r1, r8
	it	lo
	addlo.w	r1, r0, #20864
.Ltmp264:
	@DEBUG_VALUE: HAL_RTC_SetAlarm:counter_alarm <- $r1
	.loc	6 929 7                 @ ../Drivers/STM32F1xx_HAL_Driver/Src/stm32f1xx_hal_rtc.c:929:7
	mov	r0, r4
	bl	RTC_WriteAlarmCounter
.Ltmp265:
	.loc	6 929 7 is_stmt 0       @ ../Drivers/STM32F1xx_HAL_Driver/Src/stm32f1xx_hal_rtc.c:929:7
	cbz	r0, .LBB19_9
.Ltmp266:
@ %bb.8:
	@DEBUG_VALUE: HAL_RTC_SetAlarm:counter_time <- $r8
	@DEBUG_VALUE: HAL_RTC_SetAlarm:stime <- [DW_OP_plus_uconst 4] [$sp+0]
	@DEBUG_VALUE: HAL_RTC_SetAlarm:hrtc <- $r4
	@DEBUG_VALUE: HAL_RTC_SetAlarm:sAlarm <- $r5
	.loc	6 0 7                   @ ../Drivers/STM32F1xx_HAL_Driver/Src/stm32f1xx_hal_rtc.c:0:7
	movs	r0, #0
.Ltmp267:
	.loc	6 935 5 is_stmt 1       @ ../Drivers/STM32F1xx_HAL_Driver/Src/stm32f1xx_hal_rtc.c:935:5
	str	r0, [r4, #16]
.Ltmp268:
	.loc	6 932 17                @ ../Drivers/STM32F1xx_HAL_Driver/Src/stm32f1xx_hal_rtc.c:932:17
	movs	r0, #4
	str	r0, [r4, #20]
	movs	r7, #1
	.loc	6 937 5                 @ ../Drivers/STM32F1xx_HAL_Driver/Src/stm32f1xx_hal_rtc.c:937:5
	b	.LBB19_1
.Ltmp269:
.LBB19_9:
	@DEBUG_VALUE: HAL_RTC_SetAlarm:counter_time <- $r8
	@DEBUG_VALUE: HAL_RTC_SetAlarm:stime <- [DW_OP_plus_uconst 4] [$sp+0]
	@DEBUG_VALUE: HAL_RTC_SetAlarm:hrtc <- $r4
	@DEBUG_VALUE: HAL_RTC_SetAlarm:sAlarm <- $r5
	.loc	6 0 5 is_stmt 0         @ ../Drivers/STM32F1xx_HAL_Driver/Src/stm32f1xx_hal_rtc.c:0:5
	movs	r7, #0
.Ltmp270:
	.loc	6 943 4 is_stmt 1       @ ../Drivers/STM32F1xx_HAL_Driver/Src/stm32f1xx_hal_rtc.c:943:4
	str	r7, [r4, #16]
.Ltmp271:
	.loc	6 941 17                @ ../Drivers/STM32F1xx_HAL_Driver/Src/stm32f1xx_hal_rtc.c:941:17
	movs	r0, #1
	str	r0, [r4, #20]
	b	.LBB19_1
.Ltmp272:
.Lfunc_end19:
	.size	HAL_RTC_SetAlarm, .Lfunc_end19-HAL_RTC_SetAlarm
	.cfi_endproc
	.cantunwind
	.fnend
                                        @ -- End function
	.section	.text.HAL_RTC_SetAlarm_IT,"ax",%progbits
	.hidden	HAL_RTC_SetAlarm_IT     @ -- Begin function HAL_RTC_SetAlarm_IT
	.globl	HAL_RTC_SetAlarm_IT
	.p2align	2
	.type	HAL_RTC_SetAlarm_IT,%function
	.code	16                      @ @HAL_RTC_SetAlarm_IT
	.thumb_func
HAL_RTC_SetAlarm_IT:
.Lfunc_begin20:
	.loc	6 962 0                 @ ../Drivers/STM32F1xx_HAL_Driver/Src/stm32f1xx_hal_rtc.c:962:0
	.fnstart
	.cfi_startproc
@ %bb.0:
	.save	{r4, r5, r6, r7, r8, lr}
	push.w	{r4, r5, r6, r7, r8, lr}
	.cfi_def_cfa_offset 24
	.cfi_offset lr, -4
	.cfi_offset r8, -8
	.cfi_offset r7, -12
	.cfi_offset r6, -16
	.cfi_offset r5, -20
	.cfi_offset r4, -24
	.pad	#8
	sub	sp, #8
	.cfi_def_cfa_offset 32
	@DEBUG_VALUE: HAL_RTC_SetAlarm_IT:hrtc <- $r0
	@DEBUG_VALUE: HAL_RTC_SetAlarm_IT:sAlarm <- $r1
	@DEBUG_VALUE: HAL_RTC_SetAlarm_IT:Format <- $r2
	mov	r6, r2
	mov	r5, r1
	mov	r4, r0
	movs	r0, #0
.Ltmp273:
	@DEBUG_VALUE: HAL_RTC_SetAlarm_IT:counter_alarm <- 0
	@DEBUG_VALUE: HAL_RTC_SetAlarm_IT:Format <- $r6
	@DEBUG_VALUE: HAL_RTC_SetAlarm_IT:sAlarm <- $r5
	@DEBUG_VALUE: HAL_RTC_SetAlarm_IT:hrtc <- $r4
	.loc	6 964 19 prologue_end   @ ../Drivers/STM32F1xx_HAL_Driver/Src/stm32f1xx_hal_rtc.c:964:19
	strb.w	r0, [sp, #6]
	strh.w	r0, [sp, #4]
	movs	r7, #1
.Ltmp274:
	.loc	6 967 21                @ ../Drivers/STM32F1xx_HAL_Driver/Src/stm32f1xx_hal_rtc.c:967:21
	cmp	r4, #0
	it	ne
	cmpne	r5, #0
	bne	.LBB20_2
.Ltmp275:
.LBB20_1:
	@DEBUG_VALUE: HAL_RTC_SetAlarm_IT:hrtc <- $r4
	@DEBUG_VALUE: HAL_RTC_SetAlarm_IT:sAlarm <- $r5
	.loc	6 1050 1                @ ../Drivers/STM32F1xx_HAL_Driver/Src/stm32f1xx_hal_rtc.c:1050:1
	mov	r0, r7
	add	sp, #8
	pop.w	{r4, r5, r6, r7, r8, pc}
.Ltmp276:
.LBB20_2:
	@DEBUG_VALUE: HAL_RTC_SetAlarm_IT:hrtc <- $r4
	@DEBUG_VALUE: HAL_RTC_SetAlarm_IT:sAlarm <- $r5
	@DEBUG_VALUE: HAL_RTC_SetAlarm_IT:Format <- $r6
	.loc	6 977 3                 @ ../Drivers/STM32F1xx_HAL_Driver/Src/stm32f1xx_hal_rtc.c:977:3
	ldr	r0, [r4, #16]
	movs	r7, #2
.Ltmp277:
	.loc	6 977 3 is_stmt 0       @ ../Drivers/STM32F1xx_HAL_Driver/Src/stm32f1xx_hal_rtc.c:977:3
	cmp	r0, #1
	beq	.LBB20_1
.Ltmp278:
@ %bb.3:
	@DEBUG_VALUE: HAL_RTC_SetAlarm_IT:hrtc <- $r4
	@DEBUG_VALUE: HAL_RTC_SetAlarm_IT:sAlarm <- $r5
	@DEBUG_VALUE: HAL_RTC_SetAlarm_IT:Format <- $r6
	.loc	6 979 15 is_stmt 1      @ ../Drivers/STM32F1xx_HAL_Driver/Src/stm32f1xx_hal_rtc.c:979:15
	str	r7, [r4, #20]
	movs	r7, #1
.Ltmp279:
	.loc	6 977 3                 @ ../Drivers/STM32F1xx_HAL_Driver/Src/stm32f1xx_hal_rtc.c:977:3
	str	r7, [r4, #16]
	add	r1, sp, #4
.Ltmp280:
	@DEBUG_VALUE: HAL_RTC_SetAlarm_IT:stime <- [DW_OP_plus_uconst 4] [$sp+0]
	.loc	6 982 7                 @ ../Drivers/STM32F1xx_HAL_Driver/Src/stm32f1xx_hal_rtc.c:982:7
	mov	r0, r4
	movs	r2, #0
	bl	HAL_RTC_GetTime
.Ltmp281:
	.loc	6 982 7 is_stmt 0       @ ../Drivers/STM32F1xx_HAL_Driver/Src/stm32f1xx_hal_rtc.c:982:7
	cmp	r0, #0
	bne	.LBB20_1
.Ltmp282:
@ %bb.4:
	@DEBUG_VALUE: HAL_RTC_SetAlarm_IT:stime <- [DW_OP_plus_uconst 4] [$sp+0]
	@DEBUG_VALUE: HAL_RTC_SetAlarm_IT:hrtc <- $r4
	@DEBUG_VALUE: HAL_RTC_SetAlarm_IT:sAlarm <- $r5
	@DEBUG_VALUE: HAL_RTC_SetAlarm_IT:Format <- $r6
	.loc	6 988 52 is_stmt 1      @ ../Drivers/STM32F1xx_HAL_Driver/Src/stm32f1xx_hal_rtc.c:988:52
	mov.w	r7, #3600
	.loc	6 988 30 is_stmt 0      @ ../Drivers/STM32F1xx_HAL_Driver/Src/stm32f1xx_hal_rtc.c:988:30
	ldrb.w	r0, [sp, #4]
	.loc	6 989 24 is_stmt 1      @ ../Drivers/STM32F1xx_HAL_Driver/Src/stm32f1xx_hal_rtc.c:989:24
	ldrb.w	r1, [sp, #5]
	.loc	6 990 24                @ ../Drivers/STM32F1xx_HAL_Driver/Src/stm32f1xx_hal_rtc.c:990:24
	ldrb.w	r2, [sp, #6]
	.loc	6 988 52                @ ../Drivers/STM32F1xx_HAL_Driver/Src/stm32f1xx_hal_rtc.c:988:52
	muls	r0, r7, r0
	.loc	6 989 48                @ ../Drivers/STM32F1xx_HAL_Driver/Src/stm32f1xx_hal_rtc.c:989:48
	rsb	r1, r1, r1, lsl #4
	.loc	6 988 61                @ ../Drivers/STM32F1xx_HAL_Driver/Src/stm32f1xx_hal_rtc.c:988:61
	add.w	r0, r0, r1, lsl #2
	.loc	6 989 55                @ ../Drivers/STM32F1xx_HAL_Driver/Src/stm32f1xx_hal_rtc.c:989:55
	add.w	r8, r0, r2
.Ltmp283:
	@DEBUG_VALUE: HAL_RTC_SetAlarm_IT:counter_time <- $r8
	.loc	6 0 55 is_stmt 0        @ ../Drivers/STM32F1xx_HAL_Driver/Src/stm32f1xx_hal_rtc.c:0:55
	ldrb	r0, [r5]
	.loc	6 992 6 is_stmt 1       @ ../Drivers/STM32F1xx_HAL_Driver/Src/stm32f1xx_hal_rtc.c:992:6
	cbz	r6, .LBB20_6
.Ltmp284:
@ %bb.5:
	@DEBUG_VALUE: HAL_RTC_SetAlarm_IT:counter_time <- $r8
	@DEBUG_VALUE: HAL_RTC_SetAlarm_IT:stime <- [DW_OP_plus_uconst 4] [$sp+0]
	@DEBUG_VALUE: HAL_RTC_SetAlarm_IT:hrtc <- $r4
	@DEBUG_VALUE: HAL_RTC_SetAlarm_IT:sAlarm <- $r5
	@DEBUG_VALUE: HAL_RTC_SetAlarm_IT:Format <- $r6
	.loc	6 1008 34               @ ../Drivers/STM32F1xx_HAL_Driver/Src/stm32f1xx_hal_rtc.c:1008:34
	bl	RTC_Bcd2ToByte
	.loc	6 1008 75 is_stmt 0     @ ../Drivers/STM32F1xx_HAL_Driver/Src/stm32f1xx_hal_rtc.c:1008:75
	mul	r6, r0, r7
.Ltmp285:
	.loc	6 1009 34 is_stmt 1     @ ../Drivers/STM32F1xx_HAL_Driver/Src/stm32f1xx_hal_rtc.c:1009:34
	ldrb	r0, [r5, #1]
	bl	RTC_Bcd2ToByte
	.loc	6 1009 77 is_stmt 0     @ ../Drivers/STM32F1xx_HAL_Driver/Src/stm32f1xx_hal_rtc.c:1009:77
	rsb	r0, r0, r0, lsl #4
	.loc	6 1008 84 is_stmt 1     @ ../Drivers/STM32F1xx_HAL_Driver/Src/stm32f1xx_hal_rtc.c:1008:84
	add.w	r6, r6, r0, lsl #2
	.loc	6 1010 33               @ ../Drivers/STM32F1xx_HAL_Driver/Src/stm32f1xx_hal_rtc.c:1010:33
	ldrb	r0, [r5, #2]
	bl	RTC_Bcd2ToByte
	b	.LBB20_7
.Ltmp286:
.LBB20_6:
	@DEBUG_VALUE: HAL_RTC_SetAlarm_IT:counter_time <- $r8
	@DEBUG_VALUE: HAL_RTC_SetAlarm_IT:stime <- [DW_OP_plus_uconst 4] [$sp+0]
	@DEBUG_VALUE: HAL_RTC_SetAlarm_IT:hrtc <- $r4
	@DEBUG_VALUE: HAL_RTC_SetAlarm_IT:sAlarm <- $r5
	@DEBUG_VALUE: HAL_RTC_SetAlarm_IT:Format <- $r6
	.loc	6 998 67                @ ../Drivers/STM32F1xx_HAL_Driver/Src/stm32f1xx_hal_rtc.c:998:67
	mul	r1, r0, r7
	.loc	6 999 8                 @ ../Drivers/STM32F1xx_HAL_Driver/Src/stm32f1xx_hal_rtc.c:999:8
	ldrb	r2, [r5, #1]
	.loc	6 1000 38               @ ../Drivers/STM32F1xx_HAL_Driver/Src/stm32f1xx_hal_rtc.c:1000:38
	ldrb	r0, [r5, #2]
	.loc	6 999 44                @ ../Drivers/STM32F1xx_HAL_Driver/Src/stm32f1xx_hal_rtc.c:999:44
	rsb	r2, r2, r2, lsl #4
	.loc	6 998 76                @ ../Drivers/STM32F1xx_HAL_Driver/Src/stm32f1xx_hal_rtc.c:998:76
	add.w	r6, r1, r2, lsl #2
.Ltmp287:
.LBB20_7:
	@DEBUG_VALUE: HAL_RTC_SetAlarm_IT:counter_time <- $r8
	@DEBUG_VALUE: HAL_RTC_SetAlarm_IT:stime <- [DW_OP_plus_uconst 4] [$sp+0]
	@DEBUG_VALUE: HAL_RTC_SetAlarm_IT:hrtc <- $r4
	@DEBUG_VALUE: HAL_RTC_SetAlarm_IT:sAlarm <- $r5
	.loc	6 0 76 is_stmt 0        @ ../Drivers/STM32F1xx_HAL_Driver/Src/stm32f1xx_hal_rtc.c:0:76
	adds	r1, r6, r0
.Ltmp288:
	@DEBUG_VALUE: HAL_RTC_SetAlarm_IT:counter_alarm <- $r1
	.loc	6 1017 19 is_stmt 1     @ ../Drivers/STM32F1xx_HAL_Driver/Src/stm32f1xx_hal_rtc.c:1017:19
	add.w	r0, r1, #65536
.Ltmp289:
	.loc	6 1014 7                @ ../Drivers/STM32F1xx_HAL_Driver/Src/stm32f1xx_hal_rtc.c:1014:7
	cmp	r1, r8
	it	lo
	addlo.w	r1, r0, #20864
.Ltmp290:
	@DEBUG_VALUE: HAL_RTC_SetAlarm_IT:counter_alarm <- $r1
	.loc	6 1021 7                @ ../Drivers/STM32F1xx_HAL_Driver/Src/stm32f1xx_hal_rtc.c:1021:7
	mov	r0, r4
	bl	RTC_WriteAlarmCounter
.Ltmp291:
	.loc	6 1021 7 is_stmt 0      @ ../Drivers/STM32F1xx_HAL_Driver/Src/stm32f1xx_hal_rtc.c:1021:7
	cbz	r0, .LBB20_9
.Ltmp292:
@ %bb.8:
	@DEBUG_VALUE: HAL_RTC_SetAlarm_IT:counter_time <- $r8
	@DEBUG_VALUE: HAL_RTC_SetAlarm_IT:stime <- [DW_OP_plus_uconst 4] [$sp+0]
	@DEBUG_VALUE: HAL_RTC_SetAlarm_IT:hrtc <- $r4
	@DEBUG_VALUE: HAL_RTC_SetAlarm_IT:sAlarm <- $r5
	.loc	6 0 7                   @ ../Drivers/STM32F1xx_HAL_Driver/Src/stm32f1xx_hal_rtc.c:0:7
	movs	r0, #0
.Ltmp293:
	.loc	6 1027 5 is_stmt 1      @ ../Drivers/STM32F1xx_HAL_Driver/Src/stm32f1xx_hal_rtc.c:1027:5
	str	r0, [r4, #16]
.Ltmp294:
	.loc	6 1024 17               @ ../Drivers/STM32F1xx_HAL_Driver/Src/stm32f1xx_hal_rtc.c:1024:17
	movs	r0, #4
	str	r0, [r4, #20]
	movs	r7, #1
	.loc	6 1029 5                @ ../Drivers/STM32F1xx_HAL_Driver/Src/stm32f1xx_hal_rtc.c:1029:5
	b	.LBB20_1
.Ltmp295:
.LBB20_9:
	@DEBUG_VALUE: HAL_RTC_SetAlarm_IT:counter_time <- $r8
	@DEBUG_VALUE: HAL_RTC_SetAlarm_IT:stime <- [DW_OP_plus_uconst 4] [$sp+0]
	@DEBUG_VALUE: HAL_RTC_SetAlarm_IT:hrtc <- $r4
	@DEBUG_VALUE: HAL_RTC_SetAlarm_IT:sAlarm <- $r5
	.loc	6 1034 5                @ ../Drivers/STM32F1xx_HAL_Driver/Src/stm32f1xx_hal_rtc.c:1034:5
	ldr	r0, [r4]
	mvn	r1, #2
	str	r1, [r0, #4]
	.loc	6 1037 5                @ ../Drivers/STM32F1xx_HAL_Driver/Src/stm32f1xx_hal_rtc.c:1037:5
	ldr	r1, [r0]
	orr	r1, r1, #2
	str	r1, [r0]
	movw	r0, #1024
	movt	r0, #16385
	.loc	6 1040 5                @ ../Drivers/STM32F1xx_HAL_Driver/Src/stm32f1xx_hal_rtc.c:1040:5
	ldr	r1, [r0]
	orr	r1, r1, #131072
	str	r1, [r0]
	.loc	6 1042 5                @ ../Drivers/STM32F1xx_HAL_Driver/Src/stm32f1xx_hal_rtc.c:1042:5
	ldr	r1, [r0, #8]
	orr	r1, r1, #131072
	str	r1, [r0, #8]
	movs	r7, #0
.Ltmp296:
	.loc	6 1046 4                @ ../Drivers/STM32F1xx_HAL_Driver/Src/stm32f1xx_hal_rtc.c:1046:4
	str	r7, [r4, #16]
.Ltmp297:
	.loc	6 1044 17               @ ../Drivers/STM32F1xx_HAL_Driver/Src/stm32f1xx_hal_rtc.c:1044:17
	movs	r0, #1
	str	r0, [r4, #20]
	b	.LBB20_1
.Ltmp298:
.Lfunc_end20:
	.size	HAL_RTC_SetAlarm_IT, .Lfunc_end20-HAL_RTC_SetAlarm_IT
	.cfi_endproc
	.cantunwind
	.fnend
                                        @ -- End function
	.section	.text.HAL_RTC_GetAlarm,"ax",%progbits
	.hidden	HAL_RTC_GetAlarm        @ -- Begin function HAL_RTC_GetAlarm
	.globl	HAL_RTC_GetAlarm
	.p2align	2
	.type	HAL_RTC_GetAlarm,%function
	.code	16                      @ @HAL_RTC_GetAlarm
	.thumb_func
HAL_RTC_GetAlarm:
.Lfunc_begin21:
	.loc	6 1067 0                @ ../Drivers/STM32F1xx_HAL_Driver/Src/stm32f1xx_hal_rtc.c:1067:0
	.fnstart
	.cfi_startproc
@ %bb.0:
	.save	{r4, r5, r6, r7, lr}
	push	{r4, r5, r6, r7, lr}
	.cfi_def_cfa_offset 20
	.cfi_offset lr, -4
	.cfi_offset r7, -8
	.cfi_offset r6, -12
	.cfi_offset r5, -16
	.cfi_offset r4, -20
	.pad	#4
	sub	sp, #4
	.cfi_def_cfa_offset 24
	@DEBUG_VALUE: HAL_RTC_GetAlarm:hrtc <- $r0
	@DEBUG_VALUE: HAL_RTC_GetAlarm:sAlarm <- $r1
	@DEBUG_VALUE: HAL_RTC_GetAlarm:Alarm <- $r2
	@DEBUG_VALUE: HAL_RTC_GetAlarm:Format <- $r3
	mov	r5, r3
	mov	r4, r1
	mov	r1, r0
.Ltmp299:
	movs	r0, #1
.Ltmp300:
	@DEBUG_VALUE: HAL_RTC_GetAlarm:counter_alarm <- 0
	@DEBUG_VALUE: HAL_RTC_GetAlarm:Format <- $r5
	@DEBUG_VALUE: HAL_RTC_GetAlarm:sAlarm <- $r4
	@DEBUG_VALUE: HAL_RTC_GetAlarm:hrtc <- $r1
	.loc	6 1074 21 prologue_end  @ ../Drivers/STM32F1xx_HAL_Driver/Src/stm32f1xx_hal_rtc.c:1074:21
	cmp	r1, #0
	it	ne
	cmpne	r4, #0
	bne	.LBB21_2
.Ltmp301:
@ %bb.1:
	@DEBUG_VALUE: HAL_RTC_GetAlarm:hrtc <- $r1
	@DEBUG_VALUE: HAL_RTC_GetAlarm:sAlarm <- $r4
	@DEBUG_VALUE: HAL_RTC_GetAlarm:Format <- $r5
	@DEBUG_VALUE: HAL_RTC_GetAlarm:Alarm <- $r2
	.loc	6 1100 1                @ ../Drivers/STM32F1xx_HAL_Driver/Src/stm32f1xx_hal_rtc.c:1100:1
	add	sp, #4
	pop	{r4, r5, r6, r7, pc}
.Ltmp302:
.LBB21_2:
	@DEBUG_VALUE: HAL_RTC_GetAlarm:hrtc <- $r1
	@DEBUG_VALUE: HAL_RTC_GetAlarm:sAlarm <- $r4
	@DEBUG_VALUE: HAL_RTC_GetAlarm:Format <- $r5
	@DEBUG_VALUE: HAL_RTC_GetAlarm:Alarm <- $r2
	.loc	6 1084 19               @ ../Drivers/STM32F1xx_HAL_Driver/Src/stm32f1xx_hal_rtc.c:1084:19
	mov	r0, r1
	bl	RTC_ReadAlarmCounter
.Ltmp303:
	@DEBUG_VALUE: HAL_RTC_GetAlarm:counter_alarm <- $r0
	.loc	6 1088 57               @ ../Drivers/STM32F1xx_HAL_Driver/Src/stm32f1xx_hal_rtc.c:1088:57
	movw	r1, #46021
	movt	r1, #37282
	umull	r1, r2, r0, r1
	lsrs	r1, r2, #11
	mov.w	r2, #3600
	mls	r2, r1, r2, r0
	.loc	6 1089 66               @ ../Drivers/STM32F1xx_HAL_Driver/Src/stm32f1xx_hal_rtc.c:1089:66
	movw	r0, #34953
.Ltmp304:
	movt	r0, #34952
	umull	r0, r3, r2, r0
	lsrs	r6, r3, #5
	.loc	6 1089 29 is_stmt 0     @ ../Drivers/STM32F1xx_HAL_Driver/Src/stm32f1xx_hal_rtc.c:1089:29
	strb	r6, [r4, #1]
	.loc	6 1088 66 is_stmt 1     @ ../Drivers/STM32F1xx_HAL_Driver/Src/stm32f1xx_hal_rtc.c:1088:66
	movw	r0, #43691
	movt	r0, #43690
	umull	r0, r7, r1, r0
	lsrs	r0, r7, #4
	add.w	r0, r0, r0, lsl #1
	sub.w	r0, r1, r0, lsl #3
	.loc	6 1088 29 is_stmt 0     @ ../Drivers/STM32F1xx_HAL_Driver/Src/stm32f1xx_hal_rtc.c:1088:29
	strb	r0, [r4]
	lsls	r1, r6, #4
	sub.w	r1, r1, r3, lsr #5
	sub.w	r7, r2, r1, lsl #2
	.loc	6 1090 29 is_stmt 1     @ ../Drivers/STM32F1xx_HAL_Driver/Src/stm32f1xx_hal_rtc.c:1090:29
	strb	r7, [r4, #2]
	.loc	6 1092 6                @ ../Drivers/STM32F1xx_HAL_Driver/Src/stm32f1xx_hal_rtc.c:1092:6
	cbz	r5, .LBB21_4
.Ltmp305:
@ %bb.3:
	@DEBUG_VALUE: HAL_RTC_GetAlarm:sAlarm <- $r4
	@DEBUG_VALUE: HAL_RTC_GetAlarm:Format <- $r5
	.loc	6 1094 33               @ ../Drivers/STM32F1xx_HAL_Driver/Src/stm32f1xx_hal_rtc.c:1094:33
	uxtb	r0, r0
	bl	RTC_ByteToBcd2
	.loc	6 1094 31 is_stmt 0     @ ../Drivers/STM32F1xx_HAL_Driver/Src/stm32f1xx_hal_rtc.c:1094:31
	strb	r0, [r4]
	.loc	6 1095 33 is_stmt 1     @ ../Drivers/STM32F1xx_HAL_Driver/Src/stm32f1xx_hal_rtc.c:1095:33
	uxtb	r0, r6
	bl	RTC_ByteToBcd2
	.loc	6 1095 31 is_stmt 0     @ ../Drivers/STM32F1xx_HAL_Driver/Src/stm32f1xx_hal_rtc.c:1095:31
	strb	r0, [r4, #1]
	.loc	6 1096 33 is_stmt 1     @ ../Drivers/STM32F1xx_HAL_Driver/Src/stm32f1xx_hal_rtc.c:1096:33
	uxtb	r0, r7
	bl	RTC_ByteToBcd2
	.loc	6 1096 31 is_stmt 0     @ ../Drivers/STM32F1xx_HAL_Driver/Src/stm32f1xx_hal_rtc.c:1096:31
	strb	r0, [r4, #2]
	movs	r0, #0
.Ltmp306:
	.loc	6 1100 1 is_stmt 1      @ ../Drivers/STM32F1xx_HAL_Driver/Src/stm32f1xx_hal_rtc.c:1100:1
	add	sp, #4
	pop	{r4, r5, r6, r7, pc}
.Ltmp307:
.LBB21_4:
	@DEBUG_VALUE: HAL_RTC_GetAlarm:sAlarm <- $r4
	@DEBUG_VALUE: HAL_RTC_GetAlarm:Format <- $r5
	.loc	6 0 1 is_stmt 0         @ ../Drivers/STM32F1xx_HAL_Driver/Src/stm32f1xx_hal_rtc.c:0:1
	movs	r0, #0
	.loc	6 1100 1                @ ../Drivers/STM32F1xx_HAL_Driver/Src/stm32f1xx_hal_rtc.c:1100:1
	add	sp, #4
	pop	{r4, r5, r6, r7, pc}
.Ltmp308:
.Lfunc_end21:
	.size	HAL_RTC_GetAlarm, .Lfunc_end21-HAL_RTC_GetAlarm
	.cfi_endproc
	.cantunwind
	.fnend
                                        @ -- End function
	.section	.text.HAL_RTC_DeactivateAlarm,"ax",%progbits
	.hidden	HAL_RTC_DeactivateAlarm @ -- Begin function HAL_RTC_DeactivateAlarm
	.globl	HAL_RTC_DeactivateAlarm
	.p2align	2
	.type	HAL_RTC_DeactivateAlarm,%function
	.code	16                      @ @HAL_RTC_DeactivateAlarm
	.thumb_func
HAL_RTC_DeactivateAlarm:
.Lfunc_begin22:
	.loc	6 1112 0 is_stmt 1      @ ../Drivers/STM32F1xx_HAL_Driver/Src/stm32f1xx_hal_rtc.c:1112:0
	.fnstart
	.cfi_startproc
@ %bb.0:
	.save	{r4, lr}
	push	{r4, lr}
	.cfi_def_cfa_offset 8
	.cfi_offset lr, -4
	.cfi_offset r4, -8
	@DEBUG_VALUE: HAL_RTC_DeactivateAlarm:hrtc <- $r0
	@DEBUG_VALUE: HAL_RTC_DeactivateAlarm:Alarm <- $r1
	mov	r4, r0
.Ltmp309:
	@DEBUG_VALUE: HAL_RTC_DeactivateAlarm:hrtc <- $r4
	.loc	6 1120 6 prologue_end   @ ../Drivers/STM32F1xx_HAL_Driver/Src/stm32f1xx_hal_rtc.c:1120:6
	cmp	r0, #0
	itt	eq
	moveq	r0, #1
	.loc	6 1173 1                @ ../Drivers/STM32F1xx_HAL_Driver/Src/stm32f1xx_hal_rtc.c:1173:1
	popeq	{r4, pc}
.Ltmp310:
	.loc	6 1126 3                @ ../Drivers/STM32F1xx_HAL_Driver/Src/stm32f1xx_hal_rtc.c:1126:3
	ldr	r1, [r4, #16]
.Ltmp311:
	.loc	6 0 3 is_stmt 0         @ ../Drivers/STM32F1xx_HAL_Driver/Src/stm32f1xx_hal_rtc.c:0:3
	movs	r0, #2
.Ltmp312:
	.loc	6 1126 3                @ ../Drivers/STM32F1xx_HAL_Driver/Src/stm32f1xx_hal_rtc.c:1126:3
	cmp	r1, #1
.Ltmp313:
	.loc	6 1173 1 is_stmt 1      @ ../Drivers/STM32F1xx_HAL_Driver/Src/stm32f1xx_hal_rtc.c:1173:1
	it	eq
	popeq	{r4, pc}
	.loc	6 1128 15               @ ../Drivers/STM32F1xx_HAL_Driver/Src/stm32f1xx_hal_rtc.c:1128:15
	str	r0, [r4, #20]
.Ltmp314:
	.loc	6 1126 3                @ ../Drivers/STM32F1xx_HAL_Driver/Src/stm32f1xx_hal_rtc.c:1126:3
	movs	r0, #1
	str	r0, [r4, #16]
.Ltmp315:
	.loc	6 1131 3                @ ../Drivers/STM32F1xx_HAL_Driver/Src/stm32f1xx_hal_rtc.c:1131:3
	ldr	r0, [r4]
	ldr	r1, [r0]
	bic	r1, r1, #2
	str	r1, [r0]
.Ltmp316:
	.loc	6 1134 6                @ ../Drivers/STM32F1xx_HAL_Driver/Src/stm32f1xx_hal_rtc.c:1134:6
	mov	r0, r4
	bl	RTC_EnterInitMode
.Ltmp317:
	.loc	6 1134 6 is_stmt 0      @ ../Drivers/STM32F1xx_HAL_Driver/Src/stm32f1xx_hal_rtc.c:1134:6
	cbnz	r0, .LBB22_2
@ %bb.1:
.Ltmp318:
	@DEBUG_VALUE: HAL_RTC_DeactivateAlarm:Alarm <- $r1
	.loc	6 1147 5 is_stmt 1      @ ../Drivers/STM32F1xx_HAL_Driver/Src/stm32f1xx_hal_rtc.c:1147:5
	ldr	r0, [r4]
	mvn	r1, #2
.Ltmp319:
	str	r1, [r0, #4]
	.loc	6 1150 5                @ ../Drivers/STM32F1xx_HAL_Driver/Src/stm32f1xx_hal_rtc.c:1150:5
	movw	r1, #65535
	str	r1, [r0, #32]
	.loc	6 1151 5                @ ../Drivers/STM32F1xx_HAL_Driver/Src/stm32f1xx_hal_rtc.c:1151:5
	str	r1, [r0, #36]
	movw	r0, #1024
	movt	r0, #16385
	.loc	6 1154 5                @ ../Drivers/STM32F1xx_HAL_Driver/Src/stm32f1xx_hal_rtc.c:1154:5
	ldr	r1, [r0]
	bic	r1, r1, #131072
	str	r1, [r0]
.Ltmp320:
	.loc	6 1157 8                @ ../Drivers/STM32F1xx_HAL_Driver/Src/stm32f1xx_hal_rtc.c:1157:8
	mov	r0, r4
	bl	RTC_ExitInitMode
.Ltmp321:
	.loc	6 1157 8 is_stmt 0      @ ../Drivers/STM32F1xx_HAL_Driver/Src/stm32f1xx_hal_rtc.c:1157:8
	cbz	r0, .LBB22_3
.Ltmp322:
.LBB22_2:
	.loc	6 0 8                   @ ../Drivers/STM32F1xx_HAL_Driver/Src/stm32f1xx_hal_rtc.c:0:8
	movs	r0, #0
	str	r0, [r4, #16]
	movs	r0, #4
	str	r0, [r4, #20]
	movs	r0, #1
	.loc	6 1173 1 is_stmt 1      @ ../Drivers/STM32F1xx_HAL_Driver/Src/stm32f1xx_hal_rtc.c:1173:1
	pop	{r4, pc}
.LBB22_3:
	.loc	6 0 1 is_stmt 0         @ ../Drivers/STM32F1xx_HAL_Driver/Src/stm32f1xx_hal_rtc.c:0:1
	movs	r0, #0
.Ltmp323:
	.loc	6 1170 3 is_stmt 1      @ ../Drivers/STM32F1xx_HAL_Driver/Src/stm32f1xx_hal_rtc.c:1170:3
	str	r0, [r4, #16]
.Ltmp324:
	.loc	6 1167 15               @ ../Drivers/STM32F1xx_HAL_Driver/Src/stm32f1xx_hal_rtc.c:1167:15
	movs	r1, #1
	str	r1, [r4, #20]
	.loc	6 1173 1                @ ../Drivers/STM32F1xx_HAL_Driver/Src/stm32f1xx_hal_rtc.c:1173:1
	pop	{r4, pc}
.Ltmp325:
.Lfunc_end22:
	.size	HAL_RTC_DeactivateAlarm, .Lfunc_end22-HAL_RTC_DeactivateAlarm
	.cfi_endproc
	.cantunwind
	.fnend
                                        @ -- End function
	.section	.text.HAL_RTC_AlarmIRQHandler,"ax",%progbits
	.hidden	HAL_RTC_AlarmIRQHandler @ -- Begin function HAL_RTC_AlarmIRQHandler
	.globl	HAL_RTC_AlarmIRQHandler
	.p2align	2
	.type	HAL_RTC_AlarmIRQHandler,%function
	.code	16                      @ @HAL_RTC_AlarmIRQHandler
	.thumb_func
HAL_RTC_AlarmIRQHandler:
.Lfunc_begin23:
	.loc	6 1182 0                @ ../Drivers/STM32F1xx_HAL_Driver/Src/stm32f1xx_hal_rtc.c:1182:0
	.fnstart
	.cfi_startproc
@ %bb.0:
	.save	{r4, lr}
	push	{r4, lr}
	.cfi_def_cfa_offset 8
	.cfi_offset lr, -4
	.cfi_offset r4, -8
	@DEBUG_VALUE: HAL_RTC_AlarmIRQHandler:hrtc <- $r0
	mov	r4, r0
.Ltmp326:
	@DEBUG_VALUE: HAL_RTC_AlarmIRQHandler:hrtc <- $r4
	.loc	6 1183 6 prologue_end   @ ../Drivers/STM32F1xx_HAL_Driver/Src/stm32f1xx_hal_rtc.c:1183:6
	ldr	r0, [r0]
	ldr	r1, [r0]
.Ltmp327:
	.loc	6 1183 6 is_stmt 0      @ ../Drivers/STM32F1xx_HAL_Driver/Src/stm32f1xx_hal_rtc.c:1183:6
	tst.w	r1, #2
	beq	.LBB23_3
.Ltmp328:
@ %bb.1:
	@DEBUG_VALUE: HAL_RTC_AlarmIRQHandler:hrtc <- $r4
	.loc	6 1186 8 is_stmt 1      @ ../Drivers/STM32F1xx_HAL_Driver/Src/stm32f1xx_hal_rtc.c:1186:8
	ldr	r0, [r0, #4]
.Ltmp329:
	.loc	6 1186 8 is_stmt 0      @ ../Drivers/STM32F1xx_HAL_Driver/Src/stm32f1xx_hal_rtc.c:1186:8
	tst.w	r0, #2
	beq	.LBB23_3
.Ltmp330:
@ %bb.2:
	@DEBUG_VALUE: HAL_RTC_AlarmIRQHandler:hrtc <- $r4
	.loc	6 1189 7 is_stmt 1      @ ../Drivers/STM32F1xx_HAL_Driver/Src/stm32f1xx_hal_rtc.c:1189:7
	mov	r0, r4
	bl	HAL_RTC_AlarmAEventCallback
	.loc	6 1192 7                @ ../Drivers/STM32F1xx_HAL_Driver/Src/stm32f1xx_hal_rtc.c:1192:7
	ldr	r0, [r4]
	mvn	r1, #2
	str	r1, [r0, #4]
.Ltmp331:
.LBB23_3:
	@DEBUG_VALUE: HAL_RTC_AlarmIRQHandler:hrtc <- $r4
	.loc	6 1197 3                @ ../Drivers/STM32F1xx_HAL_Driver/Src/stm32f1xx_hal_rtc.c:1197:3
	movw	r0, #1044
	movt	r0, #16385
	mov.w	r1, #131072
	str	r1, [r0]
	.loc	6 1200 15               @ ../Drivers/STM32F1xx_HAL_Driver/Src/stm32f1xx_hal_rtc.c:1200:15
	movs	r0, #1
	str	r0, [r4, #20]
	.loc	6 1201 1                @ ../Drivers/STM32F1xx_HAL_Driver/Src/stm32f1xx_hal_rtc.c:1201:1
	pop	{r4, pc}
.Ltmp332:
.Lfunc_end23:
	.size	HAL_RTC_AlarmIRQHandler, .Lfunc_end23-HAL_RTC_AlarmIRQHandler
	.cfi_endproc
	.cantunwind
	.fnend
                                        @ -- End function
	.section	.text.HAL_RTC_AlarmAEventCallback,"ax",%progbits
	.hidden	HAL_RTC_AlarmAEventCallback @ -- Begin function HAL_RTC_AlarmAEventCallback
	.weak	HAL_RTC_AlarmAEventCallback
	.p2align	2
	.type	HAL_RTC_AlarmAEventCallback,%function
	.code	16                      @ @HAL_RTC_AlarmAEventCallback
	.thumb_func
HAL_RTC_AlarmAEventCallback:
.Lfunc_begin24:
	.loc	6 1210 0                @ ../Drivers/STM32F1xx_HAL_Driver/Src/stm32f1xx_hal_rtc.c:1210:0
	.fnstart
	.cfi_startproc
@ %bb.0:
	@DEBUG_VALUE: HAL_RTC_AlarmAEventCallback:hrtc <- $r0
	.loc	6 1216 1 prologue_end   @ ../Drivers/STM32F1xx_HAL_Driver/Src/stm32f1xx_hal_rtc.c:1216:1
	bx	lr
.Ltmp333:
.Lfunc_end24:
	.size	HAL_RTC_AlarmAEventCallback, .Lfunc_end24-HAL_RTC_AlarmAEventCallback
	.cfi_endproc
	.cantunwind
	.fnend
                                        @ -- End function
	.section	.text.HAL_RTC_PollForAlarmAEvent,"ax",%progbits
	.hidden	HAL_RTC_PollForAlarmAEvent @ -- Begin function HAL_RTC_PollForAlarmAEvent
	.globl	HAL_RTC_PollForAlarmAEvent
	.p2align	2
	.type	HAL_RTC_PollForAlarmAEvent,%function
	.code	16                      @ @HAL_RTC_PollForAlarmAEvent
	.thumb_func
HAL_RTC_PollForAlarmAEvent:
.Lfunc_begin25:
	.loc	6 1226 0                @ ../Drivers/STM32F1xx_HAL_Driver/Src/stm32f1xx_hal_rtc.c:1226:0
	.fnstart
	.cfi_startproc
@ %bb.0:
	.save	{r4, r5, r6, r7, lr}
	push	{r4, r5, r6, r7, lr}
	.cfi_def_cfa_offset 20
	.cfi_offset lr, -4
	.cfi_offset r7, -8
	.cfi_offset r6, -12
	.cfi_offset r5, -16
	.cfi_offset r4, -20
	.pad	#4
	sub	sp, #4
	.cfi_def_cfa_offset 24
	@DEBUG_VALUE: HAL_RTC_PollForAlarmAEvent:hrtc <- $r0
	@DEBUG_VALUE: HAL_RTC_PollForAlarmAEvent:Timeout <- $r1
	mov	r5, r1
	mov	r4, r0
.Ltmp334:
	@DEBUG_VALUE: HAL_RTC_PollForAlarmAEvent:Timeout <- $r5
	@DEBUG_VALUE: HAL_RTC_PollForAlarmAEvent:hrtc <- $r4
	.loc	6 1227 24 prologue_end  @ ../Drivers/STM32F1xx_HAL_Driver/Src/stm32f1xx_hal_rtc.c:1227:24
	bl	HAL_GetTick
	mov	r6, r0
.Ltmp335:
	@DEBUG_VALUE: HAL_RTC_PollForAlarmAEvent:tickstart <- $r6
	.loc	6 1230 6                @ ../Drivers/STM32F1xx_HAL_Driver/Src/stm32f1xx_hal_rtc.c:1230:6
	cbz	r4, .LBB25_9
.Ltmp336:
@ %bb.1:
	@DEBUG_VALUE: HAL_RTC_PollForAlarmAEvent:tickstart <- $r6
	@DEBUG_VALUE: HAL_RTC_PollForAlarmAEvent:hrtc <- $r4
	@DEBUG_VALUE: HAL_RTC_PollForAlarmAEvent:Timeout <- $r5
	.loc	6 1235 9                @ ../Drivers/STM32F1xx_HAL_Driver/Src/stm32f1xx_hal_rtc.c:1235:9
	ldr	r0, [r4]
	ldr	r1, [r0, #4]!
	.loc	6 1235 3 is_stmt 0      @ ../Drivers/STM32F1xx_HAL_Driver/Src/stm32f1xx_hal_rtc.c:1235:3
	tst.w	r1, #2
	bne	.LBB25_8
.Ltmp337:
@ %bb.2:
	@DEBUG_VALUE: HAL_RTC_PollForAlarmAEvent:tickstart <- $r6
	@DEBUG_VALUE: HAL_RTC_PollForAlarmAEvent:hrtc <- $r4
	@DEBUG_VALUE: HAL_RTC_PollForAlarmAEvent:Timeout <- $r5
	cbz	r5, .LBB25_10
.Ltmp338:
@ %bb.3:
	@DEBUG_VALUE: HAL_RTC_PollForAlarmAEvent:tickstart <- $r6
	@DEBUG_VALUE: HAL_RTC_PollForAlarmAEvent:hrtc <- $r4
	@DEBUG_VALUE: HAL_RTC_PollForAlarmAEvent:Timeout <- $r5
	.loc	6 0 3                   @ ../Drivers/STM32F1xx_HAL_Driver/Src/stm32f1xx_hal_rtc.c:0:3
	adds	r7, r5, #1
.Ltmp339:
	.p2align	2
.LBB25_4:                               @ =>This Inner Loop Header: Depth=1
	@DEBUG_VALUE: HAL_RTC_PollForAlarmAEvent:tickstart <- $r6
	@DEBUG_VALUE: HAL_RTC_PollForAlarmAEvent:hrtc <- $r4
	@DEBUG_VALUE: HAL_RTC_PollForAlarmAEvent:Timeout <- $r5
	.loc	6 1237 8 is_stmt 1      @ ../Drivers/STM32F1xx_HAL_Driver/Src/stm32f1xx_hal_rtc.c:1237:8
	cbz	r7, .LBB25_6
.Ltmp340:
@ %bb.5:                                @   in Loop: Header=BB25_4 Depth=1
	@DEBUG_VALUE: HAL_RTC_PollForAlarmAEvent:tickstart <- $r6
	@DEBUG_VALUE: HAL_RTC_PollForAlarmAEvent:hrtc <- $r4
	@DEBUG_VALUE: HAL_RTC_PollForAlarmAEvent:Timeout <- $r5
	.loc	6 1239 28               @ ../Drivers/STM32F1xx_HAL_Driver/Src/stm32f1xx_hal_rtc.c:1239:28
	bl	HAL_GetTick
	.loc	6 1239 42 is_stmt 0     @ ../Drivers/STM32F1xx_HAL_Driver/Src/stm32f1xx_hal_rtc.c:1239:42
	subs	r0, r0, r6
.Ltmp341:
	.loc	6 1239 10               @ ../Drivers/STM32F1xx_HAL_Driver/Src/stm32f1xx_hal_rtc.c:1239:10
	cmp	r0, r5
	bhi	.LBB25_10
.Ltmp342:
.LBB25_6:                               @   in Loop: Header=BB25_4 Depth=1
	@DEBUG_VALUE: HAL_RTC_PollForAlarmAEvent:tickstart <- $r6
	@DEBUG_VALUE: HAL_RTC_PollForAlarmAEvent:hrtc <- $r4
	@DEBUG_VALUE: HAL_RTC_PollForAlarmAEvent:Timeout <- $r5
	.loc	6 1235 9 is_stmt 1      @ ../Drivers/STM32F1xx_HAL_Driver/Src/stm32f1xx_hal_rtc.c:1235:9
	ldr	r0, [r4]
	ldr	r1, [r0, #4]
	.loc	6 1235 3 is_stmt 0      @ ../Drivers/STM32F1xx_HAL_Driver/Src/stm32f1xx_hal_rtc.c:1235:3
	tst.w	r1, #2
	beq	.LBB25_4
.Ltmp343:
@ %bb.7:
	@DEBUG_VALUE: HAL_RTC_PollForAlarmAEvent:tickstart <- $r6
	@DEBUG_VALUE: HAL_RTC_PollForAlarmAEvent:hrtc <- $r4
	@DEBUG_VALUE: HAL_RTC_PollForAlarmAEvent:Timeout <- $r5
	.loc	6 1235 9                @ ../Drivers/STM32F1xx_HAL_Driver/Src/stm32f1xx_hal_rtc.c:1235:9
	adds	r0, #4
.Ltmp344:
.LBB25_8:
	@DEBUG_VALUE: HAL_RTC_PollForAlarmAEvent:tickstart <- $r6
	@DEBUG_VALUE: HAL_RTC_PollForAlarmAEvent:hrtc <- $r4
	@DEBUG_VALUE: HAL_RTC_PollForAlarmAEvent:Timeout <- $r5
	.loc	6 1248 3 is_stmt 1      @ ../Drivers/STM32F1xx_HAL_Driver/Src/stm32f1xx_hal_rtc.c:1248:3
	mvn	r1, #2
	str	r1, [r0]
	movs	r0, #0
	movs	r1, #1
	b	.LBB25_11
.Ltmp345:
.LBB25_9:
	@DEBUG_VALUE: HAL_RTC_PollForAlarmAEvent:tickstart <- $r6
	@DEBUG_VALUE: HAL_RTC_PollForAlarmAEvent:hrtc <- $r4
	@DEBUG_VALUE: HAL_RTC_PollForAlarmAEvent:Timeout <- $r5
	.loc	6 0 3 is_stmt 0         @ ../Drivers/STM32F1xx_HAL_Driver/Src/stm32f1xx_hal_rtc.c:0:3
	movs	r0, #1
	.loc	6 1254 1 is_stmt 1      @ ../Drivers/STM32F1xx_HAL_Driver/Src/stm32f1xx_hal_rtc.c:1254:1
	add	sp, #4
	pop	{r4, r5, r6, r7, pc}
.Ltmp346:
.LBB25_10:
	@DEBUG_VALUE: HAL_RTC_PollForAlarmAEvent:tickstart <- $r6
	@DEBUG_VALUE: HAL_RTC_PollForAlarmAEvent:hrtc <- $r4
	@DEBUG_VALUE: HAL_RTC_PollForAlarmAEvent:Timeout <- $r5
	.loc	6 0 1 is_stmt 0         @ ../Drivers/STM32F1xx_HAL_Driver/Src/stm32f1xx_hal_rtc.c:0:1
	movs	r1, #3
	movs	r0, #3
.Ltmp347:
.LBB25_11:
	@DEBUG_VALUE: HAL_RTC_PollForAlarmAEvent:tickstart <- $r6
	@DEBUG_VALUE: HAL_RTC_PollForAlarmAEvent:hrtc <- $r4
	@DEBUG_VALUE: HAL_RTC_PollForAlarmAEvent:Timeout <- $r5
	str	r1, [r4, #20]
	.loc	6 1254 1                @ ../Drivers/STM32F1xx_HAL_Driver/Src/stm32f1xx_hal_rtc.c:1254:1
	add	sp, #4
	pop	{r4, r5, r6, r7, pc}
.Ltmp348:
.Lfunc_end25:
	.size	HAL_RTC_PollForAlarmAEvent, .Lfunc_end25-HAL_RTC_PollForAlarmAEvent
	.cfi_endproc
	.cantunwind
	.fnend
                                        @ -- End function
	.section	.text.HAL_RTC_GetState,"ax",%progbits
	.hidden	HAL_RTC_GetState        @ -- Begin function HAL_RTC_GetState
	.globl	HAL_RTC_GetState
	.p2align	2
	.type	HAL_RTC_GetState,%function
	.code	16                      @ @HAL_RTC_GetState
	.thumb_func
HAL_RTC_GetState:
.Lfunc_begin26:
	.loc	6 1281 0 is_stmt 1      @ ../Drivers/STM32F1xx_HAL_Driver/Src/stm32f1xx_hal_rtc.c:1281:0
	.fnstart
	.cfi_startproc
@ %bb.0:
	@DEBUG_VALUE: HAL_RTC_GetState:hrtc <- $r0
	@DEBUG_VALUE: HAL_RTC_GetState:hrtc <- $r0
	.loc	6 1282 16 prologue_end  @ ../Drivers/STM32F1xx_HAL_Driver/Src/stm32f1xx_hal_rtc.c:1282:16
	ldr	r0, [r0, #20]
.Ltmp349:
	.loc	6 1282 3 is_stmt 0      @ ../Drivers/STM32F1xx_HAL_Driver/Src/stm32f1xx_hal_rtc.c:1282:3
	bx	lr
.Ltmp350:
.Lfunc_end26:
	.size	HAL_RTC_GetState, .Lfunc_end26-HAL_RTC_GetState
	.cfi_endproc
	.cantunwind
	.fnend
                                        @ -- End function
	.section	.text.RTC_IsLeapYear,"ax",%progbits
	.p2align	2               @ -- Begin function RTC_IsLeapYear
	.type	RTC_IsLeapYear,%function
	.code	16                      @ @RTC_IsLeapYear
	.thumb_func
RTC_IsLeapYear:
.Lfunc_begin27:
	.loc	6 1651 0 is_stmt 1      @ ../Drivers/STM32F1xx_HAL_Driver/Src/stm32f1xx_hal_rtc.c:1651:0
	.fnstart
	.cfi_startproc
@ %bb.0:
	@DEBUG_VALUE: RTC_IsLeapYear:nYear <- $r0
	@DEBUG_VALUE: RTC_IsLeapYear:nYear <- $r0
	.loc	6 1652 6 prologue_end   @ ../Drivers/STM32F1xx_HAL_Driver/Src/stm32f1xx_hal_rtc.c:1652:6
	tst.w	r0, #3
	.loc	6 1670 1                @ ../Drivers/STM32F1xx_HAL_Driver/Src/stm32f1xx_hal_rtc.c:1670:1
	itt	ne
	movne	r0, #0
.Ltmp351:
	bxne	lr
	movw	r1, #34079
	movt	r1, #20971
.Ltmp352:
	.loc	6 1657 13               @ ../Drivers/STM32F1xx_HAL_Driver/Src/stm32f1xx_hal_rtc.c:1657:13
	umull	r1, r2, r0, r1
	lsrs	r1, r2, #5
	movs	r3, #100
	mls	r1, r1, r3, r0
	.loc	6 1657 21 is_stmt 0     @ ../Drivers/STM32F1xx_HAL_Driver/Src/stm32f1xx_hal_rtc.c:1657:21
	cmp	r1, #0
	it	ne
	movne	r1, #1
.Ltmp353:
	.loc	6 1662 13 is_stmt 1     @ ../Drivers/STM32F1xx_HAL_Driver/Src/stm32f1xx_hal_rtc.c:1662:13
	lsrs	r2, r2, #7
	mov.w	r3, #400
	mls	r0, r2, r3, r0
	.loc	6 1662 21 is_stmt 0     @ ../Drivers/STM32F1xx_HAL_Driver/Src/stm32f1xx_hal_rtc.c:1662:21
	clz	r0, r0
	lsrs	r0, r0, #5
.Ltmp354:
	.loc	6 1657 6 is_stmt 1      @ ../Drivers/STM32F1xx_HAL_Driver/Src/stm32f1xx_hal_rtc.c:1657:6
	orrs	r0, r1
	bx	lr
.Ltmp355:
.Lfunc_end27:
	.size	RTC_IsLeapYear, .Lfunc_end27-RTC_IsLeapYear
	.cfi_endproc
	.cantunwind
	.fnend
                                        @ -- End function
	.section	".note.GNU-stack","",%progbits
	.eabi_attribute	30, 1	@ Tag_ABI_optimization_goals
	.ARM_attribute	16, 1	@ Tag_AV_eba