	.text
	.syntax unified
	.eabi_attribute	67, "2.09"	@ Tag_conformance
	.cpu	cortex-m3
	.eabi_attribute	6, 10	@ Tag_CPU_arch
	.eabi_attribute	7, 77	@ Tag_CPU_arch_profile
	.eabi_attribute	8, 0	@ Tag_ARM_ISA_use
	.eabi_attribute	9, 2	@ Tag_THUMB_ISA_use
	.eabi_attribute	34, 1	@ Tag_CPU_unaligned_access
	.eabi_attribute	17, 1	@ Tag_ABI_PCS_GOT_use
	.eabi_attribute	20, 2	@ Tag_ABI_FP_denormal
	.eabi_attribute	21, 0	@ Tag_ABI_FP_exceptions
	.eabi_attribute	23, 1	@ Tag_ABI_FP_number_model
	.eabi_attribute	24, 1	@ Tag_ABI_align_needed
	.eabi_attribute	25, 1	@ Tag_ABI_align_preserved
	.eabi_attribute	38, 1	@ Tag_ABI_FP_16bit_format
	.eabi_attribute	18, 4	@ Tag_ABI_PCS_wchar_t
	.eabi_attribute	26, 2	@ Tag_ABI_enum_size
	.eabi_attribute	14, 0	@ Tag_ABI_PCS_R9_use
	.file	"stm32f1xx_hal_pwr.c"
	.file	1 "../Drivers/CMSIS/Device/ST/STM32F1xx/Include" "stm32f1xx.h"
	.file	2 "C:\\Keil\\ARM\\ARMCLANG\\Bin\\..\\include" "stdint.h"
	.file	3 "../Drivers/CMSIS/Device/ST/STM32F1xx/Include" "stm32f103xb.h"
	.file	4 "C:/Keil/ARM/PACK/ARM/CMSIS/5.0.0/CMSIS/Include" "core_cm3.h"
	.section	.text.HAL_PWR_DeInit,"ax",%progbits
	.hidden	HAL_PWR_DeInit          @ -- Begin function HAL_PWR_DeInit
	.globl	HAL_PWR_DeInit
	.p2align	2
	.type	HAL_PWR_DeInit,%function
	.code	16                      @ @HAL_PWR_DeInit
	.thumb_func
HAL_PWR_DeInit:
.Lfunc_begin0:
	.file	5 "../Drivers/STM32F1xx_HAL_Driver/Src" "stm32f1xx_hal_pwr.c"
	.loc	5 177 0                 @ ../Drivers/STM32F1xx_HAL_Driver/Src/stm32f1xx_hal_pwr.c:177:0
	.fnstart
	.cfi_sections .debug_frame
	.cfi_startproc
@ %bb.0:
	movw	r0, #4112
	movt	r0, #16386
.Ltmp0:
	.loc	5 178 3 prologue_end    @ ../Drivers/STM32F1xx_HAL_Driver/Src/stm32f1xx_hal_pwr.c:178:3
	ldr	r1, [r0]
	orr	r1, r1, #268435456
	str	r1, [r0]
	.loc	5 179 3                 @ ../Drivers/STM32F1xx_HAL_Driver/Src/stm32f1xx_hal_pwr.c:179:3
	ldr	r1, [r0]
	bic	r1, r1, #268435456
	str	r1, [r0]
	.loc	5 180 1                 @ ../Drivers/STM32F1xx_HAL_Driver/Src/stm32f1xx_hal_pwr.c:180:1
	bx	lr
.Ltmp1:
.Lfunc_end0:
	.size	HAL_PWR_DeInit, .Lfunc_end0-HAL_PWR_DeInit
	.cfi_endproc
	.cantunwind
	.fnend
                                        @ -- End function
	.section	.text.HAL_PWR_EnableBkUpAccess,"ax",%progbits
	.hidden	HAL_PWR_EnableBkUpAccess @ -- Begin function HAL_PWR_EnableBkUpAccess
	.globl	HAL_PWR_EnableBkUpAccess
	.p2align	2
	.type	HAL_PWR_EnableBkUpAccess,%function
	.code	16                      @ @HAL_PWR_EnableBkUpAccess
	.thumb_func
HAL_PWR_EnableBkUpAccess:
.Lfunc_begin1:
	.loc	5 190 0                 @ ../Drivers/STM32F1xx_HAL_Driver/Src/stm32f1xx_hal_pwr.c:190:0
	.fnstart
	.cfi_startproc
@ %bb.0:
	.loc	5 192 32 prologue_end   @ ../Drivers/STM32F1xx_HAL_Driver/Src/stm32f1xx_hal_pwr.c:192:32
	movs	r0, #32
	movt	r0, #16910
	movs	r1, #1
	str	r1, [r0]
	.loc	5 193 1                 @ ../Drivers/STM32F1xx_HAL_Driver/Src/stm32f1xx_hal_pwr.c:193:1
	bx	lr
.Ltmp2:
.Lfunc_end1:
	.size	HAL_PWR_EnableBkUpAccess, .Lfunc_end1-HAL_PWR_EnableBkUpAccess
	.cfi_endproc
	.cantunwind
	.fnend
                                        @ -- End function
	.section	.text.HAL_PWR_DisableBkUpAccess,"ax",%progbits
	.hidden	HAL_PWR_DisableBkUpAccess @ -- Begin function HAL_PWR_DisableBkUpAccess
	.globl	HAL_PWR_DisableBkUpAccess
	.p2align	2
	.type	HAL_PWR_DisableBkUpAccess,%function
	.code	16                      @ @HAL_PWR_DisableBkUpAccess
	.thumb_func
HAL_PWR_DisableBkUpAccess:
.Lfunc_begin2:
	.loc	5 203 0                 @ ../Drivers/STM32F1xx_HAL_Driver/Src/stm32f1xx_hal_pwr.c:203:0
	.fnstart
	.cfi_startproc
@ %bb.0:
	.loc	5 205 32 prologue_end   @ ../Drivers/STM32F1xx_HAL_Driver/Src/stm32f1xx_hal_pwr.c:205:32
	movs	r0, #32
	movt	r0, #16910
	movs	r1, #0
	str	r1, [r0]
	.loc	5 206 1                 @ ../Drivers/STM32F1xx_HAL_Driver/Src/stm32f1xx_hal_pwr.c:206:1
	bx	lr
.Ltmp3:
.Lfunc_end2:
	.size	HAL_PWR_DisableBkUpAccess, .Lfunc_end2-HAL_PWR_DisableBkUpAccess
	.cfi_endproc
	.cantunwind
	.fnend
                                        @ -- End function
	.section	.text.HAL_PWR_ConfigPVD,"ax",%progbits
	.hidden	HAL_PWR_ConfigPVD       @ -- Begin function HAL_PWR_ConfigPVD
	.globl	HAL_PWR_ConfigPVD
	.p2align	2
	.type	HAL_PWR_ConfigPVD,%function
	.code	16                      @ @HAL_PWR_ConfigPVD
	.thumb_func
HAL_PWR_ConfigPVD:
.Lfunc_begin3:
	.loc	5 337 0                 @ ../Drivers/STM32F1xx_HAL_Driver/Src/stm32f1xx_hal_pwr.c:337:0
	.fnstart
	.cfi_startproc
@ %bb.0:
	@DEBUG_VALUE: HAL_PWR_ConfigPVD:sConfigPVD <- $r0
	@DEBUG_VALUE: HAL_PWR_ConfigPVD:sConfigPVD <- $r0
	.loc	5 343 3 prologue_end    @ ../Drivers/STM32F1xx_HAL_Driver/Src/stm32f1xx_hal_pwr.c:343:3
	movw	r12, #27648
	movt	r12, #65535
	movw	r2, #1024
	movt	r2, #16385
	ldr.w	r3, [r2, r12]
	bic	r3, r3, #224
	ldr	r1, [r0]
	orrs	r1, r3
	str.w	r1, [r2, r12]
	movw	r1, #1028
	movt	r1, #16385
	.loc	5 346 3                 @ ../Drivers/STM32F1xx_HAL_Driver/Src/stm32f1xx_hal_pwr.c:346:3
	ldr	r3, [r1]
	bic	r3, r3, #65536
	str	r3, [r1]
	.loc	5 347 3                 @ ../Drivers/STM32F1xx_HAL_Driver/Src/stm32f1xx_hal_pwr.c:347:3
	ldr	r3, [r2]
	bic	r3, r3, #65536
	str	r3, [r2]
	.loc	5 348 3                 @ ../Drivers/STM32F1xx_HAL_Driver/Src/stm32f1xx_hal_pwr.c:348:3
	ldr	r3, [r1, #8]
	bic	r3, r3, #65536
	str	r3, [r1, #8]
	.loc	5 349 3                 @ ../Drivers/STM32F1xx_HAL_Driver/Src/stm32f1xx_hal_pwr.c:349:3
	ldr	r3, [r1, #4]
	bic	r3, r3, #65536
	str	r3, [r1, #4]
.Ltmp4:
	.loc	5 352 19                @ ../Drivers/STM32F1xx_HAL_Driver/Src/stm32f1xx_hal_pwr.c:352:19
	ldr	r0, [r0, #4]
.Ltmp5:
	.loc	5 352 6 is_stmt 0       @ ../Drivers/STM32F1xx_HAL_Driver/Src/stm32f1xx_hal_pwr.c:352:6
	tst.w	r0, #65536
.Ltmp6:
	.loc	5 354 5 is_stmt 1       @ ../Drivers/STM32F1xx_HAL_Driver/Src/stm32f1xx_hal_pwr.c:354:5
	ittt	ne
	ldrne	r3, [r2]
	orrne	r3, r3, #65536
	strne	r3, [r2]
.Ltmp7:
	.loc	5 358 6                 @ ../Drivers/STM32F1xx_HAL_Driver/Src/stm32f1xx_hal_pwr.c:358:6
	lsls	r2, r0, #14
.Ltmp8:
	.loc	5 360 5                 @ ../Drivers/STM32F1xx_HAL_Driver/Src/stm32f1xx_hal_pwr.c:360:5
	ittt	mi
	ldrmi	r2, [r1]
	orrmi	r2, r2, #65536
	strmi	r2, [r1]
.Ltmp9:
	.loc	5 364 6                 @ ../Drivers/STM32F1xx_HAL_Driver/Src/stm32f1xx_hal_pwr.c:364:6
	lsls	r2, r0, #31
.Ltmp10:
	.loc	5 366 5                 @ ../Drivers/STM32F1xx_HAL_Driver/Src/stm32f1xx_hal_pwr.c:366:5
	ittt	ne
	ldrne	r2, [r1, #4]
	orrne	r2, r2, #65536
	strne	r2, [r1, #4]
.Ltmp11:
	.loc	5 369 6                 @ ../Drivers/STM32F1xx_HAL_Driver/Src/stm32f1xx_hal_pwr.c:369:6
	lsls	r0, r0, #30
.Ltmp12:
	.loc	5 371 5                 @ ../Drivers/STM32F1xx_HAL_Driver/Src/stm32f1xx_hal_pwr.c:371:5
	ittt	mi
	ldrmi	r0, [r1, #8]
	orrmi	r0, r0, #65536
	strmi	r0, [r1, #8]
.Ltmp13:
	.loc	5 373 1                 @ ../Drivers/STM32F1xx_HAL_Driver/Src/stm32f1xx_hal_pwr.c:373:1
	bx	lr
.Ltmp14:
.Lfunc_end3:
	.size	HAL_PWR_ConfigPVD, .Lfunc_end3-HAL_PWR_ConfigPVD
	.cfi_endproc
	.cantunwind
	.fnend
                                        @ -- End function
	.section	.text.HAL_PWR_EnablePVD,"ax",%progbits
	.hidden	HAL_PWR_EnablePVD       @ -- Begin function HAL_PWR_EnablePVD
	.globl	HAL_PWR_EnablePVD
	.p2align	2
	.type	HAL_PWR_EnablePVD,%function
	.code	16                      @ @HAL_PWR_EnablePVD
	.thumb_func
HAL_PWR_EnablePVD:
.Lfunc_begin4:
	.loc	5 380 0                 @ ../Drivers/STM32F1xx_HAL_Driver/Src/stm32f1xx_hal_pwr.c:380:0
	.fnstart
	.cfi_startproc
@ %bb.0:
	.loc	5 382 33 prologue_end   @ ../Drivers/STM32F1xx_HAL_Driver/Src/stm32f1xx_hal_pwr.c:382:33
	movs	r0, #16
	movt	r0, #16910
	movs	r1, #1
	str	r1, [r0]
	.loc	5 383 1                 @ ../Drivers/STM32F1xx_HAL_Driver/Src/stm32f1xx_hal_pwr.c:383:1
	bx	lr
.Ltmp15:
.Lfunc_end4:
	.size	HAL_PWR_EnablePVD, .Lfunc_end4-HAL_PWR_EnablePVD
	.cfi_endproc
	.cantunwind
	.fnend
                                        @ -- End function
	.section	.text.HAL_PWR_DisablePVD,"ax",%progbits
	.hidden	HAL_PWR_DisablePVD      @ -- Begin function HAL_PWR_DisablePVD
	.globl	HAL_PWR_DisablePVD
	.p2align	2
	.type	HAL_PWR_DisablePVD,%function
	.code	16                      @ @HAL_PWR_DisablePVD
	.thumb_func
HAL_PWR_DisablePVD:
.Lfunc_begin5:
	.loc	5 390 0                 @ ../Drivers/STM32F1xx_HAL_Driver/Src/stm32f1xx_hal_pwr.c:390:0
	.fnstart
	.cfi_startproc
@ %bb.0:
	.loc	5 392 33 prologue_end   @ ../Drivers/STM32F1xx_HAL_Driver/Src/stm32f1xx_hal_pwr.c:392:33
	movs	r0, #16
	movt	r0, #16910
	movs	r1, #0
	str	r1, [r0]
	.loc	5 393 1                 @ ../Drivers/STM32F1xx_HAL_Driver/Src/stm32f1xx_hal_pwr.c:393:1
	bx	lr
.Ltmp16:
.Lfunc_end5:
	.size	HAL_PWR_DisablePVD, .Lfunc_end5-HAL_PWR_DisablePVD
	.cfi_endproc
	.cantunwind
	.fnend
                                        @ -- End function
	.section	.text.HAL_PWR_EnableWakeUpPin,"ax",%progbits
	.hidden	HAL_PWR_EnableWakeUpPin @ -- Begin function HAL_PWR_EnableWakeUpPin
	.globl	HAL_PWR_EnableWakeUpPin
	.p2align	2
	.type	HAL_PWR_EnableWakeUpPin,%function
	.code	16                      @ @HAL_PWR_EnableWakeUpPin
	.thumb_func
HAL_PWR_EnableWakeUpPin:
.Lfunc_begin6:
	.loc	5 403 0                 @ ../Drivers/STM32F1xx_HAL_Driver/Src/stm32f1xx_hal_pwr.c:403:0
	.fnstart
	.cfi_startproc
@ %bb.0:
	@DEBUG_VALUE: HAL_PWR_EnableWakeUpPin:WakeUpPinx <- $r0
	@DEBUG_VALUE: HAL_PWR_EnableWakeUpPin:WakeUpPinx <- $r0
	@DEBUG_VALUE: __RBIT:value <- $r0
	@DEBUG_VALUE: __RBIT:value <- $r0
	.file	6 "C:/Keil/ARM/PACK/ARM/CMSIS/5.0.0/CMSIS/Include" "cmsis_armclang.h"
	.loc	6 809 4 prologue_end    @ C:/Keil/ARM/PACK/ARM/CMSIS/5.0.0/CMSIS/Include/cmsis_armclang.h:809:4
	@APP
	rbit	r0, r0
	@NO_APP
.Ltmp17:
	@DEBUG_VALUE: __RBIT:result <- $r0
	.loc	5 407 22                @ ../Drivers/STM32F1xx_HAL_Driver/Src/stm32f1xx_hal_pwr.c:407:22
	clz	r0, r0
.Ltmp18:
	movs	r1, #128
	movt	r1, #16910
	.loc	5 407 46 is_stmt 0      @ ../Drivers/STM32F1xx_HAL_Driver/Src/stm32f1xx_hal_pwr.c:407:46
	movs	r2, #1
	str.w	r2, [r1, r0, lsl #2]
	.loc	5 408 1 is_stmt 1       @ ../Drivers/STM32F1xx_HAL_Driver/Src/stm32f1xx_hal_pwr.c:408:1
	bx	lr
.Ltmp19:
.Lfunc_end6:
	.size	HAL_PWR_EnableWakeUpPin, .Lfunc_end6-HAL_PWR_EnableWakeUpPin
	.cfi_endproc
	.cantunwind
	.fnend
                                        @ -- End function
	.section	.text.HAL_PWR_DisableWakeUpPin,"ax",%progbits
	.hidden	HAL_PWR_DisableWakeUpPin @ -- Begin function HAL_PWR_DisableWakeUpPin
	.globl	HAL_PWR_DisableWakeUpPin
	.p2align	2
	.type	HAL_PWR_DisableWakeUpPin,%function
	.code	16                      @ @HAL_PWR_DisableWakeUpPin
	.thumb_func
HAL_PWR_DisableWakeUpPin:
.Lfunc_begin7:
	.loc	5 418 0                 @ ../Drivers/STM32F1xx_HAL_Driver/Src/stm32f1xx_hal_pwr.c:418:0
	.fnstart
	.cfi_startproc
@ %bb.0:
	@DEBUG_VALUE: HAL_PWR_DisableWakeUpPin:WakeUpPinx <- $r0
	@DEBUG_VALUE: HAL_PWR_DisableWakeUpPin:WakeUpPinx <- $r0
	@DEBUG_VALUE: __RBIT:value <- $r0
	@DEBUG_VALUE: __RBIT:value <- $r0
	.loc	6 809 4 prologue_end    @ C:/Keil/ARM/PACK/ARM/CMSIS/5.0.0/CMSIS/Include/cmsis_armclang.h:809:4
	@APP
	rbit	r0, r0
	@NO_APP
.Ltmp20:
	@DEBUG_VALUE: __RBIT:result <- $r0
	.loc	5 422 22                @ ../Drivers/STM32F1xx_HAL_Driver/Src/stm32f1xx_hal_pwr.c:422:22
	clz	r0, r0
.Ltmp21:
	movs	r1, #128
	movt	r1, #16910
	.loc	5 422 46 is_stmt 0      @ ../Drivers/STM32F1xx_HAL_Driver/Src/stm32f1xx_hal_pwr.c:422:46
	movs	r2, #0
	str.w	r2, [r1, r0, lsl #2]
	.loc	5 423 1 is_stmt 1       @ ../Drivers/STM32F1xx_HAL_Driver/Src/stm32f1xx_hal_pwr.c:423:1
	bx	lr
.Ltmp22:
.Lfunc_end7:
	.size	HAL_PWR_DisableWakeUpPin, .Lfunc_end7-HAL_PWR_DisableWakeUpPin
	.cfi_endproc
	.cantunwind
	.fnend
                                        @ -- End function
	.section	.text.HAL_PWR_EnterSLEEPMode,"ax",%progbits
	.hidden	HAL_PWR_EnterSLEEPMode  @ -- Begin function HAL_PWR_EnterSLEEPMode
	.globl	HAL_PWR_EnterSLEEPMode
	.p2align	2
	.type	HAL_PWR_EnterSLEEPMode,%function
	.code	16                      @ @HAL_PWR_EnterSLEEPMode
	.thumb_func
HAL_PWR_EnterSLEEPMode:
.Lfunc_begin8:
	.loc	5 438 0                 @ ../Drivers/STM32F1xx_HAL_Driver/Src/stm32f1xx_hal_pwr.c:438:0
	.fnstart
	.cfi_startproc
@ %bb.0:
	@DEBUG_VALUE: HAL_PWR_EnterSLEEPMode:Regulator <- $r0
	@DEBUG_VALUE: HAL_PWR_EnterSLEEPMode:SLEEPEntry <- $r1
	movw	r0, #60688
.Ltmp23:
	movt	r0, #57344
	@DEBUG_VALUE: HAL_PWR_EnterSLEEPMode:SLEEPEntry <- $r1
.Ltmp24:
	.loc	5 447 3 prologue_end    @ ../Drivers/STM32F1xx_HAL_Driver/Src/stm32f1xx_hal_pwr.c:447:3
	ldr	r2, [r0]
	bic	r2, r2, #4
	str	r2, [r0]
	.loc	5 450 6                 @ ../Drivers/STM32F1xx_HAL_Driver/Src/stm32f1xx_hal_pwr.c:450:6
	cmp	r1, #1
.Ltmp25:
	.loc	5 453 5                 @ ../Drivers/STM32F1xx_HAL_Driver/Src/stm32f1xx_hal_pwr.c:453:5
	iteee	eq
	wfieq
.Ltmp26:
	.loc	5 458 5                 @ ../Drivers/STM32F1xx_HAL_Driver/Src/stm32f1xx_hal_pwr.c:458:5
	sevne
	.loc	5 459 5                 @ ../Drivers/STM32F1xx_HAL_Driver/Src/stm32f1xx_hal_pwr.c:459:5
	wfene
	.loc	5 460 5                 @ ../Drivers/STM32F1xx_HAL_Driver/Src/stm32f1xx_hal_pwr.c:460:5
	wfene
.Ltmp27:
	.loc	5 462 1                 @ ../Drivers/STM32F1xx_HAL_Driver/Src/stm32f1xx_hal_pwr.c:462:1
	bx	lr
.Ltmp28:
.Lfunc_end8:
	.size	HAL_PWR_EnterSLEEPMode, .Lfunc_end8-HAL_PWR_EnterSLEEPMode
	.cfi_endproc
	.cantunwind
	.fnend
                                        @ -- End function
	.section	.text.HAL_PWR_EnterSTOPMode,"ax",%progbits
	.hidden	HAL_PWR_EnterSTOPMode   @ -- Begin function HAL_PWR_EnterSTOPMode
	.globl	HAL_PWR_EnterSTOPMode
	.p2align	2
	.type	HAL_PWR_EnterSTOPMode,%function
	.code	16                      @ @HAL_PWR_EnterSTOPMode
	.thumb_func
HAL_PWR_EnterSTOPMode:
.Lfunc_begin9:
	.loc	5 484 0                 @ ../Drivers/STM32F1xx_HAL_Driver/Src/stm32f1xx_hal_pwr.c:484:0
	.fnstart
	.cfi_startproc
@ %bb.0:
	.save	{r4, lr}
	push	{r4, lr}
	.cfi_def_cfa_offset 8
	.cfi_offset lr, -4
	.cfi_offset r4, -8
	@DEBUG_VALUE: HAL_PWR_EnterSTOPMode:Regulator <- $r0
	@DEBUG_VALUE: HAL_PWR_EnterSTOPMode:STOPEntry <- $r1
	movw	r2, #28672
	movt	r2, #16384
	@DEBUG_VALUE: HAL_PWR_EnterSTOPMode:STOPEntry <- $r1
	@DEBUG_VALUE: HAL_PWR_EnterSTOPMode:Regulator <- $r0
.Ltmp29:
	.loc	5 490 3 prologue_end    @ ../Drivers/STM32F1xx_HAL_Driver/Src/stm32f1xx_hal_pwr.c:490:3
	ldr	r3, [r2]
	bic	r3, r3, #2
	str	r3, [r2]
	.loc	5 493 3                 @ ../Drivers/STM32F1xx_HAL_Driver/Src/stm32f1xx_hal_pwr.c:493:3
	ldr	r3, [r2]
	bic	r3, r3, #1
	orrs	r0, r3
.Ltmp30:
	str	r0, [r2]
	movw	r4, #60688
	movt	r4, #57344
	.loc	5 496 3                 @ ../Drivers/STM32F1xx_HAL_Driver/Src/stm32f1xx_hal_pwr.c:496:3
	ldr	r0, [r4]
	orr	r0, r0, #4
	str	r0, [r4]
	.loc	5 499 6                 @ ../Drivers/STM32F1xx_HAL_Driver/Src/stm32f1xx_hal_pwr.c:499:6
	cmp	r1, #1
	bne	.LBB9_2
.Ltmp31:
@ %bb.1:
	@DEBUG_VALUE: HAL_PWR_EnterSTOPMode:STOPEntry <- $r1
	.loc	5 502 5                 @ ../Drivers/STM32F1xx_HAL_Driver/Src/stm32f1xx_hal_pwr.c:502:5
	wfi
	.loc	5 503 3                 @ ../Drivers/STM32F1xx_HAL_Driver/Src/stm32f1xx_hal_pwr.c:503:3
	b	.LBB9_3
.Ltmp32:
.LBB9_2:
	@DEBUG_VALUE: HAL_PWR_EnterSTOPMode:STOPEntry <- $r1
	.loc	5 507 5                 @ ../Drivers/STM32F1xx_HAL_Driver/Src/stm32f1xx_hal_pwr.c:507:5
	sev
	.loc	5 508 5                 @ ../Drivers/STM32F1xx_HAL_Driver/Src/stm32f1xx_hal_pwr.c:508:5
	bl	PWR_OverloadWfe
.Ltmp33:
	.loc	5 509 5                 @ ../Drivers/STM32F1xx_HAL_Driver/Src/stm32f1xx_hal_pwr.c:509:5
	bl	PWR_OverloadWfe
.Ltmp34:
.LBB9_3:
	.loc	5 512 3                 @ ../Drivers/STM32F1xx_HAL_Driver/Src/stm32f1xx_hal_pwr.c:512:3
	ldr	r0, [r4]
	bic	r0, r0, #4
	str	r0, [r4]
	.loc	5 513 1                 @ ../Drivers/STM32F1xx_HAL_Driver/Src/stm32f1xx_hal_pwr.c:513:1
	pop	{r4, pc}
.Ltmp35:
.Lfunc_end9:
	.size	HAL_PWR_EnterSTOPMode, .Lfunc_end9-HAL_PWR_EnterSTOPMode
	.cfi_endproc
	.cantunwind
	.fnend
                                        @ -- End function
	.section	.text.PWR_OverloadWfe,"ax",%progbits
	.p2align	2               @ -- Begin function PWR_OverloadWfe
	.type	PWR_OverloadWfe,%function
	.code	16                      @ @PWR_OverloadWfe
	.thumb_func
PWR_OverloadWfe:
.Lfunc_begin10:
	.loc	5 138 0                 @ ../Drivers/STM32F1xx_HAL_Driver/Src/stm32f1xx_hal_pwr.c:138:0
	.fnstart
	.cfi_startproc
@ %bb.0:
	.loc	5 139 3 prologue_end    @ ../Drivers/STM32F1xx_HAL_Driver/Src/stm32f1xx_hal_pwr.c:139:3
	@APP
	wfe
	@NO_APP
	.loc	5 140 3                 @ ../Drivers/STM32F1xx_HAL_Driver/Src/stm32f1xx_hal_pwr.c:140:3
	@APP
	nop
	@NO_APP
	.loc	5 141 1                 @ ../Drivers/STM32F1xx_HAL_Driver/Src/stm32f1xx_hal_pwr.c:141:1
	bx	lr
.Ltmp36:
.Lfunc_end10:
	.size	PWR_OverloadWfe, .Lfunc_end10-PWR_OverloadWfe
	.cfi_endproc
	.cantunwind
	.fnend
                                        @ -- End function
	.section	.text.HAL_PWR_EnterSTANDBYMode,"ax",%progbits
	.hidden	HAL_PWR_EnterSTANDBYMode @ -- Begin function HAL_PWR_EnterSTANDBYMode
	.globl	HAL_PWR_EnterSTANDBYMode
	.p2align	2
	.type	HAL_PWR_EnterSTANDBYMode,%function
	.code	16                      @ @HAL_PWR_EnterSTANDBYMode
	.thumb_func
HAL_PWR_EnterSTANDBYMode:
.Lfunc_begin11:
	.loc	5 524 0                 @ ../Drivers/STM32F1xx_HAL_Driver/Src/stm32f1xx_hal_pwr.c:524:0
	.fnstart
	.cfi_startproc
@ %bb.0:
	.loc	5 526 3 prologue_end    @ ../Drivers/STM32F1xx_HAL_Driver/Src/stm32f1xx_hal_pwr.c:526:3
	movw	r0, #28672
	movt	r0, #16384
	ldr	r1, [r0]
	orr	r1, r1, #2
	str	r1, [r0]
	movw	r0, #60688
	movt	r0, #57344
	.loc	5 529 3                 @ ../Drivers/STM32F1xx_HAL_Driver/Src/stm32f1xx_hal_pwr.c:529:3
	ldr	r1, [r0]
	orr	r1, r1, #4
	str	r1, [r0]
	.loc	5 536 3                 @ ../Drivers/STM32F1xx_HAL_Driver/Src/stm32f1xx_hal_pwr.c:536:3
	wfi
	.loc	5 537 1                 @ ../Drivers/STM32F1xx_HAL_Driver/Src/stm32f1xx_hal_pwr.c:537:1
	bx	lr
.Ltmp37:
.Lfunc_end11:
	.size	HAL_PWR_EnterSTANDBYMode, .Lfunc_end11-HAL_PWR_EnterSTANDBYMode
	.cfi_endproc
	.cantunwind
	.fnend
                                        @ -- End function
	.section	.text.HAL_PWR_EnableSleepOnExit,"ax",%progbits
	.hidden	HAL_PWR_EnableSleepOnExit @ -- Begin function HAL_PWR_EnableSleepOnExit
	.globl	HAL_PWR_EnableSleepOnExit
	.p2align	2
	.type	HAL_PWR_EnableSleepOnExit,%function
	.code	16                      @ @HAL_PWR_EnableSleepOnExit
	.thumb_func
HAL_PWR_EnableSleepOnExit:
.Lfunc_begin12:
	.loc	5 549 0                 @ ../Drivers/STM32F1xx_HAL_Driver/Src/stm32f1xx_hal_pwr.c:549:0
	.fnstart
	.cfi_startproc
@ %bb.0:
	.loc	5 551 3 prologue_end    @ ../Drivers/STM32F1xx_HAL_Driver/Src/stm32f1xx_hal_pwr.c:551:3
	movw	r0, #60688
	movt	r0, #57344
	ldr	r1, [r0]
	orr	r1, r1, #2
	str	r1, [r0]
	.loc	5 552 1                 @ ../Drivers/STM32F1xx_HAL_Driver/Src/stm32f1xx_hal_pwr.c:552:1
	bx	lr
.Ltmp38:
.Lfunc_end12:
	.size	HAL_PWR_EnableSleepOnExit, .Lfunc_end12-HAL_PWR_EnableSleepOnExit
	.cfi_endproc
	.cantunwind
	.fnend
                                        @ -- End function
	.section	.text.HAL_PWR_DisableSleepOnExit,"ax",%progbits
	.hidden	HAL_PWR_DisableSleepOnExit @ -- Begin function HAL_PWR_DisableSleepOnExit
	.globl	HAL_PWR_DisableSleepOnExit
	.p2align	2
	.type	HAL_PWR_DisableSleepOnExit,%function
	.code	16                      @ @HAL_PWR_DisableSleepOnExit
	.thumb_func
HAL_PWR_DisableSleepOnExit:
.Lfunc_begin13:
	.loc	5 562 0                 @ ../Drivers/STM32F1xx_HAL_Driver/Src/stm32f1xx_hal_pwr.c:562:0
	.fnstart
	.cfi_startproc
@ %bb.0:
	.loc	5 564 3 prologue_end    @ ../Drivers/STM32F1xx_HAL_Driver/Src/stm32f1xx_hal_pwr.c:564:3
	movw	r0, #60688
	movt	r0, #57344
	ldr	r1, [r0]
	bic	r1, r1, #2
	str	r1, [r0]
	.loc	5 565 1                 @ ../Drivers/STM32F1xx_HAL_Driver/Src/stm32f1xx_hal_pwr.c:565:1
	bx	lr
.Ltmp39:
.Lfunc_end13:
	.size	HAL_PWR_DisableSleepOnExit, .Lfunc_end13-HAL_PWR_DisableSleepOnExit
	.cfi_endproc
	.cantunwind
	.fnend
                                        @ -- End function
	.section	.text.HAL_PWR_EnableSEVOnPend,"ax",%progbits
	.hidden	HAL_PWR_EnableSEVOnPend @ -- Begin function HAL_PWR_EnableSEVOnPend
	.globl	HAL_PWR_EnableSEVOnPend
	.p2align	2
	.type	HAL_PWR_EnableSEVOnPend,%function
	.code	16                      @ @HAL_PWR_EnableSEVOnPend
	.thumb_func
HAL_PWR_EnableSEVOnPend:
.Lfunc_begin14:
	.loc	5 575 0                 @ ../Drivers/STM32F1xx_HAL_Driver/Src/stm32f1xx_hal_pwr.c:575:0
	.fnstart
	.cfi_startproc
@ %bb.0:
	.loc	5 577 3 prologue_end    @ ../Drivers/STM32F1xx_HAL_Driver/Src/stm32f1xx_hal_pwr.c:577:3
	movw	r0, #60688
	movt	r0, #57344
	ldr	r1, [r0]
	orr	r1, r1, #16
	str	r1, [r0]
	.loc	5 578 1                 @ ../Drivers/STM32F1xx_HAL_Driver/Src/stm32f1xx_hal_pwr.c:578:1
	bx	lr
.Ltmp40:
.Lfunc_end14:
	.size	HAL_PWR_EnableSEVOnPend, .Lfunc_end14-HAL_PWR_EnableSEVOnPend
	.cfi_endproc
	.cantunwind
	.fnend
                                        @ -- End function
	.section	.text.HAL_PWR_DisableSEVOnPend,"ax",%progbits
	.hidden	HAL_PWR_DisableSEVOnPend @ -- Begin function HAL_PWR_DisableSEVOnPend
	.globl	HAL_PWR_DisableSEVOnPend
	.p2align	2
	.type	HAL_PWR_DisableSEVOnPend,%function
	.code	16                      @ @HAL_PWR_DisableSEVOnPend
	.thumb_func
HAL_PWR_DisableSEVOnPend:
.Lfunc_begin15:
	.loc	5 588 0                 @ ../Drivers/STM32F1xx_HAL_Driver/Src/stm32f1xx_hal_pwr.c:588:0
	.fnstart
	.cfi_startproc
@ %bb.0:
	.loc	5 590 3 prologue_end    @ ../Drivers/STM32F1xx_HAL_Driver/Src/stm32f1xx_hal_pwr.c:590:3
	movw	r0, #60688
	movt	r0, #57344
	ldr	r1, [r0]
	bic	r1, r1, #16
	str	r1, [r0]
	.loc	5 591 1                 @ ../Drivers/STM32F1xx_HAL_Driver/Src/stm32f1xx_hal_pwr.c:591:1
	bx	lr
.Ltmp41:
.Lfunc_end15:
	.size	HAL_PWR_DisableSEVOnPend, .Lfunc_end15-HAL_PWR_DisableSEVOnPend
	.cfi_endproc
	.cantunwind
	.fnend
                                        @ -- End function
	.section	.text.HAL_PWR_PVD_IRQHandler,"ax",%progbits
	.hidden	HAL_PWR_PVD_IRQHandler  @ -- Begin function HAL_PWR_PVD_IRQHandler
	.globl	HAL_PWR_PVD_IRQHandler
	.p2align	2
	.type	HAL_PWR_PVD_IRQHandler,%function
	.code	16                      @ @HAL_PWR_PVD_IRQHandler
	.thumb_func
HAL_PWR_PVD_IRQHandler:
.Lfunc_begin16:
	.loc	5 601 0                 @ ../Drivers/STM32F1xx_HAL_Driver/Src/stm32f1xx_hal_pwr.c:601:0
	.fnstart
	.cfi_startproc
@ %bb.0:
	.save	{r4, lr}
	push	{r4, lr}
	.cfi_def_cfa_offset 8
	.cfi_offset lr, -4
	.cfi_offset r4, -8
	movw	r4, #1044
	movt	r4, #16385
.Ltmp42:
	.loc	5 603 6 prologue_end    @ ../Drivers/STM32F1xx_HAL_Driver/Src/stm32f1xx_hal_pwr.c:603:6
	ldr	r0, [r4]
.Ltmp43:
	.loc	5 603 6 is_stmt 0       @ ../Drivers/STM32F1xx_HAL_Driver/Src/stm32f1xx_hal_pwr.c:603:6
	tst.w	r0, #65536
	.loc	5 611 1 is_stmt 1       @ ../Drivers/STM32F1xx_HAL_Driver/Src/stm32f1xx_hal_pwr.c:611:1
	it	eq
	popeq	{r4, pc}
.Ltmp44:
	.loc	5 606 5                 @ ../Drivers/STM32F1xx_HAL_Driver/Src/stm32f1xx_hal_pwr.c:606:5
	bl	HAL_PWR_PVDCallback
	.loc	5 609 5                 @ ../Drivers/STM32F1xx_HAL_Driver/Src/stm32f1xx_hal_pwr.c:609:5
	mov.w	r0, #65536
	str	r0, [r4]
.Ltmp45:
	.loc	5 611 1                 @ ../Drivers/STM32F1xx_HAL_Driver/Src/stm32f1xx_hal_pwr.c:611:1
	pop	{r4, pc}
.Ltmp46:
.Lfunc_end16:
	.size	HAL_PWR_PVD_IRQHandler, .Lfunc_end16-HAL_PWR_PVD_IRQHandler
	.cfi_endproc
	.cantunwind
	.fnend
                                        @ -- End function
	.section	.text.HAL_PWR_PVDCallback,"ax",%progbits
	.hidden	HAL_PWR_PVDCallback     @ -- Begin function HAL_PWR_PVDCallback
	.weak	HAL_PWR_PVDCallback
	.p2align	2
	.type	HAL_PWR_PVDCallback,%function
	.code	16                      @ @HAL_PWR_PVDCallback
	.thumb_func
HAL_PWR_PVDCallback:
.Lfunc_begin17:
	.loc	5 618 0                 @ ../Drivers/STM32F1xx_HAL_Driver/Src/stm32f1xx_hal_pwr.c:618:0
	.fnstart
	.cfi_startproc
@ %bb.0:
	.loc	5 622 1 prologue_end    @ ../Drivers/STM32F1xx_HAL_Driver/Src/stm32f1xx_hal_pwr.c:622:1
	bx	lr
.Ltmp47:
.Lfunc_end17:
	.size	HAL_PWR_PVDCallback, .Lfunc_end17-HAL_PWR_PVDCallback
	.cfi_endproc
	.cantunwind
	.fnend
                                        @ -- End function
	.file	7 "../Drivers/STM32F1xx_HAL_Driver/Inc" "stm32f1xx_hal_pwr.h"
	.section	".note.GNU-stack","",%progbits
	.eabi_attribute	30, 1	@ Tag_ABI_optimization_goals
	.ARM_attribute	16, 1	@ Tag_AV_eba