	.text
	.syntax unified
	.eabi_attribute	67, "2.09"	@ Tag_conformance
	.cpu	cortex-m3
	.eabi_attribute	6, 10	@ Tag_CPU_arch
	.eabi_attribute	7, 77	@ Tag_CPU_arch_profile
	.eabi_attribute	8, 0	@ Tag_ARM_ISA_use
	.eabi_attribute	9, 2	@ Tag_THUMB_ISA_use
	.eabi_attribute	34, 1	@ Tag_CPU_unaligned_access
	.eabi_attribute	17, 1	@ Tag_ABI_PCS_GOT_use
	.eabi_attribute	20, 2	@ Tag_ABI_FP_denormal
	.eabi_attribute	21, 0	@ Tag_ABI_FP_exceptions
	.eabi_attribute	23, 1	@ Tag_ABI_FP_number_model
	.eabi_attribute	24, 1	@ Tag_ABI_align_needed
	.eabi_attribute	25, 1	@ Tag_ABI_align_preserved
	.eabi_attribute	38, 1	@ Tag_ABI_FP_16bit_format
	.eabi_attribute	18, 4	@ Tag_ABI_PCS_wchar_t
	.eabi_attribute	26, 2	@ Tag_ABI_enum_size
	.eabi_attribute	14, 0	@ Tag_ABI_PCS_R9_use
	.file	"stm32f1xx_hal_tim.c"
	.file	1 "../Drivers/STM32F1xx_HAL_Driver/Inc" "stm32f1xx_hal_def.h"
	.file	2 "../Drivers/STM32F1xx_HAL_Driver/Inc" "stm32f1xx_hal_tim.h"
	.file	3 "../Drivers/STM32F1xx_HAL_Driver/Inc" "stm32f1xx_hal_dma.h"
	.file	4 "../Drivers/CMSIS/Device/ST/STM32F1xx/Include" "stm32f1xx.h"
	.file	5 "C:\\Keil\\ARM\\ARMCLANG\\Bin\\..\\include" "stdint.h"
	.file	6 "../Drivers/CMSIS/Device/ST/STM32F1xx/Include" "stm32f103xb.h"
	.section	.text.HAL_TIM_Base_Init,"ax",%progbits
	.hidden	HAL_TIM_Base_Init       @ -- Begin function HAL_TIM_Base_Init
	.globl	HAL_TIM_Base_Init
	.p2align	2
	.type	HAL_TIM_Base_Init,%function
	.code	16                      @ @HAL_TIM_Base_Init
	.thumb_func
HAL_TIM_Base_Init:
.Lfunc_begin0:
	.file	7 "../Drivers/STM32F1xx_HAL_Driver/Src" "stm32f1xx_hal_tim.c"
	.loc	7 207 0                 @ ../Drivers/STM32F1xx_HAL_Driver/Src/stm32f1xx_hal_tim.c:207:0
	.fnstart
	.cfi_sections .debug_frame
	.cfi_startproc
@ %bb.0:
	.save	{r4, lr}
	push	{r4, lr}
	.cfi_def_cfa_offset 8
	.cfi_offset lr, -4
	.cfi_offset r4, -8
	@DEBUG_VALUE: HAL_TIM_Base_Init:htim <- $r0
	mov	r4, r0
.Ltmp0:
	@DEBUG_VALUE: HAL_TIM_Base_Init:htim <- $r4
	.loc	7 209 6 prologue_end    @ ../Drivers/STM32F1xx_HAL_Driver/Src/stm32f1xx_hal_tim.c:209:6
	cmp	r0, #0
	itt	eq
	moveq	r0, #1
	.loc	7 239 1                 @ ../Drivers/STM32F1xx_HAL_Driver/Src/stm32f1xx_hal_tim.c:239:1
	popeq	{r4, pc}
.Ltmp1:
	.loc	7 220 12                @ ../Drivers/STM32F1xx_HAL_Driver/Src/stm32f1xx_hal_tim.c:220:12
	ldr	r0, [r4, #64]
.Ltmp2:
	.loc	7 220 6 is_stmt 0       @ ../Drivers/STM32F1xx_HAL_Driver/Src/stm32f1xx_hal_tim.c:220:6
	cbnz	r0, .LBB0_2
@ %bb.1:
.Ltmp3:
	.loc	7 223 16 is_stmt 1      @ ../Drivers/STM32F1xx_HAL_Driver/Src/stm32f1xx_hal_tim.c:223:16
	movs	r0, #0
	str	r0, [r4, #60]
	.loc	7 226 5                 @ ../Drivers/STM32F1xx_HAL_Driver/Src/stm32f1xx_hal_tim.c:226:5
	mov	r0, r4
	bl	HAL_TIM_Base_MspInit
.Ltmp4:
.LBB0_2:
	.loc	7 230 14                @ ../Drivers/STM32F1xx_HAL_Driver/Src/stm32f1xx_hal_tim.c:230:14
	movs	r0, #2
	str	r0, [r4, #64]
	.loc	7 233 28                @ ../Drivers/STM32F1xx_HAL_Driver/Src/stm32f1xx_hal_tim.c:233:28
	ldr	r0, [r4]
	.loc	7 233 45 is_stmt 0      @ ../Drivers/STM32F1xx_HAL_Driver/Src/stm32f1xx_hal_tim.c:233:45
	adds	r1, r4, #4
	.loc	7 233 3                 @ ../Drivers/STM32F1xx_HAL_Driver/Src/stm32f1xx_hal_tim.c:233:3
	bl	TIM_Base_SetConfig
	.loc	7 236 14 is_stmt 1      @ ../Drivers/STM32F1xx_HAL_Driver/Src/stm32f1xx_hal_tim.c:236:14
	movs	r0, #1
	str	r0, [r4, #64]
	movs	r0, #0
	.loc	7 239 1                 @ ../Drivers/STM32F1xx_HAL_Driver/Src/stm32f1xx_hal_tim.c:239:1
	pop	{r4, pc}
.Ltmp5:
.Lfunc_end0:
	.size	HAL_TIM_Base_Init, .Lfunc_end0-HAL_TIM_Base_Init
	.cfi_endproc
	.cantunwind
	.fnend
                                        @ -- End function
	.section	.text.HAL_TIM_Base_MspInit,"ax",%progbits
	.hidden	HAL_TIM_Base_MspInit    @ -- Begin function HAL_TIM_Base_MspInit
	.weak	HAL_TIM_Base_MspInit
	.p2align	2
	.type	HAL_TIM_Base_MspInit,%function
	.code	16                      @ @HAL_TIM_Base_MspInit
	.thumb_func
HAL_TIM_Base_MspInit:
.Lfunc_begin1:
	.loc	7 274 0                 @ ../Drivers/STM32F1xx_HAL_Driver/Src/stm32f1xx_hal_tim.c:274:0
	.fnstart
	.cfi_startproc
@ %bb.0:
	@DEBUG_VALUE: HAL_TIM_Base_MspInit:htim <- $r0
	.loc	7 280 1 prologue_end    @ ../Drivers/STM32F1xx_HAL_Driver/Src/stm32f1xx_hal_tim.c:280:1
	bx	lr
.Ltmp6:
.Lfunc_end1:
	.size	HAL_TIM_Base_MspInit, .Lfunc_end1-HAL_TIM_Base_MspInit
	.cfi_endproc
	.cantunwind
	.fnend
                                        @ -- End function
	.section	.text.TIM_Base_SetConfig,"ax",%progbits
	.hidden	TIM_Base_SetConfig      @ -- Begin function TIM_Base_SetConfig
	.globl	TIM_Base_SetConfig
	.p2align	2
	.type	TIM_Base_SetConfig,%function
	.code	16                      @ @TIM_Base_SetConfig
	.thumb_func
TIM_Base_SetConfig:
.Lfunc_begin2:
	.loc	7 4570 0                @ ../Drivers/STM32F1xx_HAL_Driver/Src/stm32f1xx_hal_tim.c:4570:0
	.fnstart
	.cfi_startproc
@ %bb.0:
	@DEBUG_VALUE: TIM_Base_SetConfig:TIMx <- $r0
	@DEBUG_VALUE: TIM_Base_SetConfig:TIMx <- $r0
	@DEBUG_VALUE: TIM_Base_SetConfig:Structure <- $r1
	@DEBUG_VALUE: TIM_Base_SetConfig:Structure <- $r1
	@DEBUG_VALUE: TIM_Base_SetConfig:tmpcr1 <- 0
	.loc	7 4572 18 prologue_end  @ ../Drivers/STM32F1xx_HAL_Driver/Src/stm32f1xx_hal_tim.c:4572:18
	ldr	r2, [r0]
.Ltmp7:
	@DEBUG_VALUE: TIM_Base_SetConfig:tmpcr1 <- $r2
	.loc	7 4575 7                @ ../Drivers/STM32F1xx_HAL_Driver/Src/stm32f1xx_hal_tim.c:4575:7
	movw	r3, #2047
	movt	r3, #16384
	cmp	r0, r3
	bgt	.LBB2_3
.Ltmp8:
@ %bb.1:
	@DEBUG_VALUE: TIM_Base_SetConfig:tmpcr1 <- $r2
	@DEBUG_VALUE: TIM_Base_SetConfig:Structure <- $r1
	@DEBUG_VALUE: TIM_Base_SetConfig:TIMx <- $r0
	cmp.w	r0, #1073741824
	beq	.LBB2_6
.Ltmp9:
@ %bb.2:
	@DEBUG_VALUE: TIM_Base_SetConfig:tmpcr1 <- $r2
	@DEBUG_VALUE: TIM_Base_SetConfig:Structure <- $r1
	@DEBUG_VALUE: TIM_Base_SetConfig:TIMx <- $r0
	.loc	7 0 7 is_stmt 0         @ ../Drivers/STM32F1xx_HAL_Driver/Src/stm32f1xx_hal_tim.c:0:7
	movw	r3, #1024
	b	.LBB2_5
.Ltmp10:
.LBB2_3:
	@DEBUG_VALUE: TIM_Base_SetConfig:tmpcr1 <- $r2
	@DEBUG_VALUE: TIM_Base_SetConfig:Structure <- $r1
	@DEBUG_VALUE: TIM_Base_SetConfig:TIMx <- $r0
	movw	r3, #11264
	movt	r3, #16385
	.loc	7 4575 7                @ ../Drivers/STM32F1xx_HAL_Driver/Src/stm32f1xx_hal_tim.c:4575:7
	cmp	r0, r3
	beq	.LBB2_6
.Ltmp11:
@ %bb.4:
	@DEBUG_VALUE: TIM_Base_SetConfig:tmpcr1 <- $r2
	@DEBUG_VALUE: TIM_Base_SetConfig:Structure <- $r1
	@DEBUG_VALUE: TIM_Base_SetConfig:TIMx <- $r0
	.loc	7 0 7                   @ ../Drivers/STM32F1xx_HAL_Driver/Src/stm32f1xx_hal_tim.c:0:7
	movw	r3, #2048
.Ltmp12:
.LBB2_5:
	@DEBUG_VALUE: TIM_Base_SetConfig:tmpcr1 <- $r2
	@DEBUG_VALUE: TIM_Base_SetConfig:Structure <- $r1
	@DEBUG_VALUE: TIM_Base_SetConfig:TIMx <- $r0
	movt	r3, #16384
	.loc	7 4575 7                @ ../Drivers/STM32F1xx_HAL_Driver/Src/stm32f1xx_hal_tim.c:4575:7
	cmp	r0, r3
	bne	.LBB2_7
.Ltmp13:
.LBB2_6:
	@DEBUG_VALUE: TIM_Base_SetConfig:tmpcr1 <- $r2
	@DEBUG_VALUE: TIM_Base_SetConfig:Structure <- $r1
	@DEBUG_VALUE: TIM_Base_SetConfig:TIMx <- $r0
	.loc	7 4578 12 is_stmt 1     @ ../Drivers/STM32F1xx_HAL_Driver/Src/stm32f1xx_hal_tim.c:4578:12
	bic	r12, r2, #880
.Ltmp14:
	@DEBUG_VALUE: TIM_Base_SetConfig:tmpcr1 <- $r12
	.loc	7 4579 26               @ ../Drivers/STM32F1xx_HAL_Driver/Src/stm32f1xx_hal_tim.c:4579:26
	ldr	r3, [r1, #4]
.Ltmp15:
	.loc	7 4586 36               @ ../Drivers/STM32F1xx_HAL_Driver/Src/stm32f1xx_hal_tim.c:4586:36
	ldr	r2, [r1, #12]
	.loc	7 4585 12               @ ../Drivers/STM32F1xx_HAL_Driver/Src/stm32f1xx_hal_tim.c:4585:12
	bic	r3, r3, #768
	orr.w	r3, r3, r12
.Ltmp16:
	@DEBUG_VALUE: TIM_Base_SetConfig:tmpcr1 <- $r3
	.loc	7 4586 12               @ ../Drivers/STM32F1xx_HAL_Driver/Src/stm32f1xx_hal_tim.c:4586:12
	orrs	r2, r3
.Ltmp17:
	@DEBUG_VALUE: TIM_Base_SetConfig:tmpcr1 <- $r2
.LBB2_7:
	@DEBUG_VALUE: TIM_Base_SetConfig:tmpcr1 <- $r2
	@DEBUG_VALUE: TIM_Base_SetConfig:Structure <- $r1
	@DEBUG_VALUE: TIM_Base_SetConfig:TIMx <- $r0
	@DEBUG_VALUE: TIM_Base_SetConfig:tmpcr1 <- $r2
	.loc	7 4591 34               @ ../Drivers/STM32F1xx_HAL_Driver/Src/stm32f1xx_hal_tim.c:4591:34
	ldr	r3, [r1, #20]
	.loc	7 4590 10               @ ../Drivers/STM32F1xx_HAL_Driver/Src/stm32f1xx_hal_tim.c:4590:10
	bic	r2, r2, #128
.Ltmp18:
	@DEBUG_VALUE: TIM_Base_SetConfig:tmpcr1 <- $r2
	.loc	7 4591 10               @ ../Drivers/STM32F1xx_HAL_Driver/Src/stm32f1xx_hal_tim.c:4591:10
	orrs	r2, r3
.Ltmp19:
	@DEBUG_VALUE: TIM_Base_SetConfig:tmpcr1 <- $r2
	.loc	7 4593 13               @ ../Drivers/STM32F1xx_HAL_Driver/Src/stm32f1xx_hal_tim.c:4593:13
	str	r2, [r0]
	.loc	7 4596 36               @ ../Drivers/STM32F1xx_HAL_Driver/Src/stm32f1xx_hal_tim.c:4596:36
	ldr	r2, [r1, #8]
.Ltmp20:
	.loc	7 4596 13 is_stmt 0     @ ../Drivers/STM32F1xx_HAL_Driver/Src/stm32f1xx_hal_tim.c:4596:13
	str	r2, [r0, #44]
	.loc	7 4599 36 is_stmt 1     @ ../Drivers/STM32F1xx_HAL_Driver/Src/stm32f1xx_hal_tim.c:4599:36
	ldr	r2, [r1]
	.loc	7 4599 13 is_stmt 0     @ ../Drivers/STM32F1xx_HAL_Driver/Src/stm32f1xx_hal_tim.c:4599:13
	str	r2, [r0, #40]
.Ltmp21:
	.loc	7 4575 7 is_stmt 1      @ ../Drivers/STM32F1xx_HAL_Driver/Src/stm32f1xx_hal_tim.c:4575:7
	movw	r2, #11264
	movt	r2, #16385
.Ltmp22:
	.loc	7 4601 7                @ ../Drivers/STM32F1xx_HAL_Driver/Src/stm32f1xx_hal_tim.c:4601:7
	cmp	r0, r2
.Ltmp23:
	.loc	7 4604 28               @ ../Drivers/STM32F1xx_HAL_Driver/Src/stm32f1xx_hal_tim.c:4604:28
	itt	eq
	ldreq	r1, [r1, #16]
.Ltmp24:
	.loc	7 4604 15 is_stmt 0     @ ../Drivers/STM32F1xx_HAL_Driver/Src/stm32f1xx_hal_tim.c:4604:15
	streq	r1, [r0, #48]
.Ltmp25:
	.loc	7 4609 13 is_stmt 1     @ ../Drivers/STM32F1xx_HAL_Driver/Src/stm32f1xx_hal_tim.c:4609:13
	movs	r1, #1
	str	r1, [r0, #20]
	.loc	7 4610 1                @ ../Drivers/STM32F1xx_HAL_Driver/Src/stm32f1xx_hal_tim.c:4610:1
	bx	lr
.Ltmp26:
.Lfunc_end2:
	.size	TIM_Base_SetConfig, .Lfunc_end2-TIM_Base_SetConfig
	.cfi_endproc
	.cantunwind
	.fnend
                                        @ -- End function
	.section	.text.HAL_TIM_Base_DeInit,"ax",%progbits
	.hidden	HAL_TIM_Base_DeInit     @ -- Begin function HAL_TIM_Base_DeInit
	.globl	HAL_TIM_Base_DeInit
	.p2align	2
	.type	HAL_TIM_Base_DeInit,%function
	.code	16                      @ @HAL_TIM_Base_DeInit
	.thumb_func
HAL_TIM_Base_DeInit:
.Lfunc_begin3:
	.loc	7 247 0                 @ ../Drivers/STM32F1xx_HAL_Driver/Src/stm32f1xx_hal_tim.c:247:0
	.fnstart
	.cfi_startproc
@ %bb.0:
	.save	{r4, lr}
	push	{r4, lr}
	.cfi_def_cfa_offset 8
	.cfi_offset lr, -4
	.cfi_offset r4, -8
	@DEBUG_VALUE: HAL_TIM_Base_DeInit:htim <- $r0
	mov	r4, r0
.Ltmp27:
	@DEBUG_VALUE: HAL_TIM_Base_DeInit:htim <- $r4
	.loc	7 251 15 prologue_end   @ ../Drivers/STM32F1xx_HAL_Driver/Src/stm32f1xx_hal_tim.c:251:15
	movs	r0, #2
	str	r0, [r4, #64]
.Ltmp28:
	.loc	7 254 3                 @ ../Drivers/STM32F1xx_HAL_Driver/Src/stm32f1xx_hal_tim.c:254:3
	ldr	r0, [r4]
	ldr	r1, [r0, #32]
	movw	r2, #4369
.Ltmp29:
	.loc	7 254 3 is_stmt 0       @ ../Drivers/STM32F1xx_HAL_Driver/Src/stm32f1xx_hal_tim.c:254:3
	tst	r1, r2
	bne	.LBB3_3
.Ltmp30:
@ %bb.1:
	@DEBUG_VALUE: HAL_TIM_Base_DeInit:htim <- $r4
	.loc	7 254 3                 @ ../Drivers/STM32F1xx_HAL_Driver/Src/stm32f1xx_hal_tim.c:254:3
	ldr	r1, [r0, #32]
	movw	r2, #1092
.Ltmp31:
	.loc	7 254 3                 @ ../Drivers/STM32F1xx_HAL_Driver/Src/stm32f1xx_hal_tim.c:254:3
	tst	r1, r2
	bne	.LBB3_3
.Ltmp32:
@ %bb.2:
	@DEBUG_VALUE: HAL_TIM_Base_DeInit:htim <- $r4
	.loc	7 254 3                 @ ../Drivers/STM32F1xx_HAL_Driver/Src/stm32f1xx_hal_tim.c:254:3
	ldr	r1, [r0]
	bic	r1, r1, #1
	str	r1, [r0]
.Ltmp33:
.LBB3_3:
	@DEBUG_VALUE: HAL_TIM_Base_DeInit:htim <- $r4
	.loc	7 257 3 is_stmt 1       @ ../Drivers/STM32F1xx_HAL_Driver/Src/stm32f1xx_hal_tim.c:257:3
	mov	r0, r4
	bl	HAL_TIM_Base_MspDeInit
	movs	r0, #0
.Ltmp34:
	.loc	7 263 3                 @ ../Drivers/STM32F1xx_HAL_Driver/Src/stm32f1xx_hal_tim.c:263:3
	str	r0, [r4, #60]
.Ltmp35:
	.loc	7 260 15                @ ../Drivers/STM32F1xx_HAL_Driver/Src/stm32f1xx_hal_tim.c:260:15
	str	r0, [r4, #64]
	.loc	7 265 3                 @ ../Drivers/STM32F1xx_HAL_Driver/Src/stm32f1xx_hal_tim.c:265:3
	movs	r0, #0
	pop	{r4, pc}
.Ltmp36:
.Lfunc_end3:
	.size	HAL_TIM_Base_DeInit, .Lfunc_end3-HAL_TIM_Base_DeInit
	.cfi_endproc
	.cantunwind
	.fnend
                                        @ -- End function
	.section	.text.HAL_TIM_Base_MspDeInit,"ax",%progbits
	.hidden	HAL_TIM_Base_MspDeInit  @ -- Begin function HAL_TIM_Base_MspDeInit
	.weak	HAL_TIM_Base_MspDeInit
	.p2align	2
	.type	HAL_TIM_Base_MspDeInit,%function
	.code	16                      @ @HAL_TIM_Base_MspDeInit
	.thumb_func
HAL_TIM_Base_MspDeInit:
.Lfunc_begin4:
	.loc	7 288 0                 @ ../Drivers/STM32F1xx_HAL_Driver/Src/stm32f1xx_hal_tim.c:288:0
	.fnstart
	.cfi_startproc
@ %bb.0:
	@DEBUG_VALUE: HAL_TIM_Base_MspDeInit:htim <- $r0
	.loc	7 294 1 prologue_end    @ ../Drivers/STM32F1xx_HAL_Driver/Src/stm32f1xx_hal_tim.c:294:1
	bx	lr
.Ltmp37:
.Lfunc_end4:
	.size	HAL_TIM_Base_MspDeInit, .Lfunc_end4-HAL_TIM_Base_MspDeInit
	.cfi_endproc
	.cantunwind
	.fnend
                                        @ -- End function
	.section	.text.HAL_TIM_Base_Start,"ax",%progbits
	.hidden	HAL_TIM_Base_Start      @ -- Begin function HAL_TIM_Base_Start
	.globl	HAL_TIM_Base_Start
	.p2align	2
	.type	HAL_TIM_Base_Start,%function
	.code	16                      @ @HAL_TIM_Base_Start
	.thumb_func
HAL_TIM_Base_Start:
.Lfunc_begin5:
	.loc	7 303 0                 @ ../Drivers/STM32F1xx_HAL_Driver/Src/stm32f1xx_hal_tim.c:303:0
	.fnstart
	.cfi_startproc
@ %bb.0:
	@DEBUG_VALUE: HAL_TIM_Base_Start:htim <- $r0
	@DEBUG_VALUE: HAL_TIM_Base_Start:htim <- $r0
	.loc	7 308 14 prologue_end   @ ../Drivers/STM32F1xx_HAL_Driver/Src/stm32f1xx_hal_tim.c:308:14
	movs	r1, #2
	str	r1, [r0, #64]
	.loc	7 311 3                 @ ../Drivers/STM32F1xx_HAL_Driver/Src/stm32f1xx_hal_tim.c:311:3
	ldr	r1, [r0]
	ldr	r2, [r1]
	orr	r2, r2, #1
	str	r2, [r1]
	movs	r1, #1
	.loc	7 314 14                @ ../Drivers/STM32F1xx_HAL_Driver/Src/stm32f1xx_hal_tim.c:314:14
	str	r1, [r0, #64]
	.loc	7 317 3                 @ ../Drivers/STM32F1xx_HAL_Driver/Src/stm32f1xx_hal_tim.c:317:3
	movs	r0, #0
	bx	lr
.Ltmp38:
.Lfunc_end5:
	.size	HAL_TIM_Base_Start, .Lfunc_end5-HAL_TIM_Base_Start
	.cfi_endproc
	.cantunwind
	.fnend
                                        @ -- End function
	.section	.text.HAL_TIM_Base_Stop,"ax",%progbits
	.hidden	HAL_TIM_Base_Stop       @ -- Begin function HAL_TIM_Base_Stop
	.globl	HAL_TIM_Base_Stop
	.p2align	2
	.type	HAL_TIM_Base_Stop,%function
	.code	16                      @ @HAL_TIM_Base_Stop
	.thumb_func
HAL_TIM_Base_Stop:
.Lfunc_begin6:
	.loc	7 326 0                 @ ../Drivers/STM32F1xx_HAL_Driver/Src/stm32f1xx_hal_tim.c:326:0
	.fnstart
	.cfi_startproc
@ %bb.0:
	@DEBUG_VALUE: HAL_TIM_Base_Stop:htim <- $r0
	@DEBUG_VALUE: HAL_TIM_Base_Stop:htim <- $r0
	.loc	7 331 14 prologue_end   @ ../Drivers/STM32F1xx_HAL_Driver/Src/stm32f1xx_hal_tim.c:331:14
	movs	r1, #2
	str	r1, [r0, #64]
.Ltmp39:
	.loc	7 334 3                 @ ../Drivers/STM32F1xx_HAL_Driver/Src/stm32f1xx_hal_tim.c:334:3
	ldr	r1, [r0]
	ldr	r2, [r1, #32]
	movw	r3, #4369
.Ltmp40:
	.loc	7 334 3 is_stmt 0       @ ../Drivers/STM32F1xx_HAL_Driver/Src/stm32f1xx_hal_tim.c:334:3
	tst	r2, r3
	bne	.LBB6_3
@ %bb.1:
	@DEBUG_VALUE: HAL_TIM_Base_Stop:htim <- $r0
.Ltmp41:
	.loc	7 334 3                 @ ../Drivers/STM32F1xx_HAL_Driver/Src/stm32f1xx_hal_tim.c:334:3
	ldr	r2, [r1, #32]
	movw	r3, #1092
.Ltmp42:
	.loc	7 334 3                 @ ../Drivers/STM32F1xx_HAL_Driver/Src/stm32f1xx_hal_tim.c:334:3
	tst	r2, r3
	bne	.LBB6_3
@ %bb.2:
	@DEBUG_VALUE: HAL_TIM_Base_Stop:htim <- $r0
.Ltmp43:
	.loc	7 334 3                 @ ../Drivers/STM32F1xx_HAL_Driver/Src/stm32f1xx_hal_tim.c:334:3
	ldr	r2, [r1]
	bic	r2, r2, #1
	str	r2, [r1]
.Ltmp44:
.LBB6_3:
	@DEBUG_VALUE: HAL_TIM_Base_Stop:htim <- $r0
	.loc	7 337 14 is_stmt 1      @ ../Drivers/STM32F1xx_HAL_Driver/Src/stm32f1xx_hal_tim.c:337:14
	movs	r1, #1
	str	r1, [r0, #64]
	.loc	7 340 3                 @ ../Drivers/STM32F1xx_HAL_Driver/Src/stm32f1xx_hal_tim.c:340:3
	movs	r0, #0
	bx	lr
.Ltmp45:
.Lfunc_end6:
	.size	HAL_TIM_Base_Stop, .Lfunc_end6-HAL_TIM_Base_Stop
	.cfi_endproc
	.cantunwind
	.fnend
                                        @ -- End function
	.section	.text.HAL_TIM_Base_Start_IT,"ax",%progbits
	.hidden	HAL_TIM_Base_Start_IT   @ -- Begin function HAL_TIM_Base_Start_IT
	.globl	HAL_TIM_Base_Start_IT
	.p2align	2
	.type	HAL_TIM_Base_Start_IT,%function
	.code	16                      @ @HAL_TIM_Base_Start_IT
	.thumb_func
HAL_TIM_Base_Start_IT:
.Lfunc_begin7:
	.loc	7 349 0                 @ ../Drivers/STM32F1xx_HAL_Driver/Src/stm32f1xx_hal_tim.c:349:0
	.fnstart
	.cfi_startproc
@ %bb.0:
	@DEBUG_VALUE: HAL_TIM_Base_Start_IT:htim <- $r0
	@DEBUG_VALUE: HAL_TIM_Base_Start_IT:htim <- $r0
	.loc	7 354 4 prologue_end    @ ../Drivers/STM32F1xx_HAL_Driver/Src/stm32f1xx_hal_tim.c:354:4
	ldr	r0, [r0]
.Ltmp46:
	ldr	r1, [r0, #12]
	orr	r1, r1, #1
	str	r1, [r0, #12]
	.loc	7 357 3                 @ ../Drivers/STM32F1xx_HAL_Driver/Src/stm32f1xx_hal_tim.c:357:3
	ldr	r1, [r0]
	orr	r1, r1, #1
	str	r1, [r0]
	.loc	7 360 3                 @ ../Drivers/STM32F1xx_HAL_Driver/Src/stm32f1xx_hal_tim.c:360:3
	movs	r0, #0
	bx	lr
.Ltmp47:
.Lfunc_end7:
	.size	HAL_TIM_Base_Start_IT, .Lfunc_end7-HAL_TIM_Base_Start_IT
	.cfi_endproc
	.cantunwind
	.fnend
                                        @ -- End function
	.section	.text.HAL_TIM_Base_Stop_IT,"ax",%progbits
	.hidden	HAL_TIM_Base_Stop_IT    @ -- Begin function HAL_TIM_Base_Stop_IT
	.globl	HAL_TIM_Base_Stop_IT
	.p2align	2
	.type	HAL_TIM_Base_Stop_IT,%function
	.code	16                      @ @HAL_TIM_Base_Stop_IT
	.thumb_func
HAL_TIM_Base_Stop_IT:
.Lfunc_begin8:
	.loc	7 369 0                 @ ../Drivers/STM32F1xx_HAL_Driver/Src/stm32f1xx_hal_tim.c:369:0
	.fnstart
	.cfi_startproc
@ %bb.0:
	@DEBUG_VALUE: HAL_TIM_Base_Stop_IT:htim <- $r0
	@DEBUG_VALUE: HAL_TIM_Base_Stop_IT:htim <- $r0
	.loc	7 373 3 prologue_end    @ ../Drivers/STM32F1xx_HAL_Driver/Src/stm32f1xx_hal_tim.c:373:3
	ldr	r0, [r0]
.Ltmp48:
	ldr	r1, [r0, #12]
	bic	r1, r1, #1
	str	r1, [r0, #12]
.Ltmp49:
	.loc	7 376 3                 @ ../Drivers/STM32F1xx_HAL_Driver/Src/stm32f1xx_hal_tim.c:376:3
	ldr	r1, [r0, #32]
	movw	r2, #4369
.Ltmp50:
	.loc	7 376 3 is_stmt 0       @ ../Drivers/STM32F1xx_HAL_Driver/Src/stm32f1xx_hal_tim.c:376:3
	tst	r1, r2
	bne	.LBB8_2
@ %bb.1:
.Ltmp51:
	.loc	7 376 3                 @ ../Drivers/STM32F1xx_HAL_Driver/Src/stm32f1xx_hal_tim.c:376:3
	ldr	r1, [r0, #32]
	movw	r2, #1092
.Ltmp52:
	.loc	7 376 3                 @ ../Drivers/STM32F1xx_HAL_Driver/Src/stm32f1xx_hal_tim.c:376:3
	tst	r1, r2
	beq	.LBB8_3
.Ltmp53:
.LBB8_2:
	.loc	7 379 3 is_stmt 1       @ ../Drivers/STM32F1xx_HAL_Driver/Src/stm32f1xx_hal_tim.c:379:3
	movs	r0, #0
	bx	lr
.LBB8_3:
.Ltmp54:
	.loc	7 376 3                 @ ../Drivers/STM32F1xx_HAL_Driver/Src/stm32f1xx_hal_tim.c:376:3
	ldr	r1, [r0]
	bic	r1, r1, #1
	str	r1, [r0]
.Ltmp55:
	.loc	7 379 3                 @ ../Drivers/STM32F1xx_HAL_Driver/Src/stm32f1xx_hal_tim.c:379:3
	movs	r0, #0
	bx	lr
.Ltmp56:
.Lfunc_end8:
	.size	HAL_TIM_Base_Stop_IT, .Lfunc_end8-HAL_TIM_Base_Stop_IT
	.cfi_endproc
	.cantunwind
	.fnend
                                        @ -- End function
	.section	.text.HAL_TIM_Base_Start_DMA,"ax",%progbits
	.hidden	HAL_TIM_Base_Start_DMA  @ -- Begin function HAL_TIM_Base_Start_DMA
	.globl	HAL_TIM_Base_Start_DMA
	.p2align	2
	.type	HAL_TIM_Base_Start_DMA,%function
	.code	16                      @ @HAL_TIM_Base_Start_DMA
	.thumb_func
HAL_TIM_Base_Start_DMA:
.Lfunc_begin9:
	.loc	7 390 0                 @ ../Drivers/STM32F1xx_HAL_Driver/Src/stm32f1xx_hal_tim.c:390:0
	.fnstart
	.cfi_startproc
@ %bb.0:
	.save	{r4, lr}
	push	{r4, lr}
	.cfi_def_cfa_offset 8
	.cfi_offset lr, -4
	.cfi_offset r4, -8
	@DEBUG_VALUE: HAL_TIM_Base_Start_DMA:htim <- $r0
	@DEBUG_VALUE: HAL_TIM_Base_Start_DMA:pData <- $r1
	@DEBUG_VALUE: HAL_TIM_Base_Start_DMA:Length <- $r2
	mov	r3, r2
	mov	r4, r0
.Ltmp57:
	@DEBUG_VALUE: HAL_TIM_Base_Start_DMA:Length <- $r3
	@DEBUG_VALUE: HAL_TIM_Base_Start_DMA:pData <- $r1
	@DEBUG_VALUE: HAL_TIM_Base_Start_DMA:htim <- $r4
	.loc	7 394 13 prologue_end   @ ../Drivers/STM32F1xx_HAL_Driver/Src/stm32f1xx_hal_tim.c:394:13
	ldr	r0, [r0, #64]
.Ltmp58:
	.loc	7 394 6 is_stmt 0       @ ../Drivers/STM32F1xx_HAL_Driver/Src/stm32f1xx_hal_tim.c:394:6
	cmp	r0, #2
	itt	eq
	moveq	r0, #2
	.loc	7 426 1 is_stmt 1       @ ../Drivers/STM32F1xx_HAL_Driver/Src/stm32f1xx_hal_tim.c:426:1
	popeq	{r4, pc}
.Ltmp59:
	.loc	7 398 18                @ ../Drivers/STM32F1xx_HAL_Driver/Src/stm32f1xx_hal_tim.c:398:18
	ldr	r0, [r4, #64]
.Ltmp60:
	.loc	7 398 11 is_stmt 0      @ ../Drivers/STM32F1xx_HAL_Driver/Src/stm32f1xx_hal_tim.c:398:11
	cmp	r0, #1
	bne	.LBB9_4
.Ltmp61:
@ %bb.1:
	@DEBUG_VALUE: HAL_TIM_Base_Start_DMA:Length <- $r3
	@DEBUG_VALUE: HAL_TIM_Base_Start_DMA:pData <- $r1
	.loc	7 400 22 is_stmt 1      @ ../Drivers/STM32F1xx_HAL_Driver/Src/stm32f1xx_hal_tim.c:400:22
	cbnz	r1, .LBB9_3
.Ltmp62:
@ %bb.2:
	@DEBUG_VALUE: HAL_TIM_Base_Start_DMA:Length <- $r3
	@DEBUG_VALUE: HAL_TIM_Base_Start_DMA:pData <- $r1
	cmp	r3, #0
	itt	ne
	movne	r0, #1
.Ltmp63:
	.loc	7 426 1                 @ ../Drivers/STM32F1xx_HAL_Driver/Src/stm32f1xx_hal_tim.c:426:1
	popne	{r4, pc}
.Ltmp64:
.LBB9_3:
	@DEBUG_VALUE: HAL_TIM_Base_Start_DMA:Length <- $r3
	@DEBUG_VALUE: HAL_TIM_Base_Start_DMA:pData <- $r1
	.loc	7 406 19                @ ../Drivers/STM32F1xx_HAL_Driver/Src/stm32f1xx_hal_tim.c:406:19
	movs	r0, #2
	str	r0, [r4, #64]
.Ltmp65:
.LBB9_4:
	@DEBUG_VALUE: HAL_TIM_Base_Start_DMA:Length <- $r3
	@DEBUG_VALUE: HAL_TIM_Base_Start_DMA:pData <- $r1
	@DEBUG_VALUE: HAL_TIM_Base_Start_DMA:Length <- $r3
	.loc	7 410 3                 @ ../Drivers/STM32F1xx_HAL_Driver/Src/stm32f1xx_hal_tim.c:410:3
	ldr	r0, [r4, #32]
	.loc	7 410 51 is_stmt 0      @ ../Drivers/STM32F1xx_HAL_Driver/Src/stm32f1xx_hal_tim.c:410:51
	movw	r2, :lower16:TIM_DMAPeriodElapsedCplt
	movt	r2, :upper16:TIM_DMAPeriodElapsedCplt
	str	r2, [r0, #44]
	.loc	7 413 3 is_stmt 1       @ ../Drivers/STM32F1xx_HAL_Driver/Src/stm32f1xx_hal_tim.c:413:3
	ldr	r0, [r4, #32]
	.loc	7 413 52 is_stmt 0      @ ../Drivers/STM32F1xx_HAL_Driver/Src/stm32f1xx_hal_tim.c:413:52
	movw	r2, :lower16:TIM_DMAError
	movt	r2, :upper16:TIM_DMAError
	str	r2, [r0, #52]
	.loc	7 416 85 is_stmt 1      @ ../Drivers/STM32F1xx_HAL_Driver/Src/stm32f1xx_hal_tim.c:416:85
	ldr	r2, [r4]
	.loc	7 416 20 is_stmt 0      @ ../Drivers/STM32F1xx_HAL_Driver/Src/stm32f1xx_hal_tim.c:416:20
	ldr	r0, [r4, #32]
	.loc	7 416 95                @ ../Drivers/STM32F1xx_HAL_Driver/Src/stm32f1xx_hal_tim.c:416:95
	adds	r2, #44
	.loc	7 416 3                 @ ../Drivers/STM32F1xx_HAL_Driver/Src/stm32f1xx_hal_tim.c:416:3
	bl	HAL_DMA_Start_IT
.Ltmp66:
	.loc	7 419 3 is_stmt 1       @ ../Drivers/STM32F1xx_HAL_Driver/Src/stm32f1xx_hal_tim.c:419:3
	ldr	r0, [r4]
	ldr	r1, [r0, #12]
	orr	r1, r1, #256
	str	r1, [r0, #12]
	.loc	7 422 3                 @ ../Drivers/STM32F1xx_HAL_Driver/Src/stm32f1xx_hal_tim.c:422:3
	ldr	r1, [r0]
	orr	r1, r1, #1
	str	r1, [r0]
	movs	r0, #0
	.loc	7 426 1                 @ ../Drivers/STM32F1xx_HAL_Driver/Src/stm32f1xx_hal_tim.c:426:1
	pop	{r4, pc}
.Ltmp67:
.Lfunc_end9:
	.size	HAL_TIM_Base_Start_DMA, .Lfunc_end9-HAL_TIM_Base_Start_DMA
	.cfi_endproc
	.cantunwind
	.fnend
                                        @ -- End function
	.section	.text.TIM_DMAPeriodElapsedCplt,"ax",%progbits
	.p2align	2               @ -- Begin function TIM_DMAPeriodElapsedCplt
	.type	TIM_DMAPeriodElapsedCplt,%function
	.code	16                      @ @TIM_DMAPeriodElapsedCplt
	.thumb_func
TIM_DMAPeriodElapsedCplt:
.Lfunc_begin10:
	.loc	7 4541 0                @ ../Drivers/STM32F1xx_HAL_Driver/Src/stm32f1xx_hal_tim.c:4541:0
	.fnstart
	.cfi_startproc
@ %bb.0:
	@DEBUG_VALUE: TIM_DMAPeriodElapsedCplt:hdma <- $r0
	@DEBUG_VALUE: TIM_DMAPeriodElapsedCplt:hdma <- $r0
	.loc	7 4542 80 prologue_end  @ ../Drivers/STM32F1xx_HAL_Driver/Src/stm32f1xx_hal_tim.c:4542:80
	ldr	r0, [r0, #40]
.Ltmp68:
	@DEBUG_VALUE: TIM_DMAPeriodElapsedCplt:htim <- $r0
	.loc	7 4544 14               @ ../Drivers/STM32F1xx_HAL_Driver/Src/stm32f1xx_hal_tim.c:4544:14
	movs	r1, #1
	str	r1, [r0, #64]
	.loc	7 4546 3                @ ../Drivers/STM32F1xx_HAL_Driver/Src/stm32f1xx_hal_tim.c:4546:3
	b	HAL_TIM_PeriodElapsedCallback
.Ltmp69:
.Lfunc_end10:
	.size	TIM_DMAPeriodElapsedCplt, .Lfunc_end10-TIM_DMAPeriodElapsedCplt
	.cfi_endproc
	.cantunwind
	.fnend
                                        @ -- End function
	.section	.text.TIM_DMAError,"ax",%progbits
	.hidden	TIM_DMAError            @ -- Begin function TIM_DMAError
	.globl	TIM_DMAError
	.p2align	2
	.type	TIM_DMAError,%function
	.code	16                      @ @TIM_DMAError
	.thumb_func
TIM_DMAError:
.Lfunc_begin11:
	.loc	7 4462 0                @ ../Drivers/STM32F1xx_HAL_Driver/Src/stm32f1xx_hal_tim.c:4462:0
	.fnstart
	.cfi_startproc
@ %bb.0:
	@DEBUG_VALUE: TIM_DMAError:hdma <- $r0
	@DEBUG_VALUE: TIM_DMAError:hdma <- $r0
	.loc	7 4463 80 prologue_end  @ ../Drivers/STM32F1xx_HAL_Driver/Src/stm32f1xx_hal_tim.c:4463:80
	ldr	r0, [r0, #40]
.Ltmp70:
	@DEBUG_VALUE: TIM_DMAError:htim <- $r0
	.loc	7 4465 14               @ ../Drivers/STM32F1xx_HAL_Driver/Src/stm32f1xx_hal_tim.c:4465:14
	movs	r1, #1
	str	r1, [r0, #64]
	.loc	7 4467 3                @ ../Drivers/STM32F1xx_HAL_Driver/Src/stm32f1xx_hal_tim.c:4467:3
	b	HAL_TIM_ErrorCallback
.Ltmp71:
.Lfunc_end11:
	.size	TIM_DMAError, .Lfunc_end11-TIM_DMAError
	.cfi_endproc
	.cantunwind
	.fnend
                                        @ -- End function
	.section	.text.HAL_TIM_Base_Stop_DMA,"ax",%progbits
	.hidden	HAL_TIM_Base_Stop_DMA   @ -- Begin function HAL_TIM_Base_Stop_DMA
	.globl	HAL_TIM_Base_Stop_DMA
	.p2align	2
	.type	HAL_TIM_Base_Stop_DMA,%function
	.code	16                      @ @HAL_TIM_Base_Stop_DMA
	.thumb_func
HAL_TIM_Base_Stop_DMA:
.Lfunc_begin12:
	.loc	7 434 0                 @ ../Drivers/STM32F1xx_HAL_Driver/Src/stm32f1xx_hal_tim.c:434:0
	.fnstart
	.cfi_startproc
@ %bb.0:
	@DEBUG_VALUE: HAL_TIM_Base_Stop_DMA:htim <- $r0
	@DEBUG_VALUE: HAL_TIM_Base_Stop_DMA:htim <- $r0
	.loc	7 439 3 prologue_end    @ ../Drivers/STM32F1xx_HAL_Driver/Src/stm32f1xx_hal_tim.c:439:3
	ldr	r1, [r0]
	ldr	r2, [r1, #12]
	bic	r2, r2, #256
	str	r2, [r1, #12]
.Ltmp72:
	.loc	7 442 3                 @ ../Drivers/STM32F1xx_HAL_Driver/Src/stm32f1xx_hal_tim.c:442:3
	ldr	r2, [r1, #32]
	movw	r3, #4369
.Ltmp73:
	.loc	7 442 3 is_stmt 0       @ ../Drivers/STM32F1xx_HAL_Driver/Src/stm32f1xx_hal_tim.c:442:3
	tst	r2, r3
	bne	.LBB12_3
@ %bb.1:
	@DEBUG_VALUE: HAL_TIM_Base_Stop_DMA:htim <- $r0
.Ltmp74:
	.loc	7 442 3                 @ ../Drivers/STM32F1xx_HAL_Driver/Src/stm32f1xx_hal_tim.c:442:3
	ldr	r2, [r1, #32]
	movw	r3, #1092
.Ltmp75:
	.loc	7 442 3                 @ ../Drivers/STM32F1xx_HAL_Driver/Src/stm32f1xx_hal_tim.c:442:3
	tst	r2, r3
	bne	.LBB12_3
@ %bb.2:
	@DEBUG_VALUE: HAL_TIM_Base_Stop_DMA:htim <- $r0
.Ltmp76:
	.loc	7 442 3                 @ ../Drivers/STM32F1xx_HAL_Driver/Src/stm32f1xx_hal_tim.c:442:3
	ldr	r2, [r1]
	bic	r2, r2, #1
	str	r2, [r1]
.Ltmp77:
.LBB12_3:
	@DEBUG_VALUE: HAL_TIM_Base_Stop_DMA:htim <- $r0
	.loc	7 445 15 is_stmt 1      @ ../Drivers/STM32F1xx_HAL_Driver/Src/stm32f1xx_hal_tim.c:445:15
	movs	r1, #1
	str	r1, [r0, #64]
	.loc	7 448 3                 @ ../Drivers/STM32F1xx_HAL_Driver/Src/stm32f1xx_hal_tim.c:448:3
	movs	r0, #0
	bx	lr
.Ltmp78:
.Lfunc_end12:
	.size	HAL_TIM_Base_Stop_DMA, .Lfunc_end12-HAL_TIM_Base_Stop_DMA
	.cfi_endproc
	.cantunwind
	.fnend
                                        @ -- End function
	.section	.text.HAL_TIM_OC_Init,"ax",%progbits
	.hidden	HAL_TIM_OC_Init         @ -- Begin function HAL_TIM_OC_Init
	.globl	HAL_TIM_OC_Init
	.p2align	2
	.type	HAL_TIM_OC_Init,%function
	.code	16                      @ @HAL_TIM_OC_Init
	.thumb_func
HAL_TIM_OC_Init:
.Lfunc_begin13:
	.loc	7 483 0                 @ ../Drivers/STM32F1xx_HAL_Driver/Src/stm32f1xx_hal_tim.c:483:0
	.fnstart
	.cfi_startproc
@ %bb.0:
	.save	{r4, lr}
	push	{r4, lr}
	.cfi_def_cfa_offset 8
	.cfi_offset lr, -4
	.cfi_offset r4, -8
	@DEBUG_VALUE: HAL_TIM_OC_Init:htim <- $r0
	mov	r4, r0
.Ltmp79:
	@DEBUG_VALUE: HAL_TIM_OC_Init:htim <- $r4
	.loc	7 485 6 prologue_end    @ ../Drivers/STM32F1xx_HAL_Driver/Src/stm32f1xx_hal_tim.c:485:6
	cmp	r0, #0
	itt	eq
	moveq	r0, #1
	.loc	7 515 1                 @ ../Drivers/STM32F1xx_HAL_Driver/Src/stm32f1xx_hal_tim.c:515:1
	popeq	{r4, pc}
.Ltmp80:
	.loc	7 496 12                @ ../Drivers/STM32F1xx_HAL_Driver/Src/stm32f1xx_hal_tim.c:496:12
	ldr	r0, [r4, #64]
.Ltmp81:
	.loc	7 496 6 is_stmt 0       @ ../Drivers/STM32F1xx_HAL_Driver/Src/stm32f1xx_hal_tim.c:496:6
	cbnz	r0, .LBB13_2
@ %bb.1:
.Ltmp82:
	.loc	7 499 16 is_stmt 1      @ ../Drivers/STM32F1xx_HAL_Driver/Src/stm32f1xx_hal_tim.c:499:16
	movs	r0, #0
	str	r0, [r4, #60]
	.loc	7 502 5                 @ ../Drivers/STM32F1xx_HAL_Driver/Src/stm32f1xx_hal_tim.c:502:5
	mov	r0, r4
	bl	HAL_TIM_OC_MspInit
.Ltmp83:
.LBB13_2:
	.loc	7 506 14                @ ../Drivers/STM32F1xx_HAL_Driver/Src/stm32f1xx_hal_tim.c:506:14
	movs	r0, #2
	str	r0, [r4, #64]
	.loc	7 509 28                @ ../Drivers/STM32F1xx_HAL_Driver/Src/stm32f1xx_hal_tim.c:509:28
	ldr	r0, [r4]
	.loc	7 509 46 is_stmt 0      @ ../Drivers/STM32F1xx_HAL_Driver/Src/stm32f1xx_hal_tim.c:509:46
	adds	r1, r4, #4
	.loc	7 509 3                 @ ../Drivers/STM32F1xx_HAL_Driver/Src/stm32f1xx_hal_tim.c:509:3
	bl	TIM_Base_SetConfig
	.loc	7 512 14 is_stmt 1      @ ../Drivers/STM32F1xx_HAL_Driver/Src/stm32f1xx_hal_tim.c:512:14
	movs	r0, #1
	str	r0, [r4, #64]
	movs	r0, #0
	.loc	7 515 1                 @ ../Drivers/STM32F1xx_HAL_Driver/Src/stm32f1xx_hal_tim.c:515:1
	pop	{r4, pc}
.Ltmp84:
.Lfunc_end13:
	.size	HAL_TIM_OC_Init, .Lfunc_end13-HAL_TIM_OC_Init
	.cfi_endproc
	.cantunwind
	.fnend
                                        @ -- End function
	.section	.text.HAL_TIM_OC_MspInit,"ax",%progbits
	.hidden	HAL_TIM_OC_MspInit      @ -- Begin function HAL_TIM_OC_MspInit
	.weak	HAL_TIM_OC_MspInit
	.p2align	2
	.type	HAL_TIM_OC_MspInit,%function
	.code	16                      @ @HAL_TIM_OC_MspInit
	.thumb_func
HAL_TIM_OC_MspInit:
.Lfunc_begin14:
	.loc	7 550 0                 @ ../Drivers/STM32F1xx_HAL_Driver/Src/stm32f1xx_hal_tim.c:550:0
	.fnstart
	.cfi_startproc
@ %bb.0:
	@DEBUG_VALUE: HAL_TIM_OC_MspInit:htim <- $r0
	.loc	7 556 1 prologue_end    @ ../Drivers/STM32F1xx_HAL_Driver/Src/stm32f1xx_hal_tim.c:556:1
	bx	lr
.Ltmp85:
.Lfunc_end14:
	.size	HAL_TIM_OC_MspInit, .Lfunc_end14-HAL_TIM_OC_MspInit
	.cfi_endproc
	.cantunwind
	.fnend
                                        @ -- End function
	.section	.text.HAL_TIM_OC_DeInit,"ax",%progbits
	.hidden	HAL_TIM_OC_DeInit       @ -- Begin function HAL_TIM_OC_DeInit
	.globl	HAL_TIM_OC_DeInit
	.p2align	2
	.type	HAL_TIM_OC_DeInit,%function
	.code	16                      @ @HAL_TIM_OC_DeInit
	.thumb_func
HAL_TIM_OC_DeInit:
.Lfunc_begin15:
	.loc	7 523 0                 @ ../Drivers/STM32F1xx_HAL_Driver/Src/stm32f1xx_hal_tim.c:523:0
	.fnstart
	.cfi_startproc
@ %bb.0:
	.save	{r4, lr}
	push	{r4, lr}
	.cfi_def_cfa_offset 8
	.cfi_offset lr, -4
	.cfi_offset r4, -8
	@DEBUG_VALUE: HAL_TIM_OC_DeInit:htim <- $r0
	mov	r4, r0
.Ltmp86:
	@DEBUG_VALUE: HAL_TIM_OC_DeInit:htim <- $r4
	.loc	7 527 16 prologue_end   @ ../Drivers/STM32F1xx_HAL_Driver/Src/stm32f1xx_hal_tim.c:527:16
	movs	r0, #2
	str	r0, [r4, #64]
.Ltmp87:
	.loc	7 530 3                 @ ../Drivers/STM32F1xx_HAL_Driver/Src/stm32f1xx_hal_tim.c:530:3
	ldr	r0, [r4]
	ldr	r1, [r0, #32]
	movw	r2, #4369
.Ltmp88:
	.loc	7 530 3 is_stmt 0       @ ../Drivers/STM32F1xx_HAL_Driver/Src/stm32f1xx_hal_tim.c:530:3
	tst	r1, r2
	bne	.LBB15_3
.Ltmp89:
@ %bb.1:
	@DEBUG_VALUE: HAL_TIM_OC_DeInit:htim <- $r4
	.loc	7 530 3                 @ ../Drivers/STM32F1xx_HAL_Driver/Src/stm32f1xx_hal_tim.c:530:3
	ldr	r1, [r0, #32]
	movw	r2, #1092
.Ltmp90:
	.loc	7 530 3                 @ ../Drivers/STM32F1xx_HAL_Driver/Src/stm32f1xx_hal_tim.c:530:3
	tst	r1, r2
	bne	.LBB15_3
.Ltmp91:
@ %bb.2:
	@DEBUG_VALUE: HAL_TIM_OC_DeInit:htim <- $r4
	.loc	7 530 3                 @ ../Drivers/STM32F1xx_HAL_Driver/Src/stm32f1xx_hal_tim.c:530:3
	ldr	r1, [r0]
	bic	r1, r1, #1
	str	r1, [r0]
.Ltmp92:
.LBB15_3:
	@DEBUG_VALUE: HAL_TIM_OC_DeInit:htim <- $r4
	.loc	7 533 3 is_stmt 1       @ ../Drivers/STM32F1xx_HAL_Driver/Src/stm32f1xx_hal_tim.c:533:3
	mov	r0, r4
	bl	HAL_TIM_OC_MspDeInit
	movs	r0, #0
.Ltmp93:
	.loc	7 539 3                 @ ../Drivers/STM32F1xx_HAL_Driver/Src/stm32f1xx_hal_tim.c:539:3
	str	r0, [r4, #60]
.Ltmp94:
	.loc	7 536 15                @ ../Drivers/STM32F1xx_HAL_Driver/Src/stm32f1xx_hal_tim.c:536:15
	str	r0, [r4, #64]
	.loc	7 541 3                 @ ../Drivers/STM32F1xx_HAL_Driver/Src/stm32f1xx_hal_tim.c:541:3
	movs	r0, #0
	pop	{r4, pc}
.Ltmp95:
.Lfunc_end15:
	.size	HAL_TIM_OC_DeInit, .Lfunc_end15-HAL_TIM_OC_DeInit
	.cfi_endproc
	.cantunwind
	.fnend
                                        @ -- End function
	.section	.text.HAL_TIM_OC_MspDeInit,"ax",%progbits
	.hidden	HAL_TIM_OC_MspDeInit    @ -- Begin function HAL_TIM_OC_MspDeInit
	.weak	HAL_TIM_OC_MspDeInit
	.p2align	2
	.type	HAL_TIM_OC_MspDeInit,%function
	.code	16                      @ @HAL_TIM_OC_MspDeInit
	.thumb_func
HAL_TIM_OC_MspDeInit:
.Lfunc_begin16:
	.loc	7 564 0                 @ ../Drivers/STM32F1xx_HAL_Driver/Src/stm32f1xx_hal_tim.c:564:0
	.fnstart
	.cfi_startproc
@ %bb.0:
	@DEBUG_VALUE: HAL_TIM_OC_MspDeInit:htim <- $r0
	.loc	7 570 1 prologue_end    @ ../Drivers/STM32F1xx_HAL_Driver/Src/stm32f1xx_hal_tim.c:570:1
	bx	lr
.Ltmp96:
.Lfunc_end16:
	.size	HAL_TIM_OC_MspDeInit, .Lfunc_end16-HAL_TIM_OC_MspDeInit
	.cfi_endproc
	.cantunwind
	.fnend
                                        @ -- End function
	.section	.text.HAL_TIM_OC_Start,"ax",%progbits
	.hidden	HAL_TIM_OC_Start        @ -- Begin function HAL_TIM_OC_Start
	.globl	HAL_TIM_OC_Start
	.p2align	2
	.type	HAL_TIM_OC_Start,%function
	.code	16                      @ @HAL_TIM_OC_Start
	.thumb_func
HAL_TIM_OC_Start:
.Lfunc_begin17:
	.loc	7 584 0                 @ ../Drivers/STM32F1xx_HAL_Driver/Src/stm32f1xx_hal_tim.c:584:0
	.fnstart
	.cfi_startproc
@ %bb.0:
	.save	{r4, lr}
	push	{r4, lr}
	.cfi_def_cfa_offset 8
	.cfi_offset lr, -4
	.cfi_offset r4, -8
	@DEBUG_VALUE: HAL_TIM_OC_Start:htim <- $r0
	@DEBUG_VALUE: HAL_TIM_OC_Start:Channel <- $r1
	mov	r4, r0
	@DEBUG_VALUE: HAL_TIM_OC_Start:Channel <- $r1
.Ltmp97:
	@DEBUG_VALUE: HAL_TIM_OC_Start:htim <- $r4
	.loc	7 589 27 prologue_end   @ ../Drivers/STM32F1xx_HAL_Driver/Src/stm32f1xx_hal_tim.c:589:27
	ldr	r0, [r0]
	@DEBUG_VALUE: HAL_TIM_OC_Start:Channel <- $r1
	.loc	7 589 3 is_stmt 0       @ ../Drivers/STM32F1xx_HAL_Driver/Src/stm32f1xx_hal_tim.c:589:3
	movs	r2, #1
	bl	TIM_CCxChannelCmd
.Ltmp98:
	.loc	7 591 6 is_stmt 1       @ ../Drivers/STM32F1xx_HAL_Driver/Src/stm32f1xx_hal_tim.c:591:6
	ldr	r0, [r4]
	movw	r1, #11264
	movt	r1, #16385
.Ltmp99:
	.loc	7 591 6 is_stmt 0       @ ../Drivers/STM32F1xx_HAL_Driver/Src/stm32f1xx_hal_tim.c:591:6
	cmp	r0, r1
	bne	.LBB17_2
.Ltmp100:
@ %bb.1:
	@DEBUG_VALUE: HAL_TIM_OC_Start:htim <- $r4
	.loc	7 594 5 is_stmt 1       @ ../Drivers/STM32F1xx_HAL_Driver/Src/stm32f1xx_hal_tim.c:594:5
	ldr	r1, [r0, #68]
	orr	r1, r1, #32768
	str	r1, [r0, #68]
.Ltmp101:
.LBB17_2:
	@DEBUG_VALUE: HAL_TIM_OC_Start:htim <- $r4
	.loc	7 598 3                 @ ../Drivers/STM32F1xx_HAL_Driver/Src/stm32f1xx_hal_tim.c:598:3
	ldr	r1, [r0]
	orr	r1, r1, #1
	str	r1, [r0]
	.loc	7 601 3                 @ ../Drivers/STM32F1xx_HAL_Driver/Src/stm32f1xx_hal_tim.c:601:3
	movs	r0, #0
	pop	{r4, pc}
.Ltmp102:
.Lfunc_end17:
	.size	HAL_TIM_OC_Start, .Lfunc_end17-HAL_TIM_OC_Start
	.cfi_endproc
	.cantunwind
	.fnend
                                        @ -- End function
	.section	.text.TIM_CCxChannelCmd,"ax",%progbits
	.hidden	TIM_CCxChannelCmd       @ -- Begin function TIM_CCxChannelCmd
	.globl	TIM_CCxChannelCmd
	.p2align	2
	.type	TIM_CCxChannelCmd,%function
	.code	16                      @ @TIM_CCxChannelCmd
	.thumb_func
TIM_CCxChannelCmd:
.Lfunc_begin18:
	.loc	7 5365 0                @ ../Drivers/STM32F1xx_HAL_Driver/Src/stm32f1xx_hal_tim.c:5365:0
	.fnstart
	.cfi_startproc
@ %bb.0:
	@DEBUG_VALUE: TIM_CCxChannelCmd:TIMx <- $r0
	@DEBUG_VALUE: TIM_CCxChannelCmd:TIMx <- $r0
	@DEBUG_VALUE: TIM_CCxChannelCmd:Channel <- $r1
	@DEBUG_VALUE: TIM_CCxChannelCmd:Channel <- $r1
	@DEBUG_VALUE: TIM_CCxChannelCmd:ChannelState <- $r2
	@DEBUG_VALUE: TIM_CCxChannelCmd:ChannelState <- $r2
	@DEBUG_VALUE: TIM_CCxChannelCmd:tmp <- 0
	.loc	7 5372 23 prologue_end  @ ../Drivers/STM32F1xx_HAL_Driver/Src/stm32f1xx_hal_tim.c:5372:23
	movs	r3, #1
	lsl.w	r12, r3, r1
.Ltmp103:
	@DEBUG_VALUE: TIM_CCxChannelCmd:tmp <- $r12
	.loc	7 5375 14               @ ../Drivers/STM32F1xx_HAL_Driver/Src/stm32f1xx_hal_tim.c:5375:14
	ldr	r3, [r0, #32]
	bic.w	r3, r3, r12
	str	r3, [r0, #32]
	.loc	7 5378 42               @ ../Drivers/STM32F1xx_HAL_Driver/Src/stm32f1xx_hal_tim.c:5378:42
	lsl.w	r1, r2, r1
.Ltmp104:
	.loc	7 5378 14 is_stmt 0     @ ../Drivers/STM32F1xx_HAL_Driver/Src/stm32f1xx_hal_tim.c:5378:14
	ldr	r2, [r0, #32]
.Ltmp105:
	orrs	r1, r2
	str	r1, [r0, #32]
	.loc	7 5379 1 is_stmt 1      @ ../Drivers/STM32F1xx_HAL_Driver/Src/stm32f1xx_hal_tim.c:5379:1
	bx	lr
.Ltmp106:
.Lfunc_end18:
	.size	TIM_CCxChannelCmd, .Lfunc_end18-TIM_CCxChannelCmd
	.cfi_endproc
	.cantunwind
	.fnend
                                        @ -- End function
	.section	.text.HAL_TIM_OC_Stop,"ax",%progbits
	.hidden	HAL_TIM_OC_Stop         @ -- Begin function HAL_TIM_OC_Stop
	.globl	HAL_TIM_OC_Stop
	.p2align	2
	.type	HAL_TIM_OC_Stop,%function
	.code	16                      @ @HAL_TIM_OC_Stop
	.thumb_func
HAL_TIM_OC_Stop:
.Lfunc_begin19:
	.loc	7 616 0                 @ ../Drivers/STM32F1xx_HAL_Driver/Src/stm32f1xx_hal_tim.c:616:0
	.fnstart
	.cfi_startproc
@ %bb.0:
	.save	{r4, lr}
	push	{r4, lr}
	.cfi_def_cfa_offset 8
	.cfi_offset lr, -4
	.cfi_offset r4, -8
	@DEBUG_VALUE: HAL_TIM_OC_Stop:htim <- $r0
	@DEBUG_VALUE: HAL_TIM_OC_Stop:Channel <- $r1
	mov	r4, r0
	@DEBUG_VALUE: HAL_TIM_OC_Stop:Channel <- $r1
.Ltmp107:
	@DEBUG_VALUE: HAL_TIM_OC_Stop:htim <- $r4
	.loc	7 621 27 prologue_end   @ ../Drivers/STM32F1xx_HAL_Driver/Src/stm32f1xx_hal_tim.c:621:27
	ldr	r0, [r0]
	@DEBUG_VALUE: HAL_TIM_OC_Stop:Channel <- $r1
	.loc	7 621 3 is_stmt 0       @ ../Drivers/STM32F1xx_HAL_Driver/Src/stm32f1xx_hal_tim.c:621:3
	movs	r2, #0
	bl	TIM_CCxChannelCmd
.Ltmp108:
	.loc	7 623 6 is_stmt 1       @ ../Drivers/STM32F1xx_HAL_Driver/Src/stm32f1xx_hal_tim.c:623:6
	ldr	r0, [r4]
	movw	r1, #11264
	movt	r1, #16385
.Ltmp109:
	.loc	7 623 6 is_stmt 0       @ ../Drivers/STM32F1xx_HAL_Driver/Src/stm32f1xx_hal_tim.c:623:6
	cmp	r0, r1
	bne	.LBB19_4
.Ltmp110:
@ %bb.1:
	@DEBUG_VALUE: HAL_TIM_OC_Stop:htim <- $r4
	.loc	7 626 5 is_stmt 1       @ ../Drivers/STM32F1xx_HAL_Driver/Src/stm32f1xx_hal_tim.c:626:5
	ldr	r1, [r0, #32]
	movw	r2, #4369
.Ltmp111:
	.loc	7 626 5 is_stmt 0       @ ../Drivers/STM32F1xx_HAL_Driver/Src/stm32f1xx_hal_tim.c:626:5
	tst	r1, r2
	bne	.LBB19_4
.Ltmp112:
@ %bb.2:
	@DEBUG_VALUE: HAL_TIM_OC_Stop:htim <- $r4
	.loc	7 626 5                 @ ../Drivers/STM32F1xx_HAL_Driver/Src/stm32f1xx_hal_tim.c:626:5
	ldr	r1, [r0, #32]
	movw	r2, #1092
.Ltmp113:
	.loc	7 626 5                 @ ../Drivers/STM32F1xx_HAL_Driver/Src/stm32f1xx_hal_tim.c:626:5
	tst	r1, r2
	bne	.LBB19_4
.Ltmp114:
@ %bb.3:
	@DEBUG_VALUE: HAL_TIM_OC_Stop:htim <- $r4
	.loc	7 626 5                 @ ../Drivers/STM32F1xx_HAL_Driver/Src/stm32f1xx_hal_tim.c:626:5
	ldr	r1, [r0, #68]
	bic	r1, r1, #32768
	str	r1, [r0, #68]
.Ltmp115:
.LBB19_4:
	@DEBUG_VALUE: HAL_TIM_OC_Stop:htim <- $r4
	.loc	7 630 3 is_stmt 1       @ ../Drivers/STM32F1xx_HAL_Driver/Src/stm32f1xx_hal_tim.c:630:3
	ldr	r1, [r0, #32]
	movw	r2, #4369
.Ltmp116:
	.loc	7 630 3 is_stmt 0       @ ../Drivers/STM32F1xx_HAL_Driver/Src/stm32f1xx_hal_tim.c:630:3
	tst	r1, r2
	bne	.LBB19_6
.Ltmp117:
@ %bb.5:
	@DEBUG_VALUE: HAL_TIM_OC_Stop:htim <- $r4
	.loc	7 630 3                 @ ../Drivers/STM32F1xx_HAL_Driver/Src/stm32f1xx_hal_tim.c:630:3
	ldr	r1, [r0, #32]
	movw	r2, #1092
.Ltmp118:
	.loc	7 630 3                 @ ../Drivers/STM32F1xx_HAL_Driver/Src/stm32f1xx_hal_tim.c:630:3
	tst	r1, r2
	beq	.LBB19_7
.Ltmp119:
.LBB19_6:
	@DEBUG_VALUE: HAL_TIM_OC_Stop:htim <- $r4
	.loc	7 633 3 is_stmt 1       @ ../Drivers/STM32F1xx_HAL_Driver/Src/stm32f1xx_hal_tim.c:633:3
	movs	r0, #0
	pop	{r4, pc}
.Ltmp120:
.LBB19_7:
	@DEBUG_VALUE: HAL_TIM_OC_Stop:htim <- $r4
	.loc	7 630 3                 @ ../Drivers/STM32F1xx_HAL_Driver/Src/stm32f1xx_hal_tim.c:630:3
	ldr	r1, [r0]
	bic	r1, r1, #1
	str	r1, [r0]
.Ltmp121:
	.loc	7 633 3                 @ ../Drivers/STM32F1xx_HAL_Driver/Src/stm32f1xx_hal_tim.c:633:3
	movs	r0, #0
	pop	{r4, pc}
.Ltmp122:
.Lfunc_end19:
	.size	HAL_TIM_OC_Stop, .Lfunc_end19-HAL_TIM_OC_Stop
	.cfi_endproc
	.cantunwind
	.fnend
                                        @ -- End function
	.section	.text.HAL_TIM_OC_Start_IT,"ax",%progbits
	.hidden	HAL_TIM_OC_Start_IT     @ -- Begin function HAL_TIM_OC_Start_IT
	.globl	HAL_TIM_OC_Start_IT
	.p2align	2
	.type	HAL_TIM_OC_Start_IT,%function
	.code	16                      @ @HAL_TIM_OC_Start_IT
	.thumb_func
HAL_TIM_OC_Start_IT:
.Lfunc_begin20:
	.loc	7 648 0                 @ ../Drivers/STM32F1xx_HAL_Driver/Src/stm32f1xx_hal_tim.c:648:0
	.fnstart
	.cfi_startproc
@ %bb.0:
	.save	{r4, lr}
	push	{r4, lr}
	.cfi_def_cfa_offset 8
	.cfi_offset lr, -4
	.cfi_offset r4, -8
	@DEBUG_VALUE: HAL_TIM_OC_Start_IT:htim <- $r0
	@DEBUG_VALUE: HAL_TIM_OC_Start_IT:Channel <- $r1
	mov	r4, r0
	@DEBUG_VALUE: HAL_TIM_OC_Start_IT:Channel <- $r1
.Ltmp123:
	@DEBUG_VALUE: HAL_TIM_OC_Start_IT:htim <- $r4
	.loc	7 652 3 prologue_end    @ ../Drivers/STM32F1xx_HAL_Driver/Src/stm32f1xx_hal_tim.c:652:3
	ror.w	r0, r1, #2
	cmp	r0, #3
	bhi	.LBB20_2
.Ltmp124:
@ %bb.1:
	@DEBUG_VALUE: HAL_TIM_OC_Start_IT:htim <- $r4
	@DEBUG_VALUE: HAL_TIM_OC_Start_IT:Channel <- $r1
	adr	r2, .LCPI20_0
	ldr.w	r0, [r2, r0, lsl #2]
	ldr	r2, [r4]
	ldr	r3, [r2, #12]
	orrs	r0, r3
	str	r0, [r2, #12]
.Ltmp125:
.LBB20_2:
	@DEBUG_VALUE: HAL_TIM_OC_Start_IT:htim <- $r4
	@DEBUG_VALUE: HAL_TIM_OC_Start_IT:Channel <- $r1
	.loc	7 687 27                @ ../Drivers/STM32F1xx_HAL_Driver/Src/stm32f1xx_hal_tim.c:687:27
	ldr	r0, [r4]
	.loc	7 687 3 is_stmt 0       @ ../Drivers/STM32F1xx_HAL_Driver/Src/stm32f1xx_hal_tim.c:687:3
	movs	r2, #1
	bl	TIM_CCxChannelCmd
.Ltmp126:
	.loc	7 689 6 is_stmt 1       @ ../Drivers/STM32F1xx_HAL_Driver/Src/stm32f1xx_hal_tim.c:689:6
	ldr	r0, [r4]
	movw	r1, #11264
	movt	r1, #16385
.Ltmp127:
	.loc	7 689 6 is_stmt 0       @ ../Drivers/STM32F1xx_HAL_Driver/Src/stm32f1xx_hal_tim.c:689:6
	cmp	r0, r1
	bne	.LBB20_4
.Ltmp128:
@ %bb.3:
	@DEBUG_VALUE: HAL_TIM_OC_Start_IT:htim <- $r4
	.loc	7 692 5 is_stmt 1       @ ../Drivers/STM32F1xx_HAL_Driver/Src/stm32f1xx_hal_tim.c:692:5
	ldr	r1, [r0, #68]
	orr	r1, r1, #32768
	str	r1, [r0, #68]
.Ltmp129:
.LBB20_4:
	@DEBUG_VALUE: HAL_TIM_OC_Start_IT:htim <- $r4
	.loc	7 696 3                 @ ../Drivers/STM32F1xx_HAL_Driver/Src/stm32f1xx_hal_tim.c:696:3
	ldr	r1, [r0]
	orr	r1, r1, #1
	str	r1, [r0]
	.loc	7 699 3                 @ ../Drivers/STM32F1xx_HAL_Driver/Src/stm32f1xx_hal_tim.c:699:3
	movs	r0, #0
	pop	{r4, pc}
.Ltmp130:
	.p2align	2
@ %bb.5:
	.loc	7 0 3 is_stmt 0         @ ../Drivers/STM32F1xx_HAL_Driver/Src/stm32f1xx_hal_tim.c:0:3
.LCPI20_0:
.Lswitch.table.HAL_TIM_OC_Start_IT:
	.long	2                       @ 0x2
	.long	4                       @ 0x4
	.long	8                       @ 0x8
	.long	16                      @ 0x10
.Lfunc_end20:
	.size	HAL_TIM_OC_Start_IT, .Lfunc_end20-HAL_TIM_OC_Start_IT
	.cfi_endproc
	.cantunwind
	.fnend
                                        @ -- End function
	.section	.text.HAL_TIM_OC_Stop_IT,"ax",%progbits
	.hidden	HAL_TIM_OC_Stop_IT      @ -- Begin function HAL_TIM_OC_Stop_IT
	.globl	HAL_TIM_OC_Stop_IT
	.p2align	2
	.type	HAL_TIM_OC_Stop_IT,%function
	.code	16                      @ @HAL_TIM_OC_Stop_IT
	.thumb_func
HAL_TIM_OC_Stop_IT:
.Lfunc_begin21:
	.loc	7 714 0 is_stmt 1       @ ../Drivers/STM32F1xx_HAL_Driver/Src/stm32f1xx_hal_tim.c:714:0
	.fnstart
	.cfi_startproc
@ %bb.0:
	.save	{r4, lr}
	push	{r4, lr}
	.cfi_def_cfa_offset 8
	.cfi_offset lr, -4
	.cfi_offset r4, -8
	@DEBUG_VALUE: HAL_TIM_OC_Stop_IT:htim <- $r0
	@DEBUG_VALUE: HAL_TIM_OC_Stop_IT:Channel <- $r1
	mov	r4, r0
	@DEBUG_VALUE: HAL_TIM_OC_Stop_IT:Channel <- $r1
.Ltmp131:
	@DEBUG_VALUE: HAL_TIM_OC_Stop_IT:htim <- $r4
	.loc	7 718 3 prologue_end    @ ../Drivers/STM32F1xx_HAL_Driver/Src/stm32f1xx_hal_tim.c:718:3
	ror.w	r0, r1, #2
	cmp	r0, #3
	bhi	.LBB21_2
.Ltmp132:
@ %bb.1:
	@DEBUG_VALUE: HAL_TIM_OC_Stop_IT:htim <- $r4
	@DEBUG_VALUE: HAL_TIM_OC_Stop_IT:Channel <- $r1
	adr	r2, .LCPI21_0
	ldr.w	r0, [r2, r0, lsl #2]
	ldr	r2, [r4]
	ldr	r3, [r2, #12]
	ands	r0, r3
	str	r0, [r2, #12]
.Ltmp133:
.LBB21_2:
	@DEBUG_VALUE: HAL_TIM_OC_Stop_IT:htim <- $r4
	@DEBUG_VALUE: HAL_TIM_OC_Stop_IT:Channel <- $r1
	.loc	7 753 27                @ ../Drivers/STM32F1xx_HAL_Driver/Src/stm32f1xx_hal_tim.c:753:27
	ldr	r0, [r4]
	.loc	7 753 3 is_stmt 0       @ ../Drivers/STM32F1xx_HAL_Driver/Src/stm32f1xx_hal_tim.c:753:3
	movs	r2, #0
	bl	TIM_CCxChannelCmd
.Ltmp134:
	.loc	7 755 6 is_stmt 1       @ ../Drivers/STM32F1xx_HAL_Driver/Src/stm32f1xx_hal_tim.c:755:6
	ldr	r0, [r4]
	movw	r1, #11264
	movt	r1, #16385
.Ltmp135:
	.loc	7 755 6 is_stmt 0       @ ../Drivers/STM32F1xx_HAL_Driver/Src/stm32f1xx_hal_tim.c:755:6
	cmp	r0, r1
	bne	.LBB21_6
.Ltmp136:
@ %bb.3:
	@DEBUG_VALUE: HAL_TIM_OC_Stop_IT:htim <- $r4
	.loc	7 758 5 is_stmt 1       @ ../Drivers/STM32F1xx_HAL_Driver/Src/stm32f1xx_hal_tim.c:758:5
	ldr	r1, [r0, #32]
	movw	r2, #4369
.Ltmp137:
	.loc	7 758 5 is_stmt 0       @ ../Drivers/STM32F1xx_HAL_Driver/Src/stm32f1xx_hal_tim.c:758:5
	tst	r1, r2
	bne	.LBB21_6
.Ltmp138:
@ %bb.4:
	@DEBUG_VALUE: HAL_TIM_OC_Stop_IT:htim <- $r4
	.loc	7 758 5                 @ ../Drivers/STM32F1xx_HAL_Driver/Src/stm32f1xx_hal_tim.c:758:5
	ldr	r1, [r0, #32]
	movw	r2, #1092
.Ltmp139:
	.loc	7 758 5                 @ ../Drivers/STM32F1xx_HAL_Driver/Src/stm32f1xx_hal_tim.c:758:5
	tst	r1, r2
	bne	.LBB21_6
.Ltmp140:
@ %bb.5:
	@DEBUG_VALUE: HAL_TIM_OC_Stop_IT:htim <- $r4
	.loc	7 758 5                 @ ../Drivers/STM32F1xx_HAL_Driver/Src/stm32f1xx_hal_tim.c:758:5
	ldr	r1, [r0, #68]
	bic	r1, r1, #32768
	str	r1, [r0, #68]
.Ltmp141:
.LBB21_6:
	@DEBUG_VALUE: HAL_TIM_OC_Stop_IT:htim <- $r4
	.loc	7 762 3 is_stmt 1       @ ../Drivers/STM32F1xx_HAL_Driver/Src/stm32f1xx_hal_tim.c:762:3
	ldr	r1, [r0, #32]
	movw	r2, #4369
.Ltmp142:
	.loc	7 762 3 is_stmt 0       @ ../Drivers/STM32F1xx_HAL_Driver/Src/stm32f1xx_hal_tim.c:762:3
	tst	r1, r2
	bne	.LBB21_8
.Ltmp143:
@ %bb.7:
	@DEBUG_VALUE: HAL_TIM_OC_Stop_IT:htim <- $r4
	.loc	7 762 3                 @ ../Drivers/STM32F1xx_HAL_Driver/Src/stm32f1xx_hal_tim.c:762:3
	ldr	r1, [r0, #32]
	movw	r2, #1092
.Ltmp144:
	.loc	7 762 3                 @ ../Drivers/STM32F1xx_HAL_Driver/Src/stm32f1xx_hal_tim.c:762:3
	tst	r1, r2
	beq	.LBB21_9
.Ltmp145:
.LBB21_8:
	@DEBUG_VALUE: HAL_TIM_OC_Stop_IT:htim <- $r4
	.loc	7 765 3 is_stmt 1       @ ../Drivers/STM32F1xx_HAL_Driver/Src/stm32f1xx_hal_tim.c:765:3
	movs	r0, #0
	pop	{r4, pc}
.Ltmp146:
.LBB21_9:
	@DEBUG_VALUE: HAL_TIM_OC_Stop_IT:htim <- $r4
	.loc	7 762 3                 @ ../Drivers/STM32F1xx_HAL_Driver/Src/stm32f1xx_hal_tim.c:762:3
	ldr	r1, [r0]
	bic	r1, r1, #1
	str	r1, [r0]
.Ltmp147:
	.loc	7 765 3                 @ ../Drivers/STM32F1xx_HAL_Driver/Src/stm32f1xx_hal_tim.c:765:3
	movs	r0, #0
	pop	{r4, pc}
.Ltmp148:
	.p2align	2
@ %bb.10:
	.loc	7 0 3 is_stmt 0         @ ../Drivers/STM32F1xx_HAL_Driver/Src/stm32f1xx_hal_tim.c:0:3
.LCPI21_0:
.Lswitch.table.HAL_TIM_OC_Stop_IT:
	.long	4294967293              @ 0xfffffffd
	.long	4294967291              @ 0xfffffffb
	.long	4294967287              @ 0xfffffff7
	.long	4294967279              @ 0xffffffef
.Lfunc_end21:
	.size	HAL_TIM_OC_Stop_IT, .Lfunc_end21-HAL_TIM_OC_Stop_IT
	.cfi_endproc
	.cantunwind
	.fnend
                                        @ -- End function
	.section	.text.HAL_TIM_OC_Start_DMA,"ax",%progbits
	.hidden	HAL_TIM_OC_Start_DMA    @ -- Begin function HAL_TIM_OC_Start_DMA
	.globl	HAL_TIM_OC_Start_DMA
	.p2align	2
	.type	HAL_TIM_OC_Start_DMA,%function
	.code	16                      @ @HAL_TIM_OC_Start_DMA
	.thumb_func
HAL_TIM_OC_Start_DMA:
.Lfunc_begin22:
	.loc	7 782 0 is_stmt 1       @ ../Drivers/STM32F1xx_HAL_Driver/Src/stm32f1xx_hal_tim.c:782:0
	.fnstart
	.cfi_startproc
@ %bb.0:
	.save	{r4, r5, r7, lr}
	push	{r4, r5, r7, lr}
	.cfi_def_cfa_offset 16
	.cfi_offset lr, -4
	.cfi_offset r7, -8
	.cfi_offset r5, -12
	.cfi_offset r4, -16
	@DEBUG_VALUE: HAL_TIM_OC_Start_DMA:htim <- $r0
	@DEBUG_VALUE: HAL_TIM_OC_Start_DMA:Channel <- $r1
	@DEBUG_VALUE: HAL_TIM_OC_Start_DMA:pData <- $r2
	@DEBUG_VALUE: HAL_TIM_OC_Start_DMA:Length <- $r3
	mov	r5, r1
	mov	r4, r0
	@DEBUG_VALUE: HAL_TIM_OC_Start_DMA:Length <- $r3
	@DEBUG_VALUE: HAL_TIM_OC_Start_DMA:pData <- $r2
.Ltmp149:
	@DEBUG_VALUE: HAL_TIM_OC_Start_DMA:Channel <- $r5
	@DEBUG_VALUE: HAL_TIM_OC_Start_DMA:htim <- $r4
	.loc	7 786 13 prologue_end   @ ../Drivers/STM32F1xx_HAL_Driver/Src/stm32f1xx_hal_tim.c:786:13
	ldr	r0, [r0, #64]
.Ltmp150:
	.loc	7 786 6 is_stmt 0       @ ../Drivers/STM32F1xx_HAL_Driver/Src/stm32f1xx_hal_tim.c:786:6
	cmp	r0, #2
	itt	eq
	moveq	r0, #2
	.loc	7 885 1 is_stmt 1       @ ../Drivers/STM32F1xx_HAL_Driver/Src/stm32f1xx_hal_tim.c:885:1
	popeq	{r4, r5, r7, pc}
.Ltmp151:
	.loc	7 790 18                @ ../Drivers/STM32F1xx_HAL_Driver/Src/stm32f1xx_hal_tim.c:790:18
	ldr	r0, [r4, #64]
.Ltmp152:
	.loc	7 790 11 is_stmt 0      @ ../Drivers/STM32F1xx_HAL_Driver/Src/stm32f1xx_hal_tim.c:790:11
	cmp	r0, #1
	bne	.LBB22_4
.Ltmp153:
@ %bb.1:
	@DEBUG_VALUE: HAL_TIM_OC_Start_DMA:Length <- $r3
	@DEBUG_VALUE: HAL_TIM_OC_Start_DMA:pData <- $r2
	.loc	7 792 32 is_stmt 1      @ ../Drivers/STM32F1xx_HAL_Driver/Src/stm32f1xx_hal_tim.c:792:32
	cbnz	r2, .LBB22_3
.Ltmp154:
@ %bb.2:
	@DEBUG_VALUE: HAL_TIM_OC_Start_DMA:Length <- $r3
	@DEBUG_VALUE: HAL_TIM_OC_Start_DMA:pData <- $r2
	cmp	r3, #0
	itt	ne
	movne	r0, #1
.Ltmp155:
	.loc	7 885 1                 @ ../Drivers/STM32F1xx_HAL_Driver/Src/stm32f1xx_hal_tim.c:885:1
	popne	{r4, r5, r7, pc}
.Ltmp156:
.LBB22_3:
	@DEBUG_VALUE: HAL_TIM_OC_Start_DMA:Length <- $r3
	@DEBUG_VALUE: HAL_TIM_OC_Start_DMA:pData <- $r2
	.loc	7 798 19                @ ../Drivers/STM32F1xx_HAL_Driver/Src/stm32f1xx_hal_tim.c:798:19
	movs	r0, #2
	str	r0, [r4, #64]
.Ltmp157:
.LBB22_4:
	@DEBUG_VALUE: HAL_TIM_OC_Start_DMA:Length <- $r3
	@DEBUG_VALUE: HAL_TIM_OC_Start_DMA:pData <- $r2
	.loc	7 801 3                 @ ../Drivers/STM32F1xx_HAL_Driver/Src/stm32f1xx_hal_tim.c:801:3
	ror.w	r0, r5, #2
	cmp	r0, #3
	bhi	.LBB22_12
.Ltmp158:
@ %bb.5:
	@DEBUG_VALUE: HAL_TIM_OC_Start_DMA:Length <- $r3
	@DEBUG_VALUE: HAL_TIM_OC_Start_DMA:pData <- $r2
	@DEBUG_VALUE: HAL_TIM_OC_Start_DMA:Length <- $r3
	.loc	7 0 3 is_stmt 0         @ ../Drivers/STM32F1xx_HAL_Driver/Src/stm32f1xx_hal_tim.c:0:3
.LCPI22_0:
	tbb	[pc, r0]
.Ltmp159:
@ %bb.6:
.LJTI22_0:
	.byte	(.LBB22_7-(.LCPI22_0+4))/2
	.byte	(.LBB22_8-(.LCPI22_0+4))/2
	.byte	(.LBB22_9-(.LCPI22_0+4))/2
	.byte	(.LBB22_10-(.LCPI22_0+4))/2
	.p2align	1
.LBB22_7:
.Ltmp160:
	@DEBUG_VALUE: HAL_TIM_OC_Start_DMA:Length <- $r3
	@DEBUG_VALUE: HAL_TIM_OC_Start_DMA:pData <- $r2
	.loc	7 806 7 is_stmt 1       @ ../Drivers/STM32F1xx_HAL_Driver/Src/stm32f1xx_hal_tim.c:806:7
	ldr	r0, [r4, #36]
	.loc	7 806 52 is_stmt 0      @ ../Drivers/STM32F1xx_HAL_Driver/Src/stm32f1xx_hal_tim.c:806:52
	movw	r1, :lower16:TIM_DMADelayPulseCplt
	movt	r1, :upper16:TIM_DMADelayPulseCplt
	str	r1, [r0, #44]
	.loc	7 809 7 is_stmt 1       @ ../Drivers/STM32F1xx_HAL_Driver/Src/stm32f1xx_hal_tim.c:809:7
	ldr	r0, [r4, #36]
	.loc	7 809 53 is_stmt 0      @ ../Drivers/STM32F1xx_HAL_Driver/Src/stm32f1xx_hal_tim.c:809:53
	movw	r1, :lower16:TIM_DMAError
	movt	r1, :upper16:TIM_DMAError
	str	r1, [r0, #52]
	.loc	7 812 86 is_stmt 1      @ ../Drivers/STM32F1xx_HAL_Driver/Src/stm32f1xx_hal_tim.c:812:86
	ldr	r1, [r4]
	.loc	7 812 24 is_stmt 0      @ ../Drivers/STM32F1xx_HAL_Driver/Src/stm32f1xx_hal_tim.c:812:24
	ldr	r0, [r4, #36]
	.loc	7 812 96                @ ../Drivers/STM32F1xx_HAL_Driver/Src/stm32f1xx_hal_tim.c:812:96
	add.w	r12, r1, #52
	.loc	7 812 7                 @ ../Drivers/STM32F1xx_HAL_Driver/Src/stm32f1xx_hal_tim.c:812:7
	mov	r1, r2
	mov	r2, r12
.Ltmp161:
	bl	HAL_DMA_Start_IT
.Ltmp162:
	.loc	7 0 7                   @ ../Drivers/STM32F1xx_HAL_Driver/Src/stm32f1xx_hal_tim.c:0:7
	mov.w	r0, #512
	b	.LBB22_11
.Ltmp163:
.LBB22_8:
	@DEBUG_VALUE: HAL_TIM_OC_Start_DMA:Length <- $r3
	@DEBUG_VALUE: HAL_TIM_OC_Start_DMA:pData <- $r2
	.loc	7 822 7 is_stmt 1       @ ../Drivers/STM32F1xx_HAL_Driver/Src/stm32f1xx_hal_tim.c:822:7
	ldr	r0, [r4, #40]
	.loc	7 822 52 is_stmt 0      @ ../Drivers/STM32F1xx_HAL_Driver/Src/stm32f1xx_hal_tim.c:822:52
	movw	r1, :lower16:TIM_DMADelayPulseCplt
	movt	r1, :upper16:TIM_DMADelayPulseCplt
	str	r1, [r0, #44]
	.loc	7 825 7 is_stmt 1       @ ../Drivers/STM32F1xx_HAL_Driver/Src/stm32f1xx_hal_tim.c:825:7
	ldr	r0, [r4, #40]
	.loc	7 825 53 is_stmt 0      @ ../Drivers/STM32F1xx_HAL_Driver/Src/stm32f1xx_hal_tim.c:825:53
	movw	r1, :lower16:TIM_DMAError
	movt	r1, :upper16:TIM_DMAError
	str	r1, [r0, #52]
	.loc	7 828 86 is_stmt 1      @ ../Drivers/STM32F1xx_HAL_Driver/Src/stm32f1xx_hal_tim.c:828:86
	ldr	r1, [r4]
	.loc	7 828 24 is_stmt 0      @ ../Drivers/STM32F1xx_HAL_Driver/Src/stm32f1xx_hal_tim.c:828:24
	ldr	r0, [r4, #40]
	.loc	7 828 96                @ ../Drivers/STM32F1xx_HAL_Driver/Src/stm32f1xx_hal_tim.c:828:96
	add.w	r12, r1, #56
	.loc	7 828 7                 @ ../Drivers/STM32F1xx_HAL_Driver/Src/stm32f1xx_hal_tim.c:828:7
	mov	r1, r2
	mov	r2, r12
.Ltmp164:
	bl	HAL_DMA_Start_IT
.Ltmp165:
	.loc	7 0 7                   @ ../Drivers/STM32F1xx_HAL_Driver/Src/stm32f1xx_hal_tim.c:0:7
	mov.w	r0, #1024
	b	.LBB22_11
.Ltmp166:
.LBB22_9:
	@DEBUG_VALUE: HAL_TIM_OC_Start_DMA:Length <- $r3
	@DEBUG_VALUE: HAL_TIM_OC_Start_DMA:pData <- $r2
	.loc	7 838 7 is_stmt 1       @ ../Drivers/STM32F1xx_HAL_Driver/Src/stm32f1xx_hal_tim.c:838:7
	ldr	r0, [r4, #44]
	.loc	7 838 52 is_stmt 0      @ ../Drivers/STM32F1xx_HAL_Driver/Src/stm32f1xx_hal_tim.c:838:52
	movw	r1, :lower16:TIM_DMADelayPulseCplt
	movt	r1, :upper16:TIM_DMADelayPulseCplt
	str	r1, [r0, #44]
	.loc	7 841 7 is_stmt 1       @ ../Drivers/STM32F1xx_HAL_Driver/Src/stm32f1xx_hal_tim.c:841:7
	ldr	r0, [r4, #44]
	.loc	7 841 53 is_stmt 0      @ ../Drivers/STM32F1xx_HAL_Driver/Src/stm32f1xx_hal_tim.c:841:53
	movw	r1, :lower16:TIM_DMAError
	movt	r1, :upper16:TIM_DMAError
	str	r1, [r0, #52]
	.loc	7 844 86 is_stmt 1      @ ../Drivers/STM32F1xx_HAL_Driver/Src/stm32f1xx_hal_tim.c:844:86
	ldr	r1, [r4]
	.loc	7 844 24 is_stmt 0      @ ../Drivers/STM32F1xx_HAL_Driver/Src/stm32f1xx_hal_tim.c:844:24
	ldr	r0, [r4, #44]
	.loc	7 844 96                @ ../Drivers/STM32F1xx_HAL_Driver/Src/stm32f1xx_hal_tim.c:844:96
	add.w	r12, r1, #60
	.loc	7 844 7                 @ ../Drivers/STM32F1xx_HAL_Driver/Src/stm32f1xx_hal_tim.c:844:7
	mov	r1, r2
	mov	r2, r12
.Ltmp167:
	bl	HAL_DMA_Start_IT
.Ltmp168:
	.loc	7 0 7                   @ ../Drivers/STM32F1xx_HAL_Driver/Src/stm32f1xx_hal_tim.c:0:7
	mov.w	r0, #2048
	b	.LBB22_11
.Ltmp169:
.LBB22_10:
	@DEBUG_VALUE: HAL_TIM_OC_Start_DMA:Length <- $r3
	@DEBUG_VALUE: HAL_TIM_OC_Start_DMA:pData <- $r2
	.loc	7 854 7 is_stmt 1       @ ../Drivers/STM32F1xx_HAL_Driver/Src/stm32f1xx_hal_tim.c:854:7
	ldr	r0, [r4, #48]
	.loc	7 854 52 is_stmt 0      @ ../Drivers/STM32F1xx_HAL_Driver/Src/stm32f1xx_hal_tim.c:854:52
	movw	r1, :lower16:TIM_DMADelayPulseCplt
	movt	r1, :upper16:TIM_DMADelayPulseCplt
	str	r1, [r0, #44]
	.loc	7 857 7 is_stmt 1       @ ../Drivers/STM32F1xx_HAL_Driver/Src/stm32f1xx_hal_tim.c:857:7
	ldr	r0, [r4, #48]
	.loc	7 857 53 is_stmt 0      @ ../Drivers/STM32F1xx_HAL_Driver/Src/stm32f1xx_hal_tim.c:857:53
	movw	r1, :lower16:TIM_DMAError
	movt	r1, :upper16:TIM_DMAError
	str	r1, [r0, #52]
	.loc	7 860 86 is_stmt 1      @ ../Drivers/STM32F1xx_HAL_Driver/Src/stm32f1xx_hal_tim.c:860:86
	ldr	r1, [r4]
	.loc	7 860 24 is_stmt 0      @ ../Drivers/STM32F1xx_HAL_Driver/Src/stm32f1xx_hal_tim.c:860:24
	ldr	r0, [r4, #48]
	.loc	7 860 96                @ ../Drivers/STM32F1xx_HAL_Driver/Src/stm32f1xx_hal_tim.c:860:96
	add.w	r12, r1, #64
	.loc	7 860 7                 @ ../Drivers/STM32F1xx_HAL_Driver/Src/stm32f1xx_hal_tim.c:860:7
	mov	r1, r2
	mov	r2, r12
.Ltmp170:
	bl	HAL_DMA_Start_IT
.Ltmp171:
	.loc	7 0 7                   @ ../Drivers/STM32F1xx_HAL_Driver/Src/stm32f1xx_hal_tim.c:0:7
	mov.w	r0, #4096
.Ltmp172:
.LBB22_11:
	ldr	r1, [r4]
	ldr	r2, [r1, #12]
	orrs	r0, r2
	str	r0, [r1, #12]
.LBB22_12:
	.loc	7 872 27 is_stmt 1      @ ../Drivers/STM32F1xx_HAL_Driver/Src/stm32f1xx_hal_tim.c:872:27
	ldr	r0, [r4]
	.loc	7 872 3 is_stmt 0       @ ../Drivers/STM32F1xx_HAL_Driver/Src/stm32f1xx_hal_tim.c:872:3
	mov	r1, r5
	movs	r2, #1
	bl	TIM_CCxChannelCmd
.Ltmp173:
	.loc	7 874 6 is_stmt 1       @ ../Drivers/STM32F1xx_HAL_Driver/Src/stm32f1xx_hal_tim.c:874:6
	ldr	r0, [r4]
	movw	r1, #11264
	movt	r1, #16385
.Ltmp174:
	.loc	7 874 6 is_stmt 0       @ ../Drivers/STM32F1xx_HAL_Driver/Src/stm32f1xx_hal_tim.c:874:6
	cmp	r0, r1
	bne	.LBB22_14
@ %bb.13:
.Ltmp175:
	.loc	7 877 5 is_stmt 1       @ ../Drivers/STM32F1xx_HAL_Driver/Src/stm32f1xx_hal_tim.c:877:5
	ldr	r1, [r0, #68]
	orr	r1, r1, #32768
	str	r1, [r0, #68]
.Ltmp176:
.LBB22_14:
	.loc	7 881 3                 @ ../Drivers/STM32F1xx_HAL_Driver/Src/stm32f1xx_hal_tim.c:881:3
	ldr	r1, [r0]
	orr	r1, r1, #1
	str	r1, [r0]
	movs	r0, #0
	.loc	7 885 1                 @ ../Drivers/STM32F1xx_HAL_Driver/Src/stm32f1xx_hal_tim.c:885:1
	pop	{r4, r5, r7, pc}
.Ltmp177:
.Lfunc_end22:
	.size	HAL_TIM_OC_Start_DMA, .Lfunc_end22-HAL_TIM_OC_Start_DMA
	.cfi_endproc
	.cantunwind
	.fnend
                                        @ -- End function
	.section	.text.TIM_DMADelayPulseCplt,"ax",%progbits
	.hidden	TIM_DMADelayPulseCplt   @ -- Begin function TIM_DMADelayPulseCplt
	.globl	TIM_DMADelayPulseCplt
	.p2align	2
	.type	TIM_DMADelayPulseCplt,%function
	.code	16                      @ @TIM_DMADelayPulseCplt
	.thumb_func
TIM_DMADelayPulseCplt:
.Lfunc_begin23:
	.loc	7 4476 0                @ ../Drivers/STM32F1xx_HAL_Driver/Src/stm32f1xx_hal_tim.c:4476:0
	.fnstart
	.cfi_startproc
@ %bb.0:
	.save	{r4, lr}
	push	{r4, lr}
	.cfi_def_cfa_offset 8
	.cfi_offset lr, -4
	.cfi_offset r4, -8
	@DEBUG_VALUE: TIM_DMADelayPulseCplt:hdma <- $r0
	@DEBUG_VALUE: TIM_DMADelayPulseCplt:hdma <- $r0
.Ltmp178:
	.loc	7 4477 80 prologue_end  @ ../Drivers/STM32F1xx_HAL_Driver/Src/stm32f1xx_hal_tim.c:4477:80
	ldr	r4, [r0, #40]
.Ltmp179:
	@DEBUG_VALUE: TIM_DMADelayPulseCplt:htim <- $r4
	.loc	7 0 80 is_stmt 0        @ ../Drivers/STM32F1xx_HAL_Driver/Src/stm32f1xx_hal_tim.c:0:80
	movs	r1, #1
	.loc	7 4479 14 is_stmt 1     @ ../Drivers/STM32F1xx_HAL_Driver/Src/stm32f1xx_hal_tim.c:4479:14
	str	r1, [r4, #64]
.Ltmp180:
	.loc	7 4481 15               @ ../Drivers/STM32F1xx_HAL_Driver/Src/stm32f1xx_hal_tim.c:4481:15
	ldr	r2, [r4, #36]
.Ltmp181:
	.loc	7 4481 7 is_stmt 0      @ ../Drivers/STM32F1xx_HAL_Driver/Src/stm32f1xx_hal_tim.c:4481:7
	cmp	r2, r0
	beq	.LBB23_7
.Ltmp182:
@ %bb.1:
	@DEBUG_VALUE: TIM_DMADelayPulseCplt:htim <- $r4
	@DEBUG_VALUE: TIM_DMADelayPulseCplt:hdma <- $r0
	.loc	7 4485 20 is_stmt 1     @ ../Drivers/STM32F1xx_HAL_Driver/Src/stm32f1xx_hal_tim.c:4485:20
	ldr	r1, [r4, #40]
.Ltmp183:
	.loc	7 4485 12 is_stmt 0     @ ../Drivers/STM32F1xx_HAL_Driver/Src/stm32f1xx_hal_tim.c:4485:12
	cmp	r1, r0
	beq	.LBB23_5
.Ltmp184:
@ %bb.2:
	@DEBUG_VALUE: TIM_DMADelayPulseCplt:htim <- $r4
	@DEBUG_VALUE: TIM_DMADelayPulseCplt:hdma <- $r0
	.loc	7 4489 20 is_stmt 1     @ ../Drivers/STM32F1xx_HAL_Driver/Src/stm32f1xx_hal_tim.c:4489:20
	ldr	r1, [r4, #44]
.Ltmp185:
	.loc	7 4489 12 is_stmt 0     @ ../Drivers/STM32F1xx_HAL_Driver/Src/stm32f1xx_hal_tim.c:4489:12
	cmp	r1, r0
	beq	.LBB23_6
.Ltmp186:
@ %bb.3:
	@DEBUG_VALUE: TIM_DMADelayPulseCplt:htim <- $r4
	@DEBUG_VALUE: TIM_DMADelayPulseCplt:hdma <- $r0
	.loc	7 4493 20 is_stmt 1     @ ../Drivers/STM32F1xx_HAL_Driver/Src/stm32f1xx_hal_tim.c:4493:20
	ldr	r1, [r4, #48]
.Ltmp187:
	.loc	7 4493 12 is_stmt 0     @ ../Drivers/STM32F1xx_HAL_Driver/Src/stm32f1xx_hal_tim.c:4493:12
	cmp	r1, r0
	bne	.LBB23_8
.Ltmp188:
@ %bb.4:
	@DEBUG_VALUE: TIM_DMADelayPulseCplt:htim <- $r4
	@DEBUG_VALUE: TIM_DMADelayPulseCplt:hdma <- $r0
	.loc	7 0 12                  @ ../Drivers/STM32F1xx_HAL_Driver/Src/stm32f1xx_hal_tim.c:0:12
	movs	r1, #8
	b	.LBB23_7
.Ltmp189:
.LBB23_5:
	@DEBUG_VALUE: TIM_DMADelayPulseCplt:htim <- $r4
	@DEBUG_VALUE: TIM_DMADelayPulseCplt:hdma <- $r0
	movs	r1, #2
	b	.LBB23_7
.Ltmp190:
.LBB23_6:
	@DEBUG_VALUE: TIM_DMADelayPulseCplt:htim <- $r4
	@DEBUG_VALUE: TIM_DMADelayPulseCplt:hdma <- $r0
	movs	r1, #4
.Ltmp191:
.LBB23_7:
	@DEBUG_VALUE: TIM_DMADelayPulseCplt:htim <- $r4
	@DEBUG_VALUE: TIM_DMADelayPulseCplt:hdma <- $r0
	str	r1, [r4, #28]
.Ltmp192:
.LBB23_8:
	@DEBUG_VALUE: TIM_DMADelayPulseCplt:htim <- $r4
	@DEBUG_VALUE: TIM_DMADelayPulseCplt:hdma <- $r0
	.loc	7 4498 3 is_stmt 1      @ ../Drivers/STM32F1xx_HAL_Driver/Src/stm32f1xx_hal_tim.c:4498:3
	mov	r0, r4
.Ltmp193:
	bl	HAL_TIM_PWM_PulseFinishedCallback
	.loc	7 4500 17               @ ../Drivers/STM32F1xx_HAL_Driver/Src/stm32f1xx_hal_tim.c:4500:17
	movs	r0, #0
	str	r0, [r4, #28]
	.loc	7 4501 1                @ ../Drivers/STM32F1xx_HAL_Driver/Src/stm32f1xx_hal_tim.c:4501:1
	pop	{r4, pc}
.Ltmp194:
.Lfunc_end23:
	.size	TIM_DMADelayPulseCplt, .Lfunc_end23-TIM_DMADelayPulseCplt
	.cfi_endproc
	.cantunwind
	.fnend
                                        @ -- End function
	.section	.text.HAL_TIM_OC_Stop_DMA,"ax",%progbits
	.hidden	HAL_TIM_OC_Stop_DMA     @ -- Begin function HAL_TIM_OC_Stop_DMA
	.globl	HAL_TIM_OC_Stop_DMA
	.p2align	2
	.type	HAL_TIM_OC_Stop_DMA,%function
	.code	16                      @ @HAL_TIM_OC_Stop_DMA
	.thumb_func
HAL_TIM_OC_Stop_DMA:
.Lfunc_begin24:
	.loc	7 899 0                 @ ../Drivers/STM32F1xx_HAL_Driver/Src/stm32f1xx_hal_tim.c:899:0
	.fnstart
	.cfi_startproc
@ %bb.0:
	.save	{r4, lr}
	push	{r4, lr}
	.cfi_def_cfa_offset 8
	.cfi_offset lr, -4
	.cfi_offset r4, -8
	@DEBUG_VALUE: HAL_TIM_OC_Stop_DMA:htim <- $r0
	@DEBUG_VALUE: HAL_TIM_OC_Stop_DMA:Channel <- $r1
	mov	r4, r0
	@DEBUG_VALUE: HAL_TIM_OC_Stop_DMA:Channel <- $r1
.Ltmp195:
	@DEBUG_VALUE: HAL_TIM_OC_Stop_DMA:htim <- $r4
	.loc	7 903 3 prologue_end    @ ../Drivers/STM32F1xx_HAL_Driver/Src/stm32f1xx_hal_tim.c:903:3
	ror.w	r0, r1, #2
	cmp	r0, #3
	bhi	.LBB24_2
.Ltmp196:
@ %bb.1:
	@DEBUG_VALUE: HAL_TIM_OC_Stop_DMA:htim <- $r4
	@DEBUG_VALUE: HAL_TIM_OC_Stop_DMA:Channel <- $r1
	adr	r2, .LCPI24_0
	ldr.w	r0, [r2, r0, lsl #2]
	ldr	r2, [r4]
	ldr	r3, [r2, #12]
	ands	r0, r3
	str	r0, [r2, #12]
.Ltmp197:
.LBB24_2:
	@DEBUG_VALUE: HAL_TIM_OC_Stop_DMA:htim <- $r4
	@DEBUG_VALUE: HAL_TIM_OC_Stop_DMA:Channel <- $r1
	.loc	7 938 27                @ ../Drivers/STM32F1xx_HAL_Driver/Src/stm32f1xx_hal_tim.c:938:27
	ldr	r0, [r4]
	.loc	7 938 3 is_stmt 0       @ ../Drivers/STM32F1xx_HAL_Driver/Src/stm32f1xx_hal_tim.c:938:3
	movs	r2, #0
	bl	TIM_CCxChannelCmd
.Ltmp198:
	.loc	7 940 6 is_stmt 1       @ ../Drivers/STM32F1xx_HAL_Driver/Src/stm32f1xx_hal_tim.c:940:6
	ldr	r0, [r4]
	movw	r1, #11264
	movt	r1, #16385
.Ltmp199:
	.loc	7 940 6 is_stmt 0       @ ../Drivers/STM32F1xx_HAL_Driver/Src/stm32f1xx_hal_tim.c:940:6
	cmp	r0, r1
	bne	.LBB24_6
.Ltmp200:
@ %bb.3:
	@DEBUG_VALUE: HAL_TIM_OC_Stop_DMA:htim <- $r4
	.loc	7 943 5 is_stmt 1       @ ../Drivers/STM32F1xx_HAL_Driver/Src/stm32f1xx_hal_tim.c:943:5
	ldr	r1, [r0, #32]
	movw	r2, #4369
.Ltmp201:
	.loc	7 943 5 is_stmt 0       @ ../Drivers/STM32F1xx_HAL_Driver/Src/stm32f1xx_hal_tim.c:943:5
	tst	r1, r2
	bne	.LBB24_6
.Ltmp202:
@ %bb.4:
	@DEBUG_VALUE: HAL_TIM_OC_Stop_DMA:htim <- $r4
	.loc	7 943 5                 @ ../Drivers/STM32F1xx_HAL_Driver/Src/stm32f1xx_hal_tim.c:943:5
	ldr	r1, [r0, #32]
	movw	r2, #1092
.Ltmp203:
	.loc	7 943 5                 @ ../Drivers/STM32F1xx_HAL_Driver/Src/stm32f1xx_hal_tim.c:943:5
	tst	r1, r2
	bne	.LBB24_6
.Ltmp204:
@ %bb.5:
	@DEBUG_VALUE: HAL_TIM_OC_Stop_DMA:htim <- $r4
	.loc	7 943 5                 @ ../Drivers/STM32F1xx_HAL_Driver/Src/stm32f1xx_hal_tim.c:943:5
	ldr	r1, [r0, #68]
	bic	r1, r1, #32768
	str	r1, [r0, #68]
.Ltmp205:
.LBB24_6:
	@DEBUG_VALUE: HAL_TIM_OC_Stop_DMA:htim <- $r4
	.loc	7 947 3 is_stmt 1       @ ../Drivers/STM32F1xx_HAL_Driver/Src/stm32f1xx_hal_tim.c:947:3
	ldr	r1, [r0, #32]
	movw	r2, #4369
.Ltmp206:
	.loc	7 947 3 is_stmt 0       @ ../Drivers/STM32F1xx_HAL_Driver/Src/stm32f1xx_hal_tim.c:947:3
	tst	r1, r2
	bne	.LBB24_9
.Ltmp207:
@ %bb.7:
	@DEBUG_VALUE: HAL_TIM_OC_Stop_DMA:htim <- $r4
	.loc	7 947 3                 @ ../Drivers/STM32F1xx_HAL_Driver/Src/stm32f1xx_hal_tim.c:947:3
	ldr	r1, [r0, #32]
	movw	r2, #1092
.Ltmp208:
	.loc	7 947 3                 @ ../Drivers/STM32F1xx_HAL_Driver/Src/stm32f1xx_hal_tim.c:947:3
	tst	r1, r2
	bne	.LBB24_9
.Ltmp209:
@ %bb.8:
	@DEBUG_VALUE: HAL_TIM_OC_Stop_DMA:htim <- $r4
	.loc	7 947 3                 @ ../Drivers/STM32F1xx_HAL_Driver/Src/stm32f1xx_hal_tim.c:947:3
	ldr	r1, [r0]
	bic	r1, r1, #1
	str	r1, [r0]
.Ltmp210:
.LBB24_9:
	@DEBUG_VALUE: HAL_TIM_OC_Stop_DMA:htim <- $r4
	.loc	7 950 15 is_stmt 1      @ ../Drivers/STM32F1xx_HAL_Driver/Src/stm32f1xx_hal_tim.c:950:15
	movs	r0, #1
	str	r0, [r4, #64]
	.loc	7 953 3                 @ ../Drivers/STM32F1xx_HAL_Driver/Src/stm32f1xx_hal_tim.c:953:3
	movs	r0, #0
	pop	{r4, pc}
.Ltmp211:
	.p2align	2
@ %bb.10:
	.loc	7 0 3 is_stmt 0         @ ../Drivers/STM32F1xx_HAL_Driver/Src/stm32f1xx_hal_tim.c:0:3
.LCPI24_0:
.Lswitch.table.HAL_TIM_OC_Stop_DMA:
	.long	4294966783              @ 0xfffffdff
	.long	4294966271              @ 0xfffffbff
	.long	4294965247              @ 0xfffff7ff
	.long	4294963199              @ 0xffffefff
.Lfunc_end24:
	.size	HAL_TIM_OC_Stop_DMA, .Lfunc_end24-HAL_TIM_OC_Stop_DMA
	.cfi_endproc
	.cantunwind
	.fnend
                                        @ -- End function
	.section	.text.HAL_TIM_PWM_Init,"ax",%progbits
	.hidden	HAL_TIM_PWM_Init        @ -- Begin function HAL_TIM_PWM_Init
	.globl	HAL_TIM_PWM_Init
	.p2align	2
	.type	HAL_TIM_PWM_Init,%function
	.code	16                      @ @HAL_TIM_PWM_Init
	.thumb_func
HAL_TIM_PWM_Init:
.Lfunc_begin25:
	.loc	7 988 0 is_stmt 1       @ ../Drivers/STM32F1xx_HAL_Driver/Src/stm32f1xx_hal_tim.c:988:0
	.fnstart
	.cfi_startproc
@ %bb.0:
	.save	{r4, lr}
	push	{r4, lr}
	.cfi_def_cfa_offset 8
	.cfi_offset lr, -4
	.cfi_offset r4, -8
	@DEBUG_VALUE: HAL_TIM_PWM_Init:htim <- $r0
	mov	r4, r0
.Ltmp212:
	@DEBUG_VALUE: HAL_TIM_PWM_Init:htim <- $r4
	.loc	7 990 6 prologue_end    @ ../Drivers/STM32F1xx_HAL_Driver/Src/stm32f1xx_hal_tim.c:990:6
	cmp	r0, #0
	itt	eq
	moveq	r0, #1
	.loc	7 1020 1                @ ../Drivers/STM32F1xx_HAL_Driver/Src/stm32f1xx_hal_tim.c:1020:1
	popeq	{r4, pc}
.Ltmp213:
	.loc	7 1001 12               @ ../Drivers/STM32F1xx_HAL_Driver/Src/stm32f1xx_hal_tim.c:1001:12
	ldr	r0, [r4, #64]
.Ltmp214:
	.loc	7 1001 6 is_stmt 0      @ ../Drivers/STM32F1xx_HAL_Driver/Src/stm32f1xx_hal_tim.c:1001:6
	cbnz	r0, .LBB25_2
@ %bb.1:
.Ltmp215:
	.loc	7 1004 16 is_stmt 1     @ ../Drivers/STM32F1xx_HAL_Driver/Src/stm32f1xx_hal_tim.c:1004:16
	movs	r0, #0
	str	r0, [r4, #60]
	.loc	7 1007 5                @ ../Drivers/STM32F1xx_HAL_Driver/Src/stm32f1xx_hal_tim.c:1007:5
	mov	r0, r4
	bl	HAL_TIM_PWM_MspInit
.Ltmp216:
.LBB25_2:
	.loc	7 1011 14               @ ../Drivers/STM32F1xx_HAL_Driver/Src/stm32f1xx_hal_tim.c:1011:14
	movs	r0, #2
	str	r0, [r4, #64]
	.loc	7 1014 28               @ ../Drivers/STM32F1xx_HAL_Driver/Src/stm32f1xx_hal_tim.c:1014:28
	ldr	r0, [r4]
	.loc	7 1014 45 is_stmt 0     @ ../Drivers/STM32F1xx_HAL_Driver/Src/stm32f1xx_hal_tim.c:1014:45
	adds	r1, r4, #4
	.loc	7 1014 3                @ ../Drivers/STM32F1xx_HAL_Driver/Src/stm32f1xx_hal_tim.c:1014:3
	bl	TIM_Base_SetConfig
	.loc	7 1017 14 is_stmt 1     @ ../Drivers/STM32F1xx_HAL_Driver/Src/stm32f1xx_hal_tim.c:1017:14
	movs	r0, #1
	str	r0, [r4, #64]
	movs	r0, #0
	.loc	7 1020 1                @ ../Drivers/STM32F1xx_HAL_Driver/Src/stm32f1xx_hal_tim.c:1020:1
	pop	{r4, pc}
.Ltmp217:
.Lfunc_end25:
	.size	HAL_TIM_PWM_Init, .Lfunc_end25-HAL_TIM_PWM_Init
	.cfi_endproc
	.cantunwind
	.fnend
                                        @ -- End function
	.section	.text.HAL_TIM_PWM_MspInit,"ax",%progbits
	.hidden	HAL_TIM_PWM_MspInit     @ -- Begin function HAL_TIM_PWM_MspInit
	.weak	HAL_TIM_PWM_MspInit
	.p2align	2
	.type	HAL_TIM_PWM_MspInit,%function
	.code	16                      @ @HAL_TIM_PWM_MspInit
	.thumb_func
HAL_TIM_PWM_MspInit:
.Lfunc_begin26:
	.loc	7 1055 0                @ ../Drivers/STM32F1xx_HAL_Driver/Src/stm32f1xx_hal_tim.c:1055:0
	.fnstart
	.cfi_startproc
@ %bb.0:
	@DEBUG_VALUE: HAL_TIM_PWM_MspInit:htim <- $r0
	.loc	7 1061 1 prologue_end   @ ../Drivers/STM32F1xx_HAL_Driver/Src/stm32f1xx_hal_tim.c:1061:1
	bx	lr
.Ltmp218:
.Lfunc_end26:
	.size	HAL_TIM_PWM_MspInit, .Lfunc_end26-HAL_TIM_PWM_MspInit
	.cfi_endproc
	.cantunwind
	.fnend
                                        @ -- End function
	.section	.text.HAL_TIM_PWM_DeInit,"ax",%progbits
	.hidden	HAL_TIM_PWM_DeInit      @ -- Begin function HAL_TIM_PWM_DeInit
	.globl	HAL_TIM_PWM_DeInit
	.p2align	2
	.type	HAL_TIM_PWM_DeInit,%function
	.code	16                      @ @HAL_TIM_PWM_DeInit
	.thumb_func
HAL_TIM_PWM_DeInit:
.Lfunc_begin27:
	.loc	7 1028 0                @ ../Drivers/STM32F1xx_HAL_Driver/Src/stm32f1xx_hal_tim.c:1028:0
	.fnstart
	.cfi_startproc
@ %bb.0:
	.save	{r4, lr}
	push	{r4, lr}
	.cfi_def_cfa_offset 8
	.cfi_offset lr, -4
	.cfi_offset r4, -8
	@DEBUG_VALUE: HAL_TIM_PWM_DeInit:htim <- $r0
	mov	r4, r0
.Ltmp219:
	@DEBUG_VALUE: HAL_TIM_PWM_DeInit:htim <- $r4
	.loc	7 1032 15 prologue_end  @ ../Drivers/STM32F1xx_HAL_Driver/Src/stm32f1xx_hal_tim.c:1032:15
	movs	r0, #2
	str	r0, [r4, #64]
.Ltmp220:
	.loc	7 1035 3                @ ../Drivers/STM32F1xx_HAL_Driver/Src/stm32f1xx_hal_tim.c:1035:3
	ldr	r0, [r4]
	ldr	r1, [r0, #32]
	movw	r2, #4369
.Ltmp221:
	.loc	7 1035 3 is_stmt 0      @ ../Drivers/STM32F1xx_HAL_Driver/Src/stm32f1xx_hal_tim.c:1035:3
	tst	r1, r2
	bne	.LBB27_3
.Ltmp222:
@ %bb.1:
	@DEBUG_VALUE: HAL_TIM_PWM_DeInit:htim <- $r4
	.loc	7 1035 3                @ ../Drivers/STM32F1xx_HAL_Driver/Src/stm32f1xx_hal_tim.c:1035:3
	ldr	r1, [r0, #32]
	movw	r2, #1092
.Ltmp223:
	.loc	7 1035 3                @ ../Drivers/STM32F1xx_HAL_Driver/Src/stm32f1xx_hal_tim.c:1035:3
	tst	r1, r2
	bne	.LBB27_3
.Ltmp224:
@ %bb.2:
	@DEBUG_VALUE: HAL_TIM_PWM_DeInit:htim <- $r4
	.loc	7 1035 3                @ ../Drivers/STM32F1xx_HAL_Driver/Src/stm32f1xx_hal_tim.c:1035:3
	ldr	r1, [r0]
	bic	r1, r1, #1
	str	r1, [r0]
.Ltmp225:
.LBB27_3:
	@DEBUG_VALUE: HAL_TIM_PWM_DeInit:htim <- $r4
	.loc	7 1038 3 is_stmt 1      @ ../Drivers/STM32F1xx_HAL_Driver/Src/stm32f1xx_hal_tim.c:1038:3
	mov	r0, r4
	bl	HAL_TIM_PWM_MspDeInit
	movs	r0, #0
.Ltmp226:
	.loc	7 1044 3                @ ../Drivers/STM32F1xx_HAL_Driver/Src/stm32f1xx_hal_tim.c:1044:3
	str	r0, [r4, #60]
.Ltmp227:
	.loc	7 1041 15               @ ../Drivers/STM32F1xx_HAL_Driver/Src/stm32f1xx_hal_tim.c:1041:15
	str	r0, [r4, #64]
	.loc	7 1046 3                @ ../Drivers/STM32F1xx_HAL_Driver/Src/stm32f1xx_hal_tim.c:1046:3
	movs	r0, #0
	pop	{r4, pc}
.Ltmp228:
.Lfunc_end27:
	.size	HAL_TIM_PWM_DeInit, .Lfunc_end27-HAL_TIM_PWM_DeInit
	.cfi_endproc
	.cantunwind
	.fnend
                                        @ -- End function
	.section	.text.HAL_TIM_PWM_MspDeInit,"ax",%progbits
	.hidden	HAL_TIM_PWM_MspDeInit   @ -- Begin function HAL_TIM_PWM_MspDeInit
	.weak	HAL_TIM_PWM_MspDeInit
	.p2align	2
	.type	HAL_TIM_PWM_MspDeInit,%function
	.code	16                      @ @HAL_TIM_PWM_MspDeInit
	.thumb_func
HAL_TIM_PWM_MspDeInit:
.Lfunc_begin28:
	.loc	7 1069 0                @ ../Drivers/STM32F1xx_HAL_Driver/Src/stm32f1xx_hal_tim.c:1069:0
	.fnstart
	.cfi_startproc
@ %bb.0:
	@DEBUG_VALUE: HAL_TIM_PWM_MspDeInit:htim <- $r0
	.loc	7 1075 1 prologue_end   @ ../Drivers/STM32F1xx_HAL_Driver/Src/stm32f1xx_hal_tim.c:1075:1
	bx	lr
.Ltmp229:
.Lfunc_end28:
	.size	HAL_TIM_PWM_MspDeInit, .Lfunc_end28-HAL_TIM_PWM_MspDeInit
	.cfi_endproc
	.cantunwind
	.fnend
                                        @ -- End function
	.section	.text.HAL_TIM_PWM_Start,"ax",%progbits
	.hidden	HAL_TIM_PWM_Start       @ -- Begin function HAL_TIM_PWM_Start
	.globl	HAL_TIM_PWM_Start
	.p2align	2
	.type	HAL_TIM_PWM_Start,%function
	.code	16                      @ @HAL_TIM_PWM_Start
	.thumb_func
HAL_TIM_PWM_Start:
.Lfunc_begin29:
	.loc	7 1089 0                @ ../Drivers/STM32F1xx_HAL_Driver/Src/stm32f1xx_hal_tim.c:1089:0
	.fnstart
	.cfi_startproc
@ %bb.0:
	.save	{r4, lr}
	push	{r4, lr}
	.cfi_def_cfa_offset 8
	.cfi_offset lr, -4
	.cfi_offset r4, -8
	@DEBUG_VALUE: HAL_TIM_PWM_Start:htim <- $r0
	@DEBUG_VALUE: HAL_TIM_PWM_Start:Channel <- $r1
	mov	r4, r0
	@DEBUG_VALUE: HAL_TIM_PWM_Start:Channel <- $r1
.Ltmp230:
	@DEBUG_VALUE: HAL_TIM_PWM_Start:htim <- $r4
	.loc	7 1094 27 prologue_end  @ ../Drivers/STM32F1xx_HAL_Driver/Src/stm32f1xx_hal_tim.c:1094:27
	ldr	r0, [r0]
	@DEBUG_VALUE: HAL_TIM_PWM_Start:Channel <- $r1
	.loc	7 1094 3 is_stmt 0      @ ../Drivers/STM32F1xx_HAL_Driver/Src/stm32f1xx_hal_tim.c:1094:3
	movs	r2, #1
	bl	TIM_CCxChannelCmd
.Ltmp231:
	.loc	7 1096 6 is_stmt 1      @ ../Drivers/STM32F1xx_HAL_Driver/Src/stm32f1xx_hal_tim.c:1096:6
	ldr	r0, [r4]
	movw	r1, #11264
	movt	r1, #16385
.Ltmp232:
	.loc	7 1096 6 is_stmt 0      @ ../Drivers/STM32F1xx_HAL_Driver/Src/stm32f1xx_hal_tim.c:1096:6
	cmp	r0, r1
	bne	.LBB29_2
.Ltmp233:
@ %bb.1:
	@DEBUG_VALUE: HAL_TIM_PWM_Start:htim <- $r4
	.loc	7 1099 5 is_stmt 1      @ ../Drivers/STM32F1xx_HAL_Driver/Src/stm32f1xx_hal_tim.c:1099:5
	ldr	r1, [r0, #68]
	orr	r1, r1, #32768
	str	r1, [r0, #68]
.Ltmp234:
.LBB29_2:
	@DEBUG_VALUE: HAL_TIM_PWM_Start:htim <- $r4
	.loc	7 1103 3                @ ../Drivers/STM32F1xx_HAL_Driver/Src/stm32f1xx_hal_tim.c:1103:3
	ldr	r1, [r0]
	orr	r1, r1, #1
	str	r1, [r0]
	.loc	7 1106 3                @ ../Drivers/STM32F1xx_HAL_Driver/Src/stm32f1xx_hal_tim.c:1106:3
	movs	r0, #0
	pop	{r4, pc}
.Ltmp235:
.Lfunc_end29:
	.size	HAL_TIM_PWM_Start, .Lfunc_end29-HAL_TIM_PWM_Start
	.cfi_endproc
	.cantunwind
	.fnend
                                        @ -- End function
	.section	.text.HAL_TIM_PWM_Stop,"ax",%progbits
	.hidden	HAL_TIM_PWM_Stop        @ -- Begin function HAL_TIM_PWM_Stop
	.globl	HAL_TIM_PWM_Stop
	.p2align	2
	.type	HAL_TIM_PWM_Stop,%function
	.code	16                      @ @HAL_TIM_PWM_Stop
	.thumb_func
HAL_TIM_PWM_Stop:
.Lfunc_begin30:
	.loc	7 1121 0                @ ../Drivers/STM32F1xx_HAL_Driver/Src/stm32f1xx_hal_tim.c:1121:0
	.fnstart
	.cfi_startproc
@ %bb.0:
	.save	{r4, lr}
	push	{r4, lr}
	.cfi_def_cfa_offset 8
	.cfi_offset lr, -4
	.cfi_offset r4, -8
	@DEBUG_VALUE: HAL_TIM_PWM_Stop:htim <- $r0
	@DEBUG_VALUE: HAL_TIM_PWM_Stop:Channel <- $r1
	mov	r4, r0
	@DEBUG_VALUE: HAL_TIM_PWM_Stop:Channel <- $r1
.Ltmp236:
	@DEBUG_VALUE: HAL_TIM_PWM_Stop:htim <- $r4
	.loc	7 1126 27 prologue_end  @ ../Drivers/STM32F1xx_HAL_Driver/Src/stm32f1xx_hal_tim.c:1126:27
	ldr	r0, [r0]
	@DEBUG_VALUE: HAL_TIM_PWM_Stop:Channel <- $r1
	.loc	7 1126 3 is_stmt 0      @ ../Drivers/STM32F1xx_HAL_Driver/Src/stm32f1xx_hal_tim.c:1126:3
	movs	r2, #0
	bl	TIM_CCxChannelCmd
.Ltmp237:
	.loc	7 1128 6 is_stmt 1      @ ../Drivers/STM32F1xx_HAL_Driver/Src/stm32f1xx_hal_tim.c:1128:6
	ldr	r0, [r4]
	movw	r1, #11264
	movt	r1, #16385
.Ltmp238:
	.loc	7 1128 6 is_stmt 0      @ ../Drivers/STM32F1xx_HAL_Driver/Src/stm32f1xx_hal_tim.c:1128:6
	cmp	r0, r1
	bne	.LBB30_4
.Ltmp239:
@ %bb.1:
	@DEBUG_VALUE: HAL_TIM_PWM_Stop:htim <- $r4
	.loc	7 1131 5 is_stmt 1      @ ../Drivers/STM32F1xx_HAL_Driver/Src/stm32f1xx_hal_tim.c:1131:5
	ldr	r1, [r0, #32]
	movw	r2, #4369
.Ltmp240:
	.loc	7 1131 5 is_stmt 0      @ ../Drivers/STM32F1xx_HAL_Driver/Src/stm32f1xx_hal_tim.c:1131:5
	tst	r1, r2
	bne	.LBB30_4
.Ltmp241:
@ %bb.2:
	@DEBUG_VALUE: HAL_TIM_PWM_Stop:htim <- $r4
	.loc	7 1131 5                @ ../Drivers/STM32F1xx_HAL_Driver/Src/stm32f1xx_hal_tim.c:1131:5
	ldr	r1, [r0, #32]
	movw	r2, #1092
.Ltmp242:
	.loc	7 1131 5                @ ../Drivers/STM32F1xx_HAL_Driver/Src/stm32f1xx_hal_tim.c:1131:5
	tst	r1, r2
	bne	.LBB30_4
.Ltmp243:
@ %bb.3:
	@DEBUG_VALUE: HAL_TIM_PWM_Stop:htim <- $r4
	.loc	7 1131 5                @ ../Drivers/STM32F1xx_HAL_Driver/Src/stm32f1xx_hal_tim.c:1131:5
	ldr	r1, [r0, #68]
	bic	r1, r1, #32768
	str	r1, [r0, #68]
.Ltmp244:
.LBB30_4:
	@DEBUG_VALUE: HAL_TIM_PWM_Stop:htim <- $r4
	.loc	7 1135 3 is_stmt 1      @ ../Drivers/STM32F1xx_HAL_Driver/Src/stm32f1xx_hal_tim.c:1135:3
	ldr	r1, [r0, #32]
	movw	r2, #4369
.Ltmp245:
	.loc	7 1135 3 is_stmt 0      @ ../Drivers/STM32F1xx_HAL_Driver/Src/stm32f1xx_hal_tim.c:1135:3
	tst	r1, r2
	bne	.LBB30_7
.Ltmp246:
@ %bb.5:
	@DEBUG_VALUE: HAL_TIM_PWM_Stop:htim <- $r4
	.loc	7 1135 3                @ ../Drivers/STM32F1xx_HAL_Driver/Src/stm32f1xx_hal_tim.c:1135:3
	ldr	r1, [r0, #32]
	movw	r2, #1092
.Ltmp247:
	.loc	7 1135 3                @ ../Drivers/STM32F1xx_HAL_Driver/Src/stm32f1xx_hal_tim.c:1135:3
	tst	r1, r2
	bne	.LBB30_7
.Ltmp248:
@ %bb.6:
	@DEBUG_VALUE: HAL_TIM_PWM_Stop:htim <- $r4
	.loc	7 1135 3                @ ../Drivers/STM32F1xx_HAL_Driver/Src/stm32f1xx_hal_tim.c:1135:3
	ldr	r1, [r0]
	bic	r1, r1, #1
	str	r1, [r0]
.Ltmp249:
.LBB30_7:
	@DEBUG_VALUE: HAL_TIM_PWM_Stop:htim <- $r4
	.loc	7 1138 15 is_stmt 1     @ ../Drivers/STM32F1xx_HAL_Driver/Src/stm32f1xx_hal_tim.c:1138:15
	movs	r0, #1
	str	r0, [r4, #64]
	.loc	7 1141 3                @ ../Drivers/STM32F1xx_HAL_Driver/Src/stm32f1xx_hal_tim.c:1141:3
	movs	r0, #0
	pop	{r4, pc}
.Ltmp250:
.Lfunc_end30:
	.size	HAL_TIM_PWM_Stop, .Lfunc_end30-HAL_TIM_PWM_Stop
	.cfi_endproc
	.cantunwind
	.fnend
                                        @ -- End function
	.section	.text.HAL_TIM_PWM_Start_IT,"ax",%progbits
	.hidden	HAL_TIM_PWM_Start_IT    @ -- Begin function HAL_TIM_PWM_Start_IT
	.globl	HAL_TIM_PWM_Start_IT
	.p2align	2
	.type	HAL_TIM_PWM_Start_IT,%function
	.code	16                      @ @HAL_TIM_PWM_Start_IT
	.thumb_func
HAL_TIM_PWM_Start_IT:
.Lfunc_begin31:
	.loc	7 1156 0                @ ../Drivers/STM32F1xx_HAL_Driver/Src/stm32f1xx_hal_tim.c:1156:0
	.fnstart
	.cfi_startproc
@ %bb.0:
	.save	{r4, lr}
	push	{r4, lr}
	.cfi_def_cfa_offset 8
	.cfi_offset lr, -4
	.cfi_offset r4, -8
	@DEBUG_VALUE: HAL_TIM_PWM_Start_IT:htim <- $r0
	@DEBUG_VALUE: HAL_TIM_PWM_Start_IT:Channel <- $r1
	mov	r4, r0
	@DEBUG_VALUE: HAL_TIM_PWM_Start_IT:Channel <- $r1
.Ltmp251:
	@DEBUG_VALUE: HAL_TIM_PWM_Start_IT:htim <- $r4
	.loc	7 1160 3 prologue_end   @ ../Drivers/STM32F1xx_HAL_Driver/Src/stm32f1xx_hal_tim.c:1160:3
	ror.w	r0, r1, #2
	cmp	r0, #3
	bhi	.LBB31_2
.Ltmp252:
@ %bb.1:
	@DEBUG_VALUE: HAL_TIM_PWM_Start_IT:htim <- $r4
	@DEBUG_VALUE: HAL_TIM_PWM_Start_IT:Channel <- $r1
	adr	r2, .LCPI31_0
	ldr.w	r0, [r2, r0, lsl #2]
	ldr	r2, [r4]
	ldr	r3, [r2, #12]
	orrs	r0, r3
	str	r0, [r2, #12]
.Ltmp253:
.LBB31_2:
	@DEBUG_VALUE: HAL_TIM_PWM_Start_IT:htim <- $r4
	@DEBUG_VALUE: HAL_TIM_PWM_Start_IT:Channel <- $r1
	.loc	7 1195 27               @ ../Drivers/STM32F1xx_HAL_Driver/Src/stm32f1xx_hal_tim.c:1195:27
	ldr	r0, [r4]
	.loc	7 1195 3 is_stmt 0      @ ../Drivers/STM32F1xx_HAL_Driver/Src/stm32f1xx_hal_tim.c:1195:3
	movs	r2, #1
	bl	TIM_CCxChannelCmd
.Ltmp254:
	.loc	7 1197 6 is_stmt 1      @ ../Drivers/STM32F1xx_HAL_Driver/Src/stm32f1xx_hal_tim.c:1197:6
	ldr	r0, [r4]
	movw	r1, #11264
	movt	r1, #16385
.Ltmp255:
	.loc	7 1197 6 is_stmt 0      @ ../Drivers/STM32F1xx_HAL_Driver/Src/stm32f1xx_hal_tim.c:1197:6
	cmp	r0, r1
	bne	.LBB31_4
.Ltmp256:
@ %bb.3:
	@DEBUG_VALUE: HAL_TIM_PWM_Start_IT:htim <- $r4
	.loc	7 1200 5 is_stmt 1      @ ../Drivers/STM32F1xx_HAL_Driver/Src/stm32f1xx_hal_tim.c:1200:5
	ldr	r1, [r0, #68]
	orr	r1, r1, #32768
	str	r1, [r0, #68]
.Ltmp257:
.LBB31_4:
	@DEBUG_VALUE: HAL_TIM_PWM_Start_IT:htim <- $r4
	.loc	7 1204 3                @ ../Drivers/STM32F1xx_HAL_Driver/Src/stm32f1xx_hal_tim.c:1204:3
	ldr	r1, [r0]
	orr	r1, r1, #1
	str	r1, [r0]
	.loc	7 1207 3                @ ../Drivers/STM32F1xx_HAL_Driver/Src/stm32f1xx_hal_tim.c:1207:3
	movs	r0, #0
	pop	{r4, pc}
.Ltmp258:
	.p2align	2
@ %bb.5:
	.loc	7 0 3 is_stmt 0         @ ../Drivers/STM32F1xx_HAL_Driver/Src/stm32f1xx_hal_tim.c:0:3
.LCPI31_0:
.Lswitch.table.HAL_TIM_PWM_Start_IT:
	.long	2                       @ 0x2
	.long	4                       @ 0x4
	.long	8                       @ 0x8
	.long	16                      @ 0x10
.Lfunc_end31:
	.size	HAL_TIM_PWM_Start_IT, .Lfunc_end31-HAL_TIM_PWM_Start_IT
	.cfi_endproc
	.cantunwind
	.fnend
                                        @ -- End function
	.section	.text.HAL_TIM_PWM_Stop_IT,"ax",%progbits
	.hidden	HAL_TIM_PWM_Stop_IT     @ -- Begin function HAL_TIM_PWM_Stop_IT
	.globl	HAL_TIM_PWM_Stop_IT
	.p2align	2
	.type	HAL_TIM_PWM_Stop_IT,%function
	.code	16                      @ @HAL_TIM_PWM_Stop_IT
	.thumb_func
HAL_TIM_PWM_Stop_IT:
.Lfunc_begin32:
	.loc	7 1222 0 is_stmt 1      @ ../Drivers/STM32F1xx_HAL_Driver/Src/stm32f1xx_hal_tim.c:1222:0
	.fnstart
	.cfi_startproc
@ %bb.0:
	.save	{r4, lr}
	push	{r4, lr}
	.cfi_def_cfa_offset 8
	.cfi_offset lr, -4
	.cfi_offset r4, -8
	@DEBUG_VALUE: HAL_TIM_PWM_Stop_IT:htim <- $r0
	@DEBUG_VALUE: HAL_TIM_PWM_Stop_IT:Channel <- $r1
	mov	r4, r0
	@DEBUG_VALUE: HAL_TIM_PWM_Stop_IT:Channel <- $r1
.Ltmp259:
	@DEBUG_VALUE: HAL_TIM_PWM_Stop_IT:htim <- $r4
	.loc	7 1226 3 prologue_end   @ ../Drivers/STM32F1xx_HAL_Driver/Src/stm32f1xx_hal_tim.c:1226:3
	ror.w	r0, r1, #2
	cmp	r0, #3
	bhi	.LBB32_2
.Ltmp260:
@ %bb.1:
	@DEBUG_VALUE: HAL_TIM_PWM_Stop_IT:htim <- $r4
	@DEBUG_VALUE: HAL_TIM_PWM_Stop_IT:Channel <- $r1
	adr	r2, .LCPI32_0
	ldr.w	r0, [r2, r0, lsl #2]
	ldr	r2, [r4]
	ldr	r3, [r2, #12]
	ands	r0, r3
	str	r0, [r2, #12]
.Ltmp261:
.LBB32_2:
	@DEBUG_VALUE: HAL_TIM_PWM_Stop_IT:htim <- $r4
	@DEBUG_VALUE: HAL_TIM_PWM_Stop_IT:Channel <- $r1
	.loc	7 1261 27               @ ../Drivers/STM32F1xx_HAL_Driver/Src/stm32f1xx_hal_tim.c:1261:27
	ldr	r0, [r4]
	.loc	7 1261 3 is_stmt 0      @ ../Drivers/STM32F1xx_HAL_Driver/Src/stm32f1xx_hal_tim.c:1261:3
	movs	r2, #0
	bl	TIM_CCxChannelCmd
.Ltmp262:
	.loc	7 1263 6 is_stmt 1      @ ../Drivers/STM32F1xx_HAL_Driver/Src/stm32f1xx_hal_tim.c:1263:6
	ldr	r0, [r4]
	movw	r1, #11264
	movt	r1, #16385
.Ltmp263:
	.loc	7 1263 6 is_stmt 0      @ ../Drivers/STM32F1xx_HAL_Driver/Src/stm32f1xx_hal_tim.c:1263:6
	cmp	r0, r1
	bne	.LBB32_6
.Ltmp264:
@ %bb.3:
	@DEBUG_VALUE: HAL_TIM_PWM_Stop_IT:htim <- $r4
	.loc	7 1266 5 is_stmt 1      @ ../Drivers/STM32F1xx_HAL_Driver/Src/stm32f1xx_hal_tim.c:1266:5
	ldr	r1, [r0, #32]
	movw	r2, #4369
.Ltmp265:
	.loc	7 1266 5 is_stmt 0      @ ../Drivers/STM32F1xx_HAL_Driver/Src/stm32f1xx_hal_tim.c:1266:5
	tst	r1, r2
	bne	.LBB32_6
.Ltmp266:
@ %bb.4:
	@DEBUG_VALUE: HAL_TIM_PWM_Stop_IT:htim <- $r4
	.loc	7 1266 5                @ ../Drivers/STM32F1xx_HAL_Driver/Src/stm32f1xx_hal_tim.c:1266:5
	ldr	r1, [r0, #32]
	movw	r2, #1092
.Ltmp267:
	.loc	7 1266 5                @ ../Drivers/STM32F1xx_HAL_Driver/Src/stm32f1xx_hal_tim.c:1266:5
	tst	r1, r2
	bne	.LBB32_6
.Ltmp268:
@ %bb.5:
	@DEBUG_VALUE: HAL_TIM_PWM_Stop_IT:htim <- $r4
	.loc	7 1266 5                @ ../Drivers/STM32F1xx_HAL_Driver/Src/stm32f1xx_hal_tim.c:1266:5
	ldr	r1, [r0, #68]
	bic	r1, r1, #32768
	str	r1, [r0, #68]
.Ltmp269:
.LBB32_6:
	@DEBUG_VALUE: HAL_TIM_PWM_Stop_IT:htim <- $r4
	.loc	7 1270 3 is_stmt 1      @ ../Drivers/STM32F1xx_HAL_Driver/Src/stm32f1xx_hal_tim.c:1270:3
	ldr	r1, [r0, #32]
	movw	r2, #4369
.Ltmp270:
	.loc	7 1270 3 is_stmt 0      @ ../Drivers/STM32F1xx_HAL_Driver/Src/stm32f1xx_hal_tim.c:1270:3
	tst	r1, r2
	bne	.LBB32_8
.Ltmp271:
@ %bb.7:
	@DEBUG_VALUE: HAL_TIM_PWM_Stop_IT:htim <- $r4
	.loc	7 1270 3                @ ../Drivers/STM32F1xx_HAL_Driver/Src/stm32f1xx_hal_tim.c:1270:3
	ldr	r1, [r0, #32]
	movw	r2, #1092
.Ltmp272:
	.loc	7 1270 3                @ ../Drivers/STM32F1xx_HAL_Driver/Src/stm32f1xx_hal_tim.c:1270:3
	tst	r1, r2
	beq	.LBB32_9
.Ltmp273:
.LBB32_8:
	@DEBUG_VALUE: HAL_TIM_PWM_Stop_IT:htim <- $r4
	.loc	7 1273 3 is_stmt 1      @ ../Drivers/STM32F1xx_HAL_Driver/Src/stm32f1xx_hal_tim.c:1273:3
	movs	r0, #0
	pop	{r4, pc}
.Ltmp274:
.LBB32_9:
	@DEBUG_VALUE: HAL_TIM_PWM_Stop_IT:htim <- $r4
	.loc	7 1270 3                @ ../Drivers/STM32F1xx_HAL_Driver/Src/stm32f1xx_hal_tim.c:1270:3
	ldr	r1, [r0]
	bic	r1, r1, #1
	str	r1, [r0]
.Ltmp275:
	.loc	7 1273 3                @ ../Drivers/STM32F1xx_HAL_Driver/Src/stm32f1xx_hal_tim.c:1273:3
	movs	r0, #0
	pop	{r4, pc}
.Ltmp276:
	.p2align	2
@ %bb.10:
	.loc	7 0 3 is_stmt 0         @ ../Drivers/STM32F1xx_HAL_Driver/Src/stm32f1xx_hal_tim.c:0:3
.LCPI32_0:
.Lswitch.table.HAL_TIM_PWM_Stop_IT:
	.long	4294967293              @ 0xfffffffd
	.long	4294967291              @ 0xfffffffb
	.long	4294967287              @ 0xfffffff7
	.long	4294967279              @ 0xffffffef
.Lfunc_end32:
	.size	HAL_TIM_PWM_Stop_IT, .Lfunc_end32-HAL_TIM_PWM_Stop_IT
	.cfi_endproc
	.cantunwind
	.fnend
                                        @ -- End function
	.section	.text.HAL_TIM_PWM_Start_DMA,"ax",%progbits
	.hidden	HAL_TIM_PWM_Start_DMA   @ -- Begin function HAL_TIM_PWM_Start_DMA
	.globl	HAL_TIM_PWM_Start_DMA
	.p2align	2
	.type	HAL_TIM_PWM_Start_DMA,%function
	.code	16                      @ @HAL_TIM_PWM_Start_DMA
	.thumb_func
HAL_TIM_PWM_Start_DMA:
.Lfunc_begin33:
	.loc	7 1290 0 is_stmt 1      @ ../Drivers/STM32F1xx_HAL_Driver/Src/stm32f1xx_hal_tim.c:1290:0
	.fnstart
	.cfi_startproc
@ %bb.0:
	.save	{r4, r5, r7, lr}
	push	{r4, r5, r7, lr}
	.cfi_def_cfa_offset 16
	.cfi_offset lr, -4
	.cfi_offset r7, -8
	.cfi_offset r5, -12
	.cfi_offset r4, -16
	@DEBUG_VALUE: HAL_TIM_PWM_Start_DMA:htim <- $r0
	@DEBUG_VALUE: HAL_TIM_PWM_Start_DMA:Channel <- $r1
	@DEBUG_VALUE: HAL_TIM_PWM_Start_DMA:pData <- $r2
	@DEBUG_VALUE: HAL_TIM_PWM_Start_DMA:Length <- $r3
	mov	r5, r1
	mov	r4, r0
	@DEBUG_VALUE: HAL_TIM_PWM_Start_DMA:Length <- $r3
	@DEBUG_VALUE: HAL_TIM_PWM_Start_DMA:pData <- $r2
.Ltmp277:
	@DEBUG_VALUE: HAL_TIM_PWM_Start_DMA:Channel <- $r5
	@DEBUG_VALUE: HAL_TIM_PWM_Start_DMA:htim <- $r4
	.loc	7 1294 13 prologue_end  @ ../Drivers/STM32F1xx_HAL_Driver/Src/stm32f1xx_hal_tim.c:1294:13
	ldr	r0, [r0, #64]
.Ltmp278:
	.loc	7 1294 6 is_stmt 0      @ ../Drivers/STM32F1xx_HAL_Driver/Src/stm32f1xx_hal_tim.c:1294:6
	cmp	r0, #2
	itt	eq
	moveq	r0, #2
	.loc	7 1393 1 is_stmt 1      @ ../Drivers/STM32F1xx_HAL_Driver/Src/stm32f1xx_hal_tim.c:1393:1
	popeq	{r4, r5, r7, pc}
.Ltmp279:
	.loc	7 1298 18               @ ../Drivers/STM32F1xx_HAL_Driver/Src/stm32f1xx_hal_tim.c:1298:18
	ldr	r0, [r4, #64]
.Ltmp280:
	.loc	7 1298 11 is_stmt 0     @ ../Drivers/STM32F1xx_HAL_Driver/Src/stm32f1xx_hal_tim.c:1298:11
	cmp	r0, #1
	bne	.LBB33_4
.Ltmp281:
@ %bb.1:
	@DEBUG_VALUE: HAL_TIM_PWM_Start_DMA:Length <- $r3
	@DEBUG_VALUE: HAL_TIM_PWM_Start_DMA:pData <- $r2
	.loc	7 1300 32 is_stmt 1     @ ../Drivers/STM32F1xx_HAL_Driver/Src/stm32f1xx_hal_tim.c:1300:32
	cbnz	r2, .LBB33_3
.Ltmp282:
@ %bb.2:
	@DEBUG_VALUE: HAL_TIM_PWM_Start_DMA:Length <- $r3
	@DEBUG_VALUE: HAL_TIM_PWM_Start_DMA:pData <- $r2
	cmp	r3, #0
	itt	ne
	movne	r0, #1
.Ltmp283:
	.loc	7 1393 1                @ ../Drivers/STM32F1xx_HAL_Driver/Src/stm32f1xx_hal_tim.c:1393:1
	popne	{r4, r5, r7, pc}
.Ltmp284:
.LBB33_3:
	@DEBUG_VALUE: HAL_TIM_PWM_Start_DMA:Length <- $r3
	@DEBUG_VALUE: HAL_TIM_PWM_Start_DMA:pData <- $r2
	.loc	7 1306 19               @ ../Drivers/STM32F1xx_HAL_Driver/Src/stm32f1xx_hal_tim.c:1306:19
	movs	r0, #2
	str	r0, [r4, #64]
.Ltmp285:
.LBB33_4:
	@DEBUG_VALUE: HAL_TIM_PWM_Start_DMA:Length <- $r3
	@DEBUG_VALUE: HAL_TIM_PWM_Start_DMA:pData <- $r2
	.loc	7 1309 3                @ ../Drivers/STM32F1xx_HAL_Driver/Src/stm32f1xx_hal_tim.c:1309:3
	ror.w	r0, r5, #2
	cmp	r0, #3
	bhi	.LBB33_12
.Ltmp286:
@ %bb.5:
	@DEBUG_VALUE: HAL_TIM_PWM_Start_DMA:Length <- $r3
	@DEBUG_VALUE: HAL_TIM_PWM_Start_DMA:pData <- $r2
	@DEBUG_VALUE: HAL_TIM_PWM_Start_DMA:Length <- $r3
	.loc	7 0 3 is_stmt 0         @ ../Drivers/STM32F1xx_HAL_Driver/Src/stm32f1xx_hal_tim.c:0:3
.LCPI33_0:
	tbb	[pc, r0]
.Ltmp287:
@ %bb.6:
.LJTI33_0:
	.byte	(.LBB33_7-(.LCPI33_0+4))/2
	.byte	(.LBB33_8-(.LCPI33_0+4))/2
	.byte	(.LBB33_9-(.LCPI33_0+4))/2
	.byte	(.LBB33_10-(.LCPI33_0+4))/2
	.p2align	1
.LBB33_7:
.Ltmp288:
	@DEBUG_VALUE: HAL_TIM_PWM_Start_DMA:Length <- $r3
	@DEBUG_VALUE: HAL_TIM_PWM_Start_DMA:pData <- $r2
	.loc	7 1314 7 is_stmt 1      @ ../Drivers/STM32F1xx_HAL_Driver/Src/stm32f1xx_hal_tim.c:1314:7
	ldr	r0, [r4, #36]
	.loc	7 1314 52 is_stmt 0     @ ../Drivers/STM32F1xx_HAL_Driver/Src/stm32f1xx_hal_tim.c:1314:52
	movw	r1, :lower16:TIM_DMADelayPulseCplt
	movt	r1, :upper16:TIM_DMADelayPulseCplt
	str	r1, [r0, #44]
	.loc	7 1317 7 is_stmt 1      @ ../Drivers/STM32F1xx_HAL_Driver/Src/stm32f1xx_hal_tim.c:1317:7
	ldr	r0, [r4, #36]
	.loc	7 1317 53 is_stmt 0     @ ../Drivers/STM32F1xx_HAL_Driver/Src/stm32f1xx_hal_tim.c:1317:53
	movw	r1, :lower16:TIM_DMAError
	movt	r1, :upper16:TIM_DMAError
	str	r1, [r0, #52]
	.loc	7 1320 86 is_stmt 1     @ ../Drivers/STM32F1xx_HAL_Driver/Src/stm32f1xx_hal_tim.c:1320:86
	ldr	r1, [r4]
	.loc	7 1320 24 is_stmt 0     @ ../Drivers/STM32F1xx_HAL_Driver/Src/stm32f1xx_hal_tim.c:1320:24
	ldr	r0, [r4, #36]
	.loc	7 1320 96               @ ../Drivers/STM32F1xx_HAL_Driver/Src/stm32f1xx_hal_tim.c:1320:96
	add.w	r12, r1, #52
	.loc	7 1320 7                @ ../Drivers/STM32F1xx_HAL_Driver/Src/stm32f1xx_hal_tim.c:1320:7
	mov	r1, r2
	mov	r2, r12
.Ltmp289:
	bl	HAL_DMA_Start_IT
.Ltmp290:
	.loc	7 0 7                   @ ../Drivers/STM32F1xx_HAL_Driver/Src/stm32f1xx_hal_tim.c:0:7
	mov.w	r0, #512
	b	.LBB33_11
.Ltmp291:
.LBB33_8:
	@DEBUG_VALUE: HAL_TIM_PWM_Start_DMA:Length <- $r3
	@DEBUG_VALUE: HAL_TIM_PWM_Start_DMA:pData <- $r2
	.loc	7 1330 7 is_stmt 1      @ ../Drivers/STM32F1xx_HAL_Driver/Src/stm32f1xx_hal_tim.c:1330:7
	ldr	r0, [r4, #40]
	.loc	7 1330 52 is_stmt 0     @ ../Drivers/STM32F1xx_HAL_Driver/Src/stm32f1xx_hal_tim.c:1330:52
	movw	r1, :lower16:TIM_DMADelayPulseCplt
	movt	r1, :upper16:TIM_DMADelayPulseCplt
	str	r1, [r0, #44]
	.loc	7 1333 7 is_stmt 1      @ ../Drivers/STM32F1xx_HAL_Driver/Src/stm32f1xx_hal_tim.c:1333:7
	ldr	r0, [r4, #40]
	.loc	7 1333 53 is_stmt 0     @ ../Drivers/STM32F1xx_HAL_Driver/Src/stm32f1xx_hal_tim.c:1333:53
	movw	r1, :lower16:TIM_DMAError
	movt	r1, :upper16:TIM_DMAError
	str	r1, [r0, #52]
	.loc	7 1336 86 is_stmt 1     @ ../Drivers/STM32F1xx_HAL_Driver/Src/stm32f1xx_hal_tim.c:1336:86
	ldr	r1, [r4]
	.loc	7 1336 24 is_stmt 0     @ ../Drivers/STM32F1xx_HAL_Driver/Src/stm32f1xx_hal_tim.c:1336:24
	ldr	r0, [r4, #40]
	.loc	7 1336 96               @ ../Drivers/STM32F1xx_HAL_Driver/Src/stm32f1xx_hal_tim.c:1336:96
	add.w	r12, r1, #56
	.loc	7 1336 7                @ ../Drivers/STM32F1xx_HAL_Driver/Src/stm32f1xx_hal_tim.c:1336:7
	mov	r1, r2
	mov	r2, r12
.Ltmp292:
	bl	HAL_DMA_Start_IT
.Ltmp293:
	.loc	7 0 7                   @ ../Drivers/STM32F1xx_HAL_Driver/Src/stm32f1xx_hal_tim.c:0:7
	mov.w	r0, #1024
	b	.LBB33_11
.Ltmp294:
.LBB33_9:
	@DEBUG_VALUE: HAL_TIM_PWM_Start_DMA:Length <- $r3
	@DEBUG_VALUE: HAL_TIM_PWM_Start_DMA:pData <- $r2
	.loc	7 1346 7 is_stmt 1      @ ../Drivers/STM32F1xx_HAL_Driver/Src/stm32f1xx_hal_tim.c:1346:7
	ldr	r0, [r4, #44]
	.loc	7 1346 52 is_stmt 0     @ ../Drivers/STM32F1xx_HAL_Driver/Src/stm32f1xx_hal_tim.c:1346:52
	movw	r1, :lower16:TIM_DMADelayPulseCplt
	movt	r1, :upper16:TIM_DMADelayPulseCplt
	str	r1, [r0, #44]
	.loc	7 1349 7 is_stmt 1      @ ../Drivers/STM32F1xx_HAL_Driver/Src/stm32f1xx_hal_tim.c:1349:7
	ldr	r0, [r4, #44]
	.loc	7 1349 53 is_stmt 0     @ ../Drivers/STM32F1xx_HAL_Driver/Src/stm32f1xx_hal_tim.c:1349:53
	movw	r1, :lower16:TIM_DMAError
	movt	r1, :upper16:TIM_DMAError
	str	r1, [r0, #52]
	.loc	7 1352 86 is_stmt 1     @ ../Drivers/STM32F1xx_HAL_Driver/Src/stm32f1xx_hal_tim.c:1352:86
	ldr	r1, [r4]
	.loc	7 1352 24 is_stmt 0     @ ../Drivers/STM32F1xx_HAL_Driver/Src/stm32f1xx_hal_tim.c:1352:24
	ldr	r0, [r4, #44]
	.loc	7 1352 96               @ ../Drivers/STM32F1xx_HAL_Driver/Src/stm32f1xx_hal_tim.c:1352:96
	add.w	r12, r1, #60
	.loc	7 1352 7                @ ../Drivers/STM32F1xx_HAL_Driver/Src/stm32f1xx_hal_tim.c:1352:7
	mov	r1, r2
	mov	r2, r12
.Ltmp295:
	bl	HAL_DMA_Start_IT
.Ltmp296:
	.loc	7 0 7                   @ ../Drivers/STM32F1xx_HAL_Driver/Src/stm32f1xx_hal_tim.c:0:7
	mov.w	r0, #2048
	b	.LBB33_11
.Ltmp297:
.LBB33_10:
	@DEBUG_VALUE: HAL_TIM_PWM_Start_DMA:Length <- $r3
	@DEBUG_VALUE: HAL_TIM_PWM_Start_DMA:pData <- $r2
	.loc	7 1362 7 is_stmt 1      @ ../Drivers/STM32F1xx_HAL_Driver/Src/stm32f1xx_hal_tim.c:1362:7
	ldr	r0, [r4, #48]
	.loc	7 1362 52 is_stmt 0     @ ../Drivers/STM32F1xx_HAL_Driver/Src/stm32f1xx_hal_tim.c:1362:52
	movw	r1, :lower16:TIM_DMADelayPulseCplt
	movt	r1, :upper16:TIM_DMADelayPulseCplt
	str	r1, [r0, #44]
	.loc	7 1365 7 is_stmt 1      @ ../Drivers/STM32F1xx_HAL_Driver/Src/stm32f1xx_hal_tim.c:1365:7
	ldr	r0, [r4, #48]
	.loc	7 1365 53 is_stmt 0     @ ../Drivers/STM32F1xx_HAL_Driver/Src/stm32f1xx_hal_tim.c:1365:53
	movw	r1, :lower16:TIM_DMAError
	movt	r1, :upper16:TIM_DMAError
	str	r1, [r0, #52]
	.loc	7 1368 86 is_stmt 1     @ ../Drivers/STM32F1xx_HAL_Driver/Src/stm32f1xx_hal_tim.c:1368:86
	ldr	r1, [r4]
	.loc	7 1368 24 is_stmt 0     @ ../Drivers/STM32F1xx_HAL_Driver/Src/stm32f1xx_hal_tim.c:1368:24
	ldr	r0, [r4, #48]
	.loc	7 1368 96               @ ../Drivers/STM32F1xx_HAL_Driver/Src/stm32f1xx_hal_tim.c:1368:96
	add.w	r12, r1, #64
	.loc	7 1368 7                @ ../Drivers/STM32F1xx_HAL_Driver/Src/stm32f1xx_hal_tim.c:1368:7
	mov	r1, r2
	mov	r2, r12
.Ltmp298:
	bl	HAL_DMA_Start_IT
.Ltmp299:
	.loc	7 0 7                   @ ../Drivers/STM32F1xx_HAL_Driver/Src/stm32f1xx_hal_tim.c:0:7
	mov.w	r0, #4096
.Ltmp300:
.LBB33_11:
	ldr	r1, [r4]
	ldr	r2, [r1, #12]
	orrs	r0, r2
	str	r0, [r1, #12]
.LBB33_12:
	.loc	7 1380 27 is_stmt 1     @ ../Drivers/STM32F1xx_HAL_Driver/Src/stm32f1xx_hal_tim.c:1380:27
	ldr	r0, [r4]
	.loc	7 1380 3 is_stmt 0      @ ../Drivers/STM32F1xx_HAL_Driver/Src/stm32f1xx_hal_tim.c:1380:3
	mov	r1, r5
	movs	r2, #1
	bl	TIM_CCxChannelCmd
.Ltmp301:
	.loc	7 1382 6 is_stmt 1      @ ../Drivers/STM32F1xx_HAL_Driver/Src/stm32f1xx_hal_tim.c:1382:6
	ldr	r0, [r4]
	movw	r1, #11264
	movt	r1, #16385
.Ltmp302:
	.loc	7 1382 6 is_stmt 0      @ ../Drivers/STM32F1xx_HAL_Driver/Src/stm32f1xx_hal_tim.c:1382:6
	cmp	r0, r1
	bne	.LBB33_14
@ %bb.13:
.Ltmp303:
	.loc	7 1385 5 is_stmt 1      @ ../Drivers/STM32F1xx_HAL_Driver/Src/stm32f1xx_hal_tim.c:1385:5
	ldr	r1, [r0, #68]
	orr	r1, r1, #32768
	str	r1, [r0, #68]
.Ltmp304:
.LBB33_14:
	.loc	7 1389 3                @ ../Drivers/STM32F1xx_HAL_Driver/Src/stm32f1xx_hal_tim.c:1389:3
	ldr	r1, [r0]
	orr	r1, r1, #1
	str	r1, [r0]
	movs	r0, #0
	.loc	7 1393 1                @ ../Drivers/STM32F1xx_HAL_Driver/Src/stm32f1xx_hal_tim.c:1393:1
	pop	{r4, r5, r7, pc}
.Ltmp305:
.Lfunc_end33:
	.size	HAL_TIM_PWM_Start_DMA, .Lfunc_end33-HAL_TIM_PWM_Start_DMA
	.cfi_endproc
	.cantunwind
	.fnend
                                        @ -- End function
	.section	.text.HAL_TIM_PWM_Stop_DMA,"ax",%progbits
	.hidden	HAL_TIM_PWM_Stop_DMA    @ -- Begin function HAL_TIM_PWM_Stop_DMA
	.globl	HAL_TIM_PWM_Stop_DMA
	.p2align	2
	.type	HAL_TIM_PWM_Stop_DMA,%function
	.code	16                      @ @HAL_TIM_PWM_Stop_DMA
	.thumb_func
HAL_TIM_PWM_Stop_DMA:
.Lfunc_begin34:
	.loc	7 1407 0                @ ../Drivers/STM32F1xx_HAL_Driver/Src/stm32f1xx_hal_tim.c:1407:0
	.fnstart
	.cfi_startproc
@ %bb.0:
	.save	{r4, lr}
	push	{r4, lr}
	.cfi_def_cfa_offset 8
	.cfi_offset lr, -4
	.cfi_offset r4, -8
	@DEBUG_VALUE: HAL_TIM_PWM_Stop_DMA:htim <- $r0
	@DEBUG_VALUE: HAL_TIM_PWM_Stop_DMA:Channel <- $r1
	mov	r4, r0
	@DEBUG_VALUE: HAL_TIM_PWM_Stop_DMA:Channel <- $r1
.Ltmp306:
	@DEBUG_VALUE: HAL_TIM_PWM_Stop_DMA:htim <- $r4
	.loc	7 1411 3 prologue_end   @ ../Drivers/STM32F1xx_HAL_Driver/Src/stm32f1xx_hal_tim.c:1411:3
	ror.w	r0, r1, #2
	cmp	r0, #3
	bhi	.LBB34_2
.Ltmp307:
@ %bb.1:
	@DEBUG_VALUE: HAL_TIM_PWM_Stop_DMA:htim <- $r4
	@DEBUG_VALUE: HAL_TIM_PWM_Stop_DMA:Channel <- $r1
	adr	r2, .LCPI34_0
	ldr.w	r0, [r2, r0, lsl #2]
	ldr	r2, [r4]
	ldr	r3, [r2, #12]
	ands	r0, r3
	str	r0, [r2, #12]
.Ltmp308:
.LBB34_2:
	@DEBUG_VALUE: HAL_TIM_PWM_Stop_DMA:htim <- $r4
	@DEBUG_VALUE: HAL_TIM_PWM_Stop_DMA:Channel <- $r1
	.loc	7 1446 27               @ ../Drivers/STM32F1xx_HAL_Driver/Src/stm32f1xx_hal_tim.c:1446:27
	ldr	r0, [r4]
	.loc	7 1446 3 is_stmt 0      @ ../Drivers/STM32F1xx_HAL_Driver/Src/stm32f1xx_hal_tim.c:1446:3
	movs	r2, #0
	bl	TIM_CCxChannelCmd
.Ltmp309:
	.loc	7 1448 6 is_stmt 1      @ ../Drivers/STM32F1xx_HAL_Driver/Src/stm32f1xx_hal_tim.c:1448:6
	ldr	r0, [r4]
	movw	r1, #11264
	movt	r1, #16385
.Ltmp310:
	.loc	7 1448 6 is_stmt 0      @ ../Drivers/STM32F1xx_HAL_Driver/Src/stm32f1xx_hal_tim.c:1448:6
	cmp	r0, r1
	bne	.LBB34_6
.Ltmp311:
@ %bb.3:
	@DEBUG_VALUE: HAL_TIM_PWM_Stop_DMA:htim <- $r4
	.loc	7 1451 5 is_stmt 1      @ ../Drivers/STM32F1xx_HAL_Driver/Src/stm32f1xx_hal_tim.c:1451:5
	ldr	r1, [r0, #32]
	movw	r2, #4369
.Ltmp312:
	.loc	7 1451 5 is_stmt 0      @ ../Drivers/STM32F1xx_HAL_Driver/Src/stm32f1xx_hal_tim.c:1451:5
	tst	r1, r2
	bne	.LBB34_6
.Ltmp313:
@ %bb.4:
	@DEBUG_VALUE: HAL_TIM_PWM_Stop_DMA:htim <- $r4
	.loc	7 1451 5                @ ../Drivers/STM32F1xx_HAL_Driver/Src/stm32f1xx_hal_tim.c:1451:5
	ldr	r1, [r0, #32]
	movw	r2, #1092
.Ltmp314:
	.loc	7 1451 5                @ ../Drivers/STM32F1xx_HAL_Driver/Src/stm32f1xx_hal_tim.c:1451:5
	tst	r1, r2
	bne	.LBB34_6
.Ltmp315:
@ %bb.5:
	@DEBUG_VALUE: HAL_TIM_PWM_Stop_DMA:htim <- $r4
	.loc	7 1451 5                @ ../Drivers/STM32F1xx_HAL_Driver/Src/stm32f1xx_hal_tim.c:1451:5
	ldr	r1, [r0, #68]
	bic	r1, r1, #32768
	str	r1, [r0, #68]
.Ltmp316:
.LBB34_6:
	@DEBUG_VALUE: HAL_TIM_PWM_Stop_DMA:htim <- $r4
	.loc	7 1455 3 is_stmt 1      @ ../Drivers/STM32F1xx_HAL_Driver/Src/stm32f1xx_hal_tim.c:1455:3
	ldr	r1, [r0, #32]
	movw	r2, #4369
.Ltmp317:
	.loc	7 1455 3 is_stmt 0      @ ../Drivers/STM32F1xx_HAL_Driver/Src/stm32f1xx_hal_tim.c:1455:3
	tst	r1, r2
	bne	.LBB34_9
.Ltmp318:
@ %bb.7:
	@DEBUG_VALUE: HAL_TIM_PWM_Stop_DMA:htim <- $r4
	.loc	7 1455 3                @ ../Drivers/STM32F1xx_HAL_Driver/Src/stm32f1xx_hal_tim.c:1455:3
	ldr	r1, [r0, #32]
	movw	r2, #1092
.Ltmp319:
	.loc	7 1455 3                @ ../Drivers/STM32F1xx_HAL_Driver/Src/stm32f1xx_hal_tim.c:1455:3
	tst	r1, r2
	bne	.LBB34_9
.Ltmp320:
@ %bb.8:
	@DEBUG_VALUE: HAL_TIM_PWM_Stop_DMA:htim <- $r4
	.loc	7 1455 3                @ ../Drivers/STM32F1xx_HAL_Driver/Src/stm32f1xx_hal_tim.c:1455:3
	ldr	r1, [r0]
	bic	r1, r1, #1
	str	r1, [r0]
.Ltmp321:
.LBB34_9:
	@DEBUG_VALUE: HAL_TIM_PWM_Stop_DMA:htim <- $r4
	.loc	7 1458 15 is_stmt 1     @ ../Drivers/STM32F1xx_HAL_Driver/Src/stm32f1xx_hal_tim.c:1458:15
	movs	r0, #1
	str	r0, [r4, #64]
	.loc	7 1461 3                @ ../Drivers/STM32F1xx_HAL_Driver/Src/stm32f1xx_hal_tim.c:1461:3
	movs	r0, #0
	pop	{r4, pc}
.Ltmp322:
	.p2align	2
@ %bb.10:
	.loc	7 0 3 is_stmt 0         @ ../Drivers/STM32F1xx_HAL_Driver/Src/stm32f1xx_hal_tim.c:0:3
.LCPI34_0:
.Lswitch.table.HAL_TIM_PWM_Stop_DMA:
	.long	4294966783              @ 0xfffffdff
	.long	4294966271              @ 0xfffffbff
	.long	4294965247              @ 0xfffff7ff
	.long	4294963199              @ 0xffffefff
.Lfunc_end34:
	.size	HAL_TIM_PWM_Stop_DMA, .Lfunc_end34-HAL_TIM_PWM_Stop_DMA
	.cfi_endproc
	.cantunwind
	.fnend
                                        @ -- End function
	.section	.text.HAL_TIM_IC_Init,"ax",%progbits
	.hidden	HAL_TIM_IC_Init         @ -- Begin function HAL_TIM_IC_Init
	.globl	HAL_TIM_IC_Init
	.p2align	2
	.type	HAL_TIM_IC_Init,%function
	.code	16                      @ @HAL_TIM_IC_Init
	.thumb_func
HAL_TIM_IC_Init:
.Lfunc_begin35:
	.loc	7 1496 0 is_stmt 1      @ ../Drivers/STM32F1xx_HAL_Driver/Src/stm32f1xx_hal_tim.c:1496:0
	.fnstart
	.cfi_startproc
@ %bb.0:
	.save	{r4, lr}
	push	{r4, lr}
	.cfi_def_cfa_offset 8
	.cfi_offset lr, -4
	.cfi_offset r4, -8
	@DEBUG_VALUE: HAL_TIM_IC_Init:htim <- $r0
	mov	r4, r0
.Ltmp323:
	@DEBUG_VALUE: HAL_TIM_IC_Init:htim <- $r4
	.loc	7 1498 6 prologue_end   @ ../Drivers/STM32F1xx_HAL_Driver/Src/stm32f1xx_hal_tim.c:1498:6
	cmp	r0, #0
	itt	eq
	moveq	r0, #1
	.loc	7 1528 1                @ ../Drivers/STM32F1xx_HAL_Driver/Src/stm32f1xx_hal_tim.c:1528:1
	popeq	{r4, pc}
.Ltmp324:
	.loc	7 1509 12               @ ../Drivers/STM32F1xx_HAL_Driver/Src/stm32f1xx_hal_tim.c:1509:12
	ldr	r0, [r4, #64]
.Ltmp325:
	.loc	7 1509 6 is_stmt 0      @ ../Drivers/STM32F1xx_HAL_Driver/Src/stm32f1xx_hal_tim.c:1509:6
	cbnz	r0, .LBB35_2
@ %bb.1:
.Ltmp326:
	.loc	7 1512 16 is_stmt 1     @ ../Drivers/STM32F1xx_HAL_Driver/Src/stm32f1xx_hal_tim.c:1512:16
	movs	r0, #0
	str	r0, [r4, #60]
	.loc	7 1515 5                @ ../Drivers/STM32F1xx_HAL_Driver/Src/stm32f1xx_hal_tim.c:1515:5
	mov	r0, r4
	bl	HAL_TIM_IC_MspInit
.Ltmp327:
.LBB35_2:
	.loc	7 1519 14               @ ../Drivers/STM32F1xx_HAL_Driver/Src/stm32f1xx_hal_tim.c:1519:14
	movs	r0, #2
	str	r0, [r4, #64]
	.loc	7 1522 28               @ ../Drivers/STM32F1xx_HAL_Driver/Src/stm32f1xx_hal_tim.c:1522:28
	ldr	r0, [r4]
	.loc	7 1522 45 is_stmt 0     @ ../Drivers/STM32F1xx_HAL_Driver/Src/stm32f1xx_hal_tim.c:1522:45
	adds	r1, r4, #4
	.loc	7 1522 3                @ ../Drivers/STM32F1xx_HAL_Driver/Src/stm32f1xx_hal_tim.c:1522:3
	bl	TIM_Base_SetConfig
	.loc	7 1525 14 is_stmt 1     @ ../Drivers/STM32F1xx_HAL_Driver/Src/stm32f1xx_hal_tim.c:1525:14
	movs	r0, #1
	str	r0, [r4, #64]
	movs	r0, #0
	.loc	7 1528 1                @ ../Drivers/STM32F1xx_HAL_Driver/Src/stm32f1xx_hal_tim.c:1528:1
	pop	{r4, pc}
.Ltmp328:
.Lfunc_end35:
	.size	HAL_TIM_IC_Init, .Lfunc_end35-HAL_TIM_IC_Init
	.cfi_endproc
	.cantunwind
	.fnend
                                        @ -- End function
	.section	.text.HAL_TIM_IC_MspInit,"ax",%progbits
	.hidden	HAL_TIM_IC_MspInit      @ -- Begin function HAL_TIM_IC_MspInit
	.weak	HAL_TIM_IC_MspInit
	.p2align	2
	.type	HAL_TIM_IC_MspInit,%function
	.code	16                      @ @HAL_TIM_IC_MspInit
	.thumb_func
HAL_TIM_IC_MspInit:
.Lfunc_begin36:
	.loc	7 1563 0                @ ../Drivers/STM32F1xx_HAL_Driver/Src/stm32f1xx_hal_tim.c:1563:0
	.fnstart
	.cfi_startproc
@ %bb.0:
	@DEBUG_VALUE: HAL_TIM_IC_MspInit:htim <- $r0
	.loc	7 1569 1 prologue_end   @ ../Drivers/STM32F1xx_HAL_Driver/Src/stm32f1xx_hal_tim.c:1569:1
	bx	lr
.Ltmp329:
.Lfunc_end36:
	.size	HAL_TIM_IC_MspInit, .Lfunc_end36-HAL_TIM_IC_MspInit
	.cfi_endproc
	.cantunwind
	.fnend
                                        @ -- End function
	.section	.text.HAL_TIM_IC_DeInit,"ax",%progbits
	.hidden	HAL_TIM_IC_DeInit       @ -- Begin function HAL_TIM_IC_DeInit
	.globl	HAL_TIM_IC_DeInit
	.p2align	2
	.type	HAL_TIM_IC_DeInit,%function
	.code	16                      @ @HAL_TIM_IC_DeInit
	.thumb_func
HAL_TIM_IC_DeInit:
.Lfunc_begin37:
	.loc	7 1536 0                @ ../Drivers/STM32F1xx_HAL_Driver/Src/stm32f1xx_hal_tim.c:1536:0
	.fnstart
	.cfi_startproc
@ %bb.0:
	.save	{r4, lr}
	push	{r4, lr}
	.cfi_def_cfa_offset 8
	.cfi_offset lr, -4
	.cfi_offset r4, -8
	@DEBUG_VALUE: HAL_TIM_IC_DeInit:htim <- $r0
	mov	r4, r0
.Ltmp330:
	@DEBUG_VALUE: HAL_TIM_IC_DeInit:htim <- $r4
	.loc	7 1540 15 prologue_end  @ ../Drivers/STM32F1xx_HAL_Driver/Src/stm32f1xx_hal_tim.c:1540:15
	movs	r0, #2
	str	r0, [r4, #64]
.Ltmp331:
	.loc	7 1543 3                @ ../Drivers/STM32F1xx_HAL_Driver/Src/stm32f1xx_hal_tim.c:1543:3
	ldr	r0, [r4]
	ldr	r1, [r0, #32]
	movw	r2, #4369
.Ltmp332:
	.loc	7 1543 3 is_stmt 0      @ ../Drivers/STM32F1xx_HAL_Driver/Src/stm32f1xx_hal_tim.c:1543:3
	tst	r1, r2
	bne	.LBB37_3
.Ltmp333:
@ %bb.1:
	@DEBUG_VALUE: HAL_TIM_IC_DeInit:htim <- $r4
	.loc	7 1543 3                @ ../Drivers/STM32F1xx_HAL_Driver/Src/stm32f1xx_hal_tim.c:1543:3
	ldr	r1, [r0, #32]
	movw	r2, #1092
.Ltmp334:
	.loc	7 1543 3                @ ../Drivers/STM32F1xx_HAL_Driver/Src/stm32f1xx_hal_tim.c:1543:3
	tst	r1, r2
	bne	.LBB37_3
.Ltmp335:
@ %bb.2:
	@DEBUG_VALUE: HAL_TIM_IC_DeInit:htim <- $r4
	.loc	7 1543 3                @ ../Drivers/STM32F1xx_HAL_Driver/Src/stm32f1xx_hal_tim.c:1543:3
	ldr	r1, [r0]
	bic	r1, r1, #1
	str	r1, [r0]
.Ltmp336:
.LBB37_3:
	@DEBUG_VALUE: HAL_TIM_IC_DeInit:htim <- $r4
	.loc	7 1546 3 is_stmt 1      @ ../Drivers/STM32F1xx_HAL_Driver/Src/stm32f1xx_hal_tim.c:1546:3
	mov	r0, r4
	bl	HAL_TIM_IC_MspDeInit
	movs	r0, #0
.Ltmp337:
	.loc	7 1552 3                @ ../Drivers/STM32F1xx_HAL_Driver/Src/stm32f1xx_hal_tim.c:1552:3
	str	r0, [r4, #60]
.Ltmp338:
	.loc	7 1549 15               @ ../Drivers/STM32F1xx_HAL_Driver/Src/stm32f1xx_hal_tim.c:1549:15
	str	r0, [r4, #64]
	.loc	7 1554 3                @ ../Drivers/STM32F1xx_HAL_Driver/Src/stm32f1xx_hal_tim.c:1554:3
	movs	r0, #0
	pop	{r4, pc}
.Ltmp339:
.Lfunc_end37:
	.size	HAL_TIM_IC_DeInit, .Lfunc_end37-HAL_TIM_IC_DeInit
	.cfi_endproc
	.cantunwind
	.fnend
                                        @ -- End function
	.section	.text.HAL_TIM_IC_MspDeInit,"ax",%progbits
	.hidden	HAL_TIM_IC_MspDeInit    @ -- Begin function HAL_TIM_IC_MspDeInit
	.weak	HAL_TIM_IC_MspDeInit
	.p2align	2
	.type	HAL_TIM_IC_MspDeInit,%function
	.code	16                      @ @HAL_TIM_IC_MspDeInit
	.thumb_func
HAL_TIM_IC_MspDeInit:
.Lfunc_begin38:
	.loc	7 1577 0                @ ../Drivers/STM32F1xx_HAL_Driver/Src/stm32f1xx_hal_tim.c:1577:0
	.fnstart
	.cfi_startproc
@ %bb.0:
	@DEBUG_VALUE: HAL_TIM_IC_MspDeInit:htim <- $r0
	.loc	7 1583 1 prologue_end   @ ../Drivers/STM32F1xx_HAL_Driver/Src/stm32f1xx_hal_tim.c:1583:1
	bx	lr
.Ltmp340:
.Lfunc_end38:
	.size	HAL_TIM_IC_MspDeInit, .Lfunc_end38-HAL_TIM_IC_MspDeInit
	.cfi_endproc
	.cantunwind
	.fnend
                                        @ -- End function
	.section	.text.HAL_TIM_IC_Start,"ax",%progbits
	.hidden	HAL_TIM_IC_Start        @ -- Begin function HAL_TIM_IC_Start
	.globl	HAL_TIM_IC_Start
	.p2align	2
	.type	HAL_TIM_IC_Start,%function
	.code	16                      @ @HAL_TIM_IC_Start
	.thumb_func
HAL_TIM_IC_Start:
.Lfunc_begin39:
	.loc	7 1597 0                @ ../Drivers/STM32F1xx_HAL_Driver/Src/stm32f1xx_hal_tim.c:1597:0
	.fnstart
	.cfi_startproc
@ %bb.0:
	.save	{r4, lr}
	push	{r4, lr}
	.cfi_def_cfa_offset 8
	.cfi_offset lr, -4
	.cfi_offset r4, -8
	@DEBUG_VALUE: HAL_TIM_IC_Start:htim <- $r0
	@DEBUG_VALUE: HAL_TIM_IC_Start:Channel <- $r1
	mov	r4, r0
	@DEBUG_VALUE: HAL_TIM_IC_Start:Channel <- $r1
.Ltmp341:
	@DEBUG_VALUE: HAL_TIM_IC_Start:htim <- $r4
	.loc	7 1602 27 prologue_end  @ ../Drivers/STM32F1xx_HAL_Driver/Src/stm32f1xx_hal_tim.c:1602:27
	ldr	r0, [r0]
	@DEBUG_VALUE: HAL_TIM_IC_Start:Channel <- $r1
	.loc	7 1602 3 is_stmt 0      @ ../Drivers/STM32F1xx_HAL_Driver/Src/stm32f1xx_hal_tim.c:1602:3
	movs	r2, #1
	bl	TIM_CCxChannelCmd
.Ltmp342:
	.loc	7 1605 3 is_stmt 1      @ ../Drivers/STM32F1xx_HAL_Driver/Src/stm32f1xx_hal_tim.c:1605:3
	ldr	r0, [r4]
	ldr	r1, [r0]
	orr	r1, r1, #1
	str	r1, [r0]
	.loc	7 1608 3                @ ../Drivers/STM32F1xx_HAL_Driver/Src/stm32f1xx_hal_tim.c:1608:3
	movs	r0, #0
	pop	{r4, pc}
.Ltmp343:
.Lfunc_end39:
	.size	HAL_TIM_IC_Start, .Lfunc_end39-HAL_TIM_IC_Start
	.cfi_endproc
	.cantunwind
	.fnend
                                        @ -- End function
	.section	.text.HAL_TIM_IC_Stop,"ax",%progbits
	.hidden	HAL_TIM_IC_Stop         @ -- Begin function HAL_TIM_IC_Stop
	.globl	HAL_TIM_IC_Stop
	.p2align	2
	.type	HAL_TIM_IC_Stop,%function
	.code	16                      @ @HAL_TIM_IC_Stop
	.thumb_func
HAL_TIM_IC_Stop:
.Lfunc_begin40:
	.loc	7 1623 0                @ ../Drivers/STM32F1xx_HAL_Driver/Src/stm32f1xx_hal_tim.c:1623:0
	.fnstart
	.cfi_startproc
@ %bb.0:
	.save	{r4, lr}
	push	{r4, lr}
	.cfi_def_cfa_offset 8
	.cfi_offset lr, -4
	.cfi_offset r4, -8
	@DEBUG_VALUE: HAL_TIM_IC_Stop:htim <- $r0
	@DEBUG_VALUE: HAL_TIM_IC_Stop:Channel <- $r1
	mov	r4, r0
	@DEBUG_VALUE: HAL_TIM_IC_Stop:Channel <- $r1
.Ltmp344:
	@DEBUG_VALUE: HAL_TIM_IC_Stop:htim <- $r4
	.loc	7 1628 27 prologue_end  @ ../Drivers/STM32F1xx_HAL_Driver/Src/stm32f1xx_hal_tim.c:1628:27
	ldr	r0, [r0]
	@DEBUG_VALUE: HAL_TIM_IC_Stop:Channel <- $r1
	.loc	7 1628 3 is_stmt 0      @ ../Drivers/STM32F1xx_HAL_Driver/Src/stm32f1xx_hal_tim.c:1628:3
	movs	r2, #0
	bl	TIM_CCxChannelCmd
.Ltmp345:
	.loc	7 1631 3 is_stmt 1      @ ../Drivers/STM32F1xx_HAL_Driver/Src/stm32f1xx_hal_tim.c:1631:3
	ldr	r0, [r4]
	ldr	r1, [r0, #32]
	movw	r2, #4369
.Ltmp346:
	.loc	7 1631 3 is_stmt 0      @ ../Drivers/STM32F1xx_HAL_Driver/Src/stm32f1xx_hal_tim.c:1631:3
	tst	r1, r2
	bne	.LBB40_2
.Ltmp347:
@ %bb.1:
	@DEBUG_VALUE: HAL_TIM_IC_Stop:htim <- $r4
	.loc	7 1631 3                @ ../Drivers/STM32F1xx_HAL_Driver/Src/stm32f1xx_hal_tim.c:1631:3
	ldr	r1, [r0, #32]
	movw	r2, #1092
.Ltmp348:
	.loc	7 1631 3                @ ../Drivers/STM32F1xx_HAL_Driver/Src/stm32f1xx_hal_tim.c:1631:3
	tst	r1, r2
	beq	.LBB40_3
.Ltmp349:
.LBB40_2:
	@DEBUG_VALUE: HAL_TIM_IC_Stop:htim <- $r4
	.loc	7 1634 3 is_stmt 1      @ ../Drivers/STM32F1xx_HAL_Driver/Src/stm32f1xx_hal_tim.c:1634:3
	movs	r0, #0
	pop	{r4, pc}
.Ltmp350:
.LBB40_3:
	@DEBUG_VALUE: HAL_TIM_IC_Stop:htim <- $r4
	.loc	7 1631 3                @ ../Drivers/STM32F1xx_HAL_Driver/Src/stm32f1xx_hal_tim.c:1631:3
	ldr	r1, [r0]
	bic	r1, r1, #1
	str	r1, [r0]
.Ltmp351:
	.loc	7 1634 3                @ ../Drivers/STM32F1xx_HAL_Driver/Src/stm32f1xx_hal_tim.c:1634:3
	movs	r0, #0
	pop	{r4, pc}
.Ltmp352:
.Lfunc_end40:
	.size	HAL_TIM_IC_Stop, .Lfunc_end40-HAL_TIM_IC_Stop
	.cfi_endproc
	.cantunwind
	.fnend
                                        @ -- End function
	.section	.text.HAL_TIM_IC_Start_IT,"ax",%progbits
	.hidden	HAL_TIM_IC_Start_IT     @ -- Begin function HAL_TIM_IC_Start_IT
	.globl	HAL_TIM_IC_Start_IT
	.p2align	2
	.type	HAL_TIM_IC_Start_IT,%function
	.code	16                      @ @HAL_TIM_IC_Start_IT
	.thumb_func
HAL_TIM_IC_Start_IT:
.Lfunc_begin41:
	.loc	7 1649 0                @ ../Drivers/STM32F1xx_HAL_Driver/Src/stm32f1xx_hal_tim.c:1649:0
	.fnstart
	.cfi_startproc
@ %bb.0:
	.save	{r4, lr}
	push	{r4, lr}
	.cfi_def_cfa_offset 8
	.cfi_offset lr, -4
	.cfi_offset r4, -8
	@DEBUG_VALUE: HAL_TIM_IC_Start_IT:htim <- $r0
	@DEBUG_VALUE: HAL_TIM_IC_Start_IT:Channel <- $r1
	mov	r4, r0
	@DEBUG_VALUE: HAL_TIM_IC_Start_IT:Channel <- $r1
.Ltmp353:
	@DEBUG_VALUE: HAL_TIM_IC_Start_IT:htim <- $r4
	.loc	7 1653 3 prologue_end   @ ../Drivers/STM32F1xx_HAL_Driver/Src/stm32f1xx_hal_tim.c:1653:3
	ror.w	r0, r1, #2
	cmp	r0, #3
	bhi	.LBB41_2
.Ltmp354:
@ %bb.1:
	@DEBUG_VALUE: HAL_TIM_IC_Start_IT:htim <- $r4
	@DEBUG_VALUE: HAL_TIM_IC_Start_IT:Channel <- $r1
	adr	r2, .LCPI41_0
	ldr.w	r0, [r2, r0, lsl #2]
	ldr	r2, [r4]
	ldr	r3, [r2, #12]
	orrs	r0, r3
	str	r0, [r2, #12]
.Ltmp355:
.LBB41_2:
	@DEBUG_VALUE: HAL_TIM_IC_Start_IT:htim <- $r4
	@DEBUG_VALUE: HAL_TIM_IC_Start_IT:Channel <- $r1
	.loc	7 1687 27               @ ../Drivers/STM32F1xx_HAL_Driver/Src/stm32f1xx_hal_tim.c:1687:27
	ldr	r0, [r4]
	.loc	7 1687 3 is_stmt 0      @ ../Drivers/STM32F1xx_HAL_Driver/Src/stm32f1xx_hal_tim.c:1687:3
	movs	r2, #1
	bl	TIM_CCxChannelCmd
.Ltmp356:
	.loc	7 1690 3 is_stmt 1      @ ../Drivers/STM32F1xx_HAL_Driver/Src/stm32f1xx_hal_tim.c:1690:3
	ldr	r0, [r4]
	ldr	r1, [r0]
	orr	r1, r1, #1
	str	r1, [r0]
	.loc	7 1693 3                @ ../Drivers/STM32F1xx_HAL_Driver/Src/stm32f1xx_hal_tim.c:1693:3
	movs	r0, #0
	pop	{r4, pc}
.Ltmp357:
	.p2align	2
@ %bb.3:
	.loc	7 0 3 is_stmt 0         @ ../Drivers/STM32F1xx_HAL_Driver/Src/stm32f1xx_hal_tim.c:0:3
.LCPI41_0:
.Lswitch.table.HAL_TIM_IC_Start_IT:
	.long	2                       @ 0x2
	.long	4                       @ 0x4
	.long	8                       @ 0x8
	.long	16                      @ 0x10
.Lfunc_end41:
	.size	HAL_TIM_IC_Start_IT, .Lfunc_end41-HAL_TIM_IC_Start_IT
	.cfi_endproc
	.cantunwind
	.fnend
                                        @ -- End function
	.section	.text.HAL_TIM_IC_Stop_IT,"ax",%progbits
	.hidden	HAL_TIM_IC_Stop_IT      @ -- Begin function HAL_TIM_IC_Stop_IT
	.globl	HAL_TIM_IC_Stop_IT
	.p2align	2
	.type	HAL_TIM_IC_Stop_IT,%function
	.code	16                      @ @HAL_TIM_IC_Stop_IT
	.thumb_func
HAL_TIM_IC_Stop_IT:
.Lfunc_begin42:
	.loc	7 1708 0 is_stmt 1      @ ../Drivers/STM32F1xx_HAL_Driver/Src/stm32f1xx_hal_tim.c:1708:0
	.fnstart
	.cfi_startproc
@ %bb.0:
	.save	{r4, lr}
	push	{r4, lr}
	.cfi_def_cfa_offset 8
	.cfi_offset lr, -4
	.cfi_offset r4, -8
	@DEBUG_VALUE: HAL_TIM_IC_Stop_IT:htim <- $r0
	@DEBUG_VALUE: HAL_TIM_IC_Stop_IT:Channel <- $r1
	mov	r4, r0
	@DEBUG_VALUE: HAL_TIM_IC_Stop_IT:Channel <- $r1
.Ltmp358:
	@DEBUG_VALUE: HAL_TIM_IC_Stop_IT:htim <- $r4
	.loc	7 1712 3 prologue_end   @ ../Drivers/STM32F1xx_HAL_Driver/Src/stm32f1xx_hal_tim.c:1712:3
	ror.w	r0, r1, #2
	cmp	r0, #3
	bhi	.LBB42_2
.Ltmp359:
@ %bb.1:
	@DEBUG_VALUE: HAL_TIM_IC_Stop_IT:htim <- $r4
	@DEBUG_VALUE: HAL_TIM_IC_Stop_IT:Channel <- $r1
	adr	r2, .LCPI42_0
	ldr.w	r0, [r2, r0, lsl #2]
	ldr	r2, [r4]
	ldr	r3, [r2, #12]
	ands	r0, r3
	str	r0, [r2, #12]
.Ltmp360:
.LBB42_2:
	@DEBUG_VALUE: HAL_TIM_IC_Stop_IT:htim <- $r4
	@DEBUG_VALUE: HAL_TIM_IC_Stop_IT:Channel <- $r1
	.loc	7 1747 27               @ ../Drivers/STM32F1xx_HAL_Driver/Src/stm32f1xx_hal_tim.c:1747:27
	ldr	r0, [r4]
	.loc	7 1747 3 is_stmt 0      @ ../Drivers/STM32F1xx_HAL_Driver/Src/stm32f1xx_hal_tim.c:1747:3
	movs	r2, #0
	bl	TIM_CCxChannelCmd
.Ltmp361:
	.loc	7 1750 3 is_stmt 1      @ ../Drivers/STM32F1xx_HAL_Driver/Src/stm32f1xx_hal_tim.c:1750:3
	ldr	r0, [r4]
	ldr	r1, [r0, #32]
	movw	r2, #4369
.Ltmp362:
	.loc	7 1750 3 is_stmt 0      @ ../Drivers/STM32F1xx_HAL_Driver/Src/stm32f1xx_hal_tim.c:1750:3
	tst	r1, r2
	bne	.LBB42_4
.Ltmp363:
@ %bb.3:
	@DEBUG_VALUE: HAL_TIM_IC_Stop_IT:htim <- $r4
	.loc	7 1750 3                @ ../Drivers/STM32F1xx_HAL_Driver/Src/stm32f1xx_hal_tim.c:1750:3
	ldr	r1, [r0, #32]
	movw	r2, #1092
.Ltmp364:
	.loc	7 1750 3                @ ../Drivers/STM32F1xx_HAL_Driver/Src/stm32f1xx_hal_tim.c:1750:3
	tst	r1, r2
	beq	.LBB42_5
.Ltmp365:
.LBB42_4:
	@DEBUG_VALUE: HAL_TIM_IC_Stop_IT:htim <- $r4
	.loc	7 1753 3 is_stmt 1      @ ../Drivers/STM32F1xx_HAL_Driver/Src/stm32f1xx_hal_tim.c:1753:3
	movs	r0, #0
	pop	{r4, pc}
.Ltmp366:
.LBB42_5:
	@DEBUG_VALUE: HAL_TIM_IC_Stop_IT:htim <- $r4
	.loc	7 1750 3                @ ../Drivers/STM32F1xx_HAL_Driver/Src/stm32f1xx_hal_tim.c:1750:3
	ldr	r1, [r0]
	bic	r1, r1, #1
	str	r1, [r0]
.Ltmp367:
	.loc	7 1753 3                @ ../Drivers/STM32F1xx_HAL_Driver/Src/stm32f1xx_hal_tim.c:1753:3
	movs	r0, #0
	pop	{r4, pc}
.Ltmp368:
	.p2align	2
@ %bb.6:
	.loc	7 0 3 is_stmt 0         @ ../Drivers/STM32F1xx_HAL_Driver/Src/stm32f1xx_hal_tim.c:0:3
.LCPI42_0:
.Lswitch.table.HAL_TIM_IC_Stop_IT:
	.long	4294967293              @ 0xfffffffd
	.long	4294967291              @ 0xfffffffb
	.long	4294967287              @ 0xfffffff7
	.long	4294967279              @ 0xffffffef
.Lfunc_end42:
	.size	HAL_TIM_IC_Stop_IT, .Lfunc_end42-HAL_TIM_IC_Stop_IT
	.cfi_endproc
	.cantunwind
	.fnend
                                        @ -- End function
	.section	.text.HAL_TIM_IC_Start_DMA,"ax",%progbits
	.hidden	HAL_TIM_IC_Start_DMA    @ -- Begin function HAL_TIM_IC_Start_DMA
	.globl	HAL_TIM_IC_Start_DMA
	.p2align	2
	.type	HAL_TIM_IC_Start_DMA,%function
	.code	16                      @ @HAL_TIM_IC_Start_DMA
	.thumb_func
HAL_TIM_IC_Start_DMA:
.Lfunc_begin43:
	.loc	7 1770 0 is_stmt 1      @ ../Drivers/STM32F1xx_HAL_Driver/Src/stm32f1xx_hal_tim.c:1770:0
	.fnstart
	.cfi_startproc
@ %bb.0:
	.save	{r4, r5, r7, lr}
	push	{r4, r5, r7, lr}
	.cfi_def_cfa_offset 16
	.cfi_offset lr, -4
	.cfi_offset r7, -8
	.cfi_offset r5, -12
	.cfi_offset r4, -16
	@DEBUG_VALUE: HAL_TIM_IC_Start_DMA:htim <- $r0
	@DEBUG_VALUE: HAL_TIM_IC_Start_DMA:Channel <- $r1
	@DEBUG_VALUE: HAL_TIM_IC_Start_DMA:pData <- $r2
	@DEBUG_VALUE: HAL_TIM_IC_Start_DMA:Length <- $r3
	mov	r5, r1
	mov	r4, r0
	@DEBUG_VALUE: HAL_TIM_IC_Start_DMA:Length <- $r3
	@DEBUG_VALUE: HAL_TIM_IC_Start_DMA:pData <- $r2
.Ltmp369:
	@DEBUG_VALUE: HAL_TIM_IC_Start_DMA:Channel <- $r5
	@DEBUG_VALUE: HAL_TIM_IC_Start_DMA:htim <- $r4
	.loc	7 1775 13 prologue_end  @ ../Drivers/STM32F1xx_HAL_Driver/Src/stm32f1xx_hal_tim.c:1775:13
	ldr	r0, [r0, #64]
.Ltmp370:
	.loc	7 1775 6 is_stmt 0      @ ../Drivers/STM32F1xx_HAL_Driver/Src/stm32f1xx_hal_tim.c:1775:6
	cmp	r0, #2
	itt	eq
	moveq	r0, #2
	.loc	7 1869 1 is_stmt 1      @ ../Drivers/STM32F1xx_HAL_Driver/Src/stm32f1xx_hal_tim.c:1869:1
	popeq	{r4, r5, r7, pc}
.Ltmp371:
	.loc	7 1779 18               @ ../Drivers/STM32F1xx_HAL_Driver/Src/stm32f1xx_hal_tim.c:1779:18
	ldr	r0, [r4, #64]
.Ltmp372:
	.loc	7 1779 11 is_stmt 0     @ ../Drivers/STM32F1xx_HAL_Driver/Src/stm32f1xx_hal_tim.c:1779:11
	cmp	r0, #1
	bne	.LBB43_4
.Ltmp373:
@ %bb.1:
	@DEBUG_VALUE: HAL_TIM_IC_Start_DMA:Length <- $r3
	@DEBUG_VALUE: HAL_TIM_IC_Start_DMA:pData <- $r2
	.loc	7 1781 22 is_stmt 1     @ ../Drivers/STM32F1xx_HAL_Driver/Src/stm32f1xx_hal_tim.c:1781:22
	cbnz	r2, .LBB43_3
.Ltmp374:
@ %bb.2:
	@DEBUG_VALUE: HAL_TIM_IC_Start_DMA:Length <- $r3
	@DEBUG_VALUE: HAL_TIM_IC_Start_DMA:pData <- $r2
	cmp	r3, #0
	itt	ne
	movne	r0, #1
.Ltmp375:
	.loc	7 1869 1                @ ../Drivers/STM32F1xx_HAL_Driver/Src/stm32f1xx_hal_tim.c:1869:1
	popne	{r4, r5, r7, pc}
.Ltmp376:
.LBB43_3:
	@DEBUG_VALUE: HAL_TIM_IC_Start_DMA:Length <- $r3
	@DEBUG_VALUE: HAL_TIM_IC_Start_DMA:pData <- $r2
	.loc	7 1787 19               @ ../Drivers/STM32F1xx_HAL_Driver/Src/stm32f1xx_hal_tim.c:1787:19
	movs	r0, #2
	str	r0, [r4, #64]
.Ltmp377:
.LBB43_4:
	@DEBUG_VALUE: HAL_TIM_IC_Start_DMA:Length <- $r3
	@DEBUG_VALUE: HAL_TIM_IC_Start_DMA:pData <- $r2
	.loc	7 1791 3                @ ../Drivers/STM32F1xx_HAL_Driver/Src/stm32f1xx_hal_tim.c:1791:3
	ror.w	r0, r5, #2
	cmp	r0, #3
	bhi	.LBB43_12
.Ltmp378:
@ %bb.5:
	@DEBUG_VALUE: HAL_TIM_IC_Start_DMA:Length <- $r3
	@DEBUG_VALUE: HAL_TIM_IC_Start_DMA:pData <- $r2
	@DEBUG_VALUE: HAL_TIM_IC_Start_DMA:Length <- $r3
	.loc	7 0 3 is_stmt 0         @ ../Drivers/STM32F1xx_HAL_Driver/Src/stm32f1xx_hal_tim.c:0:3
.LCPI43_0:
	tbb	[pc, r0]
.Ltmp379:
@ %bb.6:
.LJTI43_0:
	.byte	(.LBB43_7-(.LCPI43_0+4))/2
	.byte	(.LBB43_8-(.LCPI43_0+4))/2
	.byte	(.LBB43_9-(.LCPI43_0+4))/2
	.byte	(.LBB43_10-(.LCPI43_0+4))/2
	.p2align	1
.LBB43_7:
.Ltmp380:
	@DEBUG_VALUE: HAL_TIM_IC_Start_DMA:Length <- $r3
	@DEBUG_VALUE: HAL_TIM_IC_Start_DMA:pData <- $r2
	.loc	7 1796 7 is_stmt 1      @ ../Drivers/STM32F1xx_HAL_Driver/Src/stm32f1xx_hal_tim.c:1796:7
	ldr	r0, [r4, #36]
	.loc	7 1796 52 is_stmt 0     @ ../Drivers/STM32F1xx_HAL_Driver/Src/stm32f1xx_hal_tim.c:1796:52
	movw	r1, :lower16:TIM_DMACaptureCplt
	movt	r1, :upper16:TIM_DMACaptureCplt
	str	r1, [r0, #44]
	.loc	7 1799 7 is_stmt 1      @ ../Drivers/STM32F1xx_HAL_Driver/Src/stm32f1xx_hal_tim.c:1799:7
	ldr	r0, [r4, #36]
	.loc	7 1799 53 is_stmt 0     @ ../Drivers/STM32F1xx_HAL_Driver/Src/stm32f1xx_hal_tim.c:1799:53
	movw	r1, :lower16:TIM_DMAError
	movt	r1, :upper16:TIM_DMAError
	str	r1, [r0, #52]
	.loc	7 1802 69 is_stmt 1     @ ../Drivers/STM32F1xx_HAL_Driver/Src/stm32f1xx_hal_tim.c:1802:69
	ldr	r1, [r4]
	.loc	7 1802 24 is_stmt 0     @ ../Drivers/STM32F1xx_HAL_Driver/Src/stm32f1xx_hal_tim.c:1802:24
	ldr	r0, [r4, #36]
	.loc	7 1802 79               @ ../Drivers/STM32F1xx_HAL_Driver/Src/stm32f1xx_hal_tim.c:1802:79
	adds	r1, #52
	.loc	7 1802 7                @ ../Drivers/STM32F1xx_HAL_Driver/Src/stm32f1xx_hal_tim.c:1802:7
	bl	HAL_DMA_Start_IT
.Ltmp381:
	.loc	7 0 7                   @ ../Drivers/STM32F1xx_HAL_Driver/Src/stm32f1xx_hal_tim.c:0:7
	mov.w	r0, #512
	b	.LBB43_11
.Ltmp382:
.LBB43_8:
	@DEBUG_VALUE: HAL_TIM_IC_Start_DMA:Length <- $r3
	@DEBUG_VALUE: HAL_TIM_IC_Start_DMA:pData <- $r2
	.loc	7 1812 7 is_stmt 1      @ ../Drivers/STM32F1xx_HAL_Driver/Src/stm32f1xx_hal_tim.c:1812:7
	ldr	r0, [r4, #40]
	.loc	7 1812 52 is_stmt 0     @ ../Drivers/STM32F1xx_HAL_Driver/Src/stm32f1xx_hal_tim.c:1812:52
	movw	r1, :lower16:TIM_DMACaptureCplt
	movt	r1, :upper16:TIM_DMACaptureCplt
	str	r1, [r0, #44]
	.loc	7 1815 7 is_stmt 1      @ ../Drivers/STM32F1xx_HAL_Driver/Src/stm32f1xx_hal_tim.c:1815:7
	ldr	r0, [r4, #40]
	.loc	7 1815 53 is_stmt 0     @ ../Drivers/STM32F1xx_HAL_Driver/Src/stm32f1xx_hal_tim.c:1815:53
	movw	r1, :lower16:TIM_DMAError
	movt	r1, :upper16:TIM_DMAError
	str	r1, [r0, #52]
	.loc	7 1818 69 is_stmt 1     @ ../Drivers/STM32F1xx_HAL_Driver/Src/stm32f1xx_hal_tim.c:1818:69
	ldr	r1, [r4]
	.loc	7 1818 24 is_stmt 0     @ ../Drivers/STM32F1xx_HAL_Driver/Src/stm32f1xx_hal_tim.c:1818:24
	ldr	r0, [r4, #40]
	.loc	7 1818 79               @ ../Drivers/STM32F1xx_HAL_Driver/Src/stm32f1xx_hal_tim.c:1818:79
	adds	r1, #56
	.loc	7 1818 7                @ ../Drivers/STM32F1xx_HAL_Driver/Src/stm32f1xx_hal_tim.c:1818:7
	bl	HAL_DMA_Start_IT
.Ltmp383:
	.loc	7 0 7                   @ ../Drivers/STM32F1xx_HAL_Driver/Src/stm32f1xx_hal_tim.c:0:7
	mov.w	r0, #1024
	b	.LBB43_11
.Ltmp384:
.LBB43_9:
	@DEBUG_VALUE: HAL_TIM_IC_Start_DMA:Length <- $r3
	@DEBUG_VALUE: HAL_TIM_IC_Start_DMA:pData <- $r2
	.loc	7 1828 7 is_stmt 1      @ ../Drivers/STM32F1xx_HAL_Driver/Src/stm32f1xx_hal_tim.c:1828:7
	ldr	r0, [r4, #44]
	.loc	7 1828 52 is_stmt 0     @ ../Drivers/STM32F1xx_HAL_Driver/Src/stm32f1xx_hal_tim.c:1828:52
	movw	r1, :lower16:TIM_DMACaptureCplt
	movt	r1, :upper16:TIM_DMACaptureCplt
	str	r1, [r0, #44]
	.loc	7 1831 7 is_stmt 1      @ ../Drivers/STM32F1xx_HAL_Driver/Src/stm32f1xx_hal_tim.c:1831:7
	ldr	r0, [r4, #44]
	.loc	7 1831 53 is_stmt 0     @ ../Drivers/STM32F1xx_HAL_Driver/Src/stm32f1xx_hal_tim.c:1831:53
	movw	r1, :lower16:TIM_DMAError
	movt	r1, :upper16:TIM_DMAError
	str	r1, [r0, #52]
	.loc	7 1834 69 is_stmt 1     @ ../Drivers/STM32F1xx_HAL_Driver/Src/stm32f1xx_hal_tim.c:1834:69
	ldr	r1, [r4]
	.loc	7 1834 24 is_stmt 0     @ ../Drivers/STM32F1xx_HAL_Driver/Src/stm32f1xx_hal_tim.c:1834:24
	ldr	r0, [r4, #44]
	.loc	7 1834 79               @ ../Drivers/STM32F1xx_HAL_Driver/Src/stm32f1xx_hal_tim.c:1834:79
	adds	r1, #60
	.loc	7 1834 7                @ ../Drivers/STM32F1xx_HAL_Driver/Src/stm32f1xx_hal_tim.c:1834:7
	bl	HAL_DMA_Start_IT
.Ltmp385:
	.loc	7 0 7                   @ ../Drivers/STM32F1xx_HAL_Driver/Src/stm32f1xx_hal_tim.c:0:7
	mov.w	r0, #2048
	b	.LBB43_11
.Ltmp386:
.LBB43_10:
	@DEBUG_VALUE: HAL_TIM_IC_Start_DMA:Length <- $r3
	@DEBUG_VALUE: HAL_TIM_IC_Start_DMA:pData <- $r2
	.loc	7 1844 7 is_stmt 1      @ ../Drivers/STM32F1xx_HAL_Driver/Src/stm32f1xx_hal_tim.c:1844:7
	ldr	r0, [r4, #48]
	.loc	7 1844 52 is_stmt 0     @ ../Drivers/STM32F1xx_HAL_Driver/Src/stm32f1xx_hal_tim.c:1844:52
	movw	r1, :lower16:TIM_DMACaptureCplt
	movt	r1, :upper16:TIM_DMACaptureCplt
	str	r1, [r0, #44]
	.loc	7 1847 7 is_stmt 1      @ ../Drivers/STM32F1xx_HAL_Driver/Src/stm32f1xx_hal_tim.c:1847:7
	ldr	r0, [r4, #48]
	.loc	7 1847 53 is_stmt 0     @ ../Drivers/STM32F1xx_HAL_Driver/Src/stm32f1xx_hal_tim.c:1847:53
	movw	r1, :lower16:TIM_DMAError
	movt	r1, :upper16:TIM_DMAError
	str	r1, [r0, #52]
	.loc	7 1850 69 is_stmt 1     @ ../Drivers/STM32F1xx_HAL_Driver/Src/stm32f1xx_hal_tim.c:1850:69
	ldr	r1, [r4]
	.loc	7 1850 24 is_stmt 0     @ ../Drivers/STM32F1xx_HAL_Driver/Src/stm32f1xx_hal_tim.c:1850:24
	ldr	r0, [r4, #48]
	.loc	7 1850 79               @ ../Drivers/STM32F1xx_HAL_Driver/Src/stm32f1xx_hal_tim.c:1850:79
	adds	r1, #64
	.loc	7 1850 7                @ ../Drivers/STM32F1xx_HAL_Driver/Src/stm32f1xx_hal_tim.c:1850:7
	bl	HAL_DMA_Start_IT
.Ltmp387:
	.loc	7 0 7                   @ ../Drivers/STM32F1xx_HAL_Driver/Src/stm32f1xx_hal_tim.c:0:7
	mov.w	r0, #4096
.Ltmp388:
.LBB43_11:
	ldr	r1, [r4]
	ldr	r2, [r1, #12]
	orrs	r0, r2
	str	r0, [r1, #12]
.LBB43_12:
	.loc	7 1862 27 is_stmt 1     @ ../Drivers/STM32F1xx_HAL_Driver/Src/stm32f1xx_hal_tim.c:1862:27
	ldr	r0, [r4]
	.loc	7 1862 3 is_stmt 0      @ ../Drivers/STM32F1xx_HAL_Driver/Src/stm32f1xx_hal_tim.c:1862:3
	mov	r1, r5
	movs	r2, #1
	bl	TIM_CCxChannelCmd
	.loc	7 1865 3 is_stmt 1      @ ../Drivers/STM32F1xx_HAL_Driver/Src/stm32f1xx_hal_tim.c:1865:3
	ldr	r0, [r4]
	ldr	r1, [r0]
	orr	r1, r1, #1
	str	r1, [r0]
	movs	r0, #0
	.loc	7 1869 1                @ ../Drivers/STM32F1xx_HAL_Driver/Src/stm32f1xx_hal_tim.c:1869:1
	pop	{r4, r5, r7, pc}
.Ltmp389:
.Lfunc_end43:
	.size	HAL_TIM_IC_Start_DMA, .Lfunc_end43-HAL_TIM_IC_Start_DMA
	.cfi_endproc
	.cantunwind
	.fnend
                                        @ -- End function
	.section	.text.TIM_DMACaptureCplt,"ax",%progbits
	.hidden	TIM_DMACaptureCplt      @ -- Begin function TIM_DMACaptureCplt
	.globl	TIM_DMACaptureCplt
	.p2align	2
	.type	TIM_DMACaptureCplt,%function
	.code	16                      @ @TIM_DMACaptureCplt
	.thumb_func
TIM_DMACaptureCplt:
.Lfunc_begin44:
	.loc	7 4508 0                @ ../Drivers/STM32F1xx_HAL_Driver/Src/stm32f1xx_hal_tim.c:4508:0
	.fnstart
	.cfi_startproc
@ %bb.0:
	.save	{r4, lr}
	push	{r4, lr}
	.cfi_def_cfa_offset 8
	.cfi_offset lr, -4
	.cfi_offset r4, -8
	@DEBUG_VALUE: TIM_DMACaptureCplt:hdma <- $r0
	@DEBUG_VALUE: TIM_DMACaptureCplt:hdma <- $r0
.Ltmp390:
	.loc	7 4509 80 prologue_end  @ ../Drivers/STM32F1xx_HAL_Driver/Src/stm32f1xx_hal_tim.c:4509:80
	ldr	r4, [r0, #40]
.Ltmp391:
	@DEBUG_VALUE: TIM_DMACaptureCplt:htim <- $r4
	.loc	7 0 80 is_stmt 0        @ ../Drivers/STM32F1xx_HAL_Driver/Src/stm32f1xx_hal_tim.c:0:80
	movs	r1, #1
	.loc	7 4511 14 is_stmt 1     @ ../Drivers/STM32F1xx_HAL_Driver/Src/stm32f1xx_hal_tim.c:4511:14
	str	r1, [r4, #64]
.Ltmp392:
	.loc	7 4513 15               @ ../Drivers/STM32F1xx_HAL_Driver/Src/stm32f1xx_hal_tim.c:4513:15
	ldr	r2, [r4, #36]
.Ltmp393:
	.loc	7 4513 7 is_stmt 0      @ ../Drivers/STM32F1xx_HAL_Driver/Src/stm32f1xx_hal_tim.c:4513:7
	cmp	r2, r0
	beq	.LBB44_7
.Ltmp394:
@ %bb.1:
	@DEBUG_VALUE: TIM_DMACaptureCplt:htim <- $r4
	@DEBUG_VALUE: TIM_DMACaptureCplt:hdma <- $r0
	.loc	7 4517 20 is_stmt 1     @ ../Drivers/STM32F1xx_HAL_Driver/Src/stm32f1xx_hal_tim.c:4517:20
	ldr	r1, [r4, #40]
.Ltmp395:
	.loc	7 4517 12 is_stmt 0     @ ../Drivers/STM32F1xx_HAL_Driver/Src/stm32f1xx_hal_tim.c:4517:12
	cmp	r1, r0
	beq	.LBB44_5
.Ltmp396:
@ %bb.2:
	@DEBUG_VALUE: TIM_DMACaptureCplt:htim <- $r4
	@DEBUG_VALUE: TIM_DMACaptureCplt:hdma <- $r0
	.loc	7 4521 20 is_stmt 1     @ ../Drivers/STM32F1xx_HAL_Driver/Src/stm32f1xx_hal_tim.c:4521:20
	ldr	r1, [r4, #44]
.Ltmp397:
	.loc	7 4521 12 is_stmt 0     @ ../Drivers/STM32F1xx_HAL_Driver/Src/stm32f1xx_hal_tim.c:4521:12
	cmp	r1, r0
	beq	.LBB44_6
.Ltmp398:
@ %bb.3:
	@DEBUG_VALUE: TIM_DMACaptureCplt:htim <- $r4
	@DEBUG_VALUE: TIM_DMACaptureCplt:hdma <- $r0
	.loc	7 4525 20 is_stmt 1     @ ../Drivers/STM32F1xx_HAL_Driver/Src/stm32f1xx_hal_tim.c:4525:20
	ldr	r1, [r4, #48]
.Ltmp399:
	.loc	7 4525 12 is_stmt 0     @ ../Drivers/STM32F1xx_HAL_Driver/Src/stm32f1xx_hal_tim.c:4525:12
	cmp	r1, r0
	bne	.LBB44_8
.Ltmp400:
@ %bb.4:
	@DEBUG_VALUE: TIM_DMACaptureCplt:htim <- $r4
	@DEBUG_VALUE: TIM_DMACaptureCplt:hdma <- $r0
	.loc	7 0 12                  @ ../Drivers/STM32F1xx_HAL_Driver/Src/stm32f1xx_hal_tim.c:0:12
	movs	r1, #8
	b	.LBB44_7
.Ltmp401:
.LBB44_5:
	@DEBUG_VALUE: TIM_DMACaptureCplt:htim <- $r4
	@DEBUG_VALUE: TIM_DMACaptureCplt:hdma <- $r0
	movs	r1, #2
	b	.LBB44_7
.Ltmp402:
.LBB44_6:
	@DEBUG_VALUE: TIM_DMACaptureCplt:htim <- $r4
	@DEBUG_VALUE: TIM_DMACaptureCplt:hdma <- $r0
	movs	r1, #4
.Ltmp403:
.LBB44_7:
	@DEBUG_VALUE: TIM_DMACaptureCplt:htim <- $r4
	@DEBUG_VALUE: TIM_DMACaptureCplt:hdma <- $r0
	str	r1, [r4, #28]
.Ltmp404:
.LBB44_8:
	@DEBUG_VALUE: TIM_DMACaptureCplt:htim <- $r4
	@DEBUG_VALUE: TIM_DMACaptureCplt:hdma <- $r0
	.loc	7 4530 3 is_stmt 1      @ ../Drivers/STM32F1xx_HAL_Driver/Src/stm32f1xx_hal_tim.c:4530:3
	mov	r0, r4
.Ltmp405:
	bl	HAL_TIM_IC_CaptureCallback
	.loc	7 4532 17               @ ../Drivers/STM32F1xx_HAL_Driver/Src/stm32f1xx_hal_tim.c:4532:17
	movs	r0, #0
	str	r0, [r4, #28]
	.loc	7 4533 1                @ ../Drivers/STM32F1xx_HAL_Driver/Src/stm32f1xx_hal_tim.c:4533:1
	pop	{r4, pc}
.Ltmp406:
.Lfunc_end44:
	.size	TIM_DMACaptureCplt, .Lfunc_end44-TIM_DMACaptureCplt
	.cfi_endproc
	.cantunwind
	.fnend
                                        @ -- End function
	.section	.text.HAL_TIM_IC_Stop_DMA,"ax",%progbits
	.hidden	HAL_TIM_IC_Stop_DMA     @ -- Begin function HAL_TIM_IC_Stop_DMA
	.globl	HAL_TIM_IC_Stop_DMA
	.p2align	2
	.type	HAL_TIM_IC_Stop_DMA,%function
	.code	16                      @ @HAL_TIM_IC_Stop_DMA
	.thumb_func
HAL_TIM_IC_Stop_DMA:
.Lfunc_begin45:
	.loc	7 1883 0                @ ../Drivers/STM32F1xx_HAL_Driver/Src/stm32f1xx_hal_tim.c:1883:0
	.fnstart
	.cfi_startproc
@ %bb.0:
	.save	{r4, lr}
	push	{r4, lr}
	.cfi_def_cfa_offset 8
	.cfi_offset lr, -4
	.cfi_offset r4, -8
	@DEBUG_VALUE: HAL_TIM_IC_Stop_DMA:htim <- $r0
	@DEBUG_VALUE: HAL_TIM_IC_Stop_DMA:Channel <- $r1
	mov	r4, r0
	@DEBUG_VALUE: HAL_TIM_IC_Stop_DMA:Channel <- $r1
.Ltmp407:
	@DEBUG_VALUE: HAL_TIM_IC_Stop_DMA:htim <- $r4
	.loc	7 1888 3 prologue_end   @ ../Drivers/STM32F1xx_HAL_Driver/Src/stm32f1xx_hal_tim.c:1888:3
	ror.w	r0, r1, #2
	cmp	r0, #3
	bhi	.LBB45_2
.Ltmp408:
@ %bb.1:
	@DEBUG_VALUE: HAL_TIM_IC_Stop_DMA:htim <- $r4
	@DEBUG_VALUE: HAL_TIM_IC_Stop_DMA:Channel <- $r1
	adr	r2, .LCPI45_0
	ldr.w	r0, [r2, r0, lsl #2]
	ldr	r2, [r4]
	ldr	r3, [r2, #12]
	ands	r0, r3
	str	r0, [r2, #12]
.Ltmp409:
.LBB45_2:
	@DEBUG_VALUE: HAL_TIM_IC_Stop_DMA:htim <- $r4
	@DEBUG_VALUE: HAL_TIM_IC_Stop_DMA:Channel <- $r1
	.loc	7 1923 27               @ ../Drivers/STM32F1xx_HAL_Driver/Src/stm32f1xx_hal_tim.c:1923:27
	ldr	r0, [r4]
	.loc	7 1923 3 is_stmt 0      @ ../Drivers/STM32F1xx_HAL_Driver/Src/stm32f1xx_hal_tim.c:1923:3
	movs	r2, #0
	bl	TIM_CCxChannelCmd
.Ltmp410:
	.loc	7 1926 3 is_stmt 1      @ ../Drivers/STM32F1xx_HAL_Driver/Src/stm32f1xx_hal_tim.c:1926:3
	ldr	r0, [r4]
	ldr	r1, [r0, #32]
	movw	r2, #4369
.Ltmp411:
	.loc	7 1926 3 is_stmt 0      @ ../Drivers/STM32F1xx_HAL_Driver/Src/stm32f1xx_hal_tim.c:1926:3
	tst	r1, r2
	bne	.LBB45_5
.Ltmp412:
@ %bb.3:
	@DEBUG_VALUE: HAL_TIM_IC_Stop_DMA:htim <- $r4
	.loc	7 1926 3                @ ../Drivers/STM32F1xx_HAL_Driver/Src/stm32f1xx_hal_tim.c:1926:3
	ldr	r1, [r0, #32]
	movw	r2, #1092
.Ltmp413:
	.loc	7 1926 3                @ ../Drivers/STM32F1xx_HAL_Driver/Src/stm32f1xx_hal_tim.c:1926:3
	tst	r1, r2
	bne	.LBB45_5
.Ltmp414:
@ %bb.4:
	@DEBUG_VALUE: HAL_TIM_IC_Stop_DMA:htim <- $r4
	.loc	7 1926 3                @ ../Drivers/STM32F1xx_HAL_Driver/Src/stm32f1xx_hal_tim.c:1926:3
	ldr	r1, [r0]
	bic	r1, r1, #1
	str	r1, [r0]
.Ltmp415:
.LBB45_5:
	@DEBUG_VALUE: HAL_TIM_IC_Stop_DMA:htim <- $r4
	.loc	7 1929 15 is_stmt 1     @ ../Drivers/STM32F1xx_HAL_Driver/Src/stm32f1xx_hal_tim.c:1929:15
	movs	r0, #1
	str	r0, [r4, #64]
	.loc	7 1932 3                @ ../Drivers/STM32F1xx_HAL_Driver/Src/stm32f1xx_hal_tim.c:1932:3
	movs	r0, #0
	pop	{r4, pc}
.Ltmp416:
	.p2align	2
@ %bb.6:
	.loc	7 0 3 is_stmt 0         @ ../Drivers/STM32F1xx_HAL_Driver/Src/stm32f1xx_hal_tim.c:0:3
.LCPI45_0:
.Lswitch.table.HAL_TIM_IC_Stop_DMA:
	.long	4294966783              @ 0xfffffdff
	.long	4294966271              @ 0xfffffbff
	.long	4294965247              @ 0xfffff7ff
	.long	4294963199              @ 0xffffefff
.Lfunc_end45:
	.size	HAL_TIM_IC_Stop_DMA, .Lfunc_end45-HAL_TIM_IC_Stop_DMA
	.cfi_endproc
	.cantunwind
	.fnend
                                        @ -- End function
	.section	.text.HAL_TIM_OnePulse_Init,"ax",%progbits
	.hidden	HAL_TIM_OnePulse_Init   @ -- Begin function HAL_TIM_OnePulse_Init
	.globl	HAL_TIM_OnePulse_Init
	.p2align	2
	.type	HAL_TIM_OnePulse_Init,%function
	.code	16                      @ @HAL_TIM_OnePulse_Init
	.thumb_func
HAL_TIM_OnePulse_Init:
.Lfunc_begin46:
	.loc	7 1970 0 is_stmt 1      @ ../Drivers/STM32F1xx_HAL_Driver/Src/stm32f1xx_hal_tim.c:1970:0
	.fnstart
	.cfi_startproc
@ %bb.0:
	.save	{r4, r5, r7, lr}
	push	{r4, r5, r7, lr}
	.cfi_def_cfa_offset 16
	.cfi_offset lr, -4
	.cfi_offset r7, -8
	.cfi_offset r5, -12
	.cfi_offset r4, -16
	@DEBUG_VALUE: HAL_TIM_OnePulse_Init:htim <- $r0
	@DEBUG_VALUE: HAL_TIM_OnePulse_Init:OnePulseMode <- $r1
	mov	r5, r1
	mov	r4, r0
.Ltmp417:
	@DEBUG_VALUE: HAL_TIM_OnePulse_Init:OnePulseMode <- $r5
	@DEBUG_VALUE: HAL_TIM_OnePulse_Init:htim <- $r4
	.loc	7 1972 6 prologue_end   @ ../Drivers/STM32F1xx_HAL_Driver/Src/stm32f1xx_hal_tim.c:1972:6
	cmp	r0, #0
	itt	eq
	moveq	r0, #1
	.loc	7 2009 1                @ ../Drivers/STM32F1xx_HAL_Driver/Src/stm32f1xx_hal_tim.c:2009:1
	popeq	{r4, r5, r7, pc}
.Ltmp418:
	.loc	7 1984 12               @ ../Drivers/STM32F1xx_HAL_Driver/Src/stm32f1xx_hal_tim.c:1984:12
	ldr	r0, [r4, #64]
.Ltmp419:
	.loc	7 1984 6 is_stmt 0      @ ../Drivers/STM32F1xx_HAL_Driver/Src/stm32f1xx_hal_tim.c:1984:6
	cbnz	r0, .LBB46_2
@ %bb.1:
.Ltmp420:
	.loc	7 1987 16 is_stmt 1     @ ../Drivers/STM32F1xx_HAL_Driver/Src/stm32f1xx_hal_tim.c:1987:16
	movs	r0, #0
	str	r0, [r4, #60]
	.loc	7 1990 5                @ ../Drivers/STM32F1xx_HAL_Driver/Src/stm32f1xx_hal_tim.c:1990:5
	mov	r0, r4
	bl	HAL_TIM_OnePulse_MspInit
.Ltmp421:
.LBB46_2:
	.loc	7 1994 14               @ ../Drivers/STM32F1xx_HAL_Driver/Src/stm32f1xx_hal_tim.c:1994:14
	movs	r0, #2
	str	r0, [r4, #64]
	.loc	7 1997 28               @ ../Drivers/STM32F1xx_HAL_Driver/Src/stm32f1xx_hal_tim.c:1997:28
	ldr	r0, [r4]
	.loc	7 1997 45 is_stmt 0     @ ../Drivers/STM32F1xx_HAL_Driver/Src/stm32f1xx_hal_tim.c:1997:45
	adds	r1, r4, #4
	.loc	7 1997 3                @ ../Drivers/STM32F1xx_HAL_Driver/Src/stm32f1xx_hal_tim.c:1997:3
	bl	TIM_Base_SetConfig
	.loc	7 2000 9 is_stmt 1      @ ../Drivers/STM32F1xx_HAL_Driver/Src/stm32f1xx_hal_tim.c:2000:9
	ldr	r0, [r4]
	.loc	7 2000 23 is_stmt 0     @ ../Drivers/STM32F1xx_HAL_Driver/Src/stm32f1xx_hal_tim.c:2000:23
	ldr	r1, [r0]
	bic	r1, r1, #8
	str	r1, [r0]
	.loc	7 2003 23 is_stmt 1     @ ../Drivers/STM32F1xx_HAL_Driver/Src/stm32f1xx_hal_tim.c:2003:23
	ldr	r1, [r0]
	orrs	r1, r5
	str	r1, [r0]
	.loc	7 2006 14               @ ../Drivers/STM32F1xx_HAL_Driver/Src/stm32f1xx_hal_tim.c:2006:14
	movs	r0, #1
	str	r0, [r4, #64]
	movs	r0, #0
	.loc	7 2009 1                @ ../Drivers/STM32F1xx_HAL_Driver/Src/stm32f1xx_hal_tim.c:2009:1
	pop	{r4, r5, r7, pc}
.Ltmp422:
.Lfunc_end46:
	.size	HAL_TIM_OnePulse_Init, .Lfunc_end46-HAL_TIM_OnePulse_Init
	.cfi_endproc
	.cantunwind
	.fnend
                                        @ -- End function
	.section	.text.HAL_TIM_OnePulse_MspInit,"ax",%progbits
	.hidden	HAL_TIM_OnePulse_MspInit @ -- Begin function HAL_TIM_OnePulse_MspInit
	.weak	HAL_TIM_OnePulse_MspInit
	.p2align	2
	.type	HAL_TIM_OnePulse_MspInit,%function
	.code	16                      @ @HAL_TIM_OnePulse_MspInit
	.thumb_func
HAL_TIM_OnePulse_MspInit:
.Lfunc_begin47:
	.loc	7 2044 0                @ ../Drivers/STM32F1xx_HAL_Driver/Src/stm32f1xx_hal_tim.c:2044:0
	.fnstart
	.cfi_startproc
@ %bb.0:
	@DEBUG_VALUE: HAL_TIM_OnePulse_MspInit:htim <- $r0
	.loc	7 2050 1 prologue_end   @ ../Drivers/STM32F1xx_HAL_Driver/Src/stm32f1xx_hal_tim.c:2050:1
	bx	lr
.Ltmp423:
.Lfunc_end47:
	.size	HAL_TIM_OnePulse_MspInit, .Lfunc_end47-HAL_TIM_OnePulse_MspInit
	.cfi_endproc
	.cantunwind
	.fnend
                                        @ -- End function
	.section	.text.HAL_TIM_OnePulse_DeInit,"ax",%progbits
	.hidden	HAL_TIM_OnePulse_DeInit @ -- Begin function HAL_TIM_OnePulse_DeInit
	.globl	HAL_TIM_OnePulse_DeInit
	.p2align	2
	.type	HAL_TIM_OnePulse_DeInit,%function
	.code	16                      @ @HAL_TIM_OnePulse_DeInit
	.thumb_func
HAL_TIM_OnePulse_DeInit:
.Lfunc_begin48:
	.loc	7 2017 0                @ ../Drivers/STM32F1xx_HAL_Driver/Src/stm32f1xx_hal_tim.c:2017:0
	.fnstart
	.cfi_startproc
@ %bb.0:
	.save	{r4, lr}
	push	{r4, lr}
	.cfi_def_cfa_offset 8
	.cfi_offset lr, -4
	.cfi_offset r4, -8
	@DEBUG_VALUE: HAL_TIM_OnePulse_DeInit:htim <- $r0
	mov	r4, r0
.Ltmp424:
	@DEBUG_VALUE: HAL_TIM_OnePulse_DeInit:htim <- $r4
	.loc	7 2021 15 prologue_end  @ ../Drivers/STM32F1xx_HAL_Driver/Src/stm32f1xx_hal_tim.c:2021:15
	movs	r0, #2
	str	r0, [r4, #64]
.Ltmp425:
	.loc	7 2024 3                @ ../Drivers/STM32F1xx_HAL_Driver/Src/stm32f1xx_hal_tim.c:2024:3
	ldr	r0, [r4]
	ldr	r1, [r0, #32]
	movw	r2, #4369
.Ltmp426:
	.loc	7 2024 3 is_stmt 0      @ ../Drivers/STM32F1xx_HAL_Driver/Src/stm32f1xx_hal_tim.c:2024:3
	tst	r1, r2
	bne	.LBB48_3
.Ltmp427:
@ %bb.1:
	@DEBUG_VALUE: HAL_TIM_OnePulse_DeInit:htim <- $r4
	.loc	7 2024 3                @ ../Drivers/STM32F1xx_HAL_Driver/Src/stm32f1xx_hal_tim.c:2024:3
	ldr	r1, [r0, #32]
	movw	r2, #1092
.Ltmp428:
	.loc	7 2024 3                @ ../Drivers/STM32F1xx_HAL_Driver/Src/stm32f1xx_hal_tim.c:2024:3
	tst	r1, r2
	bne	.LBB48_3
.Ltmp429:
@ %bb.2:
	@DEBUG_VALUE: HAL_TIM_OnePulse_DeInit:htim <- $r4
	.loc	7 2024 3                @ ../Drivers/STM32F1xx_HAL_Driver/Src/stm32f1xx_hal_tim.c:2024:3
	ldr	r1, [r0]
	bic	r1, r1, #1
	str	r1, [r0]
.Ltmp430:
.LBB48_3:
	@DEBUG_VALUE: HAL_TIM_OnePulse_DeInit:htim <- $r4
	.loc	7 2027 3 is_stmt 1      @ ../Drivers/STM32F1xx_HAL_Driver/Src/stm32f1xx_hal_tim.c:2027:3
	mov	r0, r4
	bl	HAL_TIM_OnePulse_MspDeInit
	movs	r0, #0
.Ltmp431:
	.loc	7 2033 3                @ ../Drivers/STM32F1xx_HAL_Driver/Src/stm32f1xx_hal_tim.c:2033:3
	str	r0, [r4, #60]
.Ltmp432:
	.loc	7 2030 15               @ ../Drivers/STM32F1xx_HAL_Driver/Src/stm32f1xx_hal_tim.c:2030:15
	str	r0, [r4, #64]
	.loc	7 2035 3                @ ../Drivers/STM32F1xx_HAL_Driver/Src/stm32f1xx_hal_tim.c:2035:3
	movs	r0, #0
	pop	{r4, pc}
.Ltmp433:
.Lfunc_end48:
	.size	HAL_TIM_OnePulse_DeInit, .Lfunc_end48-HAL_TIM_OnePulse_DeInit
	.cfi_endproc
	.cantunwind
	.fnend
                                        @ -- End function
	.section	.text.HAL_TIM_OnePulse_MspDeInit,"ax",%progbits
	.hidden	HAL_TIM_OnePulse_MspDeInit @ -- Begin function HAL_TIM_OnePulse_MspDeInit
	.weak	HAL_TIM_OnePulse_MspDeInit
	.p2align	2
	.type	HAL_TIM_OnePulse_MspDeInit,%function
	.code	16                      @ @HAL_TIM_OnePulse_MspDeInit
	.thumb_func
HAL_TIM_OnePulse_MspDeInit:
.Lfunc_begin49:
	.loc	7 2058 0                @ ../Drivers/STM32F1xx_HAL_Driver/Src/stm32f1xx_hal_tim.c:2058:0
	.fnstart
	.cfi_startproc
@ %bb.0:
	@DEBUG_VALUE: HAL_TIM_OnePulse_MspDeInit:htim <- $r0
	.loc	7 2064 1 prologue_end   @ ../Drivers/STM32F1xx_HAL_Driver/Src/stm32f1xx_hal_tim.c:2064:1
	bx	lr
.Ltmp434:
.Lfunc_end49:
	.size	HAL_TIM_OnePulse_MspDeInit, .Lfunc_end49-HAL_TIM_OnePulse_MspDeInit
	.cfi_endproc
	.cantunwind
	.fnend
                                        @ -- End function
	.section	.text.HAL_TIM_OnePulse_Start,"ax",%progbits
	.hidden	HAL_TIM_OnePulse_Start  @ -- Begin function HAL_TIM_OnePulse_Start
	.globl	HAL_TIM_OnePulse_Start
	.p2align	2
	.type	HAL_TIM_OnePulse_Start,%function
	.code	16                      @ @HAL_TIM_OnePulse_Start
	.thumb_func
HAL_TIM_OnePulse_Start:
.Lfunc_begin50:
	.loc	7 2076 0                @ ../Drivers/STM32F1xx_HAL_Driver/Src/stm32f1xx_hal_tim.c:2076:0
	.fnstart
	.cfi_startproc
@ %bb.0:
	.save	{r4, lr}
	push	{r4, lr}
	.cfi_def_cfa_offset 8
	.cfi_offset lr, -4
	.cfi_offset r4, -8
	@DEBUG_VALUE: HAL_TIM_OnePulse_Start:htim <- $r0
	@DEBUG_VALUE: HAL_TIM_OnePulse_Start:OutputChannel <- $r1
	mov	r4, r0
.Ltmp435:
	@DEBUG_VALUE: HAL_TIM_OnePulse_Start:htim <- $r4
	.loc	7 2089 27 prologue_end  @ ../Drivers/STM32F1xx_HAL_Driver/Src/stm32f1xx_hal_tim.c:2089:27
	ldr	r0, [r0]
	.loc	7 2089 3 is_stmt 0      @ ../Drivers/STM32F1xx_HAL_Driver/Src/stm32f1xx_hal_tim.c:2089:3
	movs	r1, #0
.Ltmp436:
	movs	r2, #1
	bl	TIM_CCxChannelCmd
	.loc	7 2090 27 is_stmt 1     @ ../Drivers/STM32F1xx_HAL_Driver/Src/stm32f1xx_hal_tim.c:2090:27
	ldr	r0, [r4]
	.loc	7 2090 3 is_stmt 0      @ ../Drivers/STM32F1xx_HAL_Driver/Src/stm32f1xx_hal_tim.c:2090:3
	movs	r1, #4
	movs	r2, #1
	bl	TIM_CCxChannelCmd
.Ltmp437:
	.loc	7 2092 6 is_stmt 1      @ ../Drivers/STM32F1xx_HAL_Driver/Src/stm32f1xx_hal_tim.c:2092:6
	ldr	r0, [r4]
	movw	r1, #11264
	movt	r1, #16385
.Ltmp438:
	.loc	7 2092 6 is_stmt 0      @ ../Drivers/STM32F1xx_HAL_Driver/Src/stm32f1xx_hal_tim.c:2092:6
	cmp	r0, r1
	beq	.LBB50_2
.Ltmp439:
@ %bb.1:
	@DEBUG_VALUE: HAL_TIM_OnePulse_Start:htim <- $r4
	.loc	7 2099 3 is_stmt 1      @ ../Drivers/STM32F1xx_HAL_Driver/Src/stm32f1xx_hal_tim.c:2099:3
	movs	r0, #0
	pop	{r4, pc}
.Ltmp440:
.LBB50_2:
	@DEBUG_VALUE: HAL_TIM_OnePulse_Start:htim <- $r4
	.loc	7 2095 5                @ ../Drivers/STM32F1xx_HAL_Driver/Src/stm32f1xx_hal_tim.c:2095:5
	ldr	r1, [r0, #68]
	orr	r1, r1, #32768
	str	r1, [r0, #68]
.Ltmp441:
	.loc	7 2099 3                @ ../Drivers/STM32F1xx_HAL_Driver/Src/stm32f1xx_hal_tim.c:2099:3
	movs	r0, #0
	pop	{r4, pc}
.Ltmp442:
.Lfunc_end50:
	.size	HAL_TIM_OnePulse_Start, .Lfunc_end50-HAL_TIM_OnePulse_Start
	.cfi_endproc
	.cantunwind
	.fnend
                                        @ -- End function
	.section	.text.HAL_TIM_OnePulse_Stop,"ax",%progbits
	.hidden	HAL_TIM_OnePulse_Stop   @ -- Begin function HAL_TIM_OnePulse_Stop
	.globl	HAL_TIM_OnePulse_Stop
	.p2align	2
	.type	HAL_TIM_OnePulse_Stop,%function
	.code	16                      @ @HAL_TIM_OnePulse_Stop
	.thumb_func
HAL_TIM_OnePulse_Stop:
.Lfunc_begin51:
	.loc	7 2112 0                @ ../Drivers/STM32F1xx_HAL_Driver/Src/stm32f1xx_hal_tim.c:2112:0
	.fnstart
	.cfi_startproc
@ %bb.0:
	.save	{r4, lr}
	push	{r4, lr}
	.cfi_def_cfa_offset 8
	.cfi_offset lr, -4
	.cfi_offset r4, -8
	@DEBUG_VALUE: HAL_TIM_OnePulse_Stop:htim <- $r0
	@DEBUG_VALUE: HAL_TIM_OnePulse_Stop:OutputChannel <- $r1
	mov	r4, r0
.Ltmp443:
	@DEBUG_VALUE: HAL_TIM_OnePulse_Stop:htim <- $r4
	.loc	7 2122 27 prologue_end  @ ../Drivers/STM32F1xx_HAL_Driver/Src/stm32f1xx_hal_tim.c:2122:27
	ldr	r0, [r0]
	.loc	7 2122 3 is_stmt 0      @ ../Drivers/STM32F1xx_HAL_Driver/Src/stm32f1xx_hal_tim.c:2122:3
	movs	r1, #0
.Ltmp444:
	movs	r2, #0
	bl	TIM_CCxChannelCmd
	.loc	7 2123 27 is_stmt 1     @ ../Drivers/STM32F1xx_HAL_Driver/Src/stm32f1xx_hal_tim.c:2123:27
	ldr	r0, [r4]
	.loc	7 2123 3 is_stmt 0      @ ../Drivers/STM32F1xx_HAL_Driver/Src/stm32f1xx_hal_tim.c:2123:3
	movs	r1, #4
	movs	r2, #0
	bl	TIM_CCxChannelCmd
.Ltmp445:
	.loc	7 2125 6 is_stmt 1      @ ../Drivers/STM32F1xx_HAL_Driver/Src/stm32f1xx_hal_tim.c:2125:6
	ldr	r0, [r4]
	movw	r1, #11264
	movt	r1, #16385
.Ltmp446:
	.loc	7 2125 6 is_stmt 0      @ ../Drivers/STM32F1xx_HAL_Driver/Src/stm32f1xx_hal_tim.c:2125:6
	cmp	r0, r1
	bne	.LBB51_4
.Ltmp447:
@ %bb.1:
	@DEBUG_VALUE: HAL_TIM_OnePulse_Stop:htim <- $r4
	.loc	7 2128 5 is_stmt 1      @ ../Drivers/STM32F1xx_HAL_Driver/Src/stm32f1xx_hal_tim.c:2128:5
	ldr	r1, [r0, #32]
	movw	r2, #4369
.Ltmp448:
	.loc	7 2128 5 is_stmt 0      @ ../Drivers/STM32F1xx_HAL_Driver/Src/stm32f1xx_hal_tim.c:2128:5
	tst	r1, r2
	bne	.LBB51_4
.Ltmp449:
@ %bb.2:
	@DEBUG_VALUE: HAL_TIM_OnePulse_Stop:htim <- $r4
	.loc	7 2128 5                @ ../Drivers/STM32F1xx_HAL_Driver/Src/stm32f1xx_hal_tim.c:2128:5
	ldr	r1, [r0, #32]
	movw	r2, #1092
.Ltmp450:
	.loc	7 2128 5                @ ../Drivers/STM32F1xx_HAL_Driver/Src/stm32f1xx_hal_tim.c:2128:5
	tst	r1, r2
	bne	.LBB51_4
.Ltmp451:
@ %bb.3:
	@DEBUG_VALUE: HAL_TIM_OnePulse_Stop:htim <- $r4
	.loc	7 2128 5                @ ../Drivers/STM32F1xx_HAL_Driver/Src/stm32f1xx_hal_tim.c:2128:5
	ldr	r1, [r0, #68]
	bic	r1, r1, #32768
	str	r1, [r0, #68]
.Ltmp452:
.LBB51_4:
	@DEBUG_VALUE: HAL_TIM_OnePulse_Stop:htim <- $r4
	.loc	7 2132 3 is_stmt 1      @ ../Drivers/STM32F1xx_HAL_Driver/Src/stm32f1xx_hal_tim.c:2132:3
	ldr	r1, [r0, #32]
	movw	r2, #4369
.Ltmp453:
	.loc	7 2132 3 is_stmt 0      @ ../Drivers/STM32F1xx_HAL_Driver/Src/stm32f1xx_hal_tim.c:2132:3
	tst	r1, r2
	bne	.LBB51_6
.Ltmp454:
@ %bb.5:
	@DEBUG_VALUE: HAL_TIM_OnePulse_Stop:htim <- $r4
	.loc	7 2132 3                @ ../Drivers/STM32F1xx_HAL_Driver/Src/stm32f1xx_hal_tim.c:2132:3
	ldr	r1, [r0, #32]
	movw	r2, #1092
.Ltmp455:
	.loc	7 2132 3                @ ../Drivers/STM32F1xx_HAL_Driver/Src/stm32f1xx_hal_tim.c:2132:3
	tst	r1, r2
	beq	.LBB51_7
.Ltmp456:
.LBB51_6:
	@DEBUG_VALUE: HAL_TIM_OnePulse_Stop:htim <- $r4
	.loc	7 2135 3 is_stmt 1      @ ../Drivers/STM32F1xx_HAL_Driver/Src/stm32f1xx_hal_tim.c:2135:3
	movs	r0, #0
	pop	{r4, pc}
.Ltmp457:
.LBB51_7:
	@DEBUG_VALUE: HAL_TIM_OnePulse_Stop:htim <- $r4
	.loc	7 2132 3                @ ../Drivers/STM32F1xx_HAL_Driver/Src/stm32f1xx_hal_tim.c:2132:3
	ldr	r1, [r0]
	bic	r1, r1, #1
	str	r1, [r0]
.Ltmp458:
	.loc	7 2135 3                @ ../Drivers/STM32F1xx_HAL_Driver/Src/stm32f1xx_hal_tim.c:2135:3
	movs	r0, #0
	pop	{r4, pc}
.Ltmp459:
.Lfunc_end51:
	.size	HAL_TIM_OnePulse_Stop, .Lfunc_end51-HAL_TIM_OnePulse_Stop
	.cfi_endproc
	.cantunwind
	.fnend
                                        @ -- End function
	.section	.text.HAL_TIM_OnePulse_Start_IT,"ax",%progbits
	.hidden	HAL_TIM_OnePulse_Start_IT @ -- Begin function HAL_TIM_OnePulse_Start_IT
	.globl	HAL_TIM_OnePulse_Start_IT
	.p2align	2
	.type	HAL_TIM_OnePulse_Start_IT,%function
	.code	16                      @ @HAL_TIM_OnePulse_Start_IT
	.thumb_func
HAL_TIM_OnePulse_Start_IT:
.Lfunc_begin52:
	.loc	7 2148 0                @ ../Drivers/STM32F1xx_HAL_Driver/Src/stm32f1xx_hal_tim.c:2148:0
	.fnstart
	.cfi_startproc
@ %bb.0:
	.save	{r4, lr}
	push	{r4, lr}
	.cfi_def_cfa_offset 8
	.cfi_offset lr, -4
	.cfi_offset r4, -8
	@DEBUG_VALUE: HAL_TIM_OnePulse_Start_IT:htim <- $r0
	@DEBUG_VALUE: HAL_TIM_OnePulse_Start_IT:OutputChannel <- $r1
	mov	r4, r0
.Ltmp460:
	@DEBUG_VALUE: HAL_TIM_OnePulse_Start_IT:htim <- $r4
	.loc	7 2162 3 prologue_end   @ ../Drivers/STM32F1xx_HAL_Driver/Src/stm32f1xx_hal_tim.c:2162:3
	ldr	r0, [r0]
	ldr	r1, [r0, #12]
.Ltmp461:
	orr	r1, r1, #2
	str	r1, [r0, #12]
	.loc	7 2165 3                @ ../Drivers/STM32F1xx_HAL_Driver/Src/stm32f1xx_hal_tim.c:2165:3
	ldr	r1, [r0, #12]
	orr	r1, r1, #4
	str	r1, [r0, #12]
	.loc	7 2167 3                @ ../Drivers/STM32F1xx_HAL_Driver/Src/stm32f1xx_hal_tim.c:2167:3
	movs	r1, #0
	movs	r2, #1
	bl	TIM_CCxChannelCmd
	.loc	7 2168 27               @ ../Drivers/STM32F1xx_HAL_Driver/Src/stm32f1xx_hal_tim.c:2168:27
	ldr	r0, [r4]
	.loc	7 2168 3 is_stmt 0      @ ../Drivers/STM32F1xx_HAL_Driver/Src/stm32f1xx_hal_tim.c:2168:3
	movs	r1, #4
	movs	r2, #1
	bl	TIM_CCxChannelCmd
.Ltmp462:
	.loc	7 2170 6 is_stmt 1      @ ../Drivers/STM32F1xx_HAL_Driver/Src/stm32f1xx_hal_tim.c:2170:6
	ldr	r0, [r4]
	movw	r1, #11264
	movt	r1, #16385
.Ltmp463:
	.loc	7 2170 6 is_stmt 0      @ ../Drivers/STM32F1xx_HAL_Driver/Src/stm32f1xx_hal_tim.c:2170:6
	cmp	r0, r1
	beq	.LBB52_2
.Ltmp464:
@ %bb.1:
	@DEBUG_VALUE: HAL_TIM_OnePulse_Start_IT:htim <- $r4
	.loc	7 2177 3 is_stmt 1      @ ../Drivers/STM32F1xx_HAL_Driver/Src/stm32f1xx_hal_tim.c:2177:3
	movs	r0, #0
	pop	{r4, pc}
.Ltmp465:
.LBB52_2:
	@DEBUG_VALUE: HAL_TIM_OnePulse_Start_IT:htim <- $r4
	.loc	7 2173 5                @ ../Drivers/STM32F1xx_HAL_Driver/Src/stm32f1xx_hal_tim.c:2173:5
	ldr	r1, [r0, #68]
	orr	r1, r1, #32768
	str	r1, [r0, #68]
.Ltmp466:
	.loc	7 2177 3                @ ../Drivers/STM32F1xx_HAL_Driver/Src/stm32f1xx_hal_tim.c:2177:3
	movs	r0, #0
	pop	{r4, pc}
.Ltmp467:
.Lfunc_end52:
	.size	HAL_TIM_OnePulse_Start_IT, .Lfunc_end52-HAL_TIM_OnePulse_Start_IT
	.cfi_endproc
	.cantunwind
	.fnend
                                        @ -- End function
	.section	.text.HAL_TIM_OnePulse_Stop_IT,"ax",%progbits
	.hidden	HAL_TIM_OnePulse_Stop_IT @ -- Begin function HAL_TIM_OnePulse_Stop_IT
	.globl	HAL_TIM_OnePulse_Stop_IT
	.p2align	2
	.type	HAL_TIM_OnePulse_Stop_IT,%function
	.code	16                      @ @HAL_TIM_OnePulse_Stop_IT
	.thumb_func
HAL_TIM_OnePulse_Stop_IT:
.Lfunc_begin53:
	.loc	7 2190 0                @ ../Drivers/STM32F1xx_HAL_Driver/Src/stm32f1xx_hal_tim.c:2190:0
	.fnstart
	.cfi_startproc
@ %bb.0:
	.save	{r4, lr}
	push	{r4, lr}
	.cfi_def_cfa_offset 8
	.cfi_offset lr, -4
	.cfi_offset r4, -8
	@DEBUG_VALUE: HAL_TIM_OnePulse_Stop_IT:htim <- $r0
	@DEBUG_VALUE: HAL_TIM_OnePulse_Stop_IT:OutputChannel <- $r1
	mov	r4, r0
.Ltmp468:
	@DEBUG_VALUE: HAL_TIM_OnePulse_Stop_IT:htim <- $r4
	.loc	7 2195 3 prologue_end   @ ../Drivers/STM32F1xx_HAL_Driver/Src/stm32f1xx_hal_tim.c:2195:3
	ldr	r0, [r0]
	ldr	r1, [r0, #12]
.Ltmp469:
	bic	r1, r1, #2
	str	r1, [r0, #12]
	.loc	7 2198 3                @ ../Drivers/STM32F1xx_HAL_Driver/Src/stm32f1xx_hal_tim.c:2198:3
	ldr	r1, [r0, #12]
	bic	r1, r1, #4
	str	r1, [r0, #12]
	.loc	7 2205 3                @ ../Drivers/STM32F1xx_HAL_Driver/Src/stm32f1xx_hal_tim.c:2205:3
	movs	r1, #0
	movs	r2, #0
	bl	TIM_CCxChannelCmd
	.loc	7 2206 27               @ ../Drivers/STM32F1xx_HAL_Driver/Src/stm32f1xx_hal_tim.c:2206:27
	ldr	r0, [r4]
	.loc	7 2206 3 is_stmt 0      @ ../Drivers/STM32F1xx_HAL_Driver/Src/stm32f1xx_hal_tim.c:2206:3
	movs	r1, #4
	movs	r2, #0
	bl	TIM_CCxChannelCmd
.Ltmp470:
	.loc	7 2208 6 is_stmt 1      @ ../Drivers/STM32F1xx_HAL_Driver/Src/stm32f1xx_hal_tim.c:2208:6
	ldr	r0, [r4]
	movw	r1, #11264
	movt	r1, #16385
.Ltmp471:
	.loc	7 2208 6 is_stmt 0      @ ../Drivers/STM32F1xx_HAL_Driver/Src/stm32f1xx_hal_tim.c:2208:6
	cmp	r0, r1
	bne	.LBB53_4
.Ltmp472:
@ %bb.1:
	@DEBUG_VALUE: HAL_TIM_OnePulse_Stop_IT:htim <- $r4
	.loc	7 2211 5 is_stmt 1      @ ../Drivers/STM32F1xx_HAL_Driver/Src/stm32f1xx_hal_tim.c:2211:5
	ldr	r1, [r0, #32]
	movw	r2, #4369
.Ltmp473:
	.loc	7 2211 5 is_stmt 0      @ ../Drivers/STM32F1xx_HAL_Driver/Src/stm32f1xx_hal_tim.c:2211:5
	tst	r1, r2
	bne	.LBB53_4
.Ltmp474:
@ %bb.2:
	@DEBUG_VALUE: HAL_TIM_OnePulse_Stop_IT:htim <- $r4
	.loc	7 2211 5                @ ../Drivers/STM32F1xx_HAL_Driver/Src/stm32f1xx_hal_tim.c:2211:5
	ldr	r1, [r0, #32]
	movw	r2, #1092
.Ltmp475:
	.loc	7 2211 5                @ ../Drivers/STM32F1xx_HAL_Driver/Src/stm32f1xx_hal_tim.c:2211:5
	tst	r1, r2
	bne	.LBB53_4
.Ltmp476:
@ %bb.3:
	@DEBUG_VALUE: HAL_TIM_OnePulse_Stop_IT:htim <- $r4
	.loc	7 2211 5                @ ../Drivers/STM32F1xx_HAL_Driver/Src/stm32f1xx_hal_tim.c:2211:5
	ldr	r1, [r0, #68]
	bic	r1, r1, #32768
	str	r1, [r0, #68]
.Ltmp477:
.LBB53_4:
	@DEBUG_VALUE: HAL_TIM_OnePulse_Stop_IT:htim <- $r4
	.loc	7 2215 4 is_stmt 1      @ ../Drivers/STM32F1xx_HAL_Driver/Src/stm32f1xx_hal_tim.c:2215:4
	ldr	r1, [r0, #32]
	movw	r2, #4369
.Ltmp478:
	.loc	7 2215 4 is_stmt 0      @ ../Drivers/STM32F1xx_HAL_Driver/Src/stm32f1xx_hal_tim.c:2215:4
	tst	r1, r2
	bne	.LBB53_6
.Ltmp479:
@ %bb.5:
	@DEBUG_VALUE: HAL_TIM_OnePulse_Stop_IT:htim <- $r4
	.loc	7 2215 4                @ ../Drivers/STM32F1xx_HAL_Driver/Src/stm32f1xx_hal_tim.c:2215:4
	ldr	r1, [r0, #32]
	movw	r2, #1092
.Ltmp480:
	.loc	7 2215 4                @ ../Drivers/STM32F1xx_HAL_Driver/Src/stm32f1xx_hal_tim.c:2215:4
	tst	r1, r2
	beq	.LBB53_7
.Ltmp481:
.LBB53_6:
	@DEBUG_VALUE: HAL_TIM_OnePulse_Stop_IT:htim <- $r4
	.loc	7 2218 3 is_stmt 1      @ ../Drivers/STM32F1xx_HAL_Driver/Src/stm32f1xx_hal_tim.c:2218:3
	movs	r0, #0
	pop	{r4, pc}
.Ltmp482:
.LBB53_7:
	@DEBUG_VALUE: HAL_TIM_OnePulse_Stop_IT:htim <- $r4
	.loc	7 2215 4                @ ../Drivers/STM32F1xx_HAL_Driver/Src/stm32f1xx_hal_tim.c:2215:4
	ldr	r1, [r0]
	bic	r1, r1, #1
	str	r1, [r0]
.Ltmp483:
	.loc	7 2218 3                @ ../Drivers/STM32F1xx_HAL_Driver/Src/stm32f1xx_hal_tim.c:2218:3
	movs	r0, #0
	pop	{r4, pc}
.Ltmp484:
.Lfunc_end53:
	.size	HAL_TIM_OnePulse_Stop_IT, .Lfunc_end53-HAL_TIM_OnePulse_Stop_IT
	.cfi_endproc
	.cantunwind
	.fnend
                                        @ -- End function
	.section	.text.HAL_TIM_Encoder_Init,"ax",%progbits
	.hidden	HAL_TIM_Encoder_Init    @ -- Begin function HAL_TIM_Encoder_Init
	.globl	HAL_TIM_Encoder_Init
	.p2align	2
	.type	HAL_TIM_Encoder_Init,%function
	.code	16                      @ @HAL_TIM_Encoder_Init
	.thumb_func
HAL_TIM_Encoder_Init:
.Lfunc_begin54:
	.loc	7 2253 0                @ ../Drivers/STM32F1xx_HAL_Driver/Src/stm32f1xx_hal_tim.c:2253:0
	.fnstart
	.cfi_startproc
@ %bb.0:
	.save	{r4, r5, r6, r7, r8, r9, r10, r11, lr}
	push.w	{r4, r5, r6, r7, r8, r9, r10, r11, lr}
	.cfi_def_cfa_offset 36
	.cfi_offset lr, -4
	.cfi_offset r11, -8
	.cfi_offset r10, -12
	.cfi_offset r9, -16
	.cfi_offset r8, -20
	.cfi_offset r7, -24
	.cfi_offset r6, -28
	.cfi_offset r5, -32
	.cfi_offset r4, -36
	.pad	#4
	sub	sp, #4
	.cfi_def_cfa_offset 40
	@DEBUG_VALUE: HAL_TIM_Encoder_Init:htim <- $r0
	@DEBUG_VALUE: HAL_TIM_Encoder_Init:sConfig <- $r1
	mov	r5, r1
	mov	r4, r0
.Ltmp485:
	@DEBUG_VALUE: HAL_TIM_Encoder_Init:tmpccer <- 0
	@DEBUG_VALUE: HAL_TIM_Encoder_Init:tmpccmr1 <- 0
	@DEBUG_VALUE: HAL_TIM_Encoder_Init:tmpsmcr <- 0
	@DEBUG_VALUE: HAL_TIM_Encoder_Init:sConfig <- $r5
	@DEBUG_VALUE: HAL_TIM_Encoder_Init:htim <- $r4
	.loc	7 2259 6 prologue_end   @ ../Drivers/STM32F1xx_HAL_Driver/Src/stm32f1xx_hal_tim.c:2259:6
	cmp	r0, #0
	beq	.LBB54_4
.Ltmp486:
@ %bb.1:
	@DEBUG_VALUE: HAL_TIM_Encoder_Init:htim <- $r4
	@DEBUG_VALUE: HAL_TIM_Encoder_Init:sConfig <- $r5
	.loc	7 2279 12               @ ../Drivers/STM32F1xx_HAL_Driver/Src/stm32f1xx_hal_tim.c:2279:12
	ldr	r0, [r4, #64]
.Ltmp487:
	.loc	7 2279 6 is_stmt 0      @ ../Drivers/STM32F1xx_HAL_Driver/Src/stm32f1xx_hal_tim.c:2279:6
	cbnz	r0, .LBB54_3
.Ltmp488:
@ %bb.2:
	@DEBUG_VALUE: HAL_TIM_Encoder_Init:htim <- $r4
	@DEBUG_VALUE: HAL_TIM_Encoder_Init:sConfig <- $r5
	.loc	7 2282 16 is_stmt 1     @ ../Drivers/STM32F1xx_HAL_Driver/Src/stm32f1xx_hal_tim.c:2282:16
	movs	r0, #0
	str	r0, [r4, #60]
	.loc	7 2285 5                @ ../Drivers/STM32F1xx_HAL_Driver/Src/stm32f1xx_hal_tim.c:2285:5
	mov	r0, r4
	bl	HAL_TIM_Encoder_MspInit
.Ltmp489:
.LBB54_3:
	@DEBUG_VALUE: HAL_TIM_Encoder_Init:htim <- $r4
	@DEBUG_VALUE: HAL_TIM_Encoder_Init:sConfig <- $r5
	.loc	7 2289 14               @ ../Drivers/STM32F1xx_HAL_Driver/Src/stm32f1xx_hal_tim.c:2289:14
	movs	r0, #2
	str	r0, [r4, #64]
	.loc	7 2292 9                @ ../Drivers/STM32F1xx_HAL_Driver/Src/stm32f1xx_hal_tim.c:2292:9
	ldr	r0, [r4]
	.loc	7 2292 24 is_stmt 0     @ ../Drivers/STM32F1xx_HAL_Driver/Src/stm32f1xx_hal_tim.c:2292:24
	ldr	r1, [r0, #8]
	bic	r1, r1, #7
	str	r1, [r0, #8]
	.loc	7 2295 45 is_stmt 1     @ ../Drivers/STM32F1xx_HAL_Driver/Src/stm32f1xx_hal_tim.c:2295:45
	adds	r1, r4, #4
	.loc	7 2295 3 is_stmt 0      @ ../Drivers/STM32F1xx_HAL_Driver/Src/stm32f1xx_hal_tim.c:2295:3
	bl	TIM_Base_SetConfig
	.loc	7 2298 19 is_stmt 1     @ ../Drivers/STM32F1xx_HAL_Driver/Src/stm32f1xx_hal_tim.c:2298:19
	ldr	r0, [r4]
	.loc	7 2298 29 is_stmt 0     @ ../Drivers/STM32F1xx_HAL_Driver/Src/stm32f1xx_hal_tim.c:2298:29
	ldr	r1, [r0, #8]
.Ltmp490:
	@DEBUG_VALUE: HAL_TIM_Encoder_Init:tmpsmcr <- $r1
	.loc	7 2301 30 is_stmt 1     @ ../Drivers/STM32F1xx_HAL_Driver/Src/stm32f1xx_hal_tim.c:2301:30
	ldr.w	r10, [r0, #24]
.Ltmp491:
	@DEBUG_VALUE: HAL_TIM_Encoder_Init:tmpccmr1 <- $r10
	.loc	7 2304 29               @ ../Drivers/STM32F1xx_HAL_Driver/Src/stm32f1xx_hal_tim.c:2304:29
	ldr.w	r12, [r0, #32]
.Ltmp492:
	@DEBUG_VALUE: HAL_TIM_Encoder_Init:tmpccer <- $r12
	.loc	7 2307 23               @ ../Drivers/STM32F1xx_HAL_Driver/Src/stm32f1xx_hal_tim.c:2307:23
	ldrd	r3, lr, [r5]
	.loc	7 2311 25               @ ../Drivers/STM32F1xx_HAL_Driver/Src/stm32f1xx_hal_tim.c:2311:25
	ldrd	r11, r7, [r5, #8]
	.loc	7 2317 25               @ ../Drivers/STM32F1xx_HAL_Driver/Src/stm32f1xx_hal_tim.c:2317:25
	ldrd	r8, r9, [r5, #16]
	.loc	7 2311 50               @ ../Drivers/STM32F1xx_HAL_Driver/Src/stm32f1xx_hal_tim.c:2311:50
	ldrd	r2, r6, [r5, #24]
	.loc	7 2307 11               @ ../Drivers/STM32F1xx_HAL_Driver/Src/stm32f1xx_hal_tim.c:2307:11
	orrs	r1, r3
.Ltmp493:
	@DEBUG_VALUE: HAL_TIM_Encoder_Init:tmpsmcr <- $r1
	.loc	7 2317 54               @ ../Drivers/STM32F1xx_HAL_Driver/Src/stm32f1xx_hal_tim.c:2317:54
	ldr	r3, [r5, #32]
	.loc	7 2325 24               @ ../Drivers/STM32F1xx_HAL_Driver/Src/stm32f1xx_hal_tim.c:2325:24
	str	r1, [r0, #8]
	.loc	7 2310 12               @ ../Drivers/STM32F1xx_HAL_Driver/Src/stm32f1xx_hal_tim.c:2310:12
	movw	r1, #65535
.Ltmp494:
	bic.w	r1, r10, r1
.Ltmp495:
	@DEBUG_VALUE: HAL_TIM_Encoder_Init:tmpccmr1 <- $r1
	.loc	7 2317 42               @ ../Drivers/STM32F1xx_HAL_Driver/Src/stm32f1xx_hal_tim.c:2317:42
	orrs	r1, r7
.Ltmp496:
	.loc	7 2311 38               @ ../Drivers/STM32F1xx_HAL_Driver/Src/stm32f1xx_hal_tim.c:2311:38
	orr.w	r2, r11, r2, lsl #8
	.loc	7 2314 12               @ ../Drivers/STM32F1xx_HAL_Driver/Src/stm32f1xx_hal_tim.c:2314:12
	movw	r5, #64764
.Ltmp497:
	bics	r2, r5
	.loc	7 2316 37               @ ../Drivers/STM32F1xx_HAL_Driver/Src/stm32f1xx_hal_tim.c:2316:37
	orrs	r1, r2
	.loc	7 2314 12               @ ../Drivers/STM32F1xx_HAL_Driver/Src/stm32f1xx_hal_tim.c:2314:12
	orr.w	r1, r1, r6, lsl #8
.Ltmp498:
	@DEBUG_VALUE: HAL_TIM_Encoder_Init:tmpccmr1 <- $r1
	.loc	7 2316 12               @ ../Drivers/STM32F1xx_HAL_Driver/Src/stm32f1xx_hal_tim.c:2316:12
	orr.w	r1, r1, r8, lsl #4
.Ltmp499:
	@DEBUG_VALUE: HAL_TIM_Encoder_Init:tmpccmr1 <- $r1
	.loc	7 2317 12               @ ../Drivers/STM32F1xx_HAL_Driver/Src/stm32f1xx_hal_tim.c:2317:12
	orr.w	r1, r1, r3, lsl #12
.Ltmp500:
	@DEBUG_VALUE: HAL_TIM_Encoder_Init:tmpccmr1 <- $r1
	.loc	7 2328 25               @ ../Drivers/STM32F1xx_HAL_Driver/Src/stm32f1xx_hal_tim.c:2328:25
	str	r1, [r0, #24]
	.loc	7 2321 11               @ ../Drivers/STM32F1xx_HAL_Driver/Src/stm32f1xx_hal_tim.c:2321:11
	bic	r1, r12, #170
.Ltmp501:
	@DEBUG_VALUE: HAL_TIM_Encoder_Init:tmpccer <- $r1
	.loc	7 2322 35               @ ../Drivers/STM32F1xx_HAL_Driver/Src/stm32f1xx_hal_tim.c:2322:35
	orr.w	r1, r1, lr
.Ltmp502:
	.loc	7 2322 11 is_stmt 0     @ ../Drivers/STM32F1xx_HAL_Driver/Src/stm32f1xx_hal_tim.c:2322:11
	orr.w	r1, r1, r9, lsl #4
.Ltmp503:
	@DEBUG_VALUE: HAL_TIM_Encoder_Init:tmpccer <- $r1
	.loc	7 2331 24 is_stmt 1     @ ../Drivers/STM32F1xx_HAL_Driver/Src/stm32f1xx_hal_tim.c:2331:24
	str	r1, [r0, #32]
	.loc	7 2334 14               @ ../Drivers/STM32F1xx_HAL_Driver/Src/stm32f1xx_hal_tim.c:2334:14
	movs	r0, #1
	str	r0, [r4, #64]
	movs	r0, #0
	.loc	7 2337 1                @ ../Drivers/STM32F1xx_HAL_Driver/Src/stm32f1xx_hal_tim.c:2337:1
	add	sp, #4
	pop.w	{r4, r5, r6, r7, r8, r9, r10, r11, pc}
.Ltmp504:
.LBB54_4:
	@DEBUG_VALUE: HAL_TIM_Encoder_Init:htim <- $r4
	@DEBUG_VALUE: HAL_TIM_Encoder_Init:sConfig <- $r5
	.loc	7 0 1 is_stmt 0         @ ../Drivers/STM32F1xx_HAL_Driver/Src/stm32f1xx_hal_tim.c:0:1
	movs	r0, #1
	.loc	7 2337 1                @ ../Drivers/STM32F1xx_HAL_Driver/Src/stm32f1xx_hal_tim.c:2337:1
	add	sp, #4
	pop.w	{r4, r5, r6, r7, r8, r9, r10, r11, pc}
.Ltmp505:
.Lfunc_end54:
	.size	HAL_TIM_Encoder_Init, .Lfunc_end54-HAL_TIM_Encoder_Init
	.cfi_endproc
	.cantunwind
	.fnend
                                        @ -- End function
	.section	.text.HAL_TIM_Encoder_MspInit,"ax",%progbits
	.hidden	HAL_TIM_Encoder_MspInit @ -- Begin function HAL_TIM_Encoder_MspInit
	.weak	HAL_TIM_Encoder_MspInit
	.p2align	2
	.type	HAL_TIM_Encoder_MspInit,%function
	.code	16                      @ @HAL_TIM_Encoder_MspInit
	.thumb_func
HAL_TIM_Encoder_MspInit:
.Lfunc_begin55:
	.loc	7 2373 0 is_stmt 1      @ ../Drivers/STM32F1xx_HAL_Driver/Src/stm32f1xx_hal_tim.c:2373:0
	.fnstart
	.cfi_startproc
@ %bb.0:
	@DEBUG_VALUE: HAL_TIM_Encoder_MspInit:htim <- $r0
	.loc	7 2379 1 prologue_end   @ ../Drivers/STM32F1xx_HAL_Driver/Src/stm32f1xx_hal_tim.c:2379:1
	bx	lr
.Ltmp506:
.Lfunc_end55:
	.size	HAL_TIM_Encoder_MspInit, .Lfunc_end55-HAL_TIM_Encoder_MspInit
	.cfi_endproc
	.cantunwind
	.fnend
                                        @ -- End function
	.section	.text.HAL_TIM_Encoder_DeInit,"ax",%progbits
	.hidden	HAL_TIM_Encoder_DeInit  @ -- Begin function HAL_TIM_Encoder_DeInit
	.globl	HAL_TIM_Encoder_DeInit
	.p2align	2
	.type	HAL_TIM_Encoder_DeInit,%function
	.code	16                      @ @HAL_TIM_Encoder_DeInit
	.thumb_func
HAL_TIM_Encoder_DeInit:
.Lfunc_begin56:
	.loc	7 2346 0                @ ../Drivers/STM32F1xx_HAL_Driver/Src/stm32f1xx_hal_tim.c:2346:0
	.fnstart
	.cfi_startproc
@ %bb.0:
	.save	{r4, lr}
	push	{r4, lr}
	.cfi_def_cfa_offset 8
	.cfi_offset lr, -4
	.cfi_offset r4, -8
	@DEBUG_VALUE: HAL_TIM_Encoder_DeInit:htim <- $r0
	mov	r4, r0
.Ltmp507:
	@DEBUG_VALUE: HAL_TIM_Encoder_DeInit:htim <- $r4
	.loc	7 2350 15 prologue_end  @ ../Drivers/STM32F1xx_HAL_Driver/Src/stm32f1xx_hal_tim.c:2350:15
	movs	r0, #2
	str	r0, [r4, #64]
.Ltmp508:
	.loc	7 2353 3                @ ../Drivers/STM32F1xx_HAL_Driver/Src/stm32f1xx_hal_tim.c:2353:3
	ldr	r0, [r4]
	ldr	r1, [r0, #32]
	movw	r2, #4369
.Ltmp509:
	.loc	7 2353 3 is_stmt 0      @ ../Drivers/STM32F1xx_HAL_Driver/Src/stm32f1xx_hal_tim.c:2353:3
	tst	r1, r2
	bne	.LBB56_3
.Ltmp510:
@ %bb.1:
	@DEBUG_VALUE: HAL_TIM_Encoder_DeInit:htim <- $r4
	.loc	7 2353 3                @ ../Drivers/STM32F1xx_HAL_Driver/Src/stm32f1xx_hal_tim.c:2353:3
	ldr	r1, [r0, #32]
	movw	r2, #1092
.Ltmp511:
	.loc	7 2353 3                @ ../Drivers/STM32F1xx_HAL_Driver/Src/stm32f1xx_hal_tim.c:2353:3
	tst	r1, r2
	bne	.LBB56_3
.Ltmp512:
@ %bb.2:
	@DEBUG_VALUE: HAL_TIM_Encoder_DeInit:htim <- $r4
	.loc	7 2353 3                @ ../Drivers/STM32F1xx_HAL_Driver/Src/stm32f1xx_hal_tim.c:2353:3
	ldr	r1, [r0]
	bic	r1, r1, #1
	str	r1, [r0]
.Ltmp513:
.LBB56_3:
	@DEBUG_VALUE: HAL_TIM_Encoder_DeInit:htim <- $r4
	.loc	7 2356 3 is_stmt 1      @ ../Drivers/STM32F1xx_HAL_Driver/Src/stm32f1xx_hal_tim.c:2356:3
	mov	r0, r4
	bl	HAL_TIM_Encoder_MspDeInit
	movs	r0, #0
.Ltmp514:
	.loc	7 2362 3                @ ../Drivers/STM32F1xx_HAL_Driver/Src/stm32f1xx_hal_tim.c:2362:3
	str	r0, [r4, #60]
.Ltmp515:
	.loc	7 2359 15               @ ../Drivers/STM32F1xx_HAL_Driver/Src/stm32f1xx_hal_tim.c:2359:15
	str	r0, [r4, #64]
	.loc	7 2364 3                @ ../Drivers/STM32F1xx_HAL_Driver/Src/stm32f1xx_hal_tim.c:2364:3
	movs	r0, #0
	pop	{r4, pc}
.Ltmp516:
.Lfunc_end56:
	.size	HAL_TIM_Encoder_DeInit, .Lfunc_end56-HAL_TIM_Encoder_DeInit
	.cfi_endproc
	.cantunwind
	.fnend
                                        @ -- End function
	.section	.text.HAL_TIM_Encoder_MspDeInit,"ax",%progbits
	.hidden	HAL_TIM_Encoder_MspDeInit @ -- Begin function HAL_TIM_Encoder_MspDeInit
	.weak	HAL_TIM_Encoder_MspDeInit
	.p2align	2
	.type	HAL_TIM_Encoder_MspDeInit,%function
	.code	16                      @ @HAL_TIM_Encoder_MspDeInit
	.thumb_func
HAL_TIM_Encoder_MspDeInit:
.Lfunc_begin57:
	.loc	7 2387 0                @ ../Drivers/STM32F1xx_HAL_Driver/Src/stm32f1xx_hal_tim.c:2387:0
	.fnstart
	.cfi_startproc
@ %bb.0:
	@DEBUG_VALUE: HAL_TIM_Encoder_MspDeInit:htim <- $r0
	.loc	7 2393 1 prologue_end   @ ../Drivers/STM32F1xx_HAL_Driver/Src/stm32f1xx_hal_tim.c:2393:1
	bx	lr
.Ltmp517:
.Lfunc_end57:
	.size	HAL_TIM_Encoder_MspDeInit, .Lfunc_end57-HAL_TIM_Encoder_MspDeInit
	.cfi_endproc
	.cantunwind
	.fnend
                                        @ -- End function
	.section	.text.HAL_TIM_Encoder_Start,"ax",%progbits
	.hidden	HAL_TIM_Encoder_Start   @ -- Begin function HAL_TIM_Encoder_Start
	.globl	HAL_TIM_Encoder_Start
	.p2align	2
	.type	HAL_TIM_Encoder_Start,%function
	.code	16                      @ @HAL_TIM_Encoder_Start
	.thumb_func
HAL_TIM_Encoder_Start:
.Lfunc_begin58:
	.loc	7 2406 0                @ ../Drivers/STM32F1xx_HAL_Driver/Src/stm32f1xx_hal_tim.c:2406:0
	.fnstart
	.cfi_startproc
@ %bb.0:
	.save	{r4, lr}
	push	{r4, lr}
	.cfi_def_cfa_offset 8
	.cfi_offset lr, -4
	.cfi_offset r4, -8
	@DEBUG_VALUE: HAL_TIM_Encoder_Start:htim <- $r0
	@DEBUG_VALUE: HAL_TIM_Encoder_Start:Channel <- $r1
	mov	r4, r0
	@DEBUG_VALUE: HAL_TIM_Encoder_Start:Channel <- $r1
.Ltmp518:
	@DEBUG_VALUE: HAL_TIM_Encoder_Start:htim <- $r4
	.loc	7 2411 3 prologue_end   @ ../Drivers/STM32F1xx_HAL_Driver/Src/stm32f1xx_hal_tim.c:2411:3
	cmp	r1, #4
	beq	.LBB58_3
.Ltmp519:
@ %bb.1:
	@DEBUG_VALUE: HAL_TIM_Encoder_Start:htim <- $r4
	@DEBUG_VALUE: HAL_TIM_Encoder_Start:Channel <- $r1
	cbnz	r1, .LBB58_4
.Ltmp520:
@ %bb.2:
	@DEBUG_VALUE: HAL_TIM_Encoder_Start:htim <- $r4
	@DEBUG_VALUE: HAL_TIM_Encoder_Start:Channel <- $r1
	.loc	7 2415 29               @ ../Drivers/STM32F1xx_HAL_Driver/Src/stm32f1xx_hal_tim.c:2415:29
	ldr	r0, [r4]
	.loc	7 2415 5 is_stmt 0      @ ../Drivers/STM32F1xx_HAL_Driver/Src/stm32f1xx_hal_tim.c:2415:5
	movs	r1, #0
.Ltmp521:
	movs	r2, #1
	bl	TIM_CCxChannelCmd
	.loc	7 2416 7 is_stmt 1      @ ../Drivers/STM32F1xx_HAL_Driver/Src/stm32f1xx_hal_tim.c:2416:7
	b	.LBB58_5
.Ltmp522:
.LBB58_3:
	@DEBUG_VALUE: HAL_TIM_Encoder_Start:htim <- $r4
	@DEBUG_VALUE: HAL_TIM_Encoder_Start:Channel <- $r1
	.loc	7 2420 29               @ ../Drivers/STM32F1xx_HAL_Driver/Src/stm32f1xx_hal_tim.c:2420:29
	ldr	r0, [r4]
	.loc	7 2420 5 is_stmt 0      @ ../Drivers/STM32F1xx_HAL_Driver/Src/stm32f1xx_hal_tim.c:2420:5
	movs	r1, #4
.Ltmp523:
	movs	r2, #1
	bl	TIM_CCxChannelCmd
	.loc	7 2421 7 is_stmt 1      @ ../Drivers/STM32F1xx_HAL_Driver/Src/stm32f1xx_hal_tim.c:2421:7
	b	.LBB58_5
.Ltmp524:
.LBB58_4:
	@DEBUG_VALUE: HAL_TIM_Encoder_Start:htim <- $r4
	@DEBUG_VALUE: HAL_TIM_Encoder_Start:Channel <- $r1
	.loc	7 2425 30               @ ../Drivers/STM32F1xx_HAL_Driver/Src/stm32f1xx_hal_tim.c:2425:30
	ldr	r0, [r4]
	.loc	7 2425 6 is_stmt 0      @ ../Drivers/STM32F1xx_HAL_Driver/Src/stm32f1xx_hal_tim.c:2425:6
	movs	r1, #0
.Ltmp525:
	movs	r2, #1
	bl	TIM_CCxChannelCmd
	.loc	7 2426 30 is_stmt 1     @ ../Drivers/STM32F1xx_HAL_Driver/Src/stm32f1xx_hal_tim.c:2426:30
	ldr	r0, [r4]
	.loc	7 2426 6 is_stmt 0      @ ../Drivers/STM32F1xx_HAL_Driver/Src/stm32f1xx_hal_tim.c:2426:6
	movs	r1, #4
	movs	r2, #1
	bl	TIM_CCxChannelCmd
.Ltmp526:
.LBB58_5:
	@DEBUG_VALUE: HAL_TIM_Encoder_Start:htim <- $r4
	.loc	7 2431 3 is_stmt 1      @ ../Drivers/STM32F1xx_HAL_Driver/Src/stm32f1xx_hal_tim.c:2431:3
	ldr	r0, [r4]
	ldr	r1, [r0]
	orr	r1, r1, #1
	str	r1, [r0]
	.loc	7 2434 3                @ ../Drivers/STM32F1xx_HAL_Driver/Src/stm32f1xx_hal_tim.c:2434:3
	movs	r0, #0
	pop	{r4, pc}
.Ltmp527:
.Lfunc_end58:
	.size	HAL_TIM_Encoder_Start, .Lfunc_end58-HAL_TIM_Encoder_Start
	.cfi_endproc
	.cantunwind
	.fnend
                                        @ -- End function
	.section	.text.HAL_TIM_Encoder_Stop,"ax",%progbits
	.hidden	HAL_TIM_Encoder_Stop    @ -- Begin function HAL_TIM_Encoder_Stop
	.globl	HAL_TIM_Encoder_Stop
	.p2align	2
	.type	HAL_TIM_Encoder_Stop,%function
	.code	16                      @ @HAL_TIM_Encoder_Stop
	.thumb_func
HAL_TIM_Encoder_Stop:
.Lfunc_begin59:
	.loc	7 2448 0                @ ../Drivers/STM32F1xx_HAL_Driver/Src/stm32f1xx_hal_tim.c:2448:0
	.fnstart
	.cfi_startproc
@ %bb.0:
	.save	{r4, lr}
	push	{r4, lr}
	.cfi_def_cfa_offset 8
	.cfi_offset lr, -4
	.cfi_offset r4, -8
	@DEBUG_VALUE: HAL_TIM_Encoder_Stop:htim <- $r0
	@DEBUG_VALUE: HAL_TIM_Encoder_Stop:Channel <- $r1
	mov	r4, r0
	@DEBUG_VALUE: HAL_TIM_Encoder_Stop:Channel <- $r1
.Ltmp528:
	@DEBUG_VALUE: HAL_TIM_Encoder_Stop:htim <- $r4
	.loc	7 2454 3 prologue_end   @ ../Drivers/STM32F1xx_HAL_Driver/Src/stm32f1xx_hal_tim.c:2454:3
	cmp	r1, #4
	beq	.LBB59_4
.Ltmp529:
@ %bb.1:
	@DEBUG_VALUE: HAL_TIM_Encoder_Stop:htim <- $r4
	@DEBUG_VALUE: HAL_TIM_Encoder_Stop:Channel <- $r1
	cbnz	r1, .LBB59_3
.Ltmp530:
@ %bb.2:
	@DEBUG_VALUE: HAL_TIM_Encoder_Stop:htim <- $r4
	@DEBUG_VALUE: HAL_TIM_Encoder_Stop:Channel <- $r1
	.loc	7 2458 30               @ ../Drivers/STM32F1xx_HAL_Driver/Src/stm32f1xx_hal_tim.c:2458:30
	ldr	r0, [r4]
	.loc	7 2458 6 is_stmt 0      @ ../Drivers/STM32F1xx_HAL_Driver/Src/stm32f1xx_hal_tim.c:2458:6
	movs	r1, #0
.Ltmp531:
	.loc	7 0 6                   @ ../Drivers/STM32F1xx_HAL_Driver/Src/stm32f1xx_hal_tim.c:0:6
	b	.LBB59_5
.Ltmp532:
.LBB59_3:
	@DEBUG_VALUE: HAL_TIM_Encoder_Stop:htim <- $r4
	@DEBUG_VALUE: HAL_TIM_Encoder_Stop:Channel <- $r1
	.loc	7 2468 29 is_stmt 1     @ ../Drivers/STM32F1xx_HAL_Driver/Src/stm32f1xx_hal_tim.c:2468:29
	ldr	r0, [r4]
	.loc	7 2468 5 is_stmt 0      @ ../Drivers/STM32F1xx_HAL_Driver/Src/stm32f1xx_hal_tim.c:2468:5
	movs	r1, #0
.Ltmp533:
	movs	r2, #0
	bl	TIM_CCxChannelCmd
.Ltmp534:
.LBB59_4:
	@DEBUG_VALUE: HAL_TIM_Encoder_Stop:htim <- $r4
	.loc	7 0 5                   @ ../Drivers/STM32F1xx_HAL_Driver/Src/stm32f1xx_hal_tim.c:0:5
	ldr	r0, [r4]
	movs	r1, #4
.Ltmp535:
.LBB59_5:
	@DEBUG_VALUE: HAL_TIM_Encoder_Stop:htim <- $r4
	movs	r2, #0
	bl	TIM_CCxChannelCmd
.Ltmp536:
	.loc	7 2475 3 is_stmt 1      @ ../Drivers/STM32F1xx_HAL_Driver/Src/stm32f1xx_hal_tim.c:2475:3
	ldr	r0, [r4]
	ldr	r1, [r0, #32]
	movw	r2, #4369
.Ltmp537:
	.loc	7 2475 3 is_stmt 0      @ ../Drivers/STM32F1xx_HAL_Driver/Src/stm32f1xx_hal_tim.c:2475:3
	tst	r1, r2
	bne	.LBB59_7
.Ltmp538:
@ %bb.6:
	@DEBUG_VALUE: HAL_TIM_Encoder_Stop:htim <- $r4
	.loc	7 2475 3                @ ../Drivers/STM32F1xx_HAL_Driver/Src/stm32f1xx_hal_tim.c:2475:3
	ldr	r1, [r0, #32]
	movw	r2, #1092
.Ltmp539:
	.loc	7 2475 3                @ ../Drivers/STM32F1xx_HAL_Driver/Src/stm32f1xx_hal_tim.c:2475:3
	tst	r1, r2
	beq	.LBB59_8
.Ltmp540:
.LBB59_7:
	@DEBUG_VALUE: HAL_TIM_Encoder_Stop:htim <- $r4
	.loc	7 2478 3 is_stmt 1      @ ../Drivers/STM32F1xx_HAL_Driver/Src/stm32f1xx_hal_tim.c:2478:3
	movs	r0, #0
	pop	{r4, pc}
.Ltmp541:
.LBB59_8:
	@DEBUG_VALUE: HAL_TIM_Encoder_Stop:htim <- $r4
	.loc	7 2475 3                @ ../Drivers/STM32F1xx_HAL_Driver/Src/stm32f1xx_hal_tim.c:2475:3
	ldr	r1, [r0]
	bic	r1, r1, #1
	str	r1, [r0]
.Ltmp542:
	.loc	7 2478 3                @ ../Drivers/STM32F1xx_HAL_Driver/Src/stm32f1xx_hal_tim.c:2478:3
	movs	r0, #0
	pop	{r4, pc}
.Ltmp543:
.Lfunc_end59:
	.size	HAL_TIM_Encoder_Stop, .Lfunc_end59-HAL_TIM_Encoder_Stop
	.cfi_endproc
	.cantunwind
	.fnend
                                        @ -- End function
	.section	.text.HAL_TIM_Encoder_Start_IT,"ax",%progbits
	.hidden	HAL_TIM_Encoder_Start_IT @ -- Begin function HAL_TIM_Encoder_Start_IT
	.globl	HAL_TIM_Encoder_Start_IT
	.p2align	2
	.type	HAL_TIM_Encoder_Start_IT,%function
	.code	16                      @ @HAL_TIM_Encoder_Start_IT
	.thumb_func
HAL_TIM_Encoder_Start_IT:
.Lfunc_begin60:
	.loc	7 2492 0                @ ../Drivers/STM32F1xx_HAL_Driver/Src/stm32f1xx_hal_tim.c:2492:0
	.fnstart
	.cfi_startproc
@ %bb.0:
	.save	{r4, r5, r7, lr}
	push	{r4, r5, r7, lr}
	.cfi_def_cfa_offset 16
	.cfi_offset lr, -4
	.cfi_offset r7, -8
	.cfi_offset r5, -12
	.cfi_offset r4, -16
	@DEBUG_VALUE: HAL_TIM_Encoder_Start_IT:htim <- $r0
	@DEBUG_VALUE: HAL_TIM_Encoder_Start_IT:Channel <- $r1
	mov	r4, r0
	@DEBUG_VALUE: HAL_TIM_Encoder_Start_IT:Channel <- $r1
.Ltmp544:
	@DEBUG_VALUE: HAL_TIM_Encoder_Start_IT:htim <- $r4
	.loc	7 2498 3 prologue_end   @ ../Drivers/STM32F1xx_HAL_Driver/Src/stm32f1xx_hal_tim.c:2498:3
	cmp	r1, #4
	beq	.LBB60_3
.Ltmp545:
@ %bb.1:
	@DEBUG_VALUE: HAL_TIM_Encoder_Start_IT:htim <- $r4
	@DEBUG_VALUE: HAL_TIM_Encoder_Start_IT:Channel <- $r1
	cbnz	r1, .LBB60_4
.Ltmp546:
@ %bb.2:
	@DEBUG_VALUE: HAL_TIM_Encoder_Start_IT:htim <- $r4
	@DEBUG_VALUE: HAL_TIM_Encoder_Start_IT:Channel <- $r1
	.loc	7 2502 29               @ ../Drivers/STM32F1xx_HAL_Driver/Src/stm32f1xx_hal_tim.c:2502:29
	ldr	r0, [r4]
	.loc	7 2502 5 is_stmt 0      @ ../Drivers/STM32F1xx_HAL_Driver/Src/stm32f1xx_hal_tim.c:2502:5
	movs	r1, #0
.Ltmp547:
	movs	r2, #1
	bl	TIM_CCxChannelCmd
	.loc	7 2503 5 is_stmt 1      @ ../Drivers/STM32F1xx_HAL_Driver/Src/stm32f1xx_hal_tim.c:2503:5
	ldr	r0, [r4]
	adds	r0, #12
	movs	r5, #2
	.loc	7 2504 7                @ ../Drivers/STM32F1xx_HAL_Driver/Src/stm32f1xx_hal_tim.c:2504:7
	b	.LBB60_5
.Ltmp548:
.LBB60_3:
	@DEBUG_VALUE: HAL_TIM_Encoder_Start_IT:htim <- $r4
	@DEBUG_VALUE: HAL_TIM_Encoder_Start_IT:Channel <- $r1
	.loc	7 2508 29               @ ../Drivers/STM32F1xx_HAL_Driver/Src/stm32f1xx_hal_tim.c:2508:29
	ldr	r0, [r4]
	movs	r5, #4
	.loc	7 2508 5 is_stmt 0      @ ../Drivers/STM32F1xx_HAL_Driver/Src/stm32f1xx_hal_tim.c:2508:5
	movs	r1, #4
.Ltmp549:
	movs	r2, #1
	bl	TIM_CCxChannelCmd
	.loc	7 2509 5 is_stmt 1      @ ../Drivers/STM32F1xx_HAL_Driver/Src/stm32f1xx_hal_tim.c:2509:5
	ldr	r0, [r4]
	adds	r0, #12
	.loc	7 2510 7                @ ../Drivers/STM32F1xx_HAL_Driver/Src/stm32f1xx_hal_tim.c:2510:7
	b	.LBB60_5
.Ltmp550:
.LBB60_4:
	@DEBUG_VALUE: HAL_TIM_Encoder_Start_IT:htim <- $r4
	@DEBUG_VALUE: HAL_TIM_Encoder_Start_IT:Channel <- $r1
	.loc	7 2514 30               @ ../Drivers/STM32F1xx_HAL_Driver/Src/stm32f1xx_hal_tim.c:2514:30
	ldr	r0, [r4]
	.loc	7 2514 6 is_stmt 0      @ ../Drivers/STM32F1xx_HAL_Driver/Src/stm32f1xx_hal_tim.c:2514:6
	movs	r1, #0
.Ltmp551:
	movs	r2, #1
	bl	TIM_CCxChannelCmd
	.loc	7 2515 30 is_stmt 1     @ ../Drivers/STM32F1xx_HAL_Driver/Src/stm32f1xx_hal_tim.c:2515:30
	ldr	r0, [r4]
	movs	r5, #4
	.loc	7 2515 6 is_stmt 0      @ ../Drivers/STM32F1xx_HAL_Driver/Src/stm32f1xx_hal_tim.c:2515:6
	movs	r1, #4
	movs	r2, #1
	bl	TIM_CCxChannelCmd
	.loc	7 2516 6 is_stmt 1      @ ../Drivers/STM32F1xx_HAL_Driver/Src/stm32f1xx_hal_tim.c:2516:6
	ldr	r0, [r4]
	ldr	r1, [r0, #12]!
	orr	r1, r1, #2
	str	r1, [r0]
.Ltmp552:
.LBB60_5:
	@DEBUG_VALUE: HAL_TIM_Encoder_Start_IT:htim <- $r4
	.loc	7 0 6 is_stmt 0         @ ../Drivers/STM32F1xx_HAL_Driver/Src/stm32f1xx_hal_tim.c:0:6
	ldr	r1, [r0]
	orrs	r1, r5
	str	r1, [r0]
	.loc	7 2523 3 is_stmt 1      @ ../Drivers/STM32F1xx_HAL_Driver/Src/stm32f1xx_hal_tim.c:2523:3
	ldr	r0, [r4]
	ldr	r1, [r0]
	orr	r1, r1, #1
	str	r1, [r0]
	.loc	7 2526 3                @ ../Drivers/STM32F1xx_HAL_Driver/Src/stm32f1xx_hal_tim.c:2526:3
	movs	r0, #0
	pop	{r4, r5, r7, pc}
.Ltmp553:
.Lfunc_end60:
	.size	HAL_TIM_Encoder_Start_IT, .Lfunc_end60-HAL_TIM_Encoder_Start_IT
	.cfi_endproc
	.cantunwind
	.fnend
                                        @ -- End function
	.section	.text.HAL_TIM_Encoder_Stop_IT,"ax",%progbits
	.hidden	HAL_TIM_Encoder_Stop_IT @ -- Begin function HAL_TIM_Encoder_Stop_IT
	.globl	HAL_TIM_Encoder_Stop_IT
	.p2align	2
	.type	HAL_TIM_Encoder_Stop_IT,%function
	.code	16                      @ @HAL_TIM_Encoder_Stop_IT
	.thumb_func
HAL_TIM_Encoder_Stop_IT:
.Lfunc_begin61:
	.loc	7 2540 0                @ ../Drivers/STM32F1xx_HAL_Driver/Src/stm32f1xx_hal_tim.c:2540:0
	.fnstart
	.cfi_startproc
@ %bb.0:
	.save	{r4, lr}
	push	{r4, lr}
	.cfi_def_cfa_offset 8
	.cfi_offset lr, -4
	.cfi_offset r4, -8
	@DEBUG_VALUE: HAL_TIM_Encoder_Stop_IT:htim <- $r0
	@DEBUG_VALUE: HAL_TIM_Encoder_Stop_IT:Channel <- $r1
	mov	r4, r0
	@DEBUG_VALUE: HAL_TIM_Encoder_Stop_IT:Channel <- $r1
.Ltmp554:
	@DEBUG_VALUE: HAL_TIM_Encoder_Stop_IT:htim <- $r4
	.loc	7 2546 6 prologue_end   @ ../Drivers/STM32F1xx_HAL_Driver/Src/stm32f1xx_hal_tim.c:2546:6
	cbz	r1, .LBB61_3
.Ltmp555:
@ %bb.1:
	@DEBUG_VALUE: HAL_TIM_Encoder_Stop_IT:htim <- $r4
	@DEBUG_VALUE: HAL_TIM_Encoder_Stop_IT:Channel <- $r1
	.loc	7 0 6 is_stmt 0         @ ../Drivers/STM32F1xx_HAL_Driver/Src/stm32f1xx_hal_tim.c:0:6
	ldr	r0, [r4]
.Ltmp556:
	.loc	7 2553 11 is_stmt 1     @ ../Drivers/STM32F1xx_HAL_Driver/Src/stm32f1xx_hal_tim.c:2553:11
	cmp	r1, #4
	bne	.LBB61_4
.Ltmp557:
@ %bb.2:
	@DEBUG_VALUE: HAL_TIM_Encoder_Stop_IT:htim <- $r4
	@DEBUG_VALUE: HAL_TIM_Encoder_Stop_IT:Channel <- $r1
	.loc	7 2555 5                @ ../Drivers/STM32F1xx_HAL_Driver/Src/stm32f1xx_hal_tim.c:2555:5
	movs	r1, #4
.Ltmp558:
	movs	r2, #0
	bl	TIM_CCxChannelCmd
	.loc	7 2558 3                @ ../Drivers/STM32F1xx_HAL_Driver/Src/stm32f1xx_hal_tim.c:2558:3
	ldr	r0, [r4]
	adds	r0, #12
	b	.LBB61_5
.Ltmp559:
.LBB61_3:
	@DEBUG_VALUE: HAL_TIM_Encoder_Stop_IT:htim <- $r4
	@DEBUG_VALUE: HAL_TIM_Encoder_Stop_IT:Channel <- $r1
	.loc	7 2548 29               @ ../Drivers/STM32F1xx_HAL_Driver/Src/stm32f1xx_hal_tim.c:2548:29
	ldr	r0, [r4]
	.loc	7 2548 5 is_stmt 0      @ ../Drivers/STM32F1xx_HAL_Driver/Src/stm32f1xx_hal_tim.c:2548:5
	movs	r1, #0
.Ltmp560:
	movs	r2, #0
	bl	TIM_CCxChannelCmd
	.loc	7 2551 3 is_stmt 1      @ ../Drivers/STM32F1xx_HAL_Driver/Src/stm32f1xx_hal_tim.c:2551:3
	ldr	r0, [r4]
	adds	r0, #12
	mvn	r1, #2
	b	.LBB61_6
.Ltmp561:
.LBB61_4:
	@DEBUG_VALUE: HAL_TIM_Encoder_Stop_IT:htim <- $r4
	@DEBUG_VALUE: HAL_TIM_Encoder_Stop_IT:Channel <- $r1
	.loc	7 2562 5                @ ../Drivers/STM32F1xx_HAL_Driver/Src/stm32f1xx_hal_tim.c:2562:5
	movs	r1, #0
.Ltmp562:
	movs	r2, #0
	bl	TIM_CCxChannelCmd
	.loc	7 2563 29               @ ../Drivers/STM32F1xx_HAL_Driver/Src/stm32f1xx_hal_tim.c:2563:29
	ldr	r0, [r4]
	.loc	7 2563 5 is_stmt 0      @ ../Drivers/STM32F1xx_HAL_Driver/Src/stm32f1xx_hal_tim.c:2563:5
	movs	r1, #4
	movs	r2, #0
	bl	TIM_CCxChannelCmd
	.loc	7 2566 5 is_stmt 1      @ ../Drivers/STM32F1xx_HAL_Driver/Src/stm32f1xx_hal_tim.c:2566:5
	ldr	r0, [r4]
	ldr	r1, [r0, #12]!
	bic	r1, r1, #2
	str	r1, [r0]
.Ltmp563:
.LBB61_5:
	@DEBUG_VALUE: HAL_TIM_Encoder_Stop_IT:htim <- $r4
	.loc	7 0 5 is_stmt 0         @ ../Drivers/STM32F1xx_HAL_Driver/Src/stm32f1xx_hal_tim.c:0:5
	mvn	r1, #4
.Ltmp564:
.LBB61_6:
	@DEBUG_VALUE: HAL_TIM_Encoder_Stop_IT:htim <- $r4
	ldr	r2, [r0]
	ands	r1, r2
	str	r1, [r0]
.Ltmp565:
	.loc	7 2571 3 is_stmt 1      @ ../Drivers/STM32F1xx_HAL_Driver/Src/stm32f1xx_hal_tim.c:2571:3
	ldr	r0, [r4]
	ldr	r1, [r0, #32]
	movw	r2, #4369
.Ltmp566:
	.loc	7 2571 3 is_stmt 0      @ ../Drivers/STM32F1xx_HAL_Driver/Src/stm32f1xx_hal_tim.c:2571:3
	tst	r1, r2
	bne	.LBB61_9
.Ltmp567:
@ %bb.7:
	@DEBUG_VALUE: HAL_TIM_Encoder_Stop_IT:htim <- $r4
	.loc	7 2571 3                @ ../Drivers/STM32F1xx_HAL_Driver/Src/stm32f1xx_hal_tim.c:2571:3
	ldr	r1, [r0, #32]
	movw	r2, #1092
.Ltmp568:
	.loc	7 2571 3                @ ../Drivers/STM32F1xx_HAL_Driver/Src/stm32f1xx_hal_tim.c:2571:3
	tst	r1, r2
	bne	.LBB61_9
.Ltmp569:
@ %bb.8:
	@DEBUG_VALUE: HAL_TIM_Encoder_Stop_IT:htim <- $r4
	.loc	7 2571 3                @ ../Drivers/STM32F1xx_HAL_Driver/Src/stm32f1xx_hal_tim.c:2571:3
	ldr	r1, [r0]
	bic	r1, r1, #1
	str	r1, [r0]
.Ltmp570:
.LBB61_9:
	@DEBUG_VALUE: HAL_TIM_Encoder_Stop_IT:htim <- $r4
	.loc	7 2574 15 is_stmt 1     @ ../Drivers/STM32F1xx_HAL_Driver/Src/stm32f1xx_hal_tim.c:2574:15
	movs	r0, #1
	str	r0, [r4, #64]
	.loc	7 2577 3                @ ../Drivers/STM32F1xx_HAL_Driver/Src/stm32f1xx_hal_tim.c:2577:3
	movs	r0, #0
	pop	{r4, pc}
.Ltmp571:
.Lfunc_end61:
	.size	HAL_TIM_Encoder_Stop_IT, .Lfunc_end61-HAL_TIM_Encoder_Stop_IT
	.cfi_endproc
	.cantunwind
	.fnend
                                        @ -- End function
	.section	.text.HAL_TIM_Encoder_Start_DMA,"ax",%progbits
	.hidden	HAL_TIM_Encoder_Start_DMA @ -- Begin function HAL_TIM_Encoder_Start_DMA
	.globl	HAL_TIM_Encoder_Start_DMA
	.p2align	2
	.type	HAL_TIM_Encoder_Start_DMA,%function
	.code	16                      @ @HAL_TIM_Encoder_Start_DMA
	.thumb_func
HAL_TIM_Encoder_Start_DMA:
.Lfunc_begin62:
	.loc	7 2594 0                @ ../Drivers/STM32F1xx_HAL_Driver/Src/stm32f1xx_hal_tim.c:2594:0
	.fnstart
	.cfi_startproc
@ %bb.0:
	.save	{r4, r5, r6, r7, r8, lr}
	push.w	{r4, r5, r6, r7, r8, lr}
	.cfi_def_cfa_offset 24
	.cfi_offset lr, -4
	.cfi_offset r8, -8
	.cfi_offset r7, -12
	.cfi_offset r6, -16
	.cfi_offset r5, -20
	.cfi_offset r4, -24
	@DEBUG_VALUE: HAL_TIM_Encoder_Start_DMA:htim <- $r0
	@DEBUG_VALUE: HAL_TIM_Encoder_Start_DMA:Channel <- $r1
	@DEBUG_VALUE: HAL_TIM_Encoder_Start_DMA:pData1 <- $r2
	@DEBUG_VALUE: HAL_TIM_Encoder_Start_DMA:pData2 <- $r3
	mov	r6, r3
	mov	r4, r0
.Ltmp572:
	@DEBUG_VALUE: HAL_TIM_Encoder_Start_DMA:pData2 <- $r6
	@DEBUG_VALUE: HAL_TIM_Encoder_Start_DMA:pData1 <- $r2
	@DEBUG_VALUE: HAL_TIM_Encoder_Start_DMA:Channel <- $r1
	@DEBUG_VALUE: HAL_TIM_Encoder_Start_DMA:htim <- $r4
	.loc	7 2598 13 prologue_end  @ ../Drivers/STM32F1xx_HAL_Driver/Src/stm32f1xx_hal_tim.c:2598:13
	ldr	r0, [r0, #64]
.Ltmp573:
	.loc	7 2598 6 is_stmt 0      @ ../Drivers/STM32F1xx_HAL_Driver/Src/stm32f1xx_hal_tim.c:2598:6
	cmp	r0, #2
	ittt	eq
	moveq	r5, #2
	.loc	7 2698 1 is_stmt 1      @ ../Drivers/STM32F1xx_HAL_Driver/Src/stm32f1xx_hal_tim.c:2698:1
	moveq	r0, r5
	popeq.w	{r4, r5, r6, r7, r8, pc}
.Ltmp574:
	.loc	7 0 1 is_stmt 0         @ ../Drivers/STM32F1xx_HAL_Driver/Src/stm32f1xx_hal_tim.c:0:1
	ldr	r5, [sp, #24]
	@DEBUG_VALUE: HAL_TIM_Encoder_Start_DMA:Length <- $r5
.Ltmp575:
	.loc	7 2602 18 is_stmt 1     @ ../Drivers/STM32F1xx_HAL_Driver/Src/stm32f1xx_hal_tim.c:2602:18
	ldr	r0, [r4, #64]
.Ltmp576:
	.loc	7 2602 11 is_stmt 0     @ ../Drivers/STM32F1xx_HAL_Driver/Src/stm32f1xx_hal_tim.c:2602:11
	cmp	r0, #1
	bne	.LBB62_4
.Ltmp577:
@ %bb.1:
	@DEBUG_VALUE: HAL_TIM_Encoder_Start_DMA:Length <- $r5
	@DEBUG_VALUE: HAL_TIM_Encoder_Start_DMA:pData1 <- $r2
	@DEBUG_VALUE: HAL_TIM_Encoder_Start_DMA:Channel <- $r1
	.loc	7 2604 36 is_stmt 1     @ ../Drivers/STM32F1xx_HAL_Driver/Src/stm32f1xx_hal_tim.c:2604:36
	cmp	r6, #0
	mov	r0, r6
	it	ne
	movne	r0, #1
	.loc	7 2604 18 is_stmt 0     @ ../Drivers/STM32F1xx_HAL_Driver/Src/stm32f1xx_hal_tim.c:2604:18
	cmp	r2, #0
	mov	r3, r2
	it	ne
	movne	r3, #1
	.loc	7 2604 25               @ ../Drivers/STM32F1xx_HAL_Driver/Src/stm32f1xx_hal_tim.c:2604:25
	tst	r3, r0
	bne	.LBB62_3
.Ltmp578:
@ %bb.2:
	@DEBUG_VALUE: HAL_TIM_Encoder_Start_DMA:Length <- $r5
	@DEBUG_VALUE: HAL_TIM_Encoder_Start_DMA:pData1 <- $r2
	@DEBUG_VALUE: HAL_TIM_Encoder_Start_DMA:Channel <- $r1
	cmp	r5, #0
	ittt	ne
	movne	r5, #1
.Ltmp579:
	.loc	7 2698 1 is_stmt 1      @ ../Drivers/STM32F1xx_HAL_Driver/Src/stm32f1xx_hal_tim.c:2698:1
	movne	r0, r5
	popne.w	{r4, r5, r6, r7, r8, pc}
.Ltmp580:
.LBB62_3:
	@DEBUG_VALUE: HAL_TIM_Encoder_Start_DMA:pData1 <- $r2
	@DEBUG_VALUE: HAL_TIM_Encoder_Start_DMA:Channel <- $r1
	.loc	7 2610 19               @ ../Drivers/STM32F1xx_HAL_Driver/Src/stm32f1xx_hal_tim.c:2610:19
	movs	r0, #2
	str	r0, [r4, #64]
.Ltmp581:
.LBB62_4:
	@DEBUG_VALUE: HAL_TIM_Encoder_Start_DMA:pData1 <- $r2
	@DEBUG_VALUE: HAL_TIM_Encoder_Start_DMA:Channel <- $r1
	.loc	7 2614 3                @ ../Drivers/STM32F1xx_HAL_Driver/Src/stm32f1xx_hal_tim.c:2614:3
	cmp	r1, #24
	beq	.LBB62_8
.Ltmp582:
@ %bb.5:
	@DEBUG_VALUE: HAL_TIM_Encoder_Start_DMA:pData1 <- $r2
	@DEBUG_VALUE: HAL_TIM_Encoder_Start_DMA:Channel <- $r1
	cmp	r1, #4
	beq	.LBB62_9
.Ltmp583:
@ %bb.6:
	@DEBUG_VALUE: HAL_TIM_Encoder_Start_DMA:pData1 <- $r2
	@DEBUG_VALUE: HAL_TIM_Encoder_Start_DMA:Channel <- $r1
	cmp	r1, #0
	bne	.LBB62_10
.Ltmp584:
@ %bb.7:
	@DEBUG_VALUE: HAL_TIM_Encoder_Start_DMA:pData1 <- $r2
	@DEBUG_VALUE: HAL_TIM_Encoder_Start_DMA:Channel <- $r1
	.loc	7 2619 7                @ ../Drivers/STM32F1xx_HAL_Driver/Src/stm32f1xx_hal_tim.c:2619:7
	ldr	r0, [r4, #36]
	.loc	7 2619 52 is_stmt 0     @ ../Drivers/STM32F1xx_HAL_Driver/Src/stm32f1xx_hal_tim.c:2619:52
	movw	r1, :lower16:TIM_DMACaptureCplt
.Ltmp585:
	movt	r1, :upper16:TIM_DMACaptureCplt
	str	r1, [r0, #44]
	.loc	7 2622 7 is_stmt 1      @ ../Drivers/STM32F1xx_HAL_Driver/Src/stm32f1xx_hal_tim.c:2622:7
	ldr	r0, [r4, #36]
	.loc	7 2622 53 is_stmt 0     @ ../Drivers/STM32F1xx_HAL_Driver/Src/stm32f1xx_hal_tim.c:2622:53
	movw	r1, :lower16:TIM_DMAError
	movt	r1, :upper16:TIM_DMAError
	str	r1, [r0, #52]
	.loc	7 2625 69 is_stmt 1     @ ../Drivers/STM32F1xx_HAL_Driver/Src/stm32f1xx_hal_tim.c:2625:69
	ldr	r1, [r4]
	.loc	7 2625 24 is_stmt 0     @ ../Drivers/STM32F1xx_HAL_Driver/Src/stm32f1xx_hal_tim.c:2625:24
	ldr	r0, [r4, #36]
	.loc	7 2625 79               @ ../Drivers/STM32F1xx_HAL_Driver/Src/stm32f1xx_hal_tim.c:2625:79
	adds	r1, #52
	.loc	7 2625 7                @ ../Drivers/STM32F1xx_HAL_Driver/Src/stm32f1xx_hal_tim.c:2625:7
	mov	r3, r5
	bl	HAL_DMA_Start_IT
.Ltmp586:
	.loc	7 2628 7 is_stmt 1      @ ../Drivers/STM32F1xx_HAL_Driver/Src/stm32f1xx_hal_tim.c:2628:7
	ldr	r0, [r4]
	ldr	r1, [r0, #12]
	orr	r1, r1, #512
	str	r1, [r0, #12]
	.loc	7 2631 7                @ ../Drivers/STM32F1xx_HAL_Driver/Src/stm32f1xx_hal_tim.c:2631:7
	ldr	r1, [r0]
	orr	r1, r1, #1
	str	r1, [r0]
	movs	r5, #0
	.loc	7 2634 7                @ ../Drivers/STM32F1xx_HAL_Driver/Src/stm32f1xx_hal_tim.c:2634:7
	movs	r1, #0
	movs	r2, #1
	bl	TIM_CCxChannelCmd
.Ltmp587:
	.loc	7 2698 1                @ ../Drivers/STM32F1xx_HAL_Driver/Src/stm32f1xx_hal_tim.c:2698:1
	mov	r0, r5
	pop.w	{r4, r5, r6, r7, r8, pc}
.LBB62_8:
.Ltmp588:
	@DEBUG_VALUE: HAL_TIM_Encoder_Start_DMA:pData1 <- $r2
	@DEBUG_VALUE: HAL_TIM_Encoder_Start_DMA:Channel <- $r1
	.loc	7 2662 7                @ ../Drivers/STM32F1xx_HAL_Driver/Src/stm32f1xx_hal_tim.c:2662:7
	ldr	r0, [r4, #36]
	.loc	7 2662 52 is_stmt 0     @ ../Drivers/STM32F1xx_HAL_Driver/Src/stm32f1xx_hal_tim.c:2662:52
	movw	r8, :lower16:TIM_DMACaptureCplt
	movt	r8, :upper16:TIM_DMACaptureCplt
	str.w	r8, [r0, #44]
	.loc	7 2665 7 is_stmt 1      @ ../Drivers/STM32F1xx_HAL_Driver/Src/stm32f1xx_hal_tim.c:2665:7
	ldr	r0, [r4, #36]
	.loc	7 2665 53 is_stmt 0     @ ../Drivers/STM32F1xx_HAL_Driver/Src/stm32f1xx_hal_tim.c:2665:53
	movw	r7, :lower16:TIM_DMAError
	movt	r7, :upper16:TIM_DMAError
	str	r7, [r0, #52]
	.loc	7 2668 69 is_stmt 1     @ ../Drivers/STM32F1xx_HAL_Driver/Src/stm32f1xx_hal_tim.c:2668:69
	ldr	r1, [r4]
.Ltmp589:
	.loc	7 2668 24 is_stmt 0     @ ../Drivers/STM32F1xx_HAL_Driver/Src/stm32f1xx_hal_tim.c:2668:24
	ldr	r0, [r4, #36]
	.loc	7 2668 79               @ ../Drivers/STM32F1xx_HAL_Driver/Src/stm32f1xx_hal_tim.c:2668:79
	adds	r1, #52
	.loc	7 2668 7                @ ../Drivers/STM32F1xx_HAL_Driver/Src/stm32f1xx_hal_tim.c:2668:7
	mov	r3, r5
	bl	HAL_DMA_Start_IT
.Ltmp590:
	.loc	7 2671 7 is_stmt 1      @ ../Drivers/STM32F1xx_HAL_Driver/Src/stm32f1xx_hal_tim.c:2671:7
	ldr	r0, [r4, #40]
	.loc	7 2671 52 is_stmt 0     @ ../Drivers/STM32F1xx_HAL_Driver/Src/stm32f1xx_hal_tim.c:2671:52
	str.w	r8, [r0, #44]
	.loc	7 2674 7 is_stmt 1      @ ../Drivers/STM32F1xx_HAL_Driver/Src/stm32f1xx_hal_tim.c:2674:7
	ldr	r0, [r4, #40]
	.loc	7 2674 53 is_stmt 0     @ ../Drivers/STM32F1xx_HAL_Driver/Src/stm32f1xx_hal_tim.c:2674:53
	str	r7, [r0, #52]
	.loc	7 2677 69 is_stmt 1     @ ../Drivers/STM32F1xx_HAL_Driver/Src/stm32f1xx_hal_tim.c:2677:69
	ldr	r1, [r4]
	.loc	7 2677 24 is_stmt 0     @ ../Drivers/STM32F1xx_HAL_Driver/Src/stm32f1xx_hal_tim.c:2677:24
	ldr	r0, [r4, #40]
	.loc	7 2677 79               @ ../Drivers/STM32F1xx_HAL_Driver/Src/stm32f1xx_hal_tim.c:2677:79
	adds	r1, #56
	.loc	7 2677 7                @ ../Drivers/STM32F1xx_HAL_Driver/Src/stm32f1xx_hal_tim.c:2677:7
	mov	r2, r6
	mov	r3, r5
	bl	HAL_DMA_Start_IT
	.loc	7 2680 7 is_stmt 1      @ ../Drivers/STM32F1xx_HAL_Driver/Src/stm32f1xx_hal_tim.c:2680:7
	ldr	r0, [r4]
	ldr	r1, [r0]
	orr	r1, r1, #1
	str	r1, [r0]
	movs	r5, #0
	.loc	7 2683 7                @ ../Drivers/STM32F1xx_HAL_Driver/Src/stm32f1xx_hal_tim.c:2683:7
	movs	r1, #0
	movs	r2, #1
	bl	TIM_CCxChannelCmd
	.loc	7 2684 31               @ ../Drivers/STM32F1xx_HAL_Driver/Src/stm32f1xx_hal_tim.c:2684:31
	ldr	r0, [r4]
	.loc	7 2684 7 is_stmt 0      @ ../Drivers/STM32F1xx_HAL_Driver/Src/stm32f1xx_hal_tim.c:2684:7
	movs	r1, #4
	movs	r2, #1
	bl	TIM_CCxChannelCmd
	.loc	7 2687 7 is_stmt 1      @ ../Drivers/STM32F1xx_HAL_Driver/Src/stm32f1xx_hal_tim.c:2687:7
	ldr	r0, [r4]
	ldr	r1, [r0, #12]
	orr	r1, r1, #512
	str	r1, [r0, #12]
	.loc	7 2689 7                @ ../Drivers/STM32F1xx_HAL_Driver/Src/stm32f1xx_hal_tim.c:2689:7
	ldr	r1, [r0, #12]
	orr	r1, r1, #1024
	str	r1, [r0, #12]
.Ltmp591:
	.loc	7 2698 1                @ ../Drivers/STM32F1xx_HAL_Driver/Src/stm32f1xx_hal_tim.c:2698:1
	mov	r0, r5
	pop.w	{r4, r5, r6, r7, r8, pc}
.LBB62_9:
.Ltmp592:
	@DEBUG_VALUE: HAL_TIM_Encoder_Start_DMA:pData1 <- $r2
	@DEBUG_VALUE: HAL_TIM_Encoder_Start_DMA:Channel <- $r1
	.loc	7 2641 7                @ ../Drivers/STM32F1xx_HAL_Driver/Src/stm32f1xx_hal_tim.c:2641:7
	ldr	r0, [r4, #40]
	.loc	7 2641 52 is_stmt 0     @ ../Drivers/STM32F1xx_HAL_Driver/Src/stm32f1xx_hal_tim.c:2641:52
	movw	r1, :lower16:TIM_DMACaptureCplt
.Ltmp593:
	movt	r1, :upper16:TIM_DMACaptureCplt
	str	r1, [r0, #44]
	.loc	7 2644 7 is_stmt 1      @ ../Drivers/STM32F1xx_HAL_Driver/Src/stm32f1xx_hal_tim.c:2644:7
	ldr	r0, [r4, #40]
	.loc	7 2644 53 is_stmt 0     @ ../Drivers/STM32F1xx_HAL_Driver/Src/stm32f1xx_hal_tim.c:2644:53
	movw	r1, :lower16:TIM_DMAError
	movt	r1, :upper16:TIM_DMAError
	str	r1, [r0, #52]
	.loc	7 2646 69 is_stmt 1     @ ../Drivers/STM32F1xx_HAL_Driver/Src/stm32f1xx_hal_tim.c:2646:69
	ldr	r1, [r4]
	.loc	7 2646 24 is_stmt 0     @ ../Drivers/STM32F1xx_HAL_Driver/Src/stm32f1xx_hal_tim.c:2646:24
	ldr	r0, [r4, #40]
	.loc	7 2646 79               @ ../Drivers/STM32F1xx_HAL_Driver/Src/stm32f1xx_hal_tim.c:2646:79
	adds	r1, #56
	.loc	7 2646 7                @ ../Drivers/STM32F1xx_HAL_Driver/Src/stm32f1xx_hal_tim.c:2646:7
	mov	r2, r6
.Ltmp594:
	mov	r3, r5
	bl	HAL_DMA_Start_IT
	.loc	7 2649 7 is_stmt 1      @ ../Drivers/STM32F1xx_HAL_Driver/Src/stm32f1xx_hal_tim.c:2649:7
	ldr	r0, [r4]
	ldr	r1, [r0, #12]
	orr	r1, r1, #1024
	str	r1, [r0, #12]
	.loc	7 2652 7                @ ../Drivers/STM32F1xx_HAL_Driver/Src/stm32f1xx_hal_tim.c:2652:7
	ldr	r1, [r0]
	orr	r1, r1, #1
	str	r1, [r0]
	.loc	7 2655 7                @ ../Drivers/STM32F1xx_HAL_Driver/Src/stm32f1xx_hal_tim.c:2655:7
	movs	r1, #4
	movs	r2, #1
	bl	TIM_CCxChannelCmd
.Ltmp595:
.LBB62_10:
	.loc	7 0 7 is_stmt 0         @ ../Drivers/STM32F1xx_HAL_Driver/Src/stm32f1xx_hal_tim.c:0:7
	movs	r5, #0
	.loc	7 2698 1 is_stmt 1      @ ../Drivers/STM32F1xx_HAL_Driver/Src/stm32f1xx_hal_tim.c:2698:1
	mov	r0, r5
	pop.w	{r4, r5, r6, r7, r8, pc}
.Ltmp596:
.Lfunc_end62:
	.size	HAL_TIM_Encoder_Start_DMA, .Lfunc_end62-HAL_TIM_Encoder_Start_DMA
	.cfi_endproc
	.cantunwind
	.fnend
                                        @ -- End function
	.section	.text.HAL_TIM_Encoder_Stop_DMA,"ax",%progbits
	.hidden	HAL_TIM_Encoder_Stop_DMA @ -- Begin function HAL_TIM_Encoder_Stop_DMA
	.globl	HAL_TIM_Encoder_Stop_DMA
	.p2align	2
	.type	HAL_TIM_Encoder_Stop_DMA,%function
	.code	16                      @ @HAL_TIM_Encoder_Stop_DMA
	.thumb_func
HAL_TIM_Encoder_Stop_DMA:
.Lfunc_begin63:
	.loc	7 2711 0                @ ../Drivers/STM32F1xx_HAL_Driver/Src/stm32f1xx_hal_tim.c:2711:0
	.fnstart
	.cfi_startproc
@ %bb.0:
	.save	{r4, lr}
	push	{r4, lr}
	.cfi_def_cfa_offset 8
	.cfi_offset lr, -4
	.cfi_offset r4, -8
	@DEBUG_VALUE: HAL_TIM_Encoder_Stop_DMA:htim <- $r0
	@DEBUG_VALUE: HAL_TIM_Encoder_Stop_DMA:Channel <- $r1
	mov	r4, r0
	@DEBUG_VALUE: HAL_TIM_Encoder_Stop_DMA:Channel <- $r1
.Ltmp597:
	@DEBUG_VALUE: HAL_TIM_Encoder_Stop_DMA:htim <- $r4
	.loc	7 2717 6 prologue_end   @ ../Drivers/STM32F1xx_HAL_Driver/Src/stm32f1xx_hal_tim.c:2717:6
	cbz	r1, .LBB63_3
.Ltmp598:
@ %bb.1:
	@DEBUG_VALUE: HAL_TIM_Encoder_Stop_DMA:htim <- $r4
	@DEBUG_VALUE: HAL_TIM_Encoder_Stop_DMA:Channel <- $r1
	.loc	7 0 6 is_stmt 0         @ ../Drivers/STM32F1xx_HAL_Driver/Src/stm32f1xx_hal_tim.c:0:6
	ldr	r0, [r4]
.Ltmp599:
	.loc	7 2724 11 is_stmt 1     @ ../Drivers/STM32F1xx_HAL_Driver/Src/stm32f1xx_hal_tim.c:2724:11
	cmp	r1, #4
	bne	.LBB63_4
.Ltmp600:
@ %bb.2:
	@DEBUG_VALUE: HAL_TIM_Encoder_Stop_DMA:htim <- $r4
	@DEBUG_VALUE: HAL_TIM_Encoder_Stop_DMA:Channel <- $r1
	.loc	7 2726 5                @ ../Drivers/STM32F1xx_HAL_Driver/Src/stm32f1xx_hal_tim.c:2726:5
	movs	r1, #4
.Ltmp601:
	movs	r2, #0
	bl	TIM_CCxChannelCmd
	.loc	7 2729 5                @ ../Drivers/STM32F1xx_HAL_Driver/Src/stm32f1xx_hal_tim.c:2729:5
	ldr	r0, [r4]
	adds	r0, #12
	b	.LBB63_5
.Ltmp602:
.LBB63_3:
	@DEBUG_VALUE: HAL_TIM_Encoder_Stop_DMA:htim <- $r4
	@DEBUG_VALUE: HAL_TIM_Encoder_Stop_DMA:Channel <- $r1
	.loc	7 2719 29               @ ../Drivers/STM32F1xx_HAL_Driver/Src/stm32f1xx_hal_tim.c:2719:29
	ldr	r0, [r4]
	.loc	7 2719 5 is_stmt 0      @ ../Drivers/STM32F1xx_HAL_Driver/Src/stm32f1xx_hal_tim.c:2719:5
	movs	r1, #0
.Ltmp603:
	movs	r2, #0
	bl	TIM_CCxChannelCmd
	.loc	7 2722 5 is_stmt 1      @ ../Drivers/STM32F1xx_HAL_Driver/Src/stm32f1xx_hal_tim.c:2722:5
	ldr	r0, [r4]
	adds	r0, #12
	mvn	r1, #512
	b	.LBB63_6
.Ltmp604:
.LBB63_4:
	@DEBUG_VALUE: HAL_TIM_Encoder_Stop_DMA:htim <- $r4
	@DEBUG_VALUE: HAL_TIM_Encoder_Stop_DMA:Channel <- $r1
	.loc	7 2733 5                @ ../Drivers/STM32F1xx_HAL_Driver/Src/stm32f1xx_hal_tim.c:2733:5
	movs	r1, #0
.Ltmp605:
	movs	r2, #0
	bl	TIM_CCxChannelCmd
	.loc	7 2734 29               @ ../Drivers/STM32F1xx_HAL_Driver/Src/stm32f1xx_hal_tim.c:2734:29
	ldr	r0, [r4]
	.loc	7 2734 5 is_stmt 0      @ ../Drivers/STM32F1xx_HAL_Driver/Src/stm32f1xx_hal_tim.c:2734:5
	movs	r1, #4
	movs	r2, #0
	bl	TIM_CCxChannelCmd
	.loc	7 2737 5 is_stmt 1      @ ../Drivers/STM32F1xx_HAL_Driver/Src/stm32f1xx_hal_tim.c:2737:5
	ldr	r0, [r4]
	ldr	r1, [r0, #12]!
	bic	r1, r1, #512
	str	r1, [r0]
.Ltmp606:
.LBB63_5:
	@DEBUG_VALUE: HAL_TIM_Encoder_Stop_DMA:htim <- $r4
	.loc	7 0 5 is_stmt 0         @ ../Drivers/STM32F1xx_HAL_Driver/Src/stm32f1xx_hal_tim.c:0:5
	mvn	r1, #1024
.Ltmp607:
.LBB63_6:
	@DEBUG_VALUE: HAL_TIM_Encoder_Stop_DMA:htim <- $r4
	ldr	r2, [r0]
	ands	r1, r2
	str	r1, [r0]
.Ltmp608:
	.loc	7 2742 3 is_stmt 1      @ ../Drivers/STM32F1xx_HAL_Driver/Src/stm32f1xx_hal_tim.c:2742:3
	ldr	r0, [r4]
	ldr	r1, [r0, #32]
	movw	r2, #4369
.Ltmp609:
	.loc	7 2742 3 is_stmt 0      @ ../Drivers/STM32F1xx_HAL_Driver/Src/stm32f1xx_hal_tim.c:2742:3
	tst	r1, r2
	bne	.LBB63_9
.Ltmp610:
@ %bb.7:
	@DEBUG_VALUE: HAL_TIM_Encoder_Stop_DMA:htim <- $r4
	.loc	7 2742 3                @ ../Drivers/STM32F1xx_HAL_Driver/Src/stm32f1xx_hal_tim.c:2742:3
	ldr	r1, [r0, #32]
	movw	r2, #1092
.Ltmp611:
	.loc	7 2742 3                @ ../Drivers/STM32F1xx_HAL_Driver/Src/stm32f1xx_hal_tim.c:2742:3
	tst	r1, r2
	bne	.LBB63_9
.Ltmp612:
@ %bb.8:
	@DEBUG_VALUE: HAL_TIM_Encoder_Stop_DMA:htim <- $r4
	.loc	7 2742 3                @ ../Drivers/STM32F1xx_HAL_Driver/Src/stm32f1xx_hal_tim.c:2742:3
	ldr	r1, [r0]
	bic	r1, r1, #1
	str	r1, [r0]
.Ltmp613:
.LBB63_9:
	@DEBUG_VALUE: HAL_TIM_Encoder_Stop_DMA:htim <- $r4
	.loc	7 2745 15 is_stmt 1     @ ../Drivers/STM32F1xx_HAL_Driver/Src/stm32f1xx_hal_tim.c:2745:15
	movs	r0, #1
	str	r0, [r4, #64]
	.loc	7 2748 3                @ ../Drivers/STM32F1xx_HAL_Driver/Src/stm32f1xx_hal_tim.c:2748:3
	movs	r0, #0
	pop	{r4, pc}
.Ltmp614:
.Lfunc_end63:
	.size	HAL_TIM_Encoder_Stop_DMA, .Lfunc_end63-HAL_TIM_Encoder_Stop_DMA
	.cfi_endproc
	.cantunwind
	.fnend
                                        @ -- End function
	.section	.text.HAL_TIM_IRQHandler,"ax",%progbits
	.hidden	HAL_TIM_IRQHandler      @ -- Begin function HAL_TIM_IRQHandler
	.globl	HAL_TIM_IRQHandler
	.p2align	2
	.type	HAL_TIM_IRQHandler,%function
	.code	16                      @ @HAL_TIM_IRQHandler
	.thumb_func
HAL_TIM_IRQHandler:
.Lfunc_begin64:
	.loc	7 2773 0                @ ../Drivers/STM32F1xx_HAL_Driver/Src/stm32f1xx_hal_tim.c:2773:0
	.fnstart
	.cfi_startproc
@ %bb.0:
	.save	{r4, lr}
	push	{r4, lr}
	.cfi_def_cfa_offset 8
	.cfi_offset lr, -4
	.cfi_offset r4, -8
	@DEBUG_VALUE: HAL_TIM_IRQHandler:htim <- $r0
	mov	r4, r0
.Ltmp615:
	@DEBUG_VALUE: HAL_TIM_IRQHandler:htim <- $r4
	.loc	7 2775 6 prologue_end   @ ../Drivers/STM32F1xx_HAL_Driver/Src/stm32f1xx_hal_tim.c:2775:6
	ldr	r0, [r0]
	ldr	r1, [r0, #16]
.Ltmp616:
	.loc	7 2775 6 is_stmt 0      @ ../Drivers/STM32F1xx_HAL_Driver/Src/stm32f1xx_hal_tim.c:2775:6
	tst.w	r1, #2
	beq	.LBB64_6
.Ltmp617:
@ %bb.1:
	@DEBUG_VALUE: HAL_TIM_IRQHandler:htim <- $r4
	.loc	7 2777 8 is_stmt 1      @ ../Drivers/STM32F1xx_HAL_Driver/Src/stm32f1xx_hal_tim.c:2777:8
	ldr	r1, [r0, #12]
.Ltmp618:
	.loc	7 2777 8 is_stmt 0      @ ../Drivers/STM32F1xx_HAL_Driver/Src/stm32f1xx_hal_tim.c:2777:8
	tst.w	r1, #2
	beq	.LBB64_6
.Ltmp619:
@ %bb.2:
	@DEBUG_VALUE: HAL_TIM_IRQHandler:htim <- $r4
	.loc	7 2780 9 is_stmt 1      @ ../Drivers/STM32F1xx_HAL_Driver/Src/stm32f1xx_hal_tim.c:2780:9
	mvn	r1, #2
	str	r1, [r0, #16]
	.loc	7 2781 23               @ ../Drivers/STM32F1xx_HAL_Driver/Src/stm32f1xx_hal_tim.c:2781:23
	movs	r1, #1
	str	r1, [r4, #28]
.Ltmp620:
	.loc	7 2784 29               @ ../Drivers/STM32F1xx_HAL_Driver/Src/stm32f1xx_hal_tim.c:2784:29
	ldr	r0, [r0, #24]
.Ltmp621:
	.loc	7 2784 12 is_stmt 0     @ ../Drivers/STM32F1xx_HAL_Driver/Src/stm32f1xx_hal_tim.c:2784:12
	tst.w	r0, #3
	beq	.LBB64_4
.Ltmp622:
@ %bb.3:
	@DEBUG_VALUE: HAL_TIM_IRQHandler:htim <- $r4
	.loc	7 2786 11 is_stmt 1     @ ../Drivers/STM32F1xx_HAL_Driver/Src/stm32f1xx_hal_tim.c:2786:11
	mov	r0, r4
	bl	HAL_TIM_IC_CaptureCallback
	b	.LBB64_5
.Ltmp623:
.LBB64_4:
	@DEBUG_VALUE: HAL_TIM_IRQHandler:htim <- $r4
	.loc	7 2791 11               @ ../Drivers/STM32F1xx_HAL_Driver/Src/stm32f1xx_hal_tim.c:2791:11
	mov	r0, r4
	bl	HAL_TIM_OC_DelayElapsedCallback
	.loc	7 2792 11               @ ../Drivers/STM32F1xx_HAL_Driver/Src/stm32f1xx_hal_tim.c:2792:11
	mov	r0, r4
	bl	HAL_TIM_PWM_PulseFinishedCallback
.Ltmp624:
.LBB64_5:
	@DEBUG_VALUE: HAL_TIM_IRQHandler:htim <- $r4
	.loc	7 2794 23               @ ../Drivers/STM32F1xx_HAL_Driver/Src/stm32f1xx_hal_tim.c:2794:23
	movs	r0, #0
	str	r0, [r4, #28]
.Ltmp625:
.LBB64_6:
	@DEBUG_VALUE: HAL_TIM_IRQHandler:htim <- $r4
	.loc	7 2799 6                @ ../Drivers/STM32F1xx_HAL_Driver/Src/stm32f1xx_hal_tim.c:2799:6
	ldr	r0, [r4]
	ldr	r1, [r0, #16]
.Ltmp626:
	.loc	7 2799 6 is_stmt 0      @ ../Drivers/STM32F1xx_HAL_Driver/Src/stm32f1xx_hal_tim.c:2799:6
	tst.w	r1, #4
	beq	.LBB64_12
.Ltmp627:
@ %bb.7:
	@DEBUG_VALUE: HAL_TIM_IRQHandler:htim <- $r4
	.loc	7 2801 8 is_stmt 1      @ ../Drivers/STM32F1xx_HAL_Driver/Src/stm32f1xx_hal_tim.c:2801:8
	ldr	r1, [r0, #12]
.Ltmp628:
	.loc	7 2801 8 is_stmt 0      @ ../Drivers/STM32F1xx_HAL_Driver/Src/stm32f1xx_hal_tim.c:2801:8
	tst.w	r1, #4
	beq	.LBB64_12
.Ltmp629:
@ %bb.8:
	@DEBUG_VALUE: HAL_TIM_IRQHandler:htim <- $r4
	.loc	7 2803 7 is_stmt 1      @ ../Drivers/STM32F1xx_HAL_Driver/Src/stm32f1xx_hal_tim.c:2803:7
	mvn	r1, #4
	str	r1, [r0, #16]
	.loc	7 2804 21               @ ../Drivers/STM32F1xx_HAL_Driver/Src/stm32f1xx_hal_tim.c:2804:21
	movs	r1, #2
	str	r1, [r4, #28]
.Ltmp630:
	.loc	7 2806 27               @ ../Drivers/STM32F1xx_HAL_Driver/Src/stm32f1xx_hal_tim.c:2806:27
	ldr	r0, [r0, #24]
.Ltmp631:
	.loc	7 2806 10 is_stmt 0     @ ../Drivers/STM32F1xx_HAL_Driver/Src/stm32f1xx_hal_tim.c:2806:10
	tst.w	r0, #768
	beq	.LBB64_10
.Ltmp632:
@ %bb.9:
	@DEBUG_VALUE: HAL_TIM_IRQHandler:htim <- $r4
	.loc	7 2808 9 is_stmt 1      @ ../Drivers/STM32F1xx_HAL_Driver/Src/stm32f1xx_hal_tim.c:2808:9
	mov	r0, r4
	bl	HAL_TIM_IC_CaptureCallback
	b	.LBB64_11
.Ltmp633:
.LBB64_10:
	@DEBUG_VALUE: HAL_TIM_IRQHandler:htim <- $r4
	.loc	7 2813 9                @ ../Drivers/STM32F1xx_HAL_Driver/Src/stm32f1xx_hal_tim.c:2813:9
	mov	r0, r4
	bl	HAL_TIM_OC_DelayElapsedCallback
	.loc	7 2814 9                @ ../Drivers/STM32F1xx_HAL_Driver/Src/stm32f1xx_hal_tim.c:2814:9
	mov	r0, r4
	bl	HAL_TIM_PWM_PulseFinishedCallback
.Ltmp634:
.LBB64_11:
	@DEBUG_VALUE: HAL_TIM_IRQHandler:htim <- $r4
	.loc	7 2816 21               @ ../Drivers/STM32F1xx_HAL_Driver/Src/stm32f1xx_hal_tim.c:2816:21
	movs	r0, #0
	str	r0, [r4, #28]
.Ltmp635:
.LBB64_12:
	@DEBUG_VALUE: HAL_TIM_IRQHandler:htim <- $r4
	.loc	7 2820 6                @ ../Drivers/STM32F1xx_HAL_Driver/Src/stm32f1xx_hal_tim.c:2820:6
	ldr	r0, [r4]
	ldr	r1, [r0, #16]
.Ltmp636:
	.loc	7 2820 6 is_stmt 0      @ ../Drivers/STM32F1xx_HAL_Driver/Src/stm32f1xx_hal_tim.c:2820:6
	tst.w	r1, #8
	beq	.LBB64_18
.Ltmp637:
@ %bb.13:
	@DEBUG_VALUE: HAL_TIM_IRQHandler:htim <- $r4
	.loc	7 2822 8 is_stmt 1      @ ../Drivers/STM32F1xx_HAL_Driver/Src/stm32f1xx_hal_tim.c:2822:8
	ldr	r1, [r0, #12]
.Ltmp638:
	.loc	7 2822 8 is_stmt 0      @ ../Drivers/STM32F1xx_HAL_Driver/Src/stm32f1xx_hal_tim.c:2822:8
	tst.w	r1, #8
	beq	.LBB64_18
.Ltmp639:
@ %bb.14:
	@DEBUG_VALUE: HAL_TIM_IRQHandler:htim <- $r4
	.loc	7 2824 7 is_stmt 1      @ ../Drivers/STM32F1xx_HAL_Driver/Src/stm32f1xx_hal_tim.c:2824:7
	mvn	r1, #8
	str	r1, [r0, #16]
	.loc	7 2825 21               @ ../Drivers/STM32F1xx_HAL_Driver/Src/stm32f1xx_hal_tim.c:2825:21
	movs	r1, #4
	str	r1, [r4, #28]
.Ltmp640:
	.loc	7 2827 27               @ ../Drivers/STM32F1xx_HAL_Driver/Src/stm32f1xx_hal_tim.c:2827:27
	ldr	r0, [r0, #28]
.Ltmp641:
	.loc	7 2827 10 is_stmt 0     @ ../Drivers/STM32F1xx_HAL_Driver/Src/stm32f1xx_hal_tim.c:2827:10
	tst.w	r0, #3
	beq	.LBB64_16
.Ltmp642:
@ %bb.15:
	@DEBUG_VALUE: HAL_TIM_IRQHandler:htim <- $r4
	.loc	7 2829 9 is_stmt 1      @ ../Drivers/STM32F1xx_HAL_Driver/Src/stm32f1xx_hal_tim.c:2829:9
	mov	r0, r4
	bl	HAL_TIM_IC_CaptureCallback
	b	.LBB64_17
.Ltmp643:
.LBB64_16:
	@DEBUG_VALUE: HAL_TIM_IRQHandler:htim <- $r4
	.loc	7 2834 9                @ ../Drivers/STM32F1xx_HAL_Driver/Src/stm32f1xx_hal_tim.c:2834:9
	mov	r0, r4
	bl	HAL_TIM_OC_DelayElapsedCallback
	.loc	7 2835 9                @ ../Drivers/STM32F1xx_HAL_Driver/Src/stm32f1xx_hal_tim.c:2835:9
	mov	r0, r4
	bl	HAL_TIM_PWM_PulseFinishedCallback
.Ltmp644:
.LBB64_17:
	@DEBUG_VALUE: HAL_TIM_IRQHandler:htim <- $r4
	.loc	7 2837 21               @ ../Drivers/STM32F1xx_HAL_Driver/Src/stm32f1xx_hal_tim.c:2837:21
	movs	r0, #0
	str	r0, [r4, #28]
.Ltmp645:
.LBB64_18:
	@DEBUG_VALUE: HAL_TIM_IRQHandler:htim <- $r4
	.loc	7 2841 6                @ ../Drivers/STM32F1xx_HAL_Driver/Src/stm32f1xx_hal_tim.c:2841:6
	ldr	r0, [r4]
	ldr	r1, [r0, #16]
.Ltmp646:
	.loc	7 2841 6 is_stmt 0      @ ../Drivers/STM32F1xx_HAL_Driver/Src/stm32f1xx_hal_tim.c:2841:6
	tst.w	r1, #16
	beq	.LBB64_24
.Ltmp647:
@ %bb.19:
	@DEBUG_VALUE: HAL_TIM_IRQHandler:htim <- $r4
	.loc	7 2843 8 is_stmt 1      @ ../Drivers/STM32F1xx_HAL_Driver/Src/stm32f1xx_hal_tim.c:2843:8
	ldr	r1, [r0, #12]
.Ltmp648:
	.loc	7 2843 8 is_stmt 0      @ ../Drivers/STM32F1xx_HAL_Driver/Src/stm32f1xx_hal_tim.c:2843:8
	tst.w	r1, #16
	beq	.LBB64_24
.Ltmp649:
@ %bb.20:
	@DEBUG_VALUE: HAL_TIM_IRQHandler:htim <- $r4
	.loc	7 2845 7 is_stmt 1      @ ../Drivers/STM32F1xx_HAL_Driver/Src/stm32f1xx_hal_tim.c:2845:7
	mvn	r1, #16
	str	r1, [r0, #16]
	.loc	7 2846 21               @ ../Drivers/STM32F1xx_HAL_Driver/Src/stm32f1xx_hal_tim.c:2846:21
	movs	r1, #8
	str	r1, [r4, #28]
.Ltmp650:
	.loc	7 2848 27               @ ../Drivers/STM32F1xx_HAL_Driver/Src/stm32f1xx_hal_tim.c:2848:27
	ldr	r0, [r0, #28]
.Ltmp651:
	.loc	7 2848 10 is_stmt 0     @ ../Drivers/STM32F1xx_HAL_Driver/Src/stm32f1xx_hal_tim.c:2848:10
	tst.w	r0, #768
	beq	.LBB64_22
.Ltmp652:
@ %bb.21:
	@DEBUG_VALUE: HAL_TIM_IRQHandler:htim <- $r4
	.loc	7 2850 9 is_stmt 1      @ ../Drivers/STM32F1xx_HAL_Driver/Src/stm32f1xx_hal_tim.c:2850:9
	mov	r0, r4
	bl	HAL_TIM_IC_CaptureCallback
	b	.LBB64_23
.Ltmp653:
.LBB64_22:
	@DEBUG_VALUE: HAL_TIM_IRQHandler:htim <- $r4
	.loc	7 2855 9                @ ../Drivers/STM32F1xx_HAL_Driver/Src/stm32f1xx_hal_tim.c:2855:9
	mov	r0, r4
	bl	HAL_TIM_OC_DelayElapsedCallback
	.loc	7 2856 9                @ ../Drivers/STM32F1xx_HAL_Driver/Src/stm32f1xx_hal_tim.c:2856:9
	mov	r0, r4
	bl	HAL_TIM_PWM_PulseFinishedCallback
.Ltmp654:
.LBB64_23:
	@DEBUG_VALUE: HAL_TIM_IRQHandler:htim <- $r4
	.loc	7 2858 21               @ ../Drivers/STM32F1xx_HAL_Driver/Src/stm32f1xx_hal_tim.c:2858:21
	movs	r0, #0
	str	r0, [r4, #28]
.Ltmp655:
.LBB64_24:
	@DEBUG_VALUE: HAL_TIM_IRQHandler:htim <- $r4
	.loc	7 2862 6                @ ../Drivers/STM32F1xx_HAL_Driver/Src/stm32f1xx_hal_tim.c:2862:6
	ldr	r0, [r4]
	ldr	r1, [r0, #16]
.Ltmp656:
	.loc	7 2862 6 is_stmt 0      @ ../Drivers/STM32F1xx_HAL_Driver/Src/stm32f1xx_hal_tim.c:2862:6
	tst.w	r1, #1
	beq	.LBB64_27
.Ltmp657:
@ %bb.25:
	@DEBUG_VALUE: HAL_TIM_IRQHandler:htim <- $r4
	.loc	7 2864 8 is_stmt 1      @ ../Drivers/STM32F1xx_HAL_Driver/Src/stm32f1xx_hal_tim.c:2864:8
	ldr	r1, [r0, #12]
.Ltmp658:
	.loc	7 2864 8 is_stmt 0      @ ../Drivers/STM32F1xx_HAL_Driver/Src/stm32f1xx_hal_tim.c:2864:8
	tst.w	r1, #1
	beq	.LBB64_27
.Ltmp659:
@ %bb.26:
	@DEBUG_VALUE: HAL_TIM_IRQHandler:htim <- $r4
	.loc	7 2866 7 is_stmt 1      @ ../Drivers/STM32F1xx_HAL_Driver/Src/stm32f1xx_hal_tim.c:2866:7
	mvn	r1, #1
	str	r1, [r0, #16]
	.loc	7 2867 7                @ ../Drivers/STM32F1xx_HAL_Driver/Src/stm32f1xx_hal_tim.c:2867:7
	mov	r0, r4
	bl	HAL_TIM_PeriodElapsedCallback
.Ltmp660:
.LBB64_27:
	@DEBUG_VALUE: HAL_TIM_IRQHandler:htim <- $r4
	.loc	7 2871 6                @ ../Drivers/STM32F1xx_HAL_Driver/Src/stm32f1xx_hal_tim.c:2871:6
	ldr	r0, [r4]
	ldr	r1, [r0, #16]
.Ltmp661:
	.loc	7 2871 6 is_stmt 0      @ ../Drivers/STM32F1xx_HAL_Driver/Src/stm32f1xx_hal_tim.c:2871:6
	tst.w	r1, #128
	beq	.LBB64_30
.Ltmp662:
@ %bb.28:
	@DEBUG_VALUE: HAL_TIM_IRQHandler:htim <- $r4
	.loc	7 2873 8 is_stmt 1      @ ../Drivers/STM32F1xx_HAL_Driver/Src/stm32f1xx_hal_tim.c:2873:8
	ldr	r1, [r0, #12]
.Ltmp663:
	.loc	7 2873 8 is_stmt 0      @ ../Drivers/STM32F1xx_HAL_Driver/Src/stm32f1xx_hal_tim.c:2873:8
	tst.w	r1, #128
	beq	.LBB64_30
.Ltmp664:
@ %bb.29:
	@DEBUG_VALUE: HAL_TIM_IRQHandler:htim <- $r4
	.loc	7 2875 7 is_stmt 1      @ ../Drivers/STM32F1xx_HAL_Driver/Src/stm32f1xx_hal_tim.c:2875:7
	mvn	r1, #128
	str	r1, [r0, #16]
	.loc	7 2876 7                @ ../Drivers/STM32F1xx_HAL_Driver/Src/stm32f1xx_hal_tim.c:2876:7
	mov	r0, r4
	bl	HAL_TIMEx_BreakCallback
.Ltmp665:
.LBB64_30:
	@DEBUG_VALUE: HAL_TIM_IRQHandler:htim <- $r4
	.loc	7 2880 6                @ ../Drivers/STM32F1xx_HAL_Driver/Src/stm32f1xx_hal_tim.c:2880:6
	ldr	r0, [r4]
	ldr	r1, [r0, #16]
.Ltmp666:
	.loc	7 2880 6 is_stmt 0      @ ../Drivers/STM32F1xx_HAL_Driver/Src/stm32f1xx_hal_tim.c:2880:6
	tst.w	r1, #64
	beq	.LBB64_33
.Ltmp667:
@ %bb.31:
	@DEBUG_VALUE: HAL_TIM_IRQHandler:htim <- $r4
	.loc	7 2882 8 is_stmt 1      @ ../Drivers/STM32F1xx_HAL_Driver/Src/stm32f1xx_hal_tim.c:2882:8
	ldr	r1, [r0, #12]
.Ltmp668:
	.loc	7 2882 8 is_stmt 0      @ ../Drivers/STM32F1xx_HAL_Driver/Src/stm32f1xx_hal_tim.c:2882:8
	tst.w	r1, #64
	beq	.LBB64_33
.Ltmp669:
@ %bb.32:
	@DEBUG_VALUE: HAL_TIM_IRQHandler:htim <- $r4
	.loc	7 2884 7 is_stmt 1      @ ../Drivers/STM32F1xx_HAL_Driver/Src/stm32f1xx_hal_tim.c:2884:7
	mvn	r1, #64
	str	r1, [r0, #16]
	.loc	7 2885 7                @ ../Drivers/STM32F1xx_HAL_Driver/Src/stm32f1xx_hal_tim.c:2885:7
	mov	r0, r4
	bl	HAL_TIM_TriggerCallback
.Ltmp670:
.LBB64_33:
	@DEBUG_VALUE: HAL_TIM_IRQHandler:htim <- $r4
	.loc	7 2889 6                @ ../Drivers/STM32F1xx_HAL_Driver/Src/stm32f1xx_hal_tim.c:2889:6
	ldr	r0, [r4]
	ldr	r1, [r0, #16]
.Ltmp671:
	.loc	7 2889 6 is_stmt 0      @ ../Drivers/STM32F1xx_HAL_Driver/Src/stm32f1xx_hal_tim.c:2889:6
	tst.w	r1, #32
	.loc	7 2897 1 is_stmt 1      @ ../Drivers/STM32F1xx_HAL_Driver/Src/stm32f1xx_hal_tim.c:2897:1
	it	eq
	popeq	{r4, pc}
.Ltmp672:
	.loc	7 2891 8                @ ../Drivers/STM32F1xx_HAL_Driver/Src/stm32f1xx_hal_tim.c:2891:8
	ldr	r1, [r0, #12]
.Ltmp673:
	.loc	7 2891 8 is_stmt 0      @ ../Drivers/STM32F1xx_HAL_Driver/Src/stm32f1xx_hal_tim.c:2891:8
	tst.w	r1, #32
	bne	.LBB64_35
.Ltmp674:
@ %bb.34:
	.loc	7 2897 1 is_stmt 1      @ ../Drivers/STM32F1xx_HAL_Driver/Src/stm32f1xx_hal_tim.c:2897:1
	pop	{r4, pc}
.LBB64_35:
.Ltmp675:
	.loc	7 2893 7                @ ../Drivers/STM32F1xx_HAL_Driver/Src/stm32f1xx_hal_tim.c:2893:7
	mvn	r1, #32
	str	r1, [r0, #16]
	.loc	7 2894 7                @ ../Drivers/STM32F1xx_HAL_Driver/Src/stm32f1xx_hal_tim.c:2894:7
	mov	r0, r4
	pop.w	{r4, lr}
	b	HAL_TIMEx_CommutationCallback
.Ltmp676:
.Lfunc_end64:
	.size	HAL_TIM_IRQHandler, .Lfunc_end64-HAL_TIM_IRQHandler
	.cfi_endproc
	.cantunwind
	.fnend
                                        @ -- End function
	.section	.text.HAL_TIM_IC_CaptureCallback,"ax",%progbits
	.hidden	HAL_TIM_IC_CaptureCallback @ -- Begin function HAL_TIM_IC_CaptureCallback
	.weak	HAL_TIM_IC_CaptureCallback
	.p2align	2
	.type	HAL_TIM_IC_CaptureCallback,%function
	.code	16                      @ @HAL_TIM_IC_CaptureCallback
	.thumb_func
HAL_TIM_IC_CaptureCallback:
.Lfunc_begin65:
	.loc	7 4315 0                @ ../Drivers/STM32F1xx_HAL_Driver/Src/stm32f1xx_hal_tim.c:4315:0
	.fnstart
	.cfi_startproc
@ %bb.0:
	@DEBUG_VALUE: HAL_TIM_IC_CaptureCallback:htim <- $r0
	.loc	7 4321 1 prologue_end   @ ../Drivers/STM32F1xx_HAL_Driver/Src/stm32f1xx_hal_tim.c:4321:1
	bx	lr
.Ltmp677:
.Lfunc_end65:
	.size	HAL_TIM_IC_CaptureCallback, .Lfunc_end65-HAL_TIM_IC_CaptureCallback
	.cfi_endproc
	.cantunwind
	.fnend
                                        @ -- End function
	.section	.text.HAL_TIM_OC_DelayElapsedCallback,"ax",%progbits
	.hidden	HAL_TIM_OC_DelayElapsedCallback @ -- Begin function HAL_TIM_OC_DelayElapsedCallback
	.weak	HAL_TIM_OC_DelayElapsedCallback
	.p2align	2
	.type	HAL_TIM_OC_DelayElapsedCallback,%function
	.code	16                      @ @HAL_TIM_OC_DelayElapsedCallback
	.thumb_func
HAL_TIM_OC_DelayElapsedCallback:
.Lfunc_begin66:
	.loc	7 4302 0                @ ../Drivers/STM32F1xx_HAL_Driver/Src/stm32f1xx_hal_tim.c:4302:0
	.fnstart
	.cfi_startproc
@ %bb.0:
	@DEBUG_VALUE: HAL_TIM_OC_DelayElapsedCallback:htim <- $r0
	.loc	7 4308 1 prologue_end   @ ../Drivers/STM32F1xx_HAL_Driver/Src/stm32f1xx_hal_tim.c:4308:1
	bx	lr
.Ltmp678:
.Lfunc_end66:
	.size	HAL_TIM_OC_DelayElapsedCallback, .Lfunc_end66-HAL_TIM_OC_DelayElapsedCallback
	.cfi_endproc
	.cantunwind
	.fnend
                                        @ -- End function
	.section	.text.HAL_TIM_PWM_PulseFinishedCallback,"ax",%progbits
	.hidden	HAL_TIM_PWM_PulseFinishedCallback @ -- Begin function HAL_TIM_PWM_PulseFinishedCallback
	.weak	HAL_TIM_PWM_PulseFinishedCallback
	.p2align	2
	.type	HAL_TIM_PWM_PulseFinishedCallback,%function
	.code	16                      @ @HAL_TIM_PWM_PulseFinishedCallback
	.thumb_func
HAL_TIM_PWM_PulseFinishedCallback:
.Lfunc_begin67:
	.loc	7 4329 0                @ ../Drivers/STM32F1xx_HAL_Driver/Src/stm32f1xx_hal_tim.c:4329:0
	.fnstart
	.cfi_startproc
@ %bb.0:
	@DEBUG_VALUE: HAL_TIM_PWM_PulseFinishedCallback:htim <- $r0
	.loc	7 4335 1 prologue_end   @ ../Drivers/STM32F1xx_HAL_Driver/Src/stm32f1xx_hal_tim.c:4335:1
	bx	lr
.Ltmp679:
.Lfunc_end67:
	.size	HAL_TIM_PWM_PulseFinishedCallback, .Lfunc_end67-HAL_TIM_PWM_PulseFinishedCallback
	.cfi_endproc
	.cantunwind
	.fnend
                                        @ -- End function
	.section	.text.HAL_TIM_PeriodElapsedCallback,"ax",%progbits
	.hidden	HAL_TIM_PeriodElapsedCallback @ -- Begin function HAL_TIM_PeriodElapsedCallback
	.weak	HAL_TIM_PeriodElapsedCallback
	.p2align	2
	.type	HAL_TIM_PeriodElapsedCallback,%function
	.code	16                      @ @HAL_TIM_PeriodElapsedCallback
	.thumb_func
HAL_TIM_PeriodElapsedCallback:
.Lfunc_begin68:
	.loc	7 4288 0                @ ../Drivers/STM32F1xx_HAL_Driver/Src/stm32f1xx_hal_tim.c:4288:0
	.fnstart
	.cfi_startproc
@ %bb.0:
	@DEBUG_VALUE: HAL_TIM_PeriodElapsedCallback:htim <- $r0
	.loc	7 4295 1 prologue_end   @ ../Drivers/STM32F1xx_HAL_Driver/Src/stm32f1xx_hal_tim.c:4295:1
	bx	lr
.Ltmp680:
.Lfunc_end68:
	.size	HAL_TIM_PeriodElapsedCallback, .Lfunc_end68-HAL_TIM_PeriodElapsedCallback
	.cfi_endproc
	.cantunwind
	.fnend
                                        @ -- End function
	.section	.text.HAL_TIM_TriggerCallback,"ax",%progbits
	.hidden	HAL_TIM_TriggerCallback @ -- Begin function HAL_TIM_TriggerCallback
	.weak	HAL_TIM_TriggerCallback
	.p2align	2
	.type	HAL_TIM_TriggerCallback,%function
	.code	16                      @ @HAL_TIM_TriggerCallback
	.thumb_func
HAL_TIM_TriggerCallback:
.Lfunc_begin69:
	.loc	7 4343 0                @ ../Drivers/STM32F1xx_HAL_Driver/Src/stm32f1xx_hal_tim.c:4343:0
	.fnstart
	.cfi_startproc
@ %bb.0:
	@DEBUG_VALUE: HAL_TIM_TriggerCallback:htim <- $r0
	.loc	7 4349 1 prologue_end   @ ../Drivers/STM32F1xx_HAL_Driver/Src/stm32f1xx_hal_tim.c:4349:1
	bx	lr
.Ltmp681:
.Lfunc_end69:
	.size	HAL_TIM_TriggerCallback, .Lfunc_end69-HAL_TIM_TriggerCallback
	.cfi_endproc
	.cantunwind
	.fnend
                                        @ -- End function
	.section	.text.HAL_TIM_OC_ConfigChannel,"ax",%progbits
	.hidden	HAL_TIM_OC_ConfigChannel @ -- Begin function HAL_TIM_OC_ConfigChannel
	.globl	HAL_TIM_OC_ConfigChannel
	.p2align	2
	.type	HAL_TIM_OC_ConfigChannel,%function
	.code	16                      @ @HAL_TIM_OC_ConfigChannel
	.thumb_func
HAL_TIM_OC_ConfigChannel:
.Lfunc_begin70:
	.loc	7 2936 0                @ ../Drivers/STM32F1xx_HAL_Driver/Src/stm32f1xx_hal_tim.c:2936:0
	.fnstart
	.cfi_startproc
@ %bb.0:
	.save	{r4, r5, r7, lr}
	push	{r4, r5, r7, lr}
	.cfi_def_cfa_offset 16
	.cfi_offset lr, -4
	.cfi_offset r7, -8
	.cfi_offset r5, -12
	.cfi_offset r4, -16
	@DEBUG_VALUE: HAL_TIM_OC_ConfigChannel:htim <- $r0
	@DEBUG_VALUE: HAL_TIM_OC_ConfigChannel:sConfig <- $r1
	@DEBUG_VALUE: HAL_TIM_OC_ConfigChannel:Channel <- $r2
	mov	r4, r0
	@DEBUG_VALUE: HAL_TIM_OC_ConfigChannel:Channel <- $r2
	@DEBUG_VALUE: HAL_TIM_OC_ConfigChannel:sConfig <- $r1
.Ltmp682:
	@DEBUG_VALUE: HAL_TIM_OC_ConfigChannel:htim <- $r4
	.loc	7 2943 3 prologue_end   @ ../Drivers/STM32F1xx_HAL_Driver/Src/stm32f1xx_hal_tim.c:2943:3
	ldr	r3, [r0, #60]
	movs	r0, #2
.Ltmp683:
	.loc	7 2943 3 is_stmt 0      @ ../Drivers/STM32F1xx_HAL_Driver/Src/stm32f1xx_hal_tim.c:2943:3
	cmp	r3, #1
.Ltmp684:
	.loc	7 2989 1 is_stmt 1      @ ../Drivers/STM32F1xx_HAL_Driver/Src/stm32f1xx_hal_tim.c:2989:1
	it	eq
	popeq	{r4, r5, r7, pc}
.Ltmp685:
	.loc	7 2945 15               @ ../Drivers/STM32F1xx_HAL_Driver/Src/stm32f1xx_hal_tim.c:2945:15
	str	r0, [r4, #64]
.Ltmp686:
	.loc	7 2943 3                @ ../Drivers/STM32F1xx_HAL_Driver/Src/stm32f1xx_hal_tim.c:2943:3
	movs	r5, #1
	str	r5, [r4, #60]
.Ltmp687:
	.loc	7 2947 3                @ ../Drivers/STM32F1xx_HAL_Driver/Src/stm32f1xx_hal_tim.c:2947:3
	ror.w	r0, r2, #2
	cmp	r0, #3
	bhi	.LBB70_7
.Ltmp688:
@ %bb.1:
	@DEBUG_VALUE: HAL_TIM_OC_ConfigChannel:Channel <- $r2
	@DEBUG_VALUE: HAL_TIM_OC_ConfigChannel:sConfig <- $r1
	.loc	7 0 3 is_stmt 0         @ ../Drivers/STM32F1xx_HAL_Driver/Src/stm32f1xx_hal_tim.c:0:3
.LCPI70_0:
	tbb	[pc, r0]
.Ltmp689:
@ %bb.2:
.LJTI70_0:
	.byte	(.LBB70_3-(.LCPI70_0+4))/2
	.byte	(.LBB70_4-(.LCPI70_0+4))/2
	.byte	(.LBB70_5-(.LCPI70_0+4))/2
	.byte	(.LBB70_6-(.LCPI70_0+4))/2
	.p2align	1
.LBB70_3:
.Ltmp690:
	@DEBUG_VALUE: HAL_TIM_OC_ConfigChannel:Channel <- $r2
	@DEBUG_VALUE: HAL_TIM_OC_ConfigChannel:sConfig <- $r1
	.loc	7 2953 31 is_stmt 1     @ ../Drivers/STM32F1xx_HAL_Driver/Src/stm32f1xx_hal_tim.c:2953:31
	ldr	r0, [r4]
	.loc	7 2953 7 is_stmt 0      @ ../Drivers/STM32F1xx_HAL_Driver/Src/stm32f1xx_hal_tim.c:2953:7
	bl	TIM_OC1_SetConfig
.Ltmp691:
	.loc	7 0 7                   @ ../Drivers/STM32F1xx_HAL_Driver/Src/stm32f1xx_hal_tim.c:0:7
	b	.LBB70_7
.Ltmp692:
.LBB70_4:
	@DEBUG_VALUE: HAL_TIM_OC_ConfigChannel:Channel <- $r2
	@DEBUG_VALUE: HAL_TIM_OC_ConfigChannel:sConfig <- $r1
	.loc	7 2961 31 is_stmt 1     @ ../Drivers/STM32F1xx_HAL_Driver/Src/stm32f1xx_hal_tim.c:2961:31
	ldr	r0, [r4]
	.loc	7 2961 7 is_stmt 0      @ ../Drivers/STM32F1xx_HAL_Driver/Src/stm32f1xx_hal_tim.c:2961:7
	bl	TIM_OC2_SetConfig
.Ltmp693:
	.loc	7 0 7                   @ ../Drivers/STM32F1xx_HAL_Driver/Src/stm32f1xx_hal_tim.c:0:7
	b	.LBB70_7
.Ltmp694:
.LBB70_5:
	@DEBUG_VALUE: HAL_TIM_OC_ConfigChannel:Channel <- $r2
	@DEBUG_VALUE: HAL_TIM_OC_ConfigChannel:sConfig <- $r1
	.loc	7 2969 31 is_stmt 1     @ ../Drivers/STM32F1xx_HAL_Driver/Src/stm32f1xx_hal_tim.c:2969:31
	ldr	r0, [r4]
	.loc	7 2969 7 is_stmt 0      @ ../Drivers/STM32F1xx_HAL_Driver/Src/stm32f1xx_hal_tim.c:2969:7
	bl	TIM_OC3_SetConfig
.Ltmp695:
	.loc	7 0 7                   @ ../Drivers/STM32F1xx_HAL_Driver/Src/stm32f1xx_hal_tim.c:0:7
	b	.LBB70_7
.Ltmp696:
.LBB70_6:
	@DEBUG_VALUE: HAL_TIM_OC_ConfigChannel:Channel <- $r2
	@DEBUG_VALUE: HAL_TIM_OC_ConfigChannel:sConfig <- $r1
	.loc	7 2977 32 is_stmt 1     @ ../Drivers/STM32F1xx_HAL_Driver/Src/stm32f1xx_hal_tim.c:2977:32
	ldr	r0, [r4]
	.loc	7 2977 8 is_stmt 0      @ ../Drivers/STM32F1xx_HAL_Driver/Src/stm32f1xx_hal_tim.c:2977:8
	bl	TIM_OC4_SetConfig
.Ltmp697:
.LBB70_7:
	.loc	7 0 8                   @ ../Drivers/STM32F1xx_HAL_Driver/Src/stm32f1xx_hal_tim.c:0:8
	movs	r0, #0
.Ltmp698:
	.loc	7 2986 3 is_stmt 1      @ ../Drivers/STM32F1xx_HAL_Driver/Src/stm32f1xx_hal_tim.c:2986:3
	str	r0, [r4, #60]
.Ltmp699:
	.loc	7 2984 15               @ ../Drivers/STM32F1xx_HAL_Driver/Src/stm32f1xx_hal_tim.c:2984:15
	str	r5, [r4, #64]
	.loc	7 2989 1                @ ../Drivers/STM32F1xx_HAL_Driver/Src/stm32f1xx_hal_tim.c:2989:1
	pop	{r4, r5, r7, pc}
.Ltmp700:
.Lfunc_end70:
	.size	HAL_TIM_OC_ConfigChannel, .Lfunc_end70-HAL_TIM_OC_ConfigChannel
	.cfi_endproc
	.cantunwind
	.fnend
                                        @ -- End function
	.section	.text.TIM_OC1_SetConfig,"ax",%progbits
	.p2align	2               @ -- Begin function TIM_OC1_SetConfig
	.type	TIM_OC1_SetConfig,%function
	.code	16                      @ @TIM_OC1_SetConfig
	.thumb_func
TIM_OC1_SetConfig:
.Lfunc_begin71:
	.loc	7 4619 0                @ ../Drivers/STM32F1xx_HAL_Driver/Src/stm32f1xx_hal_tim.c:4619:0
	.fnstart
	.cfi_startproc
@ %bb.0:
	.save	{r4, r5, r6, lr}
	push	{r4, r5, r6, lr}
	.cfi_def_cfa_offset 16
	.cfi_offset lr, -4
	.cfi_offset r6, -8
	.cfi_offset r5, -12
	.cfi_offset r4, -16
	@DEBUG_VALUE: TIM_OC1_SetConfig:TIMx <- $r0
	@DEBUG_VALUE: TIM_OC1_SetConfig:TIMx <- $r0
	@DEBUG_VALUE: TIM_OC1_SetConfig:OC_Config <- $r1
	@DEBUG_VALUE: TIM_OC1_SetConfig:OC_Config <- $r1
.Ltmp701:
	@DEBUG_VALUE: TIM_OC1_SetConfig:tmpccmrx <- 0
	@DEBUG_VALUE: TIM_OC1_SetConfig:tmpccer <- 0
	@DEBUG_VALUE: TIM_OC1_SetConfig:tmpcr2 <- 0
	.loc	7 4625 14 prologue_end  @ ../Drivers/STM32F1xx_HAL_Driver/Src/stm32f1xx_hal_tim.c:4625:14
	ldr	r2, [r0, #32]
	bic	r2, r2, #1
	str	r2, [r0, #32]
	.loc	7 4628 19               @ ../Drivers/STM32F1xx_HAL_Driver/Src/stm32f1xx_hal_tim.c:4628:19
	ldr	r2, [r0, #32]
.Ltmp702:
	@DEBUG_VALUE: TIM_OC1_SetConfig:tmpccer <- $r2
	.loc	7 4630 19               @ ../Drivers/STM32F1xx_HAL_Driver/Src/stm32f1xx_hal_tim.c:4630:19
	ldr.w	lr, [r0, #4]
.Ltmp703:
	@DEBUG_VALUE: TIM_OC1_SetConfig:tmpcr2 <- $lr
	.loc	7 4633 20               @ ../Drivers/STM32F1xx_HAL_Driver/Src/stm32f1xx_hal_tim.c:4633:20
	ldr.w	r12, [r0, #24]
.Ltmp704:
	@DEBUG_VALUE: TIM_OC1_SetConfig:tmpccmrx <- $r12
	.loc	7 4642 11               @ ../Drivers/STM32F1xx_HAL_Driver/Src/stm32f1xx_hal_tim.c:4642:11
	bic	r2, r2, #2
.Ltmp705:
	@DEBUG_VALUE: TIM_OC1_SetConfig:tmpccer <- $r2
	.loc	7 4639 26               @ ../Drivers/STM32F1xx_HAL_Driver/Src/stm32f1xx_hal_tim.c:4639:26
	ldr	r3, [r1]
	.loc	7 4644 25               @ ../Drivers/STM32F1xx_HAL_Driver/Src/stm32f1xx_hal_tim.c:4644:25
	ldr	r4, [r1, #8]
	.loc	7 4644 11 is_stmt 0     @ ../Drivers/STM32F1xx_HAL_Driver/Src/stm32f1xx_hal_tim.c:4644:11
	orrs	r2, r4
.Ltmp706:
	@DEBUG_VALUE: TIM_OC1_SetConfig:tmpccer <- $r2
	.loc	7 4637 12 is_stmt 1     @ ../Drivers/STM32F1xx_HAL_Driver/Src/stm32f1xx_hal_tim.c:4637:12
	bic	r4, r12, #115
.Ltmp707:
	@DEBUG_VALUE: TIM_OC1_SetConfig:tmpccmrx <- $r4
	.loc	7 4639 12               @ ../Drivers/STM32F1xx_HAL_Driver/Src/stm32f1xx_hal_tim.c:4639:12
	orr.w	r12, r4, r3
.Ltmp708:
	@DEBUG_VALUE: TIM_OC1_SetConfig:tmpccmrx <- $r12
	.loc	7 4646 6                @ ../Drivers/STM32F1xx_HAL_Driver/Src/stm32f1xx_hal_tim.c:4646:6
	movw	r3, #11264
	movt	r3, #16385
.Ltmp709:
	.loc	7 4646 6 is_stmt 0      @ ../Drivers/STM32F1xx_HAL_Driver/Src/stm32f1xx_hal_tim.c:4646:6
	cmp	r0, r3
	bne	.LBB71_2
.Ltmp710:
@ %bb.1:
	@DEBUG_VALUE: TIM_OC1_SetConfig:tmpccmrx <- $r12
	@DEBUG_VALUE: TIM_OC1_SetConfig:tmpcr2 <- $lr
	@DEBUG_VALUE: TIM_OC1_SetConfig:tmpccer <- $r2
	@DEBUG_VALUE: TIM_OC1_SetConfig:OC_Config <- $r1
	@DEBUG_VALUE: TIM_OC1_SetConfig:TIMx <- $r0
	.loc	7 4667 12 is_stmt 1     @ ../Drivers/STM32F1xx_HAL_Driver/Src/stm32f1xx_hal_tim.c:4667:12
	bic	r3, lr, #768
.Ltmp711:
	@DEBUG_VALUE: TIM_OC1_SetConfig:tmpcr2 <- $r3
	.loc	7 4654 27               @ ../Drivers/STM32F1xx_HAL_Driver/Src/stm32f1xx_hal_tim.c:4654:27
	ldr	r6, [r1, #12]
.Ltmp712:
	.loc	7 4669 26               @ ../Drivers/STM32F1xx_HAL_Driver/Src/stm32f1xx_hal_tim.c:4669:26
	ldrd	r4, r5, [r1, #20]
	.loc	7 4669 12 is_stmt 0     @ ../Drivers/STM32F1xx_HAL_Driver/Src/stm32f1xx_hal_tim.c:4669:12
	orrs	r3, r4
.Ltmp713:
	@DEBUG_VALUE: TIM_OC1_SetConfig:tmpcr2 <- $r3
	.loc	7 4671 12 is_stmt 1     @ ../Drivers/STM32F1xx_HAL_Driver/Src/stm32f1xx_hal_tim.c:4671:12
	orr.w	lr, r3, r5
.Ltmp714:
	@DEBUG_VALUE: TIM_OC1_SetConfig:tmpcr2 <- $lr
	.loc	7 4652 13               @ ../Drivers/STM32F1xx_HAL_Driver/Src/stm32f1xx_hal_tim.c:4652:13
	bic	r2, r2, #12
.Ltmp715:
	@DEBUG_VALUE: TIM_OC1_SetConfig:tmpccer <- $r2
	.loc	7 4656 13               @ ../Drivers/STM32F1xx_HAL_Driver/Src/stm32f1xx_hal_tim.c:4656:13
	bic	r3, r6, #4
	orrs	r2, r3
.Ltmp716:
	@DEBUG_VALUE: TIM_OC1_SetConfig:tmpccer <- $r2
.LBB71_2:
	@DEBUG_VALUE: TIM_OC1_SetConfig:tmpccmrx <- $r12
	@DEBUG_VALUE: TIM_OC1_SetConfig:tmpcr2 <- $lr
	@DEBUG_VALUE: TIM_OC1_SetConfig:tmpccer <- $r2
	@DEBUG_VALUE: TIM_OC1_SetConfig:OC_Config <- $r1
	@DEBUG_VALUE: TIM_OC1_SetConfig:TIMx <- $r0
	@DEBUG_VALUE: TIM_OC1_SetConfig:tmpcr2 <- $lr
	.loc	7 4674 13               @ ../Drivers/STM32F1xx_HAL_Driver/Src/stm32f1xx_hal_tim.c:4674:13
	str.w	lr, [r0, #4]
	.loc	7 4677 15               @ ../Drivers/STM32F1xx_HAL_Driver/Src/stm32f1xx_hal_tim.c:4677:15
	str.w	r12, [r0, #24]
	.loc	7 4680 27               @ ../Drivers/STM32F1xx_HAL_Driver/Src/stm32f1xx_hal_tim.c:4680:27
	ldr	r1, [r1, #4]
.Ltmp717:
	.loc	7 4680 14 is_stmt 0     @ ../Drivers/STM32F1xx_HAL_Driver/Src/stm32f1xx_hal_tim.c:4680:14
	str	r1, [r0, #52]
	.loc	7 4683 14 is_stmt 1     @ ../Drivers/STM32F1xx_HAL_Driver/Src/stm32f1xx_hal_tim.c:4683:14
	str	r2, [r0, #32]
	.loc	7 4684 1                @ ../Drivers/STM32F1xx_HAL_Driver/Src/stm32f1xx_hal_tim.c:4684:1
	pop	{r4, r5, r6, pc}
.Ltmp718:
.Lfunc_end71:
	.size	TIM_OC1_SetConfig, .Lfunc_end71-TIM_OC1_SetConfig
	.cfi_endproc
	.cantunwind
	.fnend
                                        @ -- End function
	.section	.text.TIM_OC2_SetConfig,"ax",%progbits
	.hidden	TIM_OC2_SetConfig       @ -- Begin function TIM_OC2_SetConfig
	.globl	TIM_OC2_SetConfig
	.p2align	2
	.type	TIM_OC2_SetConfig,%function
	.code	16                      @ @TIM_OC2_SetConfig
	.thumb_func
TIM_OC2_SetConfig:
.Lfunc_begin72:
	.loc	7 4693 0                @ ../Drivers/STM32F1xx_HAL_Driver/Src/stm32f1xx_hal_tim.c:4693:0
	.fnstart
	.cfi_startproc
@ %bb.0:
	.save	{r4, r5, r6, lr}
	push	{r4, r5, r6, lr}
	.cfi_def_cfa_offset 16
	.cfi_offset lr, -4
	.cfi_offset r6, -8
	.cfi_offset r5, -12
	.cfi_offset r4, -16
	@DEBUG_VALUE: TIM_OC2_SetConfig:TIMx <- $r0
	@DEBUG_VALUE: TIM_OC2_SetConfig:TIMx <- $r0
	@DEBUG_VALUE: TIM_OC2_SetConfig:OC_Config <- $r1
	@DEBUG_VALUE: TIM_OC2_SetConfig:OC_Config <- $r1
.Ltmp719:
	@DEBUG_VALUE: TIM_OC2_SetConfig:tmpccmrx <- 0
	@DEBUG_VALUE: TIM_OC2_SetConfig:tmpccer <- 0
	@DEBUG_VALUE: TIM_OC2_SetConfig:tmpcr2 <- 0
	.loc	7 4699 14 prologue_end  @ ../Drivers/STM32F1xx_HAL_Driver/Src/stm32f1xx_hal_tim.c:4699:14
	ldr	r2, [r0, #32]
	bic	r2, r2, #16
	str	r2, [r0, #32]
	.loc	7 4702 19               @ ../Drivers/STM32F1xx_HAL_Driver/Src/stm32f1xx_hal_tim.c:4702:19
	ldr	r2, [r0, #32]
.Ltmp720:
	@DEBUG_VALUE: TIM_OC2_SetConfig:tmpccer <- $r2
	.loc	7 4704 19               @ ../Drivers/STM32F1xx_HAL_Driver/Src/stm32f1xx_hal_tim.c:4704:19
	ldr.w	lr, [r0, #4]
.Ltmp721:
	@DEBUG_VALUE: TIM_OC2_SetConfig:tmpcr2 <- $lr
	.loc	7 4707 20               @ ../Drivers/STM32F1xx_HAL_Driver/Src/stm32f1xx_hal_tim.c:4707:20
	ldr.w	r12, [r0, #24]
.Ltmp722:
	@DEBUG_VALUE: TIM_OC2_SetConfig:tmpccmrx <- $r12
	.loc	7 4717 11               @ ../Drivers/STM32F1xx_HAL_Driver/Src/stm32f1xx_hal_tim.c:4717:11
	bic	r2, r2, #32
.Ltmp723:
	@DEBUG_VALUE: TIM_OC2_SetConfig:tmpccer <- $r2
	.loc	7 4714 27               @ ../Drivers/STM32F1xx_HAL_Driver/Src/stm32f1xx_hal_tim.c:4714:27
	ldr	r3, [r1]
	.loc	7 4719 26               @ ../Drivers/STM32F1xx_HAL_Driver/Src/stm32f1xx_hal_tim.c:4719:26
	ldr	r4, [r1, #8]
	.loc	7 4719 11 is_stmt 0     @ ../Drivers/STM32F1xx_HAL_Driver/Src/stm32f1xx_hal_tim.c:4719:11
	orr.w	r2, r2, r4, lsl #4
.Ltmp724:
	@DEBUG_VALUE: TIM_OC2_SetConfig:tmpccer <- $r2
	.loc	7 4711 12 is_stmt 1     @ ../Drivers/STM32F1xx_HAL_Driver/Src/stm32f1xx_hal_tim.c:4711:12
	bic	r4, r12, #29440
.Ltmp725:
	@DEBUG_VALUE: TIM_OC2_SetConfig:tmpccmrx <- $r4
	.loc	7 4714 12               @ ../Drivers/STM32F1xx_HAL_Driver/Src/stm32f1xx_hal_tim.c:4714:12
	orr.w	r12, r4, r3, lsl #8
.Ltmp726:
	@DEBUG_VALUE: TIM_OC2_SetConfig:tmpccmrx <- $r12
	.loc	7 4721 6                @ ../Drivers/STM32F1xx_HAL_Driver/Src/stm32f1xx_hal_tim.c:4721:6
	movw	r3, #11264
	movt	r3, #16385
.Ltmp727:
	.loc	7 4721 6 is_stmt 0      @ ../Drivers/STM32F1xx_HAL_Driver/Src/stm32f1xx_hal_tim.c:4721:6
	cmp	r0, r3
	bne	.LBB72_2
.Ltmp728:
@ %bb.1:
	@DEBUG_VALUE: TIM_OC2_SetConfig:tmpccmrx <- $r12
	@DEBUG_VALUE: TIM_OC2_SetConfig:tmpcr2 <- $lr
	@DEBUG_VALUE: TIM_OC2_SetConfig:tmpccer <- $r2
	@DEBUG_VALUE: TIM_OC2_SetConfig:OC_Config <- $r1
	@DEBUG_VALUE: TIM_OC2_SetConfig:TIMx <- $r0
	.loc	7 4728 28 is_stmt 1     @ ../Drivers/STM32F1xx_HAL_Driver/Src/stm32f1xx_hal_tim.c:4728:28
	ldr	r6, [r1, #12]
.Ltmp729:
	.loc	7 4744 27               @ ../Drivers/STM32F1xx_HAL_Driver/Src/stm32f1xx_hal_tim.c:4744:27
	ldrd	r4, r5, [r1, #20]
	.loc	7 4742 12               @ ../Drivers/STM32F1xx_HAL_Driver/Src/stm32f1xx_hal_tim.c:4742:12
	bic	r3, lr, #3072
.Ltmp730:
	@DEBUG_VALUE: TIM_OC2_SetConfig:tmpcr2 <- $r3
	.loc	7 4744 12               @ ../Drivers/STM32F1xx_HAL_Driver/Src/stm32f1xx_hal_tim.c:4744:12
	orr.w	r3, r3, r4, lsl #2
.Ltmp731:
	@DEBUG_VALUE: TIM_OC2_SetConfig:tmpcr2 <- $r3
	.loc	7 4746 12               @ ../Drivers/STM32F1xx_HAL_Driver/Src/stm32f1xx_hal_tim.c:4746:12
	orr.w	lr, r3, r5, lsl #2
.Ltmp732:
	@DEBUG_VALUE: TIM_OC2_SetConfig:tmpcr2 <- $lr
	.loc	7 4730 13               @ ../Drivers/STM32F1xx_HAL_Driver/Src/stm32f1xx_hal_tim.c:4730:13
	mvn	r3, #79
	and.w	r3, r3, r6, lsl #4
	.loc	7 4726 13               @ ../Drivers/STM32F1xx_HAL_Driver/Src/stm32f1xx_hal_tim.c:4726:13
	bic	r2, r2, #192
.Ltmp733:
	@DEBUG_VALUE: TIM_OC2_SetConfig:tmpccer <- $r2
	.loc	7 4730 13               @ ../Drivers/STM32F1xx_HAL_Driver/Src/stm32f1xx_hal_tim.c:4730:13
	orrs	r2, r3
.Ltmp734:
	@DEBUG_VALUE: TIM_OC2_SetConfig:tmpccer <- $r2
.LBB72_2:
	@DEBUG_VALUE: TIM_OC2_SetConfig:tmpccmrx <- $r12
	@DEBUG_VALUE: TIM_OC2_SetConfig:tmpcr2 <- $lr
	@DEBUG_VALUE: TIM_OC2_SetConfig:tmpccer <- $r2
	@DEBUG_VALUE: TIM_OC2_SetConfig:OC_Config <- $r1
	@DEBUG_VALUE: TIM_OC2_SetConfig:TIMx <- $r0
	@DEBUG_VALUE: TIM_OC2_SetConfig:tmpcr2 <- $lr
	.loc	7 4750 13               @ ../Drivers/STM32F1xx_HAL_Driver/Src/stm32f1xx_hal_tim.c:4750:13
	str.w	lr, [r0, #4]
	.loc	7 4753 15               @ ../Drivers/STM32F1xx_HAL_Driver/Src/stm32f1xx_hal_tim.c:4753:15
	str.w	r12, [r0, #24]
	.loc	7 4756 27               @ ../Drivers/STM32F1xx_HAL_Driver/Src/stm32f1xx_hal_tim.c:4756:27
	ldr	r1, [r1, #4]
.Ltmp735:
	.loc	7 4756 14 is_stmt 0     @ ../Drivers/STM32F1xx_HAL_Driver/Src/stm32f1xx_hal_tim.c:4756:14
	str	r1, [r0, #56]
	.loc	7 4759 14 is_stmt 1     @ ../Drivers/STM32F1xx_HAL_Driver/Src/stm32f1xx_hal_tim.c:4759:14
	str	r2, [r0, #32]
	.loc	7 4760 1                @ ../Drivers/STM32F1xx_HAL_Driver/Src/stm32f1xx_hal_tim.c:4760:1
	pop	{r4, r5, r6, pc}
.Ltmp736:
.Lfunc_end72:
	.size	TIM_OC2_SetConfig, .Lfunc_end72-TIM_OC2_SetConfig
	.cfi_endproc
	.cantunwind
	.fnend
                                        @ -- End function
	.section	.text.TIM_OC3_SetConfig,"ax",%progbits
	.p2align	2               @ -- Begin function TIM_OC3_SetConfig
	.type	TIM_OC3_SetConfig,%function
	.code	16                      @ @TIM_OC3_SetConfig
	.thumb_func
TIM_OC3_SetConfig:
.Lfunc_begin73:
	.loc	7 4769 0                @ ../Drivers/STM32F1xx_HAL_Driver/Src/stm32f1xx_hal_tim.c:4769:0
	.fnstart
	.cfi_startproc
@ %bb.0:
	.save	{r4, r5, r6, lr}
	push	{r4, r5, r6, lr}
	.cfi_def_cfa_offset 16
	.cfi_offset lr, -4
	.cfi_offset r6, -8
	.cfi_offset r5, -12
	.cfi_offset r4, -16
	@DEBUG_VALUE: TIM_OC3_SetConfig:TIMx <- $r0
	@DEBUG_VALUE: TIM_OC3_SetConfig:TIMx <- $r0
	@DEBUG_VALUE: TIM_OC3_SetConfig:OC_Config <- $r1
	@DEBUG_VALUE: TIM_OC3_SetConfig:OC_Config <- $r1
.Ltmp737:
	@DEBUG_VALUE: TIM_OC3_SetConfig:tmpccmrx <- 0
	@DEBUG_VALUE: TIM_OC3_SetConfig:tmpccer <- 0
	@DEBUG_VALUE: TIM_OC3_SetConfig:tmpcr2 <- 0
	.loc	7 4775 14 prologue_end  @ ../Drivers/STM32F1xx_HAL_Driver/Src/stm32f1xx_hal_tim.c:4775:14
	ldr	r2, [r0, #32]
	bic	r2, r2, #256
	str	r2, [r0, #32]
	.loc	7 4778 19               @ ../Drivers/STM32F1xx_HAL_Driver/Src/stm32f1xx_hal_tim.c:4778:19
	ldr	r2, [r0, #32]
.Ltmp738:
	@DEBUG_VALUE: TIM_OC3_SetConfig:tmpccer <- $r2
	.loc	7 4780 19               @ ../Drivers/STM32F1xx_HAL_Driver/Src/stm32f1xx_hal_tim.c:4780:19
	ldr.w	lr, [r0, #4]
.Ltmp739:
	@DEBUG_VALUE: TIM_OC3_SetConfig:tmpcr2 <- $lr
	.loc	7 4783 20               @ ../Drivers/STM32F1xx_HAL_Driver/Src/stm32f1xx_hal_tim.c:4783:20
	ldr.w	r12, [r0, #28]
.Ltmp740:
	@DEBUG_VALUE: TIM_OC3_SetConfig:tmpccmrx <- $r12
	.loc	7 4792 11               @ ../Drivers/STM32F1xx_HAL_Driver/Src/stm32f1xx_hal_tim.c:4792:11
	bic	r2, r2, #512
.Ltmp741:
	@DEBUG_VALUE: TIM_OC3_SetConfig:tmpccer <- $r2
	.loc	7 4789 26               @ ../Drivers/STM32F1xx_HAL_Driver/Src/stm32f1xx_hal_tim.c:4789:26
	ldr	r3, [r1]
	.loc	7 4794 26               @ ../Drivers/STM32F1xx_HAL_Driver/Src/stm32f1xx_hal_tim.c:4794:26
	ldr	r4, [r1, #8]
	.loc	7 4794 11 is_stmt 0     @ ../Drivers/STM32F1xx_HAL_Driver/Src/stm32f1xx_hal_tim.c:4794:11
	orr.w	r2, r2, r4, lsl #8
.Ltmp742:
	@DEBUG_VALUE: TIM_OC3_SetConfig:tmpccer <- $r2
	.loc	7 4787 12 is_stmt 1     @ ../Drivers/STM32F1xx_HAL_Driver/Src/stm32f1xx_hal_tim.c:4787:12
	bic	r4, r12, #115
.Ltmp743:
	@DEBUG_VALUE: TIM_OC3_SetConfig:tmpccmrx <- $r4
	.loc	7 4789 12               @ ../Drivers/STM32F1xx_HAL_Driver/Src/stm32f1xx_hal_tim.c:4789:12
	orr.w	r12, r4, r3
.Ltmp744:
	@DEBUG_VALUE: TIM_OC3_SetConfig:tmpccmrx <- $r12
	.loc	7 4796 6                @ ../Drivers/STM32F1xx_HAL_Driver/Src/stm32f1xx_hal_tim.c:4796:6
	movw	r3, #11264
	movt	r3, #16385
.Ltmp745:
	.loc	7 4796 6 is_stmt 0      @ ../Drivers/STM32F1xx_HAL_Driver/Src/stm32f1xx_hal_tim.c:4796:6
	cmp	r0, r3
	bne	.LBB73_2
.Ltmp746:
@ %bb.1:
	@DEBUG_VALUE: TIM_OC3_SetConfig:tmpccmrx <- $r12
	@DEBUG_VALUE: TIM_OC3_SetConfig:tmpcr2 <- $lr
	@DEBUG_VALUE: TIM_OC3_SetConfig:tmpccer <- $r2
	@DEBUG_VALUE: TIM_OC3_SetConfig:OC_Config <- $r1
	@DEBUG_VALUE: TIM_OC3_SetConfig:TIMx <- $r0
	.loc	7 4803 28 is_stmt 1     @ ../Drivers/STM32F1xx_HAL_Driver/Src/stm32f1xx_hal_tim.c:4803:28
	ldr	r6, [r1, #12]
.Ltmp747:
	.loc	7 4818 27               @ ../Drivers/STM32F1xx_HAL_Driver/Src/stm32f1xx_hal_tim.c:4818:27
	ldrd	r4, r5, [r1, #20]
	.loc	7 4816 12               @ ../Drivers/STM32F1xx_HAL_Driver/Src/stm32f1xx_hal_tim.c:4816:12
	bic	r3, lr, #12288
.Ltmp748:
	@DEBUG_VALUE: TIM_OC3_SetConfig:tmpcr2 <- $r3
	.loc	7 4818 12               @ ../Drivers/STM32F1xx_HAL_Driver/Src/stm32f1xx_hal_tim.c:4818:12
	orr.w	r3, r3, r4, lsl #4
.Ltmp749:
	@DEBUG_VALUE: TIM_OC3_SetConfig:tmpcr2 <- $r3
	.loc	7 4820 12               @ ../Drivers/STM32F1xx_HAL_Driver/Src/stm32f1xx_hal_tim.c:4820:12
	orr.w	lr, r3, r5, lsl #4
.Ltmp750:
	@DEBUG_VALUE: TIM_OC3_SetConfig:tmpcr2 <- $lr
	.loc	7 4803 40               @ ../Drivers/STM32F1xx_HAL_Driver/Src/stm32f1xx_hal_tim.c:4803:40
	lsls	r3, r6, #8
	.loc	7 4805 13               @ ../Drivers/STM32F1xx_HAL_Driver/Src/stm32f1xx_hal_tim.c:4805:13
	movw	r4, #1279
	bics	r3, r4
	.loc	7 4801 13               @ ../Drivers/STM32F1xx_HAL_Driver/Src/stm32f1xx_hal_tim.c:4801:13
	bic	r2, r2, #3072
.Ltmp751:
	@DEBUG_VALUE: TIM_OC3_SetConfig:tmpccer <- $r2
	.loc	7 4805 13               @ ../Drivers/STM32F1xx_HAL_Driver/Src/stm32f1xx_hal_tim.c:4805:13
	orrs	r2, r3
.Ltmp752:
	@DEBUG_VALUE: TIM_OC3_SetConfig:tmpccer <- $r2
.LBB73_2:
	@DEBUG_VALUE: TIM_OC3_SetConfig:tmpccmrx <- $r12
	@DEBUG_VALUE: TIM_OC3_SetConfig:tmpcr2 <- $lr
	@DEBUG_VALUE: TIM_OC3_SetConfig:tmpccer <- $r2
	@DEBUG_VALUE: TIM_OC3_SetConfig:OC_Config <- $r1
	@DEBUG_VALUE: TIM_OC3_SetConfig:TIMx <- $r0
	@DEBUG_VALUE: TIM_OC3_SetConfig:tmpcr2 <- $lr
	.loc	7 4824 13               @ ../Drivers/STM32F1xx_HAL_Driver/Src/stm32f1xx_hal_tim.c:4824:13
	str.w	lr, [r0, #4]
	.loc	7 4827 15               @ ../Drivers/STM32F1xx_HAL_Driver/Src/stm32f1xx_hal_tim.c:4827:15
	str.w	r12, [r0, #28]
	.loc	7 4830 27               @ ../Drivers/STM32F1xx_HAL_Driver/Src/stm32f1xx_hal_tim.c:4830:27
	ldr	r1, [r1, #4]
.Ltmp753:
	.loc	7 4830 14 is_stmt 0     @ ../Drivers/STM32F1xx_HAL_Driver/Src/stm32f1xx_hal_tim.c:4830:14
	str	r1, [r0, #60]
	.loc	7 4833 14 is_stmt 1     @ ../Drivers/STM32F1xx_HAL_Driver/Src/stm32f1xx_hal_tim.c:4833:14
	str	r2, [r0, #32]
	.loc	7 4834 1                @ ../Drivers/STM32F1xx_HAL_Driver/Src/stm32f1xx_hal_tim.c:4834:1
	pop	{r4, r5, r6, pc}
.Ltmp754:
.Lfunc_end73:
	.size	TIM_OC3_SetConfig, .Lfunc_end73-TIM_OC3_SetConfig
	.cfi_endproc
	.cantunwind
	.fnend
                                        @ -- End function
	.section	.text.TIM_OC4_SetConfig,"ax",%progbits
	.p2align	2               @ -- Begin function TIM_OC4_SetConfig
	.type	TIM_OC4_SetConfig,%function
	.code	16                      @ @TIM_OC4_SetConfig
	.thumb_func
TIM_OC4_SetConfig:
.Lfunc_begin74:
	.loc	7 4843 0                @ ../Drivers/STM32F1xx_HAL_Driver/Src/stm32f1xx_hal_tim.c:4843:0
	.fnstart
	.cfi_startproc
@ %bb.0:
	.save	{r4, r5, r7, lr}
	push	{r4, r5, r7, lr}
	.cfi_def_cfa_offset 16
	.cfi_offset lr, -4
	.cfi_offset r7, -8
	.cfi_offset r5, -12
	.cfi_offset r4, -16
	@DEBUG_VALUE: TIM_OC4_SetConfig:TIMx <- $r0
	@DEBUG_VALUE: TIM_OC4_SetConfig:TIMx <- $r0
	@DEBUG_VALUE: TIM_OC4_SetConfig:OC_Config <- $r1
	@DEBUG_VALUE: TIM_OC4_SetConfig:OC_Config <- $r1
.Ltmp755:
	@DEBUG_VALUE: TIM_OC4_SetConfig:tmpccmrx <- 0
	@DEBUG_VALUE: TIM_OC4_SetConfig:tmpccer <- 0
	@DEBUG_VALUE: TIM_OC4_SetConfig:tmpcr2 <- 0
	.loc	7 4849 14 prologue_end  @ ../Drivers/STM32F1xx_HAL_Driver/Src/stm32f1xx_hal_tim.c:4849:14
	ldr	r2, [r0, #32]
	bic	r2, r2, #4096
	str	r2, [r0, #32]
	.loc	7 4852 19               @ ../Drivers/STM32F1xx_HAL_Driver/Src/stm32f1xx_hal_tim.c:4852:19
	ldr	r2, [r0, #32]
.Ltmp756:
	@DEBUG_VALUE: TIM_OC4_SetConfig:tmpccer <- $r2
	.loc	7 4854 19               @ ../Drivers/STM32F1xx_HAL_Driver/Src/stm32f1xx_hal_tim.c:4854:19
	ldr.w	lr, [r0, #4]
.Ltmp757:
	@DEBUG_VALUE: TIM_OC4_SetConfig:tmpcr2 <- $lr
	.loc	7 4857 20               @ ../Drivers/STM32F1xx_HAL_Driver/Src/stm32f1xx_hal_tim.c:4857:20
	ldr	r5, [r0, #28]
.Ltmp758:
	@DEBUG_VALUE: TIM_OC4_SetConfig:tmpccmrx <- $r5
	.loc	7 4867 11               @ ../Drivers/STM32F1xx_HAL_Driver/Src/stm32f1xx_hal_tim.c:4867:11
	bic	r2, r2, #8192
.Ltmp759:
	@DEBUG_VALUE: TIM_OC4_SetConfig:tmpccer <- $r2
	.loc	7 4864 27               @ ../Drivers/STM32F1xx_HAL_Driver/Src/stm32f1xx_hal_tim.c:4864:27
	ldr	r4, [r1]
	.loc	7 4869 26               @ ../Drivers/STM32F1xx_HAL_Driver/Src/stm32f1xx_hal_tim.c:4869:26
	ldr	r3, [r1, #8]
	.loc	7 4869 11 is_stmt 0     @ ../Drivers/STM32F1xx_HAL_Driver/Src/stm32f1xx_hal_tim.c:4869:11
	orr.w	r12, r2, r3, lsl #12
.Ltmp760:
	@DEBUG_VALUE: TIM_OC4_SetConfig:tmpccer <- $r12
	.loc	7 4861 12 is_stmt 1     @ ../Drivers/STM32F1xx_HAL_Driver/Src/stm32f1xx_hal_tim.c:4861:12
	bic	r2, r5, #29440
.Ltmp761:
	@DEBUG_VALUE: TIM_OC4_SetConfig:tmpccmrx <- $r2
	.loc	7 4864 12               @ ../Drivers/STM32F1xx_HAL_Driver/Src/stm32f1xx_hal_tim.c:4864:12
	orr.w	r2, r2, r4, lsl #8
.Ltmp762:
	@DEBUG_VALUE: TIM_OC4_SetConfig:tmpccmrx <- $r2
	.loc	7 4871 6                @ ../Drivers/STM32F1xx_HAL_Driver/Src/stm32f1xx_hal_tim.c:4871:6
	movw	r3, #11264
	movt	r3, #16385
.Ltmp763:
	.loc	7 4871 6 is_stmt 0      @ ../Drivers/STM32F1xx_HAL_Driver/Src/stm32f1xx_hal_tim.c:4871:6
	cmp	r0, r3
	bne	.LBB74_2
.Ltmp764:
@ %bb.1:
	@DEBUG_VALUE: TIM_OC4_SetConfig:tmpccmrx <- $r2
	@DEBUG_VALUE: TIM_OC4_SetConfig:tmpccer <- $r12
	@DEBUG_VALUE: TIM_OC4_SetConfig:tmpcr2 <- $lr
	@DEBUG_VALUE: TIM_OC4_SetConfig:OC_Config <- $r1
	@DEBUG_VALUE: TIM_OC4_SetConfig:TIMx <- $r0
	.loc	7 4878 27 is_stmt 1     @ ../Drivers/STM32F1xx_HAL_Driver/Src/stm32f1xx_hal_tim.c:4878:27
	ldr	r3, [r1, #20]
	.loc	7 4876 12               @ ../Drivers/STM32F1xx_HAL_Driver/Src/stm32f1xx_hal_tim.c:4876:12
	bic	r5, lr, #16384
.Ltmp765:
	@DEBUG_VALUE: TIM_OC4_SetConfig:tmpcr2 <- $r5
	.loc	7 4878 12               @ ../Drivers/STM32F1xx_HAL_Driver/Src/stm32f1xx_hal_tim.c:4878:12
	orr.w	lr, r5, r3, lsl #6
.Ltmp766:
	@DEBUG_VALUE: TIM_OC4_SetConfig:tmpcr2 <- $lr
.LBB74_2:
	@DEBUG_VALUE: TIM_OC4_SetConfig:tmpccmrx <- $r2
	@DEBUG_VALUE: TIM_OC4_SetConfig:tmpccer <- $r12
	@DEBUG_VALUE: TIM_OC4_SetConfig:tmpcr2 <- $lr
	@DEBUG_VALUE: TIM_OC4_SetConfig:OC_Config <- $r1
	@DEBUG_VALUE: TIM_OC4_SetConfig:TIMx <- $r0
	@DEBUG_VALUE: TIM_OC4_SetConfig:tmpcr2 <- $lr
	.loc	7 4882 13               @ ../Drivers/STM32F1xx_HAL_Driver/Src/stm32f1xx_hal_tim.c:4882:13
	str.w	lr, [r0, #4]
	.loc	7 4885 15               @ ../Drivers/STM32F1xx_HAL_Driver/Src/stm32f1xx_hal_tim.c:4885:15
	str	r2, [r0, #28]
	.loc	7 4888 27               @ ../Drivers/STM32F1xx_HAL_Driver/Src/stm32f1xx_hal_tim.c:4888:27
	ldr	r1, [r1, #4]
.Ltmp767:
	.loc	7 4888 14 is_stmt 0     @ ../Drivers/STM32F1xx_HAL_Driver/Src/stm32f1xx_hal_tim.c:4888:14
	str	r1, [r0, #64]
	.loc	7 4891 14 is_stmt 1     @ ../Drivers/STM32F1xx_HAL_Driver/Src/stm32f1xx_hal_tim.c:4891:14
	str.w	r12, [r0, #32]
	.loc	7 4892 1                @ ../Drivers/STM32F1xx_HAL_Driver/Src/stm32f1xx_hal_tim.c:4892:1
	pop	{r4, r5, r7, pc}
.Ltmp768:
.Lfunc_end74:
	.size	TIM_OC4_SetConfig, .Lfunc_end74-TIM_OC4_SetConfig
	.cfi_endproc
	.cantunwind
	.fnend
                                        @ -- End function
	.section	.text.HAL_TIM_IC_ConfigChannel,"ax",%progbits
	.hidden	HAL_TIM_IC_ConfigChannel @ -- Begin function HAL_TIM_IC_ConfigChannel
	.globl	HAL_TIM_IC_ConfigChannel
	.p2align	2
	.type	HAL_TIM_IC_ConfigChannel,%function
	.code	16                      @ @HAL_TIM_IC_ConfigChannel
	.thumb_func
HAL_TIM_IC_ConfigChannel:
.Lfunc_begin75:
	.loc	7 3005 0                @ ../Drivers/STM32F1xx_HAL_Driver/Src/stm32f1xx_hal_tim.c:3005:0
	.fnstart
	.cfi_startproc
@ %bb.0:
	.save	{r4, r5, r7, lr}
	push	{r4, r5, r7, lr}
	.cfi_def_cfa_offset 16
	.cfi_offset lr, -4
	.cfi_offset r7, -8
	.cfi_offset r5, -12
	.cfi_offset r4, -16
	@DEBUG_VALUE: HAL_TIM_IC_ConfigChannel:htim <- $r0
	@DEBUG_VALUE: HAL_TIM_IC_ConfigChannel:sConfig <- $r1
	@DEBUG_VALUE: HAL_TIM_IC_ConfigChannel:Channel <- $r2
	mov	r5, r1
	mov	r4, r0
	@DEBUG_VALUE: HAL_TIM_IC_ConfigChannel:Channel <- $r2
.Ltmp769:
	@DEBUG_VALUE: HAL_TIM_IC_ConfigChannel:sConfig <- $r5
	@DEBUG_VALUE: HAL_TIM_IC_ConfigChannel:htim <- $r4
	.loc	7 3013 3 prologue_end   @ ../Drivers/STM32F1xx_HAL_Driver/Src/stm32f1xx_hal_tim.c:3013:3
	ldr	r1, [r0, #60]
	movs	r0, #2
.Ltmp770:
	.loc	7 3013 3 is_stmt 0      @ ../Drivers/STM32F1xx_HAL_Driver/Src/stm32f1xx_hal_tim.c:3013:3
	cmp	r1, #1
.Ltmp771:
	.loc	7 3085 1 is_stmt 1      @ ../Drivers/STM32F1xx_HAL_Driver/Src/stm32f1xx_hal_tim.c:3085:1
	it	eq
	popeq	{r4, r5, r7, pc}
.Ltmp772:
	.loc	7 3015 15               @ ../Drivers/STM32F1xx_HAL_Driver/Src/stm32f1xx_hal_tim.c:3015:15
	str	r0, [r4, #64]
.Ltmp773:
	.loc	7 3013 3                @ ../Drivers/STM32F1xx_HAL_Driver/Src/stm32f1xx_hal_tim.c:3013:3
	movs	r0, #1
	str	r0, [r4, #60]
.Ltmp774:
	.loc	7 3017 7                @ ../Drivers/STM32F1xx_HAL_Driver/Src/stm32f1xx_hal_tim.c:3017:7
	cmp	r2, #4
	beq	.LBB75_3
.Ltmp775:
@ %bb.1:
	@DEBUG_VALUE: HAL_TIM_IC_ConfigChannel:Channel <- $r2
	cbnz	r2, .LBB75_4
.Ltmp776:
@ %bb.2:
	@DEBUG_VALUE: HAL_TIM_IC_ConfigChannel:Channel <- $r2
	.loc	7 3021 25               @ ../Drivers/STM32F1xx_HAL_Driver/Src/stm32f1xx_hal_tim.c:3021:25
	ldrd	r1, r2, [r5]
.Ltmp777:
	.loc	7 3023 25               @ ../Drivers/STM32F1xx_HAL_Driver/Src/stm32f1xx_hal_tim.c:3023:25
	ldr	r3, [r5, #12]
	.loc	7 3020 29               @ ../Drivers/STM32F1xx_HAL_Driver/Src/stm32f1xx_hal_tim.c:3020:29
	ldr	r0, [r4]
	.loc	7 3020 5 is_stmt 0      @ ../Drivers/STM32F1xx_HAL_Driver/Src/stm32f1xx_hal_tim.c:3020:5
	bl	TIM_TI1_SetConfig
	.loc	7 3026 11 is_stmt 1     @ ../Drivers/STM32F1xx_HAL_Driver/Src/stm32f1xx_hal_tim.c:3026:11
	ldr	r0, [r4]
	.loc	7 3026 27 is_stmt 0     @ ../Drivers/STM32F1xx_HAL_Driver/Src/stm32f1xx_hal_tim.c:3026:27
	ldr	r1, [r0, #24]!
	b	.LBB75_6
.Ltmp778:
.LBB75_3:
	@DEBUG_VALUE: HAL_TIM_IC_ConfigChannel:Channel <- $r2
	.loc	7 3037 32 is_stmt 1     @ ../Drivers/STM32F1xx_HAL_Driver/Src/stm32f1xx_hal_tim.c:3037:32
	ldrd	r1, r2, [r5]
.Ltmp779:
	.loc	7 3039 32               @ ../Drivers/STM32F1xx_HAL_Driver/Src/stm32f1xx_hal_tim.c:3039:32
	ldr	r3, [r5, #12]
	.loc	7 3036 29               @ ../Drivers/STM32F1xx_HAL_Driver/Src/stm32f1xx_hal_tim.c:3036:29
	ldr	r0, [r4]
	.loc	7 3036 5 is_stmt 0      @ ../Drivers/STM32F1xx_HAL_Driver/Src/stm32f1xx_hal_tim.c:3036:5
	bl	TIM_TI2_SetConfig
	.loc	7 3042 11 is_stmt 1     @ ../Drivers/STM32F1xx_HAL_Driver/Src/stm32f1xx_hal_tim.c:3042:11
	ldr	r0, [r4]
	.loc	7 3042 27 is_stmt 0     @ ../Drivers/STM32F1xx_HAL_Driver/Src/stm32f1xx_hal_tim.c:3042:27
	ldr	r1, [r0, #24]!
	b	.LBB75_8
.Ltmp780:
.LBB75_4:
	@DEBUG_VALUE: HAL_TIM_IC_ConfigChannel:Channel <- $r2
	.loc	7 0 27                  @ ../Drivers/STM32F1xx_HAL_Driver/Src/stm32f1xx_hal_tim.c:0:27
	ldrd	r1, r12, [r5]
	ldr	r3, [r5, #12]
	ldr	r0, [r4]
	.loc	7 3047 12 is_stmt 1     @ ../Drivers/STM32F1xx_HAL_Driver/Src/stm32f1xx_hal_tim.c:3047:12
	cmp	r2, #8
	bne	.LBB75_7
.Ltmp781:
@ %bb.5:
	@DEBUG_VALUE: HAL_TIM_IC_ConfigChannel:Channel <- $r2
	.loc	7 3052 5                @ ../Drivers/STM32F1xx_HAL_Driver/Src/stm32f1xx_hal_tim.c:3052:5
	mov	r2, r12
.Ltmp782:
	bl	TIM_TI3_SetConfig
	.loc	7 3058 11               @ ../Drivers/STM32F1xx_HAL_Driver/Src/stm32f1xx_hal_tim.c:3058:11
	ldr	r0, [r4]
	.loc	7 3058 27 is_stmt 0     @ ../Drivers/STM32F1xx_HAL_Driver/Src/stm32f1xx_hal_tim.c:3058:27
	ldr	r1, [r0, #28]!
.Ltmp783:
.LBB75_6:
	.loc	7 0 27                  @ ../Drivers/STM32F1xx_HAL_Driver/Src/stm32f1xx_hal_tim.c:0:27
	bic	r1, r1, #12
	str	r1, [r0]
	ldr	r1, [r5, #8]
	b	.LBB75_9
.LBB75_7:
.Ltmp784:
	@DEBUG_VALUE: HAL_TIM_IC_ConfigChannel:Channel <- $r2
	.loc	7 3068 5 is_stmt 1      @ ../Drivers/STM32F1xx_HAL_Driver/Src/stm32f1xx_hal_tim.c:3068:5
	mov	r2, r12
.Ltmp785:
	bl	TIM_TI4_SetConfig
	.loc	7 3074 11               @ ../Drivers/STM32F1xx_HAL_Driver/Src/stm32f1xx_hal_tim.c:3074:11
	ldr	r0, [r4]
	.loc	7 3074 27 is_stmt 0     @ ../Drivers/STM32F1xx_HAL_Driver/Src/stm32f1xx_hal_tim.c:3074:27
	ldr	r1, [r0, #28]!
.Ltmp786:
.LBB75_8:
	.loc	7 0 27                  @ ../Drivers/STM32F1xx_HAL_Driver/Src/stm32f1xx_hal_tim.c:0:27
	bic	r1, r1, #3072
	str	r1, [r0]
	ldr	r1, [r5, #8]
	lsls	r1, r1, #8
.LBB75_9:
	ldr	r2, [r0]
	orrs	r1, r2
	str	r1, [r0]
	movs	r0, #0
.Ltmp787:
	.loc	7 3082 3 is_stmt 1      @ ../Drivers/STM32F1xx_HAL_Driver/Src/stm32f1xx_hal_tim.c:3082:3
	str	r0, [r4, #60]
.Ltmp788:
	.loc	7 3080 15               @ ../Drivers/STM32F1xx_HAL_Driver/Src/stm32f1xx_hal_tim.c:3080:15
	movs	r1, #1
	str	r1, [r4, #64]
	.loc	7 3085 1                @ ../Drivers/STM32F1xx_HAL_Driver/Src/stm32f1xx_hal_tim.c:3085:1
	pop	{r4, r5, r7, pc}
.Ltmp789:
.Lfunc_end75:
	.size	HAL_TIM_IC_ConfigChannel, .Lfunc_end75-HAL_TIM_IC_ConfigChannel
	.cfi_endproc
	.cantunwind
	.fnend
                                        @ -- End function
	.section	.text.TIM_TI1_SetConfig,"ax",%progbits
	.hidden	TIM_TI1_SetConfig       @ -- Begin function TIM_TI1_SetConfig
	.globl	TIM_TI1_SetConfig
	.p2align	2
	.type	TIM_TI1_SetConfig,%function
	.code	16                      @ @TIM_TI1_SetConfig
	.thumb_func
TIM_TI1_SetConfig:
.Lfunc_begin76:
	.loc	7 5047 0                @ ../Drivers/STM32F1xx_HAL_Driver/Src/stm32f1xx_hal_tim.c:5047:0
	.fnstart
	.cfi_startproc
@ %bb.0:
	.save	{r4, lr}
	push	{r4, lr}
	.cfi_def_cfa_offset 8
	.cfi_offset lr, -4
	.cfi_offset r4, -8
	@DEBUG_VALUE: TIM_TI1_SetConfig:TIMx <- $r0
	@DEBUG_VALUE: TIM_TI1_SetConfig:TIMx <- $r0
	@DEBUG_VALUE: TIM_TI1_SetConfig:TIM_ICPolarity <- $r1
	@DEBUG_VALUE: TIM_TI1_SetConfig:TIM_ICPolarity <- $r1
	@DEBUG_VALUE: TIM_TI1_SetConfig:TIM_ICSelection <- $r2
	@DEBUG_VALUE: TIM_TI1_SetConfig:TIM_ICSelection <- $r2
	@DEBUG_VALUE: TIM_TI1_SetConfig:TIM_ICFilter <- $r3
	@DEBUG_VALUE: TIM_TI1_SetConfig:TIM_ICFilter <- $r3
.Ltmp790:
	@DEBUG_VALUE: TIM_TI1_SetConfig:tmpccmr1 <- 0
	@DEBUG_VALUE: TIM_TI1_SetConfig:tmpccer <- 0
	.loc	7 5052 14 prologue_end  @ ../Drivers/STM32F1xx_HAL_Driver/Src/stm32f1xx_hal_tim.c:5052:14
	ldr.w	r12, [r0, #32]
	bic	r12, r12, #1
	str.w	r12, [r0, #32]
	.loc	7 5053 20               @ ../Drivers/STM32F1xx_HAL_Driver/Src/stm32f1xx_hal_tim.c:5053:20
	ldr.w	lr, [r0, #24]
.Ltmp791:
	@DEBUG_VALUE: TIM_TI1_SetConfig:tmpccmr1 <- $lr
	.loc	7 5054 19               @ ../Drivers/STM32F1xx_HAL_Driver/Src/stm32f1xx_hal_tim.c:5054:19
	ldr.w	r12, [r0, #32]
.Ltmp792:
	@DEBUG_VALUE: TIM_TI1_SetConfig:tmpccer <- $r12
	.loc	7 5057 6                @ ../Drivers/STM32F1xx_HAL_Driver/Src/stm32f1xx_hal_tim.c:5057:6
	movw	r4, #2047
	movt	r4, #16384
	cmp	r0, r4
	bgt	.LBB76_3
.Ltmp793:
@ %bb.1:
	@DEBUG_VALUE: TIM_TI1_SetConfig:tmpccer <- $r12
	@DEBUG_VALUE: TIM_TI1_SetConfig:tmpccmr1 <- $lr
	@DEBUG_VALUE: TIM_TI1_SetConfig:TIM_ICFilter <- $r3
	@DEBUG_VALUE: TIM_TI1_SetConfig:TIM_ICSelection <- $r2
	@DEBUG_VALUE: TIM_TI1_SetConfig:TIM_ICPolarity <- $r1
	@DEBUG_VALUE: TIM_TI1_SetConfig:TIMx <- $r0
	cmp.w	r0, #1073741824
	beq	.LBB76_6
.Ltmp794:
@ %bb.2:
	@DEBUG_VALUE: TIM_TI1_SetConfig:tmpccer <- $r12
	@DEBUG_VALUE: TIM_TI1_SetConfig:tmpccmr1 <- $lr
	@DEBUG_VALUE: TIM_TI1_SetConfig:TIM_ICFilter <- $r3
	@DEBUG_VALUE: TIM_TI1_SetConfig:TIM_ICSelection <- $r2
	@DEBUG_VALUE: TIM_TI1_SetConfig:TIM_ICPolarity <- $r1
	@DEBUG_VALUE: TIM_TI1_SetConfig:TIMx <- $r0
	.loc	7 0 6 is_stmt 0         @ ../Drivers/STM32F1xx_HAL_Driver/Src/stm32f1xx_hal_tim.c:0:6
	movw	r4, #1024
	b	.LBB76_5
.Ltmp795:
.LBB76_3:
	@DEBUG_VALUE: TIM_TI1_SetConfig:tmpccer <- $r12
	@DEBUG_VALUE: TIM_TI1_SetConfig:tmpccmr1 <- $lr
	@DEBUG_VALUE: TIM_TI1_SetConfig:TIM_ICFilter <- $r3
	@DEBUG_VALUE: TIM_TI1_SetConfig:TIM_ICSelection <- $r2
	@DEBUG_VALUE: TIM_TI1_SetConfig:TIM_ICPolarity <- $r1
	@DEBUG_VALUE: TIM_TI1_SetConfig:TIMx <- $r0
	movw	r4, #11264
	movt	r4, #16385
	.loc	7 5057 6                @ ../Drivers/STM32F1xx_HAL_Driver/Src/stm32f1xx_hal_tim.c:5057:6
	cmp	r0, r4
	beq	.LBB76_6
.Ltmp796:
@ %bb.4:
	@DEBUG_VALUE: TIM_TI1_SetConfig:tmpccer <- $r12
	@DEBUG_VALUE: TIM_TI1_SetConfig:tmpccmr1 <- $lr
	@DEBUG_VALUE: TIM_TI1_SetConfig:TIM_ICFilter <- $r3
	@DEBUG_VALUE: TIM_TI1_SetConfig:TIM_ICSelection <- $r2
	@DEBUG_VALUE: TIM_TI1_SetConfig:TIM_ICPolarity <- $r1
	@DEBUG_VALUE: TIM_TI1_SetConfig:TIMx <- $r0
	.loc	7 0 6                   @ ../Drivers/STM32F1xx_HAL_Driver/Src/stm32f1xx_hal_tim.c:0:6
	movw	r4, #2048
.Ltmp797:
.LBB76_5:
	@DEBUG_VALUE: TIM_TI1_SetConfig:tmpccer <- $r12
	@DEBUG_VALUE: TIM_TI1_SetConfig:tmpccmr1 <- $lr
	@DEBUG_VALUE: TIM_TI1_SetConfig:TIM_ICFilter <- $r3
	@DEBUG_VALUE: TIM_TI1_SetConfig:TIM_ICSelection <- $r2
	@DEBUG_VALUE: TIM_TI1_SetConfig:TIM_ICPolarity <- $r1
	@DEBUG_VALUE: TIM_TI1_SetConfig:TIMx <- $r0
	movt	r4, #16384
	.loc	7 5057 6                @ ../Drivers/STM32F1xx_HAL_Driver/Src/stm32f1xx_hal_tim.c:5057:6
	cmp	r0, r4
	bne	.LBB76_8
.Ltmp798:
.LBB76_6:
	@DEBUG_VALUE: TIM_TI1_SetConfig:tmpccer <- $r12
	@DEBUG_VALUE: TIM_TI1_SetConfig:tmpccmr1 <- $lr
	@DEBUG_VALUE: TIM_TI1_SetConfig:TIM_ICFilter <- $r3
	@DEBUG_VALUE: TIM_TI1_SetConfig:TIM_ICSelection <- $r2
	@DEBUG_VALUE: TIM_TI1_SetConfig:TIM_ICPolarity <- $r1
	@DEBUG_VALUE: TIM_TI1_SetConfig:TIMx <- $r0
	.loc	7 5059 14 is_stmt 1     @ ../Drivers/STM32F1xx_HAL_Driver/Src/stm32f1xx_hal_tim.c:5059:14
	bic	r4, lr, #3
.Ltmp799:
	@DEBUG_VALUE: TIM_TI1_SetConfig:tmpccmr1 <- $r4
	.loc	7 5060 14               @ ../Drivers/STM32F1xx_HAL_Driver/Src/stm32f1xx_hal_tim.c:5060:14
	orrs	r2, r4
.Ltmp800:
	@DEBUG_VALUE: TIM_TI1_SetConfig:tmpccmr1 <- $r2
.LBB76_7:
	@DEBUG_VALUE: TIM_TI1_SetConfig:tmpccmr1 <- $r2
	@DEBUG_VALUE: TIM_TI1_SetConfig:tmpccer <- $r12
	@DEBUG_VALUE: TIM_TI1_SetConfig:TIM_ICFilter <- $r3
	@DEBUG_VALUE: TIM_TI1_SetConfig:TIM_ICPolarity <- $r1
	@DEBUG_VALUE: TIM_TI1_SetConfig:TIMx <- $r0
	@DEBUG_VALUE: TIM_TI1_SetConfig:tmpccmr1 <- $r2
	.loc	7 5069 12               @ ../Drivers/STM32F1xx_HAL_Driver/Src/stm32f1xx_hal_tim.c:5069:12
	bfi	r2, r3, #4, #4
.Ltmp801:
	@DEBUG_VALUE: TIM_TI1_SetConfig:tmpccmr1 <- $r2
	.loc	7 5076 15               @ ../Drivers/STM32F1xx_HAL_Driver/Src/stm32f1xx_hal_tim.c:5076:15
	str	r2, [r0, #24]
	.loc	7 5073 30               @ ../Drivers/STM32F1xx_HAL_Driver/Src/stm32f1xx_hal_tim.c:5073:30
	and	r1, r1, #10
.Ltmp802:
	.loc	7 5072 11               @ ../Drivers/STM32F1xx_HAL_Driver/Src/stm32f1xx_hal_tim.c:5072:11
	bic	r2, r12, #10
.Ltmp803:
	@DEBUG_VALUE: TIM_TI1_SetConfig:tmpccer <- $r2
	.loc	7 5073 11               @ ../Drivers/STM32F1xx_HAL_Driver/Src/stm32f1xx_hal_tim.c:5073:11
	orrs	r1, r2
.Ltmp804:
	@DEBUG_VALUE: TIM_TI1_SetConfig:tmpccer <- $r1
	.loc	7 5077 14               @ ../Drivers/STM32F1xx_HAL_Driver/Src/stm32f1xx_hal_tim.c:5077:14
	str	r1, [r0, #32]
	.loc	7 5078 1                @ ../Drivers/STM32F1xx_HAL_Driver/Src/stm32f1xx_hal_tim.c:5078:1
	pop	{r4, pc}
.Ltmp805:
.LBB76_8:
	@DEBUG_VALUE: TIM_TI1_SetConfig:tmpccer <- $r12
	@DEBUG_VALUE: TIM_TI1_SetConfig:tmpccmr1 <- $lr
	@DEBUG_VALUE: TIM_TI1_SetConfig:TIM_ICFilter <- $r3
	@DEBUG_VALUE: TIM_TI1_SetConfig:TIM_ICSelection <- $r2
	@DEBUG_VALUE: TIM_TI1_SetConfig:TIM_ICPolarity <- $r1
	@DEBUG_VALUE: TIM_TI1_SetConfig:TIMx <- $r0
	.loc	7 5064 14               @ ../Drivers/STM32F1xx_HAL_Driver/Src/stm32f1xx_hal_tim.c:5064:14
	orr	r2, lr, #1
.Ltmp806:
	@DEBUG_VALUE: TIM_TI1_SetConfig:tmpccmr1 <- $r2
	.loc	7 0 14 is_stmt 0        @ ../Drivers/STM32F1xx_HAL_Driver/Src/stm32f1xx_hal_tim.c:0:14
	b	.LBB76_7
.Ltmp807:
.Lfunc_end76:
	.size	TIM_TI1_SetConfig, .Lfunc_end76-TIM_TI1_SetConfig
	.cfi_endproc
	.cantunwind
	.fnend
                                        @ -- End function
	.section	.text.TIM_TI2_SetConfig,"ax",%progbits
	.p2align	2               @ -- Begin function TIM_TI2_SetConfig
	.type	TIM_TI2_SetConfig,%function
	.code	16                      @ @TIM_TI2_SetConfig
	.thumb_func
TIM_TI2_SetConfig:
.Lfunc_begin77:
	.loc	7 5135 0 is_stmt 1      @ ../Drivers/STM32F1xx_HAL_Driver/Src/stm32f1xx_hal_tim.c:5135:0
	.fnstart
	.cfi_startproc
@ %bb.0:
	@DEBUG_VALUE: TIM_TI2_SetConfig:TIMx <- $r0
	@DEBUG_VALUE: TIM_TI2_SetConfig:TIMx <- $r0
	@DEBUG_VALUE: TIM_TI2_SetConfig:TIM_ICPolarity <- $r1
	@DEBUG_VALUE: TIM_TI2_SetConfig:TIM_ICPolarity <- $r1
	@DEBUG_VALUE: TIM_TI2_SetConfig:TIM_ICSelection <- $r2
	@DEBUG_VALUE: TIM_TI2_SetConfig:TIM_ICSelection <- $r2
	@DEBUG_VALUE: TIM_TI2_SetConfig:TIM_ICFilter <- $r3
	@DEBUG_VALUE: TIM_TI2_SetConfig:TIM_ICFilter <- $r3
	@DEBUG_VALUE: TIM_TI2_SetConfig:tmpccmr1 <- 0
	@DEBUG_VALUE: TIM_TI2_SetConfig:tmpccer <- 0
	.loc	7 5140 14 prologue_end  @ ../Drivers/STM32F1xx_HAL_Driver/Src/stm32f1xx_hal_tim.c:5140:14
	ldr.w	r12, [r0, #32]
	bic	r12, r12, #16
	str.w	r12, [r0, #32]
	.loc	7 5146 32               @ ../Drivers/STM32F1xx_HAL_Driver/Src/stm32f1xx_hal_tim.c:5146:32
	lsl.w	r12, r2, #8
	.loc	7 5149 12               @ ../Drivers/STM32F1xx_HAL_Driver/Src/stm32f1xx_hal_tim.c:5149:12
	movw	r2, #61695
.Ltmp808:
	bic.w	r2, r12, r2
	bfi	r2, r3, #12, #4
.Ltmp809:
	@DEBUG_VALUE: TIM_TI2_SetConfig:tmpccmr1 <- $r2
	.loc	7 5141 20               @ ../Drivers/STM32F1xx_HAL_Driver/Src/stm32f1xx_hal_tim.c:5141:20
	ldr	r3, [r0, #24]
.Ltmp810:
	@DEBUG_VALUE: TIM_TI2_SetConfig:tmpccmr1 <- $r3
	.loc	7 5145 12               @ ../Drivers/STM32F1xx_HAL_Driver/Src/stm32f1xx_hal_tim.c:5145:12
	bic	r3, r3, #62208
.Ltmp811:
	@DEBUG_VALUE: TIM_TI2_SetConfig:tmpccmr1 <- $r3
	.loc	7 5150 12               @ ../Drivers/STM32F1xx_HAL_Driver/Src/stm32f1xx_hal_tim.c:5150:12
	orrs	r2, r3
.Ltmp812:
	@DEBUG_VALUE: TIM_TI2_SetConfig:tmpccmr1 <- $r2
	.loc	7 5142 19               @ ../Drivers/STM32F1xx_HAL_Driver/Src/stm32f1xx_hal_tim.c:5142:19
	ldr	r3, [r0, #32]
.Ltmp813:
	@DEBUG_VALUE: TIM_TI2_SetConfig:tmpccer <- $r3
	.loc	7 5157 15               @ ../Drivers/STM32F1xx_HAL_Driver/Src/stm32f1xx_hal_tim.c:5157:15
	str	r2, [r0, #24]
	.loc	7 5154 38               @ ../Drivers/STM32F1xx_HAL_Driver/Src/stm32f1xx_hal_tim.c:5154:38
	and	r1, r1, #10
.Ltmp814:
	.loc	7 5153 11               @ ../Drivers/STM32F1xx_HAL_Driver/Src/stm32f1xx_hal_tim.c:5153:11
	bic	r2, r3, #160
.Ltmp815:
	@DEBUG_VALUE: TIM_TI2_SetConfig:tmpccer <- $r2
	.loc	7 5154 11               @ ../Drivers/STM32F1xx_HAL_Driver/Src/stm32f1xx_hal_tim.c:5154:11
	orr.w	r1, r2, r1, lsl #4
.Ltmp816:
	@DEBUG_VALUE: TIM_TI2_SetConfig:tmpccer <- $r1
	.loc	7 5158 14               @ ../Drivers/STM32F1xx_HAL_Driver/Src/stm32f1xx_hal_tim.c:5158:14
	str	r1, [r0, #32]
	.loc	7 5159 1                @ ../Drivers/STM32F1xx_HAL_Driver/Src/stm32f1xx_hal_tim.c:5159:1
	bx	lr
.Ltmp817:
.Lfunc_end77:
	.size	TIM_TI2_SetConfig, .Lfunc_end77-TIM_TI2_SetConfig
	.cfi_endproc
	.cantunwind
	.fnend
                                        @ -- End function
	.section	.text.TIM_TI3_SetConfig,"ax",%progbits
	.p2align	2               @ -- Begin function TIM_TI3_SetConfig
	.type	TIM_TI3_SetConfig,%function
	.code	16                      @ @TIM_TI3_SetConfig
	.thumb_func
TIM_TI3_SetConfig:
.Lfunc_begin78:
	.loc	7 5216 0                @ ../Drivers/STM32F1xx_HAL_Driver/Src/stm32f1xx_hal_tim.c:5216:0
	.fnstart
	.cfi_startproc
@ %bb.0:
	@DEBUG_VALUE: TIM_TI3_SetConfig:TIMx <- $r0
	@DEBUG_VALUE: TIM_TI3_SetConfig:TIMx <- $r0
	@DEBUG_VALUE: TIM_TI3_SetConfig:TIM_ICPolarity <- $r1
	@DEBUG_VALUE: TIM_TI3_SetConfig:TIM_ICPolarity <- $r1
	@DEBUG_VALUE: TIM_TI3_SetConfig:TIM_ICSelection <- $r2
	@DEBUG_VALUE: TIM_TI3_SetConfig:TIM_ICSelection <- $r2
	@DEBUG_VALUE: TIM_TI3_SetConfig:TIM_ICFilter <- $r3
	@DEBUG_VALUE: TIM_TI3_SetConfig:TIM_ICFilter <- $r3
	@DEBUG_VALUE: TIM_TI3_SetConfig:tmpccmr2 <- 0
	@DEBUG_VALUE: TIM_TI3_SetConfig:tmpccer <- 0
	.loc	7 5221 14 prologue_end  @ ../Drivers/STM32F1xx_HAL_Driver/Src/stm32f1xx_hal_tim.c:5221:14
	ldr.w	r12, [r0, #32]
	bic	r12, r12, #256
	str.w	r12, [r0, #32]
	.loc	7 5230 12               @ ../Drivers/STM32F1xx_HAL_Driver/Src/stm32f1xx_hal_tim.c:5230:12
	bfi	r2, r3, #4, #4
.Ltmp818:
	@DEBUG_VALUE: TIM_TI3_SetConfig:tmpccmr2 <- $r2
	.loc	7 5222 20               @ ../Drivers/STM32F1xx_HAL_Driver/Src/stm32f1xx_hal_tim.c:5222:20
	ldr	r3, [r0, #28]
.Ltmp819:
	@DEBUG_VALUE: TIM_TI3_SetConfig:tmpccmr2 <- $r3
	.loc	7 5226 12               @ ../Drivers/STM32F1xx_HAL_Driver/Src/stm32f1xx_hal_tim.c:5226:12
	bic	r3, r3, #243
.Ltmp820:
	@DEBUG_VALUE: TIM_TI3_SetConfig:tmpccmr2 <- $r3
	.loc	7 5231 12               @ ../Drivers/STM32F1xx_HAL_Driver/Src/stm32f1xx_hal_tim.c:5231:12
	orrs	r2, r3
.Ltmp821:
