	.text
	.syntax unified
	.eabi_attribute	67, "2.09"	@ Tag_conformance
	.cpu	cortex-m3
	.eabi_attribute	6, 10	@ Tag_CPU_arch
	.eabi_attribute	7, 77	@ Tag_CPU_arch_profile
	.eabi_attribute	8, 0	@ Tag_ARM_ISA_use
	.eabi_attribute	9, 2	@ Tag_THUMB_ISA_use
	.eabi_attribute	34, 1	@ Tag_CPU_unaligned_access
	.eabi_attribute	17, 1	@ Tag_ABI_PCS_GOT_use
	.eabi_attribute	20, 2	@ Tag_ABI_FP_denormal
	.eabi_attribute	21, 0	@ Tag_ABI_FP_exceptions
	.eabi_attribute	23, 1	@ Tag_ABI_FP_number_model
	.eabi_attribute	24, 1	@ Tag_ABI_align_needed
	.eabi_attribute	25, 1	@ Tag_ABI_align_preserved
	.eabi_attribute	38, 1	@ Tag_ABI_FP_16bit_format
	.eabi_attribute	18, 4	@ Tag_ABI_PCS_wchar_t
	.eabi_attribute	26, 2	@ Tag_ABI_enum_size
	.eabi_attribute	14, 0	@ Tag_ABI_PCS_R9_use
	.file	"stm32f1xx_hal_spi_ex.c"
	.file	1 "../Drivers/STM32F1xx_HAL_Driver/Inc" "stm32f1xx_hal_def.h"
	.file	2 "../Drivers/STM32F1xx_HAL_Driver/Inc" "stm32f1xx_hal_dma.h"
	.file	3 "../Drivers/STM32F1xx_HAL_Driver/Inc" "stm32f1xx_hal_spi.h"
	.section	.text.HAL_SPI_Init,"ax",%progbits
	.hidden	HAL_SPI_Init            @ -- Begin function HAL_SPI_Init
	.globl	HAL_SPI_Init
	.p2align	2
	.type	HAL_SPI_Init,%function
	.code	16                      @ @HAL_SPI_Init
	.thumb_func
HAL_SPI_Init:
.Lfunc_begin0:
	.file	4 "../Drivers/STM32F1xx_HAL_Driver/Src" "stm32f1xx_hal_spi_ex.c"
	.loc	4 101 0                 @ ../Drivers/STM32F1xx_HAL_Driver/Src/stm32f1xx_hal_spi_ex.c:101:0
	.fnstart
	.cfi_sections .debug_frame
	.cfi_startproc
@ %bb.0:
	.save	{r4, r5, r6, lr}
	push	{r4, r5, r6, lr}
	.cfi_def_cfa_offset 16
	.cfi_offset lr, -4
	.cfi_offset r6, -8
	.cfi_offset r5, -12
	.cfi_offset r4, -16
	@DEBUG_VALUE: HAL_SPI_Init:hspi <- $r0
	mov	r5, r0
.Ltmp0:
	@DEBUG_VALUE: HAL_SPI_Init:hspi <- $r5
	.loc	4 103 6 prologue_end    @ ../Drivers/STM32F1xx_HAL_Driver/Src/stm32f1xx_hal_spi_ex.c:103:6
	cbz	r0, .LBB0_4
.Ltmp1:
@ %bb.1:
	@DEBUG_VALUE: HAL_SPI_Init:hspi <- $r5
	.loc	4 0 6 is_stmt 0         @ ../Drivers/STM32F1xx_HAL_Driver/Src/stm32f1xx_hal_spi_ex.c:0:6
	movs	r6, #0
	.loc	4 126 29 is_stmt 1      @ ../Drivers/STM32F1xx_HAL_Driver/Src/stm32f1xx_hal_spi_ex.c:126:29
	str	r6, [r5, #40]
.Ltmp2:
	.loc	4 129 12                @ ../Drivers/STM32F1xx_HAL_Driver/Src/stm32f1xx_hal_spi_ex.c:129:12
	ldr	r0, [r5, #84]
.Ltmp3:
	.loc	4 129 6 is_stmt 0       @ ../Drivers/STM32F1xx_HAL_Driver/Src/stm32f1xx_hal_spi_ex.c:129:6
	cbnz	r0, .LBB0_3
.Ltmp4:
@ %bb.2:
	@DEBUG_VALUE: HAL_SPI_Init:hspi <- $r5
	.loc	4 132 5 is_stmt 1       @ ../Drivers/STM32F1xx_HAL_Driver/Src/stm32f1xx_hal_spi_ex.c:132:5
	mov	r0, r5
	bl	HAL_SPI_MspInit
.Ltmp5:
.LBB0_3:
	@DEBUG_VALUE: HAL_SPI_Init:hspi <- $r5
	.loc	4 135 15                @ ../Drivers/STM32F1xx_HAL_Driver/Src/stm32f1xx_hal_spi_ex.c:135:15
	movs	r0, #2
	str	r0, [r5, #84]
	.loc	4 138 3                 @ ../Drivers/STM32F1xx_HAL_Driver/Src/stm32f1xx_hal_spi_ex.c:138:3
	ldr	r0, [r5]
	ldr	r1, [r0]
	bic	r1, r1, #64
	str	r1, [r0]
	.loc	4 143 3                 @ ../Drivers/STM32F1xx_HAL_Driver/Src/stm32f1xx_hal_spi_ex.c:143:3
	adds	r4, r5, #4
	ldm	r4, {r1, r2, r3, r4}
	orrs	r1, r2
	orrs	r1, r3
	orrs	r1, r4
	ldr	r2, [r5, #20]
	orrs	r1, r2
	ldr	r2, [r5, #24]
	and	r3, r2, #512
	orrs	r1, r3
	ldr	r3, [r5, #28]
	orrs	r1, r3
	ldr	r3, [r5, #32]
	orrs	r1, r3
	ldr	r3, [r5, #40]
	orrs	r1, r3
	str	r1, [r0]
	movs	r1, #4
	.loc	4 148 3                 @ ../Drivers/STM32F1xx_HAL_Driver/Src/stm32f1xx_hal_spi_ex.c:148:3
	and.w	r1, r1, r2, lsr #16
	ldr	r2, [r5, #36]
	orrs	r1, r2
	str	r1, [r0, #4]
	.loc	4 152 3                 @ ../Drivers/STM32F1xx_HAL_Driver/Src/stm32f1xx_hal_spi_ex.c:152:3
	ldr	r1, [r5, #44]
	str	r1, [r0, #16]
	.loc	4 156 3                 @ ../Drivers/STM32F1xx_HAL_Driver/Src/stm32f1xx_hal_spi_ex.c:156:3
	ldr	r1, [r0, #28]
	bic	r1, r1, #2048
	str	r1, [r0, #28]
	.loc	4 173 19                @ ../Drivers/STM32F1xx_HAL_Driver/Src/stm32f1xx_hal_spi_ex.c:173:19
	str	r6, [r5, #88]
	.loc	4 174 15                @ ../Drivers/STM32F1xx_HAL_Driver/Src/stm32f1xx_hal_spi_ex.c:174:15
	movs	r0, #1
	str	r0, [r5, #84]
	.loc	4 177 1                 @ ../Drivers/STM32F1xx_HAL_Driver/Src/stm32f1xx_hal_spi_ex.c:177:1
	mov	r0, r6
	pop	{r4, r5, r6, pc}
.Ltmp6:
.LBB0_4:
	@DEBUG_VALUE: HAL_SPI_Init:hspi <- $r5
	.loc	4 0 1 is_stmt 0         @ ../Drivers/STM32F1xx_HAL_Driver/Src/stm32f1xx_hal_spi_ex.c:0:1
	movs	r6, #1
	.loc	4 177 1                 @ ../Drivers/STM32F1xx_HAL_Driver/Src/stm32f1xx_hal_spi_ex.c:177:1
	mov	r0, r6
	pop	{r4, r5, r6, pc}
.Ltmp7:
.Lfunc_end0:
	.size	HAL_SPI_Init, .Lfunc_end0-HAL_SPI_Init
	.cfi_endproc
	.cantunwind
	.fnend
                                        @ -- End function
	.file	5 "C:\\Keil\\ARM\\ARMCLANG\\Bin\\..\\include" "stdint.h"
	.file	6 "../Drivers/CMSIS/Device/ST/STM32F1xx/Include" "stm32f103xb.h"
	.section	".note.GNU-stack","",%progbits
	.eabi_attribute	30, 1	@ Tag_ABI_optimization_goals
	.ARM_attribute	16, 1	@ Tag_AV_eba